ccopy_reg
_reconstructor
p1
(ctethne.classes.paper
Paper
p2
c__builtin__
object
p3
NtRp4
(dp5
S'publisherCity'
p6
VDORDRECHT
p7
sS'reprintAddress'
p8
VLeon, VM (reprint author), Ctr Oceanog Murcia, Inst Espanol Oceanog, Apdo 22,C Varadero 1, Murcia 30740, Spain.
p9
sS'WC'
p10
(lp11
VENVIRONMENTAL SCIENCES
p12
asS'GA'
p13
V068ID
p14
sS'FX'
p15
(lp16
VThis study was carried out within the MEDPOLIEO Project supported by the
p17
aVSpanish Ministry of Environment and by the Spanish Institute of
p18
aVOceanography (Instituto Espanol de Oceanografia).
p19
asS'abstract'
p20
VPolycyclic aromatic hydrocarbons (PAHs) have been determined in blue mussels (Mytilus galloprovincialis) from several Iberian Mediterranean coastal areas through the implementation of a monitoring programme from Spain in the framework of the Mediterranean Pollution Programme (MED POL). The selected areas correspond to sites with differing degrees of exposure to the main pollution sources (hot spots, coastal and reference areas). The sampling campaigns were performed from 2004 to 2009, with samples being taken from May to June, the non-spawning period for mussels in this area. Thirteen PAHs were determined by high-performance liquid chromatography with specific fluorescence detection. In general, total PAHs concentration was lower than 50 mu g kg(-1) d.w., except in areas close to the principal ports and cities (Barcelona, Tarragona, Valencia and Algeciras) where it varies from 75 to 390 mu g kg(-1) d.w. Background concentrations have been proposed for PAHs in mussels (23.8 mu g kg(-1) d.w.) from Western Mediterranean area. Temporal trends were not statistically significant for PAHs concentrations from 2004 to 2009. Longer monitoring periods would be required to detect a continuous tendency, especially for PAHs because although the efficiency of combustion engines has reduced PAHs emissions, their increasing use could alter this potential reduction. The predominant PAHs were three and four ring congeners in all cases, with the predominance of phenanthrene in mussels sited far from the main PAHs sources. The phenanthrene/anthracene (lower than 10) and fluoranthene/pyrene (higher than 1) ratios indicate that PAHs detected in Spanish Mediterranean coastal mussels are mainly of pyrolytic origin.
p21
sS'keywordsPlus'
p22
(lp23
VBioaccumulation; Mussel; Mytilus galloprovincialis; Distribution;
p24
aVPolycyclic aromatic hydrocarbons; Temporal trend
p25
asS'pageEnd'
p26
I1070
sS'date'
p27
I2013
sS'documentType'
p28
VArticle
p29
sS'subject'
p30
(lp31
VENVIRONMENTAL SCIENCES & ECOLOGY
p32
asS'isoSource'
p33
VEnviron. Monit. Assess.
p34
sS'timesCited'
p35
VZ9 0
p36
sS'funding'
p37
(lp38
(VSpanish Ministry of Environment
Ntp39
a(VSpanish Institute of Oceanography (Instituto Espanol de Oceanografia)
Ntp40
asS'PT'
p41
VJ
sS'title'
p42
VSpatial Distribution And Temporal Trends Of Polycyclic Aromatic Hydrocarbons In Mytilus Galloprovincialis From The Iberian Mediterranean Coast
p43
sS'ISSN'
p44
(lp45
V0167-6369
p46
aVJ9 ENVIRON MONIT ASSESS
p47
asS'authors_full'
p48
(lp49
(VLEON
VV M
tp50
a(VMARTINEZGOMEZ
VC
tp51
a(VGARCIA
VI
tp52
a(VCAMPILLO
VJ A
tp53
a(VBENEDICTO
VJ
tp54
asS'PG'
p55
I16
sS'PD'
p56
VFEB
p57
sS'pageStart'
p58
I1055
sS'issue'
p59
I2
sS'journal'
p60
VENVIRONMENTAL MONITORING AND ASSESSMENT
p61
sS'hashIndex'
p62
S'34c305adde01a4bdd96fb52c627a4341'
p63
sS'volume'
p64
V185
p65
sS'doi'
p66
V10.1007/s10661-012-2614-0
p67
sS'emailAddress'
p68
Vvictor.leon@mu.ieo.es
p69
sS'authorAddress'
p70
(lp71
VCtr Oceanog Murcia, Inst Espanol Oceanog, Murcia 30740, Spain.
p72
asS'publisherAddress'
p73
VVAN GODEWIJCKSTRAAT 30, 3311 GZ DORDRECHT, NETHERLANDS
p74
sS'publisher'
p75
VSPRINGER
p76
sS'authorKeywords'
p77
(lp78
VPRESTIGE OIL-SPILL
p79
aVADRIATIC SEA
p80
aVWILD MUSSELS
p81
aVCONTAMINATION
p82
aVSEDIMENT
p83
aVORIGIN
p84
aVPAHS
p85
aVBIOAVAILABILITY
p86
aVRESPONSES
p87
aVSEAWATER
p88
asS'addresses'
p89
(dp90
S'__all__'
p91
(lp92
(VCTR OCEANOG MURCIA
VSPAIN
(lp93
VCtr Oceanog Murcia
p94
aVInst Espanol Oceanog
p95
aVMurcia 30740
p96
aVSpain.
p97
atp98
assS'language'
p99
VEnglish
p100
sS'wosid'
p101
VWOS:000313359000003
p102
sS'citationCount'
p103
I25
sS'authors_init'
p104
(lp105
(VLEON
VV M
tp106
a(VMARTINEZGOMEZ
VC
tp107
a(VGARCIA
VI
tp108
a(VCAMPILLO
VJ A
tp109
a(VBENEDICTO
VJ
tp110
asS'citedReferences'
p111
(lp112
g1
(g2
g3
NtRp113
(dp114
g66
V10.1016/j.morpolbul.2004.05.008
p115
sg60
VMAR POLLUT BULL
p116
sg64
V49
p117
sg104
(lp118
(VANDRAL
VB
tp119
asg27
I2004
sg58
V704
p120
sbag1
(g2
g3
NtRp121
(dp122
g66
V10.1080/10406630600904059
p123
sg60
VPOLYCYCL AROMAT COMP
p124
sg64
V26
p125
sg104
(lp126
(VAZDI
VM
tp127
asg27
I2006
sg58
VOLYCYCL
p128
sbag1
(g2
g3
NtRp129
(dp130
g66
V10.1006/ecss.1998.0337
p131
sg60
VESTUAR COAST SHELF S
p132
sg64
V47
p133
sg104
(lp134
(VBAUMARD
VP
tp135
asg27
I1998
sg58
V77
p136
sbag1
(g2
g3
NtRp137
(dp138
g66
V10.1016/S0141-1136(98)00128-7
p139
sg60
VMAR ENVIRON RES
p140
sg64
V47
p141
sg104
(lp142
(VBAUMARD
VP
tp143
asg27
I1999
sg58
V415
p144
sbag1
(g2
g3
NtRp145
(dp146
g66
V10.1007/s00244-005-0259-5
p147
sg60
VARCH ENVIRON CON TOX
p148
sg64
V52
p149
sg104
(lp150
(VBIHARI
VN
tp151
asg27
I2007
sg58
V379
p152
sbag1
(g2
g3
NtRp153
(dp154
g66
V10.1007/s10661-010-1574-5
p155
sg60
VENVIRON MONIT ASSESS
p156
sg64
V176
p157
sg104
(lp158
(VBOUZAS
VA
tp159
asg27
I2011
sg58
V169
p160
sbag1
(g2
g3
NtRp161
(dp162
g66
V10.1007/s10661-009-1190-4
p163
sg60
VENVIRON MONIT ASSESS
p164
sg64
V169
p165
sg104
(lp166
(VCHOI
VH G
tp167
asg27
I2010
sg58
V473
p168
sbag1
(g2
g3
NtRp169
(dp170
g66
V10.1080/10406630590922166
p171
sg60
VPOLYCYCL AROMAT COMP
p172
sg64
V25
p173
sg104
(lp174
(VCVRCKOVA
VO
tp175
asg27
I2005
sg58
VOLYCYCL
p176
sbag1
(g2
g3
NtRp177
(dp178
g66
V10.1007/s10646-009-0450-y
p179
sg60
VECOTOXICOLOGY
p180
sg64
V19
p181
sg104
(lp182
(VFERNANDEZ
VB
tp183
asg27
I2010
sg58
V735
p184
sbag1
(g2
g3
NtRp185
(dp186
g66
V10.1007/s10661-010-1335-5
p187
sg60
VENVIRON MONIT ASSESS
p188
sg64
V172
p189
sg104
(lp190
(VGALGANI
VF
tp191
asg27
I2011
sg58
V301
p192
sbag1
(g2
g3
NtRp193
(dp194
g66
V[10.2788/85887, DOI 10.2788/85887]
p195
sg60
VSCI TECHNICAL RES SE
p196
sg64
Nsg104
(lp197
(VLAW
VR
tp198
asg27
I2010
sg58
Nsbag1
(g2
g3
NtRp199
(dp200
g66
V10.1016/j.chemosphere.2006.07.057
p201
sg60
VCHEMOSPHERE
p202
sg64
V66
p203
sg104
(lp204
(VLIMA
VI
tp205
asg27
I2007
sg58
V1230
p206
sbag1
(g2
g3
NtRp207
(dp208
g66
V10.1016/S0967-0645(96)00093-8
p209
sg60
VDEEP
p210
sg64
V44
p211
sg104
(lp212
(VLIPIATOU
VE
tp213
asg27
I1997
sg58
V881
p214
sbag1
(g2
g3
NtRp215
(dp216
g66
V10.1016/j.marpolbul.2007.09.009
p217
sg60
VMAR POLLUT BULL
p218
sg64
V55
p219
sg104
(lp220
(VNESTO
VN
tp221
asg27
I2007
sg58
V469
p222
sbag1
(g2
g3
NtRp223
(dp224
g66
V10.1016/j.marenvres.2006.04.067
p225
sg60
VMAR ENVIRON RES
p226
sg64
V62
p227
sg104
(lp228
(VO'CONNOR
VT P
tp229
asg27
I2006
sg58
V261
p230
sbag1
(g2
g3
NtRp231
(dp232
g66
V10.1016/j.chemosphere.2006.07.079
p233
sg60
VCHEMOSPHERE
p234
sg64
V66
p235
sg104
(lp236
(VPERUGINI
VM
tp237
asg27
I2007
sg58
V1904
p238
sbag1
(g2
g3
NtRp239
(dp240
g66
V10.1016/0004-6981(87)90356-8
p241
sg60
VATMOS ENVIRON
p242
sg64
V21
p243
sg104
(lp244
(VSICRE
VM A
tp245
asg27
I1987
sg58
V2247
p246
sbag1
(g2
g3
NtRp247
(dp248
g66
V10.1016/S0025-326X(99)00200-3
p249
sg60
VMAR POLLUT BULL
p250
sg64
V40
p251
sg104
(lp252
(VSOCLO
VH H
tp253
asg27
I2000
sg58
V387
p254
sbag1
(g2
g3
NtRp255
(dp256
g66
V10.1016/0045-6535(89)90465-7
p257
sg60
VCHEMOSPHERE
p258
sg64
V18
p259
sg104
(lp260
(VSOLER
VM
tp261
asg27
I1989
sg58
V1809
p262
sbag1
(g2
g3
NtRp263
(dp264
g66
V10.1039/b704989g
p265
sg60
VJ ENVIRON MONITOR
p266
sg64
V9
sg104
(lp267
(VSORIANO
VJ A
tp268
asg27
I2007
sg58
V1018
p269
sbag1
(g2
g3
NtRp270
(dp271
g66
V10.1016/j.scitotenv.2006.06.012
p272
sg60
VSCI TOTAL ENVIRON
p273
sg64
V370
p274
sg104
(lp275
(VSORIANO
VJ A
tp276
asg27
I2006
sg58
V80
p277
sbag1
(g2
g3
NtRp278
(dp279
g66
V10.1016/j.ecss.2008.06.018
p280
sg60
VESTUAR COAST SHELF S
p281
sg64
V79
p282
sg104
(lp283
(VVALAVANIDIS
VA
tp284
asg27
I2008
sg58
V733
p285
sbag1
(g2
g3
NtRp286
(dp287
g66
Nsg60
VPOLYCYCL AROMAT COMP
p288
sg64
V22
p289
sg104
(lp290
(VVINAS
VL
tp291
asg27
I2002
sg58
VOLYCYCL
p292
sbag1
(g2
g3
NtRp293
(dp294
g66
Nsg60
VMUSSEL MYTILUS ECOLO
p295
sg64
Nsg104
(lp296
(VWIDDOWS
VJ
tp297
asg27
I1992
sg58
V383
p298
sbag1
(g2
g3
NtRp299
(dp300
g66
V10.1021/es0494196
p301
sg60
VENVIRON SCI TECHNOL
p302
sg64
V39
p303
sg104
(lp304
(VWILD
VE
tp305
asg27
I2005
sg58
V268
p306
sbasb.