ccopy_reg
_reconstructor
p1
(ctethne.classes.paper
Paper
p2
c__builtin__
object
p3
NtRp4
(dp5
S'publisherCity'
p6
VROCKVILLE
p7
sS'reprintAddress'
p8
VLashbrook, CC (reprint author), Iowa State Univ, Dept Hort, Ames, IA 50011 USA.
p9
sS'WC'
p10
VPlant Sciences
p11
sS'GA'
p12
V308TF
p13
sS'abstract'
p14
VOrgan detachment requires cell separation within abscission zones (AZs). Physiological studies have established that ethylene and auxin contribute to cell separation control. Genetic analyses of abscission mutants have defined ethylene-independent detachment regulators. Functional genomic strategies leading to global understandings of abscission have awaited methods for isolating AZ cells of low abundance and very small size. Here, we couple laser capture microdissection of Arabidopsis thaliana stamen AZs and GeneChip profiling to reveal the AZ transcriptome responding to a developmental shedding cue. Analyses focus on 551 AZ genes (AZ(551)) regulated at the highest statistical significance (P <= 0.0001) over five floral stages linking prepollination to stamen shed. AZ(551) includes mediators of ethylene and auxin signaling as well as receptor-like kinases and extracellular ligands thought to act independent of ethylene. We hypothesized that novel abscission regulators might reside in disproportionately represented Gene Ontology Consortium functional categories for cell wall modifying proteins, extracellular regulators, and nuclear-residing transcription factors. Promoter-beta-glucuronidase expression of one transcription factor candidate, ZINC FINGER PROTEIN2 (AtZFP2), was elevated in stamen, petal, and sepal AZs. Flower parts of transgenic lines over-expressing AtZFP2 exhibited asynchronous and delayed abscission. Abscission defects were accompanied by altered floral morphology limiting pollination and fertility. Hand-pollination restored transgenic fruit development but not the rapid abscission seen in wild-type plants, demonstrating that pollination does not assure normal rates of detachment. In wild- type stamen AZs, AtZFP2 is significantly up-regulated postanthesis. Phenotype data from transgene overexpression studies suggest that AtZFP2 participates in processes that directly or indirectly influence organ shed.
p15
sS'pageEnd'
p16
I1321
sS'publisherAddress'
p17
V15501 MONONA DRIVE, ROCKVILLE, MD 20855 USA
p18
sS'documentType'
p19
VReview
p20
sS'subject'
p21
VPlant Sciences
p22
sS'isoSource'
p23
VPlant Physiol.
p24
sS'timesCited'
p25
(lp26
I50
aVZ9 54
p27
asS'PT'
p28
VJ
sS'title'
p29
VStamen Abscission Zone Transcriptome Profiling Reveals New Candidates For Abscission Control: Enhanced Retention Of Floral Organs In Transgenic Plants Overexpressing Arabidopsis Zinc Finger Protein2
p30
sS'ISSN'
p31
(lp32
V0032-0889
p33
aVJ9 PLANT PHYSIOL
p34
asS'authors_full'
p35
(lp36
(VCAI
VSUQIN
tp37
a(VLASHBROOK
VCORALIE C
tp38
asS'PG'
p39
I17
sS'PD'
p40
VMAR
p41
sS'pageStart'
p42
I1305
sS'issue'
p43
I3
sS'journal'
p44
VPLANT PHYSIOLOGY
p45
sS'volume'
p46
V146
p47
sS'doi'
p48
V10.1104/pp.107.110908
p49
sS'emailAddress'
p50
Vccl@iastate.edu
p51
sS'authorAddress'
p52
(lp53
V[Cai, Suqin; Lashbrook, Coralie C.] Iowa State Univ, Dept Hort, Ames, IA 50011 USA.
p54
aV[Cai, Suqin; Lashbrook, Coralie C.] Iowa State Univ, Interdept Genet Program, Ames, IA 50011 USA.
p55
aV[Cai, Suqin; Lashbrook, Coralie C.] Iowa State Univ, Inst Plant Sci, Ames, IA 50011 USA.
p56
asS'date'
p57
I2008
sS'ER'
p58
V
sS'publisher'
p59
VAMER SOC PLANT BIOLOGISTS
p60
sS'authorKeywords'
p61
(lp62
VLASER-CAPTURE MICRODISSECTION
p63
aVCELL-SEPARATION PROCESSES
p64
aVSHOOT APICAL MERISTEM
p65
aVZINC-FINGER PROTEINS
p66
aVGENE-EXPRESSION
p67
aVJASMONIC ACID
p68
aVBOX GENE
p69
aVOCTADECANOID BIOSYNTHESIS
p70
aV12-OXOPHYTODIENOIC ACID
p71
aVWALL POLYSACCHARIDES
p72
asS'language'
p73
VEnglish
p74
sS'wosid'
p75
VWOS:000256412200052
p76
sS'citationCount'
p77
I139
sS'authors_init'
p78
(lp79
(VCAI
VS Q
tp80
a(VLASHBROOK
VC C
tp81
asS'citedReferences'
p82
(lp83
g1
(g2
g3
NtRp84
(dp85
g48
V10.1111/j.1365-313X.2007.03105.x
p86
sg44
VPLANT J
p87
sg46
V50
p88
sg78
(lp89
(VADAMCZYK
VB J
tp90
asg57
I2007
sg42
VLANT
p91
sbag1
(g2
g3
NtRp92
(dp93
g48
V10.1007/s00425-006-0270-8
p94
sg44
VPLANTA
p95
sg46
V224
p96
sg78
(lp97
(VALKHAROUF
VN W
tp98
asg57
I2006
sg42
VLANTA
p99
sbag1
(g2
g3
NtRp100
(dp101
g48
V10.1007/s00425-006-0285-1
p102
sg44
VPLANTA
p103
sg46
V224
p104
sg78
(lp105
(VANGELES
VG
tp106
asg57
I2006
sg42
VLANTA
p107
sbag1
(g2
g3
NtRp108
(dp109
g48
V10.1046/j.1365-313X.2002.01423.x
p110
sg44
VPLANT J
p111
sg46
V32
p112
sg78
(lp113
(VASANO
VT
tp114
asg57
I2002
sg42
VLANT
p115
sbag1
(g2
g3
NtRp116
(dp117
g48
V10.1016/S1055-7903(03)00207-0
p118
sg44
VMOL PHYLOGENET EVOL
p119
sg46
V29
p120
sg78
(lp121
(VBECKER
VA
tp122
asg57
I2003
sg42
V464
p123
sbag1
(g2
g3
NtRp124
(dp125
g48
V10.1007/s11103-006-0021-z
p126
sg44
VPLANT MOL BIOL
p127
sg46
V61
p128
sg78
(lp129
(VBECNEL
VJ
tp130
asg57
I2006
sg42
VLANT
p131
sbag1
(g2
g3
NtRp132
(dp133
g48
V10.1146/annurev.cellbio.18.012502.083431
p134
sg44
VANNU REV CELL DEV BI
p135
sg46
V18
p136
sg78
(lp137
(VBECRAFT
VP W
tp138
asg57
I2002
sg42
V163
p139
sbag1
(g2
g3
NtRp140
(dp141
g48
V10.1104/pp.104.040071
p142
sg44
VPLANT PHYSIOL
p143
sg46
V135
p144
sg78
(lp145
(VBERARDINI
VT Z
tp146
asg57
I2004
sg42
VLANT
p147
sbag1
(g2
g3
NtRp148
(dp149
g48
V10.1007/s004250050545
p150
sg44
VPLANTA
p151
sg46
V208
p152
sg78
(lp153
(VBIESGEN
VC
tp154
asg57
I1999
sg42
VLANTA
p155
sbag1
(g2
g3
NtRp156
(dp157
g48
V10.1105/tpc.9.7.1169
p158
sg44
VPLANT CELL
p159
sg46
V9
sg78
(lp160
(VBLEECKER
VA B
tp161
asg57
I1997
sg42
VLANT
p162
sbag1
(g2
g3
NtRp163
(dp164
g48
V10.1105/tpc.12.12.2383
p165
sg44
VPLANT CELL
p166
sg46
V12
p167
sg78
(lp168
(VBOREVITZ
VJ O
tp169
asg57
I2000
sg42
VLANT
p170
sbag1
(g2
g3
NtRp171
(dp172
g48
V10.2307/2440894
p173
sg44
VAM J BOT
p174
sg46
V54
p175
sg78
(lp176
(VBORNMAN
VC H
tp177
asg57
I1967
sg42
V125
p178
sbag1
(g2
g3
NtRp179
(dp180
g48
V10.1023/A:1006269031452
p181
sg44
VPLANT MOL BIOL
p182
sg46
V40
p183
sg78
(lp184
(VBRUMMELL
VD A
tp185
asg57
I1999
sg42
VLANT
p186
sbag1
(g2
g3
NtRp187
(dp188
g48
Nsg44
VJ AM SOC HORTIC SCI
p189
sg46
V128
p190
sg78
(lp191
(VBURNS
VJ K
tp192
asg57
I2003
sg42
V309
p193
sbag1
(g2
g3
NtRp194
(dp195
g48
V10.1105/tpc.014365
p196
sg44
VPLANT CELL
p197
sg46
V15
p198
sg78
(lp199
(VBUTENKO
VM A
tp200
asg57
I2003
sg42
VLANT
p201
sbag1
(g2
g3
NtRp202
(dp203
g48
V10.1093/jxb/erl130
p204
sg44
VJ EXP BOT
p205
sg46
V57
p206
sg78
(lp207
(VBUTENKO
VM A
tp208
asg57
I2006
sg42
V3627
p209
sbag1
(g2
g3
NtRp210
(dp211
g48
Nsg44
VJ HERED
p212
sg46
V37
p213
sg78
(lp214
(VBUTLER
VL
tp215
asg57
I1936
sg42
V25
p216
sbag1
(g2
g3
NtRp217
(dp218
g48
V10.1111/j.1365-313X.2006.02886.x
p219
sg44
VPLANT J
p220
sg46
V48
p221
sg78
(lp222
(VCAI
VS Q
tp223
asg57
I2006
sg42
VLANT
p224
sbag1
(g2
g3
NtRp225
(dp226
g48
V10.1111/j.1365-313X.1993.tb00007.x
p227
sg44
VPLANT J
p228
sg46
V3
sg78
(lp229
(VCARPITA
VN C
tp230
asg57
I1993
sg42
VLANT
p231
sbag1
(g2
g3
NtRp232
(dp233
g48
V10.1111/j.1365-313X.2005.02355.x
p234
sg44
VPLANT J
p235
sg46
V42
p236
sg78
(lp237
(VCASSON
VS
tp238
asg57
I2005
sg42
VLANT
p239
sbag1
(g2
g3
NtRp240
(dp241
g48
V10.1046/j.1365-313x.1998.00343.x
p242
sg44
VPLANT J
p243
sg46
V16
p244
sg78
(lp245
(VCLOUGH
VS J
tp246
asg57
I1998
sg42
VLANT
p247
sbag1
(g2
g3
NtRp248
(dp249
g48
V10.1093/pcp/pcj071
p250
sg44
VPLANT CELL PHYSIOL
p251
sg46
V47
p252
sg78
(lp253
(VCORPAS
VF J
tp254
asg57
I2006
sg42
VLANT
p255
sbag1
(g2
g3
NtRp256
(dp257
g48
V10.1093/pcp/pcf180
p258
sg44
VPLANT CELL PHYSIOL
p259
sg46
V43
p260
sg78
(lp261
(VCOSGROVE
VD J
tp262
asg57
I2002
sg42
VLANT
p263
sbag1
(g2
g3
NtRp264
(dp265
g48
V10.1104/pp.103.027979
p266
sg44
VPLANT PHYSIOL
p267
sg46
V133
p268
sg78
(lp269
(VCURTIS
VM D
tp270
asg57
I2003
sg42
VLANT
p271
sbag1
(g2
g3
NtRp272
(dp273
g48
V10.1016/j.tplants.2005.06.006
p274
sg44
VTRENDS PLANT SCI
p275
sg46
V10
p276
sg78
(lp277
(VDAY
VR C
tp278
asg57
I2005
sg42
V397
p279
sbag1
(g2
g3
NtRp280
(dp281
g48
V10.1111/j.1399-3054.2006.00829.x
p282
sg44
VPHYSIOL PLANTARUM
p283
sg46
V129
p284
sg78
(lp285
(VDAY
VR C
tp286
asg57
I2007
sg42
VHYSIOL
p287
sbag1
(g2
g3
NtRp288
(dp289
g48
Nsg44
VCURR TOP DEV BIOL
p290
sg46
V46
p291
sg78
(lp292
(VDEL
VCAMPILLO E
tp293
asg57
I1999
sg42
V39
p294
sbag1
(g2
g3
NtRp295
(dp296
g48
V10.1055/s-2006-923935
p297
sg44
VPLANT BIOLOGY
p298
sg46
V8
sg78
(lp299
(VDELKER
VC
tp300
asg57
I2006
sg42
VLANT
p301
sbag1
(g2
g3
NtRp302
(dp303
g48
V10.1104/pp.107.106203
p304
sg44
VPLANT PHYSIOL
p305
sg46
V145
p306
sg78
(lp307
(VDEMBINSKY
VD
tp308
asg57
I2007
sg42
VLANT
p309
sbag1
(g2
g3
NtRp310
(dp311
g48
V10.1111/j.1365-313X.2005.02403.x
p312
sg44
VPLANT J
p313
sg46
V42
p314
sg78
(lp315
(VEHLTING
VJ
tp316
asg57
I2005
sg42
VLANT
p317
sbag1
(g2
g3
NtRp318
(dp319
g48
V10.1073/pnas.95.25.14863
p320
sg44
VP NATL ACAD SCI USA
p321
sg46
V95
p322
sg78
(lp323
(VEISEN
VM B
tp324
asg57
I1998
sg42
V14863
p325
sbag1
(g2
g3
NtRp326
(dp327
g48
V10.1242/dev.02012
p328
sg44
VDEVELOPMENT
p329
sg46
V132
p330
sg78
(lp331
(VELLIS
VC M
tp332
asg57
I2005
sg42
V4563
p333
sbag1
(g2
g3
NtRp334
(dp335
g48
V10.1186/1471-2164-5-39
p336
sg44
VBMC GENOMICS
p337
sg46
V5
sg78
(lp338
(VENGLBRECHT
VC C
tp339
asg57
I2004
sg42
Nsbag1
(g2
g3
NtRp340
(dp341
g48
V10.1105/tpc.12.2.183
p342
sg44
VPLANT CELL
p343
sg46
V12
p344
sg78
(lp345
(VFERNANDEZ
VD E
tp346
asg57
I2000
sg42
VLANT
p347
sbag1
(g2
g3
NtRp348
(dp349
g48
V10.2307/2340521
p350
sg44
VJ R STAT SOC
p351
sg46
V85
p352
sg78
(lp353
(VFISHER
VR A
tp354
asg57
I1922
sg42
V87
p355
sbag1
(g2
g3
NtRp356
(dp357
g48
V10.1104/pp.123.4.1247
p358
sg44
VPLANT PHYSIOL
p359
sg46
V123
p360
sg78
(lp361
(VFRIEDRICHSEN
VD M
tp362
asg57
I2000
sg42
VLANT
p363
sbag1
(g2
g3
NtRp364
(dp365
g48
V10.1104/pp.128.2.534
p366
sg44
VPLANT PHYSIOL
p367
sg46
V128
p368
sg78
(lp369
(VGONZALEZ-CARRANZA
VZ H
tp370
asg57
I2002
sg42
VLANT
p371
sbag1
(g2
g3
NtRp372
(dp373
g48
V10.1104/pp.106.092288
p374
sg44
VPLANT PHYSIOL
p375
sg46
V144
p376
sg78
(lp377
(VGONZALEZ-CARRANZA
VZ H
tp378
asg57
I2007
sg42
VLANT
p379
sbag1
(g2
g3
NtRp380
(dp381
g48
V10.1093/jxb/erm222
p382
sg44
VJ EXP BOT
p383
sg46
V58
p384
sg78
(lp385
(VGONZALEZ-CARRANZA
VZ H
tp386
asg57
I2007
sg42
V3719
p387
sbag1
(g2
g3
NtRp388
(dp389
g48
V10.1104/pp.69.2.349
p390
sg44
VPLANT PHYSIOL
p391
sg46
V69
p392
sg78
(lp393
(VGUINN
VG
tp394
asg57
I1982
sg42
VLANT
p395
sbag1
(g2
g3
NtRp396
(dp397
g48
V10.1093/pcp/pch201
p398
sg44
VPLANT CELL PHYSIOL
p399
sg46
V45
p400
sg78
(lp401
(VHA
VC M
tp402
asg57
I2004
sg42
VLANT
p403
sbag1
(g2
g3
NtRp404
(dp405
g48
V10.1023/B:CELL.0000046340.99925.57
p406
sg44
VCELLULOSE
p407
sg46
V11
p408
sg78
(lp409
(VHAMANN
VT
tp410
asg57
I2004
sg42
V279
p411
sbag1
(g2
g3
NtRp412
(dp413
g48
V10.1104/pp.009654
p414
sg44
VPLANT PHYSIOL
p415
sg46
V130
p416
sg78
(lp417
(VHARPER
VA D
tp418
asg57
I2002
sg42
VLANT
p419
sbag1
(g2
g3
NtRp420
(dp421
g48
Nsg44
VJ AM SOC HORTIC SCI
p422
sg46
V125
p423
sg78
(lp424
(VHARTMOND
VU
tp425
asg57
I2000
sg42
V547
p426
sbag1
(g2
g3
NtRp427
(dp428
g48
Nsg44
VANNU REV PLANT PHYS
p429
sg46
V40
p430
sg78
(lp431
(VHAYASHI
VT
tp432
asg57
I1989
sg42
V139
p433
sbag1
(g2
g3
NtRp434
(dp435
g48
V10.1104/pp.010843
p436
sg44
VPLANT PHYSIOL
p437
sg46
V128
p438
sg78
(lp439
(VHE
VY H
tp440
asg57
I2002
sg42
VLANT
p441
sbag1
(g2
g3
NtRp442
(dp443
g48
V10.1105/tpc.104.030536
p444
sg44
VPLANT CELL
p445
sg46
V17
p446
sg78
(lp447
(VHEPWORTH
VS R
tp448
asg57
I2005
sg42
VLANT
p449
sbag1
(g2
g3
NtRp450
(dp451
g48
V10.1016/j.bbrc.2004.06.115
p452
sg44
VBIOCHEM BIOPH RES CO
p453
sg46
V321
p454
sg78
(lp455
(VHIRATSU
VK
tp456
asg57
I2004
sg42
V172
p457
sbag1
(g2
g3
NtRp458
(dp459
g48
V10.1007/BF00267408
p460
sg44
VMOL GEN GENET
p461
sg46
V163
p462
sg78
(lp463
(VHOLSTERS
VM
tp464
asg57
I1978
sg42
V181
p465
sbag1
(g2
g3
NtRp466
(dp467
g48
V10.1094/MPMI-20-5-0510
p468
sg44
VMOL PLANT MICROBE IN
p469
sg46
V20
p470
sg78
(lp471
(VITHAL
VN
tp472
asg57
I2007
sg42
V510
p473
sbag1
(g2
g3
NtRp474
(dp475
g48
V10.1038/2251019a0
p476
sg44
VNATURE
p477
sg46
V225
p478
sg78
(lp479
(VJACKSON
VM B
tp480
asg57
I1970
sg42
V1019
p481
sbag1
(g2
g3
NtRp482
(dp483
g48
Nsg44
VEMBO J
p484
sg46
V6
sg78
(lp485
(VJEFFERSON
VR A
tp486
asg57
I1987
sg42
V3901
p487
sbag1
(g2
g3
NtRp488
(dp489
g48
V10.1093/emboj/19.22.6150
p490
sg44
VEMBO J
p491
sg46
V19
p492
sg78
(lp493
(VJIN
VH L
tp494
asg57
I2000
sg42
V6150
p495
sbag1
(g2
g3
NtRp496
(dp497
g48
Nsg44
VGENE DEV
p498
sg46
V14
p499
sg78
(lp500
(VJINN
VT L
tp501
asg57
I2000
sg42
V108
p502
sbag1
(g2
g3
NtRp503
(dp504
g48
V10.1016/S1055-7903(02)00032-5
p505
sg44
VMOL PHYLOGENET EVOL
p506
sg46
V23
p507
sg78
(lp508
(VJOHANSEN
VB
tp509
asg57
I2002
sg42
V458
p510
sbag1
(g2
g3
NtRp511
(dp512
g48
V10.1111/j.1365-313X.2005.02345.x
p513
sg44
VPLANT J
p514
sg46
V41
p515
sg78
(lp516
(VKANDASAMY
VM K
tp517
asg57
I2005
sg42
VLANT
p518
sbag1
(g2
g3
NtRp519
(dp520
g48
V10.1104/pp.105.065326
p521
sg44
VPLANT PHYSIOL
p522
sg46
V138
p523
sg78
(lp524
(VKANDASAMY
VM K
tp525
asg57
I2005
sg42
VLANT
p526
sbag1
(g2
g3
NtRp527
(dp528
g48
Nsg44
VFINDING GROUPS DATA
p529
sg46
Nsg78
(lp530
(VKAUFMAN
VL
tp531
asg57
I1990
sg42
Nsbag1
(g2
g3
NtRp532
(dp533
g48
Nsg44
VU CALIF PUBL BOT
p534
sg46
V5
sg78
(lp535
(VKENDALL
VJ N
tp536
asg57
I1918
sg42
V347
p537
sbag1
(g2
g3
NtRp538
(dp539
g48
V10.1007/s11103-004-0158-6
p540
sg44
VPLANT MOL BIOL
p541
sg46
V55
p542
sg78
(lp543
(VKENDE
VH
tp544
asg57
I2004
sg42
VLANT
p545
sbag1
(g2
g3
NtRp546
(dp547
g48
V10.1016/S0304-4238(00)00200-4
p548
sg44
VSCI HORTIC
p549
sg46
V88
p550
sg78
(lp551
(VKENDER
VW J
tp552
asg57
I2001
sg42
V107
p553
sbag1
(g2
g3
NtRp554
(dp555
g48
V10.1104/pp.102.018127
p556
sg44
VPLANT PHYSIOL
p557
sg46
V132
p558
sg78
(lp559
(VKERK
VN M
tp560
asg57
I2003
sg42
VLANT
p561
sbag1
(g2
g3
NtRp562
(dp563
g48
V10.1007/s00425-007-0578-z
p564
sg44
VPLANTA
p565
sg46
V226
p566
sg78
(lp567
(VKLINK
VV P
tp568
asg57
I2007
sg42
VLANTA
p569
sbag1
(g2
g3
NtRp570
(dp571
g48
V10.1046/j.1365-313x.1998.00278.x
p572
sg44
VPLANT J
p573
sg46
V16
p574
sg78
(lp575
(VKRANZ
VH D
tp576
asg57
I1998
sg42
VLANT
p577
sbag1
(g2
g3
NtRp578
(dp579
g48
V10.1007/s00425-003-1056-x
p580
sg44
VPLANTA
p581
sg46
V217
p582
sg78
(lp583
(VKUBIGSTELTIG
VI I
tp584
asg57
I2003
sg42
VLANTA
p585
sbag1
(g2
g3
NtRp586
(dp587
g48
Nsg44
VSTEWART POSTHARVEST
p588
sg46
V3
sg78
(lp589
(VLASHBROOK
VC C
tp590
asg57
I2005
sg42
Nsbag1
(g2
g3
NtRp591
(dp592
g48
V10.1046/j.1365-313X.1998.00025.x
p593
sg44
VPLANT J
p594
sg46
V13
p595
sg78
(lp596
(VLASHBROOK
VC C
tp597
asg57
I1998
sg42
VLANT
p598
sbag1
(g2
g3
NtRp599
(dp600
g48
V10.1086/336016
p601
sg44
VBOT GAZ
p602
sg46
V120
p603
sg78
(lp604
(VLEINWEBER
VC L
tp605
asg57
I1959
sg42
V144
p606
sbag1
(g2
g3
NtRp607
(dp608
g48
V10.1073/pnas.091065998
p609
sg44
VP NATL ACAD SCI USA
p610
sg46
V98
p611
sg78
(lp612
(VLI
VJ
tp613
asg57
I2001
sg42
V5916
p614
sbag1
(g2
g3
NtRp615
(dp616
g48
Nsg44
VPLANT J
p617
sg46
V8
sg78
(lp618
(VLI
VS F
tp619
asg57
I1995
sg42
VLANT
p620
sbag1
(g2
g3
NtRp621
(dp622
g48
V10.1073/pnas.0409179102
p623
sg44
VP NATL ACAD SCI USA
p624
sg46
V102
p625
sg78
(lp626
(VLIEPMAN
VA H
tp627
asg57
I2005
sg42
V2221
p628
sbag1
(g2
g3
NtRp629
(dp630
g48
V10.1006/meth.2001.1262
p631
sg44
VMETHODS
p632
sg46
V25
p633
sg78
(lp634
(VLIVAK
VK J
tp635
asg57
I2001
sg42
V402
p636
sbag1
(g2
g3
NtRp637
(dp638
g48
V10.1105/tpc.007468
p639
sg44
VPLANT CELL
p640
sg46
V15
p641
sg78
(lp642
(VLORENZO
VO
tp643
asg57
I2003
sg42
VLANT
p644
sbag1
(g2
g3
NtRp645
(dp646
g48
V10.2307/2440097
p647
sg44
VAM J BOT
p648
sg46
V51
p649
sg78
(lp650
(VMALAYER
VJ C
tp651
asg57
I1964
sg42
V140
p652
sbag1
(g2
g3
NtRp653
(dp654
g48
V10.1111/j.1365-313X.2006.02756.x
p655
sg44
VPLANT J
p656
sg46
V46
p657
sg78
(lp658
(VMANDAOKAR
VA
tp659
asg57
I2006
sg42
VLANT
p660
sbag1
(g2
g3
NtRp661
(dp662
g48
V10.1038/35022611
p663
sg44
VNATURE
p664
sg46
V406
p665
sg78
(lp666
(VMAO
VL
tp667
asg57
I2000
sg42
V910
p668
sbag1
(g2
g3
NtRp669
(dp670
g48
Nsg44
VPHYSIOL PLANTARUM
p671
sg46
V79
p672
sg78
(lp673
(VMCMANUS
VM T
tp674
asg57
I1990
sg42
VHYSIOL
p675
sbag1
(g2
g3
NtRp676
(dp677
g48
Nsg44
VJ PLANT PHYSL
p678
sg46
V38
p679
sg78
(lp680
(VMCMANUS
VM T
tp681
asg57
I1991
sg42
V63
p682
sbag1
(g2
g3
NtRp683
(dp684
g48
V10.1007/s00425-003-1002-y
p685
sg44
VPLANTA
p686
sg46
V217
p687
sg78
(lp688
(VMERKOUROPOULOS
VG
tp689
asg57
I2003
sg42
VLANTA
p690
sbag1
(g2
g3
NtRp691
(dp692
g48
V10.1034/j.1399-3054.1997.1000326.x
p693
sg44
VPHYSIOL PLANTARUM
p694
sg46
V100
p695
sg78
(lp696
(VMIYAMOTO
VK
tp697
asg57
I1997
sg42
VHYSIOL
p698
sbag1
(g2
g3
NtRp699
(dp700
g48
Nsg44
VPLANT PHYSIOL
p701
sg46
V43
p702
sg78
(lp703
(VMORRE
VD J
tp704
asg57
I1968
sg42
VLANT
p705
sbag1
(g2
g3
NtRp706
(dp707
g48
V10.1111/j.1365-313X.2005.02557.x
p708
sg44
VPLANT J
p709
sg46
V44
p710
sg78
(lp711
(VMURATA
VJ
tp712
asg57
I2005
sg42
VLANT
p713
sbag1
(g2
g3
NtRp714
(dp715
g48
V10.1016/j.plantsci.2005.08.021
p716
sg44
VPLANT SCI
p717
sg46
V170
p718
sg78
(lp719
(VNAKADA
VM
tp720
asg57
I2006
sg42
VLANT
p721
sbag1
(g2
g3
NtRp722
(dp723
g48
V10.1104/pp.105.073783
p724
sg44
VPLANT PHYSIOL
p725
sg46
V140
p726
sg78
(lp727
(VNAKANO
VT
tp728
asg57
I2006
sg42
VLANT
p729
sbag1
(g2
g3
NtRp730
(dp731
g48
V10.1105/tpc.008102
p732
sg44
VPLANT CELL
p733
sg46
V15
p734
sg78
(lp735
(VNAKAZONO
VM
tp736
asg57
I2003
sg42
VLANT
p737
sbag1
(g2
g3
NtRp738
(dp739
g48
V10.1146/annurev.arplant.56.032604.144138
p740
sg44
VANNU REV PLANT BIOL
p741
sg46
V57
p742
sg78
(lp743
(VNELSON
VT
tp744
asg57
I2006
sg42
V181
p745
sbag1
(g2
g3
NtRp746
(dp747
g48
V10.1105/tpc.106.041616
p748
sg44
VPLANT CELL
p749
sg46
V18
p750
sg78
(lp751
(VNETTLETON
VD
tp752
asg57
I2006
sg42
VLANT
p753
sbag1
(g2
g3
NtRp754
(dp755
g48
V10.1242/dev.01815
p756
sg44
VDEVELOPMENT
p757
sg46
V132
p758
sg78
(lp759
(VNORBERG
VM
tp760
asg57
I2005
sg42
V2203
p761
sbag1
(g2
g3
NtRp762
(dp763
g48
V10.1111/j.1365-313X.2007.03244.x
p764
sg44
VPLANT J
p765
sg46
V52
p766
sg78
(lp767
(VOHTSU
VK
tp768
asg57
I2007
sg42
VLANT
p769
sbag1
(g2
g3
NtRp770
(dp771
g48
V10.1093/pcp/pcl049
p772
sg44
VPLANT CELL PHYSIOL
p773
sg46
V48
p774
sg78
(lp775
(VOHTSU
VK
tp776
asg57
I2007
sg42
VLANT
p777
sbag1
(g2
g3
NtRp778
(dp779
g48
V10.1111/j.1365-313X.2005.02426.x
p780
sg44
VPLANT J
p781
sg46
V43
p782
sg78
(lp783
(VOKUSHIMA
VY
tp784
asg57
I2005
sg42
VLANT
p785
sbag1
(g2
g3
NtRp786
(dp787
g48
V10.1007/BF00388903
p788
sg44
VPLANTA
p789
sg46
V132
p790
sg78
(lp791
(VOSBORNE
VD J
tp792
asg57
I1976
sg42
VLANTA
p793
sbag1
(g2
g3
NtRp794
(dp795
g48
V10.1111/j.1469-8137.2007.02033.x
p796
sg44
VNEW PHYTOL
p797
sg46
V174
p798
sg78
(lp799
(VPALUSA
VS G
tp800
asg57
I2007
sg42
V537
p801
sbag1
(g2
g3
NtRp802
(dp803
g48
V10.1007/s00299-005-0972-6
p804
sg44
VPLANT CELL REP
p805
sg46
V24
p806
sg78
(lp807
(VPASSARDI
VF
tp808
asg57
I2005
sg42
VLANT
p809
sbag1
(g2
g3
NtRp810
(dp811
g48
V10.1104/pp.126.2.494
p812
sg44
VPLANT PHYSIOL
p813
sg46
V126
p814
sg78
(lp815
(VPATTERSON
VS E
tp816
asg57
I2001
sg42
VLANT
p817
sbag1
(g2
g3
NtRp818
(dp819
g48
V10.1104/pp.103.028027
p820
sg44
VPLANT PHYSIOL
p821
sg46
V134
p822
sg78
(lp823
(VPATTERSON
VS E
tp824
asg57
I2004
sg42
VLANT
p825
sbag1
(g2
g3
NtRp826
(dp827
g48
V10.1016/S0092-8674(03)00968-1
p828
sg44
VCELL
p829
sg46
V115
p830
sg78
(lp831
(VPOTUSCHAK
VT
tp832
asg57
I2003
sg42
V679
p833
sbag1
(g2
g3
NtRp834
(dp835
g48
V10.1016/S0960-9822(01)00593-0
p836
sg44
VCURR BIOL
p837
sg46
V11
p838
sg78
(lp839
(VRAJANI
VS
tp840
asg57
I2001
sg42
V1914
p841
sbag1
(g2
g3
NtRp842
(dp843
g48
V[10.1111/j.1364-3703.2004.00255.x, 10.1111/J.1364.3703.2004.00255.X]
p844
sg44
VMOL PLANT PATHOL
p845
sg46
V5
sg78
(lp846
(VRAMSAY
VK
tp847
asg57
I2004
sg42
V587
p848
sbag1
(g2
g3
NtRp849
(dp850
g48
V10.1074/jbc.M410831200
p851
sg44
VJ BIOL CHEM
p852
sg46
V280
p853
sg78
(lp854
(VREINDERS
VA
tp855
asg57
I2005
sg42
V1594
p856
sbag1
(g2
g3
NtRp857
(dp858
g48
V10.1016/S0031-9422(01)00113-3
p859
sg44
VPHYTOCHEMISTRY
p860
sg46
V57
p861
sg78
(lp862
(VRIDLEY
VB L
tp863
asg57
I2001
sg42
VHYTOCHEMISTRY
p864
sbag1
(g2
g3
NtRp865
(dp866
g48
V10.1006/anbo.2000.1203
p867
sg44
VANN BOT
p868
sg46
V86
p869
sg78
(lp870
(VROBERTS
VJ A
tp871
asg57
I2000
sg42
V223
p872
sbag1
(g2
g3
NtRp873
(dp874
g48
V10.1146/annurev.arplant.53.092701.180236
p875
sg44
VANNU REV PLANT BIOL
p876
sg46
V53
p877
sg78
(lp878
(VROBERTS
VJ A
tp879
asg57
I2002
sg42
V131
p880
sbag1
(g2
g3
NtRp881
(dp882
g48
V10.1093/jxb/erj036
p883
sg44
VJ EXP BOT
p884
sg46
V57
p885
sg78
(lp886
(VROBERTS
VK
tp887
asg57
I2006
sg42
V537
p888
sbag1
(g2
g3
NtRp889
(dp890
g48
V10.1093/pcp/pcf171
p891
sg44
VPLANT CELL PHYSIOL
p892
sg46
V43
p893
sg78
(lp894
(VROSE
VJ K C
tp895
asg57
I2002
sg42
VLANT
p896
sbag1
(g2
g3
NtRp897
(dp898
g48
V10.1023/A:1010619002833
p899
sg44
VPLANT MOL BIOL
p900
sg46
V46
p901
sg78
(lp902
(VSANDER
VL
tp903
asg57
I2001
sg42
VLANT
p904
sbag1
(g2
g3
NtRp905
(dp906
g48
V10.1105/tpc.12.7.1041
p907
sg44
VPLANT CELL
p908
sg46
V12
p909
sg78
(lp910
(VSANDERS
VP M
tp911
asg57
I2000
sg42
VLANT
p912
sbag1
(g2
g3
NtRp913
(dp914
g48
V10.1007/s004250050706
p915
sg44
VPLANTA
p916
sg46
V210
p917
sg78
(lp918
(VSCHALLER
VF
tp919
asg57
I2000
sg42
VLANTA
p920
sbag1
(g2
g3
NtRp921
(dp922
g48
V10.1111/j.1432-1033.1997.t01-1-00294.x
p923
sg44
VEUR J BIOCHEM
p924
sg46
V245
p925
sg78
(lp926
(VSCHALLER
VF
tp927
asg57
I1997
sg42
V294
p928
sbag1
(g2
g3
NtRp929
(dp930
g48
V10.1104/pp.118.4.1345
p931
sg44
VPLANT PHYSIOL
p932
sg46
V118
p933
sg78
(lp934
(VSCHALLER
VF
tp935
asg57
I1998
sg42
VLANT
p936
sbag1
(g2
g3
NtRp937
(dp938
g48
V10.1073/pnas.96.1.290
p939
sg44
VP NATL ACAD SCI USA
p940
sg46
V96
p941
sg78
(lp942
(VSCHUMACHER
VK
tp943
asg57
I1999
sg42
V290
p944
sbag1
(g2
g3
NtRp945
(dp946
g48
V10.1094/MPMI.2001.14.2.261
p947
sg44
VMOL PLANT MICROBE IN
p948
sg46
V14
p949
sg78
(lp950
(VSEO
VS
tp951
asg57
I2001
sg42
V261
p952
sbag1
(g2
g3
NtRp953
(dp954
g48
Nsg44
VEthylene and plant development
p955
sg46
Nsg78
(lp956
(VSEXTON
VR
tp957
asg57
I1985
sg42
V173
p958
sbag1
(g2
g3
NtRp959
(dp960
g48
V10.1073/pnas.181141598
p961
sg44
VP NATL ACAD SCI USA
p962
sg46
V98
p963
sg78
(lp964
(VSHIU
VS H
tp965
asg57
I2001
sg42
V10763
p966
sbag1
(g2
g3
NtRp967
(dp968
g48
Nsg44
VPLANT CELL
p969
sg46
V2
sg78
(lp970
(VSMYTH
VD R
tp971
asg57
I1990
sg42
VLANT
p972
sbag1
(g2
g3
NtRp973
(dp974
g48
Nsg44
VDNA MICROARRAYS MOL
p975
sg46
Nsg78
(lp976
(VSPELLMAN
VP T
tp977
asg57
I2003
sg42
V569
p978
sbag1
(g2
g3
NtRp979
(dp980
g48
V10.1105/tpc.106.042036
p981
sg44
VPLANT CELL
p982
sg46
V18
p983
sg78
(lp984
(VSTENVIK
VG E
tp985
asg57
I2006
sg42
VLANT
p986
sbag1
(g2
g3
NtRp987
(dp988
g48
V10.1073/pnas.190264497
p989
sg44
VP NATL ACAD SCI USA
p990
sg46
V97
p991
sg78
(lp992
(VSTINTZI
VA
tp993
asg57
I2000
sg42
V10625
p994
sbag1
(g2
g3
NtRp995
(dp996
g48
V10.1073/pnas.1530509100
p997
sg44
VP NATL ACAD SCI USA
p998
sg46
V100
p999
sg78
(lp1000
(VSTOREY
VJ D
tp1001
asg57
I2003
sg42
V9440
p1002
sbag1
(g2
g3
NtRp1003
(dp1004
g48
Nsg44
VPLANT CELL
p1005
sg46
V11
p1006
sg78
(lp1007
(VSZYMKOWIAK
VE J
tp1008
asg57
I1999
sg42
VLANT
p1009
sbag1
(g2
g3
NtRp1010
(dp1011
g48
V10.1007/BF00020246
p1012
sg44
VPLANT MOL BIOL
p1013
sg46
V28
p1014
sg78
(lp1015
(VTAGUE
VB W
tp1016
asg57
I1995
sg42
VLANT
p1017
sbag1
(g2
g3
NtRp1018
(dp1019
g48
V10.1007/s000180050186
p1020
sg44
VCELL MOL LIFE SCI
p1021
sg46
V54
p1022
sg78
(lp1023
(VTAKATSUJI
VH
tp1024
asg57
I1998
sg42
V582
p1025
sbag1
(g2
g3
NtRp1026
(dp1027
g48
V10.1023/A:1006184519697
p1028
sg44
VPLANT MOL BIOL
p1029
sg46
V39
p1030
sg78
(lp1031
(VTAKATSUJI
VH
tp1032
asg57
I1999
sg42
VLANT
p1033
sbag1
(g2
g3
NtRp1034
(dp1035
g48
V10.1046/j.0028-646x.2001.00194.x
p1036
sg44
VNEW PHYTOL
p1037
sg46
V151
p1038
sg78
(lp1039
(VTAYLOR
VJ E
tp1040
asg57
I2001
sg42
V323
p1041
sbag1
(g2
g3
NtRp1042
(dp1043
g48
Nsg44
VNATURE
p1044
sg46
V408
p1045
sg78
(lp1046
(VKAUL
VS
tp1047
asg57
I2000
sg42
V796
p1048
sbag1
(g2
g3
NtRp1049
(dp1050
g48
V10.1073/pnas.96.8.4698
p1051
sg44
VP NATL ACAD SCI USA
p1052
sg46
V96
p1053
sg78
(lp1054
(VTHOMAS
VS G
tp1055
asg57
I1999
sg42
V4698
p1056
sbag1
(g2
g3
NtRp1057
(dp1058
g48
V10.1046/j.1365-313x.2001.01005.x
p1059
sg44
VPLANT J
p1060
sg46
V26
p1061
sg78
(lp1062
(VTHOMPSON
VJ E
tp1063
asg57
I2001
sg42
VLANT
p1064
sbag1
(g2
g3
NtRp1065
(dp1066
g48
V10.1093/jxb/48.2.297
p1067
sg44
VJ EXP BOT
p1068
sg46
V48
p1069
sg78
(lp1070
(VTHOMPSON
VJ E
tp1071
asg57
I1997
sg42
V297
p1072
sbag1
(g2
g3
NtRp1073
(dp1074
g48
V10.1111/1467-9868.00293
p1075
sg44
VJ ROY STAT SOC B
p1076
sg46
V63
p1077
sg78
(lp1078
(VTIBSHIRANI
VR
tp1079
asg57
I2001
sg42
V411
p1080
sbag1
(g2
g3
NtRp1081
(dp1082
g48
V10.1111/j.1399-3054.1982.tb00255.x
p1083
sg44
VPHYSIOL PLANTARUM
p1084
sg46
V54
p1085
sg78
(lp1086
(VUEDA
VJ
tp1087
asg57
I1982
sg42
VHYSIOL
p1088
sbag1
(g2
g3
NtRp1089
(dp1090
g48
Nsg44
VAGR BIOL CHEM TOKYO
p1091
sg46
V55
p1092
sg78
(lp1093
(VUEDA
VJ
tp1094
asg57
I1991
sg42
V275
p1095
sbag1
(g2
g3
NtRp1096
(dp1097
g48
V10.1007/BF00190583
p1098
sg44
VJ PLANT GROWTH REGUL
p1099
sg46
V15
p1100
sg78
(lp1101
(VUEDA
VJ
tp1102
asg57
I1996
sg42
V189
p1103
sbag1
(g2
g3
NtRp1104
(dp1105
g48
V10.1046/j.1365-313X.2003.01855.x
p1106
sg44
VPLANT J
p1107
sg46
V36
p1108
sg78
(lp1109
(VVILAINE
VF
tp1110
asg57
I2003
sg42
VLANT
p1111
sbag1
(g2
g3
NtRp1112
(dp1113
g48
Nsg44
VAGRON J
p1114
sg46
V73
p1115
sg78
(lp1116
(VWIEBOLD
VW J
tp1117
asg57
I1981
sg42
V43
p1118
sbag1
(g2
g3
NtRp1119
(dp1120
g48
V10.1023/A:1010662911148
p1121
sg44
VPLANT MOL BIOL
p1122
sg46
V47
p1123
sg78
(lp1124
(VWILLATS
VW G T
tp1125
asg57
I2001
sg42
VLANT
p1126
sbag1
(g2
g3
NtRp1127
(dp1128
g48
V10.1089/106652701753307520
p1129
sg44
VJ COMPUT BIOL
p1130
sg46
V8
sg78
(lp1131
(VWOLFINGER
VR D
tp1132
asg57
I2001
sg42
V625
p1133
sbag1
(g2
g3
NtRp1134
(dp1135
g48
V10.1104/pp.105.067330
p1136
sg44
VPLANT PHYSIOL
p1137
sg46
V139
p1138
sg78
(lp1139
(VWOLL
VK
tp1140
asg57
I2005
sg42
VLANT
p1141
sbag1
(g2
g3
NtRp1142
(dp1143
g48
V10.1007/s00425-007-0509-z
p1144
sg44
VPLANTA
p1145
sg46
V226
p1146
sg78
(lp1147
(VYU
VY Y
tp1148
asg57
I2007
sg42
VLANTA
p1149
sbag1
(g2
g3
NtRp1150
(dp1151
g48
V10.1371/journal.pgen.0030101
p1152
sg44
VPLOS GENET
p1153
sg46
V3
sg78
(lp1154
(VZHANG
VX
tp1155
asg57
I2007
sg42
VLOS
p1156
sbasb.