ccopy_reg
_reconstructor
p1
(ctethne.classes.paper
Paper
p2
c__builtin__
object
p3
NtRp4
(dp5
S'publisherCity'
p6
VWASHINGTON
p7
sS'reprintAddress'
p8
VXiang, JH (reprint author), Univ Chinese Acad Sci, Coll Mat Sci & Optoelect Technol, Yuquan Rd 19A, Beijing 100049, Peoples R China.
p9
sS'WC'
p10
VNanoscience & Nanotechnology; Materials Science, Multidisciplinary
p11
sS'GA'
p12
VCF7QQ
p13
sS'FX'
p14
(lp15
VThis work is supported by the National Basic Research Program of China
p16
aV(973 Program; no. 2011CB706900) the National Nature Science Foundation
p17
aVof China (nos. 50872149 and 50502003), the Scientific Research
p18
aVFoundation for Returned Scholars within the Ministry of Education of
p19
aVChina, and the President Foundation of the Graduate University of the
p20
aVChinese Academy of Sciences.
p21
asS'abstract'
p22
VThe cellulose nanofibers of bacterial cellulose aerogel (BCA) are modified only on their surfaces using a trimethylsilylation reaction with trimethyichlorosilane in liquid phase followed by freeze-drying. The obtained hydrophobic bacterial cellulose aerogels (HBCAs) exhibit low density (<= 6.77 mg/cm(3)), high surface area (>= 169.1 m(2)/g), and high porosity (approximate to 99.6%), which are nearly the same as those of BCA owing to the low degrees of substitution (<= 0.132). Because the surface energy of cellulose nanofibers decreased and the three-dimensional web-like microstructure, which was comprised of ultrathin (20-80 nm) cellulose nanofibers, is maintained during the trimethylsilylation process, the HBCAs have hydrophobic and oleophilic properties (water/air contact angle as high as 146.5 degrees) that endow them with excellent selectivity for oil adsorption from water. The HBCAs are able to collect a wide range of organic solvents and oils with absorption capacities up to 185 g/g, which depends on the density of the liquids. Hence, the HBCAs are wonderful candidates for oil absorbents to clean oil spills in the marine environment. This work provides a different way to multifunctionalize cellulose aerogel blocks in addition to chemical vapor deposition method.
p23
sS'keywordsPlus'
p24
(lp25
Vsurface modification; bacterial cellulose; aerogels; liquid phase;
p26
aVoil-water separation
p27
asS'pageEnd'
p28
I7381
sS'date'
p29
I2015
sS'documentType'
p30
VArticle
p31
sS'subject'
p32
VScience & Technology - Other Topics; Materials Science
p33
sS'isoSource'
p34
VACS Appl. Mater. Interfaces
p35
sS'timesCited'
p36
(lp37
I0
aVZ9 0
p38
asS'funding'
p39
(lp40
(VNational Basic Research Program of China (973 Program)
V2011CB706900
tp41
a(VNational Nature Science Foundation of China
V50872149, 50502003
tp42
a(VScientific Research Foundation for Returned Scholars within the Ministry of Education of China
Ntp43
a(VPresident Foundation of the Graduate University of the Chinese Academy of Sciences
Ntp44
asS'PT'
p45
VJ
sS'title'
p46
VSurface Modification Of Bacterial Cellulose Aerogels' Web-Like Skeleton For Oil/Water Separation
p47
sS'ISSN'
p48
(lp49
V1944-8244
p50
aVJ9 ACS APPL MATER INTER
p51
asS'authors_full'
p52
(lp53
(VSAI
VHUAZHENG
tp54
a(VFU
VRUI
tp55
a(VXING
VLI
tp56
a(VXIANG
VJUNHUI
tp57
a(VLI
VZHENYOU
tp58
a(VLI
VFEI
tp59
a(VZHANG
VTING
tp60
asS'PG'
p61
I9
sS'PD'
p62
VAPR 8
p63
sS'pageStart'
p64
I7373
sS'issue'
p65
I13
sS'PM'
p66
I25799389
sS'journal'
p67
VACS APPLIED MATERIALS & INTERFACES
p68
sS'volume'
p69
V7
sS'doi'
p70
V10.1021/acsami.5b00846
p71
sS'emailAddress'
p72
Vxiangjh@ucas.ac.cn
p73
sS'authorAddress'
p74
V[Sai, Huazheng; Fu, Rui; Xing, Li; Xiang, Junhui; Li, Zhenyou; Li, Fei; Zhang, Ting] Univ Chinese Acad Sci, Coll Mat Sci & Optoelect Technol, Beijing 100049, Peoples R China.
p75
sS'publisherAddress'
p76
V1155 16TH ST, NW, WASHINGTON, DC 20036 USA
p77
sS'ER'
p78
V
sS'publisher'
p79
VAMER CHEMICAL SOC
p80
sS'authorKeywords'
p81
(lp82
VOIL-WATER SEPARATION
p83
aVNANOCELLULOSE AEROGELS
p84
aVFLEXIBLE AEROGELS
p85
aVREMOVAL
p86
aVSPONGES
p87
aVCOLLECTION
p88
aVABSORPTION
p89
aVEFFICIENCY
p90
aVSPILLS
p91
aVSILICA
p92
asS'language'
p93
VEnglish
p94
sS'wosid'
p95
VWOS:000352751800038
p96
sS'citationCount'
p97
I68
sS'authors_init'
p98
(lp99
(VSAI
VH Z
tp100
a(VFU
VR
tp101
a(VXING
VL
tp102
a(VXIANG
VJ H
tp103
a(VLI
VZ Y
tp104
a(VLI
VF
tp105
a(VZHANG
VT
tp106
asS'citedReferences'
p107
(lp108
g1
(g2
g3
NtRp109
(dp110
g70
V10.1063/1.2403901
p111
sg67
VAPPL PHYS LETT
p112
sg69
V89
p113
sg98
(lp114
(VNOGI
VM
tp115
asg29
I2006
sg64
Nsbag1
(g2
g3
NtRp116
(dp117
g70
V10.1007/s10570-006-9072-1
p118
sg67
VCELLULOSE
p119
sg69
V13
p120
sg98
(lp121
(VANDRESEN
VM
tp122
asg29
I2006
sg64
V665
p123
sbag1
(g2
g3
NtRp124
(dp125
g70
V10.1039/c001939a
p126
sg67
VSOFT MATTER
p127
sg69
V6
sg98
(lp128
(VAULIN
VC
tp129
asg29
I2010
sg64
V3298
p130
sbag1
(g2
g3
NtRp131
(dp132
g70
V10.1016/j.jhazmat.2014.02.038
p133
sg67
VJ HAZARD MATER
p134
sg69
V272
p135
sg98
(lp136
(VAVILA
VA F
tp137
asg29
I2014
sg64
V20
p138
sbag1
(g2
g3
NtRp139
(dp140
g70
Nsg67
VNATURE
p141
sg69
V505
p142
sg98
(lp143
(VBARBIER
VE B
tp144
asg29
I2014
sg64
V475
p145
sbag1
(g2
g3
NtRp146
(dp147
g70
V10.1021/bm900319k
p148
sg67
VBIOMACROMOLECULES
p149
sg69
V10
p150
sg98
(lp151
(VBERLIOZ
VS
tp152
asg29
I2009
sg64
V2144
p153
sbag1
(g2
g3
NtRp154
(dp155
g70
V10.1021/am500882y
p156
sg67
VACS APPL MATER INTER
p157
sg69
V6
sg98
(lp158
(VBROWN
VP S
tp159
asg29
I2014
sg64
V7504
p160
sbag1
(g2
g3
NtRp161
(dp162
g70
V10.1002/anie.201105730
p163
sg67
VANGEW CHEM INT EDIT
p164
sg69
V51
p165
sg98
(lp166
(VCAI
VJ
tp167
asg29
I2012
sg64
V2076
p168
sbag1
(g2
g3
NtRp169
(dp170
g70
V10.1021/am4008598
p171
sg67
VACS APPL MATER INTER
p172
sg69
V5
sg98
(lp173
(VCAO
VY Z
tp174
asg29
I2013
sg64
V4438
p175
sbag1
(g2
g3
NtRp176
(dp177
g70
V10.1007/s10570-011-9629-5
p178
sg67
VCELLULOSE
p179
sg69
V19
p180
sg98
(lp181
(VCERVIN
VN T
tp182
asg29
I2012
sg64
V401
p183
sbag1
(g2
g3
NtRp184
(dp185
g70
V10.1021/es900166v
p186
sg67
VENVIRON SCI TECHNOL
p187
sg69
V43
p188
sg98
(lp189
(VCEYLAN
VD
tp190
asg29
I2009
sg64
V3846
p191
sbag1
(g2
g3
NtRp192
(dp193
g70
V10.1021/es00028a016
p194
sg67
VENVIRON SCI TECHNOL
p195
sg69
V26
p196
sg98
(lp197
(VCHOI
VH M
tp198
asg29
I1992
sg64
V772
p199
sbag1
(g2
g3
NtRp200
(dp201
g70
V10.1021/am201352w
p202
sg67
VACS APPL MATER INTER
p203
sg69
V3
sg98
(lp204
(VCHOI
VS J
tp205
asg29
I2011
sg64
V4552
p206
sbag1
(g2
g3
NtRp207
(dp208
g70
V10.1039/c4ta00450g
p209
sg67
VJ MATER CHEM A
p210
sg69
V2
sg98
(lp211
(VCORTESE
VB
tp212
asg29
I2014
sg64
V6781
p213
sbag1
(g2
g3
NtRp214
(dp215
g70
V10.1021/am505414y
p216
sg67
VACS APPL MATER INTER
p217
sg69
V6
sg98
(lp218
(VDUAN
VB
tp219
asg29
I2014
sg64
V19933
p220
sbag1
(g2
g3
NtRp221
(dp222
g70
V10.1002/app.23454
p223
sg67
VJ APPL POLYM SCI
p224
sg69
V100
p225
sg98
(lp226
(VFREIRE
VC S R
tp227
asg29
I2006
sg64
V1093
p228
sbag1
(g2
g3
NtRp229
(dp230
g70
V10.1021/bm400864z
p231
sg67
VBIOMACROMOLECULES
p232
sg69
V14
p233
sg98
(lp234
(VFUMAGALLI
VM
tp235
asg29
I2013
sg64
V3246
p236
sbag1
(g2
g3
NtRp237
(dp238
g70
V10.1021/am4015007
p239
sg67
VACS APPL MATER INTER
p240
sg69
V5
sg98
(lp241
(VGUI
VX C
tp242
asg29
I2013
sg64
V5845
p243
sbag1
(g2
g3
NtRp244
(dp245
g70
V10.1007/s10853-009-3968-8
p246
sg67
VJ MATER SCI
p247
sg69
V45
p248
sg98
(lp249
(VGURAV
VJ L
tp250
asg29
I2010
sg64
V503
p251
sbag1
(g2
g3
NtRp252
(dp253
g70
V10.1021/bm070113b
p254
sg67
VBIOMACROMOLECULES
p255
sg69
V8
sg98
(lp256
(VIFUKU
VS
tp257
asg29
I2007
sg64
V1973
p258
sbag1
(g2
g3
NtRp259
(dp260
g70
V10.1038/466182a
p261
sg67
VNATURE
p262
sg69
V466
p263
sg98
(lp264
(VJERNELOV
VA
tp265
asg29
I2010
sg64
V182
p266
sbag1
(g2
g3
NtRp267
(dp268
g70
V10.1039/c3ta13629a
p269
sg67
VJ MATER CHEM A
p270
sg69
V2
sg98
(lp271
(VJIANG
VF
tp272
asg29
I2014
sg64
V350
p273
sbag1
(g2
g3
NtRp274
(dp275
g70
V10.1021/la103877r
p276
sg67
VLANGMUIR
p277
sg69
V27
p278
sg98
(lp279
(VJIN
VH
tp280
asg29
I2011
sg64
V1930
p281
sbag1
(g2
g3
NtRp282
(dp283
g70
V10.1039/c3ta11761h
p284
sg67
VJ MATER CHEM A
p285
sg69
V1
sg98
(lp286
(VJING
VP
tp287
asg29
I2013
sg64
V10135
p288
sbag1
(g2
g3
NtRp289
(dp290
g70
V10.1016/j.carbon.2014.08.092
p291
sg67
VCARBON
p292
sg69
V80
p293
sg98
(lp294
(VKABIRI
VS
tp295
asg29
I2014
sg64
V523
p296
sbag1
(g2
g3
NtRp297
(dp298
g70
V10.1002/adfm.201001431
p299
sg67
VADV FUNCT MATER
p300
sg69
V21
p301
sg98
(lp302
(VKETTUNEN
VM
tp303
asg29
I2011
sg64
V510
p304
sbag1
(g2
g3
NtRp305
(dp306
g70
V10.1023/A:1021140726936
p307
sg67
VCELLULOSE
p308
sg69
V9
sg98
(lp309
(VKIM
VD Y
tp310
asg29
I2002
sg64
V361
p311
sbag1
(g2
g3
NtRp312
(dp313
g70
V10.1021/am200475b
p314
sg67
VACS APPL MATER INTER
p315
sg69
V3
sg98
(lp316
(VKORHONEN
VJ T
tp317
asg29
I2011
sg64
V1813
p318
sbag1
(g2
g3
NtRp319
(dp320
g70
V10.1016/j.compscitech.2009.08.016
p321
sg67
VCOMPOS SCI TECHNOL
p322
sg69
V69
p323
sg98
(lp324
(VLEE
VK Y
tp325
asg29
I2009
sg64
V2724
p326
sbag1
(g2
g3
NtRp327
(dp328
g70
V10.1007/s10570-011-9525-z
p329
sg67
VCELLULOSE
p330
sg69
V18
p331
sg98
(lp332
(VLEE
VK Y
tp333
asg29
I2011
sg64
V595
p334
sbag1
(g2
g3
NtRp335
(dp336
g70
V10.1039/b602486f
p337
sg67
VCHEM SOC REV
p338
sg69
V36
p339
sg98
(lp340
(VLI
VX M
tp341
asg29
I2007
sg64
V1350
p342
sbag1
(g2
g3
NtRp343
(dp344
g70
V10.1039/c3nr34008b
p345
sg67
VNANOSCALE
p346
sg69
V5
sg98
(lp347
(VLIN
VJ Y
tp348
asg29
I2013
sg64
V2745
p349
sbag1
(g2
g3
NtRp350
(dp351
g70
V10.1002/cphc.201300691
p352
sg67
VCHEMPHYSCHEM
p353
sg69
V14
p354
sg98
(lp355
(VLIU
VN
tp356
asg29
I2013
sg64
V3489
p357
sbag1
(g2
g3
NtRp358
(dp359
g70
V10.3390/ma6051745
p360
sg67
VMATERIALS
p361
sg69
V6
sg98
(lp362
(VMISSOUM
VK
tp363
asg29
I2013
sg64
V1745
p364
sbag1
(g2
g3
NtRp365
(dp366
g70
V10.1016/j.jhazmat.2008.09.116
p367
sg67
VJ HAZARD MATER
p368
sg69
V165
p369
sg98
(lp370
(VMORIWAKI
VH
tp371
asg29
I2009
sg64
V266
p372
sbag1
(g2
g3
NtRp373
(dp374
g70
V10.1039/b810371b
p375
sg67
VSOFT MATTER
p376
sg69
V4
sg98
(lp377
(VPAAKKO
VM
tp378
asg29
I2008
sg64
V2492
p379
sbag1
(g2
g3
NtRp380
(dp381
g70
V10.1021/am5014634
p382
sg67
VACS APPL MATER INTER
p383
sg69
V6
sg98
(lp384
(VPAN
VY X
tp385
asg29
I2014
sg64
V8651
p386
sbag1
(g2
g3
NtRp387
(dp388
g70
V10.1021/nn401541e
p389
sg67
VACS NANO
p390
sg69
V7
sg98
(lp391
(VPAVIA-SANDERS
VA
tp392
asg29
I2013
sg64
V7552
p393
sbag1
(g2
g3
NtRp394
(dp395
g70
V10.1016/j.chemosphere.2007.07.005
p396
sg67
VCHEMOSPHERE
p397
sg69
V70
p398
sg98
(lp399
(VRADETIC
VM
tp400
asg29
I2008
sg64
V525
p401
sbag1
(g2
g3
NtRp402
(dp403
g70
V10.1016/j.jhazmat.2006.09.060
p404
sg67
VJ HAZARD MATER
p405
sg69
V143
p406
sg98
(lp407
(VRAJAKOVIC
VV
tp408
asg29
I2007
sg64
V494
p409
sbag1
(g2
g3
NtRp410
(dp411
g70
V10.1016/j.jhazmat.2007.10.066
p412
sg67
VJ HAZARD MATER
p413
sg69
V154
p414
sg98
(lp415
(VRAJAKOVIC-OGNJANOVIC
VV
tp416
asg29
I2008
sg64
V558
p417
sbag1
(g2
g3
NtRp418
(dp419
g70
V10.1002/anie.201400775
p420
sg67
VANGEW CHEM INT EDIT
p421
sg69
V53
p422
sg98
(lp423
(VRUAN
VC P
tp424
asg29
I2014
sg64
V5556
p425
sbag1
(g2
g3
NtRp426
(dp427
g70
V10.1039/c4ra02752c
p428
sg67
VRSC ADV
p429
sg69
V4
sg98
(lp430
(VSAI
VH Z
tp431
asg29
I2014
sg64
V30453
p432
sbag1
(g2
g3
NtRp433
(dp434
g70
V10.1039/c3ta11198a
p435
sg67
VJ MATER CHEM A
p436
sg69
V1
sg98
(lp437
(VSAI
VH Z
tp438
asg29
I2013
sg64
V7963
p439
sbag1
(g2
g3
NtRp440
(dp441
g70
V10.1038/493461a
p442
sg67
VNature
p443
sg69
V493
p444
sg98
(lp445
(VSCHROPE
VMARK
tp446
asg29
I2013
sg64
V461
p447
sbag1
(g2
g3
NtRp448
(dp449
g70
V10.1038/472152a
p450
sg67
VNATURE
p451
sg69
V472
p452
sg98
(lp453
(VSCHROPE
VM
tp454
asg29
I2011
sg64
V152
p455
sbag1
(g2
g3
NtRp456
(dp457
g70
V10.1016/j.compscitech.2011.07.003
p458
sg67
VCOMPOS SCI TECHNOL
p459
sg69
V71
p460
sg98
(lp461
(VSEHAQUI
VH
tp462
asg29
I2011
sg64
V1593
p463
sbag1
(g2
g3
NtRp464
(dp465
g70
V10.1039/b927505c
p466
sg67
VSOFT MATTER
p467
sg69
V6
sg98
(lp468
(VSEHAQUI
VH
tp469
asg29
I2010
sg64
V1824
p470
sbag1
(g2
g3
NtRp471
(dp472
g70
V10.1002/adma.201204576
p473
sg67
VADV MATER
p474
sg69
V25
p475
sg98
(lp476
(VSUN
VH Y
tp477
asg29
I2013
sg64
V2554
p478
sbag1
(g2
g3
NtRp479
(dp480
g70
V10.1039/c2jm30572k
p481
sg67
VJ MATER CHEM
p482
sg69
V22
p483
sg98
(lp484
(VTAAJAMAA
VL
tp485
asg29
I2012
sg64
V12072
p486
sbag1
(g2
g3
NtRp487
(dp488
g70
V10.1016/S0011-9164(01)00375-7
p489
sg67
VDESALINATION
p490
sg69
V140
p491
sg98
(lp492
(VTEAS
VC
tp493
asg29
I2001
sg64
V259
p494
sbag1
(g2
g3
NtRp495
(dp496
g70
V10.1021/jp500359v
p497
sg67
VJ PHYS CHEM C
p498
sg69
V118
p499
sg98
(lp500
(VWANG
VF J
tp501
asg29
I2014
sg64
V6344
p502
sbag1
(g2
g3
NtRp503
(dp504
g70
V10.1021/la403778e
p505
sg67
VLANGMUIR
p506
sg69
V30
p507
sg98
(lp508
(VWANG
VF J
tp509
asg29
I2014
sg64
V1281
p510
sbag1
(g2
g3
NtRp511
(dp512
g70
V10.1021/ie50320a024
p513
sg67
VIND ENG CHEM
p514
sg69
V28
p515
sg98
(lp516
(VWENZEL
VR N
tp517
asg29
I1936
sg64
V988
p518
sbag1
(g2
g3
NtRp519
(dp520
g70
V10.1016/j.wasman.2008.03.002
p521
sg67
VWASTE MANAGE
p522
sg69
V29
p523
sg98
(lp524
(VWU
VB
tp525
asg29
I2009
sg64
V355
p526
sbag1
(g2
g3
NtRp527
(dp528
g70
V10.1021/am300544d
p529
sg67
VACS APPL MATER INTER
p530
sg69
V4
sg98
(lp531
(VWU
VJ
tp532
asg29
I2012
sg64
V3207
p533
sbag1
(g2
g3
NtRp534
(dp535
g70
V10.1002/anie.201209676
p536
sg67
VANGEW CHEM INT EDIT
p537
sg69
V52
p538
sg98
(lp539
(VWU
VZ Y
tp540
asg29
I2013
sg64
V2925
p541
sbag1
(g2
g3
NtRp542
(dp543
g70
Nsg67
VSCI REP
p544
sg69
V4
sg98
(lp545
(VWU
VZ Y
tp546
asg29
I2014
sg64
Nsbag1
(g2
g3
NtRp547
(dp548
g70
V10.1039/c3ta13397d
p549
sg67
VJ MATER CHEM A
p550
sg69
V2
sg98
(lp551
(VXUE
VZ X
tp552
asg29
I2014
sg64
V2445
p553
sbag1
(g2
g3
NtRp554
(dp555
g70
V10.1021/cm502873c
p556
sg67
VCHEM MATER
p557
sg69
V26
p558
sg98
(lp559
(VYANG
VX
tp560
asg29
I2014
sg64
V6016
p561
sbag1
(g2
g3
NtRp562
(dp563
g70
V10.1039/c4ta00939h
p564
sg67
VJ MATER CHEM A
p565
sg69
V2
sg98
(lp566
(VYANG
VY
tp567
asg29
I2014
sg64
V9994
p568
sbag1
(g2
g3
NtRp569
(dp570
g70
V10.1007/s10853-014-8480-0
p571
sg67
VJ MATER SCI
p572
sg69
V49
p573
sg98
(lp574
(VYU
VY X
tp575
asg29
I2014
sg64
V7715
p576
sbag1
(g2
g3
NtRp577
(dp578
g70
V10.1002/adma.201301480
p579
sg67
VADV MATER
p580
sg69
V25
p581
sg98
(lp582
(VZHANG
VF
tp583
asg29
I2013
sg64
V4192
p584
sbag1
(g2
g3
NtRp585
(dp586
g70
V10.1021/cm5004164
p587
sg67
VCHEM MATER
p588
sg69
V26
p589
sg98
(lp590
(VZHANG
VZ
tp591
asg29
I2014
sg64
V2659
p592
sbag1
(g2
g3
NtRp593
(dp594
g70
V10.1039/c4ta04406a
p595
sg67
VJ MATER CHEM A
p596
sg69
V2
sg98
(lp597
(VZHAO
VX
tp598
asg29
I2014
sg64
V18281
p599
sbag1
(g2
g3
NtRp600
(dp601
g70
V10.1021/nn4052277
p602
sg67
VACS NANO
p603
sg69
V8
sg98
(lp604
(VZHU
VQ
tp605
asg29
I2014
sg64
V1402
p606
sbag1
(g2
g3
NtRp607
(dp608
g70
V10.1039/c3ta00125c
p609
sg67
VJ MATER CHEM A
p610
sg69
V1
sg98
(lp611
(VZHU
VQ
tp612
asg29
I2013
sg64
V5386
p613
sbag1
(g2
g3
NtRp614
(dp615
g70
V10.1039/c2jm33769j
p616
sg67
VJ MATER CHEM
p617
sg69
V22
p618
sg98
(lp619
(VZHU
VX T
tp620
asg29
I2012
sg64
V20146
p621
sbasb.