ccopy_reg
_reconstructor
p1
(ctethne.classes.paper
Paper
p2
c__builtin__
object
p3
NtRp4
(dp5
S'publisherCity'
p6
VROCKVILLE
p7
sS'reprintAddress'
p8
VLee, Y (reprint author), Pohang Univ Sci & Technol, Div Mol Life Sci, Pohang 790784, South Korea.
p9
sS'WC'
p10
VPlant Sciences
p11
sS'GA'
p12
V767EL
p13
sS'abstract'
p14
VPhosphatidic acid (PA) level increases during various stress conditions. However, the physiological roles of this lipid in stress response remain largely unknown. In this study, we report that PA induced leaf cell death and elevated the levels of reactive oxygen species (ROS) in the whole leaf and single cells. To further elucidate the mechanism of PA-induced cell death, we then examined whether Rho-related small G protein (ROP) 2, which enhanced ROS production in an in vitro assay, is involved in PA-induced ROS production and cell death. In response to PA, transgenic leaves of Arabidopsis expressing a constitutively active rop2 mutant exhibited earlier cell death and higher levels of ROS than wild type (WT), whereas those expressing a dominant-negative rop2 mutant exhibited later cell death and lower ROS. However, in the absence of exogenous PA, no spontaneous cell death or elevated ROS was observed in constitutively active rop2 plants, suggesting that the activation of ROP GTPase alone is insufficient to activate the ROP-mediated ROS generation pathway. These results suggest that PA modulates an additional factor required for the active ROP-mediated ROS generation pathway. Therefore, PA may be an important regulator of ROP-regulated ROS generation and the cell death process during various stress and defense responses of plants.
p15
sS'pageEnd'
p16
I136
sS'publisherAddress'
p17
V15501 MONONA DRIVE, ROCKVILLE, MD 20855 USA
p18
sS'documentType'
p19
VArticle
p20
sS'subject'
p21
VPlant Sciences
p22
sS'isoSource'
p23
VPlant Physiol.
p24
sS'timesCited'
p25
(lp26
I76
aVZ9 88
p27
asS'PT'
p28
VJ
sS'title'
p29
VPhosphatidic Acid Induces Leaf Cell Death In Arabidopsis By Activating The Rho-Related Small G Protein Gtpase-Mediated Pathway Of Reactive Oxygen Species Generation
p30
sS'ISSN'
p31
(lp32
V0032-0889
p33
aVJ9 PLANT PHYSIOL
p34
asS'authors_full'
p35
(lp36
(VPARK
VJ
tp37
a(VGU
VY
tp38
a(VLEE
VY
tp39
a(VYANG
VZB
tp40
a(VLEE
VY
tp41
asS'PG'
p42
I8
sS'PD'
p43
VJAN
p44
sS'pageStart'
p45
I129
sS'issue'
p46
I1
sS'journal'
p47
VPLANT PHYSIOLOGY
p48
sS'volume'
p49
V134
p50
sS'doi'
p51
V10.1104/pp.103.031393
p52
sS'emailAddress'
p53
Vylee@postech.ac.kr
p54
sS'authorAddress'
p55
(lp56
VPohang Univ Sci & Technol, Div Mol Life Sci, Pohang 790784, South Korea.
p57
aVUniv Calif Riverside, Ctr Plant Cell Biol, Riverside, CA 92521 USA.
p58
aVUniv Calif Riverside, Dept Bot & Plant Sci, Riverside, CA 92521 USA.
p59
asS'date'
p60
I2004
sS'ER'
p61
V
sS'publisher'
p62
VAMER SOC PLANT BIOLOGISTS
p63
sS'authorKeywords'
p64
(lp65
VPHOSPHOLIPASE-D ACTIVITY
p66
aVNADPH OXIDASE COMPONENT
p67
aVCASTOR BEAN-LEAVES
p68
aVDISEASE RESISTANCE
p69
aVGUARD-CELLS
p70
aVHYDROGEN-PEROXIDE
p71
aVPLASMA-MEMBRANE
p72
aVOXIDATIVE BURST
p73
aVD-ALPHA
p74
aVDIACYLGLYCEROL PYROPHOSPHATE
p75
asS'language'
p76
VEnglish
p77
sS'wosid'
p78
VWOS:000188427200015
p79
sS'citationCount'
p80
I53
sS'authors_init'
p81
(lp82
(VPARK
VJ
tp83
a(VGU
VY
tp84
a(VLEE
VY
tp85
a(VYANG
VZ B
tp86
a(VLEE
VY
tp87
asS'citedReferences'
p88
(lp89
g1
(g2
g3
NtRp90
(dp91
g51
V10.1126/science.1071505
p92
sg47
VSCIENCE
p93
sg49
V296
p94
sg81
(lp95
(VBAXTER-BURRELL
VA
tp96
asg60
I2002
sg45
V2026
p97
sbag1
(g2
g3
NtRp98
(dp99
g51
V10.1016/0304-4157(79)90012-1
p100
sg47
VBIOCHIM BIOPHYS ACTA
p101
sg49
V559
p102
sg81
(lp103
(VCULLIS
VP R
tp104
asg60
I1979
sg45
V399
p105
sbag1
(g2
g3
NtRp106
(dp107
g51
V10.1016/0048-4059(83)90019-X
p108
sg47
VPHYSIOL PLANT PATHOL
p109
sg49
V23
p110
sg81
(lp111
(VDOKE
VN
tp112
asg60
I1983
sg45
VHYSIOL
p113
sbag1
(g2
g3
NtRp114
(dp115
g51
V10.1016/0304-4165(95)00156-5
p116
sg47
VBBA
p117
sg49
V1289
p118
sg81
(lp119
(VDWYER
VS C
tp120
asg60
I1996
sg45
V231
p121
sbag1
(g2
g3
NtRp122
(dp123
g51
V10.1105/tpc.9.12.2183
p124
sg47
VPLANT CELL
p125
sg49
V9
sg81
(lp126
(VFAN
VL
tp127
asg60
I1997
sg45
VLANT
p128
sbag1
(g2
g3
NtRp129
(dp130
g51
V10.1105/tpc.12.1.111
p131
sg47
VPLANT CELL
p132
sg49
V12
p133
sg81
(lp134
(VFRANK
VW
tp135
asg60
I2000
sg45
VLANT
p136
sbag1
(g2
g3
NtRp137
(dp138
g51
V10.1016/S0092-8674(01)00606-7
p139
sg47
VCELL
p140
sg49
V107
p141
sg81
(lp142
(VHETHERINGTON
VA M
tp143
asg60
I2001
sg45
V711
p144
sbag1
(g2
g3
NtRp145
(dp146
g51
V10.1073/pnas.96.21.12192
p147
sg47
VP NATL ACAD SCI USA
p148
sg49
V96
p149
sg81
(lp150
(VJACOB
VT
tp151
asg60
I1999
sg45
V12192
p152
sbag1
(g2
g3
NtRp153
(dp154
g51
V10.1073/pnas.96.19.10922
p155
sg47
VP NATL ACAD SCI USA
p156
sg49
V96
p157
sg81
(lp158
(VKAWASAKI
VT
tp159
asg60
I1999
sg45
V10922
p160
sbag1
(g2
g3
NtRp161
(dp162
g51
V10.1105/tpc.10.2.255
p163
sg47
VPLANT CELL
p164
sg49
V10
p165
sg81
(lp166
(VKELLER
VT
tp167
asg60
I1998
sg45
VLANT
p168
sbag1
(g2
g3
NtRp169
(dp170
g51
V10.1074/jbc.274.30.21335
p171
sg47
VJ BIOL CHEM
p172
sg49
V274
p173
sg81
(lp174
(VKISHIKAWA
VK
tp175
asg60
I1999
sg45
V21335
p176
sbag1
(g2
g3
NtRp177
(dp178
g51
V10.1146/annurev.arplant.48.1.251
p179
sg47
VANNU REV PLANT PHYS
p180
sg49
V48
p181
sg81
(lp182
(VLAMB
VC
tp183
asg60
I1997
sg45
V251
p184
sbag1
(g2
g3
NtRp185
(dp186
g51
V10.1104/pp.121.1.147
p187
sg47
VPLANT PHYSIOL
p188
sg49
V121
p189
sg81
(lp190
(VLEE
VS
tp191
asg60
I1999
sg45
VLANT
p192
sbag1
(g2
g3
NtRp193
(dp194
g51
Nsg47
VMOL CELLS
p195
sg49
V15
p196
sg81
(lp197
(VLEE
VS
tp198
asg60
I2003
sg45
V313
p199
sbag1
(g2
g3
NtRp200
(dp201
g51
V10.1046/j.1365-313x.2001.01037.x
p202
sg47
VPLANT J
p203
sg49
V26
p204
sg81
(lp205
(VLEE
VS
tp206
asg60
I2001
sg45
VLANT
p207
sbag1
(g2
g3
NtRp208
(dp209
g51
V10.1046/j.1471-4159.2000.0751053.x
p210
sg47
VJ NEUROCHEM
p211
sg49
V75
p212
sg81
(lp213
(VLEE
VS D
tp214
asg60
I2000
sg45
V1053
p215
sbag1
(g2
g3
NtRp216
(dp217
g51
V10.1046/j.1365-313X.1997.00547.x
p218
sg47
VPLANT J
p219
sg49
V12
p220
sg81
(lp221
(VLEE
VS M
tp222
asg60
I1997
sg45
VLANT
p223
sbag1
(g2
g3
NtRp224
(dp225
g51
V10.1016/0092-8674(94)90544-4
p226
sg47
VCELL
p227
sg49
V79
p228
sg81
(lp229
(VLEVINE
VA
tp230
asg60
I1994
sg45
V583
p231
sbag1
(g2
g3
NtRp232
(dp233
g51
V10.1104/pp.126.2.670
p234
sg47
VPLANT PHYSIOL
p235
sg49
V126
p236
sg81
(lp237
(VLI
VH
tp238
asg60
I2001
sg45
VLANT
p239
sbag1
(g2
g3
NtRp240
(dp241
g51
V10.1042/0264-6021:3450401
p242
sg47
VBIOCHEM J
p243
sg49
V345
p244
sg81
(lp245
(VLISCOVITCH
VM
tp246
asg60
I2000
sg45
V401
p247
sbag1
(g2
g3
NtRp248
(dp249
g51
V10.1016/S1360-1385(01)01918-5
p250
sg47
VTRENDS PLANT SCI
p251
sg49
V6
sg81
(lp252
(VMUNNIK
VT
tp253
asg60
I2001
sg45
V227
p254
sbag1
(g2
g3
NtRp255
(dp256
g51
V10.1046/j.1365-313x.2000.00725.x
p257
sg47
VPLANT J
p258
sg49
V22
p259
sg81
(lp260
(VMUNNIK
VT
tp261
asg60
I2000
sg45
VLANT
p262
sbag1
(g2
g3
NtRp263
(dp264
g51
V10.1073/pnas.021273498
p265
sg47
VP NATL ACAD SCI USA
p266
sg49
V98
p267
sg81
(lp268
(VONO
VE
tp269
asg60
I2001
sg45
V759
p270
sbag1
(g2
g3
NtRp271
(dp272
g51
V10.1074/jbc.M007759200
p273
sg47
VJ BIOL CHEM
p274
sg49
V276
p275
sg81
(lp276
(VPALICZ
VA
tp277
asg60
I2001
sg45
V3090
p278
sbag1
(g2
g3
NtRp279
(dp280
g51
V10.1104/pp.124.2.725
p281
sg47
VPLANT PHYSIOL
p282
sg49
V124
p283
sg81
(lp284
(VPARK
VJ
tp285
asg60
I2000
sg45
VLANT
p286
sbag1
(g2
g3
NtRp287
(dp288
g51
V10.1104/pp.102.016964
p289
sg47
VPLANT PHYSIOL
p290
sg49
V132
p291
sg81
(lp292
(VPARK
VK Y
tp293
asg60
I2003
sg45
VLANT
p294
sbag1
(g2
g3
NtRp295
(dp296
g51
V10.1038/35021067
p297
sg47
VNATURE
p298
sg49
V406
p299
sg81
(lp300
(VPEI
VZ M
tp301
asg60
I2000
sg45
V731
p302
sbag1
(g2
g3
NtRp303
(dp304
g51
V10.1046/j.1365-313X.2002.01442.x
p305
sg47
VPLANT J
p306
sg49
V32
p307
sg81
(lp308
(VPERFUS-BARBEOCH
VL
tp309
asg60
I2002
sg45
VLANT
p310
sbag1
(g2
g3
NtRp311
(dp312
g51
V10.1111/j.1582-4934.2002.tb00523.x
p313
sg47
VJ CELL MOL MED
p314
sg49
V6
sg81
(lp315
(VPOPESCU
VA T
tp316
asg60
I2002
sg45
V433
p317
sbag1
(g2
g3
NtRp318
(dp319
g51
V10.1104/pp.119.3.849
p320
sg47
VPLANT PHYSIOL
p321
sg49
V119
p322
sg81
(lp323
(VPOTIKHA
VT S
tp324
asg60
I1999
sg45
VLANT
p325
sbag1
(g2
g3
NtRp326
(dp327
g51
V10.1074/jbc.274.51.36601
p328
sg47
VJ BIOL CHEM
p329
sg49
V274
p330
sg81
(lp331
(VREGIER
VD S
tp332
asg60
I1999
sg45
V36601
p333
sbag1
(g2
g3
NtRp334
(dp335
g51
V10.1074/jbc.M004703200
p336
sg47
VJ BIOL CHEM
p337
sg49
V275
p338
sg81
(lp339
(VREGIER
VD S
tp340
asg60
I2000
sg45
V28406
p341
sbag1
(g2
g3
NtRp342
(dp343
g51
V10.1073/pnas.95.5.2697
p344
sg47
VP NATL ACAD SCI USA
p345
sg49
V95
p346
sg81
(lp347
(VRITCHIE
VS
tp348
asg60
I1998
sg45
V2697
p349
sbag1
(g2
g3
NtRp350
(dp351
g51
Nsg47
VPLANT PHYSIOL
p352
sg49
V108
p353
sg81
(lp354
(VRYU
VS B
tp355
asg60
I1995
sg45
VLANT
p356
sbag1
(g2
g3
NtRp357
(dp358
g51
V10.1016/0005-2760(96)00096-3
p359
sg47
VBBA
p360
sg49
V1303
p361
sg81
(lp362
(VRYU
VS B
tp363
asg60
I1996
sg45
V243
p364
sbag1
(g2
g3
NtRp365
(dp366
g51
V10.1016/S0005-2760(98)00048-4
p367
sg47
VBBA
p368
sg49
V1393
p369
sg81
(lp370
(VRYU
VS B
tp371
asg60
I1998
sg45
V193
p372
sbag1
(g2
g3
NtRp373
(dp374
g51
V10.1046/j.1365-313X.2001.01138.x
p375
sg47
VPLANT J
p376
sg49
V28
p377
sg81
(lp378
(VSANG
VY M
tp379
asg60
I2001
sg45
VLANT
p380
sbag1
(g2
g3
NtRp381
(dp382
g51
V10.1104/pp.126.4.1449
p383
sg47
VPLANT PHYSIOL
p384
sg49
V126
p385
sg81
(lp386
(VSANG
VY M
tp387
asg60
I2001
sg45
VLANT
p388
sbag1
(g2
g3
NtRp389
(dp390
g51
V10.1038/35066500
p391
sg47
VNATURE
p392
sg49
V410
p393
sg81
(lp394
(VSCHROEDER
VJ I
tp395
asg60
I2001
sg45
V327
p396
sbag1
(g2
g3
NtRp397
(dp398
g51
V10.1016/S0167-4889(01)00143-4
p399
sg47
VBBA
p400
sg49
V1541
p401
sg81
(lp402
(VSIDDIQUI
VR A
tp403
asg60
I2001
sg45
V188
p404
sbag1
(g2
g3
NtRp405
(dp406
g51
Nsg47
VNATURE
p407
sg49
V408
p408
sg81
(lp409
(VKAUL
VS
tp410
asg60
I2000
sg45
V796
p411
sbag1
(g2
g3
NtRp412
(dp413
g51
V10.1046/j.1365-313X.1997.11061187.x
p414
sg47
VPLANT J
p415
sg49
V11
p416
sg81
(lp417
(VTHORDALCHRISTENSEN
VH
tp418
asg60
I1997
sg45
VLANT
p419
sbag1
(g2
g3
NtRp420
(dp421
g51
V10.1046/j.1365-313X.1998.00136.x
p422
sg47
VPLANT J
p423
sg49
V14
p424
sg81
(lp425
(VTORRES
VM A
tp426
asg60
I1998
sg45
VLANT
p427
sbag1
(g2
g3
NtRp428
(dp429
g51
V10.1016/S1360-1385(98)01297-7
p430
sg47
VTRENDS PLANT SCI
p431
sg49
V3
sg81
(lp432
(VVAN
VCAMP W
tp433
asg60
I1998
sg45
V330
p434
sbag1
(g2
g3
NtRp435
(dp436
g51
V10.1104/pp.123.4.1507
p437
sg47
VPLANT PHYSIOL
p438
sg49
V123
p439
sg81
(lp440
(VVAN
VD E R LUIT A H
tp441
asg60
I2000
sg45
VLANT
p442
sbag1
(g2
g3
NtRp443
(dp444
g51
V10.1016/0005-2736(82)90014-1
p445
sg47
VBIOCHIM BIOPHYS ACTA
p446
sg49
V684
p447
sg81
(lp448
(VVERKLEIJ
VA J
tp449
asg60
I1982
sg45
V255
p450
sbag1
(g2
g3
NtRp451
(dp452
g51
V10.1074/jbc.272.24.15569
p453
sg47
VJ BIOL CHEM
p454
sg49
V272
p455
sg81
(lp456
(VWAITE
VK A
tp457
asg60
I1997
sg45
V15569
p458
sbag1
(g2
g3
NtRp459
(dp460
g51
V10.1074/jbc.M205375200
p461
sg47
VJ BIOL CHEM
p462
sg49
V277
p463
sg81
(lp464
(VWELTI
VR
tp465
asg60
I2002
sg45
V31994
p466
sbag1
(g2
g3
NtRp467
(dp468
g51
V10.1104/pp.124.4.1625
p469
sg47
VPLANT PHYSIOL
p470
sg49
V124
p471
sg81
(lp472
(VWU
VG
tp473
asg60
I2000
sg45
VLANT
p474
sbag1
(g2
g3
NtRp475
(dp476
g51
Nsg47
VPLANT CELL
p477
sg49
V9
sg81
(lp478
(VXING
VT
tp479
asg60
I1997
sg45
VLANT
p480
sbag1
(g2
g3
NtRp481
(dp482
g51
V10.1105/tpc.001065
p483
sg47
VPLANT CELL
p484
sg49
V14
p485
sg81
(lp486
(VYANG
VZ B
tp487
asg60
I2002
sg45
VLANT
p488
sbag1
(g2
g3
NtRp489
(dp490
g51
Nsg47
VPLANT CELL
p491
sg49
V8
sg81
(lp492
(VYOUNG
VS A
tp493
asg60
I1996
sg45
VLANT
p494
sbag1
(g2
g3
NtRp495
(dp496
g51
V10.1016/S1388-1981(01)00091-9
p497
sg47
VBBA
p498
sg49
V1530
p499
sg81
(lp500
(VZIEN
VC A
tp501
asg60
I2001
sg45
V236
p502
sbasb.