ccopy_reg
_reconstructor
p1
(ctethne.classes.paper
Paper
p2
c__builtin__
object
p3
NtRp4
(dp5
S'publisherCity'
p6
VROCKVILLE
p7
sS'reprintAddress'
p8
VVoesenek, LACJ (reprint author), Univ Utrecht, NL-3584 CA Utrecht, Netherlands.
p9
sS'WC'
p10
VPlant Sciences
p11
sS'GA'
p12
V862NG
p13
sS'abstract'
p14
VRumex palustris responds to complete submergence with upward movement of the younger petioles. This so-called hyponastic response, in combination with stimulated petiole elongation, brings the leaf blade above the water surface and restores contact with the atmosphere. We made a detailed study of this differential growth process, encompassing the complete range of the known signal transduction pathway: from the cellular localization of differential growth, to the hormonal regulation, and the possible involvement of a cell wall loosening protein (expansin) as a downstream target. We show that hyponastic growth is caused by differential cell elongation across the petiole base, with cells on the abaxial (lower) surface elongating faster than cells on the adaxial (upper) surface. Pharmacological studies and endogenous hormone measurements revealed that ethylene, auxin, abscisic acid (ABA), and gibberellin regulate different and sometimes overlapping stages of hyponastic growth. Initiation of hyponastic growth and (maintenance of) the maximum petiole angle are regulated by ethylene, ABA, and auxin, whereas the speed of the response is influenced by ethylene, ABA, and gibberellin. We found that a submergence-induced differential redistribution of endogenous indole-3-acetic acid in the petiole base could play a role in maintenance of the response, but not in the onset of hyponastic growth. Since submergence does not induce a differential expression of expansins across the petiole base, it is unlikely that this cell wall loosening protein is the downstream target for the hormones that regulate the differential cell elongation leading to submergence-induced hyponastic growth in R. palustris.
p15
sS'pageEnd'
p16
I2960
sS'date'
p17
I2004
sS'documentType'
p18
VArticle
p19
sS'subject'
p20
VPlant Sciences
p21
sS'isoSource'
p22
VPlant Physiol.
p23
sS'timesCited'
p24
(lp25
I48
aVZ9 50
p26
asS'PT'
p27
VJ
sS'title'
p28
VThe Roles Of Ethylene, Auxin, Abscisic Acid, And Gibberellin In The Hyponastic Growth Of Submerged Rumex Palustris Petioles
p29
sS'ISSN'
p30
(lp31
V0032-0889
p32
aVJ9 PLANT PHYSIOL
p33
asS'authors_full'
p34
(lp35
(VCOX
VMCH
tp36
a(VBENSCHOP
VJJ
tp37
a(VVREEBURG
VRAM
tp38
a(VWAGEMAKERS
VCAM
tp39
a(VMORITZ
VT
tp40
a(VPEETERS
VAJM
tp41
a(VVOESENEK
VLACJ
tp42
asS'PG'
p43
I13
sS'PD'
p44
VOCT
p45
sS'pageStart'
p46
I2948
sS'issue'
p47
I2
sS'RI'
p48
(lp49
VPeeters, Anton/B-9610-2011; Voesenek, Laurentius/B-9661-2011; Vreeburg,
p50
aVRobert/C-7247-2011
p51
asS'journal'
p52
VPLANT PHYSIOLOGY
p53
sS'volume'
p54
V136
p55
sS'doi'
p56
V10.1104/pp.104.049197
p57
sS'emailAddress'
p58
Vl.a.c.j.voesenek@bio.uu.nl
p59
sS'authorAddress'
p60
(lp61
VUniv Utrecht, NL-3584 CA Utrecht, Netherlands.
p62
aVSwedish Univ Agr Sci, Dept Forest Genet & Plant Physiol, Umea Plant Sci Ctr, S-90183 Umea, Sweden.
p63
asS'publisherAddress'
p64
V15501 MONONA DRIVE, ROCKVILLE, MD 20855 USA
p65
sS'ER'
p66
V
sS'publisher'
p67
VAMER SOC PLANT BIOLOGISTS
p68
sS'authorKeywords'
p69
(lp70
VINTOLERANT R-ACETOSA
p71
aVMAIZE COLEOPTILES
p72
aVSHOOT ELONGATION
p73
aVARABIDOPSIS
p74
aVTRANSPORT
p75
aVGRAVITROPISM
p76
aVRESPONSES
p77
aVTOBACCO
p78
aVLIGHT
p79
aVSENSITIVITY
p80
asS'language'
p81
VEnglish
p82
sS'wosid'
p83
VWOS:000224497000007
p84
sS'citationCount'
p85
I56
sS'authors_init'
p86
(lp87
(VCOX
VM C H
tp88
a(VBENSCHOP
VJ J
tp89
a(VVREEBURG
VR A M
tp90
a(VWAGEMAKERS
VC A M
tp91
a(VMORITZ
VT
tp92
a(VPEETERS
VA J M
tp93
a(VVOESENEK
VLACJ
tp94
asS'citedReferences'
p95
(lp96
g1
(g2
g3
NtRp97
(dp98
g56
V10.1105/tpc.015685
p99
sg52
VPLANT CELL
p100
sg54
V15
p101
sg86
(lp102
(VACHARD
VP
tp103
asg17
I2003
sg46
VLANT
p104
sbag1
(g2
g3
NtRp105
(dp106
g56
V10.1104/pp.95.3.663
p107
sg52
VPLANT PHYSIOL
p108
sg54
V95
p109
sg86
(lp110
(VALLARD
VG
tp111
asg17
I1991
sg46
VLANT
p112
sbag1
(g2
g3
NtRp113
(dp114
g56
V10.1034/j.1399-3054.1997.990309.x
p115
sg52
VPHYSIOL PLANTARUM
p116
sg54
V99
p117
sg86
(lp118
(VBANGA
VM
tp119
asg17
I1997
sg46
VHYSIOL
p120
sbag1
(g2
g3
NtRp121
(dp122
g56
V10.1023/A:1015211231864
p123
sg52
VPLANT MOL BIOL
p124
sg54
V49
p125
sg86
(lp126
(VBECKER
VD
tp127
asg17
I2002
sg46
VLANT
p128
sbag1
(g2
g3
NtRp129
(dp130
g56
Nsg52
VTHESIS UTRECHT U UTR
p131
sg54
Nsg86
(lp132
(VBENSCHOP
VJ J
tp133
asg17
I2001
sg46
Nsbag1
(g2
g3
NtRp134
(dp135
g56
V10.1007/BF00385443
p136
sg52
VPLANTA
p137
sg54
V148
p138
sg86
(lp139
(VBLAKE
VT J
tp140
asg17
I1980
sg46
VLANTA
p141
sbag1
(g2
g3
NtRp142
(dp143
g56
V10.1104/pp.103.032169
p144
sg52
VPLANT PHYSIOL
p145
sg54
V133
p146
sg86
(lp147
(VBLANCAFLOR
VE B
tp148
asg17
I2003
sg46
VLANT
p149
sbag1
(g2
g3
NtRp150
(dp151
g56
V10.1034/j.1399-3054.1996.980221.x
p152
sg52
VPHYSIOL PLANTARUM
p153
sg54
V98
p154
sg86
(lp155
(VCLUA
VA
tp156
asg17
I1996
sg46
VHYSIOL
p157
sbag1
(g2
g3
NtRp158
(dp159
g56
V10.1007/PL00008101
p160
sg52
VPLANTA
p161
sg54
V203
p162
sg86
(lp163
(VCOSGROVE
VD J
tp164
asg17
I1997
sg46
VLANTA
p165
sbag1
(g2
g3
NtRp166
(dp167
g56
V10.1038/35030000
p168
sg52
VNATURE
p169
sg54
V407
p170
sg86
(lp171
(VCOSGROVE
VD J
tp172
asg17
I2000
sg46
V321
p173
sbag1
(g2
g3
NtRp174
(dp175
g56
V10.1104/pp.102.014548
p176
sg52
VPLANT PHYSIOL
p177
sg54
V132
p178
sg86
(lp179
(VCOX
VM C H
tp180
asg17
I2003
sg46
VLANT
p181
sbag1
(g2
g3
NtRp182
(dp183
g56
Nsg52
VPLANTA
p184
sg54
V198
p185
sg86
(lp186
(VDELBARRE
VA
tp187
asg17
I1996
sg46
VLANTA
p188
sbag1
(g2
g3
NtRp189
(dp190
g56
V10.1111/j.1365-3040.1995.tb00205.x
p191
sg52
VPLANT CELL ENVIRON
p192
sg54
V18
p193
sg86
(lp194
(VDIGBY
VJ
tp195
asg17
I1995
sg46
VLANT
p196
sbag1
(g2
g3
NtRp197
(dp198
g56
Nsg52
VNEW ZEAL J BOT
p199
sg54
V33
p200
sg86
(lp201
(VDWYER
VP J
tp202
asg17
I1995
sg46
V415
p203
sbag1
(g2
g3
NtRp204
(dp205
g56
Nsg52
VSCIENCE
p206
sg54
V268
p207
sg86
(lp208
(VECKER
VJ R
tp209
asg17
I1995
sg46
V667
p210
sbag1
(g2
g3
NtRp211
(dp212
g56
Nsg52
VPLANT PHYSIOL
p213
sg54
V108
p214
sg86
(lp215
(VEDLUND
VA
tp216
asg17
I1995
sg46
VLANT
p217
sbag1
(g2
g3
NtRp218
(dp219
g56
V10.1016/S0168-9452(03)00295-4
p220
sg52
VPLANT SCI
p221
sg54
V165
p222
sg86
(lp223
(VFRIEDMAN
VH
tp224
asg17
I2003
sg46
VLANT
p225
sbag1
(g2
g3
NtRp226
(dp227
g56
V10.1023/A:1015248926412
p228
sg52
VPLANT MOL BIOL
p229
sg54
V49
p230
sg86
(lp231
(VFRIML
VJ
tp232
asg17
I2002
sg46
VLANT
p233
sbag1
(g2
g3
NtRp234
(dp235
g56
V10.1038/nature01387
p236
sg52
VNATURE
p237
sg54
V421
p238
sg86
(lp239
(VFU
VX D
tp240
asg17
I2003
sg46
V740
p241
sbag1
(g2
g3
NtRp242
(dp243
g56
V10.1073/pnas.2032704100
p244
sg52
VP NATL ACAD SCI USA
p245
sg54
V100
p246
sg86
(lp247
(VFUCHS
VI
tp248
asg17
I2003
sg46
V11795
p249
sbag1
(g2
g3
NtRp250
(dp251
g56
V10.1038/35096571
p252
sg52
VNATURE
p253
sg54
V413
p254
sg86
(lp255
(VGELDNER
VN
tp256
asg17
I2001
sg46
V425
p257
sbag1
(g2
g3
NtRp258
(dp259
g56
V10.1046/j.1469-8137.1999.00325.x
p260
sg52
VNEW PHYTOL
p261
sg54
V141
p262
sg86
(lp263
(VGRIMOLDI
VA A
tp264
asg17
I1999
sg46
V119
p265
sbag1
(g2
g3
NtRp266
(dp267
g56
V10.1104/pp.117.4.1473
p268
sg52
VPLANT PHYSIOL
p269
sg54
V117
p270
sg86
(lp271
(VHAGA
VK
tp272
asg17
I1998
sg46
VLANT
p273
sbag1
(g2
g3
NtRp274
(dp275
g56
V10.2307/2441904
p276
sg52
VAM J BOT
p277
sg54
V63
p278
sg86
(lp279
(VHAYES
VA B
tp280
asg17
I1976
sg46
V383
p281
sbag1
(g2
g3
NtRp282
(dp283
g56
V10.1104/pp.99.3.1156
p284
sg52
VPLANT PHYSIOL
p285
sg54
V99
p286
sg86
(lp287
(VHOFFMANNBENNING
VS
tp288
asg17
I1992
sg46
VLANT
p289
sbag1
(g2
g3
NtRp290
(dp291
g56
Nsg52
VPLANT CELL PHYSIOL
p292
sg54
V36
p293
sg86
(lp294
(VIINO
VM
tp295
asg17
I1995
sg46
VLANT
p296
sbag1
(g2
g3
NtRp297
(dp298
g56
V10.1111/j.0028-646X.2001.257_1.x
p299
sg52
VNEW PHYTOL
p300
sg54
V152
p301
sg86
(lp302
(VINSAUSTI
VP
tp303
asg17
I2001
sg46
V291
p304
sbag1
(g2
g3
NtRp305
(dp306
g56
Nsg52
VENCY PLANT PHYSL
p307
sg54
Nsg86
(lp308
(VKANG
VB G
tp309
asg17
I1979
sg46
V647
p310
sbag1
(g2
g3
NtRp311
(dp312
g56
Nsg52
VP547
p313
sg54
Nsg86
(lp314
(VKAUFMAN
VPETER B
tp315
asg17
I1995
sg46
V547
p316
sbag1
(g2
g3
NtRp317
(dp318
g56
Nsg52
VIN PRESS PLANT MOL B
p319
sg54
Nsg86
(lp320
(VKENDE
VH
tp321
asg17
I2004
sg46
Nsbag1
(g2
g3
NtRp322
(dp323
g56
V10.1055/s-2001-17731
p324
sg52
VPLANT BIOLOGY
p325
sg54
V3
sg86
(lp326
(VKUTSCHERA
VU
tp327
asg17
I2001
sg46
VLANT
p328
sbag1
(g2
g3
NtRp329
(dp330
g56
V10.1046/j.1365-313X.1996.10040655.x
p331
sg52
VPLANT J
p332
sg54
V10
p333
sg86
(lp334
(VLEONKLOOSTERZIEL
VK M
tp335
asg17
I1996
sg46
VLANT
p336
sbag1
(g2
g3
NtRp337
(dp338
g56
V10.1046/j.1365-313X.2001.01173.x
p339
sg52
VPLANT J
p340
sg54
V28
p341
sg86
(lp342
(VLJUNG
VK
tp343
asg17
I2001
sg46
VLANT
p344
sbag1
(g2
g3
NtRp345
(dp346
g56
V10.1073/pnas.91.14.6574
p347
sg52
VP NATL ACAD SCI USA
p348
sg54
V91
p349
sg86
(lp350
(VMCQUEENMASON
VS
tp351
asg17
I1994
sg46
V6574
p352
sbag1
(g2
g3
NtRp353
(dp354
g56
V10.1016/S1360-1385(02)02314-2
p355
sg52
VTRENDS PLANT SCI
p356
sg54
V7
sg86
(lp357
(VMORELLI
VG
tp358
asg17
I2002
sg46
V399
p359
sbag1
(g2
g3
NtRp360
(dp361
g56
V10.1104/pp.122.3.621
p362
sg52
VPLANT PHYSIOL
p363
sg54
V122
p364
sg86
(lp365
(VMORELLI
VG
tp366
asg17
I2000
sg46
VLANT
p367
sbag1
(g2
g3
NtRp368
(dp369
g56
V10.1073/pnas.0437936100
p370
sg52
VP NATL ACAD SCI USA
p371
sg54
V100
p372
sg86
(lp373
(VOTTENSCHLAGER
VI
tp374
asg17
I2003
sg46
V2987
p375
sbag1
(g2
g3
NtRp376
(dp377
g56
Nsg52
VENCY PLANT PHYSL
p378
sg54
V11
p379
sg86
(lp380
(VPALMER
VJ H
tp381
asg17
I1985
sg46
V139
p382
sbag1
(g2
g3
NtRp383
(dp384
g56
V10.1007/BF01894996
p385
sg52
VPLANTA
p386
sg54
V61
p387
sg86
(lp388
(VPALMER
VJ H
tp389
asg17
I1964
sg46
VLANTA
p390
sbag1
(g2
g3
NtRp391
(dp392
g56
V10.1046/j.1365-313x.2001.00970.x
p393
sg52
VPLANT J
p394
sg54
V25
p395
sg86
(lp396
(VPARRY
VG
tp397
asg17
I2001
sg46
VLANT
p398
sbag1
(g2
g3
NtRp399
(dp400
g56
V10.1093/jexbot/53.368.391
p401
sg52
VJ EXP BOT
p402
sg54
V53
p403
sg86
(lp404
(VPEETERS
VA J M
tp405
asg17
I2002
sg46
V391
p406
sbag1
(g2
g3
NtRp407
(dp408
g56
V10.1073/pnas.96.21.12186
p409
sg52
VP NATL ACAD SCI USA
p410
sg54
V96
p411
sg86
(lp412
(VPHILIPPAR
VK
tp413
asg17
I1999
sg46
V12186
p414
sbag1
(g2
g3
NtRp415
(dp416
g56
V10.1046/j.1365-3040.2003.01045.x
p417
sg52
VPLANT CELL ENVIRON
p418
sg54
V26
p419
sg86
(lp420
(VPIERIK
VR
tp421
asg17
I2003
sg46
VLANT
p422
sbag1
(g2
g3
NtRp423
(dp424
g56
V10.1104/pp.104.045120
p425
sg52
VPLANT PHYSIOL
p426
sg54
V136
p427
sg86
(lp428
(VPIERIK
VR
tp429
asg17
I2004
sg46
VLANT
p430
sbag1
(g2
g3
NtRp431
(dp432
g56
Nsg52
VPlant life in aquatic and amphibious habitats
p433
sg54
Nsg86
(lp434
(VRIDGE
VI
tp435
asg17
I1987
sg46
Vlant
p436
sbag1
(g2
g3
NtRp437
(dp438
g56
V10.1007/s004250050160
p439
sg52
VPLANTA
p440
sg54
V203
p441
sg86
(lp442
(VRIJNDERS
VJGHM
tp443
asg17
I1997
sg46
VLANTA
p444
sbag1
(g2
g3
NtRp445
(dp446
g56
Nsg52
VPLANTA
p447
sg54
V181
p448
sg86
(lp449
(VSCHNYDER
VH
tp450
asg17
I1990
sg46
VLANTA
p451
sbag1
(g2
g3
NtRp452
(dp453
g56
V10.1046/j.1365-313X.2003.01947.x
p454
sg52
VPLANT J
p455
sg54
V37
p456
sg86
(lp457
(VSIEFRITZ
VF
tp458
asg17
I2004
sg46
VLANT
p459
sbag1
(g2
g3
NtRp460
(dp461
g56
V10.1104/pp.103.022665
p462
sg52
VPLANT PHYSIOL
p463
sg54
V133
p464
sg86
(lp465
(VVANDENBUSSCHE
VF
tp466
asg17
I2003
sg46
VLANT
p467
sbag1
(g2
g3
NtRp468
(dp469
g56
V10.1111/j.1365-3040.1989.tb01959.x
p470
sg52
VPLANT CELL ENVIRON
p471
sg54
V12
p472
sg86
(lp473
(VVOESENEK
VLACJ
tp474
asg17
I1989
sg46
VLANT
p475
sbag1
(g2
g3
NtRp476
(dp477
g56
V10.1093/aob/mcf116
p478
sg52
VANN BOT
p479
sg54
V91
p480
sg86
(lp481
(VVOESENEK
VLACJ
tp482
asg17
I2003
sg46
V205
p483
sbag1
(g2
g3
NtRp484
(dp485
g56
Nsg52
VTHESIS UTRECHT U UTR
p486
sg54
Nsg86
(lp487
(VVREEBURG
VR A M
tp488
asg17
I2004
sg46
Nsbag1
(g2
g3
NtRp489
(dp490
g56
V10.1046/j.1365-313X.2003.01975.x
p491
sg52
VPLANT J
p492
sg54
V37
p493
sg86
(lp494
(VVRIEZEN
VW H
tp495
asg17
I2004
sg46
VLANT
p496
sbag1
(g2
g3
NtRp497
(dp498
g56
V10.1007/s004250050703
p499
sg52
VPLANTA
p500
sg54
V210
p501
sg86
(lp502
(VVRIEZEN
VW H
tp503
asg17
I2000
sg46
VLANTA
p504
sbag1
(g2
g3
NtRp505
(dp506
g56
Nsg52
VPHYTOHORMONES
p507
sg54
Nsg86
(lp508
(VWENT
VF W
tp509
asg17
I1937
sg46
VHYTOHORMONES
p510
sbag1
(g2
g3
NtRp511
(dp512
g56
V10.1093/pcp/pcd064
p513
sg52
VPLANT CELL PHYSIOL
p514
sg54
V41
p515
sg86
(lp516
(VZHANG
VN G
tp517
asg17
I2000
sg46
VLANT
p518
sbasb.