ccopy_reg
_reconstructor
p1
(ctethne.classes.paper
Paper
p2
c__builtin__
object
p3
NtRp4
(dp5
S'publisherCity'
p6
VROCKVILLE
p7
sS'reprintAddress'
p8
VFrank, W (reprint author), Univ Freiburg, Fac Biol, D-79104 Freiburg, Germany.
p9
sS'WC'
p10
VPlant Sciences
p11
sS'GA'
p12
V356XH
p13
sS'FX'
p14
(lp15
VThis work was supported by the Landesstiftung Baden-Wurttemberg (grant
p16
aVno. P-LS-RNS/40 to W.F., R.R., and D.W.), the Federal Ministry of
p17
aVEducation and Research (Freiburg Initiative for Systems Biology grant
p18
aVno. 0313921 to R.R. and W.F.), the Excellence Initiative of the German
p19
aVFederal State Governments (Biological Signaling Studies grant no. EXC294
p20
aVto R. R.), and European Community FP6 IP SIROCCO (contract no.
p21
aVLSHG-CT-2006-037900 to D. W.).
p22
asS'abstract'
p23
VMicroRNAs (miRNAs) are approximately 21-nucleotide-long RNAs processed from nuclear-encoded transcripts, which include a characteristic hairpin-like structure. MiRNAs control the expression of target transcripts by binding to reverse complementary sequences directing cleavage or translational inhibition of the target RNA. Artificial miRNAs (amiRNAs) can be generated by exchanging the miRNA/miRNA* sequence within miRNA precursor genes, while maintaining the pattern of matches and mismatches in the foldback. Thus, for functional gene analysis, amiRNAs can be designed to target any gene of interest. The moss Physcomitrella patens exhibits the unique feature of a highly efficient homologous recombination mechanism, which allows for the generation of targeted gene knockout lines. However, the completion of the Physcomitrella genome necessitates the development of alternative techniques to speed up reverse genetics analyses and to allow for more flexible inactivation of genes. To prove the adaptability of amiRNA expression in Physcomitrella, we designed two amiRNAs, targeting the gene PpFtsZ2-1, which is indispensable for chloroplast division, and the gene PpGNT1 encoding an N-acetylglucosaminyltransferase. Both amiRNAs were expressed from the Arabidopsis ( Arabidopsis thaliana) miR319a precursor fused to a constitutive promoter. Transgenic Physcomitrella lines harboring the overexpression constructs showed precise processing of the amiRNAs and an efficient knock down of the cognate target mRNAs. Furthermore, chloroplast division was impeded in PpFtsZ2-1-amiRNA lines that phenocopied PpFtsZ2-1 knockout mutants. We also provide evidence for the amplification of the initial amiRNA signal by secondary transitive small interfering RNAs, although these small interfering RNAs do not seem to have a major effect on sequence-related mRNAs, confirming specificity of the amiRNA approach.
p24
sS'pageEnd'
p25
I693
sS'date'
p26
I2008
sS'documentType'
p27
VArticle
p28
sS'subject'
p29
VPlant Sciences
p30
sS'isoSource'
p31
VPlant Physiol.
p32
sS'timesCited'
p33
(lp34
I34
aVZ9 43
p35
asS'funding'
p36
(lp37
(VLandesstiftung Baden-Wurttemberg
VP-LS-RNS/40
tp38
a(VFederal Ministry of Education and Research
V0313921
tp39
a(VExcellence Initiative of the German Federal State Governments
VEXC294
tp40
a(VEuropean Community FP6 IP SIROCCO
VLSHG-CT-2006-037900
tp41
asS'PT'
p42
VJ
sS'title'
p43
VSpecific Gene Silencing By Artificial Micrornas In Physcomitrella Patens: An Alternative To Targeted Gene Knockouts
p44
sS'ISSN'
p45
(lp46
V0032-0889
p47
aVJ9 PLANT PHYSIOL
p48
asS'authors_full'
p49
(lp50
(VKHRAIWESH
VBASEL
tp51
a(VOSSOWSKI
VSTEPHAN
tp52
a(VWEIGEL
VDETLEF
tp53
a(VRESKI
VRALF
tp54
a(VFRANK
VWOLFGANG
tp55
asS'PG'
p56
I10
sS'PD'
p57
VOCT
p58
sS'pageStart'
p59
I684
sS'issue'
p60
I2
sS'RI'
p61
VWeigel, Detlef/C-1418-2008; Ossowski, Stephan/E-2139-2011
p62
sS'journal'
p63
VPLANT PHYSIOLOGY
p64
sS'volume'
p65
V148
p66
sS'doi'
p67
V10.1104/pp.108.128025
p68
sS'emailAddress'
p69
Vwolfgang.frank@biologie.uni-freiburg.de
p70
sS'authorAddress'
p71
(lp72
V[Khraiwesh, Basel; Reski, Ralf; Frank, Wolfgang] Univ Freiburg, Fac Biol, D-79104 Freiburg, Germany.
p73
aV[Reski, Ralf; Frank, Wolfgang] Univ Freiburg, Freiburg Initiat Syst Biol, D-79104 Freiburg, Germany.
p74
aV[Reski, Ralf] Univ Freiburg, Ctr Biol Signaling Studies, D-79104 Freiburg, Germany.
p75
aV[Ossowski, Stephan; Weigel, Detlef] Max Planck Inst Dev Biol, Dept Mol Biol, D-72076 Tubingen, Germany.
p76
asS'publisherAddress'
p77
V15501 MONONA DRIVE, ROCKVILLE, MD 20855 USA
p78
sS'ER'
p79
V
sS'publisher'
p80
VAMER SOC PLANT BIOLOGISTS
p81
sS'authorKeywords'
p82
(lp83
VDEPENDENT RNA-POLYMERASE
p84
aVARABIDOPSIS-THALIANA
p85
aVVIRUS-RESISTANCE
p86
aVC-ELEGANS
p87
aVPLANTS
p88
aVMOSS
p89
aVBIOGENESIS
p90
aVEXPRESSION
p91
aVMIRNA
p92
aVEVOLUTION
p93
asS'OI'
p94
(lp95
VWeigel, Detlef/0000-0002-2114-7963; Ossowski,
p96
aVStephan/0000-0002-7416-9568
p97
asS'language'
p98
VEnglish
p99
sS'wosid'
p100
VWOS:000259810400002
p101
sS'citationCount'
p102
I54
sS'authors_init'
p103
(lp104
(VKHRAIWESH
VB
tp105
a(VOSSOWSKI
VS
tp106
a(VWEIGEL
VD
tp107
a(VRESKI
VR
tp108
a(VFRANK
VW
tp109
asS'citedReferences'
p110
(lp111
g1
(g2
g3
NtRp112
(dp113
g67
V10.1105/tpc.105.040725
p114
sg63
VPLANT CELL
p115
sg65
V18
p116
sg103
(lp117
(VALVAREZ
VJ P
tp118
asg26
I2006
sg59
VLANT
p119
sbag1
(g2
g3
NtRp120
(dp121
g67
V10.1016/S1534-5807(03)00228-4
p122
sg63
VDEV CELL
p123
sg65
V5
sg103
(lp124
(VARAVIN
VA A
tp125
asg26
I2003
sg59
V337
p126
sbag1
(g2
g3
NtRp127
(dp128
g67
V10.1111/j.1365-313X.2005.02499.x
p129
sg63
VPLANT J
p130
sg65
V43
p131
sg103
(lp132
(VARAZI
VT
tp133
asg26
I2005
sg59
VLANT
p134
sbag1
(g2
g3
NtRp135
(dp136
g67
V10.1016/j.tplants.2008.03.009
p137
sg63
VTRENDS PLANT SCI
p138
sg65
V13
p139
sg103
(lp140
(VAXTELL
VM J
tp141
asg26
I2008
sg59
V343
p142
sbag1
(g2
g3
NtRp143
(dp144
g67
V10.1105/tpc.107.051706
p145
sg63
VPLANT CELL
p146
sg65
V19
p147
sg103
(lp148
(VAXTELL
VM J
tp149
asg26
I2007
sg59
VLANT
p150
sbag1
(g2
g3
NtRp151
(dp152
g67
V10.1016/j.cell.2006.09.032
p153
sg63
VCELL
p154
sg65
V127
p155
sg103
(lp156
(VAXTELL
VM J
tp157
asg26
I2006
sg59
V565
p158
sbag1
(g2
g3
NtRp159
(dp160
g67
V10.1016/S0092-8674(04)00045-5
p161
sg63
VCELL
p162
sg65
V116
p163
sg103
(lp164
(VBARTEL
VD P
tp165
asg26
I2004
sg59
V281
p166
sbag1
(g2
g3
NtRp167
(dp168
g67
V10.1038/nature02874
p169
sg63
VNATURE
p170
sg65
V431
p171
sg103
(lp172
(VBAULCOMBE
VD
tp173
asg26
I2004
sg59
V356
p174
sbag1
(g2
g3
NtRp175
(dp176
g67
V10.1104/pp.103.024901
p177
sg63
VPLANT PHYSIOL
p178
sg65
V133
p179
sg103
(lp180
(VBEZANILLA
VM
tp181
asg26
I2003
sg59
VLANT
p182
sbag1
(g2
g3
NtRp183
(dp184
g67
V10.1055/s-2005-837597
p185
sg63
VPLANT BIOLOGY
p186
sg65
V7
sg103
(lp187
(VBEZANILLA
VM
tp188
asg26
I2005
sg59
VLANT
p189
sbag1
(g2
g3
NtRp190
(dp191
g67
V10.1126/science.1159151
p192
sg63
VSCIENCE
p193
sg65
V320
p194
sg103
(lp195
(VBRODERSEN
VP
tp196
asg26
I2008
sg59
V1185
p197
sbag1
(g2
g3
NtRp198
(dp199
g67
V10.1038/nrg2179
p200
sg63
VNAT REV GENET
p201
sg65
V8
sg103
(lp202
(VCHAPMAN
VE J
tp203
asg26
I2007
sg59
V884
p204
sbag1
(g2
g3
NtRp205
(dp206
g67
Nsg63
VEMBO J
p207
sg65
V11
p208
sg103
(lp209
(VDECARVALHO
VF
tp210
asg26
I1992
sg59
V2595
p211
sbag1
(g2
g3
NtRp212
(dp213
g67
V10.1186/1471-2229-2-6
p214
sg63
VBMC Plant Biol
p215
sg65
V2
sg103
(lp216
(VEGENER
VTANJA
tp217
asg26
I2002
sg59
V6
sbag1
(g2
g3
NtRp218
(dp219
g67
V10.1371/journal.pone.0000219
p220
sg63
VPLOS ONE
p221
sg65
V2
sg103
(lp222
(VFAHLGREN
VN
tp223
asg26
I2007
sg59
VLOS
p224
sbag1
(g2
g3
NtRp225
(dp226
g67
V10.1186/1471-2229-7-13
p227
sg63
VBMC PLANT BIOL
p228
sg65
V7
sg103
(lp229
(VFATTASH
VI
tp230
asg26
I2007
sg59
Nsbag1
(g2
g3
NtRp231
(dp232
g67
V10.1055/s-2005-865645
p233
sg63
VPLANT BIOLOGY
p234
sg65
V7
sg103
(lp235
(VFRANK
VW
tp236
asg26
I2005
sg59
VLANT
p237
sbag1
(g2
g3
NtRp238
(dp239
g67
V10.1126/science.286.5441.950
p240
sg63
VSCIENCE
p241
sg65
V286
p242
sg103
(lp243
(VHAMILTON
VA J
tp244
asg26
I1999
sg59
V950
p245
sbag1
(g2
g3
NtRp246
(dp247
g67
V10.1007/s00294-003-0458-4
p248
sg63
VCURR GENET
p249
sg65
V44
p250
sg103
(lp251
(VHOHE
VA
tp252
asg26
I2004
sg59
V339
p253
sbag1
(g2
g3
NtRp254
(dp255
g67
V10.1105/tpc.107.050062
p256
sg63
VPLANT CELL
p257
sg65
V19
p258
sg103
(lp259
(VHOWELL
VM D
tp260
asg26
I2007
sg59
VLANT
p261
sbag1
(g2
g3
NtRp262
(dp263
g67
V10.1146/annurev.arplant.57.032905.105218
p264
sg63
VANNU REV PLANT BIOL
p265
sg65
V57
p266
sg103
(lp267
(VJONES-RHOADES
VM W
tp268
asg26
I2006
sg59
V19
p269
sbag1
(g2
g3
NtRp270
(dp271
g67
V10.1073/pnas.86.21.8467
p272
sg63
VP NATL ACAD SCI USA
p273
sg65
V86
p274
sg103
(lp275
(VKONCZ
VC
tp276
asg26
I1989
sg59
V8467
p277
sbag1
(g2
g3
NtRp278
(dp279
g67
V10.1055/s-2003-44721
p280
sg63
VPLANT BIOLOGY
p281
sg65
V5
sg103
(lp282
(VKOPRIVOVA
VA
tp283
asg26
I2003
sg59
VLANT
p284
sbag1
(g2
g3
NtRp285
(dp286
g67
V10.1073/pnas.0403115101
p287
sg63
VP NATL ACAD SCI USA
p288
sg65
V101
p289
sg103
(lp290
(VKURIHARA
VY
tp291
asg26
I2004
sg59
V12753
p292
sbag1
(g2
g3
NtRp293
(dp294
g67
V10.1016/0092-8674(93)90529-Y
p295
sg63
VCELL
p296
sg65
V75
p297
sg103
(lp298
(VLEE
VR C
tp299
asg26
I1993
sg59
V843
p300
sbag1
(g2
g3
NtRp301
(dp302
g67
V10.1126/science.1076311
p303
sg63
VSCIENCE
p304
sg65
V297
p305
sg103
(lp306
(VLLAVE
VC
tp307
asg26
I2002
sg59
V2053
p308
sbag1
(g2
g3
NtRp309
(dp310
g67
V10.1038/sj.emboj.7600340
p311
sg63
VEMBO J
p312
sg65
V23
p313
sg103
(lp314
(VMALLORY
VA C
tp315
asg26
I2004
sg59
V3356
p316
sbag1
(g2
g3
NtRp317
(dp318
g67
Nsg63
VEMBO J
p319
sg65
V8
sg103
(lp320
(VMATZKE
VM A
tp321
asg26
I1989
sg59
V643
p322
sbag1
(g2
g3
NtRp323
(dp324
g67
V10.1261/rna.541307
p325
sg63
VRNA
p326
sg65
V13
p327
sg103
(lp328
(VMOISSIARD
VG
tp329
asg26
I2007
sg59
V1268
p330
sbag1
(g2
g3
NtRp331
(dp332
g67
V10.1038/nbt792
p333
sg63
VNAT BIOTECHNOL
p334
sg65
V21
p335
sg103
(lp336
(VMYERS
VJ W
tp337
asg26
I2003
sg59
V324
p338
sbag1
(g2
g3
NtRp339
(dp340
g67
V10.1105/tpc.2.4.279
p341
sg63
VPLANT CELL
p342
sg65
V2
sg103
(lp343
(VNAPOLI
VC
tp344
asg26
I1990
sg59
VLANT
p345
sbag1
(g2
g3
NtRp346
(dp347
g67
V10.1038/nbt1255
p348
sg63
VNAT BIOTECHNOL
p349
sg65
V24
p350
sg103
(lp351
(VNIU
VQ W
tp352
asg26
I2006
sg59
V1420
p353
sbag1
(g2
g3
NtRp354
(dp355
g67
V10.1111/j.1365-313X.2007.03328.x
p356
sg63
VPLANT J
p357
sg65
V53
p358
sg103
(lp359
(VOSSOWSKI
VS
tp360
asg26
I2008
sg59
VLANT
p361
sbag1
(g2
g3
NtRp362
(dp363
g67
V10.1126/science.1132839
p364
sg63
VSCIENCE
p365
sg65
V315
p366
sg103
(lp367
(VPAK
VJ
tp368
asg26
I2007
sg59
V241
p369
sbag1
(g2
g3
NtRp370
(dp371
g67
V10.1101/gad.307804
p372
sg63
VGENE DEV
p373
sg65
V18
p374
sg103
(lp375
(VPARIZOTTO
VE A
tp376
asg26
I2004
sg59
V2237
p377
sbag1
(g2
g3
NtRp378
(dp379
g67
V10.1128/JVI.02457-06
p380
sg63
VJ VIROL
p381
sg65
V81
p382
sg103
(lp383
(VQU
VJ
tp384
asg26
I2007
sg59
V6690
p385
sbag1
(g2
g3
NtRp386
(dp387
g67
V10.1016/j.pbi.2007.01.005
p388
sg63
VCURR OPIN PLANT BIOL
p389
sg65
V10
p390
sg103
(lp391
(VQUATRANO
VR S
tp392
asg26
I2007
sg59
V182
p393
sbag1
(g2
g3
NtRp394
(dp395
g67
V10.1101/gad.1476406
p396
sg63
VGENE DEV
p397
sg65
V20
p398
sg103
(lp399
(VRAJAGOPALAN
VR
tp400
asg26
I2006
sg59
V3407
p401
sbag1
(g2
g3
NtRp402
(dp403
g67
V10.1126/science.1150646
p404
sg63
VSCIENCE
p405
sg65
V319
p406
sg103
(lp407
(VRENSING
VS A
tp408
asg26
I2008
sg59
V64
p409
sbag1
(g2
g3
NtRp410
(dp411
g67
V10.1111/j.1365-2958.1992.tb02202.x
p412
sg63
VMOL MICROBIOL
p413
sg65
V6
sg103
(lp414
(VROMANO
VN
tp415
asg26
I1992
sg59
V3343
p416
sbag1
(g2
g3
NtRp417
(dp418
g67
V10.1146/annurev.arplant.53.100301.135202
p419
sg63
VANNU REV PLANT BIOL
p420
sg65
V53
p421
sg103
(lp422
(VSCHAEFER
VD G
tp423
asg26
I2002
sg59
V477
p424
sbag1
(g2
g3
NtRp425
(dp426
g67
V10.1016/j.devcel.2005.01.018
p427
sg63
VDEV CELL
p428
sg65
V8
sg103
(lp429
(VSCHWAB
VR
tp430
asg26
I2005
sg59
V517
p431
sbag1
(g2
g3
NtRp432
(dp433
g67
V10.1105/tpc.105.039834
p434
sg63
VPLANT CELL
p435
sg65
V18
p436
sg103
(lp437
(VSCHWAB
VR
tp438
asg26
I2006
sg59
VLANT
p439
sbag1
(g2
g3
NtRp440
(dp441
g67
V10.1007/BF02801931
p442
sg63
VPLANT MOL BIOL REP
p443
sg65
V20
p444
sg103
(lp445
(VSCHWEEN
VG
tp446
asg26
I2002
sg59
VLANT
p447
sbag1
(g2
g3
NtRp448
(dp449
g67
V10.1073/pnas.95.8.4368
p450
sg63
VP NATL ACAD SCI USA
p451
sg65
V95
p452
sg103
(lp453
(VSTREPP
VR
tp454
asg26
I1998
sg59
V4368
p455
sbag1
(g2
g3
NtRp456
(dp457
g67
V10.1111/j.1365-313X.2006.02895.x
p458
sg63
VPLANT J
p459
sg65
V48
p460
sg103
(lp461
(VTALMOR-NEIMAN
VM
tp462
asg26
I2006
sg59
VLANT
p463
sbag1
(g2
g3
NtRp464
(dp465
g67
V10.1104/pp.108.117119
p466
sg63
VPLANT PHYSIOL
p467
sg65
V147
p468
sg103
(lp469
(VTRETTER
VE M
tp470
asg26
I2008
sg59
VLANT
p471
sbag1
(g2
g3
NtRp472
(dp473
g67
V10.1105/tpc.010480
p474
sg63
VPLANT CELL
p475
sg65
V14
p476
sg103
(lp477
(VVAISTIJ
VF E
tp478
asg26
I2002
sg59
VLANT
p479
sbag1
(g2
g3
NtRp480
(dp481
g67
V10.1101/gad.1201404
p482
sg63
VGENE DEV
p483
sg65
V18
p484
sg103
(lp485
(VVAUCHERET
VH
tp486
asg26
I2004
sg59
V1187
p487
sbag1
(g2
g3
NtRp488
(dp489
g67
V10.1105/tpc.107.053413
p490
sg63
VPLANT CELL
p491
sg65
V19
p492
sg103
(lp493
(VVIDALI
VL
tp494
asg26
I2007
sg59
VLANT
p495
sbag1
(g2
g3
NtRp496
(dp497
g67
V10.1371/journal.pone.0001829
p498
sg63
VPLOS ONE
p499
sg65
V3
sg103
(lp500
(VWARTHMANN
VN
tp501
asg26
I2008
sg59
VLOS
p502
sbag1
(g2
g3
NtRp503
(dp504
g67
V10.1038/35081168
p505
sg63
VNATURE
p506
sg65
V411
p507
sg103
(lp508
(VWATERHOUSE
VP M
tp509
asg26
I2001
sg59
V834
p510
sbag1
(g2
g3
NtRp511
(dp512
g67
V10.1016/S1097-2765(02)00541-5
p513
sg63
VMOL CELL
p514
sg65
V9
sg103
(lp515
(VZENG
VY
tp516
asg26
I2002
sg59
V1327
p517
sbag1
(g2
g3
NtRp518
(dp519
g67
Nsg63
VBIOTECHNIQUES
p520
sg65
V30
p521
sg103
(lp522
(VZHU
VY Y
tp523
asg26
I2001
sg59
V892
p524
sbasb.