ccopy_reg
_reconstructor
p1
(ctethne.classes.paper
Paper
p2
c__builtin__
object
p3
NtRp4
(dp5
S'publisherCity'
p6
VROCKVILLE
p7
sS'reprintAddress'
p8
VHooykaas, PJJ (reprint author), Leiden Univ, Inst Biol, Clusius Lab, NL-2333 AL Leiden, Netherlands.
p9
sS'WC'
p10
VPlant Sciences
p11
sS'GA'
p12
V237SI
p13
sS'abstract'
p14
VSite-specific integration is an attractive method for the improvement of current transformation technologies aimed at the production of stable transgenic plants. Here, we present a Cre-based targeting strategy in Arabidopsis ( Arabidopsis thaliana) using recombinase-mediated cassette exchange (RMCE) of transferred DNA (T-DNA) delivered by Agrobacterium tumefaciens. The rationale for effective RMCE is the precise exchange of a genomic and a replacement cassette both flanked by two heterospecific lox sites that are incompatible with each other to prevent unwanted cassette deletion. We designed a strategy in which the coding region of a loxP/lox5171-flanked bialaphos resistance ( bar) gene is exchanged for a loxP/lox5171-flanked T-DNA replacement cassette containing the neomycin phosphotransferase (nptII) coding region via loxP/loxP and lox5171/lox5171 directed recombination. The bar gene is driven by the strong 35S promoter, which is located outside the target cassette. This placement ensures preferential selection of RMCE events and not random integration events by expression of nptII from this same promoter. Using root transformation, during which Cre was provided on a cotransformed T-DNA, 50 kanamycinresistant calli were selected. Forty-four percent contained a correctly exchanged cassette based on PCR analysis, indicating the stringency of the selection system. This was confirmed for the offspring of five analyzed events by Southern-blot analysis. In four of the five analyzed RMCE events, there were no additional T-DNA insertions or they easily segregated, resulting in high-efficiency single-copy RMCE events. Our approach enables simple and efficient selection of targeting events using the advantages of Agrobacterium-mediated transformation.
p15
sS'pageEnd'
p16
I1293
sS'publisherAddress'
p17
V15501 MONONA DRIVE, ROCKVILLE, MD 20855 USA
p18
sS'documentType'
p19
VArticle
p20
sS'subject'
p21
VPlant Sciences
p22
sS'isoSource'
p23
VPlant Physiol.
p24
sS'timesCited'
p25
(lp26
I21
aVZ9 25
p27
asS'PT'
p28
VJ
sS'title'
p29
VStable Recombinase-Mediated Cassette Exchange In Arabidopsis Using Agrobacterium Tumefaciens
p30
sS'ISSN'
p31
(lp32
V0032-0889
p33
aVJ9 PLANT PHYSIOL
p34
asS'authors_full'
p35
(lp36
(VLOUWERSE
VJEANINE D
tp37
a(VVAN LIER
VMIRANDA C M
tp38
a(VVAN DER STEEN
VDIRK M
tp39
a(VDE VLAAM
VCLEMENTINE M T
tp40
a(VHOOYKAAS
VPAUL J J
tp41
a(VVERGUNST
VANNETTE C
tp42
asS'PG'
p43
I12
sS'PD'
p44
VDEC
p45
sS'pageStart'
p46
I1282
sS'issue'
p47
I4
sS'journal'
p48
VPLANT PHYSIOLOGY
p49
sS'volume'
p50
V145
p51
sS'doi'
p52
V10.1104/pp.107.108092
p53
sS'emailAddress'
p54
Vp.j.j.hooykaas@biology.leidenuniv.nl
p55
sS'authorAddress'
p56
VLeiden Univ, Inst Biol, Clusius Lab, NL-2333 AL Leiden, Netherlands.
p57
sS'date'
p58
I2007
sS'ER'
p59
V
sS'publisher'
p60
VAMER SOC PLANT BIOLOGISTS
p61
sS'authorKeywords'
p62
(lp63
VSITE-SPECIFIC INTEGRATION
p64
aVT-DNA INTEGRATION
p65
aVSINGLE-STRANDED-DNA
p66
aVPLANT TRANSFORMATION
p67
aVSELECTABLE MARKER
p68
aVTRANSGENIC PLANTS
p69
aVCRE RECOMBINASE
p70
aVTRANSIENT EXPRESSION
p71
aVTARGETED INTEGRATION
p72
aVMAMMALIAN-CELLS
p73
asS'language'
p74
VEnglish
p75
sS'wosid'
p76
VWOS:000251396300021
p77
sS'citationCount'
p78
I58
sS'authors_init'
p79
(lp80
(VLOUWERSE
VJ D
tp81
a(VVAN LIER
VM C M
tp82
a(VVAN DER STEEN
VD M
tp83
a(VDE VLAAM
VC M T
tp84
a(VHOOYKAAS
VP J J
tp85
a(VVERGUNST
VA C
tp86
asS'citedReferences'
p87
(lp88
g1
(g2
g3
NtRp89
(dp90
g52
V10.1046/j.1365-313X.1995.7040649.x
p91
sg48
VPLANT J
p92
sg50
V7
sg79
(lp93
(VALBERT
VH
tp94
asg58
I1995
sg46
VLANT
p95
sbag1
(g2
g3
NtRp96
(dp97
g52
V10.1016/S0958-1669(00)00248-2
p98
sg48
VCURR OPIN BIOTECH
p99
sg50
V12
p100
sg79
(lp101
(VBAER
VA
tp102
asg58
I2001
sg46
V473
p103
sbag1
(g2
g3
NtRp104
(dp105
g52
V10.1016/0092-8674(89)90799-X
p106
sg48
VCELL
p107
sg50
V57
p108
sg79
(lp109
(VBAKKEREN
VG
tp110
asg58
I1989
sg46
V847
p111
sbag1
(g2
g3
NtRp112
(dp113
g52
V10.1126/science.256.5061.1324
p114
sg48
VSCIENCE
p115
sg50
V256
p116
sg79
(lp117
(VBEIJERSBERGEN
VA
tp118
asg58
I1992
sg46
V1324
p119
sbag1
(g2
g3
NtRp120
(dp121
g52
Nsg48
VBLOOD
p122
sg50
V90
p123
sg79
(lp124
(VBOUHASSIRA
VE E
tp125
asg58
I1997
sg46
V3332
p126
sbag1
(g2
g3
NtRp127
(dp128
g52
Nsg48
VEMBO J
p129
sg50
V14
p130
sg79
(lp131
(VBUNDOCK
VP
tp132
asg58
I1995
sg46
V3206
p133
sbag1
(g2
g3
NtRp134
(dp135
g52
Nsg48
VPLANT BIOTECHNOL J
p136
sg50
V4
sg79
(lp137
(VCHAWLA
VC
tp138
asg58
I2006
sg46
VLANT
p139
sbag1
(g2
g3
NtRp140
(dp141
g52
V10.1104/pp.103.026104
p142
sg48
VPLANT PHYSIOL
p143
sg50
V133
p144
sg79
(lp145
(VCHILTON
VM D M
tp146
asg58
I2003
sg46
VLANT
p147
sbag1
(g2
g3
NtRp148
(dp149
g52
V10.1016/S0091-679X(08)61044-4
p150
sg48
VMETHOD CELL BIOL
p151
sg50
V50
p152
sg79
(lp153
(VCHRISTOU
VP
tp154
asg58
I1995
sg46
V375
p155
sbag1
(g2
g3
NtRp156
(dp157
g52
V10.1006/jmbi.1997.1230
p158
sg48
VJ MOL BIOL
p159
sg50
V271
p160
sg79
(lp161
(VCITOVSKY
VV
tp162
asg58
I1997
sg46
V718
p163
sbag1
(g2
g3
NtRp164
(dp165
g52
V10.1007/BF00019155
p166
sg48
VPLANT MOL BIOL
p167
sg50
V15
p168
sg79
(lp169
(VCOMAI
VL
tp170
asg58
I1990
sg46
VLANT
p171
sbag1
(g2
g3
NtRp172
(dp173
g52
V10.1046/j.1365-313x.2001.01068.x
p174
sg48
VPLANT J
p175
sg50
V27
p176
sg79
(lp177
(VCORNEILLE
VS
tp178
asg58
I2001
sg46
VLANT
p179
sbag1
(g2
g3
NtRp180
(dp181
g52
V10.1101/gad.849600
p182
sg48
VGENE DEV
p183
sg50
V14
p184
sg79
(lp185
(VDAY
VC D
tp186
asg58
I2000
sg46
V2869
p187
sbag1
(g2
g3
NtRp188
(dp189
g52
V10.1094/MPMI.2000.13.6.658
p190
sg48
VMOL PLANT MICROBE IN
p191
sg50
V13
p192
sg79
(lp193
(VDE
VBUCK S
tp194
asg58
I2000
sg46
V658
p195
sbag1
(g2
g3
NtRp196
(dp197
g52
Nsg48
VTHESIS LEIDEN U LEID
p198
sg50
Nsg79
(lp199
(VDEGROOT
VM J A
tp200
asg58
I1992
sg46
Nsbag1
(g2
g3
NtRp201
(dp202
g52
V10.1006/jmbi.1999.3113
p203
sg48
VJ MOL BIOL
p204
sg50
V292
p205
sg79
(lp206
(VFENG
VY Q
tp207
asg58
I1999
sg46
V779
p208
sbag1
(g2
g3
NtRp209
(dp210
g52
V10.1111/j.1365-313X.2004.02312.x
p211
sg48
VPLANT J
p212
sg50
V41
p213
sg79
(lp214
(VFRANCIS
VK E
tp215
asg58
I2005
sg46
VLANT
p216
sbag1
(g2
g3
NtRp217
(dp218
g52
V10.1073/pnas.89.17.7905
p219
sg48
VP NATL ACAD SCI USA
p220
sg50
V89
p221
sg79
(lp222
(VFUKUSHIGE
VS
tp223
asg58
I1992
sg46
V7905
p224
sbag1
(g2
g3
NtRp225
(dp226
g52
V10.1016/j.tibtech.2003.09.011
p227
sg48
VTRENDS BIOTECHNOL
p228
sg50
V21
p229
sg79
(lp230
(VGILBERTSON
VL
tp231
asg58
I2003
sg46
V550
p232
sbag1
(g2
g3
NtRp233
(dp234
g52
V10.1023/A:1006184221051
p235
sg48
VPLANT MOL BIOL
p236
sg50
V40
p237
sg79
(lp238
(VGLEAVE
VA P
tp239
asg58
I1999
sg46
VLANT
p240
sbag1
(g2
g3
NtRp241
(dp242
g52
V10.1111/j.1365-313X.2007.03183.x
p243
sg48
VPLANT J
p244
sg50
V51
p245
sg79
(lp246
(VKIM
VS I
tp247
asg58
I2007
sg46
VLANT
p248
sbag1
(g2
g3
NtRp249
(dp250
g52
V10.1023/A:1023941407376
p251
sg48
VPLANT MOL BIOL
p252
sg50
V52
p253
sg79
(lp254
(VKOHLI
VA
tp255
asg58
I2003
sg46
VLANT
p256
sbag1
(g2
g3
NtRp257
(dp258
g52
V10.1007/s11103-004-0237-8
p259
sg48
VPLANT MOL BIOL
p260
sg50
V55
p261
sg79
(lp262
(VKOPERTEKH
VL
tp263
asg58
I2004
sg46
VLANT
p264
sbag1
(g2
g3
NtRp265
(dp266
g52
V10.1007/BF02669627
p267
sg48
VPLANT MOL BIOL REP
p268
sg50
V7
sg79
(lp269
(VLASSNER
VM W
tp270
asg58
I1989
sg46
VLANT
p271
sbag1
(g2
g3
NtRp272
(dp273
g52
V10.1093/nar/gnf114
p274
sg48
VNUCLEIC ACIDS RES
p275
sg50
V30
p276
sg79
(lp277
(VLAUTH
VM
tp278
asg58
I2002
sg46
Nsbag1
(g2
g3
NtRp279
(dp280
g52
V10.1016/S0378-1119(98)00325-4
p281
sg48
VGENE
p282
sg50
V216
p283
sg79
(lp284
(VLEE
VG
tp285
asg58
I1998
sg46
V55
p286
sbag1
(g2
g3
NtRp287
(dp288
g52
V10.1046/j.1365-313X.1995.08030457.x
p289
sg48
VPLANT J
p290
sg50
V8
sg79
(lp291
(VLIU
VY G
tp292
asg58
I1995
sg46
VLANT
p293
sbag1
(g2
g3
NtRp294
(dp295
g52
V10.1073/pnas.0400149101
p296
sg48
VP NATL ACAD SCI USA
p297
sg50
V101
p298
sg79
(lp299
(VMARILLONNET
VS
tp300
asg58
I2004
sg46
V6852
p301
sbag1
(g2
g3
NtRp302
(dp303
g52
Nsg48
VMOL GEN GENET
p304
sg50
V236
p305
sg79
(lp306
(VMOZO
VT
tp307
asg58
I1992
sg46
V1
sbag1
(g2
g3
NtRp308
(dp309
g52
V10.1111/j.1467-7652.2005.00118.x
p310
sg48
VPLANT BIOTECHNOL J
p311
sg50
V3
sg79
(lp312
(VNANTO
VK
tp313
asg58
I2005
sg46
VLANT
p314
sbag1
(g2
g3
NtRp315
(dp316
g52
Nsg48
VTRANSGENIC RES
p317
sg50
Nsg79
(lp318
(VNANTO
VK
tp319
asg58
I2007
sg46
Nsbag1
(g2
g3
NtRp320
(dp321
g52
Nsg48
VPLANT CELL
p322
sg50
V8
sg79
(lp323
(VNARASIMHULU
VS B
tp324
asg58
I1996
sg46
VLANT
p325
sbag1
(g2
g3
NtRp326
(dp327
g52
V10.1007/BF01969385
p328
sg48
VTRANSGENIC RES
p329
sg50
V2
sg79
(lp330
(VNEUHAUSURL
VG
tp331
asg58
I1993
sg46
V115
p332
sbag1
(g2
g3
NtRp333
(dp334
g52
Nsg48
VEMBO J
p335
sg50
V9
sg79
(lp336
(VOFFRINGA
VR
tp337
asg58
I1990
sg46
V3077
p338
sbag1
(g2
g3
NtRp339
(dp340
g52
Nsg48
VTHESIS LEIDEN U LEID
p341
sg50
Nsg79
(lp342
(VOFFRINGA
VR
tp343
asg58
I1992
sg46
Nsbag1
(g2
g3
NtRp344
(dp345
g52
V10.1023/A:1013718106742
p346
sg48
VPLANT MOL BIOL
p347
sg50
V48
p348
sg79
(lp349
(VOW
VD W
tp350
asg58
I2002
sg46
VLANT
p351
sbag1
(g2
g3
NtRp352
(dp353
g52
V10.1073/pnas.90.24.11538
p354
sg48
VP NATL ACAD SCI USA
p355
sg50
V90
p356
sg79
(lp357
(VPANSEGRAU
VW
tp358
asg58
I1993
sg46
V11538
p359
sbag1
(g2
g3
NtRp360
(dp361
g52
V10.1007/BF00036805
p362
sg48
VPLANT MOL BIOL
p363
sg50
V17
p364
sg79
(lp365
(VPEACH
VC
tp366
asg58
I1991
sg46
VLANT
p367
sbag1
(g2
g3
NtRp368
(dp369
g52
V10.1073/pnas.93.1.126
p370
sg48
VP NATL ACAD SCI USA
p371
sg50
V93
p372
sg79
(lp373
(VROSSI
VL
tp374
asg58
I1996
sg46
V126
p375
sbag1
(g2
g3
NtRp376
(dp377
g52
Nsg48
VMOL CLONING LAB MANU
p378
sg50
Nsg79
(lp379
(VSAMBROOK
VJ
tp380
asg58
I1989
sg46
Nsbag1
(g2
g3
NtRp381
(dp382
g52
V10.1021/bi00209a003
p383
sg48
VBIOCHEMISTRY
p384
sg50
V33
p385
sg79
(lp386
(VSCHLAKE
VT
tp387
asg58
I1994
sg46
V12746
p388
sbag1
(g2
g3
NtRp389
(dp390
g52
V10.1046/j.1365-313X.1997.11061377.x
p391
sg48
VPLANT J
p392
sg50
V11
p393
sg79
(lp394
(VSCHLAMAN
VH R M
tp395
asg58
I1997
sg46
VLANT
p396
sbag1
(g2
g3
NtRp397
(dp398
g52
V10.1016/S0014-5793(01)02806-X
p399
sg48
VFEBS Lett
p400
sg50
V505
p401
sg79
(lp402
(VSIEGEL
VR W
tp403
asg58
I2001
sg46
V467
p404
sbag1
(g2
g3
NtRp405
(dp406
g52
V10.1016/0378-1119(95)00579-8
p407
sg48
VGENE
p408
sg50
V166
p409
sg79
(lp410
(VSNAITH
VM R
tp411
asg58
I1995
sg46
V173
p412
sbag1
(g2
g3
NtRp413
(dp414
g52
V10.1023/A:1010646100261
p415
sg48
VPLANT MOL BIOL
p416
sg50
V46
p417
sg79
(lp418
(VSRIVASTAVA
VV
tp419
asg58
I2001
sg46
VLANT
p420
sbag1
(g2
g3
NtRp421
(dp422
g52
V10.1111/j.258-7652.2003.00061.x
p423
sg48
VPLANT BIOTECHNOL J
p424
sg50
V2
sg79
(lp425
(VSRIVASTAVA
VV
tp426
asg58
I2004
sg46
VLANT
p427
sbag1
(g2
g3
NtRp428
(dp429
g52
V10.1073/pnas.96.20.11117
p430
sg48
VP NATL ACAD SCI USA
p431
sg50
V96
p432
sg79
(lp433
(VSRIVASTAVA
VV
tp434
asg58
I1999
sg46
V11117
p435
sbag1
(g2
g3
NtRp436
(dp437
g52
V10.1023/A:1015229015022
p438
sg48
VMOL BREEDING
p439
sg50
V8
sg79
(lp440
(VSRIVASTAVA
VV
tp441
asg58
I2002
sg46
V345
p442
sbag1
(g2
g3
NtRp443
(dp444
g52
V10.1073/pnas.91.17.8000
p445
sg48
VP NATL ACAD SCI USA
p446
sg50
V91
p447
sg79
(lp448
(VTINLAND
VB
tp449
asg58
I1994
sg46
V8000
p450
sbag1
(g2
g3
NtRp451
(dp452
g52
Nsg48
VPLANT PHYSIOL
p453
sg50
V133
p454
sg79
(lp455
(VTZVIRA
VT
tp456
asg58
I2003
sg46
VLANT
p457
sbag1
(g2
g3
NtRp458
(dp459
g52
V10.1093/nar/26.11.2729
p460
sg48
VNUCLEIC ACIDS RES
p461
sg50
V26
p462
sg79
(lp463
(VVERGUNST
VA C
tp464
asg58
I1998
sg46
V2729
p465
sbag1
(g2
g3
NtRp466
(dp467
g52
V10.1385/0-89603-391-0:227
p468
sg48
VARABIDOPSIS PROTOCOL
p469
sg50
Nsg79
(lp470
(VVERGUNST
VA C
tp471
asg58
I1998
sg46
V227
p472
sbag1
(g2
g3
NtRp473
(dp474
g52
V10.1023/A:1006024500008
p475
sg48
VPLANT MOL BIOL
p476
sg50
V38
p477
sg79
(lp478
(VVERGUNST
VA C
tp479
asg58
I1998
sg46
VLANT
p480
sbag1
(g2
g3
NtRp481
(dp482
g52
V10.1016/j.cell.2006.11.044
p483
sg48
VCELL
p484
sg50
V128
p485
sg79
(lp486
(VWALLACE
VH A C
tp487
asg58
I2007
sg46
V197
p488
sbag1
(g2
g3
NtRp489
(dp490
g52
V10.1046/j.1365-313X.2003.016016.x
p491
sg48
VPLANT J
p492
sg50
V33
p493
sg79
(lp494
(VZHAO
VX X
tp495
asg58
I2003
sg46
VLANT
p496
sbag1
(g2
g3
NtRp497
(dp498
g52
V10.1105/tpc.13.2.369
p499
sg48
VPLANT CELL
p500
sg50
V13
p501
sg79
(lp502
(VZIEMIENOWICZ
VA
tp503
asg58
I2001
sg46
VLANT
p504
sbag1
(g2
g3
NtRp505
(dp506
g52
V10.1038/84428
p507
sg48
VNAT BIOTECHNOL
p508
sg50
V19
p509
sg79
(lp510
(VZUO
VJ R
tp511
asg58
I2001
sg46
V157
p512
sbag1
(g2
g3
NtRp513
(dp514
g52
V10.1073/pnas.93.6.2392
p515
sg48
VP NATL ACAD SCI USA
p516
sg50
V93
p517
sg79
(lp518
(VZUPAN
VJ R
tp519
asg58
I1996
sg46
V2392
p520
sbasb.