ccopy_reg
_reconstructor
p1
(ctethne.classes.paper
Paper
p2
c__builtin__
object
p3
NtRp4
(dp5
S'publisherCity'
p6
VROCKVILLE
p7
sS'reprintAddress'
p8
VWang, XJ (reprint author), Chinese Acad Sci, Inst Genet & Dev Biol, State Key Lab Plant Genom, Beijing 100101, Peoples R China.
p9
sS'WC'
p10
VPlant Sciences
p11
sS'GA'
p12
V889DS
p13
sS'FX'
p14
(lp15
VThis work was supported by the National Natural Science Foundation of
p16
aVChina (grant nos. 30725014 and 30921016 to X.-J.W. and grant no.
p17
aV30800632 to M. W.) and the National High Technology Research and
p18
aVDevelopment Program of China (grant no. 2009AA101105 to C.-K.Q.).
p19
asS'abstract'
p20
VMicroRNAs (miRNAs) and small interfering RNAs are important regulators of plant development and seed formation, yet their population and abundance in the oil crop Brassica napus are still not well understood, especially at different developmental stages and among cultivars with varied seed oil contents. Here, we systematically analyzed the small RNA expression profiles of Brassica napus seeds at early embryonic developmental stages in high-oil-content and low-oil-content B. napus cultivars, both cultured in two environments. A total of 50 conserved miRNAs and 9 new miRNAs were identified, together with some new miRNA targets. Expression analysis revealed some miRNAs with varied expression levels in different seed oil content cultivars or at different embryonic developmental stages. A large number of 23-nucleotide small RNAs with specific nucleotide composition preferences were also identified, which may present new classes of functional small RNAs.
p21
sS'pageEnd'
p22
I823
sS'date'
p23
I2012
sS'documentType'
p24
VArticle
p25
sS'subject'
p26
VPlant Sciences
p27
sS'isoSource'
p28
VPlant Physiol.
p29
sS'timesCited'
p30
(lp31
I9
aVZ9 10
p32
asS'funding'
p33
(lp34
(VNational Natural Science Foundation of China
V30725014, 30921016, 30800632
tp35
a(VNational High Technology Research and Development Program of China
V2009AA101105
tp36
asS'PT'
p37
VJ
sS'title'
p38
VSmall Rna Profiling In Two Brassica Napus Cultivars Identifies Micrornas With Oil Production- And Development-Correlated Expression And New Small Rna Classes
p39
sS'ISSN'
p40
(lp41
V0032-0889
p42
aVJ9 PLANT PHYSIOL
p43
asS'authors_full'
p44
(lp45
(VZHAO
VYINGTAO
tp46
a(VWANG
VMENG
tp47
a(VFU
VSANXIONG
tp48
a(VYANG
VWEICAI
tp49
a(VQI
VCUNKOU
tp50
a(VWANG
VXIUJIE
tp51
asS'PG'
p52
I11
sS'PD'
p53
VFEB
p54
sS'pageStart'
p55
I813
sS'issue'
p56
I2
sS'journal'
p57
VPLANT PHYSIOLOGY
p58
sS'volume'
p59
V158
p60
sS'doi'
p61
V10.1104/pp.111.187666
p62
sS'emailAddress'
p63
Vxjwang@genetics.ac.cn
p64
sS'authorAddress'
p65
(lp66
V[Zhao, Ying-Tao; Wang, Meng; Wang, Xiu-Jie] Chinese Acad Sci, Inst Genet & Dev Biol, State Key Lab Plant Genom, Beijing 100101, Peoples R China.
p67
aV[Yang, Wei-Cai] Chinese Acad Sci, Inst Genet & Dev Biol, Key Lab Mol & Dev Biol, Beijing 100101, Peoples R China.
p68
aV[Fu, San-Xiong; Qi, Cun-Kou] Jiangsu Acad Agr Sci, Inst Ind Crops, Nanjing 210014, Jiangsu, Peoples R China.
p69
asS'publisherAddress'
p70
V15501 MONONA DRIVE, ROCKVILLE, MD 20855 USA
p71
sS'ER'
p72
V
sS'publisher'
p73
VAMER SOC PLANT BIOLOGISTS
p74
sS'authorKeywords'
p75
(lp76
VTRANS-ACTING SIRNAS
p77
aVSEED-GERMINATION
p78
aVSTRESS RESPONSES
p79
aVPLANT MICRORNAS
p80
aVGENE-EXPRESSION
p81
aVRT-PCR
p82
aVARABIDOPSIS
p83
aVBIOGENESIS
p84
aVTARGETS
p85
aVRICE
p86
asS'language'
p87
VEnglish
p88
sS'wosid'
p89
VWOS:000300054300022
p90
sS'citationCount'
p91
I70
sS'authors_init'
p92
(lp93
(VZHAO
VY T
tp94
a(VWANG
VM
tp95
a(VFU
VS X
tp96
a(VYANG
VW C
tp97
a(VQI
VC K
tp98
a(VWANG
VX J
tp99
asS'citedReferences'
p100
(lp101
g1
(g2
g3
NtRp102
(dp103
g61
V10.1242/dev.01206
p104
sg57
VDEVELOPMENT
p105
sg59
V131
p106
sg92
(lp107
(VACHARD
VP
tp108
asg23
I2004
sg55
V3357
p109
sbag1
(g2
g3
NtRp110
(dp111
g61
V10.1016/j.cell.2005.04.004
p112
sg57
VCELL
p113
sg59
V121
p114
sg92
(lp115
(VALLEN
VE
tp116
asg23
I2005
sg55
V207
p117
sbag1
(g2
g3
NtRp118
(dp119
g61
V10.1006/jmbi.1990.9999
p120
sg57
VJ MOL BIOL
p121
sg59
V215
p122
sg92
(lp123
(VALTSCHUL
VS F
tp124
asg23
I1990
sg55
V403
p125
sbag1
(g2
g3
NtRp126
(dp127
g61
V10.1016/j.cub.2005.02.017
p128
sg57
VCURR BIOL
p129
sg59
V15
p130
sg92
(lp131
(VBAKER
VC C
tp132
asg23
I2005
sg55
V303
p133
sbag1
(g2
g3
NtRp134
(dp135
g61
V10.1093/nar/gkq1184
p136
sg57
VNUCLEIC ACIDS RES
p137
sg59
V39
p138
sg92
(lp139
(VBARRETT
VT
tp140
asg23
I2011
sg55
VD1005
p141
sbag1
(g2
g3
NtRp142
(dp143
g61
V10.1016/j.cell.2005.11.035
p144
sg57
VCELL
p145
sg59
V123
p146
sg92
(lp147
(VBORSANI
VO
tp148
asg23
I2005
sg55
V1279
p149
sbag1
(g2
g3
NtRp150
(dp151
g61
V10.1016/j.tig.2006.03.003
p152
sg57
VTRENDS GENET
p153
sg59
V22
p154
sg92
(lp155
(VBRODERSEN
VP
tp156
asg23
I2006
sg55
V268
p157
sbag1
(g2
g3
NtRp158
(dp159
g61
V10.1111/j.1365-313X.2007.03368.x
p160
sg57
VPLANT J
p161
sg59
V53
p162
sg92
(lp163
(VBUHTZ
VA
tp164
asg23
I2008
sg55
VLANT
p165
sbag1
(g2
g3
NtRp166
(dp167
g61
V10.1146/annurev.cellbio.042308.113417
p168
sg57
VANNU REV CELL DEV BI
p169
sg59
V25
p170
sg92
(lp171
(VCHEN
VX M
tp172
asg23
I2009
sg55
V21
p173
sbag1
(g2
g3
NtRp174
(dp175
g61
V10.1016/j.bbrc.2009.08.039
p176
sg57
VBIOCHEM BIOPH RES CO
p177
sg59
V388
p178
sg92
(lp179
(VCHOUDHURI
VS
tp180
asg23
I2009
sg55
V177
p181
sbag1
(g2
g3
NtRp182
(dp183
g61
V10.1016/j.pbi.2008.09.008
p184
sg57
VCURR OPIN PLANT BIOL
p185
sg59
V12
p186
sg92
(lp187
(VCHUCK
VG
tp188
asg23
I2009
sg55
V81
p189
sbag1
(g2
g3
NtRp190
(dp191
g61
V10.1007/BF00021816
p192
sg57
VPLANT MOL BIOL
p193
sg59
V23
p194
sg92
(lp195
(VCUMMINS
VI
tp196
asg23
I1993
sg55
VLANT
p197
sbag1
(g2
g3
NtRp198
(dp199
g61
V10.1038/nrg2916
p200
sg57
VNAT REV GENET
p201
sg59
V12
p202
sg92
(lp203
(VCZECH
VB
tp204
asg23
I2011
sg55
V19
p205
sbag1
(g2
g3
NtRp206
(dp207
g61
V10.1104/pp.122.3.767
p208
sg57
VPLANT PHYSIOL
p209
sg59
V122
p210
sg92
(lp211
(VEASTMOND
VP J
tp212
asg23
I2000
sg55
VLANT
p213
sbag1
(g2
g3
NtRp214
(dp215
g61
V10.1007/s11033-009-9460-3
p216
sg57
VMOL BIOL REP
p217
sg59
V36
p218
sg92
(lp219
(VFU
VS X
tp220
asg23
I2009
sg55
V2375
p221
sbag1
(g2
g3
NtRp222
(dp223
g61
V10.1093/nar/gri081
p224
sg57
VNUCLEIC ACIDS RES
p225
sg59
V33
p226
sg92
(lp227
(VGRIFFITHS-JONES
VS
tp228
asg23
I2005
sg55
VD121
p229
sbag1
(g2
g3
NtRp230
(dp231
g61
V10.1093/nar/gkm952
p232
sg57
VNUCLEIC ACIDS RES
p233
sg59
V36
p234
sg92
(lp235
(VGRIFFITHS-JONES
VS
tp236
asg23
I2008
sg55
VD154
p237
sbag1
(g2
g3
NtRp238
(dp239
g61
V10.1093/nar/gni178
p240
sg57
VNUCLEIC ACIDS RES
p241
sg59
V33
p242
sg92
(lp243
(VCHEN
VC F
tp244
asg23
I2005
sg55
Nsbag1
(g2
g3
NtRp245
(dp246
g61
V10.1016/j.febslet.2008.06.011
p247
sg57
VFEBS LETT
p248
sg59
V582
p249
sg92
(lp250
(VHE
VX F
tp251
asg23
I2008
sg55
V2445
p252
sbag1
(g2
g3
NtRp253
(dp254
g61
V10.1073/pnas.0809408105
p255
sg57
VP NATL ACAD SCI USA
p256
sg59
V105
p257
sg92
(lp258
(VHELD
VM A
tp259
asg23
I2008
sg55
V20534
p260
sbag1
(g2
g3
NtRp261
(dp262
g61
V10.1104/pp.109.147280
p263
sg57
VPLANT PHYSIOL
p264
sg59
V151
p265
sg92
(lp266
(VHSIEH
VL C
tp267
asg23
I2009
sg55
VLANT
p268
sbag1
(g2
g3
NtRp269
(dp270
g61
V10.1111/j.1467-7652.2010.00517.x
p271
sg57
VPLANT BIOTECHNOL J
p272
sg59
V8
sg92
(lp273
(VHUANG
VS Q
tp274
asg23
I2010
sg55
VLANT
p275
sbag1
(g2
g3
NtRp276
(dp277
g61
V10.1146/annurev.arplant.57.032905.105218
p278
sg57
VANNU REV PLANT BIOL
p279
sg59
V57
p280
sg92
(lp281
(VJONES-RHOADES
VM W
tp282
asg23
I2006
sg55
V19
p283
sbag1
(g2
g3
NtRp284
(dp285
g61
V10.1371/journal.pbio.0050057
p286
sg57
VPLOS BIOL
p287
sg59
V5
sg92
(lp288
(VKASSCHAU
VK D
tp289
asg23
I2007
sg55
VLOS
p290
sbag1
(g2
g3
NtRp291
(dp292
g61
V10.1073/pnas.0608258103
p293
sg57
VP NATL ACAD SCI USA
p294
sg59
V103
p295
sg92
(lp296
(VKATIYAR-AGARWAL
VS
tp297
asg23
I2006
sg55
V18002
p298
sbag1
(g2
g3
NtRp299
(dp300
g61
Nsg57
VPLANT CELL
p301
sg59
V21
p302
sg92
(lp303
(VLEDANDAIS-BRIERE
VC
tp304
asg23
I2009
sg55
VLANT
p305
sbag1
(g2
g3
NtRp306
(dp307
g61
V10.1007/s00425-006-0266-4
p308
sg57
VPLANTA
p309
sg59
V224
p310
sg92
(lp311
(VLI
VR J
tp312
asg23
I2006
sg55
VLANTA
p313
sbag1
(g2
g3
NtRp314
(dp315
g61
V10.1104/pp.109.151803
p316
sg57
VPLANT PHYSIOL
p317
sg59
V152
p318
sg92
(lp319
(VLI
VY
tp320
asg23
I2010
sg55
VLANT
p321
sbag1
(g2
g3
NtRp322
(dp323
g61
V10.1104/pp.105.063420
p324
sg57
VPLANT PHYSIOL
p325
sg59
V139
p326
sg92
(lp327
(VLIU
VB
tp328
asg23
I2005
sg55
VLANT
p329
sbag1
(g2
g3
NtRp330
(dp331
g61
V10.1111/j.1365-313X.2007.03218.x
p332
sg57
VPLANT J
p333
sg59
V52
p334
sg92
(lp335
(VLIU
VP P
tp336
asg23
I2007
sg55
VLANT
p337
sbag1
(g2
g3
NtRp338
(dp339
g61
V10.1006/meth.2001.1262
p340
sg57
VMETHODS
p341
sg59
V25
p342
sg92
(lp343
(VLIVAK
VK J
tp344
asg23
I2001
sg55
V402
p345
sbag1
(g2
g3
NtRp346
(dp347
g61
V10.1126/science.1114112
p348
sg57
VSCIENCE
p349
sg59
V309
p350
sg92
(lp351
(VLU
VC
tp352
asg23
I2005
sg55
V1567
p353
sbag1
(g2
g3
NtRp354
(dp355
g61
V10.1073/pnas.0708743105
p356
sg57
VP NATL ACAD SCI USA
p357
sg59
V105
p358
sg92
(lp359
(VLU
VC
tp360
asg23
I2008
sg55
V4951
p361
sbag1
(g2
g3
NtRp362
(dp363
g61
V10.1038/ng1791
p364
sg57
VNAT GENET
p365
sg59
V38
p366
sg92
(lp367
(VMALLORY
VA C
tp368
asg23
I2006
sg55
VS31
p369
sbag1
(g2
g3
NtRp370
(dp371
g61
V10.1016/j.cub.2004.06.022
p372
sg57
VCURR BIOL
p373
sg59
V14
p374
sg92
(lp375
(VMALLORY
VA C
tp376
asg23
I2004
sg55
V1035
p377
sbag1
(g2
g3
NtRp378
(dp379
g61
V10.1105/tpc.105.031716
p380
sg57
VPLANT CELL
p381
sg59
V17
p382
sg92
(lp383
(VMALLORY
VA C
tp384
asg23
I2005
sg55
VLANT
p385
sbag1
(g2
g3
NtRp386
(dp387
g61
V10.1007/978-1-60327-429-6_1
p388
sg57
VV453
p389
sg59
V453
p390
sg92
(lp391
(VMARKHAM
VNICHOLAS R
tp392
asg23
I2008
sg55
V3
sbag1
(g2
g3
NtRp393
(dp394
g61
V10.1105/tpc.108.064311
p395
sg57
VPLANT CELL
p396
sg59
V20
p397
sg92
(lp398
(VMEYERS
VB C
tp399
asg23
I2008
sg55
VLANT
p400
sbag1
(g2
g3
NtRp401
(dp402
g61
V10.1016/j.cell.2008.02.034
p403
sg57
VCELL
p404
sg59
V133
p405
sg92
(lp406
(VMI
VS J
tp407
asg23
I2008
sg55
V116
p408
sbag1
(g2
g3
NtRp409
(dp410
g61
V10.1073/pnas.0810241105
p411
sg57
VP NATL ACAD SCI USA
p412
sg59
V105
p413
sg92
(lp414
(VMONTGOMERY
VT A
tp415
asg23
I2008
sg55
V20055
p416
sbag1
(g2
g3
NtRp417
(dp418
g61
V10.1016/j.cell.2008.02.033
p419
sg57
VCELL
p420
sg59
V133
p421
sg92
(lp422
(VMONTGOMERY
VT A
tp423
asg23
I2008
sg55
V128
p424
sbag1
(g2
g3
NtRp425
(dp426
g61
V10.1073/pnas.0709632105
p427
sg57
VP NATL ACAD SCI USA
p428
sg59
V105
p429
sg92
(lp430
(VMOSHER
VR A
tp431
asg23
I2008
sg55
V3145
p432
sbag1
(g2
g3
NtRp433
(dp434
g61
V10.1101/gr.080127.108
p435
sg57
VGENOME RES
p436
sg59
V18
p437
sg92
(lp438
(VMOXON
VS
tp439
asg23
I2008
sg55
V1602
p440
sbag1
(g2
g3
NtRp441
(dp442
g61
V10.1007/BF00383865
p443
sg57
VPLANTA
p444
sg59
V123
p445
sg92
(lp446
(VNORTON
VG
tp447
asg23
I1975
sg55
VLANTA
p448
sbag1
(g2
g3
NtRp449
(dp450
g61
V10.1111/j.1365-313X.2007.03363.x
p451
sg57
VPLANT J
p452
sg59
V53
p453
sg92
(lp454
(VPANT
VB D
tp455
asg23
I2008
sg55
VLANT
p456
sbag1
(g2
g3
NtRp457
(dp458
g61
V10.1104/pp.109.139139
p459
sg57
VPLANT PHYSIOL
p460
sg59
V150
p461
sg92
(lp462
(VPANT
VB D
tp463
asg23
I2009
sg55
VLANT
p464
sbag1
(g2
g3
NtRp465
(dp466
g61
V[10.1111/j.0960-7412.2010.04208.x, 10.1111/j.1365-313X.2010.04208.x]
p467
sg57
VPLANT J
p468
sg59
V62
p469
sg92
(lp470
(VPANTALEO
VV
tp471
asg23
I2010
sg55
VLANT
p472
sbag1
(g2
g3
NtRp473
(dp474
g61
V10.1073/pnas.0905599106
p475
sg57
VP NATL ACAD SCI USA
p476
sg59
V106
p477
sg92
(lp478
(VPITZSCHKE
VA
tp479
asg23
I2009
sg55
V18414
p480
sbag1
(g2
g3
NtRp481
(dp482
g61
V10.1016/j.gde.2009.06.001
p483
sg57
VCURR OPIN GENET DEV
p484
sg59
V19
p485
sg92
(lp486
(VPOETHIG
VR S
tp487
asg23
I2009
sg55
V374
p488
sbag1
(g2
g3
NtRp489
(dp490
g61
V10.1111/j.1365-313X.2006.02980.x
p491
sg57
VPLANT J
p492
sg59
V49
p493
sg92
(lp494
(VREYES
VJ L
tp495
asg23
I2007
sg55
VLANT
p496
sbag1
(g2
g3
NtRp497
(dp498
g61
V10.1101/gad.1882810
p499
sg57
VGENE DEV
p500
sg59
V24
p501
sg92
(lp502
(VRON
VM
tp503
asg23
I2010
sg55
V1010
p504
sbag1
(g2
g3
NtRp505
(dp506
g61
V10.1016/j.pbi.2009.07.003
p507
sg57
VCURR OPIN PLANT BIOL
p508
sg59
V12
p509
sg92
(lp510
(VRUBIO-SOMOZA
VI
tp511
asg23
I2009
sg55
V622
p512
sbag1
(g2
g3
NtRp513
(dp514
g61
V10.1146/annurev.arplant.043008.092111
p515
sg57
VANNU REV PLANT BIOL
p516
sg59
V60
p517
sg92
(lp518
(VRUIZ-FERRER
VV
tp519
asg23
I2009
sg55
V485
p520
sbag1
(g2
g3
NtRp521
(dp522
g61
V10.1186/1471-2164-9-619
p523
sg57
VBMC GENOMICS
p524
sg59
V9
sg92
(lp525
(VSHARMA
VN
tp526
asg23
I2008
sg55
Nsbag1
(g2
g3
NtRp527
(dp528
g61
V10.1007/BF01733210
p529
sg57
VJ MOL EVOL
p530
sg59
V18
p531
sg92
(lp532
(VSMITH
VT F
tp533
asg23
I1981
sg55
V38
p534
sbag1
(g2
g3
NtRp535
(dp536
g61
V10.1016/j.tplants.2007.05.001
p537
sg57
VTRENDS PLANT SCI
p538
sg59
V12
p539
sg92
(lp540
(VSUNKAR
VR
tp541
asg23
I2007
sg55
V301
p542
sbag1
(g2
g3
NtRp543
(dp544
g61
V10.1186/1471-2229-8-25
p545
sg57
VBMC PLANT BIOL
p546
sg59
V8
sg92
(lp547
(VSUNKAR
VR
tp548
asg23
I2008
sg55
Nsbag1
(g2
g3
NtRp549
(dp550
g61
V10.1186/1746-4811-3-12
p551
sg57
VPLANT METHODS
p552
sg59
V3
sg92
(lp553
(VVARKONYI-GASIC
VE
tp554
asg23
I2007
sg55
VLANT
p555
sbag1
(g2
g3
NtRp556
(dp557
g61
V10.1016/j.molcel.2004.09.028
p558
sg57
VMOL CELL
p559
sg59
V16
p560
sg92
(lp561
(VVAZQUEZ
VF
tp562
asg23
I2004
sg55
V69
p563
sbag1
(g2
g3
NtRp564
(dp565
g61
V10.1016/j.cell.2009.01.046
p566
sg57
VCELL
p567
sg59
V136
p568
sg92
(lp569
(VVOINNET
VO
tp570
asg23
I2009
sg55
V669
p571
sbag1
(g2
g3
NtRp572
(dp573
g61
V10.1105/tpc.105.033076
p574
sg57
VPLANT CELL
p575
sg59
V17
p576
sg92
(lp577
(VWANG
VJ W
tp578
asg23
I2005
sg55
VLANT
p579
sbag1
(g2
g3
NtRp580
(dp581
g61
V10.1016/j.febslet.2007.07.010
p582
sg57
VFEBS LETT
p583
sg59
V581
p584
sg92
(lp585
(VWANG
VL
tp586
asg23
I2007
sg55
V3848
p587
sbag1
(g2
g3
NtRp588
(dp589
g61
V10.1021/jf102635f
p590
sg57
VJ AGR FOOD CHEM
p591
sg59
V58
p592
sg92
(lp593
(VWEI
VS
tp594
asg23
I2010
sg55
V9572
p595
sbag1
(g2
g3
NtRp596
(dp597
g61
V10.1016/j.ejcb.2009.11.004
p598
sg57
VEUR J CELL BIOL
p599
sg59
V89
p600
sg92
(lp601
(VWOLLMANN
VH
tp602
asg23
I2010
sg55
V250
p603
sbag1
(g2
g3
NtRp604
(dp605
g61
V10.1016/j.febslet.2007.02.074
p606
sg57
VFEBS LETT
p607
sg59
V581
p608
sg92
(lp609
(VXIE
VF L
tp610
asg23
I2007
sg55
V1464
p611
sbag1
(g2
g3
NtRp612
(dp613
g61
V10.1371/journal.pbio.0020104
p614
sg57
VPLOS BIOL
p615
sg59
V2
sg92
(lp616
(VXIE
VZ X
tp617
asg23
I2004
sg55
VLOS
p618
sbag1
(g2
g3
NtRp619
(dp620
g61
V10.1101/gad.1352605
p621
sg57
VGENE DEV
p622
sg59
V19
p623
sg92
(lp624
(VYOSHIKAWA
VM
tp625
asg23
I2005
sg55
V2164
p626
sbag1
(g2
g3
NtRp627
(dp628
g61
V10.1073/pnas.0611456104
p629
sg57
VP NATL ACAD SCI USA
p630
sg59
V104
p631
sg92
(lp632
(VZHANG
VX Y
tp633
asg23
I2007
sg55
V4536
p634
sbag1
(g2
g3
NtRp635
(dp636
g61
V10.1101/gr.084806.108
p637
sg57
VGENOME RES
p638
sg59
V19
p639
sg92
(lp640
(VZHOU
VX F
tp641
asg23
I2009
sg55
V70
p642
sbag1
(g2
g3
NtRp643
(dp644
g61
V10.1101/gr.075572.107
p645
sg57
VGENOME RES
p646
sg59
V18
p647
sg92
(lp648
(VZHU
VQ H
tp649
asg23
I2008
sg55
V1456
p650
sbasb.