ccopy_reg
_reconstructor
p1
(ctethne.classes.paper
Paper
p2
c__builtin__
object
p3
NtRp4
(dp5
S'publisherCity'
p6
VROCKVILLE
p7
sS'reprintAddress'
p8
VSomerville, CR (reprint author), Carnegie Inst Washington, 290 Panama St, Stanford, CA 94305 USA.
p9
sS'WC'
p10
VPlant Sciences
p11
sS'GA'
p12
V412FP
p13
sS'pageEnd'
p14
I24
sS'publisherAddress'
p15
V15501 MONONA DRIVE, ROCKVILLE, MD 20855 USA
p16
sS'documentType'
p17
VEditorial Material
p18
sS'subject'
p19
VPlant Sciences
p20
sS'isoSource'
p21
VPlant Physiol.
p22
sS'timesCited'
p23
(lp24
I59
aVZ9 67
p25
asS'PT'
p26
VJ
sS'title'
p27
VAn Early Arabidopsis Demonstration. Resolving A Few Issues Concerning Photorespiration
p28
sS'ISSN'
p29
(lp30
V0032-0889
p31
aVJ9 PLANT PHYSIOL
p32
asS'authors_full'
p33
(lp34
(VSOMERVILLE
VCR
tp35
asS'PG'
p36
I5
sS'PD'
p37
VJAN
p38
sS'pageStart'
p39
I20
sS'issue'
p40
I1
sS'RI'
p41
VSomerville, Christopher/A-4048-2009
p42
sS'journal'
p43
VPLANT PHYSIOLOGY
p44
sS'volume'
p45
V125
p46
sS'doi'
p47
V10.1104/pp.125.1.20
p48
sS'authorAddress'
p49
(lp50
VCarnegie Inst Washington, Stanford, CA 94305 USA.
p51
aVStanford Univ, Dept Biol Sci, Stanford, CA 94305 USA.
p52
asS'date'
p53
I2001
sS'ER'
p54
V
sS'publisher'
p55
VAMER SOC PLANT PHYSIOLOGISTS
p56
sS'authorKeywords'
p57
(lp58
VRIBULOSE DIPHOSPHATE CARBOXYLASE
p59
aVMUTANT
p60
aVACTIVATION
p61
aVCARBAMATE
p62
aVTHALIANA
p63
asS'language'
p64
VEnglish
p65
sS'wosid'
p66
VWOS:000167544600005
p67
sS'citationCount'
p68
I23
sS'authors_init'
p69
(lp70
(VSOMERVILLE
VC R
tp71
asS'citedReferences'
p72
(lp73
g1
(g2
g3
NtRp74
(dp75
g47
V10.1016/0006-291X(71)90475-X
p76
sg43
VBIOCHEM BIOPH RES CO
p77
sg45
V45
p78
sg69
(lp79
(VBOWES
VG
tp80
asg53
I1971
sg39
V716
p81
sbag1
(g2
g3
NtRp82
(dp83
g47
Nsg43
VCO2 METABOLISM PLANT
p84
sg45
Nsg69
(lp85
(VCANVIN
VD T
tp86
asg53
I1976
sg39
V161
p87
sbag1
(g2
g3
NtRp88
(dp89
g47
V10.1016/0092-8674(77)90043-5
p90
sg43
VCELL
p91
sg45
V11
p92
sg69
(lp93
(VCHILTON
VM D
tp94
asg53
I1977
sg39
V263
p95
sbag1
(g2
g3
NtRp96
(dp97
g47
V10.1007/BF02860828
p98
sg43
VBOT REV
p99
sg45
V41
p100
sg69
(lp101
(VCHOLLET
VR
tp102
asg53
I1975
sg39
V137
p103
sbag1
(g2
g3
NtRp104
(dp105
g47
V10.1021/cr970010r
p106
sg43
VCHEM REV
p107
sg45
V98
p108
sg69
(lp109
(VCLELAND
VW W
tp110
asg53
I1998
sg39
V549
p111
sbag1
(g2
g3
NtRp112
(dp113
g47
V10.1104/pp.30.1.82
p114
sg43
VPLANT PHYSIOL
p115
sg45
V30
p116
sg69
(lp117
(VDECKER
VJ P
tp118
asg53
I1955
sg39
VLANT
p119
sbag1
(g2
g3
NtRp120
(dp121
g47
V10.1104/pp.41.3.422
p122
sg43
VPLANT PHYSIOL
p123
sg45
V41
p124
sg69
(lp125
(VFORRESTEML
S''
tp126
asg53
I1966
sg39
VLANT
p127
sbag1
(g2
g3
NtRp128
(dp129
g47
V10.1007/BF00409139
p130
sg43
VPLANTA
p131
sg45
V159
p132
sg69
(lp133
(VKENDALL
VA C
tp134
asg53
I1983
sg39
VLANTA
p135
sbag1
(g2
g3
NtRp136
(dp137
g47
Nsg43
VNature 
p138
sg45
V275
p139
sg69
(lp140
(VLEA
VP J
tp141
asg53
I1978
sg39
V741
p142
sbag1
(g2
g3
NtRp143
(dp144
g47
Nsg43
VJ EXP BOT
p145
sg45
V46
p146
sg69
(lp147
(VLEEGOOD
VR C
tp148
asg53
I1995
sg39
V1397
p149
sbag1
(g2
g3
NtRp150
(dp151
g47
V10.1038/243359a0
p152
sg43
VNATURE
p153
sg45
V243
p154
sg69
(lp155
(VLORIMER
VG H
tp156
asg53
I1973
sg39
V359
p157
sbag1
(g2
g3
NtRp158
(dp159
g47
V10.1016/0968-0004(83)90393-6
p160
sg43
VTRENDS BIOCHEM SCI
p161
sg45
V8
sg69
(lp162
(VLORIMER
VG H
tp163
asg53
I1983
sg39
V65
p164
sbag1
(g2
g3
NtRp165
(dp166
g47
V10.1146/annurev.pp.35.060184.002215
p167
sg43
VANNU REV PLANT PHYS
p168
sg45
V35
p169
sg69
(lp170
(VOGREN
VW L
tp171
asg53
I1984
sg39
V415
p172
sbag1
(g2
g3
NtRp173
(dp174
g47
Nsg43
VNATURE
p175
sg45
V230
p176
sg69
(lp177
(VOGREN
VW L
tp178
asg53
I1971
sg39
V159
p179
sbag1
(g2
g3
NtRp180
(dp181
g47
V10.1146/annurev.ge.09.120175.000551
p182
sg43
VANNU REV GENET
p183
sg45
V9
sg69
(lp184
(VREDEI
VG P
tp185
asg53
I1975
sg39
V111
p186
sbag1
(g2
g3
NtRp187
(dp188
g47
V10.1104/pp.80.3.655
p189
sg43
VPLANT PHYSIOL
p190
sg45
V80
p191
sg69
(lp192
(VSALVUCCI
VM E
tp193
asg53
I1986
sg39
VLANT
p194
sbag1
(g2
g3
NtRp195
(dp196
g47
V10.1016/S0092-8674(00)81680-3
p197
sg43
VCELL
p198
sg45
V100
p199
sg69
(lp200
(VSOMERVILLE
VC
tp201
asg53
I2000
sg39
V13
p202
sbag1
(g2
g3
NtRp203
(dp204
g47
V10.1104/pp.70.2.381
p205
sg43
VPLANT PHYSIOL
p206
sg45
V70
p207
sg69
(lp208
(VSOMERVILLE
VC R
tp209
asg53
I1982
sg39
VLANT
p210
sbag1
(g2
g3
NtRp211
(dp212
g47
Nsg43
VOXFORD SURVEYS PLANT
p213
sg45
V1
sg69
(lp214
(VSOMERVILLE
VC R
tp215
asg53
I1984
sg39
V102
p216
sbag1
(g2
g3
NtRp217
(dp218
g47
V10.1073/pnas.80.5.1290
p219
sg43
VP NATL ACAD SCI
p220
sg45
V80
p221
sg69
(lp222
(VSOMERVILLE
VS C
tp223
asg53
I1983
sg39
V1290
p224
sbag1
(g2
g3
NtRp225
(dp226
g47
V10.1146/annurev.pp.22.060171.000401
p227
sg43
VANN REV PLANT PHYSIO
p228
sg45
V22
p229
sg69
(lp230
(VTOLBERT
VN E
tp231
asg53
I1971
sg39
V45
p232
sbag1
(g2
g3
NtRp233
(dp234
g47
V10.1146/annurev.pp.15.060164.001005
p235
sg43
VANN REV PLANT PHYSIO
p236
sg45
V15
p237
sg69
(lp238
(VZELITCH
VI
tp239
asg53
I1964
sg39
V121
p240
sbag1
(g2
g3
NtRp241
(dp242
g47
V10.1146/annurev.bi.44.070175.001011
p243
sg43
VANNU REV BIOCHEM
p244
sg45
V44
p245
sg69
(lp246
(VZELITCH
VI
tp247
asg53
I1975
sg39
V123
p248
sbasb.