ccopy_reg
_reconstructor
p1
(ctethne.classes.paper
Paper
p2
c__builtin__
object
p3
NtRp4
(dp5
S'publisherCity'
p6
VROCKVILLE
p7
sS'reprintAddress'
p8
VKim, SY (reprint author), Chonnam Natl Univ, Dept Mol Biotechnol, Kwangju 500757, South Korea.
p9
sS'WC'
p10
VPlant Sciences
p11
sS'GA'
p12
V605IC
p13
sS'FX'
p14
(lp15
VThis work was supported by the Crop Functional Genomics Center of the
p16
aV21C Frontier Program (grant no. CG2112 to S.Y.K.) funded by the Ministry
p17
aVof Education, Science, and Technology and by the Agricultural Plant
p18
aVStress Research Center of Chonnam National University (grant no.
p19
aVR11-2001-092-04000-0 to S.Y.K.) funded by the Korea Science and
p20
aVEngineering Foundation.
p21
asS'abstract'
p22
VABF2 is a basic leucine zipper protein that regulates abscisic acid (ABA)-dependent stress-responsive gene expression. We carried out yeast two-hybrid screens to isolate genes encoding ABF2-interacting proteins in Arabidopsis (Arabidopsis thaliana). Analysis of the resulting positive clones revealed that two of them encode an AP2 domain protein, which is the same as AtERF48/DREB2C. This protein, which will be referred to as DREB2C, could bind C-repeat/dehydration response element in vitro and possesses transcriptional activity. To determine its function, we generated DREB2C overexpression lines and investigated their phenotypes. The transgenic plants were ABA hypersensitive during germination and seedling establishment stages, whereas primary root elongation of seedlings was ABA insensitive, suggesting developmental stage dependence of DREB2C function. The DREB2C overexpression lines also displayed altered stress response; whereas the plants were dehydration sensitive, they were freezing and heat tolerant. We further show that other AP2 domain proteins, DREB1A and DREB2A, interact with ABF2 and that other ABF family members, ABF3 and ABF4, interact with DREB2C. Previously, others demonstrated that ABF and DREB family members cooperate to activate the transcription of an ABA-responsive gene. Our result implies that the cooperation of the two classes of transcription factors may involve physical interaction.
p23
sS'pageEnd'
p24
I727
sS'date'
p25
I2010
sS'documentType'
p26
VArticle
p27
sS'subject'
p28
VPlant Sciences
p29
sS'isoSource'
p30
VPlant Physiol.
p31
sS'timesCited'
p32
(lp33
I33
aVZ9 39
p34
asS'funding'
p35
(lp36
(VMinistry of Education, Science, and Technology
VCG2112
tp37
a(VKorea Science and Engineering Foundation
VR11-2001-092-04000-0
tp38
asS'PT'
p39
VJ
sS'title'
p40
VDreb2C Interacts With Abf2, A Bzip Protein Regulating Abscisic Acid-Responsive Gene Expression, And Its Overexpression Affects Abscisic Acid Sensitivity
p41
sS'ISSN'
p42
(lp43
V0032-0889
p44
aVJ9 PLANT PHYSIOL
p45
asS'authors_full'
p46
(lp47
(VLEE
VSUNJI
tp48
a(VKANG
VJUNGYOUN
tp49
a(VPARK
VHEEJIN
tp50
a(VKIM
VMYOUNG DUCK
tp51
a(VBAE
VMIN SEOK
tp52
a(VCHOI
VHYUNGIN
tp53
a(VKIM
VSOO YOUNG
tp54
asS'PG'
p55
I12
sS'PD'
p56
VJUN
p57
sS'pageStart'
p58
I716
sS'issue'
p59
I2
sS'journal'
p60
VPLANT PHYSIOLOGY
p61
sS'volume'
p62
V153
p63
sS'doi'
p64
V10.1104/pp.110.154617
p65
sS'emailAddress'
p66
Vsooykim@chonnam.ac.kr
p67
sS'authorAddress'
p68
(lp69
V[Kim, Soo Young] Chonnam Natl Univ, Dept Mol Biotechnol, Kwangju 500757, South Korea.
p70
aVChonnam Natl Univ, Kumho Life Sci Lab, Coll Agr & Life Sci, Kwangju 500757, South Korea.
p71
asS'publisherAddress'
p72
V15501 MONONA DRIVE, ROCKVILLE, MD 20855 USA
p73
sS'ER'
p74
V
sS'publisher'
p75
VAMER SOC PLANT BIOLOGISTS
p76
sS'authorKeywords'
p77
(lp78
VARABIDOPSIS TRANSCRIPTION FACTOR
p79
aVMULTIPLE STRESS TOLERANCE
p80
aVLEUCINE-ZIPPER PROTEINS
p81
aVGENOME-WIDE ANALYSIS
p82
aVCIS-ACTING ELEMENTS
p83
aVABA-RESPONSE
p84
aVLOW-TEMPERATURE
p85
aVHIGH-SALINITY
p86
aVDNA-BINDING
p87
aVSPECIFICATION ELEMENTS
p88
asS'language'
p89
VEnglish
p90
sS'wosid'
p91
VWOS:000278340200034
p92
sS'citationCount'
p93
I59
sS'authors_init'
p94
(lp95
(VLEE
VS J
tp96
a(VKANG
VJ Y
tp97
a(VPARK
VH J
tp98
a(VKIM
VM D
tp99
a(VBAE
VM S
tp100
a(VCHOI
VH I
tp101
a(VKIM
VS Y
tp102
asS'citedReferences'
p103
(lp104
g1
(g2
g3
NtRp105
(dp106
g64
V10.1007/BF00029852
p107
sg60
VPLANT MOL BIOL
p108
sg62
V24
p109
sg94
(lp110
(VBAKER
VS S
tp111
asg25
I1994
sg58
VLANT
p112
sbag1
(g2
g3
NtRp113
(dp114
g64
Nsg60
VMETH MOL B
p115
sg62
V82
p116
sg94
(lp117
(VBECHTOLD
VN
tp118
asg25
I1998
sg58
V259
p119
sbag1
(g2
g3
NtRp120
(dp121
g64
V10.1105/tpc.7.7.1099
p122
sg60
VPLANT CELL
p123
sg62
V7
sg94
(lp124
(VBOHNERT
VH J
tp125
asg25
I1995
sg58
VLANT
p126
sbag1
(g2
g3
NtRp127
(dp128
g64
V10.1023/A:1006058700720
p129
sg60
VPLANT MOL BIOL
p130
sg62
V37
p131
sg94
(lp132
(VBUSK
VP K
tp133
asg25
I1998
sg58
VLANT
p134
sbag1
(g2
g3
NtRp135
(dp136
g64
V10.1007/s11103-006-9079-x
p137
sg60
VPLANT MOL BIOL
p138
sg62
V63
p139
sg94
(lp140
(VCHAE
VM J
tp141
asg25
I2007
sg58
VLANT
p142
sbag1
(g2
g3
NtRp143
(dp144
g64
V10.1101/gad.1077503
p145
sg60
VGENE DEV
p146
sg62
V17
p147
sg94
(lp148
(VCHINNUSAMY
VV
tp149
asg25
I2003
sg58
V1043
p150
sbag1
(g2
g3
NtRp151
(dp152
g64
Nsg60
VJ BIOL CHEM
p153
sg62
V21
p154
sg94
(lp155
(VCHOI
VH
tp156
asg25
I2000
sg58
V1723
p157
sbag1
(g2
g3
NtRp158
(dp159
g64
V10.1104/pp.105.069757
p160
sg60
VPLANT PHYSIOL
p161
sg62
V139
p162
sg94
(lp163
(VCHOI
VH I
tp164
asg25
I2005
sg58
VLANT
p165
sbag1
(g2
g3
NtRp166
(dp167
g64
V10.1007/s11103-005-8767-2
p168
sg60
VPLANT MOL BIOL
p169
sg62
V59
p170
sg94
(lp171
(VFINKELSTEIN
VR
tp172
asg25
I2005
sg58
VLANT
p173
sbag1
(g2
g3
NtRp174
(dp175
g64
Nsg60
VPLANT CELL
p176
sg62
V14
p177
sg94
(lp178
(VFINKELSTEIN
VR R
tp179
asg25
I2002
sg58
VLANT
p180
sbag1
(g2
g3
NtRp181
(dp182
g64
V10.1105/tpc.12.4.599
p183
sg60
VPLANT CELL
p184
sg62
V10
p185
sg94
(lp186
(VFINKELSTEIN
VR R
tp187
asg25
I1998
sg58
VLANT
p188
sbag1
(g2
g3
NtRp189
(dp190
g64
V10.1105/tpc.12.4.599
p191
sg60
VPLANT CELL
p192
sg62
V12
p193
sg94
(lp194
(VFINKELSTEIN
VR R
tp195
asg25
I2000
sg58
VLANT
p196
sbag1
(g2
g3
NtRp197
(dp198
g64
V10.1105/tpc.105.035659
p199
sg60
VPLANT CELL
p200
sg62
V17
p201
sg94
(lp202
(VFUJITA
VY
tp203
asg25
I2005
sg58
VLANT
p204
sbag1
(g2
g3
NtRp205
(dp206
g64
V10.1073/pnas.0505667103
p207
sg60
VP NATL ACAD SCI USA
p208
sg62
V103
p209
sg94
(lp210
(VFURIHATA
VT
tp211
asg25
I2006
sg58
V1988
p212
sbag1
(g2
g3
NtRp213
(dp214
g64
V10.1104/pp.124.4.1854
p215
sg60
VPLANT PHYSIOL
p216
sg62
V124
p217
sg94
(lp218
(VGILMOUR
VS J
tp219
asg25
I2000
sg58
VLANT
p220
sbag1
(g2
g3
NtRp221
(dp222
g64
V10.1186/1471-2164-8-260
p223
sg60
VBMC GENOMICS
p224
sg62
V8
sg94
(lp225
(VGOMEZ-PORRAS
VJ L
tp226
asg25
I2007
sg58
Nsbag1
(g2
g3
NtRp227
(dp228
g64
V10.1104/pp.006478
p229
sg60
VPLANT PHYSIOL
p230
sg62
V130
p231
sg94
(lp232
(VHAAKE
VV
tp233
asg25
I2002
sg58
VLANT
p234
sbag1
(g2
g3
NtRp235
(dp236
g64
V10.1093/pcp/pcf014
p237
sg60
VPLANT CELL PHYSIOL
p238
sg62
V43
p239
sg94
(lp240
(VHATTORI
VT
tp241
asg25
I2002
sg58
VLANT
p242
sbag1
(g2
g3
NtRp243
(dp244
g64
V10.1046/j.1365-313x.1999.00565.x
p245
sg60
VPLANT J
p246
sg62
V19
p247
sg94
(lp248
(VHOBO
VT
tp249
asg25
I1999
sg58
VLANT
p250
sbag1
(g2
g3
NtRp251
(dp252
g64
V10.1073/pnas.96.26.15348
p253
sg60
VP NATL ACAD SCI USA
p254
sg62
V96
p255
sg94
(lp256
(VHOBO
VT
tp257
asg25
I1999
sg58
V15348
p258
sbag1
(g2
g3
NtRp259
(dp260
g64
V10.1126/science.280.5360.104
p261
sg60
VSCIENCE
p262
sg62
V280
p263
sg94
(lp264
(VJAGLO-OTTOSEN
VK R
tp265
asg25
I1998
sg58
V104
p266
sbag1
(g2
g3
NtRp267
(dp268
g64
Nsg60
VEMBO J
p269
sg62
V6
sg94
(lp270
(VJEFFERSON
VR A
tp271
asg25
I1987
sg58
V3901
p272
sbag1
(g2
g3
NtRp273
(dp274
g64
V10.1105/tpc.010362
p275
sg60
VPLANT CELL
p276
sg62
V14
p277
sg94
(lp278
(VKANG
VJ Y
tp279
asg25
I2002
sg58
VLANT
p280
sbag1
(g2
g3
NtRp281
(dp282
g64
V10.1111/j.1467-7652.2004.00090.x
p283
sg60
VPLANT BIOTECHNOL J
p284
sg62
V2
sg94
(lp285
(VKIM
VJ B
tp286
asg25
I2004
sg58
VLANT
p287
sbag1
(g2
g3
NtRp288
(dp289
g64
V10.1104/pp.104.049189
p290
sg60
VPLANT PHYSIOL
p291
sg62
V136
p292
sg94
(lp293
(VKIM
VS
tp294
asg25
I2004
sg58
VLANT
p295
sbag1
(g2
g3
NtRp296
(dp297
g64
V10.1111/j.1365-313X.2004.02192.x
p298
sg60
VPLANT J
p299
sg62
V40
p300
sg94
(lp301
(VKIM
VS
tp302
asg25
I2004
sg58
VLANT
p303
sbag1
(g2
g3
NtRp304
(dp305
g64
V10.1111/j.1399-3054.2005.00601.x
p306
sg60
VPHYSIOL PLANTARUM
p307
sg62
V126
p308
sg94
(lp309
(VKIM
VS Y
tp310
asg25
I2006
sg58
VHYSIOL
p311
sbag1
(g2
g3
NtRp312
(dp313
g64
V10.1046/j.1365-313X.1997.11061237.x
p314
sg60
VPLANT J
p315
sg62
V11
p316
sg94
(lp317
(VKIM
VS Y
tp318
asg25
I1997
sg58
VLANT
p319
sbag1
(g2
g3
NtRp320
(dp321
g64
V10.1104/pp.003566
p322
sg60
VPLANT PHYSIOL
p323
sg62
V130
p324
sg94
(lp325
(VKIM
VS Y
tp326
asg25
I2002
sg58
VLANT
p327
sbag1
(g2
g3
NtRp328
(dp329
g64
Nsg60
VJ PLANT PHYSIOL
p330
sg62
V152
p331
sg94
(lp332
(VKIM
VS Y
tp333
asg25
I1998
sg58
V607
p334
sbag1
(g2
g3
NtRp335
(dp336
g64
V10.1046/j.1365-313X.2002.01325.x
p337
sg60
VPLANT J
p338
sg62
V30
p339
sg94
(lp340
(VKIZIS
VD
tp341
asg25
I2002
sg58
VLANT
p342
sbag1
(g2
g3
NtRp343
(dp344
g64
V10.1104/pp.104.043562
p345
sg60
VPLANT PHYSIOL
p346
sg62
V135
p347
sg94
(lp348
(VKNIGHT
VH
tp349
asg25
I2004
sg58
VLANT
p350
sbag1
(g2
g3
NtRp351
(dp352
g64
V10.1104/pp.008532
p353
sg60
VPLANT PHYSIOL
p354
sg62
V130
p355
sg94
(lp356
(VKREPS
VJ A
tp357
asg25
I2002
sg58
VLANT
p358
sbag1
(g2
g3
NtRp359
(dp360
g64
V10.1007/s10059-009-0154-4
p361
sg60
VMOL CELLS
p362
sg62
V28
p363
sg94
(lp364
(VLEE
VK
tp365
asg25
I2009
sg58
V383
p366
sbag1
(g2
g3
NtRp367
(dp368
g64
V10.1016/j.bbrc.2007.08.007
p369
sg60
VBIOCHEM BIOPH RES CO
p370
sg62
V362
p371
sg94
(lp372
(VLIM
VC J
tp373
asg25
I2007
sg58
V431
p374
sbag1
(g2
g3
NtRp375
(dp376
g64
V10.2307/3870648
p377
sg60
VPLANT CELL
p378
sg62
V10
p379
sg94
(lp380
(VLIU
VQ
tp381
asg25
I1998
sg58
VLANT
p382
sbag1
(g2
g3
NtRp383
(dp384
g64
Nsg60
VPLANT CELL PHYSIOL
p385
sg62
V41
p386
sg94
(lp387
(VLOPEZ-MOLINA
VL
tp388
asg25
I2000
sg58
VLANT
p389
sbag1
(g2
g3
NtRp390
(dp391
g64
V10.1016/S0968-0004(00)89118-5
p392
sg60
VTRENDS BIOCHEM SCI
p393
sg62
V20
p394
sg94
(lp395
(VMENKENS
VA E
tp396
asg25
I1995
sg58
V506
p397
sbag1
(g2
g3
NtRp398
(dp399
g64
V10.1104/pp.105.073783
p400
sg60
VPLANT PHYSIOL
p401
sg62
V140
p402
sg94
(lp403
(VNAKANO
VT
tp404
asg25
I2006
sg58
VLANT
p405
sbag1
(g2
g3
NtRp406
(dp407
g64
V10.1046/j.1365-313X.2003.01708.x
p408
sg60
VPLANT J
p409
sg62
V34
p410
sg94
(lp411
(VNARUSAKA
VY
tp412
asg25
I2003
sg58
VLANT
p413
sbag1
(g2
g3
NtRp414
(dp415
g64
V10.1104/pp.105.066324
p416
sg60
VPLANT PHYSIOL
p417
sg62
V139
p418
sg94
(lp419
(VPANDEY
VG K
tp420
asg25
I2005
sg58
VLANT
p421
sbag1
(g2
g3
NtRp422
(dp423
g64
V10.1046/j.0016-8025.2001.00764.x
p424
sg60
VPLANT CELL ENVIRON
p425
sg62
V25
p426
sg94
(lp427
(VRAMANJULU
VS
tp428
asg25
I2002
sg58
VLANT
p429
sbag1
(g2
g3
NtRp430
(dp431
g64
V10.1073/pnas.0605639103
p432
sg60
VP NATL ACAD SCI USA
p433
sg62
V103
p434
sg94
(lp435
(VSAKUMA
VY
tp436
asg25
I2006
sg58
V18822
p437
sbag1
(g2
g3
NtRp438
(dp439
g64
V10.1105/tpc.105.035881
p440
sg60
VPLANT CELL
p441
sg62
V18
p442
sg94
(lp443
(VSAKUMA
VY
tp444
asg25
I2006
sg58
VLANT
p445
sbag1
(g2
g3
NtRp446
(dp447
g64
V10.1006/bbrc.2001.6299
p448
sg60
VBIOCHEM BIOPH RES CO
p449
sg62
V290
p450
sg94
(lp451
(VSAKUMA
VY
tp452
asg25
I2002
sg58
V998
p453
sbag1
(g2
g3
NtRp454
(dp455
g64
Nsg60
VMOL CLONING LAB MANU
p456
sg62
Nsg94
(lp457
(VSAMBROOK
VJ
tp458
asg25
I2001
sg58
Nsbag1
(g2
g3
NtRp459
(dp460
g64
V10.1105/tpc.7.3.295
p461
sg60
VPLANT CELL
p462
sg62
V7
sg94
(lp463
(VSHEN
VQ X
tp464
asg25
I1995
sg58
VLANT
p465
sbag1
(g2
g3
NtRp466
(dp467
g64
V10.1105/tpc.8.7.1107
p468
sg60
VPLANT CELL
p469
sg62
V8
sg94
(lp470
(VSHEN
VQ X
tp471
asg25
I1996
sg58
VLANT
p472
sbag1
(g2
g3
NtRp473
(dp474
g64
V10.1023/B:PLAN.0000028773.94595.e8
p475
sg60
VPLANT MOL BIOL
p476
sg62
V54
p477
sg94
(lp478
(VSHEN
VQ X J
tp479
asg25
I2004
sg58
VLANT
p480
sbag1
(g2
g3
NtRp481
(dp482
g64
V10.1105/tpc.105.033043
p483
sg60
VPLANT CELL
p484
sg62
V17
p485
sg94
(lp486
(VSONG
VC P
tp487
asg25
I2005
sg58
VLANT
p488
sbag1
(g2
g3
NtRp489
(dp490
g64
V10.1073/pnas.94.3.1035
p491
sg60
VP NATL ACAD SCI USA
p492
sg62
V94
p493
sg94
(lp494
(VSTOCKINGER
VE J
tp495
asg25
I1997
sg58
V1035
p496
sbag1
(g2
g3
NtRp497
(dp498
g64
V10.1007/s11103-004-2200-0
p499
sg60
VPLANT MOL BIOL
p500
sg62
V56
p501
sg94
(lp502
(VTAKAHASHI
VS
tp503
asg25
I2004
sg58
VLANT
p504
sbag1
(g2
g3
NtRp505
(dp506
g64
V10.1073/pnas.190309197
p507
sg60
VP NATL ACAD SCI USA
p508
sg62
V97
p509
sg94
(lp510
(VUNO
VY
tp511
asg25
I2000
sg58
V11632
p512
sbag1
(g2
g3
NtRp513
(dp514
g64
V10.1046/j.1365-313X.2003.01676.x
p515
sg60
VPLANT J
p516
sg62
V33
p517
sg94
(lp518
(VVOINNET
VO
tp519
asg25
I2003
sg58
VLANT
p520
sbag1
(g2
g3
NtRp521
(dp522
g64
V10.1007/s11103-004-0501-y
p523
sg60
VPLANT MOL BIOL
p524
sg62
V55
p525
sg94
(lp526
(VWITTE
VC P
tp527
asg25
I2004
sg58
VLANT
p528
sbag1
(g2
g3
NtRp529
(dp530
g64
Nsg60
VPLANT CELL S
p531
sg62
V14
p532
sg94
(lp533
(VXIONG
VL
tp534
asg25
I2002
sg58
VLANT
p535
sbag1
(g2
g3
NtRp536
(dp537
g64
V10.1111/j.1365-313X.2004.01963.x
p538
sg60
VPLANT J
p539
sg62
V37
p540
sg94
(lp541
(VXUE
VG P
tp542
asg25
I2004
sg58
VLANT
p543
sbag1
(g2
g3
NtRp544
(dp545
g64
V10.1105/tpc.6.2.251
p546
sg60
VPLANT CELL
p547
sg62
V6
sg94
(lp548
(VYAMAGUCHISHINOZAKI
VK
tp549
asg25
I1994
sg58
VLANT
p550
sbag1
(g2
g3
NtRp551
(dp552
g64
V10.1016/j.tplanys.2004.12.012
p553
sg60
VTRENDS PLANT SCI
p554
sg62
V10
p555
sg94
(lp556
(VYAMAGUCHI-SHINOZAKI
VK
tp557
asg25
I2005
sg58
V88
p558
sbasb.