ccopy_reg
_reconstructor
p1
(ctethne.classes.paper
Paper
p2
c__builtin__
object
p3
NtRp4
(dp5
S'publisherCity'
p6
VROCKVILLE
p7
sS'reprintAddress'
p8
VSheen, J (reprint author), Harvard Univ, Massachusetts Gen Hosp, Sch Med, Dept Genet,Dept Mol Biol, Wellman 11,50 Blossom St, Boston, MA 02114 USA.
p9
sS'WC'
p10
VPlant Sciences
p11
sS'GA'
p12
V503WK
p13
sS'abstract'
p14
VPlant protoplasts show physiological perceptions and responses to hormones, metabolites, environmental cues, and pathogen-derived elicitors, similar to cell-autonomous responses in intact tissues and plants. The development of defined protoplast transient expression systems for high-throughput screening and systematic characterization of gene functions has greatly contributed to elucidating plant signal transduction pathways, in combination with genetic, genomic, and transgenic approaches.
p15
sS'pageEnd'
p16
I1475
sS'publisherAddress'
p17
V15501 MONONA DRIVE, ROCKVILLE, MD 20855 USA
p18
sS'documentType'
p19
VReview
p20
sS'subject'
p21
VPlant Sciences
p22
sS'isoSource'
p23
VPlant Physiol.
p24
sS'timesCited'
p25
(lp26
I222
aVZ9 242
p27
asS'PT'
p28
VJ
sS'title'
p29
VSignal Transduction In Maize And Arabidopsis Mesophyll Protoplasts
p30
sS'ISSN'
p31
(lp32
V0032-0889
p33
aVJ9 PLANT PHYSIOL
p34
asS'authors_full'
p35
(lp36
(VSHEEN
VJ
tp37
asS'PG'
p38
I10
sS'PD'
p39
VDEC
p40
sS'pageStart'
p41
I1466
sS'issue'
p42
I4
sS'journal'
p43
VPLANT PHYSIOLOGY
p44
sS'volume'
p45
V127
p46
sS'doi'
p47
V10.1104/pp.010820
p48
sS'authorAddress'
p49
VHarvard Univ, Massachusetts Gen Hosp, Sch Med, Dept Genet,Dept Mol Biol, Boston, MA 02114 USA.
p50
sS'date'
p51
I2001
sS'ER'
p52
V
sS'publisher'
p53
VAMER SOC PLANT BIOLOGISTS
p54
sS'authorKeywords'
p55
(lp56
VEVACUOLATED PARSLEY PROTOPLASTS
p57
aVBARLEY ALEURONE PROTOPLASTS
p58
aVGREEN-FLUORESCENT PROTEIN
p59
aVMESSENGER-RNA EXPRESSION
p60
aVAUXIN RESPONSE ELEMENTS
p61
aVGUARD-CELL PROTOPLASTS
p62
aVSYNTHASE GENE PROMOTER
p63
aVVIRUS MOVEMENT PROTEIN
p64
aVABSCISIC-ACID
p65
aVTRANSIENT EXPRESSION
p66
asS'language'
p67
VEnglish
p68
sS'wosid'
p69
VWOS:000172824500023
p70
sS'citationCount'
p71
I145
sS'authors_init'
p72
(lp73
(VSHEEN
VJ
tp74
asS'citedReferences'
p75
(lp76
g1
(g2
g3
NtRp77
(dp78
g47
V10.1104/pp.111.1.9
p79
sg43
VPLANT PHYSIOL
p80
sg45
V111
p81
sg72
(lp82
(VABEL
VS
tp83
asg51
I1996
sg41
VLANT
p84
sbag1
(g2
g3
NtRp85
(dp86
g47
V10.1111/j.1365-313X.1994.00421.x
p87
sg43
VPLANT J
p88
sg45
V5
sg72
(lp89
(VABEL
VS
tp90
asg51
I1994
sg41
VLANT
p91
sbag1
(g2
g3
NtRp92
(dp93
g47
V10.1016/0042-6822(69)90092-0
p94
sg43
VVIROLOGY
p95
sg45
VIROLOGY
p96
sg72
(lp97
(VAOKI
VS
tp98
asg51
I1969
sg41
V439
p99
sbag1
(g2
g3
NtRp100
(dp101
g47
V10.1105/tpc.12.10.1823
p102
sg43
VPLANT CELL
p103
sg45
V12
p104
sg72
(lp105
(VASAI
VT
tp106
asg51
I2000
sg41
VLANT
p107
sbag1
(g2
g3
NtRp108
(dp109
g47
V10.1038/318285a0
p110
sg43
VNATURE
p111
sg45
V318
p112
sg72
(lp113
(VASSMANN
VS M
tp114
asg51
I1985
sg41
V285
p115
sbag1
(g2
g3
NtRp116
(dp117
g47
V10.1006/jmbi.1993.1537
p118
sg43
VJ MOL BIOL
p119
sg45
V233
p120
sg72
(lp121
(VBALLAS
VN
tp122
asg51
I1993
sg41
V580
p123
sbag1
(g2
g3
NtRp124
(dp125
g47
V10.1046/j.1365-313X.2000.00844.x
p126
sg43
VPLANT J
p127
sg45
V24
p128
sg72
(lp129
(VBAUER
VC S
tp130
asg51
I2000
sg41
VLANT
p131
sbag1
(g2
g3
NtRp132
(dp133
g47
V10.1046/j.1365-313x.2001.00930.x
p134
sg43
VPLANT J
p135
sg45
V25
p136
sg72
(lp137
(VBETHKE
VP C
tp138
asg51
I2001
sg41
VLANT
p139
sbag1
(g2
g3
NtRp140
(dp141
g47
V10.1146/annurev.cellbio.16.1.1
p142
sg43
VANNU REV CELL DEV BI
p143
sg45
V16
p144
sg72
(lp145
(VBLEECKER
VA B
tp146
asg51
I2000
sg41
V1
sbag1
(g2
g3
NtRp147
(dp148
g47
V10.1016/S1369-5266(00)00145-X
p149
sg43
VCURR OPIN PLANT BIOL
p150
sg45
V4
sg72
(lp151
(VBOUCHE
VN
tp152
asg51
I2001
sg41
V111
p153
sbag1
(g2
g3
NtRp154
(dp155
g47
Nsg43
VNUCLEIC ACIDS RES
p156
sg45
V15
p157
sg72
(lp158
(VCALLIS
VJ
tp159
asg51
I1987
sg41
V5823
p160
sbag1
(g2
g3
NtRp161
(dp162
g47
Nsg43
VPLANT CELL
p163
sg45
V11
p164
sg72
(lp165
(VCHANG
VC C
tp166
asg51
I1999
sg41
VLANT
p167
sbag1
(g2
g3
NtRp168
(dp169
g47
V10.1016/S0014-5793(01)02732-6
p170
sg43
VFEBS LETT
p171
sg45
V503
p172
sg72
(lp173
(VCHENG
VS H
tp174
asg51
I2001
sg41
V185
p175
sbag1
(g2
g3
NtRp176
(dp177
g47
V10.1016/S0960-9822(02)00483-9
p178
sg43
VCURR BIOL
p179
sg45
V6
sg72
(lp180
(VCHIU
VW L
tp181
asg51
I1996
sg41
V325
p182
sbag1
(g2
g3
NtRp183
(dp184
g47
V10.1073/pnas.93.15.8134
p185
sg43
VP NATL ACAD SCI USA
p186
sg45
V93
p187
sg72
(lp188
(VCHO
VM H
tp189
asg51
I1996
sg41
V8134
p190
sbag1
(g2
g3
NtRp191
(dp192
g47
V10.1104/pp.125.1.77
p193
sg43
VPLANT PHYSIOL
p194
sg45
V125
p195
sg72
(lp196
(VCHORY
VJ
tp197
asg51
I2001
sg41
VLANT
p198
sbag1
(g2
g3
NtRp199
(dp200
g47
V10.1046/j.1365-313x.1998.00343.x
p201
sg43
VPLANT J
p202
sg45
V16
p203
sg72
(lp204
(VCLOUGH
VS J
tp205
asg51
I1998
sg41
VLANT
p206
sbag1
(g2
g3
NtRp207
(dp208
g47
Nsg43
VNATURE
p209
sg45
V187
p210
sg72
(lp211
(VCOCKING
VE C
tp212
asg51
I1960
sg41
V927
p213
sbag1
(g2
g3
NtRp214
(dp215
g47
V10.1023/A:1006448607740
p216
sg43
VPLANT MOL BIOL
p217
sg45
V43
p218
sg72
(lp219
(VCZARNECKA-VERNER
VE
tp220
asg51
I2000
sg41
VLANT
p221
sbag1
(g2
g3
NtRp222
(dp223
g47
V10.1104/pp.124.4.1706
p224
sg43
VPLANT PHYSIOL
p225
sg45
V124
p226
sg72
(lp227
(VD'AGOSTINO
VI B
tp228
asg51
I2000
sg41
VLANT
p229
sbag1
(g2
g3
NtRp230
(dp231
g47
Nsg43
VPLANT CELL
p232
sg45
V11
p233
sg72
(lp234
(VDAI
VN
tp235
asg51
I1999
sg41
VLANT
p236
sbag1
(g2
g3
NtRp237
(dp238
g47
V10.1007/BF00330935
p239
sg43
VMOL GEN GENET
p240
sg45
V217
p241
sg72
(lp242
(VDAMM
VB
tp243
asg51
I1989
sg41
V6
sbag1
(g2
g3
NtRp244
(dp245
g47
V10.1038/35081161
p246
sg43
VNATURE
p247
sg45
V411
p248
sg72
(lp249
(VDANGL
VJ L
tp250
asg51
I2001
sg41
V826
p251
sbag1
(g2
g3
NtRp252
(dp253
g47
V10.1046/j.1365-313X.1995.08050683.x
p254
sg43
VPLANT J
p255
sg45
V8
sg72
(lp256
(VDOELLING
VJ H
tp257
asg51
I1995
sg41
VLANT
p258
sbag1
(g2
g3
NtRp259
(dp260
g47
Nsg43
VPLANT CELL REP
p261
sg45
V12
p262
sg72
(lp263
(VDOELLING
VJ H
tp264
asg51
I1993
sg41
VLANT
p265
sbag1
(g2
g3
NtRp266
(dp267
g47
V10.1074/jbc.M002962200
p268
sg43
VJ BIOL CHEM
p269
sg45
V275
p270
sg72
(lp271
(VDOWNEY
VP
tp272
asg51
I2000
sg41
V39420
p273
sbag1
(g2
g3
NtRp274
(dp275
g47
V10.1016/0006-291X(70)90589-9
p276
sg43
VBIOCHEM BIOPH RES CO
p277
sg45
V39
p278
sg72
(lp279
(VEDWARDS
VG E
tp280
asg51
I1970
sg41
V389
p281
sbag1
(g2
g3
NtRp282
(dp283
g47
V10.1093/emboj/18.17.4689
p284
sg43
VEMBO J
p285
sg45
V18
p286
sg72
(lp287
(VEULGEM
VT
tp288
asg51
I1999
sg41
V4689
p289
sbag1
(g2
g3
NtRp290
(dp291
g47
Nsg43
VINT REV CYTOL S
p292
sg45
V16
p293
sg72
(lp294
(VEVANS
VD A
tp295
asg51
I1983
sg41
V33
p296
sbag1
(g2
g3
NtRp297
(dp298
g47
V10.1111/j.1365-313X.1994.00437.x
p299
sg43
VPLANT J
p300
sg45
V5
sg72
(lp301
(VFROHNMEYER
VH
tp302
asg51
I1994
sg41
VLANT
p303
sbag1
(g2
g3
NtRp304
(dp305
g47
V10.1073/pnas.82.17.5824
p306
sg43
VP NATL ACAD SCI USA
p307
sg45
V82
p308
sg72
(lp309
(VFROMM
VM
tp310
asg51
I1985
sg41
V5824
p311
sbag1
(g2
g3
NtRp312
(dp313
g47
V10.1093/nar/28.1.94
p314
sg43
VNUCLEIC ACIDS RES
p315
sg45
V28
p316
sg72
(lp317
(VGAI
VX W
tp318
asg51
I2000
sg41
V94
p319
sbag1
(g2
g3
NtRp320
(dp321
g47
Nsg43
VPLANT CELL
p322
sg45
V1
sg72
(lp323
(VGALLIE
VD R
tp324
asg51
I1989
sg41
VLANT
p325
sbag1
(g2
g3
NtRp326
(dp327
g47
Nsg43
VPLANT CELL
p328
sg45
V9
sg72
(lp329
(VGALLIE
VD R
tp330
asg51
I1997
sg41
VLANT
p331
sbag1
(g2
g3
NtRp332
(dp333
g47
V10.1093/nar/15.21.8693
p334
sg43
VNUCLEIC ACIDS RES
p335
sg45
V15
p336
sg72
(lp337
(VGALLIE
VD R
tp338
asg51
I1987
sg41
V8693
p339
sbag1
(g2
g3
NtRp340
(dp341
g47
Nsg43
VNATURE
p342
sg45
V408
p343
sg72
(lp344
(VGENOME
VA I
tp345
asg51
I2000
sg41
V796
p346
sbag1
(g2
g3
NtRp347
(dp348
g47
V10.1073/pnas.89.8.3591
p349
sg43
VP NATL ACAD SCI USA
p350
sg45
V89
p351
sg72
(lp352
(VGILROY
VS
tp353
asg51
I1992
sg41
V3591
p354
sbag1
(g2
g3
NtRp355
(dp356
g47
V10.1016/0092-8674(89)90428-5
p357
sg43
VCELL
p358
sg45
V58
p359
sg72
(lp360
(VGOODALL
VG J
tp361
asg51
I1989
sg41
V473
p362
sbag1
(g2
g3
NtRp363
(dp364
g47
V10.1007/BF00023996
p365
sg43
VPLANT MOL BIOL
p366
sg45
V16
p367
sg72
(lp368
(VGOPALAKRISHNAN
VB
tp369
asg51
I1991
sg41
VLANT
p370
sbag1
(g2
g3
NtRp371
(dp372
g47
V10.1105/tpc.11.10.1897
p373
sg43
VPLANT CELL
p374
sg45
V11
p375
sg72
(lp376
(VGOSTI
VF
tp377
asg51
I1999
sg41
VLANT
p378
sbag1
(g2
g3
NtRp379
(dp380
g47
V10.1046/j.1365-313X.1994.6060893.x
p381
sg43
VPLANT J
p382
sg45
V6
sg72
(lp383
(VGRAHAM
VI A
tp384
asg51
I1994
sg41
VLANT
p385
sbag1
(g2
g3
NtRp386
(dp387
g47
V10.1016/S0968-0004(00)01544-9
p388
sg43
VTRENDS BIOCHEM SCI
p389
sg45
V25
p390
sg72
(lp391
(VGRAY
VW M
tp392
asg51
I2000
sg41
V133
p393
sbag1
(g2
g3
NtRp394
(dp395
g47
V10.1046/j.1365-313X.1999.00346.x
p396
sg43
VPLANT J
p397
sg45
V17
p398
sg72
(lp399
(VGUBLER
VF
tp400
asg51
I1999
sg41
VLANT
p401
sbag1
(g2
g3
NtRp402
(dp403
g47
V10.1104/pp.118.2.341
p404
sg43
VPLANT PHYSIOL
p405
sg45
V118
p406
sg72
(lp407
(VGUILFOYLE
VT
tp408
asg51
I1998
sg41
VLANT
p409
sbag1
(g2
g3
NtRp410
(dp411
g47
V10.1104/pp.123.4.1553
p412
sg43
VPLANT PHYSIOL
p413
sg45
V123
p414
sg72
(lp415
(VHAGENBEEK
VD
tp416
asg51
I2000
sg41
VLANT
p417
sbag1
(g2
g3
NtRp418
(dp419
g47
V10.1073/pnas.080068897
p420
sg43
VP NATL ACAD SCI USA
p421
sg45
V97
p422
sg72
(lp423
(VHAMILTON
VD W A
tp424
asg51
I2000
sg41
V4967
p425
sbag1
(g2
g3
NtRp426
(dp427
g47
V10.1073/pnas.87.2.816
p428
sg43
VP NATL ACAD SCI USA
p429
sg45
V87
p430
sg72
(lp431
(VHARKINS
VK R
tp432
asg51
I1990
sg41
V816
p433
sbag1
(g2
g3
NtRp434
(dp435
g47
V10.1073/pnas.91.11.5038
p436
sg43
VP NATL ACAD SCI USA
p437
sg45
V91
p438
sg72
(lp439
(VHARTER
VK
tp440
asg51
I1994
sg41
V5038
p441
sbag1
(g2
g3
NtRp442
(dp443
g47
V10.1101/gad.6.4.609
p444
sg43
VGENE DEV
p445
sg45
V6
sg72
(lp446
(VHATTORI
VT
tp447
asg51
I1992
sg41
V609
p448
sbag1
(g2
g3
NtRp449
(dp450
g47
Nsg43
VPLANT CELL REP
p451
sg45
V6
sg72
(lp452
(VHAUPTMANN
VR M
tp453
asg51
I1987
sg41
VLANT
p454
sbag1
(g2
g3
NtRp455
(dp456
g47
V10.1126/science.270.5244.1983
p457
sg43
VSCIENCE
p458
sg45
V270
p459
sg72
(lp460
(VHEINLEIN
VM
tp461
asg51
I1995
sg41
V1983
p462
sbag1
(g2
g3
NtRp463
(dp464
g47
Nsg43
VPLANT PHYSIOL
p465
sg45
V102
p466
sg72
(lp467
(VHILLMER
VS
tp468
asg51
I1992
sg41
VLANT
p469
sbag1
(g2
g3
NtRp470
(dp471
g47
V10.1006/viro.2000.0292
p472
sg43
VVIROLOGY
p473
sg45
VIROLOGY
p474
sg72
(lp475
(VHUANG
VZ
tp476
asg51
I2000
sg41
V58
p477
sbag1
(g2
g3
NtRp478
(dp479
g47
Nsg43
VEMBO J
p480
sg45
V8
sg72
(lp481
(VHUTTLY
VA K
tp482
asg51
I1989
sg41
V1907
p483
sbag1
(g2
g3
NtRp484
(dp485
g47
V10.1038/35096500
p486
sg43
VNATURE
p487
sg45
V413
p488
sg72
(lp489
(VHWANG
VI
tp490
asg51
I2001
sg41
V383
p491
sbag1
(g2
g3
NtRp492
(dp493
g47
V10.1038/35059117
p494
sg43
VNATURE
p495
sg45
V409
p496
sg72
(lp497
(VINOUE
VT
tp498
asg51
I2001
sg41
V1060
p499
sbag1
(g2
g3
NtRp500
(dp501
g47
V10.1105/tpc.13.8.1891
p502
sg43
VPLANT CELL
p503
sg45
V13
p504
sg72
(lp505
(VITO
VM
tp506
asg51
I2001
sg41
VLANT
p507
sbag1
(g2
g3
NtRp508
(dp509
g47
V10.1007/BF00023435
p510
sg43
VPLANT MOL BIOL
p511
sg45
V16
p512
sg72
(lp513
(VJACOBSEN
VJ V
tp514
asg51
I1991
sg41
VLANT
p515
sbag1
(g2
g3
NtRp516
(dp517
g47
V10.1038/316275a0
p518
sg43
VNATURE
p519
sg45
V316
p520
sg72
(lp521
(VJACOBSEN
VJ V
tp522
asg51
I1985
sg41
V275
p523
sbag1
(g2
g3
NtRp524
(dp525
g47
V10.1105/tpc.9.1.5
p526
sg43
VPLANT CELL
p527
sg45
V9
sg72
(lp528
(VJANG
VJ C
tp529
asg51
I1997
sg41
VLANT
p530
sbag1
(g2
g3
NtRp531
(dp532
g47
Nsg43
VPLANT CELL
p533
sg45
V6
sg72
(lp534
(VJANG
VJ C
tp535
asg51
I1994
sg41
VLANT
p536
sbag1
(g2
g3
NtRp537
(dp538
g47
Nsg43
VEMBO J
p539
sg45
V6
sg72
(lp540
(VJEFFERSON
VR A
tp541
asg51
I1987
sg41
V3901
p542
sbag1
(g2
g3
NtRp543
(dp544
g47
V10.1105/tpc.13.7.1511
p545
sg43
VPLANT CELL
p546
sg45
V13
p547
sg72
(lp548
(VJIN
VJ B
tp549
asg51
I2001
sg41
VLANT
p550
sbag1
(g2
g3
NtRp551
(dp552
g47
V10.1007/BF00027310
p553
sg43
VPLANT MOL BIOL
p554
sg45
V13
p555
sg72
(lp556
(VJONES
VH
tp557
asg51
I1989
sg41
VLANT
p558
sbag1
(g2
g3
NtRp559
(dp560
g47
V10.1126/science.274.5289.982
p561
sg43
VSCIENCE
p562
sg45
V274
p563
sg72
(lp564
(VKAKIMOTO
VT
tp565
asg51
I1996
sg41
V982
p566
sbag1
(g2
g3
NtRp567
(dp568
g47
V10.1104/pp.51.6.1133
p569
sg43
VPLANT PHYSIOL
p570
sg45
V51
p571
sg72
(lp572
(VKANAI
VR
tp573
asg51
I1973
sg41
VLANT
p574
sbag1
(g2
g3
NtRp575
(dp576
g47
Nsg43
VPLANT CELL
p577
sg45
V8
sg72
(lp578
(VKAO
VC Y
tp579
asg51
I1996
sg41
VLANT
p580
sbag1
(g2
g3
NtRp581
(dp582
g47
V10.1016/0014-4827(70)90563-X
p583
sg43
VEXP CELL RES
p584
sg45
V62
p585
sg72
(lp586
(VKAO
VK N
tp587
asg51
I1970
sg41
V338
p588
sbag1
(g2
g3
NtRp589
(dp590
g47
V10.1126/science.260.5110.960
p591
sg43
VSCIENCE
p592
sg45
V260
p593
sg72
(lp594
(VKIM
VH Y
tp595
asg51
I1993
sg41
V960
p596
sbag1
(g2
g3
NtRp597
(dp598
g47
V10.1046/j.1365-313x.2000.00887.x
p599
sg43
VPLANT J
p600
sg45
V24
p601
sg72
(lp602
(VKIRSCHNER
VM
tp603
asg51
I2000
sg41
VLANT
p604
sbag1
(g2
g3
NtRp605
(dp606
g47
V10.1046/j.1365-313X.1999.00535.x
p607
sg43
VPLANT J
p608
sg45
V19
p609
sg72
(lp610
(VKLEINER
VO
tp611
asg51
I1999
sg41
VLANT
p612
sbag1
(g2
g3
NtRp613
(dp614
g47
V10.1038/27240
p615
sg43
VNATURE
p616
sg45
V395
p617
sg72
(lp618
(VKOVTUN
VY
tp619
asg51
I1998
sg41
V716
p620
sbag1
(g2
g3
NtRp621
(dp622
g47
V10.1073/pnas.97.6.2940
p623
sg43
VP NATL ACAD SCI USA
p624
sg45
V97
p625
sg72
(lp626
(VKOVTUN
VY
tp627
asg51
I2000
sg41
V2940
p628
sbag1
(g2
g3
NtRp629
(dp630
g47
V10.1038/296072a0
p631
sg43
VNATURE
p632
sg45
V296
p633
sg72
(lp634
(VKRENS
VF A
tp635
asg51
I1982
sg41
V72
p636
sbag1
(g2
g3
NtRp637
(dp638
g47
V10.1007/BF00393231
p639
sg43
VPLANTA
p640
sg45
V128
p641
sg72
(lp642
(VLARKIN
VP J
tp643
asg51
I1976
sg41
VLANTA
p644
sbag1
(g2
g3
NtRp645
(dp646
g47
V10.1046/j.1365-313x.2000.00744.x
p647
sg43
VPLANT J
p648
sg45
V22
p649
sg72
(lp650
(VLEISTER
VR T
tp651
asg51
I2000
sg41
VLANT
p652
sbag1
(g2
g3
NtRp653
(dp654
g47
Nsg43
VEMBO J
p655
sg45
V7
sg72
(lp656
(VLIPPHARDT
VS
tp657
asg51
I1988
sg41
V4027
p658
sbag1
(g2
g3
NtRp659
(dp660
g47
Nsg43
VPLANT CELL
p661
sg45
V6
sg72
(lp662
(VLIU
VZ B
tp663
asg51
I1994
sg41
VLANT
p664
sbag1
(g2
g3
NtRp665
(dp666
g47
Nsg43
VPLANT CELL
p667
sg45
V3
sg72
(lp668
(VLOAKE
VG J
tp669
asg51
I1991
sg41
VLANT
p670
sbag1
(g2
g3
NtRp671
(dp672
g47
Nsg43
VMETHOD ENZYMOL
p673
sg45
V216
p674
sg72
(lp675
(VLUEHRSEN
VK R
tp676
asg51
I1992
sg41
V397
p677
sbag1
(g2
g3
NtRp678
(dp679
g47
V10.1007/s004250050141
p680
sg43
VPLANTA
p681
sg45
V202
p682
sg72
(lp683
(VLUO
VY K
tp684
asg51
I1997
sg41
VLANTA
p685
sbag1
(g2
g3
NtRp686
(dp687
g47
V10.1073/pnas.91.20.9272
p688
sg43
VP NATL ACAD SCI USA
p689
sg45
V91
p690
sg72
(lp691
(VMAATHUIS
VF J M
tp692
asg51
I1994
sg41
V9272
p693
sbag1
(g2
g3
NtRp694
(dp695
g47
V10.1046/j.1365-313X.1997.11040891.x
p696
sg43
VPLANT J
p697
sg45
V11
p698
sg72
(lp699
(VMAATHUIS
VF J M
tp700
asg51
I1997
sg41
VLANT
p701
sbag1
(g2
g3
NtRp702
(dp703
g47
V10.1038/335454a0
p704
sg43
VNATURE
p705
sg45
V335
p706
sg72
(lp707
(VMARCOTTE
VW R
tp708
asg51
I1988
sg41
V454
p709
sbag1
(g2
g3
NtRp710
(dp711
g47
Nsg43
VEMBO J
p712
sg45
V11
p713
sg72
(lp714
(VMASS
VC
tp715
asg51
I1990
sg41
V3447
p716
sbag1
(g2
g3
NtRp717
(dp718
g47
V10.1111/j.1365-313X.1992.tb00153.x
p719
sg43
VPLANT J
p720
sg45
V2
sg72
(lp721
(VMASSON
VJ
tp722
asg51
I1992
sg41
VLANT
p723
sbag1
(g2
g3
NtRp724
(dp725
g47
V10.1016/0092-8674(91)90436-3
p726
sg43
VCELL
p727
sg45
V66
p728
sg72
(lp729
(VMCCARTY
VD R
tp730
asg51
I1991
sg41
V895
p731
sbag1
(g2
g3
NtRp732
(dp733
g47
V10.1016/S0092-8674(00)00113-6
p734
sg43
VCELL
p735
sg45
V103
p736
sg72
(lp737
(VMCCARTY
VD R
tp738
asg51
I2000
sg41
V201
p739
sbag1
(g2
g3
NtRp740
(dp741
g47
Nsg43
VPLANT CELL
p742
sg45
V7
sg72
(lp743
(VMCLEAN
VB G
tp744
asg51
I1995
sg41
VLANT
p745
sbag1
(g2
g3
NtRp746
(dp747
g47
V10.1126/science.6093255
p748
sg43
VSCIENCE
p749
sg45
V226
p750
sg72
(lp751
(VMORAN
VN
tp752
asg51
I1984
sg41
V835
p753
sbag1
(g2
g3
NtRp754
(dp755
g47
Nsg43
VGENETICS
p756
sg45
V149
p757
sg72
(lp758
(VMORDHORST
VA P
tp759
asg51
I1998
sg41
V549
p760
sbag1
(g2
g3
NtRp761
(dp762
g47
V10.1007/BF00385097
p763
sg43
VPLANTA
p764
sg45
V92
p765
sg72
(lp766
(VNAGATA
VT
tp767
asg51
I1970
sg41
VLANTA
p768
sbag1
(g2
g3
NtRp769
(dp770
g47
Nsg43
VINT REV CYTOL
p771
sg45
V132
p772
sg72
(lp773
(VNAGATA
VT
tp774
asg51
I1992
sg41
V1
sbag1
(g2
g3
NtRp775
(dp776
g47
V10.1007/BF00015814
p777
sg43
VPLANT MOL BIOL
p778
sg45
V8
sg72
(lp779
(VNEGRUTIU
VI
tp780
asg51
I1987
sg41
VLANT
p781
sbag1
(g2
g3
NtRp782
(dp783
g47
Nsg43
VPLANT CELL
p784
sg45
V8
sg72
(lp785
(VNI
VM
tp786
asg51
I1996
sg41
VLANT
p787
sbag1
(g2
g3
NtRp788
(dp789
g47
V10.1016/S0092-8674(00)80846-6
p790
sg43
VCELL
p791
sg45
V101
p792
sg72
(lp793
(VNIMCHUK
VZ
tp794
asg51
I2000
sg41
V353
p795
sbag1
(g2
g3
NtRp796
(dp797
g47
Nsg43
VPLANT CELL REP
p798
sg45
V5
sg72
(lp799
(VNISHIGUCHI
VM
tp800
asg51
I1986
sg41
VLANT
p801
sbag1
(g2
g3
NtRp802
(dp803
g47
V10.1016/0092-8674(94)90423-5
p804
sg43
VCELL
p805
sg45
V78
p806
sg72
(lp807
(VNURNBERGER
VT
tp808
asg51
I1994
sg41
V449
p809
sbag1
(g2
g3
NtRp810
(dp811
g47
V10.1073/pnas.83.18.6815
p812
sg43
VP NATL ACAD SCI USA
p813
sg45
V83
p814
sg72
(lp815
(VOULEE
VT M
tp816
asg51
I1986
sg41
V6815
p817
sbag1
(g2
g3
NtRp818
(dp819
g47
V10.1016/S0958-1669(00)00075-6
p820
sg43
VCURR OPIN BIOTECH
p821
sg45
V11
p822
sg72
(lp823
(VPARINOV
VS
tp824
asg51
I2000
sg41
V157
p825
sbag1
(g2
g3
NtRp826
(dp827
g47
V10.1038/35015671
p828
sg43
VNATURE
p829
sg45
V405
p830
sg72
(lp831
(VPAULY
VN
tp832
asg51
I2000
sg41
V754
p833
sbag1
(g2
g3
NtRp834
(dp835
g47
Nsg43
VProtoplasma
p836
sg45
V83
p837
sg72
(lp838
(VPODIBELKOWSKA
VM
tp839
asg51
I1975
sg41
Vrotoplasma
p840
sbag1
(g2
g3
NtRp841
(dp842
g47
V10.1007/BF02885591
p843
sg43
VPLANT MOL BIOL REP
p844
sg45
V3
sg72
(lp845
(VPOTRYKUS
VI
tp846
asg51
I1985
sg41
VLANT
p847
sbag1
(g2
g3
NtRp848
(dp849
g47
Nsg43
VEMBO J
p850
sg45
V10
p851
sg72
(lp852
(VPOUTEAU
VS
tp853
asg51
I1991
sg41
V1911
p854
sbag1
(g2
g3
NtRp855
(dp856
g47
Nsg43
VProceedings of the 2nd International Conference on Lasers in Manufacturing
p857
sg45
Nsg72
(lp858
(VPOWELL
VJ
tp859
asg51
I1985
sg41
Vroceedings
p860
sbag1
(g2
g3
NtRp861
(dp862
g47
V10.1016/S1369-5266(99)00049-7
p863
sg43
VCURR OPIN PLANT BIOL
p864
sg45
V3
sg72
(lp865
(VRICHMOND
VT
tp866
asg51
I2000
sg41
V108
p867
sbag1
(g2
g3
NtRp868
(dp869
g47
Nsg43
VPLANT CELL
p870
sg45
V6
sg72
(lp871
(VSADKA
VA
tp872
asg51
I1994
sg41
VLANT
p873
sbag1
(g2
g3
NtRp874
(dp875
g47
V10.1105/tpc.3.9.997
p876
sg43
VPLANT CELL
p877
sg45
V3
sg72
(lp878
(VSCHAFFNER
VA R
tp879
asg51
I1991
sg41
VLANT
p880
sbag1
(g2
g3
NtRp881
(dp882
g47
Nsg43
VPLANT J
p883
sg45
V2
sg72
(lp884
(VSCHAFFNER
VA R
tp885
asg51
I1992
sg41
VLANT
p886
sbag1
(g2
g3
NtRp887
(dp888
g47
V10.1038/35066500
p889
sg43
VNATURE
p890
sg45
V410
p891
sg72
(lp892
(VSCHROEDER
VJ I
tp893
asg51
I2001
sg41
V327
p894
sbag1
(g2
g3
NtRp895
(dp896
g47
V10.1038/312361a0
p897
sg43
VNATURE
p898
sg45
V312
p899
sg72
(lp900
(VSCHROEDER
VJ I
tp901
asg51
I1984
sg41
V361
p902
sbag1
(g2
g3
NtRp903
(dp904
g47
V10.1016/0378-1119(88)90403-9
p905
sg43
VGENE
p906
sg45
V67
p907
sg72
(lp908
(VSEED
VB
tp909
asg51
I1988
sg41
V271
p910
sbag1
(g2
g3
NtRp911
(dp912
g47
Nsg43
VEMBO J
p913
sg45
V12
p914
sg72
(lp915
(VSHEEN
VJ
tp916
asg51
I1993
sg41
V3497
p917
sbag1
(g2
g3
NtRp918
(dp919
g47
V10.1016/S0091-679X(08)61462-4
p920
sg43
VMETHOD CELL BIOL
p921
sg45
V49
p922
sg72
(lp923
(VSHEEN
VJ
tp924
asg51
I1995
sg41
V305
p925
sbag1
(g2
g3
NtRp926
(dp927
g47
V10.1046/j.1365-313X.1995.08050777.x
p928
sg43
VPLANT J
p929
sg45
V8
sg72
(lp930
(VSHEEN
VJ
tp931
asg51
I1995
sg41
VLANT
p932
sbag1
(g2
g3
NtRp933
(dp934
g47
V10.1126/science.274.5294.1900
p935
sg43
VSCIENCE
p936
sg45
V274
p937
sg72
(lp938
(VSHEEN
VJ
tp939
asg51
I1996
sg41
V1900
p940
sbag1
(g2
g3
NtRp941
(dp942
g47
V10.1105/tpc.3.3.225
p943
sg43
VPLANT CELL
p944
sg45
V3
sg72
(lp945
(VSHEEN
VJ
tp946
asg51
I1991
sg41
VLANT
p947
sbag1
(g2
g3
NtRp948
(dp949
g47
V10.1016/S1369-5266(99)00014-X
p950
sg43
VCURR OPIN PLANT BIOL
p951
sg45
V2
sg72
(lp952
(VSHEEN
VJ
tp953
asg51
I1999
sg41
V410
p954
sbag1
(g2
g3
NtRp955
(dp956
g47
V10.1146/annurev.arplant.50.1.187
p957
sg43
VANNU REV PLANT PHYS
p958
sg45
V50
p959
sg72
(lp960
(VSHEEN
VJ
tp961
asg51
I1999
sg41
V187
p962
sbag1
(g2
g3
NtRp963
(dp964
g47
V10.1073/pnas.95.3.975
p965
sg43
VP NATL ACAD SCI USA
p966
sg45
V95
p967
sg72
(lp968
(VSHEEN
VJ
tp969
asg51
I1998
sg41
V975
p970
sbag1
(g2
g3
NtRp971
(dp972
g47
V10.1105/tpc.2.10.1027
p973
sg43
VPLANT CELL
p974
sg45
V2
sg72
(lp975
(VSHEEN
VJ
tp976
asg51
I1990
sg41
VLANT
p977
sbag1
(g2
g3
NtRp978
(dp979
g47
V10.1038/90831
p980
sg43
VNAT BIOTECHNOL
p981
sg45
V19
p982
sg72
(lp983
(VSUBRAMANIAM
VR
tp984
asg51
I2001
sg41
V769
p985
sbag1
(g2
g3
NtRp986
(dp987
g47
V10.1104/pp.124.4.1465
p988
sg43
VPLANT PHYSIOL
p989
sg45
V124
p990
sg72
(lp991
(VSUSSMAN
VM R
tp992
asg51
I2000
sg41
VLANT
p993
sbag1
(g2
g3
NtRp994
(dp995
g47
Nsg43
VNATURWISSENSCHAFTEN
p996
sg45
V58
p997
sg72
(lp998
(VTAKEBE
VI
tp999
asg51
I1971
sg41
V318
p1000
sbag1
(g2
g3
NtRp1001
(dp1002
g47
V10.1046/j.1365-313X.1999.00460.x
p1003
sg43
VPLANT J
p1004
sg45
V18
p1005
sg72
(lp1006
(VTAKEDA
VS
tp1007
asg51
I1999
sg41
VLANT
p1008
sbag1
(g2
g3
NtRp1009
(dp1010
g47
V10.1016/S1369-5266(00)00191-6
p1011
sg43
VCURR OPIN PLANT BIOL
p1012
sg45
V4
sg72
(lp1013
(VTENA
VG
tp1014
asg51
I2001
sg41
V392
p1015
sbag1
(g2
g3
NtRp1016
(dp1017
g47
V10.1104/pp.120.1.1
p1018
sg43
VPLANT PHYSIOL
p1019
sg45
V120
p1020
sg72
(lp1021
(VTREWAVAS
VA
tp1022
asg51
I1999
sg41
VLANT
p1023
sbag1
(g2
g3
NtRp1024
(dp1025
g47
V10.1093/emboj/20.17.4730
p1026
sg43
VEMBO J
p1027
sg45
V20
p1028
sg72
(lp1029
(VUEDA
VT
tp1030
asg51
I2001
sg41
V4730
p1031
sbag1
(g2
g3
NtRp1032
(dp1033
g47
V10.1126/science.276.5320.1865
p1034
sg43
VSCIENCE
p1035
sg45
V276
p1036
sg72
(lp1037
(VULMASOV
VT
tp1038
asg51
I1997
sg41
V1865
p1039
sbag1
(g2
g3
NtRp1040
(dp1041
g47
V10.1073/pnas.96.10.5844
p1042
sg43
VP NATL ACAD SCI USA
p1043
sg45
V96
p1044
sg72
(lp1045
(VULMASOV
VT
tp1046
asg51
I1999
sg41
V5844
p1047
sbag1
(g2
g3
NtRp1048
(dp1049
g47
Nsg43
VPLANT CELL
p1050
sg45
V9
sg72
(lp1051
(VULMASOV
VT
tp1052
asg51
I1997
sg41
VLANT
p1053
sbag1
(g2
g3
NtRp1054
(dp1055
g47
V10.1073/pnas.190309197
p1056
sg43
VP NATL ACAD SCI USA
p1057
sg45
V97
p1058
sg72
(lp1059
(VUNO
VY
tp1060
asg51
I2000
sg41
V11632
p1061
sbag1
(g2
g3
NtRp1062
(dp1063
g47
V10.1016/S1360-1385(99)01542-3
p1064
sg43
VTRENDS PLANT SCI
p1065
sg45
V5
sg72
(lp1066
(VURAO
VT
tp1067
asg51
I2000
sg41
V67
p1068
sbag1
(g2
g3
NtRp1069
(dp1070
g47
V10.1046/j.1365-313X.1996.10061145.x
p1071
sg43
VPLANT J
p1072
sg45
V10
p1073
sg72
(lp1074
(VURAO
VT
tp1075
asg51
I1996
sg41
VLANT
p1076
sbag1
(g2
g3
NtRp1077
(dp1078
g47
Nsg43
VEMBO J
p1079
sg45
V9
sg72
(lp1080
(VVANDELOCHT
VU
tp1081
asg51
I1990
sg41
V2945
p1082
sbag1
(g2
g3
NtRp1083
(dp1084
g47
Nsg43
VIN VITRO CELL DEV B
p1085
sg45
V8
sg72
(lp1086
(VVASIL
VI K
tp1087
asg51
I1972
sg41
V117
p1088
sbag1
(g2
g3
NtRp1089
(dp1090
g47
V10.1104/pp.91.4.1575
p1091
sg43
VPLANT PHYSIOL
p1092
sg45
V91
p1093
sg72
(lp1094
(VVASIL
VV
tp1095
asg51
I1989
sg41
VLANT
p1096
sbag1
(g2
g3
NtRp1097
(dp1098
g47
V10.1038/346199a0
p1099
sg43
VNATURE
p1100
sg45
V346
p1101
sg72
(lp1102
(VWAIBEL
VF
tp1103
asg51
I1990
sg41
V199
p1104
sbag1
(g2
g3
NtRp1105
(dp1106
g47
V10.1016/S1369-5266(99)00051-5
p1107
sg43
VCURR OPIN PLANT BIOL
p1108
sg45
V3
sg72
(lp1109
(VWALBOT
VV
tp1110
asg51
I2000
sg41
V103
p1111
sbag1
(g2
g3
NtRp1112
(dp1113
g47
Nsg43
VBIOTECHNIQUES
p1114
sg45
V18
p1115
sg72
(lp1116
(VWENCK
VA R
tp1117
asg51
I1995
sg41
V640
p1118
sbag1
(g2
g3
NtRp1119
(dp1120
g47
V10.1046/j.1365-313x.2000.00703.x
p1121
sg43
VPLANT J
p1122
sg45
V21
p1123
sg72
(lp1124
(VWORLEY
VC K
tp1125
asg51
I2000
sg41
VLANT
p1126
sbag1
(g2
g3
NtRp1127
(dp1128
g47
V10.1105/tpc.10.1.75
p1129
sg43
VPLANT CELL
p1130
sg45
V10
p1131
sg72
(lp1132
(VYANAGISAWA
VS
tp1133
asg51
I1998
sg41
VLANT
p1134
sbag1
(g2
g3
NtRp1135
(dp1136
g47
V10.1016/S0065-3527(08)60658-2
p1137
sg43
VAdv Virus Res
p1138
sg45
V19
p1139
sg72
(lp1140
(VZAITLIN
VM
tp1141
asg51
I1974
sg41
V1
sbag1
(g2
g3
NtRp1142
(dp1143
g47
V10.1016/S1360-1385(00)01838-0
p1144
sg43
VTRENDS PLANT SCI
p1145
sg45
V6
sg72
(lp1146
(VZHU
VJ K
tp1147
asg51
I2001
sg41
V66
p1148
sbag1
(g2
g3
NtRp1149
(dp1150
g47
V10.1104/pp.124.4.1472
p1151
sg43
VPLANT PHYSIOL
p1152
sg45
V124
p1153
sg72
(lp1154
(VZHU
VT
tp1155
asg51
I2000
sg41
VLANT
p1156
sbasb.