ccopy_reg
_reconstructor
p1
(ctethne.classes.paper
Paper
p2
c__builtin__
object
p3
NtRp4
(dp5
S'publisherCity'
p6
VROCKVILLE
p7
sS'reprintAddress'
p8
VSherman, LA (reprint author), Purdue Univ, Dept Biol Sci, W Lafayette, IN 47907 USA.
p9
sS'WC'
p10
VPlant Sciences
p11
sS'GA'
p12
V710ZV
p13
sS'abstract'
p14
VA full-genome microarray of the (oxy)photosynthetic cyanobacterium Synechocystis sp. PCC 6803 was used to identify genes that were transcriptionally regulated by growth in iron (Fe)-deficient versus Fe-sufficient media. Transcript accumulation for 3,165 genes in the genome was analyzed using an analysis of variance model that accounted for slide and replicate (random) effects and dye (a fixed) effect in testing for differences in the four time periods. We determined that 85 genes showed statistically significant changes in the level of transcription (P less than or equal to 0.05/3,165 = 0.0000158) across the four time points examined, whereas 781 genes were characterized as interesting (P less than or equal to 0.05 but greater than 0.0000158; 731 of these had a fold change >1.25X). The genes identified included those known previously to be Fe regulated, such as isiA that encodes a novel chlorophyll-binding protein responsible for the pigment characteristics of low-Fe (LoFe) cells. ATP synthetase and phycobilisome genes were down-regulated in LoFe, and there were interesting changes in the transcription of genes involved in chlorophyll biosynthesis, in photosystem I and II assembly, and in energy metabolism. Hierarchical clustering demonstrated that photosynthesis genes, as a class, were repressed in LoFe and induced upon the re-addition of Fe. Specific regulatory genes were transcriptionally active in LoFe, including two genes that show homology to plant phytochromes (cph1 and cph2). These observations established the existence of a complex network of regulatory interactions and coordination in response to Fe availability.
p15
sS'pageEnd'
p16
I1839
sS'date'
p17
I2003
sS'documentType'
p18
VArticle
p19
sS'subject'
p20
VPlant Sciences
p21
sS'isoSource'
p22
VPlant Physiol.
p23
sS'timesCited'
p24
(lp25
I94
aVZ9 99
p26
asS'PT'
p27
VJ
sS'title'
p28
VMicroarray Analysis Of The Genome-Wide Response To Iron Deficiency And Iron Reconstitution In The Cyanobacterium Synechocystis Sp Pcc 6803
p29
sS'ISSN'
p30
(lp31
V0032-0889
p32
aVJ9 PLANT PHYSIOL
p33
asS'authors_full'
p34
(lp35
(VSINGH
VAK
tp36
a(VMCINTYRE
VLM
tp37
a(VSHERMAN
VLA
tp38
asS'PG'
p39
I15
sS'PD'
p40
VAUG
p41
sS'pageStart'
p42
I1825
sS'issue'
p43
I4
sS'RI'
p44
VMcIntyre, Lauren/J-8414-2012
p45
sS'journal'
p46
VPLANT PHYSIOLOGY
p47
sS'volume'
p48
V132
p49
sS'doi'
p50
V10.1104/pp.103.024018
p51
sS'authorAddress'
p52
(lp53
VPurdue Univ, Dept Biol Sci, W Lafayette, IN 47907 USA.
p54
aVPurdue Univ, Dept Agron, W Lafayette, IN 47907 USA.
p55
asS'publisherAddress'
p56
V15501 MONONA DRIVE, ROCKVILLE, MD 20855 USA
p57
sS'ER'
p58
V
sS'publisher'
p59
VAMER SOC PLANT BIOLOGISTS
p60
sS'authorKeywords'
p61
(lp62
VSP STRAIN PCC-6803
p63
aVCHLOROPHYLL-PROTEIN COMPLEX
p64
aVGLOBAL GENE-EXPRESSION
p65
aVPHOTOSYSTEM-II COMPLEX
p66
aVANACYSTIS-NIDULANS
p67
aVCDNA MICROARRAY
p68
aVSYNECHOCOCCUS-ELONGATUS
p69
aVPHYTOCHROME CPH1
p70
aVFTSH HOMOLOG
p71
aVD1 PROTEIN
p72
asS'OI'
p73
VMcIntyre, Lauren/0000-0002-0077-3359
p74
sS'language'
p75
VEnglish
p76
sS'wosid'
p77
VWOS:000184713400012
p78
sS'citationCount'
p79
I74
sS'authors_init'
p80
(lp81
(VSINGH
VA K
tp82
a(VMCINTYRE
VL M
tp83
a(VSHERMAN
VL A
tp84
asS'citedReferences'
p85
(lp86
g1
(g2
g3
NtRp87
(dp88
g50
V10.1074/jbc.M002247200
p89
sg46
VJ BIOL CHEM
p90
sg48
V275
p91
sg80
(lp92
(VARFIN
VS M
tp93
asg17
I2000
sg42
V29672
p94
sbag1
(g2
g3
NtRp95
(dp96
g50
V10.1074/jbc.M105878200
p97
sg46
VJ BIOL CHEM
p98
sg48
V277
p99
sg80
(lp100
(VBAILEY
VS
tp101
asg17
I2002
sg42
V2006
p102
sbag1
(g2
g3
NtRp103
(dp104
g50
V10.1126/science.283.5403.840
p105
sg46
VSCIENCE
p106
sg48
V283
p107
sg80
(lp108
(VBEHRENFELD
VM J
tp109
asg17
I1999
sg42
V840
p110
sbag1
(g2
g3
NtRp111
(dp112
g50
V10.1038/35089098
p113
sg46
VNATURE
p114
sg48
V412
p115
sg80
(lp116
(VBIBBY
VT S
tp117
asg17
I2001
sg42
V743
p118
sbag1
(g2
g3
NtRp119
(dp120
g50
V10.1038/35089104
p121
sg46
VNATURE
p122
sg48
V412
p123
sg80
(lp124
(VBOEKEMA
VE J
tp125
asg17
I2001
sg42
V745
p126
sbag1
(g2
g3
NtRp127
(dp128
g50
V10.1104/pp.103.3.893
p129
sg46
VPLANT PHYSIOL
p130
sg48
V103
p131
sg80
(lp132
(VBURNAP
VR L
tp133
asg17
I1993
sg42
VLANT
p134
sbag1
(g2
g3
NtRp135
(dp136
g50
V10.1038/ng1031
p137
sg46
VNAT GENET
p138
sg48
V32
p139
sg80
(lp140
(VCHURCHILL
VG A
tp141
asg17
I2002
sg42
V490
p142
sbag1
(g2
g3
NtRp143
(dp144
g50
Nsg46
VGENETICS
p145
sg48
V142
p146
sg80
(lp147
(VDOERGE
VR W
tp148
asg17
I1996
sg42
V285
p149
sbag1
(g2
g3
NtRp150
(dp151
g50
Nsg46
VNAT GENET
p152
sg48
V33
p153
sg80
(lp154
(VDREUTH
VJ P H
tp155
asg17
I2003
sg42
V1
sbag1
(g2
g3
NtRp156
(dp157
g50
Nsg46
VESCHERICHIA COLI SAL
p158
sg48
Nsg80
(lp159
(VEARHART
VC F
tp160
asg17
I1996
sg42
V1075
p161
sbag1
(g2
g3
NtRp162
(dp163
g50
V10.1146/annurev.arplant.49.1.669
p164
sg46
VANNU REV PLANT PHYS
p165
sg48
V49
p166
sg80
(lp167
(VFOX
VT C
tp168
asg17
I1998
sg42
V669
p169
sbag1
(g2
g3
NtRp170
(dp171
g50
V10.1016/S0005-2728(01)00195-5
p172
sg46
VBBA
p173
sg48
V1507
p174
sg80
(lp175
(VFROMME
VP
tp176
asg17
I2001
sg42
V5
sbag1
(g2
g3
NtRp177
(dp178
g50
Nsg46
VJ BACTERIOL
p179
sg48
V182
p180
sg80
(lp181
(VGARCIA-DOMINGUEZ
VM
tp182
asg17
I2000
sg42
V38
p183
sbag1
(g2
g3
NtRp184
(dp185
g50
V10.1128/JB.184.13.3671-3681.2002
p186
sg46
VJ BACTERIOL
p187
sg48
V184
p188
sg80
(lp189
(VGILL
VR T
tp190
asg17
I2002
sg42
V3671
p191
sbag1
(g2
g3
NtRp192
(dp193
g50
V10.1104/pp.74.1.90
p194
sg46
VPLANT PHYSIOL
p195
sg48
V74
p196
sg80
(lp197
(VGUIKEMA
VJ A
tp198
asg17
I1984
sg42
VLANT
p199
sbag1
(g2
g3
NtRp200
(dp201
g50
Nsg46
VPLANT PHYSIOL
p202
sg48
V73
p203
sg80
(lp204
(VGUILKEMA
VJ A
tp205
asg17
I1983
sg42
VLANT
p206
sbag1
(g2
g3
NtRp207
(dp208
g50
V10.1016/S1369-5274(00)00184-3
p209
sg46
VCURR OPIN MICROBIOL
p210
sg48
V4
sg80
(lp211
(VHANTKE
VK
tp212
asg17
I2001
sg42
V172
p213
sbag1
(g2
g3
NtRp214
(dp215
g50
V10.1093/emboj/20.4.713
p216
sg46
VEMBO J
p217
sg48
V20
p218
sg80
(lp219
(VHAUSSUHL
VK
tp220
asg17
I2001
sg42
V713
p221
sbag1
(g2
g3
NtRp222
(dp223
g50
V10.1016/S0968-0004(01)02034-5
p224
sg46
VTRENDS BIOCHEM SCI
p225
sg48
V27
p226
sg80
(lp227
(VHEATHCOTE
VP
tp228
asg17
I2002
sg42
V79
p229
sbag1
(g2
g3
NtRp230
(dp231
g50
Nsg46
VPLANT CELL
p232
sg48
V13
p233
sg80
(lp234
(VHIHARA
VY
tp235
asg17
I2001
sg42
VLANT
p236
sbag1
(g2
g3
NtRp237
(dp238
g50
V10.1038/ng766
p239
sg46
VNAT GENET
p240
sg48
V29
p241
sg80
(lp242
(VJIN
VW
tp243
asg17
I2001
sg42
V389
p244
sbag1
(g2
g3
NtRp245
(dp246
g50
V10.1093/dnares/3.3.109
p247
sg46
VDNA Res
p248
sg48
V3
sg80
(lp249
(VKANEKO
VT
tp250
asg17
I1996
sg42
V109
p251
sbag1
(g2
g3
NtRp252
(dp253
g50
V10.1006/bbrc.2001.6201
p254
sg46
VBIOCHEM BIOPH RES CO
p255
sg48
V290
p256
sg80
(lp257
(VKANESAKI
VY
tp258
asg17
I2002
sg42
V339
p259
sbag1
(g2
g3
NtRp260
(dp261
g50
V10.1128/JB.183.9.2779-2784.2001
p262
sg46
VJ BACTERIOL
p263
sg48
V183
p264
sg80
(lp265
(VKATOH
VH
tp266
asg17
I2001
sg42
V2779
p267
sbag1
(g2
g3
NtRp268
(dp269
g50
V10.1128/JB.182.22.6523-6524.2000
p270
sg46
VJ BACTERIOL
p271
sg48
V182
p272
sg80
(lp273
(VKATOH
VH
tp274
asg17
I2000
sg42
V6523
p275
sbag1
(g2
g3
NtRp276
(dp277
g50
V10.1017/S0016672301005055
p278
sg46
VGENET RES
p279
sg48
V77
p280
sg80
(lp281
(VKERR
VM K
tp282
asg17
I2001
sg42
V123
p283
sbag1
(g2
g3
NtRp284
(dp285
g50
VDOI 10.1093/BIOSTATISTICS/2.2.183
p286
sg46
VBIOSTATISTICS
p287
sg48
V2
sg80
(lp288
(VKERR
VM K
tp289
asg17
I2001
sg42
V183
p290
sbag1
(g2
g3
NtRp291
(dp292
g50
V10.1046/j.0014-2956.2001.02693.x
p293
sg46
VEUR J BIOCHEM
p294
sg48
V269
p295
sg80
(lp296
(VKOMENDA
VJ
tp297
asg17
I2002
sg42
V610
p298
sbag1
(g2
g3
NtRp299
(dp300
g50
Nsg46
VMICROBIOL
p301
sg48
V148
p302
sg80
(lp303
(VTOLLE
VJ
tp304
asg17
I2002
sg42
V3293
p305
sbag1
(g2
g3
NtRp306
(dp307
g50
V10.1046/j.1432-1327.2001.02395.x
p308
sg46
VEUR J BIOCHEM
p309
sg48
V268
p310
sg80
(lp311
(VLAMPARTER
VT
tp312
asg17
I2001
sg42
V4720
p313
sbag1
(g2
g3
NtRp314
(dp315
g50
Nsg46
VJ BACTERIOL
p316
sg48
V170
p317
sg80
(lp318
(VLAUDENBACH
VD E
tp319
asg17
I1988
sg42
V5018
p320
sbag1
(g2
g3
NtRp321
(dp322
g50
Nsg46
VJ BACTERIOL
p323
sg48
V170
p324
sg80
(lp325
(VLAUDENBACH
VD E
tp326
asg17
I1988
sg42
V258
p327
sbag1
(g2
g3
NtRp328
(dp329
g50
V10.1105/tpc.12.3.419
p330
sg46
VPLANT CELL
p331
sg48
V12
p332
sg80
(lp333
(VLINDAHL
VM
tp334
asg17
I2000
sg42
VLANT
p335
sbag1
(g2
g3
NtRp336
(dp337
g50
V10.1074/jbc.M010192200
p338
sg46
VJ BIOL CHEM
p339
sg48
V276
p340
sg80
(lp341
(VLONG
VA D
tp342
asg17
I2001
sg42
V19937
p343
sbag1
(g2
g3
NtRp344
(dp345
g50
V10.1016/S0014-5793(00)01871-8
p346
sg46
VFEBS LETT
p347
sg48
V479
p348
sg80
(lp349
(VMANN
VN H
tp350
asg17
I2000
sg42
V72
p351
sbag1
(g2
g3
NtRp352
(dp353
g50
V10.1002/1098-2272(200007)19:1<18::AID-GEPI2>3.0.CO;2-Y
p354
sg46
VGENET EPIDEMIOL
p355
sg48
V19
p356
sg80
(lp357
(VMCINTYRE
VL M
tp358
asg17
I2000
sg42
V18
p359
sbag1
(g2
g3
NtRp360
(dp361
g50
Nsg46
VMICROBIOL
p362
sg48
V142
p363
sg80
(lp364
(VMICHEL
VK P
tp365
asg17
I1996
sg42
V2635
p366
sbag1
(g2
g3
NtRp367
(dp368
g50
V10.1128/JB.183.17.5015-5024.2001
p369
sg46
VJ BACTERIOL
p370
sg48
V183
p371
sg80
(lp372
(VMICHEL
VK P
tp373
asg17
I2001
sg42
V5015
p374
sbag1
(g2
g3
NtRp375
(dp376
g50
Nsg46
VMICROBIOL
p377
sg48
V145
p378
sg80
(lp379
(VMICHEL
VK P
tp380
asg17
I1999
sg42
V1473
p381
sbag1
(g2
g3
NtRp382
(dp383
g50
Nsg46
VMICROARRAY IMAGE ANA
p384
sg48
Nsg80
(lp385
(VMOODY
VD
tp386
asg17
I2002
sg42
V155
p387
sbag1
(g2
g3
NtRp388
(dp389
g50
V10.1046/j.1365-313X.2002.01270.x
p390
sg46
VPLANT J
p391
sg48
V30
p392
sg80
(lp393
(VNEGISHI
VT
tp394
asg17
I2002
sg42
VLANT
p395
sbag1
(g2
g3
NtRp396
(dp397
g50
V10.1038/ng983
p398
sg46
VNAT GENET
p399
sg48
V32
p400
sg80
(lp401
(VOLEKSIAK
VM F
tp402
asg17
I2002
sg42
V261
p403
sbag1
(g2
g3
NtRp404
(dp405
g50
V10.1104/pp.79.1.290
p406
sg46
VPLANT PHYSIOL
p407
sg48
V79
p408
sg80
(lp409
(VPAKRASI
VH B
tp410
asg17
I1985
sg42
VLANT
p411
sbag1
(g2
g3
NtRp412
(dp413
g50
V10.1073/pnas.82.20.6903
p414
sg46
VP NATL ACAD SCI USA
p415
sg48
V82
p416
sg80
(lp417
(VPAKRASI
VH B
tp418
asg17
I1985
sg42
V6903
p419
sbag1
(g2
g3
NtRp420
(dp421
g50
V10.1021/bi992916s
p422
sg46
VBIOCHEMISTRY
p423
sg48
V39
p424
sg80
(lp425
(VPARK
VC M
tp426
asg17
I2000
sg42
V6349
p427
sbag1
(g2
g3
NtRp428
(dp429
g50
V10.1021/bi992831r
p430
sg46
VBIOCHEMISTRY
p431
sg48
V39
p432
sg80
(lp433
(VPARK
VC M
tp434
asg17
I2000
sg42
V10840
p435
sbag1
(g2
g3
NtRp436
(dp437
g50
V10.1128/IAI.69.6.4109-4115.2001
p438
sg46
VINFECT IMMUN
p439
sg48
V69
p440
sg80
(lp441
(VPAUSTIAN
VM L
tp442
asg17
I2001
sg42
V4109
p443
sbag1
(g2
g3
NtRp444
(dp445
g50
V10.1105/tpc.13.12.2703
p446
sg46
VPLANT CELL
p447
sg48
V13
p448
sg80
(lp449
(VPEREZ-AMADOR
VM A
tp450
asg17
I2001
sg42
VLANT
p451
sbag1
(g2
g3
NtRp452
(dp453
g50
V10.1186/1471-2164-4-23
p454
sg46
VBMC GENOMICS
p455
sg48
V4
sg80
(lp456
(VPOSTIER
VB L
tp457
asg17
I2003
sg42
Nsbag1
(g2
g3
NtRp458
(dp459
g50
V10.1146/annurev.micro.54.1.881
p460
sg46
VANNU REV MICROBIOL
p461
sg48
V54
p462
sg80
(lp463
(VRATLEDGE
VC
tp464
asg17
I2000
sg42
V881
p465
sbag1
(g2
g3
NtRp466
(dp467
g50
Nsg46
VBIOTECHNIQUES
p468
sg48
V8
sg80
(lp469
(VREDDY
VK J
tp470
asg17
I1990
sg42
V250
p471
sbag1
(g2
g3
NtRp472
(dp473
g50
V10.1093/nar/27.19.3821
p474
sg46
VNUCLEIC ACIDS RES
p475
sg48
V27
p476
sg80
(lp477
(VRICHMOND
VC S
tp478
asg17
I1999
sg42
V3821
p479
sbag1
(g2
g3
NtRp480
(dp481
g50
V10.1007/BF00042982
p482
sg46
VPHOTOSYNTH RES
p483
sg48
V18
p484
sg80
(lp485
(VRIETHMAN
VH
tp486
asg17
I1988
sg42
VHOTOSYNTH
p487
sbag1
(g2
g3
NtRp488
(dp489
g50
V10.1105/tpc.13.1.61
p490
sg46
VPLANT CELL
p491
sg48
V13
p492
sg80
(lp493
(VSEKI
VM
tp494
asg17
I2001
sg42
VLANT
p495
sbag1
(g2
g3
NtRp496
(dp497
g50
Nsg46
VJ BACTERIOL
p498
sg48
V179
p499
sg80
(lp500
(VCOLONLOPEZ
VM
tp501
asg17
I1997
sg42
V4319
p502
sbag1
(g2
g3
NtRp503
(dp504
g50
Nsg46
VJ BACTERIOL
p505
sg48
V156
p506
sg80
(lp507
(VSHERMAN
VD M
tp508
asg17
I1983
sg42
V393
p509
sbag1
(g2
g3
NtRp510
(dp511
g50
V10.1128/JB.182.12.3536-3543.2000
p512
sg46
VJ BACTERIOL
p513
sg48
V182
p514
sg80
(lp515
(VSINGH
VA K
tp516
asg17
I2000
sg42
V3536
p517
sbag1
(g2
g3
NtRp518
(dp519
g50
V10.1016/S0378-1119(02)00888-0
p520
sg46
VGENE
p521
sg48
V297
p522
sg80
(lp523
(VSINGH
VA K
tp524
asg17
I2002
sg42
V11
p525
sbag1
(g2
g3
NtRp526
(dp527
g50
Nsg46
VMOL BIOL CYANOBACTER
p528
sg48
Nsg80
(lp529
(VSTRAUS
VN A
tp530
asg17
I1994
sg42
V731
p531
sbag1
(g2
g3
NtRp532
(dp533
g50
V10.1046/j.1365-2958.2001.02379.x
p534
sg46
VMOL MICROBIOL
p535
sg48
V40
p536
sg80
(lp537
(VSUZUKI
VI
tp538
asg17
I2001
sg42
V235
p539
sbag1
(g2
g3
NtRp540
(dp541
g50
Nsg46
VJ BACTERIOL
p542
sg48
V181
p543
sg80
(lp544
(VTAO
VH
tp545
asg17
I1999
sg42
V6425
p546
sbag1
(g2
g3
NtRp547
(dp548
g50
V10.1104/pp.127.3.1030
p549
sg46
VPLANT PHYSIOL
p550
sg48
V127
p551
sg80
(lp552
(VTHIMM
VO
tp553
asg17
I2001
sg42
VLANT
p554
sbag1
(g2
g3
NtRp555
(dp556
g50
V10.1016/S0966-842X(02)02319-3
p557
sg46
VTRENDS MICROBIOL
p558
sg48
V10
p559
sg80
(lp560
(VTING
VC S
tp561
asg17
I2002
sg42
V134
p562
sbag1
(g2
g3
NtRp563
(dp564
g50
V10.1111/j.1574-6968.1998.tb13336.x
p565
sg46
VFEMS MICROBIOL LETT
p566
sg48
V169
p567
sg80
(lp568
(VVINNEMEIER
VJ
tp569
asg17
I1998
sg42
V323
p570
sbag1
(g2
g3
NtRp571
(dp572
g50
V10.1073/pnas.222549199
p573
sg46
VP NATL ACAD SCI USA
p574
sg48
V99
p575
sg80
(lp576
(VWAYNE
VM L
tp577
asg17
I2002
sg42
V14903
p578
sbag1
(g2
g3
NtRp579
(dp580
g50
Nsg46
VRESAMPLING BASED MUL
p581
sg48
Nsg80
(lp582
(VWESTFALL
VP H
tp583
asg17
I1993
sg42
Nsbag1
(g2
g3
NtRp584
(dp585
g50
V10.1046/j.1365-2958.2002.02923.x
p586
sg46
VMOL MICROBIOL
p587
sg48
V44
p588
sg80
(lp589
(VWILDE
VA
tp590
asg17
I2002
sg42
V981
p591
sbag1
(g2
g3
NtRp592
(dp593
g50
V10.1089/106652701753307520
p594
sg46
VJ COMPUT BIOL
p595
sg48
V8
sg80
(lp596
(VWOLFINGER
VR D
tp597
asg17
I2001
sg42
V625
p598
sbag1
(g2
g3
NtRp599
(dp600
g50
V10.1016/S0005-2728(01)00208-0
p601
sg46
VBBA
p602
sg48
V1507
p603
sg80
(lp604
(VXU
VW
tp605
asg17
I2001
sg42
V32
p606
sbag1
(g2
g3
NtRp607
(dp608
g50
Nsg46
VGENOME BIOL
p609
sg48
V3
sg80
(lp610
(VYANG
VI V
tp611
asg17
I2002
sg42
Nsbag1
(g2
g3
NtRp612
(dp613
g50
Nsg46
VNAT REV GENET
p614
sg48
V3
sg80
(lp615
(VYANG
VY H
tp616
asg17
I2002
sg42
V579
p617
sbag1
(g2
g3
NtRp618
(dp619
g50
V10.1126/science.277.5331.1505
p620
sg46
VSCIENCE
p621
sg48
V277
p622
sg80
(lp623
(VYEH
VK C
tp624
asg17
I1997
sg42
V1505
p625
sbag1
(g2
g3
NtRp626
(dp627
g50
V10.1093/nar/29.8.e41
p628
sg46
VNUCLEIC ACIDS RES
p629
sg48
V29
p630
sg80
(lp631
(VYUE
VH B
tp632
asg17
I2001
sg42
Nsbag1
(g2
g3
NtRp633
(dp634
g50
V10.1038/35055589
p635
sg46
VNATURE
p636
sg48
V409
p637
sg80
(lp638
(VZOUNI
VA
tp639
asg17
I2001
sg42
V739
p640
sbasb.