ccopy_reg
_reconstructor
p1
(ctethne.classes.paper
Paper
p2
c__builtin__
object
p3
NtRp4
(dp5
S'publisherCity'
p6
VROCKVILLE
p7
sS'reprintAddress'
p8
VDeng, XW (reprint author), Peking Univ, Yale Joint Ctr Plant Mol Genet & Agrobiotechnol, Coll Life Sci, Beijing 100871, Peoples R China.
p9
sS'WC'
p10
VPlant Sciences
p11
sS'GA'
p12
V831AM
p13
sS'abstract'
p14
VHere, we report our effort in generating an ORFeome collection for the Arabidopsis transcription factor (TF) genes. In total, ORFeome clones representing 1,282 Arabidopsis TF genes have been obtained in the Gateway high throughput cloning pENTR vector, including 411 genes whose annotation lack cDNA support. All the ORFeome inserts have also been mobilized into a yeast expression destination vector, with an estimated 85% rate of expressing the respective proteins. Sequence analysis of these clones revealed that 34 of them did not match with either the reported cDNAs or current predicted open-reading-frame sequences. Among those, novel alternative splicing of TF gene transcripts is responsible for the observed differences in at least five genes. However, those alternative splicing events do not appear to be differentially regulated among distinct Arabidopsis tissues examined. Lastly, expression of those TF genes in 17 distinct Arabidopsis organ types and the cultured cells was profiled using a 70-mer oligo microarray.
p15
sS'pageEnd'
p16
I782
sS'date'
p17
I2004
sS'documentType'
p18
VArticle
p19
sS'subject'
p20
VPlant Sciences
p21
sS'isoSource'
p22
VPlant Physiol.
p23
sS'timesCited'
p24
(lp25
I93
aVZ9 130
p26
asS'PT'
p27
VJ
sS'title'
p28
VGenome-Wide Orfeome Cloning And Analysis Of Arabidopsis Transcription Factor Genes
p29
sS'ISSN'
p30
(lp31
V0032-0889
p32
aVJ9 PLANT PHYSIOL
p33
asS'authors_full'
p34
(lp35
(VGONG
VW
tp36
a(VSHEN
VYP
tp37
a(VMA
VLG
tp38
a(VPAN
VY
tp39
a(VDU
VYL
tp40
a(VWANG
VDH
tp41
a(VYANG
VJY
tp42
a(VHU
VLD
tp43
a(VLIU
VXF
tp44
a(VDONG
VCX
tp45
a(VMA
VL
tp46
a(VCHEN
VYH
tp47
a(VYANG
VXY
tp48
a(VGAO
VY
tp49
a(VZHU
VDM
tp50
a(VTAN
VXL
tp51
a(VMU
VJY
tp52
a(VZHANG
VDB
tp53
a(VLIU
VYL
tp54
a(VDINESHKUMAR
VSP
tp55
a(VLI
VY
tp56
a(VWANG
VXP
tp57
a(VGU
VHY
tp58
a(VQU
VLJ
tp59
a(VBAI
VSN
tp60
a(VLU
VYT
tp61
a(VLI
VJY
tp62
a(VZHAO
VJD
tp63
a(VZUO
VJR
tp64
a(VHUANG
VH
tp65
a(VDENG
VXW
tp66
a(VZHU
VYX
tp67
asS'PG'
p68
I10
sS'PD'
p69
VJUN
p70
sS'pageStart'
p71
I773
sS'issue'
p72
I2
sS'RI'
p73
VDinesh-Kumar, Savithramma/E-1153-2011; Liu, Yule/E-5700-2010
p74
sS'journal'
p75
VPLANT PHYSIOLOGY
p76
sS'volume'
p77
V135
p78
sS'doi'
p79
V10.1104/pp.104.042176
p80
sS'emailAddress'
p81
Vxingwang.deng@yale.edu; zhuyx@water.pku.edu.cn
p82
sS'authorAddress'
p83
(lp84
VPeking Univ, Yale Joint Ctr Plant Mol Genet & Agrobiotechnol, Coll Life Sci, Beijing 100871, Peoples R China.
p85
aVPeking Univ, Natl Lab Prot Engn & Plant Genet Engn, Beijing 100871, Peoples R China.
p86
aVFudan Univ, Dept Biochem, Sch Life Sci, State Key Lab Genet Engn, Shanghai 200433, Peoples R China.
p87
aVChinese Acad Sci, Inst Genet & Dev Biol, Beijing 100101, Peoples R China.
p88
aVWuhan Univ, Coll Life Sci, Key Lab MOE Plant Dev Biol, Wuhan 430072, Peoples R China.
p89
aVShanghai Jiao Tong Univ, Sch Life Sci & Biotechnol, Shanghai 200240, Peoples R China.
p90
aVYale Univ, Dept Mol Cellular & Dev Biol, New Haven, CT USA.
p91
aVShanghai Inst Plant Physiol & Ecol, Shanghai 200032, Peoples R China.
p92
asS'publisherAddress'
p93
V15501 MONONA DRIVE, ROCKVILLE, MD 20855 USA
p94
sS'ER'
p95
V
sS'publisher'
p96
VAMER SOC PLANT BIOLOGISTS
p97
sS'authorKeywords'
p98
(lp99
VMADS-BOX GENE
p100
aVFACTOR FAMILY
p101
aVSEEDLING DEVELOPMENT
p102
aVEXPRESSION
p103
aVPROTEIN
p104
aVTHALIANA
p105
aVAPETALA1
p106
aVENCODES
p107
aVPISTILLATA
p108
aVMERISTEMS
p109
asS'OI'
p110
VLiu, Yule/0000-0002-4423-6045
p111
sS'language'
p112
VEnglish
p113
sS'wosid'
p114
VWOS:000222165300022
p115
sS'citationCount'
p116
I35
sS'authors_init'
p117
(lp118
(VGONG
VW
tp119
a(VSHEN
VY P
tp120
a(VMA
VL G
tp121
a(VPAN
VY
tp122
a(VDU
VY L
tp123
a(VWANG
VD H
tp124
a(VYANG
VJ Y
tp125
a(VHU
VL D
tp126
a(VLIU
VX F
tp127
a(VDONG
VC X
tp128
a(VMA
VL
tp129
a(VCHEN
VY H
tp130
a(VYANG
VX Y
tp131
a(VGAO
VY
tp132
a(VZHU
VD M
tp133
a(VTAN
VX L
tp134
a(VMU
VJ Y
tp135
a(VZHANG
VD B
tp136
a(VLIU
VY L
tp137
a(VDINESHKUMAR
VS P
tp138
a(VLI
VY
tp139
a(VWANG
VX P
tp140
a(VGU
VH Y
tp141
a(VQU
VL J
tp142
a(VBAI
VS N
tp143
a(VLU
VY T
tp144
a(VLI
VJ Y
tp145
a(VZHAO
VJ D
tp146
a(VZUO
VJ R
tp147
a(VHUANG
VH
tp148
a(VDENG
VX W
tp149
a(VZHU
VY X
tp150
asS'citedReferences'
p151
(lp152
g1
(g2
g3
NtRp153
(dp154
g79
V10.1007/s004250100637
p155
sg75
VPLANTA
p156
sg77
V214
p157
sg117
(lp158
(VBURGEFF
VC
tp159
asg17
I2002
sg71
VLANTA
p160
sbag1
(g2
g3
NtRp161
(dp162
g79
V10.1105/tpc.010410
p163
sg75
VPLANT CELL
p164
sg77
V14
p165
sg117
(lp166
(VCHEN
VW Q
tp167
asg17
I2002
sg71
VLANT
p168
sbag1
(g2
g3
NtRp169
(dp170
g79
V10.1101/gad.1116703
p171
sg75
VGENE DEV
p172
sg77
V17
p173
sg117
(lp174
(VDIMOVA
VD K
tp175
asg17
I2003
sg71
V2308
p176
sbag1
(g2
g3
NtRp177
(dp178
g79
V10.1046/j.1365-313X.1996.10020343.x
p179
sg75
VPLANT J
p180
sg77
V10
p181
sg117
(lp182
(VFLANAGAN
VC A
tp183
asg17
I1996
sg71
VLANT
p184
sbag1
(g2
g3
NtRp185
(dp186
g79
V10.1007/BF00013745
p187
sg75
VPLANT MOL BIOL
p188
sg77
V26
p189
sg117
(lp190
(VFLANAGAN
VC A
tp191
asg17
I1994
sg71
VLANT
p192
sbag1
(g2
g3
NtRp193
(dp194
g79
V10.1101/gad.8.13.1548
p195
sg75
VGENE DEV
p196
sg77
V8
sg117
(lp197
(VGOTO
VK
tp198
asg17
I1994
sg71
V1548
p199
sbag1
(g2
g3
NtRp200
(dp201
g79
V10.1146/annurev.cellbio.16.1.653
p202
sg75
VANNU REV CELL DEV BI
p203
sg77
V16
p204
sg117
(lp205
(VGRANDORI
VC
tp206
asg17
I2000
sg71
V653
p207
sbag1
(g2
g3
NtRp208
(dp209
g79
V10.1093/molbev/msg088
p210
sg75
VMOL BIOL EVOL
p211
sg77
V20
p212
sg117
(lp213
(VHEIM
VM A
tp214
asg17
I2003
sg71
V735
p215
sbag1
(g2
g3
NtRp216
(dp217
g79
Nsg75
VDEVELOPMENT
p218
sg77
V127
p219
sg117
(lp220
(VHONMA
VT
tp221
asg17
I2000
sg71
V2021
p222
sbag1
(g2
g3
NtRp223
(dp224
g79
V10.1038/35054083
p225
sg75
VNATURE
p226
sg77
V409
p227
sg117
(lp228
(VHONMA
VT
tp229
asg17
I2001
sg71
V525
p230
sbag1
(g2
g3
NtRp231
(dp232
g79
V10.1105/tpc.002733
p233
sg75
VPLANT CELL
p234
sg77
V14
p235
sg117
(lp236
(VHOSODA
VK
tp237
asg17
I2002
sg71
VLANT
p238
sbag1
(g2
g3
NtRp239
(dp240
g79
V10.1007/BF00020401
p241
sg75
VPLANT MOL BIOL
p242
sg77
V28
p243
sg117
(lp244
(VHUANG
VH
tp245
asg17
I1995
sg71
VLANT
p246
sbag1
(g2
g3
NtRp247
(dp248
g79
V10.1016/0092-8674(92)90144-2
p249
sg75
VCELL
p250
sg77
V68
p251
sg117
(lp252
(VJACK
VT
tp253
asg17
I1992
sg71
V683
p254
sbag1
(g2
g3
NtRp255
(dp256
g79
V10.1104/pp.103.029439
p257
sg75
VPLANT PHYSIOL
p258
sg77
V133
p259
sg117
(lp260
(VJIAO
VY L
tp261
asg17
I2003
sg71
VLANT
p262
sbag1
(g2
g3
NtRp263
(dp264
g79
V10.1093/molbev/msg216
p265
sg75
VMOL BIOL EVOL
p266
sg77
V20
p267
sg117
(lp268
(VKOFUJI
VR
tp269
asg17
I2003
sg71
V1963
p270
sbag1
(g2
g3
NtRp271
(dp272
g79
V10.1101/gad.257403
p273
sg75
VGENE DEV
p274
sg77
V17
p275
sg117
(lp276
(VKOHLER
VC
tp277
asg17
I2003
sg71
V1540
p278
sbag1
(g2
g3
NtRp279
(dp280
g79
V10.1101/gad.5.3.484
p281
sg75
VGENE DEV
p282
sg77
V5
sg117
(lp283
(VMA
VH
tp284
asg17
I1991
sg71
V484
p285
sbag1
(g2
g3
NtRp286
(dp287
g79
V10.1242/dev.00281
p288
sg75
VDEVELOPMENT
p289
sg77
V130
p290
sg117
(lp291
(VMA
VL G
tp292
asg17
I2003
sg71
V969
p293
sbag1
(g2
g3
NtRp294
(dp295
g79
V10.1023/A:1005821518242
p296
sg75
VPLANT MOL BIOL
p297
sg77
V35
p298
sg117
(lp299
(VMAGARAGGIA
VF
tp300
asg17
I1997
sg71
VLANT
p301
sbag1
(g2
g3
NtRp302
(dp303
g79
Nsg75
VNATURE
p304
sg77
V360
p305
sg117
(lp306
(VMANDEL
VM A
tp307
asg17
I1992
sg71
V273
p308
sbag1
(g2
g3
NtRp309
(dp310
g79
V10.1105/tpc.7.11.1763
p311
sg75
VPLANT CELL
p312
sg77
V7
sg117
(lp313
(VMANDEL
VM A
tp314
asg17
I1995
sg71
VLANT
p315
sbag1
(g2
g3
NtRp316
(dp317
g79
V10.1105/tpc.11.5.949
p318
sg75
VPLANT CELL
p319
sg77
V11
p320
sg117
(lp321
(VMICHAELS
VS D
tp322
asg17
I1999
sg71
VLANT
p323
sbag1
(g2
g3
NtRp324
(dp325
g79
V10.1105/tpc.13.4.739
p326
sg75
VPLANT CELL
p327
sg77
V13
p328
sg117
(lp329
(VNG
VM
tp330
asg17
I2001
sg71
VLANT
p331
sbag1
(g2
g3
NtRp332
(dp333
g79
V10.1105/tpc.011544
p334
sg75
VPLANT CELL
p335
sg77
V15
p336
sg117
(lp337
(VPARENICOVA
VL
tp338
asg17
I2003
sg71
VLANT
p339
sbag1
(g2
g3
NtRp340
(dp341
g79
V10.1126/science.290.5499.2105
p342
sg75
VSCIENCE
p343
sg77
V290
p344
sg117
(lp345
(VRIECHMANN
VJ L
tp346
asg17
I2000
sg71
V2105
p347
sbag1
(g2
g3
NtRp348
(dp349
g79
V10.1016/S1369-5266(00)00107-2
p350
sg75
VCURR OPIN PLANT BIOL
p351
sg77
V3
sg117
(lp352
(VRIECHMANN
VJ L
tp353
asg17
I2000
sg71
V423
p354
sbag1
(g2
g3
NtRp355
(dp356
g79
VDOI 10.1199/TAB.0085
p357
sg75
VARABIDOPSIS BOOK
p358
sg77
Nsg117
(lp359
(VRIECHMANN
VJ L
tp360
asg17
I2002
sg71
Nsbag1
(g2
g3
NtRp361
(dp362
g79
V10.1038/13732
p363
sg75
VNAT BIOTECHNOL
p364
sg77
V17
p365
sg117
(lp366
(VRIGAUT
VG
tp367
asg17
I1999
sg71
V1030
p368
sbag1
(g2
g3
NtRp369
(dp370
g79
V10.1105/tpc.7.8.1259
p371
sg75
VPLANT CELL
p372
sg77
V7
sg117
(lp373
(VROUNSLEY
VS D
tp374
asg17
I1995
sg71
VLANT
p375
sbag1
(g2
g3
NtRp376
(dp377
g79
V10.1126/science.1071006
p378
sg75
VSCIENCE
p379
sg77
V296
p380
sg117
(lp381
(VSEKI
VM
tp382
asg17
I2002
sg71
V141
p383
sbag1
(g2
g3
NtRp384
(dp385
g79
V10.1016/S1369-5266(00)00067-4
p386
sg75
VCURR OPIN PLANT BIOL
p387
sg77
V3
sg117
(lp388
(VSHINOZAKI
VK
tp389
asg17
I2000
sg71
V217
p390
sbag1
(g2
g3
NtRp391
(dp392
g79
V10.1104/pp.010926
p393
sg75
VPLANT PHYSIOL
p394
sg77
V129
p395
sg117
(lp396
(VSHUAI
VB
tp397
asg17
I2002
sg71
VLANT
p398
sbag1
(g2
g3
NtRp399
(dp400
g79
Nsg75
VNATURE
p401
sg77
V408
p402
sg117
(lp403
(VKAUL
VS
tp404
asg17
I2000
sg71
V796
p405
sbag1
(g2
g3
NtRp406
(dp407
g79
V10.1105/tpc.013839
p408
sg75
VPLANT CELL
p409
sg77
V15
p410
sg117
(lp411
(VTOLEDO-ORTIZ
VG
tp412
asg17
I2003
sg71
VLANT
p413
sbag1
(g2
g3
NtRp414
(dp415
g79
V10.1126/science.1088305
p416
sg75
VSCIENCE
p417
sg77
V302
p418
sg117
(lp419
(VYAMADA
VK
tp420
asg17
I2003
sg71
V842
p421
sbasb.