ccopy_reg
_reconstructor
p1
(ctethne.classes.paper
Paper
p2
c__builtin__
object
p3
NtRp4
(dp5
S'publisherCity'
p6
VROCKVILLE
p7
sS'reprintAddress'
p8
Vvon Wiren, N (reprint author), Univ Hohenheim, Inst Pflanzenernahrung, Postfach 700562, D-70593 Stuttgart, Germany.
p9
sS'WC'
p10
VPlant Sciences
p11
sS'GA'
p12
V744QX
p13
sS'abstract'
p14
VUrea is the major nitrogen (N) form supplied as fertilizer in agricultural plant production and also an important N metabolite in plants. Because urea transport in plants is not well understood, the aim of the present study was to isolate urea transporter genes from the model plant Arabidopsis. Using heterologous complementation of a urea uptake-defective yeast (Saccharomyces cerevisiae) mutant allowed to isolate AtTIP1;1, AtTIP1;2, AtTIP2;1, and AtTIP4;1 from a cDNA library of Arabidopsis. These cDNAs encode channel-like tonoplast intrinsic proteins (TIPs) that belong to the superfamily of major intrinsic proteins (or aquaporins). All four genes conferred growth of a urea uptake-defective yeast mutant on 2 mm urea in a phloretin-sensitive and pH-independent manner. Uptake studies using C-14-labeled urea into AtTIP2;1-expressing Xenopus laevis oocytes demonstrated that AtTIP2;1 facilitated urea transport also in a pH-independent manner and with linear concentration dependency. Expression studies showed that AtTIP1;2, AtTIP2;1, and AtTIP4;1 genes were up-regulated during early germination and under N deficiency in roots but constitutively expressed in shoots. Subcellular localization of green fluorescent protein-fused AtTIPs indicated that AtTIP1;2, AtTIP2;1, and AtTIP4;1 were targeted mainly to the tonoplast and other endomembranes. Thus, in addition to their role as water channels, TIP transporters may play a role in equilibrating urea concentrations between different cellular compartments.
p15
sS'pageEnd'
p16
I1228
sS'publisherAddress'
p17
V15501 MONONA DRIVE, ROCKVILLE, MD 20855 USA
p18
sS'documentType'
p19
VArticle
p20
sS'subject'
p21
VPlant Sciences
p22
sS'isoSource'
p23
VPlant Physiol.
p24
sS'timesCited'
p25
(lp26
I84
aVZ9 98
p27
asS'PT'
p28
VJ
sS'title'
p29
VUrea Transport By Nitrogen-Regulated Tonoplast Intrinsic Proteins In Arabidopsis
p30
sS'ISSN'
p31
(lp32
V0032-0889
p33
aVJ9 PLANT PHYSIOL
p34
asS'authors_full'
p35
(lp36
(VLIU
VLH
tp37
a(VLUDEWIG
VU
tp38
a(VGASSERT
VB
tp39
a(VFROMMER
VWB
tp40
a(VVON WIREN
VN
tp41
asS'PG'
p42
I9
sS'PD'
p43
VNOV
p44
sS'pageStart'
p45
I1220
sS'issue'
p46
I3
sS'RI'
p47
VFrommer, Wolf/A-8256-2008
p48
sS'journal'
p49
VPLANT PHYSIOLOGY
p50
sS'volume'
p51
V133
p52
sS'doi'
p53
V10.1104/pp.103.027409
p54
sS'authorAddress'
p55
(lp56
VUniv Hohenheim, Inst Pflanzenernahrung, D-70593 Stuttgart, Germany.
p57
aVUniv Tubingen, Zentrum Mol Biol Pflanzen, D-72076 Tubingen, Germany.
p58
aVUniv Tubingen, Zentrum Pflanzenphysiol, D-72076 Tubingen, Germany.
p59
aVUniv Cambridge, Dept Plant Sci, Cambridge CB2 3EA, England.
p60
aVCarnegie Inst, Stanford, CA 94305 USA.
p61
asS'date'
p62
I2003
sS'ER'
p63
V
sS'publisher'
p64
VAMER SOC PLANT BIOLOGISTS
p65
sS'authorKeywords'
p66
(lp67
VVACUOLAR MEMBRANE
p68
aVMOLECULAR CHARACTERIZATION
p69
aVSACCHAROMYCES-CEREVISIAE
p70
aVCHARA-AUSTRALIS
p71
aVWATER
p72
aVPLANT
p73
aVPERMEABILITY
p74
aVEXPRESSION
p75
aVGENES
p76
aVCELL
p77
asS'language'
p78
VEnglish
p79
sS'wosid'
p80
VWOS:000186644600027
p81
sS'citationCount'
p82
I61
sS'authors_init'
p83
(lp84
(VLIU
VL H
tp85
a(VLUDEWIG
VU
tp86
a(VGASSERT
VB
tp87
a(VFROMMER
VW B
tp88
a(VVON WIREN
VN
tp89
asS'citedReferences'
p90
(lp91
g1
(g2
g3
NtRp92
(dp93
g53
V10.1126/science.289.5488.2338
p94
sg49
VSCIENCE
p95
sg51
V289
p96
sg83
(lp97
(VALLEN
VG J
tp98
asg62
I2000
sg45
V2338
p99
sbag1
(g2
g3
NtRp100
(dp101
g53
V10.1046/j.1365-313X.1996.10010107.x
p102
sg49
VPLANT J
p103
sg51
V10
p104
sg83
(lp105
(VAN
VY Q
tp106
asg62
I1996
sg45
VLANT
p107
sbag1
(g2
g3
NtRp108
(dp109
g53
V10.1016/S1360-1385(99)01388-6
p110
sg49
VTRENDS PLANT SCI
p111
sg51
V4
sg83
(lp112
(VBARKLA
VB J
tp113
asg62
I1999
sg45
V86
p114
sbag1
(g2
g3
NtRp115
(dp116
g53
V10.1007/BF01055400
p117
sg49
VFERT RES
p118
sg51
V20
p119
sg83
(lp120
(VBRADLEY
VD P
tp121
asg62
I1989
sg45
V41
p122
sbag1
(g2
g3
NtRp123
(dp124
g53
V10.1104/pp.85.3.801
p125
sg49
VPLANT PHYSIOL
p126
sg51
V85
p127
sg83
(lp128
(VBROWN
VP H
tp129
asg62
I1987
sg45
VLANT
p130
sbag1
(g2
g3
NtRp131
(dp132
g53
V10.1021/bi015586w
p133
sg49
VBIOCHEMISTRY
p134
sg51
V40
p135
sg83
(lp136
(VCLOHERTY
VE K
tp137
asg62
I2001
sg45
V15549
p138
sbag1
(g2
g3
NtRp139
(dp140
g53
V10.1016/0926-6577(64)90044-0
p141
sg49
VBIOCHIM BIOPHYS ACTA
p142
sg51
V79
p143
sg83
(lp144
(VDAINTY
VJ
tp145
asg62
I1964
sg45
V112
p146
sbag1
(g2
g3
NtRp147
(dp148
g53
V10.1105/tpc.8.4.587
p149
sg49
VPLANT CELL
p150
sg51
V8
sg83
(lp151
(VDANIELS
VM J
tp152
asg62
I1996
sg45
VLANT
p153
sbag1
(g2
g3
NtRp154
(dp155
g53
V10.1105/tpc.010458
p156
sg49
VPLANT CELL
p157
sg51
V14
p158
sg83
(lp159
(VDESIMONE
VM
tp160
asg62
I2002
sg45
VLANT
p161
sbag1
(g2
g3
NtRp162
(dp163
g53
Nsg49
VJ PHYSIOL BIOCHEM
p164
sg51
V54
p165
sg83
(lp166
(VECHEVARRIA
VM
tp167
asg62
I1998
sg45
V107
p168
sbag1
(g2
g3
NtRp169
(dp170
g53
V10.1093/jexbot/50.339.1541
p171
sg49
VJ EXP BOT
p172
sg51
V50
p173
sg83
(lp174
(VECKERT
VM
tp175
asg62
I1999
sg45
V1541
p176
sbag1
(g2
g3
NtRp177
(dp178
g53
Nsg49
VJ BACTERIOL
p179
sg51
V175
p180
sg83
(lp181
(VELBERRY
VH M
tp182
asg62
I1993
sg45
V4688
p183
sbag1
(g2
g3
NtRp184
(dp185
g53
Nsg49
VPlant Physiology
p186
sg51
V119
p187
sg83
(lp188
(VFREYERMUTH
VS K
tp189
asg62
I1999
sg45
Vlant
p190
sbag1
(g2
g3
NtRp191
(dp192
g53
V10.3109/13813457109104847
p193
sg49
VARCH INT PHYS BIOCH
p194
sg51
V79
p195
sg83
(lp196
(VGALLUCCI
VE
tp197
asg62
I1971
sg45
V881
p198
sbag1
(g2
g3
NtRp199
(dp200
g53
Nsg49
VAGRON TROP
p201
sg51
V42
p202
sg83
(lp203
(VGAUDIN
VR
tp204
asg62
I1987
sg45
V13
p205
sbag1
(g2
g3
NtRp206
(dp207
g53
V10.1105/tpc.11.5.937
p208
sg49
VPLANT CELL
p209
sg51
V11
p210
sg83
(lp211
(VGAZZARRINI
VS
tp212
asg62
I1999
sg45
VLANT
p213
sbag1
(g2
g3
NtRp214
(dp215
g53
V10.1046/j.1365-313x.1999.00481.x
p216
sg49
VPLANT J
p217
sg51
V18
p218
sg83
(lp219
(VGERBEAU
VP
tp220
asg62
I1999
sg45
VLANT
p221
sbag1
(g2
g3
NtRp222
(dp223
g53
V10.1093/jexbot/49.326.1545
p224
sg49
VJ EXP BOT
p225
sg51
V49
p226
sg83
(lp227
(VGERENDAS
VJ
tp228
asg62
I1998
sg45
V1545
p229
sbag1
(g2
g3
NtRp230
(dp231
g53
V10.1104/pp.119.1.297
p232
sg49
VPLANT PHYSIOL
p233
sg51
V119
p234
sg83
(lp235
(VGOLDRAIJ
VA
tp236
asg62
I1999
sg45
VLANT
p237
sbag1
(g2
g3
NtRp238
(dp239
g53
V10.1113/jphysiol.2002.028209
p240
sg49
VJ PHYSIOL
p241
sg51
V544
p242
sg83
(lp243
(VHELLIWELL
VP A
tp244
asg62
I2002
sg45
V579
p245
sbag1
(g2
g3
NtRp246
(dp247
g53
V10.1093/jxb/39.11.1505
p248
sg49
VJ EXP BOT
p249
sg51
V39
p250
sg83
(lp251
(VHINE
VJ C
tp252
asg62
I1988
sg45
V1505
p253
sbag1
(g2
g3
NtRp254
(dp255
g53
V10.1038/sj.bjp.0704274
p256
sg49
VBRIT J PHARMACOL
p257
sg51
V134
p258
sg83
(lp259
(VHIRAYAMA
VB A
tp260
asg62
I2001
sg45
V484
p261
sbag1
(g2
g3
NtRp262
(dp263
g53
Nsg49
VPLANTA
p264
sg51
V200
p265
sg83
(lp266
(VHOARAU
VJ
tp267
asg62
I1996
sg45
VLANTA
p268
sbag1
(g2
g3
NtRp269
(dp270
g53
V10.1104/pp.99.2.561
p271
sg49
VPLANT PHYSIOL
p272
sg51
V99
p273
sg83
(lp274
(VHOFTE
VH
tp275
asg62
I1992
sg45
VLANT
p276
sbag1
(g2
g3
NtRp277
(dp278
g53
V10.1074/jbc.272.33.20782
p279
sg49
VJ BIOL CHEM
p280
sg51
V272
p281
sg83
(lp282
(VISHIBASHI
VK
tp283
asg62
I1997
sg45
V20782
p284
sbag1
(g2
g3
NtRp285
(dp286
g53
V10.1073/pnas.91.14.6269
p287
sg49
VP NATL ACAD SCI USA
p288
sg51
V91
p289
sg83
(lp290
(VISHIBASHI
VK
tp291
asg62
I1994
sg45
V6269
p292
sbag1
(g2
g3
NtRp293
(dp294
g53
Nsg49
VBIOCHIM BIOPHYS ACTA
p295
sg51
V19
p296
sg83
(lp297
(VISHIBASHI
VK
tp298
asg62
I2002
sg45
V335
p299
sbag1
(g2
g3
NtRp300
(dp301
g53
V10.1016/S0167-4781(98)00094-3
p302
sg49
VBBA
p303
sg51
V1399
p304
sg83
(lp305
(VISHIBASHI
VK
tp306
asg62
I1998
sg45
V62
p307
sbag1
(g2
g3
NtRp308
(dp309
g53
V10.1104/pp.126.4.1358
p310
sg49
VPLANT PHYSIOL
p311
sg51
V126
p312
sg83
(lp313
(VJOHANSON
VU
tp314
asg62
I2001
sg45
VLANT
p315
sbag1
(g2
g3
NtRp316
(dp317
g53
V10.1046/j.1365-313X.1994.6020187.x
p318
sg49
VPLANT J
p319
sg51
V6
sg83
(lp320
(VKAMMERLOHER
VW
tp321
asg62
I1994
sg45
VLANT
p322
sbag1
(g2
g3
NtRp323
(dp324
g53
V10.1080/01904168509363329
p325
sg49
VJ PLANT NUTR
p326
sg51
V8
sg83
(lp327
(VKLEIN
VI
tp328
asg62
I1985
sg45
V117
p329
sbag1
(g2
g3
NtRp330
(dp331
g53
V10.1073/pnas.86.21.8189
p332
sg49
VP NATL ACAD SCI USA
p333
sg51
V86
p334
sg83
(lp335
(VKROGMEIER
VM J
tp336
asg62
I1989
sg45
V8189
p337
sbag1
(g2
g3
NtRp338
(dp339
g53
V10.1105/tpc.007120
p340
sg49
VPLANT CELL
p341
sg51
V15
p342
sg83
(lp343
(VLIU
VL H
tp344
asg62
I2003
sg45
VLANT
p345
sbag1
(g2
g3
NtRp346
(dp347
g53
V10.1074/jbc.M200739200
p348
sg49
VJ BIOL CHEM
p349
sg51
V277
p350
sg83
(lp351
(VLUDEWIG
VU
tp352
asg62
I2002
sg45
V13548
p353
sbag1
(g2
g3
NtRp354
(dp355
g53
Nsg49
VAM J PHYSIOL
p356
sg51
V246
p357
sg83
(lp358
(VMACEY
VR I
tp359
asg62
I1984
sg45
V195
p360
sbag1
(g2
g3
NtRp361
(dp362
g53
V10.1023/A:1006013130681
p363
sg49
VPLANT MOL BIOL
p364
sg51
V38
p365
sg83
(lp366
(VMARIAUX
VJ B
tp367
asg62
I1998
sg45
VLANT
p368
sbag1
(g2
g3
NtRp369
(dp370
g53
V10.1146/annurev.arplant.48.1.399
p371
sg49
VANNU REV PLANT PHYS
p372
sg51
V48
p373
sg83
(lp374
(VMAUREL
VC
tp375
asg62
I1997
sg45
V399
p376
sbag1
(g2
g3
NtRp377
(dp378
g53
Nsg49
VEMBO J
p379
sg51
V12
p380
sg83
(lp381
(VMAUREL
VC
tp382
asg62
I1993
sg45
V2241
p383
sbag1
(g2
g3
NtRp384
(dp385
g53
V10.1046/j.1365-313X.1996.10061177.x
p386
sg49
VPLANT J
p387
sg51
V10
p388
sg83
(lp389
(VMERKLE
VT
tp390
asg62
I1996
sg45
VLANT
p391
sbag1
(g2
g3
NtRp392
(dp393
g53
Nsg49
VPLANT J
p394
sg51
V2
sg83
(lp395
(VMINET
VM
tp396
asg62
I1992
sg45
VLANT
p397
sbag1
(g2
g3
NtRp398
(dp399
g53
V10.1007/BF00015814
p400
sg49
VPLANT MOL BIOL
p401
sg51
V8
sg83
(lp402
(VNEGRUTIU
VI
tp403
asg62
I1987
sg45
VLANT
p404
sbag1
(g2
g3
NtRp405
(dp406
g53
V10.1104/pp.121.1.301
p407
sg49
VPLANT PHYSIOL
p408
sg51
V121
p409
sg83
(lp410
(VOLIVEIRA
VI C
tp411
asg62
I1999
sg45
VLANT
p412
sbag1
(g2
g3
NtRp413
(dp414
g53
Nsg49
VAUST J PLANT PHYSIOL
p415
sg51
V18
p416
sg83
(lp417
(VPALTA
VJ A
tp418
asg62
I1991
sg45
V627
p419
sbag1
(g2
g3
NtRp420
(dp421
g53
V10.1146/annurev.physiol.65.092101.142638
p422
sg49
VANNU REV PHYSIOL
p423
sg51
V65
p424
sg83
(lp425
(VSANDS
VJ M
tp426
asg62
I2003
sg45
V543
p427
sbag1
(g2
g3
NtRp428
(dp429
g53
V10.1105/tpc.000901
p430
sg49
VPLANT CELL
p431
sg51
V14
p432
sg83
(lp433
(VSIEFRITZ
VF
tp434
asg62
I2002
sg45
VLANT
p435
sbag1
(g2
g3
NtRp436
(dp437
g53
V10.1007/s002030050591
p438
sg49
VARCH MICROBIOL
p439
sg51
V169
p440
sg83
(lp441
(VSIEWE
VR M
tp442
asg62
I1998
sg45
V411
p443
sbag1
(g2
g3
NtRp444
(dp445
g53
V10.1093/pcp/pce085
p446
sg49
VPLANT CELL PHYSIOL
p447
sg51
V42
p448
sg83
(lp449
(VSMART
VL B
tp450
asg62
I2001
sg45
VLANT
p451
sbag1
(g2
g3
NtRp452
(dp453
g53
V10.1104/pp.116.4.1539
p454
sg49
VPLANT PHYSIOL
p455
sg51
V116
p456
sg83
(lp457
(VSMART
VL B
tp458
asg62
I1998
sg45
VLANT
p459
sbag1
(g2
g3
NtRp460
(dp461
g53
V10.1007/s00232-001-0048-7
p462
sg49
VJ MEMBRANE BIOL
p463
sg51
V183
p464
sg83
(lp465
(VSMITH
VC P
tp466
asg62
I2001
sg45
V1
sbag1
(g2
g3
NtRp467
(dp468
g53
V10.1146/annurev.pp.20.060169.003101
p469
sg49
VANN REV PLANT PHYSIO
p470
sg51
V20
p471
sg83
(lp472
(VSTADELMAEJ
S''
tp473
asg62
I1969
sg45
V585
p474
sbag1
(g2
g3
NtRp475
(dp476
g53
V10.1074/jbc.273.38.24737
p477
sg49
VJ BIOL CHEM
p478
sg51
V273
p479
sg83
(lp480
(VTSUKAGUCHI
VH
tp481
asg62
I1998
sg45
V24737
p482
sbag1
(g2
g3
NtRp483
(dp484
g53
V10.1093/jexbot/50.suppl_1.1055
p485
sg49
VJ EXP BOT
p486
sg51
V50
p487
sg83
(lp488
(VTYERMAN
VS D
tp489
asg62
I1999
sg45
V1055
p490
sbag1
(g2
g3
NtRp491
(dp492
g53
V10.1046/j.1365-2958.2002.02778.x
p493
sg49
VMOL MICROBIOL
p494
sg51
V43
p495
sg83
(lp496
(VVALLADARES
VA
tp497
asg62
I2002
sg45
V703
p498
sbag1
(g2
g3
NtRp499
(dp500
g53
V10.1104/pp.127.1.345
p501
sg49
VPLANT PHYSIOL
p502
sg51
V127
p503
sg83
(lp504
(VWANG
VY H
tp505
asg62
I2001
sg45
VLANT
p506
sbag1
(g2
g3
NtRp507
(dp508
g53
V10.1104/pp.114.4.1347
p509
sg49
VPLANT PHYSIOL
p510
sg51
V114
p511
sg83
(lp512
(VWEIG
VA
tp513
asg62
I1997
sg45
VLANT
p514
sbag1
(g2
g3
NtRp515
(dp516
g53
V10.1016/S0014-5793(99)01698-1
p517
sg49
VFEBS LETT
p518
sg51
V464
p519
sg83
(lp520
(VWIECZORKE
VR
tp521
asg62
I1999
sg45
V123
p522
sbag1
(g2
g3
NtRp523
(dp524
g53
V10.1093/jxb/39.6.763
p525
sg49
VJ EXP BOT
p526
sg51
V39
p527
sg83
(lp528
(VWILSON
VM R
tp529
asg62
I1988
sg45
V763
p530
sbag1
(g2
g3
NtRp531
(dp532
g53
V10.1093/jxb/39.6.739
p533
sg49
VJ EXP BOT
p534
sg51
V39
p535
sg83
(lp536
(VWILSON
VM R
tp537
asg62
I1988
sg45
V739
p538
sbag1
(g2
g3
NtRp539
(dp540
g53
Nsg49
VPLANT CELL
p541
sg51
V7
sg83
(lp542
(VYAMADA
VS
tp543
asg62
I1995
sg45
VLANT
p544
sbag1
(g2
g3
NtRp545
(dp546
g53
V10.1074/jbc.M206948200
p547
sg49
VJ BIOL CHEM
p548
sg51
V277
p549
sg83
(lp550
(VYANG
VB X
tp551
asg62
I2002
sg45
V36782
p552
sbag1
(g2
g3
NtRp553
(dp554
g53
V10.1038/365844a0
p555
sg49
VNATURE
p556
sg51
V365
p557
sg83
(lp558
(VYOU
VG F
tp559
asg62
I1993
sg45
V844
p560
sbasb.