ccopy_reg
_reconstructor
p1
(ctethne.classes.paper
Paper
p2
c__builtin__
object
p3
NtRp4
(dp5
S'publisherCity'
p6
VROCKVILLE
p7
sS'reprintAddress'
p8
VHirschi, KD (reprint author), Baylor Coll Med, Childrens Nutr Res Ctr, USDA ARS, 1100 Bates St, Houston, TX 77030 USA.
p9
sS'WC'
p10
VPlant Sciences
p11
sS'GA'
p12
V605BC
p13
sS'abstract'
p14
VThe regulation of intracellular Ca2+ levels is achieved in part by high-capacity vacuolar Ca2+/H+ antiporters. An N-terminal regulatory region (NRR) on the Arabidopsis Ca2+/H+ antiporter CAM (cation exchanger 1) has been shown previously to regulate Ca2+ transport by a mechanism of N-terminal auto-inhibition. Here, we examine the regulation of other CAX transporters, both within Arabidopsis and from another plant, mung bean (Vigna radiata), to ascertain if this mechanism is commonly used among Ca2+/H+ antiporters. Biochemical analysis of mung bean VCAX1 expressed in yeast (Saccharomyces cerevisiae) showed that N-terminal truncated VCAX1 had approximately 70% greater antiport activity compared with full-length VCAX1. A synthetic peptide corresponding to the NRR of CAM, which can strongly inhibit Ca2+ transport by CAX1, could not dramatically inhibit Ca2+ transport by truncated VCAX1. The N terminus of Arabidopsis CAX3 was also shown to contain an NRR. Additions of either the CAX3 or VCAX1 regulatory regions to the N terminus of an N-terminal truncated CAX1 failed to inhibit CAM activity. When fused to N-terminal truncated CAM, both the CAX3 and VCAX1 regulatory regions could only auto-inhibit CAM after mutagenesis of specific amino acids within this NRR region. These findings demonstrate that N-terminal regulation is present in other plant CAX transporters, and suggest distinct regulatory features among these transporters.
p15
sS'pageEnd'
p16
I1062
sS'publisherAddress'
p17
V15501 MONONA DRIVE, ROCKVILLE, MD 20855 USA
p18
sS'documentType'
p19
VArticle
p20
sS'subject'
p21
VPlant Sciences
p22
sS'isoSource'
p23
VPlant Physiol.
p24
sS'timesCited'
p25
(lp26
I38
aVZ9 43
p27
asS'PT'
p28
VJ
sS'title'
p29
VDistinct N-Terminal Regulatory Domains Of Ca2+/H+ Antiporters
p30
sS'ISSN'
p31
(lp32
V0032-0889
p33
aVJ9 PLANT PHYSIOL
p34
asS'authors_full'
p35
(lp36
(VPITTMAN
VJK
tp37
a(VSREEVIDYA
VCS
tp38
a(VSHIGAKI
VT
tp39
a(VUEOKANAKANISHI
VH
tp40
a(VHIRSCHI
VKD
tp41
asS'PG'
p42
I9
sS'PD'
p43
VOCT
p44
sS'pageStart'
p45
I1054
sS'issue'
p46
I2
sS'journal'
p47
VPLANT PHYSIOLOGY
p48
sS'volume'
p49
V130
p50
sS'doi'
p51
V10.1104/pp.008193
p52
sS'authorAddress'
p53
(lp54
VBaylor Coll Med, Childrens Nutr Res Ctr, USDA ARS, Houston, TX 77030 USA.
p55
aVTokyo Inst Technol, Bioresources Div, Yokohama, Kanagawa 2268503, Japan.
p56
aVTexas A&M Univ, Vegetable & Fruit Improvement Ctr, College Stn, TX 77845 USA.
p57
asS'date'
p58
I2002
sS'ER'
p59
V
sS'publisher'
p60
VAMER SOC PLANT BIOLOGISTS
p61
sS'authorKeywords'
p62
(lp63
VSACCHAROMYCES-CEREVISIAE
p64
aVAUTOINHIBITORY DOMAIN
p65
aVH+/CA2+ ANTIPORTER
p66
aVARABIDOPSIS
p67
aVCALCIUM
p68
aVEXPRESSION
p69
aVCAX1
p70
aVIDENTIFICATION
p71
aVTOBACCO
p72
aVACCUMULATION
p73
asS'language'
p74
VEnglish
p75
sS'wosid'
p76
VWOS:000178654700048
p77
sS'citationCount'
p78
I31
sS'authors_init'
p79
(lp80
(VPITTMAN
VJ K
tp81
a(VSREEVIDYA
VC S
tp82
a(VSHIGAKI
VT
tp83
a(VUEOKANAKANISHI
VH
tp84
a(VHIRSCHI
VK D
tp85
asS'citedReferences'
p86
(lp87
g1
(g2
g3
NtRp88
(dp89
g51
Nsg47
VCURRENT PROTOCOLS MO
p90
sg49
Nsg79
(lp91
(VAUSUBEL
VF M
tp92
asg58
I1998
sg45
Nsbag1
(g2
g3
NtRp93
(dp94
g51
Nsg47
VJ BIOL CHEM
p95
sg49
V265
p96
sg79
(lp97
(VBLACKFORD
VS
tp98
asg58
I1990
sg45
V9617
p99
sbag1
(g2
g3
NtRp100
(dp101
g51
Nsg47
VPHYSIOL REV
p102
sg49
V79
p103
sg79
(lp104
(VBLAUSTEIN
VM P
tp105
asg58
I1999
sg45
VHYSIOL
p106
sbag1
(g2
g3
NtRp107
(dp108
g51
V10.1104/pp.80.3.727
p109
sg47
VPLANT PHYSIOL
p110
sg49
V80
p111
sg79
(lp112
(VBLUMWALD
VE
tp113
asg58
I1986
sg45
VLANT
p114
sbag1
(g2
g3
NtRp115
(dp116
g51
V10.1104/pp.010857
p117
sg47
VPLANT PHYSIOL
p118
sg49
V128
p119
sg79
(lp120
(VCHENG
VN H
tp121
asg58
I2002
sg45
VLANT
p122
sbag1
(g2
g3
NtRp123
(dp124
g51
Nsg47
VMOL CELL BIOL
p125
sg49
V16
p126
sg79
(lp127
(VCUNNINGHAM
VK W
tp128
asg58
I1996
sg45
V2226
p129
sbag1
(g2
g3
NtRp130
(dp131
g51
Nsg47
VJ BIOL CHEM
p132
sg49
V268
p133
sg79
(lp134
(VENYEDI
VA
tp135
asg58
I1993
sg45
V17120
p136
sbag1
(g2
g3
NtRp137
(dp138
g51
V10.1016/S1360-1385(01)02023-4
p139
sg47
VTRENDS PLANT SCI
p140
sg49
V6
sg79
(lp141
(VHARPER
VJ F
tp142
asg58
I2001
sg45
V395
p143
sbag1
(g2
g3
NtRp144
(dp145
g51
V10.1016/S1360-1385(00)01863-X
p146
sg47
VTRENDS PLANT SCI
p147
sg49
V6
sg79
(lp148
(VHIRSCHI
VK
tp149
asg58
I2001
sg45
V100
p150
sbag1
(g2
g3
NtRp151
(dp152
g51
V10.1104/pp.124.1.125
p153
sg47
VPLANT PHYSIOL
p154
sg49
V124
p155
sg79
(lp156
(VHIRSCHI
VK D
tp157
asg58
I2000
sg45
VLANT
p158
sbag1
(g2
g3
NtRp159
(dp160
g51
V10.1105/tpc.11.11.2113
p161
sg47
VPLANT CELL
p162
sg49
V11
p163
sg79
(lp164
(VHIRSCHI
VK D
tp165
asg58
I1999
sg45
VLANT
p166
sbag1
(g2
g3
NtRp167
(dp168
g51
V10.1073/pnas.93.16.8782
p169
sg47
VP NATL ACAD SCI USA
p170
sg49
V93
p171
sg79
(lp172
(VHIRSCHI
VK D
tp173
asg58
I1996
sg45
V8782
p174
sbag1
(g2
g3
NtRp175
(dp176
g51
V10.1104/pp.122.1.157
p177
sg47
VPLANT PHYSIOL
p178
sg49
V122
p179
sg79
(lp180
(VHWANG
VI
tp181
asg58
I2000
sg45
VLANT
p182
sbag1
(g2
g3
NtRp183
(dp184
g51
Nsg47
VGENE DEV
p185
sg49
V14
p186
sg79
(lp187
(VKINGSBURY
VT J
tp188
asg58
I2000
sg45
V1595
p189
sbag1
(g2
g3
NtRp190
(dp191
g51
V10.1074/jbc.M000995200
p192
sg47
VJ BIOL CHEM
p193
sg49
V275
p194
sg79
(lp195
(VLI
VL
tp196
asg58
I2000
sg45
V20903
p197
sbag1
(g2
g3
NtRp198
(dp199
g51
Nsg47
VJ BIOL CHEM
p200
sg49
V266
p201
sg79
(lp202
(VLI
VZ P
tp203
asg58
I1991
sg45
V1014
p204
sbag1
(g2
g3
NtRp205
(dp206
g51
Nsg47
VPLANT CELL
p207
sg49
V11
p208
sg79
(lp209
(VMARTY
VF
tp210
asg58
I1999
sg45
VLANT
p211
sbag1
(g2
g3
NtRp212
(dp213
g51
V10.1104/pp.126.4.1646
p214
sg47
VPLANT PHYSIOL
p215
sg49
V126
p216
sg79
(lp217
(VMASER
VP
tp218
asg58
I2001
sg45
VLANT
p219
sbag1
(g2
g3
NtRp220
(dp221
g51
V10.1073/pnas.96.4.1409
p222
sg47
VP NATL ACAD SCI USA
p223
sg49
V96
p224
sg79
(lp225
(VNATHAN
VD F
tp226
asg58
I1999
sg45
V1409
p227
sbag1
(g2
g3
NtRp228
(dp229
g51
V10.1074/jbc.M202563200
p230
sg47
VJ BIOL CHEM
p231
sg49
V277
p232
sg79
(lp233
(VPITTMAN
VJ K
tp234
asg58
I2002
sg45
V26452
p235
sbag1
(g2
g3
NtRp236
(dp237
g51
V10.1104/pp.127.3.1020
p238
sg47
VPLANT PHYSIOL
p239
sg49
V127
p240
sg79
(lp241
(VPITTMAN
VJ K
tp242
asg58
I2001
sg45
VLANT
p243
sbag1
(g2
g3
NtRp244
(dp245
g51
Nsg47
VPLANT CELL
p246
sg49
V11
p247
sg79
(lp248
(VSANDERS
VD
tp249
asg58
I1999
sg45
VLANT
p250
sbag1
(g2
g3
NtRp251
(dp252
g51
V10.1104/pp.79.4.1111
p253
sg47
VPLANT PHYSIOL
p254
sg49
V79
p255
sg79
(lp256
(VSCHUMAKER
VK S
tp257
asg58
I1985
sg45
VLANT
p258
sbag1
(g2
g3
NtRp259
(dp260
g51
V10.1074/jbc.M106637200
p261
sg47
VJ BIOL CHEM
p262
sg49
V276
p263
sg79
(lp264
(VSHIGAKI
VT
tp265
asg58
I2001
sg45
V43152
p266
sbag1
(g2
g3
NtRp267
(dp268
g51
V10.1016/S0378-1119(00)00390-5
p269
sg47
VGENE
p270
sg49
V257
p271
sg79
(lp272
(VSHIGAKI
VT
tp273
asg58
I2000
sg45
V291
p274
sbag1
(g2
g3
NtRp275
(dp276
g51
V10.1023/A:1019880006606
p277
sg47
VPLANT MOL BIOL
p278
sg49
V50
p279
sg79
(lp280
(VSHIGAKI
VT
tp281
asg58
I2002
sg45
VLANT
p282
sbag1
(g2
g3
NtRp283
(dp284
g51
V10.1006/abio.2001.5341
p285
sg47
VANAL BIOCHEM
p286
sg49
V298
p287
sg79
(lp288
(VSHIGAKI
VT
tp289
asg58
I2001
sg45
V118
p290
sbag1
(g2
g3
NtRp291
(dp292
g51
V10.1146/annurev.arplant.51.1.433
p293
sg47
VANNU REV PLANT PHYS
p294
sg49
V51
p295
sg79
(lp296
(VSZE
VH
tp297
asg58
I2000
sg45
V433
p298
sbag1
(g2
g3
NtRp299
(dp300
g51
V10.1093/pcp/pcd023
p301
sg47
VPLANT CELL PHYSIOL
p302
sg49
V41
p303
sg79
(lp304
(VUEOKA-NAKANISHI
VH
tp305
asg58
I2000
sg45
VLANT
p306
sbag1
(g2
g3
NtRp307
(dp308
g51
V10.1046/j.1432-1327.1999.00377.x
p309
sg47
VEUR J BIOCHEM
p310
sg49
V262
p311
sg79
(lp312
(VUEOKA-NAKANISHI
VH
tp313
asg58
I1999
sg45
V417
p314
sbag1
(g2
g3
NtRp315
(dp316
g51
V10.1046/j.1432-1033.2000.01343.x
p317
sg47
VEUR J BIOCHEM
p318
sg49
V267
p319
sg79
(lp320
(VUEOKA-NAKANISHI
VH
tp321
asg58
I2000
sg45
V3090
p322
sbasb.