ccopy_reg
_reconstructor
p1
(ctethne.classes.paper
Paper
p2
c__builtin__
object
p3
NtRp4
(dp5
S'publisherCity'
p6
VROCKVILLE
p7
sS'reprintAddress'
p8
VHanson, AD (reprint author), Univ Florida, Dept Hort Sci, Gainesville, FL 32611 USA.
p9
sS'WC'
p10
VPlant Sciences
p11
sS'GA'
p12
V353ZW
p13
sS'abstract'
p14
VPrevious work has shown that tobacco (Nicotiana tabacum) plants engineered to express spinach choline monooxygenase in the chloroplast accumulate very little glycine betaine (GlyBet) unless supplied with choline (Cho). We therefore used metabolic modeling in conjunction with [C-14]Cho labeling experiments and in vivo P-31 NMR analyses to define the constraints on GlyBet synthesis, and hence the processes likely to require further engineering. The [C-14]Cho doses used were large enough to markedly perturb Cho and phosphocholine pool sizes, which enabled development and testing of models with rates dynamically responsive to pool sizes, permitting estimation of the kinetic properties of Cho metabolism enzymes and transport systems in vivo. This revealed that import of Cho into the chloroplast is a major constraint on GlyBet synthesis, the import rate being approximately 100-fold lower than the rates of Cho phosphorylation and transport into the vacuole, with which import competes. Simulation studies suggested that, were the chloroplast transport limitation corrected, additional engineering interventions would still be needed to achieve levels of GlyBet as high as those in plants that accumulate GlyBet naturally. This study reveals the rigidity of the Cho metabolism network and illustrates how computer modeling can help guide rational metabolic engineering design.
p15
sS'pageEnd'
p16
I162
sS'publisherAddress'
p17
V15501 MONONA DRIVE, ROCKVILLE, MD 20855 USA
p18
sS'documentType'
p19
VArticle
p20
sS'subject'
p21
VPlant Sciences
p22
sS'isoSource'
p23
VPlant Physiol.
p24
sS'timesCited'
p25
(lp26
I54
aVZ9 63
p27
asS'PT'
p28
VJ
sS'title'
p29
VMetabolic Modeling Identifies Key Constraints On An Engineered Glycine Betaine Synthesis Pathway In Tobacco
p30
sS'ISSN'
p31
(lp32
V0032-0889
p33
aVJ9 PLANT PHYSIOL
p34
asS'authors_full'
p35
(lp36
(VMCNEIL
VSD
tp37
a(VRHODES
VD
tp38
a(VRUSSELL
VBL
tp39
a(VNUCCIO
VML
tp40
a(VSHACHARHILL
VY
tp41
a(VHANSON
VAD
tp42
asS'PG'
p43
I10
sS'PD'
p44
VSEP
p45
sS'pageStart'
p46
I153
sS'issue'
p47
I1
sS'RI'
p48
VShachar-Hill, Yair/B-6165-2013
p49
sS'journal'
p50
VPLANT PHYSIOLOGY
p51
sS'volume'
p52
V124
p53
sS'doi'
p54
V10.1104/pp.124.1.153
p55
sS'authorAddress'
p56
(lp57
VUniv Florida, Dept Hort Sci, Gainesville, FL 32611 USA.
p58
aVPurdue Univ, Dept Hort & Landscape Architecture, Ctr Plant Environm Stress Physiol, W Lafayette, IN 47907 USA.
p59
aVNew Mexico State Univ, Dept Chem & Biochem, Las Cruces, NM 88003 USA.
p60
asS'date'
p61
I2000
sS'ER'
p62
V
sS'publisher'
p63
VAMER SOC PLANT PHYSIOLOGISTS
p64
sS'authorKeywords'
p65
(lp66
VSTRESS RESISTANCE
p67
aVSPINACH LEAVES
p68
aVCHOLINE
p69
aVCHLOROPLASTS
p70
aVBIOSYNTHESIS
p71
aVCYTIDYLYLTRANSFERASE
p72
aVPURIFICATION
p73
aVOXIDATION
p74
aVCELLS
p75
aVCTP
p76
asS'language'
p77
VEnglish
p78
sS'wosid'
p79
VWOS:000089306200016
p80
sS'citationCount'
p81
I33
sS'authors_init'
p82
(lp83
(VMCNEIL
VS D
tp84
a(VRHODES
VD
tp85
a(VRUSSELL
VB L
tp86
a(VNUCCIO
VM L
tp87
a(VSHACHARHILL
VY
tp88
a(VHANSON
VA D
tp89
asS'citedReferences'
p90
(lp91
g1
(g2
g3
NtRp92
(dp93
g54
Nsg50
VBIOTECHNOL PROGR
p94
sg52
V14
p95
sg82
(lp96
(VBAILEY
VJ E
tp97
asg61
I1998
sg46
V3
sbag1
(g2
g3
NtRp98
(dp99
g54
Nsg50
VJ BACTERIOL
p100
sg52
V152
p101
sg82
(lp102
(VBERKA
VR M
tp103
asg61
I1982
sg46
V239
p104
sbag1
(g2
g3
NtRp105
(dp106
g54
Nsg50
VJ BIOL CHEM
p107
sg52
V264
p108
sg82
(lp109
(VBLIGNY
VR
tp110
asg61
I1989
sg46
V4888
p111
sbag1
(g2
g3
NtRp112
(dp113
g54
Nsg50
VJ BIOL CHEM
p114
sg52
V265
p115
sg82
(lp116
(VBLIGNY
VR
tp117
asg61
I1990
sg46
V1319
p118
sbag1
(g2
g3
NtRp119
(dp120
g54
V10.1104/pp.90.1.322
p121
sg50
VPLANT PHYSIOL
p122
sg52
V90
p123
sg82
(lp124
(VBROUQUISSE
VR
tp125
asg61
I1989
sg46
VLANT
p126
sbag1
(g2
g3
NtRp127
(dp128
g54
V10.1104/pp.89.1.197
p129
sg50
VPLANT PHYSIOL
p130
sg52
V89
p131
sg82
(lp132
(VCHANG
VK J
tp133
asg61
I1989
sg46
VLANT
p134
sbag1
(g2
g3
NtRp135
(dp136
g54
Nsg50
VUNDERSTANDING CONTRO
p137
sg52
Nsg82
(lp138
(VFELL
VD
tp139
asg61
I1997
sg46
Nsbag1
(g2
g3
NtRp140
(dp141
g54
V10.1016/0168-9452(91)90231-V
p142
sg50
VPLANT SCI
p143
sg52
V75
p144
sg82
(lp145
(VGAWER
VM
tp146
asg61
I1991
sg46
VLANT
p147
sbag1
(g2
g3
NtRp148
(dp149
g54
Nsg50
VJ BIOL CHEM
p150
sg52
V251
p151
sg82
(lp152
(VGUYNN
VR W
tp153
asg61
I1976
sg46
V7162
p154
sbag1
(g2
g3
NtRp155
(dp156
g54
V10.1104/pp.71.3.692
p157
sg50
VPLANT PHYSIOL
p158
sg52
V71
p159
sg82
(lp160
(VHANSON
VA D
tp161
asg61
I1983
sg46
VLANT
p162
sbag1
(g2
g3
NtRp163
(dp164
g54
V10.1016/S0079-6603(08)60826-0
p165
sg50
VPROG NUCLEIC ACID RE
p166
sg52
V61
p167
sg82
(lp168
(VHENRY
VS A
tp169
asg61
I1998
sg46
VROG
p170
sbag1
(g2
g3
NtRp171
(dp172
g54
V10.1104/pp.122.3.747
p173
sg50
VPLANT PHYSIOL
p174
sg52
V122
p175
sg82
(lp176
(VHUANG
VJ
tp177
asg61
I2000
sg46
VLANT
p178
sbag1
(g2
g3
NtRp179
(dp180
g54
Nsg50
VBIOCHEM J
p181
sg52
V242
p182
sg82
(lp183
(VKINNEY
VA J
tp184
asg61
I1987
sg46
V755
p185
sbag1
(g2
g3
NtRp186
(dp187
g54
V10.1126/science.280.5365.852
p188
sg50
VSCIENCE
p189
sg52
V280
p190
sg82
(lp191
(VKOSHLAND
VD E
tp192
asg61
I1998
sg46
V852
p193
sbag1
(g2
g3
NtRp194
(dp195
g54
V10.1104/pp.123.1.371
p196
sg50
VPLANT PHYSIOL
p197
sg52
V123
p198
sg82
(lp199
(VMCNEIL
VS D
tp200
asg61
I2000
sg46
VLANT
p201
sbag1
(g2
g3
NtRp202
(dp203
g54
V10.1104/pp.120.4.945
p204
sg50
VPLANT PHYSIOL
p205
sg52
V120
p206
sg82
(lp207
(VMCNEIL
VS D
tp208
asg61
I1999
sg46
VLANT
p209
sbag1
(g2
g3
NtRp210
(dp211
g54
Nsg50
VBIOCHEM J
p212
sg52
V327
p213
sg82
(lp214
(VMONGRAND
VS
tp215
asg61
I1997
sg46
V853
p216
sbag1
(g2
g3
NtRp217
(dp218
g54
V10.1104/pp.90.1.296
p219
sg50
VPLANT PHYSIOL
p220
sg52
V90
p221
sg82
(lp222
(VMUDD
VS H
tp223
asg61
I1989
sg46
VLANT
p224
sbag1
(g2
g3
NtRp225
(dp226
g54
V10.1016/S1369-5266(99)80026-0
p227
sg50
VCURR OPIN PLANT BIOL
p228
sg52
V2
sg82
(lp229
(VNUCCIO
VM L
tp230
asg61
I1999
sg46
V128
p231
sbag1
(g2
g3
NtRp232
(dp233
g54
Nsg50
VPLANT J
p234
sg52
V16
p235
sg82
(lp236
(VNUCCIO
VM L
tp237
asg61
I1998
sg46
VLANT
p238
sbag1
(g2
g3
NtRp239
(dp240
g54
Nsg50
VBIOCHEM J
p241
sg52
V240
p242
sg82
(lp243
(VPRICEJONES
VM J
tp244
asg61
I1986
sg46
V837
p245
sbag1
(g2
g3
NtRp246
(dp247
g54
Nsg50
VPLANTA
p248
sg52
V193
p249
sg82
(lp250
(VRATHINASABAPATHI
VB
tp251
asg61
I1994
sg46
VLANTA
p252
sbag1
(g2
g3
NtRp253
(dp254
g54
V10.1146/annurev.pp.44.060193.001105
p255
sg50
VANNU REV PLANT PHYS
p256
sg52
V44
p257
sg82
(lp258
(VREA
VP A
tp259
asg61
I1993
sg46
V157
p260
sbag1
(g2
g3
NtRp261
(dp262
g54
V10.1104/pp.84.3.781
p263
sg50
VPLANT PHYSIOL
p264
sg52
V84
p265
sg82
(lp266
(VRHODES
VD
tp267
asg61
I1987
sg46
VLANT
p268
sbag1
(g2
g3
NtRp269
(dp270
g54
V10.1023/A:1006095015717
p271
sg50
VPLANT MOL BIOL
p272
sg52
V38
p273
sg82
(lp274
(VSAKAMOTO
VA
tp275
asg61
I1998
sg46
VLANT
p276
sbag1
(g2
g3
NtRp277
(dp278
g54
Nsg50
VBIOCHEM J
p279
sg52
V126
p280
sg82
(lp281
(VSETTY
VP N
tp282
asg61
I1972
sg46
V313
p283
sbag1
(g2
g3
NtRp284
(dp285
g54
V10.1006/mben.1998.0101
p286
sg50
VMETAB ENG
p287
sg52
V1
sg82
(lp288
(VSTEPHANOPOULOS
VG
tp289
asg61
I1999
sg46
V1
sbag1
(g2
g3
NtRp290
(dp291
g54
V10.1126/science.1904627
p292
sg50
VSCIENCE
p293
sg52
V252
p294
sg82
(lp295
(VSTEPHANOPOULOS
VG
tp296
asg61
I1991
sg46
V1675
p297
sbag1
(g2
g3
NtRp298
(dp299
g54
V10.1104/pp.41.2.307
p300
sg50
VPLANT PHYSIOL
p301
sg52
V41
p302
sg82
(lp303
(VTANAKA
VK
tp304
asg61
I1966
sg46
VLANT
p305
sbag1
(g2
g3
NtRp306
(dp307
g54
Nsg50
VPLANT PHYSIOL
p308
sg52
V113
p309
sg82
(lp310
(VTROSSAT
VC
tp311
asg61
I1997
sg46
VLANT
p312
sbag1
(g2
g3
NtRp313
(dp314
g54
V10.1016/0003-9861(89)90447-5
p315
sg50
VARCH BIOCHEM BIOPHYS
p316
sg52
V274
p317
sg82
(lp318
(VWANG
VX M
tp319
asg61
I1989
sg46
V338
p320
sbag1
(g2
g3
NtRp321
(dp322
g54
V10.1104/pp.86.1.54
p323
sg50
VPLANT PHYSIOL
p324
sg52
V86
p325
sg82
(lp326
(VWEIGEL
VP
tp327
asg61
I1988
sg46
VLANT
p328
sbag1
(g2
g3
NtRp329
(dp330
g54
V10.1007/BF02411558
p331
sg50
VPLANTA
p332
sg52
V193
p333
sg82
(lp334
(VWINTER
VH
tp335
asg61
I1994
sg46
VLANTA
p336
sbasb.