ccopy_reg
_reconstructor
p1
(ctethne.classes.paper
Paper
p2
c__builtin__
object
p3
NtRp4
(dp5
S'publisherCity'
p6
VROCKVILLE
p7
sS'reprintAddress'
p8
VInnes, RW (reprint author), Indiana Univ, Dept Biol, Bloomington, IN 47405 USA.
p9
sS'WC'
p10
VPlant Sciences
p11
sS'GA'
p12
V380YH
p13
sS'FX'
p14
(lp15
VThis work was supported by the National Science Foundation Plant Genome
p16
aVResearch Program (grant no. DBI-0321664 to R.W.I., M.A.S.M., N.D.Y.,
p17
aVB.A.R., and J.J.D.) and by a grant from Genoscope/Commissariat a
p18
aVl'Energie Atomique-Centre National de Sequencage (to V.G.). A.N.E. was
p19
aVsupported by a National Science Foundation Systematics Award (grant no.
p20
aVDEB-0516673).We thank Randy Shoemaker, Barbara Baker, and Chris Pires
p21
aVfor serving on the advisory committee for this project. We also thank
p22
aVRandy Shoemaker for help with screening of BAC libraries. We thank
p23
aVMounier Elharam and Jennifer Lewis at the University of Oklahoma's
p24
aVAdvanced Center for Genome Technology for contributing to the DNA
p25
aVsequencing on the ABI3730 and Steve Kenton, Shaoping Lin, and Ying Fu
p26
aVfor their helpful discussions on sequencing through difficult regions.
p27
aVComputer support was provided by the Indiana University Information
p28
aVTechnology Services Research Database Complex, the Computational Biology
p29
aVService Unit from Cornell University, which is partially funded by
p30
aVMicrosoft Corporation, and the fAdvanced Center for Genome Technology.
p31
asS'abstract'
p32
VThe genomes of most, if not all, flowering plants have undergone whole genome duplication events during their evolution. The impact of such polyploidy events is poorly understood, as is the fate of most duplicated genes. We sequenced an approximately 1 million-bp region in soybean (Glycine max) centered on the Rpg1-b disease resistance gene and compared this region with a region duplicated 10 to 14 million years ago. These two regions were also compared with homologous regions in several related legume species (a second soybean genotype, Glycine tomentella, Phaseolus vulgaris, and Medicago truncatula), which enabled us to determine how each of the duplicated regions (homoeologues) in soybean has changed following polyploidy. The biggest change was in retroelement content, with homoeologue 2 having expanded to 3-fold the size of homoeologue 1. Despite this accumulation of retroelements, over 77% of the duplicated low-copy genes have been retained in the same order and appear to be functional. This finding contrasts with recent analyses of the maize (Zea mays) genome, in which only about one-third of duplicated genes appear to have been retained over a similar time period. Fluorescent in situ hybridization revealed that the homoeologue 2 region is located very near a centromere. Thus, pericentromeric localization, per se, does not result in a high rate of gene inactivation, despite greatly accelerated retrotransposon accumulation. In contrast to low-copy genes, nucleotide-binding-leucine-rich repeat disease resistance gene clusters have undergone dramatic species/homoeologue-specific duplications and losses, with some evidence for partitioning of subfamilies between homoeologues.
p33
sS'pageEnd'
p34
I1759
sS'date'
p35
I2008
sS'documentType'
p36
VReview
p37
sS'subject'
p38
VPlant Sciences
p39
sS'isoSource'
p40
VPlant Physiol.
p41
sS'timesCited'
p42
(lp43
I44
aVZ9 44
p44
asS'funding'
p45
(lp46
(VNational Science Foundation
VDBI-0321664, DEB-0516673
tp47
a(VGenoscope/Commissariat a l'Energie Atomique-Centre National de Sequencage
Ntp48
a(VMicrosoft Corporation
Ntp49
a(VAdvanced Center for Genome Technology
Ntp50
asS'PT'
p51
VJ
sS'title'
p52
VDifferential Accumulation Of Retroelements And Diversification Of Nb-Lrr Disease Resistance Genes In Duplicated Regions Following Polyploidy In The Ancestor Of Soybean
p53
sS'ISSN'
p54
(lp55
V0032-0889
p56
aVJ9 PLANT PHYSIOL
p57
asS'authors_full'
p58
(lp59
(VINNES
VROGER W
tp60
a(VAMELINETORREGROSA
VCARINE
tp61
a(VASHFIELD
VTOM
tp62
a(VCANNON
VETHALINDA
tp63
a(VCANNON
VSTEVEN B
tp64
a(VCHACKO
VBEN
tp65
a(VCHEN
VNICOLAS W G
tp66
a(VCOULOUX
VARNAUD
tp67
a(VDALWANI
VANITA
tp68
a(VDENNY
VROXANNE
tp69
a(VDESHPANDE
VSHWETA
tp70
a(VEGAN
VASHLEY N
tp71
a(VGLOVER
VNATASHA
tp72
a(VHANS
VCHRISTIAN S
tp73
a(VHOWELL
VSTACY
tp74
a(VILUT
VDAN
tp75
a(VJACKSON
VSCOTT
tp76
a(VLAI
VHONGSHING
tp77
a(VMAMMADOV
VJAFAR
tp78
a(VDEL CAMPO
VSARA MARTIN
tp79
a(VMETCALF
VMICHELLE
tp80
a(VNGUYEN
VASHLEY
tp81
a(VOBLENESS
VMAJESTA
tp82
a(VPFEIL
VBERNARD E
tp83
a(VPODICHETI
VRAM
tp84
a(VRATNAPARKHE
VMILIND B
tp85
a(VSAMAIN
VSYLVIE
tp86
a(VSANDERS
VIRYNA
tp87
a(VSEGURENS
VBEATRICE
tp88
a(VSEVIGNAC
VMIREILLE
tp89
a(VSHERMANBROYLES
VSUE
tp90
a(VTHAREAU
VVINCENT
tp91
a(VTUCKER
VDOMINIC M
tp92
a(VWALLING
VJASON
tp93
a(VWAWRZYNSKI
VADAM
tp94
a(VYI
VJING
tp95
a(VDOYLE
VJEFF J
tp96
a(VGEFFROY
VVALERIE
tp97
a(VROE
VBRUCE A
tp98
a(VMAROOF
VM A SAGHAI
tp99
a(VYOUNG
VNEVIN D
tp100
asS'PG'
p101
I20
sS'PD'
p102
VDEC
p103
sS'pageStart'
p104
I1740
sS'issue'
p105
I4
sS'RI'
p106
VPfeil, Bernard/C-1108-2008; Innes, Roger/A-5244-2010
p107
sS'journal'
p108
VPLANT PHYSIOLOGY
p109
sS'volume'
p110
V148
p111
sS'doi'
p112
V10.1104/pp.108.127902
p113
sS'emailAddress'
p114
Vrinnes@indiana.edu
p115
sS'authorAddress'
p116
(lp117
V[Innes, Roger W.; Ashfield, Tom; Dalwani, Anita; Howell, Stacy; del Campo, Sara Martin; Metcalf, Michelle; Podicheti, Ram; Wawrzynski, Adam] Indiana Univ, Dept Biol, Bloomington, IN 47405 USA.
p118
aV[Ameline-Torregrosa, Carine; Cannon, Ethalinda; Cannon, Steven B.; Chacko, Ben; Denny, Roxanne; Young, Nevin D.] Univ Minnesota, Dept Plant Pathol, St Paul, MN 55108 USA.
p119
aV[Cannon, Ethalinda] Iowa State Univ, Virtual Real Applicat Ctr, Ames, IA 50011 USA.
p120
aV[Cannon, Steven B.] Iowa State Univ, USDA ARS, Ames, IA 50011 USA.
p121
aV[Cannon, Steven B.] Iowa State Univ, Dept Agron, Ames, IA 50011 USA.
p122
aV[Chen, Nicolas W. G.; Sevignac, Mireille; Thareau, Vincent; Geffroy, Valerie] Univ Paris 11, INRA, CNRS, Inst Biotechnol Plantes,UMR 8618, F-91405 Orsay, France.
p123
aV[Couloux, Arnaud; Samain, Sylvie; Segurens, Beatrice] Genoscope Commissariat Energie Atom Ctr Natl Sequ, F-91057 Evry, France.
p124
aV[Deshpande, Shweta; Lai, Hongshing; O'Bleness, Majesta; Sanders, Iryna; Yi, Jing; Roe, Bruce A.] Univ Oklahoma, Dept Chem & Biochem, Norman, OK 73019 USA.
p125
aV[Egan, Ashley N.; Ilut, Dan; Pfeil, Bernard E.; Sherman-Broyles, Sue; Doyle, Jeff J.] Cornell Univ, LH Bailey Hortorium, Dept Plant Biol, Ithaca, NY 14853 USA.
p126
aV[Glover, Natasha; Mammadov, Jafar; Nguyen, Ashley; Ratnaparkhe, Milind B.; Tucker, Dominic M.; Maroof, M. A. Saghai] Virginia Polytech Inst & State Univ, Dept Crop & Soil Environm Sci, Blacksburg, VA 24061 USA.
p127
aV[Hans, Christian S.; Jackson, Scott; Walling, Jason] Purdue Univ, Dept Agron, W Lafayette, IN 47907 USA.
p128
aV[Pfeil, Bernard E.] Commonwealth Sci & Ind Res Org Plant Ind, Canberra, ACT 2601, Australia.
p129
aV[Ratnaparkhe, Milind B.] Univ Missouri, Div Plant Sci, Columbia, MO 65211 USA.
p130
asS'publisherAddress'
p131
V15501 MONONA DRIVE, ROCKVILLE, MD 20855 USA
p132
sS'ER'
p133
V
sS'publisher'
p134
VAMER SOC PLANT BIOLOGISTS
p135
sS'authorKeywords'
p136
(lp137
VBACTERIAL ARTIFICIAL CHROMOSOMES
p138
aVMAX L. MERR.
p139
aVMULTIPLE SEQUENCE ALIGNMENT
p140
aVARABIDOPSIS-THALIANA
p141
aVGLYCINE-MAX
p142
aVPHYLOGENETIC ANALYSIS
p143
aVMAXIMUM-LIKELIHOOD
p144
aVMAIZE GENOME
p145
aVHIGH-THROUGHPUT
p146
aVEVOLUTION
p147
asS'language'
p148
VEnglish
p149
sS'wosid'
p150
VWOS:000261501500003
p151
sS'citationCount'
p152
I107
sS'authors_init'
p153
(lp154
(VINNES
VR W
tp155
a(VAMELINETORREGROSA
VC
tp156
a(VASHFIELD
VT
tp157
a(VCANNON
VE
tp158
a(VCANNON
VS B
tp159
a(VCHACKO
VB
tp160
a(VCHEN
VN W G
tp161
a(VCOULOUX
VA
tp162
a(VDALWANI
VA
tp163
a(VDENNY
VR
tp164
a(VDESHPANDE
VS
tp165
a(VEGAN
VA N
tp166
a(VGLOVER
VN
tp167
a(VHANS
VC S
tp168
a(VHOWELL
VS
tp169
a(VILUT
VD
tp170
a(VJACKSON
VS
tp171
a(VLAI
VH S
tp172
a(VMAMMADOV
VJ
tp173
a(VDEL CAMPO
VS M
tp174
a(VMETCALF
VM
tp175
a(VNGUYEN
VA
tp176
a(VOBLENESS
VM
tp177
a(VPFEIL
VB E
tp178
a(VPODICHETI
VR
tp179
a(VRATNAPARKHE
VM B
tp180
a(VSAMAIN
VS
tp181
a(VSANDERS
VI
tp182
a(VSEGURENS
VB
tp183
a(VSEVIGNAC
VM
tp184
a(VSHERMANBROYLES
VS
tp185
a(VTHAREAU
VV
tp186
a(VTUCKER
VD M
tp187
a(VWALLING
VJ
tp188
a(VWAWRZYNSKI
VA
tp189
a(VYI
VJ
tp190
a(VDOYLE
VJ J
tp191
a(VGEFFROY
VV
tp192
a(VROE
VB A
tp193
a(VMAROOF
VM A S
tp194
a(VYOUNG
VN D
tp195
asS'citedReferences'
p196
(lp197
g1
(g2
g3
NtRp198
(dp199
g112
V10.1534/genetics.104.033522
p200
sg108
VGENETICS
p201
sg110
V168
p202
sg153
(lp203
(VADAMS
VK L
tp204
asg35
I2004
sg104
V2217
p205
sbag1
(g2
g3
NtRp206
(dp207
g112
V10.1073/pnas.0630618100
p208
sg108
VP NATL ACAD SCI USA
p209
sg110
V100
p210
sg153
(lp211
(VADAMS
VK L
tp212
asg35
I2003
sg104
V4649
p213
sbag1
(g2
g3
NtRp214
(dp215
g112
Nsg108
VCROP SCI
p216
sg110
V35
p217
sg153
(lp218
(VAKKAYA
VM S
tp219
asg35
I1995
sg104
V1439
p220
sbag1
(g2
g3
NtRp221
(dp222
g112
V10.1093/nar/25.17.3389
p223
sg108
VNUCLEIC ACIDS RES
p224
sg110
V25
p225
sg153
(lp226
(VALTSCHUL
VS F
tp227
asg35
I1997
sg104
V3389
p228
sbag1
(g2
g3
NtRp229
(dp230
g112
V10.1105/tpc.016725
p231
sg108
VPLANT CELL
p232
sg110
V16
p233
sg153
(lp234
(VASHFIELD
VT
tp235
asg35
I2004
sg104
VLANT
p236
sbag1
(g2
g3
NtRp237
(dp238
g112
Nsg108
VGENETICS
p239
sg110
V141
p240
sg153
(lp241
(VASHFIELD
VT
tp242
asg35
I1995
sg104
V1597
p243
sbag1
(g2
g3
NtRp244
(dp245
g112
V10.1094/MPMI.2003.16.9.817
p246
sg108
VMOL PLANT MICROBE IN
p247
sg110
V16
p248
sg153
(lp249
(VASHFIELD
VT
tp250
asg35
I2003
sg104
V817
p251
sbag1
(g2
g3
NtRp252
(dp253
g112
V10.1007/s001220050833
p254
sg108
VTHEOR APPL GENET
p255
sg110
V96
p256
sg153
(lp257
(VASHFIELD
VT
tp258
asg35
I1998
sg104
V1013
p259
sbag1
(g2
g3
NtRp260
(dp261
g112
V10.1186/1471-2229-4-10
p262
sg108
VBMC Plant Biology
p263
sg110
V4
sg153
(lp264
(VCANNON
VSTEVEN B
tp265
asg35
I2004
sg104
V10
p266
sbag1
(g2
g3
NtRp267
(dp268
g112
V10.1105/tpc.021410
p269
sg108
VPLANT CELL
p270
sg110
V16
p271
sg153
(lp272
(VBLANC
VG
tp273
asg35
I2004
sg104
VLANT
p274
sbag1
(g2
g3
NtRp275
(dp276
g112
Nsg108
VAUTOMATED DNA SEQUEN
p277
sg110
Nsg153
(lp278
(VBODENTEICH
VA
tp279
asg35
I1993
sg104
V42
p280
sbag1
(g2
g3
NtRp281
(dp282
g112
V10.1371/journal.pbio.0050236
p283
sg108
VPLOS BIOL
p284
sg110
V5
sg153
(lp285
(VBOMBLIES
VK
tp286
asg35
I2007
sg104
VLOS
p287
sbag1
(g2
g3
NtRp288
(dp289
g112
V10.1038/nature01521
p290
sg108
VNATURE
p291
sg110
V422
p292
sg153
(lp293
(VBOWERS
VJ E
tp294
asg35
I2003
sg104
V433
p295
sbag1
(g2
g3
NtRp296
(dp297
g112
V10.1101/gr.5338906
p298
sg108
VGENOME RES
p299
sg110
V16
p300
sg153
(lp301
(VBRUGGMANN
VR
tp302
asg35
I2006
sg104
V1241
p303
sbag1
(g2
g3
NtRp304
(dp305
g112
Nsg108
VGENETICS
p306
sg110
V157
p307
sg153
(lp308
(VCHIN
VD B
tp309
asg35
I2001
sg104
V831
p310
sbag1
(g2
g3
NtRp311
(dp312
g112
V10.1006/geno.1995.1008
p313
sg108
VGENOMICS
p314
sg110
V27
p315
sg153
(lp316
(VCHISSOE
VS L
tp317
asg35
I1995
sg104
V67
p318
sbag1
(g2
g3
NtRp319
(dp320
g112
V10.1023/A:1006480722854
p321
sg108
VPLANT MOL BIOL
p322
sg110
V43
p323
sg153
(lp324
(VCOMAI
VL
tp325
asg35
I2000
sg104
VLANT
p326
sbag1
(g2
g3
NtRp327
(dp328
g112
Nsg108
VANN REV GEN IN PRESS
p329
sg110
V42
p330
sg153
(lp331
(VDOYLE
VJ J
tp332
asg35
I2008
sg104
Nsbag1
(g2
g3
NtRp333
(dp334
g112
V10.1104/pp.102.018150
p335
sg108
VPLANT PHYSIOL
p336
sg110
V131
p337
sg153
(lp338
(VDOYLE
VJ J
tp339
asg35
I2003
sg104
VLANT
p340
sbag1
(g2
g3
NtRp341
(dp342
g112
V10.1126/science.1143986
p343
sg108
VSCIENCE
p344
sg110
V316
p345
sg153
(lp346
(VDUBCOVSKY
VJ
tp347
asg35
I2007
sg104
V1862
p348
sbag1
(g2
g3
NtRp349
(dp350
g112
V10.1093/nar/gkh340
p351
sg108
VNUCLEIC ACIDS RES
p352
sg110
V32
p353
sg153
(lp354
(VEDGAR
VR C
tp355
asg35
I2004
sg104
V1792
p356
sbag1
(g2
g3
NtRp357
(dp358
g112
Nsg108
VGENOME RES
p359
sg110
V8
sg153
(lp360
(VEWING
VB
tp361
asg35
I1998
sg104
V175
p362
sbag1
(g2
g3
NtRp363
(dp364
g112
Nsg108
VGENOME RES
p365
sg110
V8
sg153
(lp366
(VEWING
VB
tp367
asg35
I1998
sg104
V186
p368
sbag1
(g2
g3
NtRp369
(dp370
g112
V10.1105/tpc.107.054346
p371
sg108
VPLANT CELL
p372
sg110
V19
p373
sg153
(lp374
(VGAETA
VR T
tp375
asg35
I2007
sg104
VLANT
p376
sbag1
(g2
g3
NtRp377
(dp378
g112
Nsg108
VGENOME RES
p379
sg110
V8
sg153
(lp380
(VGORDON
VD
tp381
asg35
I1998
sg104
V195
p382
sbag1
(g2
g3
NtRp383
(dp384
g112
V10.1139/G02-009
p385
sg108
VGENOME
p386
sg110
V45
p387
sg153
(lp388
(VGORE
VM A
tp389
asg35
I2002
sg104
V592
p390
sbag1
(g2
g3
NtRp391
(dp392
g112
V10.1080/10635150390235520
p393
sg108
VSYST BIOL
p394
sg110
V52
p395
sg153
(lp396
(VGUINDON
VS
tp397
asg35
I2003
sg104
V696
p398
sbag1
(g2
g3
NtRp399
(dp400
g112
V10.1093/nar/gki352
p401
sg108
VNUCLEIC ACIDS RES
p402
sg110
V33
p403
sg153
(lp404
(VGUINDON
VS
tp405
asg35
I2005
sg104
VW557
p406
sbag1
(g2
g3
NtRp407
(dp408
g112
VDOI 10.1111/J.1469-8137.2009.02874.X
p409
sg108
VNUCL ACIDS S SER
p410
sg110
V41
p411
sg153
(lp412
(VHALL
VT A
tp413
asg35
I1999
sg104
V95
p414
sbag1
(g2
g3
NtRp415
(dp416
g112
V10.1534/genetics.166.1.493
p417
sg108
VGENETICS
p418
sg110
V166
p419
sg153
(lp420
(VHAYES
VA J
tp421
asg35
I2004
sg104
V493
p422
sbag1
(g2
g3
NtRp423
(dp424
g112
V10.1007/s001220051545
p425
sg108
VTHEOR APPL GENET
p426
sg110
V101
p427
sg153
(lp428
(VHAYES
VA J
tp429
asg35
I2000
sg104
V789
p430
sbag1
(g2
g3
NtRp431
(dp432
g112
V10.1016/j.cub.2008.03.043
p433
sg108
VCURR BIOL
p434
sg110
V18
p435
sg153
(lp436
(VHEGARTY
VM J
tp437
asg35
I2008
sg104
VR435
p438
sbag1
(g2
g3
NtRp439
(dp440
g112
V10.1126/science.1062939
p441
sg108
VSCIENCE
p442
sg110
V293
p443
sg153
(lp444
(VHENIKOFF
VS
tp445
asg35
I2001
sg104
V1098
p446
sbag1
(g2
g3
NtRp447
(dp448
g112
V10.1038/417227a
p449
sg108
VNATURE
p450
sg110
V417
p451
sg153
(lp452
(VHENIKOFF
VS
tp453
asg35
I2002
sg104
V227
p454
sbag1
(g2
g3
NtRp455
(dp456
g112
V10.1093/bioinformatics/17.8.754
p457
sg108
VBIOINFORMATICS
p458
sg110
V17
p459
sg153
(lp460
(VHUELSENBECK
VJ P
tp461
asg35
I2001
sg104
V754
p462
sbag1
(g2
g3
NtRp463
(dp464
g112
V10.1093/molbev/msj030
p465
sg108
VMOL BIOL EVOL
p466
sg110
V23
p467
sg153
(lp468
(VHUSON
VD H
tp469
asg35
I2006
sg104
V254
p470
sbag1
(g2
g3
NtRp471
(dp472
g112
V10.1073/pnas.0604379103
p473
sg108
VP NATL ACAD SCI USA
p474
sg110
V103
p475
sg153
(lp476
(VHYTEN
VD L
tp477
asg35
I2006
sg104
V16666
p478
sbag1
(g2
g3
NtRp479
(dp480
g112
V10.1104/pp.104.040410
p481
sg108
VPLANT PHYSIOL
p482
sg110
V135
p483
sg153
(lp484
(VINNES
VR W
tp485
asg35
I2004
sg104
VLANT
p486
sbag1
(g2
g3
NtRp487
(dp488
g112
V10.1139/gen-41-4-566
p489
sg108
VGENOME
p490
sg110
V41
p491
sg153
(lp492
(VJACKSON
VS A
tp493
asg35
I1998
sg104
V566
p494
sbag1
(g2
g3
NtRp495
(dp496
g112
V10.1007/s001220100567
p497
sg108
VTHEOR APPL GENET
p498
sg110
V103
p499
sg153
(lp500
(VJEONG
VS C
tp501
asg35
I2001
sg104
V406
p502
sbag1
(g2
g3
NtRp503
(dp504
g112
V10.1073/pnas.92.10.4487
p505
sg108
VP NATL ACAD SCI USA
p506
sg110
V92
p507
sg153
(lp508
(VJIANG
VJ M
tp509
asg35
I1995
sg104
V4487
p510
sbag1
(g2
g3
NtRp511
(dp512
g112
V10.1104/pp.124.3.1049
p513
sg108
VPLANT PHYSIOL
p514
sg110
V124
p515
sg153
(lp516
(VJORDA
VL
tp517
asg35
I2000
sg104
VLANT
p518
sbag1
(g2
g3
NtRp519
(dp520
g112
V10.2307/2291091
p521
sg108
VJ AM STAT ASSOC
p522
sg110
V90
p523
sg153
(lp524
(VKASS
VR E
tp525
asg35
I1995
sg104
V773
p526
sbag1
(g2
g3
NtRp527
(dp528
g112
V10.1093/bib/5.2.150
p529
sg108
VBRIEF BIOINFORM
p530
sg110
V5
sg153
(lp531
(VKUMAR
VS
tp532
asg35
I2004
sg104
V150
p533
sbag1
(g2
g3
NtRp534
(dp535
g112
V10.1093/nar/29.22.4633
p536
sg108
VNUCLEIC ACIDS RES
p537
sg110
V29
p538
sg153
(lp539
(VKURTZ
VS
tp540
asg35
I2001
sg104
V4633
p541
sbag1
(g2
g3
NtRp542
(dp543
g112
V10.1101/gr.2701104
p544
sg108
VGENOME RES
p545
sg110
V14
p546
sg153
(lp547
(VLAI
VJ S
tp548
asg35
I2004
sg104
V1924
p549
sbag1
(g2
g3
NtRp550
(dp551
g112
V10.1016/0888-7543(87)90010-3
p552
sg108
VGenomics
p553
sg110
V1
sg153
(lp554
(VLANDER
VE S
tp555
asg35
I1987
sg104
V174
p556
sbag1
(g2
g3
NtRp557
(dp558
g112
V10.1080/10635150590947131
p559
sg108
VSYST BIOL
p560
sg110
V54
p561
sg153
(lp562
(VLAVIN
VM
tp563
asg35
I2005
sg104
V575
p564
sbag1
(g2
g3
NtRp565
(dp566
g112
V10.1126/science.1153585
p567
sg108
VSCIENCE
p568
sg110
V320
p569
sg153
(lp570
(VLEITCH
VA R
tp571
asg35
I2008
sg104
V481
p572
sbag1
(g2
g3
NtRp573
(dp574
g112
V10.1534/genetics.105.041616
p575
sg108
VGENETICS
p576
sg110
V170
p577
sg153
(lp578
(VLIN
VJ Y
tp579
asg35
I2005
sg104
V1221
p580
sbag1
(g2
g3
NtRp581
(dp582
g112
V10.1016/S0888-7543(03)00128-9
p583
sg108
VGENOMICS
p584
sg110
V82
p585
sg153
(lp586
(VLUO
VM C
tp587
asg35
I2003
sg104
V378
p588
sbag1
(g2
g3
NtRp589
(dp590
g112
V10.1126/science.290.5494.1151
p591
sg108
VSCIENCE
p592
sg110
V290
p593
sg153
(lp594
(VLYNCH
VM
tp595
asg35
I2000
sg104
V1151
p596
sbag1
(g2
g3
NtRp597
(dp598
g112
Nsg108
VGENETICS
p599
sg110
V154
p600
sg153
(lp601
(VLYNCH
VM
tp602
asg35
I2000
sg104
V459
p603
sbag1
(g2
g3
NtRp604
(dp605
g112
V10.1101/gr.1466204
p606
sg108
VGENOME RES
p607
sg110
V14
p608
sg153
(lp609
(VMA
VJ X
tp610
asg35
I2004
sg104
V860
p611
sbag1
(g2
g3
NtRp612
(dp613
g112
V10.1016/j.tig.2007.01.004
p614
sg108
VTRENDS GENET
p615
sg110
V23
p616
sg153
(lp617
(VMA
VJ X
tp618
asg35
I2007
sg104
V134
p619
sbag1
(g2
g3
NtRp620
(dp621
g112
V10.1534/genetics.105.040915
p622
sg108
VGENETICS
p623
sg110
V170
p624
sg153
(lp625
(VMA
VJ X
tp626
asg35
I2005
sg104
V1209
p627
sbag1
(g2
g3
NtRp628
(dp629
g112
V10.1073/pnas.0501102102
p630
sg108
VP NATL ACAD SCI USA
p631
sg110
V102
p632
sg153
(lp633
(VMAERE
VS
tp634
asg35
I2005
sg104
V5454
p635
sbag1
(g2
g3
NtRp636
(dp637
g112
V10.1016/S0959-437X(02)00351-9
p638
sg108
VCURR OPIN GENET DEV
p639
sg110
V12
p640
sg153
(lp641
(VMALIK
VH S
tp642
asg35
I2002
sg104
V711
p643
sbag1
(g2
g3
NtRp644
(dp645
g112
V10.1139/gen-44-4-572
p646
sg108
VGENOME
p647
sg110
V44
p648
sg153
(lp649
(VMAREK
VL F
tp650
asg35
I2001
sg104
V572
p651
sbag1
(g2
g3
NtRp652
(dp653
g112
V10.1139/g97-056
p654
sg108
VGENOME
p655
sg110
V40
p656
sg153
(lp657
(VMAREK
VL F
tp658
asg35
I1997
sg104
V420
p659
sbag1
(g2
g3
NtRp660
(dp661
g112
V10.1038/nrg2185
p662
sg108
VNAT REV GENET
p663
sg110
V9
sg153
(lp664
(VMARGULIES
VE H
tp665
asg35
I2008
sg104
V303
p666
sbag1
(g2
g3
NtRp667
(dp668
g112
V10.1093/bioinformatics/16.6.562
p669
sg108
VBIOINFORMATICS
p670
sg110
V16
p671
sg153
(lp672
(VMARTIN
VD
tp673
asg35
I2000
sg104
V562
p674
sbag1
(g2
g3
NtRp675
(dp676
g112
V10.1089/aid.2005.21.98
p677
sg108
VAIDS RES HUM RETROV
p678
sg110
V21
p679
sg153
(lp680
(VMARTIN
VD P
tp681
asg35
I2005
sg104
V98
p682
sbag1
(g2
g3
NtRp683
(dp684
g112
V10.1093/bioinformatics/bth490
p685
sg108
VBIOINFORMATICS
p686
sg110
V21
p687
sg153
(lp688
(VMARTIN
VD P
tp689
asg35
I2005
sg104
V260
p690
sbag1
(g2
g3
NtRp691
(dp692
g112
V10.1023/A:1009628614988
p693
sg108
VMOL BREEDING
p694
sg110
V6
sg153
(lp695
(VMAUGHAN
VP J
tp696
asg35
I2000
sg104
V105
p697
sbag1
(g2
g3
NtRp698
(dp699
g112
V10.1093/bioinformatics/16.11.1046
p700
sg108
VBIOINFORMATICS
p701
sg110
V16
p702
sg153
(lp703
(VMAYOR
VC
tp704
asg35
I2000
sg104
V1046
p705
sbag1
(g2
g3
NtRp706
(dp707
g112
V10.1093/bioinformatics/btf878
p708
sg108
VBIOINFORMATICS
p709
sg110
V19
p710
sg153
(lp711
(VMCCARTHY
VE M
tp712
asg35
I2003
sg104
V362
p713
sbag1
(g2
g3
NtRp714
(dp715
g112
V10.1007/s004250000277
p716
sg108
VPLANTA
p717
sg110
V211
p718
sg153
(lp719
(VMEMBRE
VN
tp720
asg35
I2000
sg104
VLANTA
p721
sbag1
(g2
g3
NtRp722
(dp723
g112
V10.1102/tpc.009308
p724
sg108
VPLANT CELL
p725
sg110
V15
p726
sg153
(lp727
(VMEYERS
VB C
tp728
asg35
I2003
sg104
VLANT
p729
sbag1
(g2
g3
NtRp730
(dp731
g112
V10.1046/j.1365-313X.1999.00606.x
p732
sg108
VPLANT J
p733
sg110
V20
p734
sg153
(lp735
(VMEYERS
VB C
tp736
asg35
I1999
sg104
VLANT
p737
sbag1
(g2
g3
NtRp738
(dp739
g112
Nsg108
VGENOME RES
p740
sg110
V8
sg153
(lp741
(VMICHELMORE
VR W
tp742
asg35
I1998
sg104
V1113
p743
sbag1
(g2
g3
NtRp744
(dp745
g112
V10.1007/s00438-008-0322-9
p746
sg108
VMOL GENET GENOMICS
p747
sg110
V279
p748
sg153
(lp749
(VMITSUHARA
VI
tp750
asg35
I2008
sg104
V415
p751
sbag1
(g2
g3
NtRp752
(dp753
g112
V10.1093/molbev/msi241
p754
sg108
VMOL BIOL EVOL
p755
sg110
V22
p756
sg153
(lp757
(VMONDRAGON-PALOMINO
VM
tp758
asg35
I2005
sg104
V2444
p759
sbag1
(g2
g3
NtRp760
(dp761
g112
V10.1016/S0065-2660(07)00423-3
p762
sg108
VADV GENET
p763
sg110
V60
p764
sg153
(lp765
(VMORENO
VC
tp766
asg35
I2008
sg104
V655
p767
sbag1
(g2
g3
NtRp768
(dp769
g112
V10.1186/1471-2229-5-15
p770
sg108
VBMC PLANT BIOL
p771
sg110
V5
sg153
(lp772
(VMUDGE
VJ
tp773
asg35
I2005
sg104
Nsbag1
(g2
g3
NtRp774
(dp775
g112
Nsg108
VGENOME RES IN PRESS
p776
sg110
Nsg153
(lp777
(VNAGY
VE D
tp778
asg35
I2008
sg104
Nsbag1
(g2
g3
NtRp779
(dp780
g112
V10.1094/MPMI-18-0103
p781
sg108
VMOL PLANT MICROBE IN
p782
sg110
V18
p783
sg153
(lp784
(VNOBUTA
VK
tp785
asg35
I2005
sg104
V103
p786
sbag1
(g2
g3
NtRp787
(dp788
g112
V10.1105/tpc.11.11.2099
p789
sg108
VPLANT CELL
p790
sg110
V11
p791
sg153
(lp792
(VNOEL
VL
tp793
asg35
I1999
sg104
VLANT
p794
sbag1
(g2
g3
NtRp795
(dp796
g112
V10.1023/A:1006060224012
p797
sg108
VPLANT MOL BIOL
p798
sg110
V38
p799
sg153
(lp800
(VOSMARK
VP
tp801
asg35
I1998
sg104
VLANT
p802
sbag1
(g2
g3
NtRp803
(dp804
g112
V10.1006/viro.1999.0056
p805
sg108
VVIROLOGY
p806
sg110
VIROLOGY
p807
sg153
(lp808
(VPADIDAM
VM
tp809
asg35
I1999
sg104
V218
p810
sbag1
(g2
g3
NtRp811
(dp812
g112
V10.1038/nrg1806
p813
sg108
VNAT REV GENET
p814
sg110
V7
sg153
(lp815
(VPATERSON
VA H
tp816
asg35
I2006
sg104
V174
p817
sbag1
(g2
g3
NtRp818
(dp819
g112
V10.1007/s10709-003-2742-0
p820
sg108
VGENETICA
p821
sg110
V123
p822
sg153
(lp823
(VPATERSON
VA H
tp824
asg35
I2005
sg104
V191
p825
sbag1
(g2
g3
NtRp826
(dp827
g112
V10.1080/10635150590945359
p828
sg108
VSYST BIOL
p829
sg110
V54
p830
sg153
(lp831
(VPFEIL
VB E
tp832
asg35
I2005
sg104
V441
p833
sbag1
(g2
g3
NtRp834
(dp835
g112
V10.1073/pnas.241370698
p836
sg108
VP NATL ACAD SCI USA
p837
sg110
V98
p838
sg153
(lp839
(VPOSADA
VD
tp840
asg35
I2001
sg104
V13757
p841
sbag1
(g2
g3
NtRp842
(dp843
g112
V10.1093/bioinformatics/14.9.817
p844
sg108
VBIOINFORMATICS
p845
sg110
V14
p846
sg153
(lp847
(VPOSADA
VD
tp848
asg35
I1998
sg104
V817
p849
sbag1
(g2
g3
NtRp850
(dp851
g112
Nsg108
VBACTERIAL ARTIFICIAL
p852
sg110
V1
sg153
(lp853
(VROE
VB
tp854
asg35
I2004
sg104
V171
p855
sbag1
(g2
g3
NtRp856
(dp857
g112
V10.1093/bioinformatics/btg180
p858
sg108
VBIOINFORMATICS
p859
sg110
V19
p860
sg153
(lp861
(VRONQUIST
VF
tp862
asg35
I2003
sg104
V1572
p863
sbag1
(g2
g3
NtRp864
(dp865
g112
VDOI 10.1385/1-59259-192-2:365
p866
sg108
VBIOINFORMATICS METHO
p867
sg110
Nsg153
(lp868
(VROZEN
VS
tp869
asg35
I2000
sg104
V365
p870
sbag1
(g2
g3
NtRp871
(dp872
g112
Nsg108
VProc Natl Acad Sci U S A
p873
sg110
V91
p874
sg153
(lp875
(VSAGHAI
VMAROOF M A
tp876
asg35
I1994
sg104
Vroc
p877
sbag1
(g2
g3
NtRp878
(dp879
g112
V10.1101/gr.10.4.516
p880
sg108
VGENOME RES
p881
sg110
V10
p882
sg153
(lp883
(VSALAMOV
VA A
tp884
asg35
I2000
sg104
V516
p885
sbag1
(g2
g3
NtRp886
(dp887
g112
Nsg108
VMOL CLONING LAB MANU
p888
sg110
Nsg153
(lp889
(VSAMBROOK
VJ
tp890
asg35
I1989
sg104
Nsbag1
(g2
g3
NtRp891
(dp892
g112
V10.1534/genetics.105.055020
p893
sg108
VGENETICS
p894
sg110
V174
p895
sg153
(lp896
(VSCHLUETER
VJ A
tp897
asg35
I2006
sg104
V1017
p898
sbag1
(g2
g3
NtRp899
(dp900
g112
V10.1016/j.pbi.2007.01.014
p901
sg108
VCURR OPIN PLANT BIOL
p902
sg110
V10
p903
sg153
(lp904
(VSCHRANZ
VM E
tp905
asg35
I2007
sg104
V168
p906
sbag1
(g2
g3
NtRp907
(dp908
g112
V10.1016/j.pbi.2006.01.007
p909
sg108
VCURR OPIN PLANT BIOL
p910
sg110
V9
sg153
(lp911
(VSHOEMAKER
VR C
tp912
asg35
I2006
sg104
V104
p913
sbag1
(g2
g3
NtRp914
(dp915
g112
V10.1139/G07-037
p916
sg108
VGENOME
p917
sg110
V50
p918
sg153
(lp919
(VSINGH
VR J
tp920
asg35
I2007
sg104
V525
p921
sbag1
(g2
g3
NtRp922
(dp923
g112
V10.1101/gr.2332504
p924
sg108
VGENOME RES
p925
sg110
V14
p926
sg153
(lp927
(VSWIGONOVA
VZ
tp928
asg35
I2004
sg104
V1916
p929
sbag1
(g2
g3
NtRp930
(dp931
g112
Nsg108
VPAUP PHYLOGENETIC AN
p932
sg110
Nsg153
(lp933
(VSWOFFORD
VD L
tp934
asg35
I2002
sg104
VAUP
p935
sbag1
(g2
g3
NtRp936
(dp937
g112
V10.1101/gr.184001
p938
sg108
VGENOME RES
p939
sg110
V11
p940
sg153
(lp941
(VTEMNYKH
VS
tp942
asg35
I2001
sg104
V1441
p943
sbag1
(g2
g3
NtRp944
(dp945
g112
V10.1101/gr.4708406
p946
sg108
VGENOME RES
p947
sg110
V16
p948
sg153
(lp949
(VTHOMAS
VB C
tp950
asg35
I2006
sg104
V934
p951
sbag1
(g2
g3
NtRp952
(dp953
g112
V10.1093/nar/22.22.4673
p954
sg108
VNUCLEIC ACIDS RES
p955
sg110
V22
p956
sg153
(lp957
(VTHOMPSON
VJ D
tp958
asg35
I1994
sg104
V4673
p959
sbag1
(g2
g3
NtRp960
(dp961
g112
V10.1038/nature01588
p962
sg108
VNATURE
p963
sg110
V423
p964
sg153
(lp965
(VTIAN
VD
tp966
asg35
I2003
sg104
V74
p967
sbag1
(g2
g3
NtRp968
(dp969
g112
V10.1007/BF00041174
p970
sg108
VPLANT MOL BIOL
p971
sg110
V29
p972
sg153
(lp973
(VVAHEDIAN
VM
tp974
asg35
I1995
sg104
VLANT
p975
sbag1
(g2
g3
NtRp976
(dp977
g112
V10.1093/dnares/dsn001
p978
sg108
VDNA RES
p979
sg110
V15
p980
sg153
(lp981
(VVAN
VK
tp982
asg35
I2008
sg104
V93
p983
sbag1
(g2
g3
NtRp984
(dp985
g112
V10.1016/S0076-6879(05)95024-6
p986
sg108
VMETHOD ENZYMOL
p987
sg110
V395
p988
sg153
(lp989
(VWALLING
VJ G
tp990
asg35
I2005
sg104
V443
p991
sbag1
(g2
g3
NtRp992
(dp993
g112
V10.1104/pp.108.127910
p994
sg108
VPLANT PHYSIOL
p995
sg110
V148
p996
sg153
(lp997
(VWAWRZYNSKI
VA
tp998
asg35
I2008
sg104
VLANT
p999
sbag1
(g2
g3
NtRp1000
(dp1001
g112
Nsg108
VCOMPUT APPL BIOSCI
p1002
sg110
V13
p1003
sg153
(lp1004
(VYANG
VZ H
tp1005
asg35
I1997
sg104
V555
p1006
sbag1
(g2
g3
NtRp1007
(dp1008
g112
Nsg108
VMOL BIOL EVOL
p1009
sg110
V19
p1010
sg153
(lp1011
(VZHANG
VL Q
tp1012
asg35
I2002
sg104
V1464
p1013
sbasb.