ccopy_reg
_reconstructor
p1
(ctethne.classes.paper
Paper
p2
c__builtin__
object
p3
NtRp4
(dp5
S'publisherCity'
p6
VOXFORD
p7
sS'reprintAddress'
p8
VGomes, HI (reprint author), Univ Nova Lisboa, Fac Ciencias & Tecnol, Dept Ciencias & Engn Ambiente, CENSE Ctr Environm & Sustainabil Res, P-2829516 Caparica, Portugal.
p9
sS'WC'
p10
(lp11
VENVIRONMENTAL SCIENCES
p12
asS'GA'
p13
VCI2NP
p14
sS'FX'
p15
(lp16
VThis work was funded by the European Regional Development Fund (ERDF)
p17
aVthrough COMPETE - Operational Programme for Competitiveness Factors
p18
aV(OPCF), by Portuguese National funds through "FCT - Fundacao para a
p19
aVCiencia e a Tecnologia" under project PTDC/AGR-AAM/101643/2008 NanoDC",
p20
aVby FP7-PEOPLE-IRSES-2010-269289-ELECTROACROSS and by the research grant
p21
aVSFRH/BD/76070/2011. Prof. Jorge Varejao and Helena Silva are
p22
aVacknowledged for GC analysis and Sabrina Madsen for ICP analysis. NANO
p23
aVIRON, s.r.o. kindly provided NANOFER 25S samples.
p24
asS'abstract'
p25
VPolychlorinated biphenyls (PCB) are carcinogenic and persistent organic pollutants that accumulate in soils and sediments. Currently, there is no cost-effective and sustainable remediation technology for these contaminants. In this work, a new combination of electrodialytic remediation and zero valent iron particles in a two-compartment cell is tested and compared to a more conventional combination of electrokinetic remediation and nZVI in a three-compartment cell. In the new two-compartment cell, the soil is suspended and stirred simultaneously with the addition of zero valent iron nanoparticles. Remediation experiments are made with two different historically PCB contaminated soils, which differ in both soil composition and contamination source. Soil 1 is a mix of soils with spills of transformer oils, while Soil 2 is a superficial soil from a decommissioned school where PCB were used as windows sealants. Saponin, a natural surfactant, was also tested to increase the PCB desorption from soils and enhance dechlorination. Remediation of Soil 1 (with highest pH, carbonate content, organic matter and PCB concentrations) obtained the maximum 83% and 60% PCB removal with the two-compartment and the three-compartment cell, respectively. The highest removal with Soil 2 were 58% and 45%, in the two-compartment and the three-compartment cell, respectively, in the experiments Without direct current. The pH of the soil suspension in the two-compartment treatment appears to be a determining factor for the PCB dechlorination, and this cell allowed a uniform distribution of the nanoparticles in the soil, while there was iron accumulation in the injection reservoir in the three-compartment cell.. (C) 2015 Elsevier Ltd. All rights reserved.
p26
sS'keywordsPlus'
p27
(lp28
VElectroremediation; nZVI; Polychlorinated biphenyls PCB; Contaminated
p29
aVsoil
p30
asS'pageEnd'
p31
I163
sS'date'
p32
I2015
sS'documentType'
p33
VArticle
p34
sS'subject'
p35
(lp36
VENVIRONMENTAL SCIENCES & ECOLOGY
p37
asS'isoSource'
p38
VChemosphere
p39
sS'timesCited'
p40
VZ9 0
p41
sS'funding'
p42
(lp43
(VEuropean Regional Development Fund (ERDF) through COMPETE - Operational Programme for Competitiveness Factors (OPCF)
Ntp44
a(VPortuguese National funds through "FCT - Fundacao para a Ciencia e a Tecnologia"
VPTDC/AGR-AAM/101643/2008 NanoDC
tp45
a(V[FP7-PEOPLE-IRSES-2010-269289-ELECTROACROSS]
Ntp46
a(V[SFRH/BD/76070/2011]
Ntp47
asS'PT'
p48
VJ
sS'title'
p49
VElectroremediation Of Pcb Contaminated Soil Combined With Iron Nanoparticles: Effect Of The Soil Type
p50
sS'ISSN'
p51
V0045-6535
p52
sS'authors_full'
p53
(lp54
(VGOMES
VHELENA I
tp55
a(VDIASFERREIRA
VCELIA
tp56
a(VOTTOSEN
VLISBETH M
tp57
a(VRIBEIRO
VALEXANDRA B
tp58
asS'PG'
p59
I7
sS'PD'
p60
VJUL
p61
sS'pageStart'
p62
I157
sS'PM'
p63
I25841071
sS'EI'
p64
(lp65
V1879-1298
p66
aVJ9 CHEMOSPHERE
p67
asS'journal'
p68
VCHEMOSPHERE
p69
sS'volume'
p70
V131
p71
sS'doi'
p72
V10.1016/j.chemosphere.2015.03.007
p73
sS'emailAddress'
p74
Vhrg@campus.fct.unl.pt
p75
sS'authorAddress'
p76
(lp77
V[Gomes, Helena I.; Ribeiro, Alexandra B.] Univ Nova Lisboa, Fac Ciencias & Tecnol, Dept Ciencias & Engn Ambiente, CENSE Ctr Environm & Sustainabil Res, P-2829516 Caparica, Portugal.
p78
aV[Gomes, Helena I.; Dias-Ferreira, Celia] Inst Politecn Coimbra, Escola Super Agr Coimbra, CERNAS Res Ctr Nat Resources Environm & Soc, P-3045601 Coimbra, Portugal.
p79
aV[Gomes, Helena I.; Ottosen, Lisbeth M.] Tech Univ Denmark, Dept Civil Engn, DK-2800 Lyngby, Denmark.
p80
asS'publisherAddress'
p81
VTHE BOULEVARD, LANGFORD LANE, KIDLINGTON, OXFORD OX5 1GB, ENGLAND
p82
sS'publisher'
p83
VPERGAMON-ELSEVIER SCIENCE LTD
p84
sS'authorKeywords'
p85
(lp86
VELECTRODIALYTIC REMEDIATION
p87
aVFLY-ASH
p88
aVELECTROKINETIC REMEDIATION
p89
aVPOLYCHLORINATED-BIPHENYLS
p90
aVREMOVAL
p91
aVCU
p92
aVTRANSPORT
p93
aVPB
p94
aVDECHLORINATION
p95
aVSURFACTANTS
p96
asS'language'
p97
VEnglish
p98
sS'wosid'
p99
VWOS:000354584600020
p100
sS'citationCount'
p101
I50
sS'authors_init'
p102
(lp103
(VGOMES
VH I
tp104
a(VDIASFERREIRA
VC
tp105
a(VOTTOSEN
VL M
tp106
a(VRIBEIRO
VA B
tp107
asS'citedReferences'
p108
(lp109
g1
(g2
g3
NtRp110
(dp111
g72
V10.1021/es00049a002
p112
sg68
VENVIRON SCI TECHNOL
p113
sg70
V27
p114
sg102
(lp115
(VACAR
VY B
tp116
asg32
I1993
sg62
V2638
p117
sbag1
(g2
g3
NtRp118
(dp119
g72
V10.1007/s12303-009-0017-1
p120
sg68
VGEOSCI J
p121
sg70
V13
p122
sg102
(lp123
(VASADI
VA
tp124
asg32
I2009
sg62
V175
p125
sbag1
(g2
g3
NtRp126
(dp127
g72
V10.1016/j.electacta.2012.06.121
p128
sg68
VELECTROCHIM ACTA
p129
sg70
V86
p130
sg102
(lp131
(VCAMESELLE
VC
tp132
asg32
I2012
sg62
V10
p133
sbag1
(g2
g3
NtRp134
(dp135
g72
V10.1016/j.envpol.2012.11.015
p136
sg68
VENVIRON POLLUT
p137
sg70
V174
p138
sg102
(lp139
(VCAO
VM H
tp140
asg32
I2013
sg62
V93
p141
sbag1
(g2
g3
NtRp142
(dp143
g72
Nsg68
VENVIRON SCI POLLUT R
p144
sg70
Nsg102
(lp145
(VCHEN
VX
tp146
asg32
I2014
sg62
V1
sbag1
(g2
g3
NtRp147
(dp148
g72
Nsg68
VIND WAST RES GUID
p149
sg70
Nsg102
(lp150
(VEPA
S''
tp151
asg32
I2009
sg62
Nsbag1
(g2
g3
NtRp152
(dp153
g72
V10.1016/j.seppur.2013.04.030
p154
sg68
VSEP PURIF TECHNOL
p155
sg70
V114
p156
sg102
(lp157
(VFAN
VG P
tp158
asg32
I2013
sg62
V64
p159
sbag1
(g2
g3
NtRp160
(dp161
g72
V10.1081/SS-200068412
p162
sg68
VSEP SCI TECHNOL
p163
sg70
V40
p164
sg102
(lp165
(VFERREIRA
VC
tp166
asg32
I2005
sg62
V2007
p167
sbag1
(g2
g3
NtRp168
(dp169
g72
Nsg68
VWATER AIR SOIL POLL
p170
sg70
V224
p171
sg102
(lp172
(VGOMES
VH
tp173
asg32
I2013
sg62
V1
sbag1
(g2
g3
NtRp174
(dp175
g72
V10.1016/j.jcis.2014.07.022
p176
sg68
VJ COLLOID INTERF SCI
p177
sg70
V433
p178
sg102
(lp179
(VGOMES
VH I
tp180
asg32
I2014
sg62
V189
p181
sbag1
(g2
g3
NtRp182
(dp183
g72
V10.1016/j.scitotenv.2012.11.098
p184
sg68
VSCI TOTAL ENVIRON
p185
sg70
V445
p186
sg102
(lp187
(VGOMES
VH I
tp188
asg32
I2013
sg62
V237
p189
sbag1
(g2
g3
NtRp190
(dp191
g72
V10.1016/j.chemosphere.2012.02.037
p192
sg68
VCHEMOSPHERE
p193
sg70
V87
p194
sg102
(lp195
(VGOMES
VH I
tp196
asg32
I2012
sg62
V1077
p197
sbag1
(g2
g3
NtRp198
(dp199
g72
Nsg68
VJ ENV MANAGE
p200
sg70
Nsg102
(lp201
(VGOMES
VH I
tp202
asg32
I2015
sg62
Nsbag1
(g2
g3
NtRp203
(dp204
g72
V10.1016/j.scitotenv.2014.05.112
p205
sg68
VSCI TOTAL ENVIRON
p206
sg70
V493
p207
sg102
(lp208
(VGOMES
VH I
tp209
asg32
I2014
sg62
V178
p210
sbag1
(g2
g3
NtRp211
(dp212
g72
V10.1016/j.chemosphere.2013.10.065
p213
sg68
VCHEMOSPHERE
p214
sg70
V99
p215
sg102
(lp216
(VGOMES
VH I
tp217
asg32
I2014
sg62
V171
p218
sbag1
(g2
g3
NtRp219
(dp220
g72
V10.1016/j.watres.2009.12.041
p221
sg68
VWATER RES
p222
sg70
V44
p223
sg102
(lp224
(VHE
VF
tp225
asg32
I2010
sg62
V2360
p226
sbag1
(g2
g3
NtRp227
(dp228
g72
V10.1016/j.apcatb.2008.05.008
p229
sg68
VAPPL CATAL B
p230
sg70
V84
p231
sg102
(lp232
(VHE
VF
tp233
asg32
I2008
sg62
V533
p234
sbag1
(g2
g3
NtRp235
(dp236
g72
V10.1016/j.electacta.2006.03.116
p237
sg68
VELECTROCHIM ACTA
p238
sg70
V52
p239
sg102
(lp240
(VJENSEN
VP E
tp241
asg32
I2007
sg62
V3412
p242
sbag1
(g2
g3
NtRp243
(dp244
g72
Nsg68
VCONTAMINATION PCB SE
p245
sg70
Nsg102
(lp246
(VJENSEN
VS F
tp247
asg32
I2009
sg62
Nsbag1
(g2
g3
NtRp248
(dp249
g72
V10.1016/j.chemosphere.2005.10.008
p250
sg68
VCHEMOSPHERE
p251
sg70
V63
p252
sg102
(lp253
(VKIM
VJ H
tp254
asg32
I2006
sg62
V1667
p255
sbag1
(g2
g3
NtRp256
(dp257
g72
V10.1002/9780470523650.ch33
p258
sg68
VELECTROCHEMICAL REME
p259
sg70
Nsg102
(lp260
(VLAGEMAN
VR
tp261
asg32
I2009
sg62
V697
p262
sbag1
(g2
g3
NtRp263
(dp264
g72
V10.1016/j.scitotenv.2010.10.040
p265
sg68
VSCI TOTAL ENVIRON
p266
sg70
V409
p267
sg102
(lp268
(VLOPAREVA-POHU
VA
tp269
asg32
I2011
sg62
V647
p270
sbag1
(g2
g3
NtRp271
(dp272
g72
V10.1021/es049835q
p273
sg68
VENVIRON SCI TECHNOL
p274
sg70
V38
p275
sg102
(lp276
(VLOWRY
VG V
tp277
asg32
I2004
sg62
V5208
p278
sbag1
(g2
g3
NtRp279
(dp280
g72
Nsg68
VCLAYS CLAY MINERALS
p281
sg70
V0007
p282
sg102
(lp283
(VMEHRA
VO P
tp284
asg32
I1960
sg62
Nsbag1
(g2
g3
NtRp285
(dp286
g72
V10.1080/10934529.2011.580212
p287
sg68
VJ ENVIRON SCI HEAL A
p288
sg70
V46
p289
sg102
(lp290
(VMENA
VE
tp291
asg32
I2011
sg62
V914
p292
sbag1
(g2
g3
NtRp293
(dp294
g72
Nsg68
VWATER AIR SOIL POLL
p295
sg70
V224
p296
sg102
(lp297
(VOTTOSEN
VL
tp298
asg32
I2013
sg62
V1
sbag1
(g2
g3
NtRp299
(dp300
g72
Nsg68
VCAN SOIL QUAL GUID P
p301
sg70
Nsg102
(lp302
(VOTTOSEN
VL M
tp303
asg32
I2013
sg62
Vatent
p304
sbag1
(g2
g3
NtRp305
(dp306
g72
V10.1080/10934520801973949
p307
sg68
VJ ENVIRON SCI HEAL A
p308
sg70
V43
p309
sg102
(lp310
(VOTTOSEN
VL M
tp311
asg32
I2008
sg62
V795
p312
sbag1
(g2
g3
NtRp313
(dp314
g72
V10.1007/s11270-008-9945-z
p315
sg68
VWATER AIR SOIL POLL
p316
sg70
V201
p317
sg102
(lp318
(VOTTOSEN
VL M
tp319
asg32
I2009
sg62
V295
p320
sbag1
(g2
g3
NtRp321
(dp322
g72
V10.1080/01496390902979651
p323
sg68
VSEPAR SCI TECHNOL
p324
sg70
V44
p325
sg102
(lp326
(VOTTOSEN
VL M
tp327
asg32
I2009
sg62
V2245
p328
sbag1
(g2
g3
NtRp329
(dp330
g72
V10.1002/jctb.1424
p331
sg68
VJ CHEM TECHNOL BIOT
p332
sg70
V81
p333
sg102
(lp334
(VOTTOSEN
VL M
tp335
asg32
I2006
sg62
V553
p336
sbag1
(g2
g3
NtRp337
(dp338
g72
V10.1016/S0304-3894(01)00231-X
p339
sg68
VJ HAZARD MATER
p340
sg70
V85
p341
sg102
(lp342
(VOTTOSEN
VL M
tp343
asg32
I2001
sg62
V291
p344
sbag1
(g2
g3
NtRp345
(dp346
g72
V10.1016/j.jhazmat.2009.08.052
p347
sg68
VJ HAZARD MATER
p348
sg70
V173
p349
sg102
(lp350
(VOUHADI
VV R
tp351
asg32
I2010
sg62
V87
p352
sbag1
(g2
g3
NtRp353
(dp354
g72
V10.1021/es802187d
p355
sg68
VENVIRON SCI TECHNOL
p356
sg70
V43
p357
sg102
(lp358
(VPHENRAT
VT
tp359
asg32
I2009
sg62
V1507
p360
sbag1
(g2
g3
NtRp361
(dp362
g72
V10.1061/(ASCE)0733-9372(2003)129:4(336)
p363
sg68
VJ ENVIRON ENG
p364
sg70
V129
p365
sg102
(lp366
(VREDDY
VK R
tp367
asg32
I2003
sg62
V336
p368
sbag1
(g2
g3
NtRp369
(dp370
g72
V10.1016/j.seppur.2011.01.033
p371
sg68
VSEP PURIF TECHNOL
p372
sg70
V79
p373
sg102
(lp374
(VREDDY
VK R
tp375
asg32
I2011
sg62
V230
p376
sbag1
(g2
g3
NtRp377
(dp378
g72
V10.1016/S0304-3894(97)00020-4
p379
sg68
VJ HAZARD MATER
p380
sg70
V55
p381
sg102
(lp382
(VREDDY
VK R
tp383
asg32
I1997
sg62
V135
p384
sbag1
(g2
g3
NtRp385
(dp386
g72
V10.1016/j.chemosphere.2004.11.054
p387
sg68
VCHEMOSPHERE
p388
sg70
V59
p389
sg102
(lp390
(VRIBEIRO
VA B
tp391
asg32
I2005
sg62
V1229
p392
sbag1
(g2
g3
NtRp393
(dp394
g72
V10.1016/j.seppur.2011.01.045
p395
sg68
VSEP PURIF TECHNOL
p396
sg70
V79
p397
sg102
(lp398
(VRIBEIRO
VA B
tp399
asg32
I2011
sg62
V193
p400
sbag1
(g2
g3
NtRp401
(dp402
g72
Nsg68
VTRACE ELEMENTS ENV B
p403
sg70
Nsg102
(lp404
(VRIBEIRO
VA B
tp405
asg32
I2006
sg62
V341
p406
sbag1
(g2
g3
NtRp407
(dp408
g72
V10.1021/es990442e
p409
sg68
VENVIRON SCI TECHNOL
p410
sg70
V34
p411
sg102
(lp412
(VRIBEIRO
VA B
tp413
asg32
I2000
sg62
V784
p414
sbag1
(g2
g3
NtRp415
(dp416
g72
V10.1016/j.jhazmat.2011.12.006
p417
sg68
VJ HAZARD MATER
p418
sg70
V203
p419
sg102
(lp420
(VSUN
VT R
tp421
asg32
I2012
sg62
V229
p422
sbag1
(g2
g3
NtRp423
(dp424
g72
Nsg68
VPCB Regulations at 40 CFR Part 761
p425
sg70
Nsg102
(lp426
(VUSEPA
S''
tp427
asg32
I2012
sg62
VCB
p428
sbag1
(g2
g3
NtRp429
(dp430
g72
V10.1016/j.chemosphere.2006.07.036
p431
sg68
VCHEMOSPHERE
p432
sg70
V66
p433
sg102
(lp434
(VVARANASI
VP
tp435
asg32
I2007
sg62
V1031
p436
sbag1
(g2
g3
NtRp437
(dp438
g72
V10.1021/es970039c
p439
sg68
VENVIRON SCI TECHNOL
p440
sg70
V31
p441
sg102
(lp442
(VWANG
VC B
tp443
asg32
I1997
sg62
V2154
p444
sbag1
(g2
g3
NtRp445
(dp446
g72
V10.1007/s11356-011-0587-0
p447
sg68
VENVIRON SCI POLLUT R
p448
sg70
V19
p449
sg102
(lp450
(VWANG
VY
tp451
asg32
I2012
sg62
V448
p452
sbag1
(g2
g3
NtRp453
(dp454
g72
V10.1016/j.biortech.2009.04.069
p455
sg68
VBIORESOURCE TECHNOL
p456
sg70
V100
p457
sg102
(lp458
(VXIA
VH L
tp459
asg32
I2009
sg62
V4649
p460
sbag1
(g2
g3
NtRp461
(dp462
g72
V10.1016/j.seppur.2011.03.004
p463
sg68
VSEP PURIF TECHNOL
p464
sg70
V79
p465
sg102
(lp466
(VYANG
VG C C
tp467
asg32
I2011
sg62
V278
p468
sbag1
(g2
g3
NtRp469
(dp470
g72
Nsg68
VSOIL POLLUTION PROCE
p471
sg70
Nsg102
(lp472
(VYARON
VB
tp473
asg32
I1996
sg62
Nsbag1
(g2
g3
NtRp474
(dp475
g72
V10.1016/j.envpol.2011.02.001
p476
sg68
VENVIRON POLLUT
p477
sg70
V159
p478
sg102
(lp479
(VZHOU
VW J
tp480
asg32
I2011
sg62
V1198
p481
sbasb.