ccopy_reg
_reconstructor
p1
(ctethne.classes.paper
Paper
p2
c__builtin__
object
p3
NtRp4
(dp5
S'publisherCity'
p6
VROCKVILLE
p7
sS'reprintAddress'
p8
VMullet, JE (reprint author), Texas A&M Univ, Dept Biochem & Biophys, College Stn, TX 77843 USA.
p9
sS'WC'
p10
VPlant Sciences
p11
sS'GA'
p12
V925AE
p13
sS'abstract'
p14
VWe have conducted a large-scale study of gene expression in the C4 monocot sorghum (Sorghum bicolor) L. Moench cv BTx623 in response to the signaling compounds salicylic acid (SA), methyl jasmonate (MeJA), and the ethylene precursor aminocyclopropane carboxylic acid. Expression profiles were generated from seedling root and shoot tissue at 3 and 27 h, using a microarray containing 12,982 nonredundant elements. Data from 102 slides and quantitative reverse transcription-PCR data on mRNA abundance from 171 genes were collected and analyzed and are here made publicly available. Numerous gene clusters were identified in which expression was correlated with particular signaling compound and tissue combinations. Many genes previously implicated in defense responded to the treatments, including numerous pathogenesis-related genes and most members of the phenylpropanoid pathway, and several other genes that may represent novel activities or pathways. Genes of the octadecanoic acid pathway of jasmonic acid (JA) synthesis were induced by SA as well as by MeJA. The resulting hypothesis that increased SA could lead to increased endogenous JA production was confirmed by measurement of JA content. Comparison of responses to SA, MeJA, and combined SA+MeJA revealed patterns of one-way and mutual antagonisms, as well as synergistic effects on regulation of some genes. These experiments thus help further define the transcriptional results of cross talk between the SA and JA pathways and suggest that a subset of genes coregulated by SA and JA may comprise a uniquely evolved sector of plant signaling responsive cascades.
p15
sS'pageEnd'
p16
I368
sS'publisherAddress'
p17
V15501 MONONA DRIVE, ROCKVILLE, MD 20855 USA
p18
sS'documentType'
p19
VArticle
p20
sS'subject'
p21
VPlant Sciences
p22
sS'isoSource'
p23
VPlant Physiol.
p24
sS'timesCited'
p25
(lp26
I72
aVZ9 80
p27
asS'PT'
p28
VJ
sS'title'
p29
VTranscriptional Profiling Of Sorghum Induced By Methyl Jasmonate, Salicylic Acid, And Aminocyclopropane Carboxylic Acid Reveals Cooperative Regulation And Novel Gene Responses
p30
sS'ISSN'
p31
(lp32
V0032-0889
p33
aVJ9 PLANT PHYSIOL
p34
asS'authors_full'
p35
(lp36
(VSALZMAN
VRA
tp37
a(VBRADY
VJA
tp38
a(VFINLAYSON
VSA
tp39
a(VBUCHANAN
VCD
tp40
a(VSUMMER
VEJ
tp41
a(VSUN
VF
tp42
a(VKLEIN
VPE
tp43
a(VKLEIN
VRR
tp44
a(VPRATT
VLH
tp45
a(VCORDONNIERPRATT
VMM
tp46
a(VMULLET
VJE
tp47
asS'PG'
p48
I17
sS'PD'
p49
VMAY
p50
sS'pageStart'
p51
I352
sS'issue'
p52
I1
sS'journal'
p53
VPLANT PHYSIOLOGY
p54
sS'volume'
p55
V138
p56
sS'doi'
p57
V10.1104/pp.104.058206
p58
sS'emailAddress'
p59
Vjmullet@tamu.edu
p60
sS'authorAddress'
p61
(lp62
VTexas A&M Univ, Dept Biochem & Biophys, College Stn, TX 77843 USA.
p63
aVTexas A&M Univ, Inst Plant Genom & Biotechnol, College Stn, TX 77843 USA.
p64
aVTexas A&M Univ, Dept Soil & Crop Sci, College Stn, TX 77843 USA.
p65
aVTexas A&M Univ, Dept Hort, College Stn, TX 77843 USA.
p66
aVTexas A&M Univ, Genet Program, College Stn, TX 77843 USA.
p67
aVUSDA ARS, So Plains Agr Res Ctr, College Stn, TX 77845 USA.
p68
aVUniv Georgia, Dept Plant Biol, Athens, GA 30602 USA.
p69
asS'date'
p70
I2005
sS'ER'
p71
V
sS'publisher'
p72
VAMER SOC PLANT BIOLOGISTS
p73
sS'authorKeywords'
p74
(lp75
VSYSTEMIC ACQUIRED-RESISTANCE
p76
aVALLENE OXIDE SYNTHASE
p77
aVMEDIATED DISEASE RESISTANCE
p78
aVDEPENDENT DEFENSE PATHWAYS
p79
aVARABIDOPSIS-THALIANA
p80
aVPSEUDOMONAS-SYRINGAE
p81
aVPLANT DEFENSE
p82
aVSIGNAL-TRANSDUCTION
p83
aVMICROARRAY ANALYSIS
p84
aVPATHOGEN DEFENSE
p85
asS'language'
p86
VEnglish
p87
sS'wosid'
p88
VWOS:000229023100035
p89
sS'citationCount'
p90
I66
sS'authors_init'
p91
(lp92
(VSALZMAN
VR A
tp93
a(VBRADY
VJ A
tp94
a(VFINLAYSON
VS A
tp95
a(VBUCHANAN
VC D
tp96
a(VSUMMER
VE J
tp97
a(VSUN
VF
tp98
a(VKLEIN
VP E
tp99
a(VKLEIN
VR R
tp100
a(VPRATT
VL H
tp101
a(VCORDONNIERPRATT
VM M
tp102
a(VMULLET
VJ E
tp103
asS'citedReferences'
p104
(lp105
g1
(g2
g3
NtRp106
(dp107
g57
V10.1073/pnas.0438070100
p108
sg53
VP NATL ACAD SCI USA
p109
sg55
V100
p110
sg91
(lp111
(VALONSO
VJ M
tp112
asg70
I2003
sg51
V2992
p113
sbag1
(g2
g3
NtRp114
(dp115
g57
V10.1093/nar/25.17.3389
p116
sg53
VNUCLEIC ACIDS RES
p117
sg55
V25
p118
sg91
(lp119
(VALTSCHUL
VS F
tp120
asg70
I1997
sg51
V3389
p121
sbag1
(g2
g3
NtRp122
(dp123
g57
V10.1006/jmbi.1990.9999
p124
sg53
VJ MOL BIOL
p125
sg55
V215
p126
sg91
(lp127
(VALTSCHUL
VS F
tp128
asg70
I1990
sg51
V403
p129
sbag1
(g2
g3
NtRp130
(dp131
g57
V10.1016/S0092-8674(00)81405-1
p132
sg53
VCELL
p133
sg55
V92
p134
sg91
(lp135
(VALVAREZ
VM E
tp136
asg70
I1998
sg51
V773
p137
sbag1
(g2
g3
NtRp138
(dp139
g57
V10.1046/j.1365-313x.2002.01191.x
p140
sg53
VPLANT J
p141
sg55
V29
p142
sg91
(lp143
(VBERROCAL-LOBO
VM
tp144
asg70
I2002
sg51
VLANT
p145
sbag1
(g2
g3
NtRp146
(dp147
g57
V10.1016/S1360-1385(99)01427-2
p148
sg53
VTRENDS PLANT SCI
p149
sg55
V4
sg91
(lp150
(VBLEECKER
VA B
tp151
asg70
I1999
sg51
V269
p152
sbag1
(g2
g3
NtRp153
(dp154
g57
V10.1101/gad.218202
p155
sg53
VGENE DEV
p156
sg55
V16
p157
sg91
(lp158
(VBRODERSEN
VP
tp159
asg70
I2002
sg51
V490
p160
sbag1
(g2
g3
NtRp161
(dp162
g57
V10.1016/S0092-8674(00)81858-9
p163
sg53
VCELL
p164
sg55
V88
p165
sg91
(lp166
(VCAO
VH
tp167
asg70
I1997
sg51
V57
p168
sbag1
(g2
g3
NtRp169
(dp170
g57
V10.1002/cfg.399
p171
sg53
VCOMP FUNCT GENOM
p172
sg55
V5
sg91
(lp173
(VCORDONNIER-PRATT
VM M
tp174
asg70
I2004
sg51
V268
p175
sbag1
(g2
g3
NtRp176
(dp177
g57
V10.1146/annurev.arplant.48.1.355
p178
sg53
VANNU REV PLANT PHYS
p179
sg55
V48
p180
sg91
(lp181
(VCREELMAN
VR A
tp182
asg70
I1997
sg51
V355
p183
sbag1
(g2
g3
NtRp184
(dp185
g57
V10.1073/pnas.92.10.4114
p186
sg53
VP NATL ACAD SCI USA
p187
sg55
V92
p188
sg91
(lp189
(VCREELMAN
VR A
tp190
asg70
I1995
sg51
V4114
p191
sbag1
(g2
g3
NtRp192
(dp193
g57
V10.1046/j.1365-313x.2000.00802.x
p194
sg53
VPLANT J
p195
sg55
V23
p196
sg91
(lp197
(VDHONDT
VS
tp198
asg70
I2000
sg51
VLANT
p199
sbag1
(g2
g3
NtRp200
(dp201
g57
Nsg53
VPLANT PHYSIOL
p202
sg55
V108
p203
sg91
(lp204
(VDOARES
VS H
tp205
asg70
I1995
sg51
VLANT
p206
sbag1
(g2
g3
NtRp207
(dp208
g57
V10.1016/S1360-1385(97)86349-2
p209
sg53
VTRENDS PLANT SCI
p210
sg55
V2
sg91
(lp211
(VDURNER
VJ
tp212
asg70
I1997
sg51
V266
p213
sbag1
(g2
g3
NtRp214
(dp215
g57
V10.1046/j.1365-313X.2003.01944.x
p216
sg53
VPLANT J
p217
sg55
V36
p218
sg91
(lp219
(VEKENGREN
VS K
tp220
asg70
I2003
sg51
VLANT
p221
sbag1
(g2
g3
NtRp222
(dp223
g57
V10.1073/pnas.96.6.3292
p224
sg53
VP NATL ACAD SCI USA
p225
sg55
V96
p226
sg91
(lp227
(VFALK
VA
tp228
asg70
I1999
sg51
V3292
p229
sbag1
(g2
g3
NtRp230
(dp231
g57
Nsg53
VBIOL CHEM
p232
sg55
V384
p233
sg91
(lp234
(VFLEIGMANN
VJ
tp235
asg70
I2003
sg51
V437
p236
sbag1
(g2
g3
NtRp237
(dp238
g57
V10.1002/cfg.281
p239
sg53
VCOMP FUNCT GENOM
p240
sg55
V4
sg91
(lp241
(VGALBRAITH
VD W
tp242
asg70
I2003
sg51
V208
p243
sbag1
(g2
g3
NtRp244
(dp245
g57
V10.1046/j.1365-313X.2003.01717.x
p246
sg53
VPLANT J
p247
sg55
V34
p248
sg91
(lp249
(VGLAZEBROOK
VJ
tp250
asg70
I2003
sg51
VLANT
p251
sbag1
(g2
g3
NtRp252
(dp253
g57
V10.1126/science.1068275
p254
sg53
VSCIENCE
p255
sg55
V296
p256
sg91
(lp257
(VGOFF
VS A
tp258
asg70
I2002
sg51
V92
p259
sbag1
(g2
g3
NtRp260
(dp261
g57
V10.1094/MPMI.2000.13.5.503
p262
sg53
VMOL PLANT MICROBE IN
p263
sg55
V13
p264
sg91
(lp265
(VGUPTA
VV
tp266
asg70
I2000
sg51
V503
p267
sbag1
(g2
g3
NtRp268
(dp269
g57
V10.1104/pp.118.3.1057
p270
sg53
VPLANT PHYSIOL
p271
sg55
V118
p272
sg91
(lp273
(VHARMS
VK
tp274
asg70
I1998
sg51
VLANT
p275
sbag1
(g2
g3
NtRp276
(dp277
g57
V10.1046/j.1365-313X.2003.01881.x
p278
sg53
VPLANT J
p279
sg55
V36
p280
sg91
(lp281
(VHECK
VS
tp282
asg70
I2003
sg51
VLANT
p283
sbag1
(g2
g3
NtRp284
(dp285
g57
V10.1016/0885-5765(90)90067-8
p286
sg53
VPHYSIOL MOL PLANT P
p287
sg55
V36
p288
sg91
(lp289
(VHIPSKIND
VJ D
tp290
asg70
I1990
sg51
VHYSIOL
p291
sbag1
(g2
g3
NtRp292
(dp293
g57
V10.1104/pp.006288
p294
sg53
VPLANT PHYSIOL
p295
sg55
V130
p296
sg91
(lp297
(VHOLK
VA
tp298
asg70
I2002
sg51
VLANT
p299
sbag1
(g2
g3
NtRp300
(dp301
g57
V10.1073/pnas.96.23.13583
p302
sg53
VP NATL ACAD SCI USA
p303
sg55
V96
p304
sg91
(lp305
(VJIRAGE
VD
tp306
asg70
I1999
sg51
V13583
p307
sbag1
(g2
g3
NtRp308
(dp309
g57
V10.1073/pnas.94.5.2079
p310
sg53
VP NATL ACAD SCI USA
p311
sg55
V94
p312
sg91
(lp313
(VKIRSCH
VC
tp314
asg70
I1997
sg51
V2079
p315
sbag1
(g2
g3
NtRp316
(dp317
g57
V10.1016/S1369-5266(02)00275-3
p318
sg53
VCURR OPIN PLANT BIOL
p319
sg55
V5
sg91
(lp320
(VKUNKEL
VB N
tp321
asg70
I2002
sg51
V325
p322
sbag1
(g2
g3
NtRp323
(dp324
g57
V10.1023/A:1015132615650
p325
sg53
VEUR J PLANT PATHOL
p326
sg55
V108
p327
sg91
(lp328
(VLANDGRAF
VP
tp329
asg70
I2002
sg51
V279
p330
sbag1
(g2
g3
NtRp331
(dp332
g57
V10.1046/j.1365-313x.1998.00245.x
p333
sg53
VPLANT J
p334
sg55
V15
p335
sg91
(lp336
(VLAUDERT
VD
tp337
asg70
I1998
sg51
VLANT
p338
sbag1
(g2
g3
NtRp339
(dp340
g57
V10.1016/S1369-5266(02)00268-6
p341
sg53
VCURR OPIN PLANT BIOL
p342
sg55
V5
sg91
(lp343
(VLAXALT
VA M
tp344
asg70
I2002
sg51
V332
p345
sbag1
(g2
g3
NtRp346
(dp347
g57
V10.1006/pmpp.1999.0231
p348
sg53
VPHYSIOL MOL PLANT P
p349
sg55
V55
p350
sg91
(lp351
(VLO
VS C C
tp352
asg70
I1999
sg51
VHYSIOL
p353
sbag1
(g2
g3
NtRp354
(dp355
g57
V10.1105/tpc.022319
p356
sg53
VPLANT CELL
p357
sg55
V16
p358
sg91
(lp359
(VLORENZO
VO
tp360
asg70
I2004
sg51
VLANT
p361
sbag1
(g2
g3
NtRp362
(dp363
g57
V10.1038/nature00962
p364
sg53
VNATURE
p365
sg55
V419
p366
sg91
(lp367
(VMALDONADO
VA M
tp368
asg70
I2002
sg51
V399
p369
sbag1
(g2
g3
NtRp370
(dp371
g57
V10.1038/82521
p372
sg53
VNAT GENET
p373
sg55
V26
p374
sg91
(lp375
(VMALECK
VK
tp376
asg70
I2000
sg51
V403
p377
sbag1
(g2
g3
NtRp378
(dp379
g57
Nsg53
VCROP SCI
p380
sg55
V44
p381
sg91
(lp382
(VMENZ
VM A
tp383
asg70
I2004
sg51
V1236
p384
sbag1
(g2
g3
NtRp385
(dp386
g57
V[10.1104/pp.010688, 10.1104/pp.128.2.552]
p387
sg53
VPLANT PHYSIOL
p388
sg55
V128
p389
sg91
(lp390
(VMURPHY
VA M
tp391
asg70
I2002
sg51
VLANT
p392
sbag1
(g2
g3
NtRp393
(dp394
g57
Nsg53
VPLANT CELL
p395
sg55
V11
p396
sg91
(lp397
(VNAWRATH
VC
tp398
asg70
I1999
sg51
VLANT
p399
sbag1
(g2
g3
NtRp400
(dp401
g57
V10.1073/pnas.84.16.5520
p402
sg53
VP NATL ACAD SCI USA
p403
sg55
V84
p404
sg91
(lp405
(VNICHOLSON
VR L
tp406
asg70
I1987
sg51
V5520
p407
sbag1
(g2
g3
NtRp408
(dp409
g57
Nsg53
VPLANT CELL PHYSIOL
p410
sg55
V39
p411
sg91
(lp412
(VNIKI
VT
tp413
asg70
I1998
sg51
VLANT
p414
sbag1
(g2
g3
NtRp415
(dp416
g57
V10.1146/annurev.genet.37.110801.142628
p417
sg53
VANNU REV GENET
p418
sg55
V37
p419
sg91
(lp420
(VNIMCHUK
VZ
tp421
asg70
I2003
sg51
V579
p422
sbag1
(g2
g3
NtRp423
(dp424
g57
V10.1104/pp.003855
p425
sg53
VPLANT PHYSIOL
p426
sg55
V129
p427
sg91
(lp428
(VORDOG
VS H
tp429
asg70
I2002
sg51
VLANT
p430
sbag1
(g2
g3
NtRp431
(dp432
g57
V10.1074/jbc.273.29.18139
p433
sg53
VJ BIOL CHEM
p434
sg55
V273
p435
sg91
(lp436
(VPAN
VZ Q
tp437
asg70
I1998
sg51
V18139
p438
sbag1
(g2
g3
NtRp439
(dp440
g57
Nsg53
VPLANTA
p441
sg55
V104
p442
sg91
(lp443
(VPENACORTEZ
VH
tp444
asg70
I1993
sg51
VLANTA
p445
sbag1
(g2
g3
NtRp446
(dp447
g57
V10.1105/tpc.10.12.2103
p448
sg53
VPLANT CELL
p449
sg55
V10
p450
sg91
(lp451
(VPENNINCKX
VIAMA
tp452
asg70
I1998
sg51
VLANT
p453
sbag1
(g2
g3
NtRp454
(dp455
g57
V10.1016/S1369-5266(98)80264-1
p456
sg53
VCURR OPIN PLANT BIOL
p457
sg55
V1
sg91
(lp458
(VREYMOND
VP
tp459
asg70
I1998
sg51
V404
p460
sbag1
(g2
g3
NtRp461
(dp462
g57
V10.1105/tpc.11.10.1911
p463
sg53
VPLANT CELL
p464
sg55
V11
p465
sg91
(lp466
(VRICHMOND
VT A
tp467
asg70
I1999
sg51
VLANT
p468
sbag1
(g2
g3
NtRp469
(dp470
g57
V10.1105/tpc.9.3.425
p471
sg53
VPLANT CELL
p472
sg55
V9
sg91
(lp473
(VRYALS
VJ
tp474
asg70
I1997
sg51
VLANT
p475
sbag1
(g2
g3
NtRp476
(dp477
g57
V10.1105/tpc.8.10.1809
p478
sg53
VPLANT CELL
p479
sg55
V8
sg91
(lp480
(VRYALS
VJ A
tp481
asg70
I1996
sg51
VLANT
p482
sbag1
(g2
g3
NtRp483
(dp484
g57
V10.1007/s004250050706
p485
sg53
VPLANTA
p486
sg55
V210
p487
sg91
(lp488
(VSCHALLER
VF
tp489
asg70
I2000
sg51
VLANTA
p490
sbag1
(g2
g3
NtRp491
(dp492
g57
V10.1074/jbc.M104863200
p493
sg53
VJ BIOL CHEM
p494
sg55
V277
p495
sg91
(lp496
(VSCHEIDELER
VM
tp497
asg70
I2002
sg51
V10555
p498
sbag1
(g2
g3
NtRp499
(dp500
g57
V10.1073/pnas.97.21.11655
p501
sg53
VP NATL ACAD SCI USA
p502
sg55
V97
p503
sg91
(lp504
(VSCHENK
VP M
tp505
asg70
I2000
sg51
V11655
p506
sbag1
(g2
g3
NtRp507
(dp508
g57
V10.1104/pp.103.021683
p509
sg53
VPLANT PHYSIOL
p510
sg55
V132
p511
sg91
(lp512
(VSCHENK
VP M
tp513
asg70
I2003
sg51
VLANT
p514
sbag1
(g2
g3
NtRp515
(dp516
g57
Nsg53
VPLANT CELL
p517
sg55
V11
p518
sg91
(lp519
(VSHAH
VJ
tp520
asg70
I1999
sg51
VLANT
p521
sbag1
(g2
g3
NtRp522
(dp523
g57
V10.1021/ci990087b
p524
sg53
VJ CHEM INF COMP SCI
p525
sg55
V40
p526
sg91
(lp527
(VSHI
VL M
tp528
asg70
I2000
sg51
V367
p529
sbag1
(g2
g3
NtRp530
(dp531
g57
V10.1105/tpc.009159
p532
sg53
VPLANT CELL
p533
sg55
V15
p534
sg91
(lp535
(VSPOEL
VS H
tp536
asg70
I2003
sg51
VLANT
p537
sbag1
(g2
g3
NtRp538
(dp539
g57
Nsg53
VPLANT J
p540
sg55
V32
p541
sg91
(lp542
(VSTRASSNER
VJ
tp543
asg70
I2003
sg51
VLANT
p544
sbag1
(g2
g3
NtRp545
(dp546
g57
V10.1105/tpc.007591
p547
sg53
VPLANT CELL
p548
sg55
V15
p549
sg91
(lp550
(VTAO
VY
tp551
asg70
I2003
sg51
VLANT
p552
sbag1
(g2
g3
NtRp553
(dp554
g57
V10.1126/science.1062249
p555
sg53
VSCIENCE
p556
sg55
V293
p557
sg91
(lp558
(VTATTERSALL
VD B
tp559
asg70
I2001
sg51
V1826
p560
sbag1
(g2
g3
NtRp561
(dp562
g57
V10.1016/S0952-7915(00)00183-7
p563
sg53
VCURR OPIN IMMUNOL
p564
sg55
V13
p565
sg91
(lp566
(VTHOMMA
VBPHJ
tp567
asg70
I2001
sg51
V63
p568
sbag1
(g2
g3
NtRp569
(dp570
g57
V10.1073/pnas.130425197
p571
sg53
VP NATL ACAD SCI USA
p572
sg55
V97
p573
sg91
(lp574
(VVAN
VWEES S C M
tp575
asg70
I2000
sg51
V8711
p576
sbag1
(g2
g3
NtRp577
(dp578
g57
V10.1023/B:PLAN.0000009270.81977.ef
p579
sg53
VPLANT MOL BIOL
p580
sg55
V53
p581
sg91
(lp582
(VVAN
VZHONG G
tp583
asg70
I2003
sg51
VLANT
p584
sbag1
(g2
g3
NtRp585
(dp586
g57
V10.1093/nar/30.1.35
p587
sg53
VNUCLEIC ACIDS RES
p588
sg55
V30
p589
sg91
(lp590
(VWU
VC H
tp591
asg70
I2002
sg51
V35
p592
sbag1
(g2
g3
NtRp593
(dp594
g57
V10.1105/tpc.6.8.1077
p595
sg53
VPLANT CELL
p596
sg55
V6
sg91
(lp597
(VXU
VY
tp598
asg70
I1994
sg51
VLANT
p599
sbag1
(g2
g3
NtRp600
(dp601
g57
V10.1046/j.1365-313X.2003.01895.x
p602
sg53
VPLANT J
p603
sg55
V36
p604
sg91
(lp605
(VZHAO
VY F
tp606
asg70
I2003
sg51
VLANT
p607
sbag1
(g2
g3
NtRp608
(dp609
g57
V10.1104/pp.103.028324
p610
sg53
VPLANT PHYSIOL
p611
sg55
V134
p612
sg91
(lp613
(VZHU-SALZMAN
VK
tp614
asg70
I2004
sg51
VLANT
p615
sbasb.