ccopy_reg
_reconstructor
p1
(ctethne.classes.paper
Paper
p2
c__builtin__
object
p3
NtRp4
(dp5
S'publisherCity'
p6
VROCKVILLE
p7
sS'reprintAddress'
p8
VYokota, T (reprint author), Teikyo Univ, Dept Biosci, Utsunomiya, Tochigi 3208551, Japan.
p9
sS'WC'
p10
VPlant Sciences
p11
sS'GA'
p12
V848QO
p13
sS'abstract'
p14
VThe endogenous brassinosteroids in the dwarf mutant lk of pea (Pisum sativum) were quantified by gas chromatography-selected ion monitoring. The levels of castasterone, 6-deoxocastasterone, and 6-deoxotyphasterol in lk shoots were reduced 4-, 70-, and 6-fold, respectively, compared with those of the wild type. The fact that the application of brassinolide restored the growth of the mutant indicated that the dwarf mutant lk is brassinosteroid deficient. Gas chromatography-selected ion monitoring analysis of the endogenous sterols in lk shoots revealed that the levels of campestanol and sitostanol were reduced 160- and 10-fold, respectively, compared with those of wild-type plants. These data, along with metabolic studies, showed that the lk mutant has a defect in the conversion of campest-4-en-3-one to 5alpha-campestan-3-one, which is a key hydrogenation step in the synthesis of campestanol from campesterol. This defect is the same as that found in the Arabidopsis det2 mutant and the Ipomoea nil kbt mutant. The pea gene homologous to the DET2 gene, PsDET2, was cloned, and it was found that the lk mutation would result in a putative truncated PsDET2 protein. Thus it was concluded that the short stature of the lk mutant is due to a defect in the steroidal 5alpha-reductase gene. This defect was also observed in the callus induced from the lk mutant. Biosynthetic pathways involved in the conversion of campesterol to campestanol are discussed in detail.
p15
sS'pageEnd'
p16
I2229
sS'date'
p17
I2004
sS'documentType'
p18
VArticle
p19
sS'subject'
p20
VPlant Sciences
p21
sS'isoSource'
p22
VPlant Physiol.
p23
sS'timesCited'
p24
(lp25
I22
aVZ9 22
p26
asS'PT'
p27
VJ
sS'title'
p28
VBrassinosteroid Deficiency Due To Truncated Steroid 5 Alpha-Reductase Causes Dwarfism In The Lk Mutant Of Pea
p29
sS'ISSN'
p30
(lp31
V0032-0889
p32
aVJ9 PLANT PHYSIOL
p33
asS'authors_full'
p34
(lp35
(VNOMURA
VT
tp36
a(VJAGER
VCE
tp37
a(VKITASAKA
VY
tp38
a(VTAKEUCHI
VK
tp39
a(VFUKAMI
VM
tp40
a(VYONEYAMA
VK
tp41
a(VMATSUSHITA
VY
tp42
a(VNYUNOYA
VH
tp43
a(VTAKATSUTO
VS
tp44
a(VFUJIOKA
VS
tp45
a(VSMITH
VJJ
tp46
a(VKERCKHOFFS
VLHJ
tp47
a(VREID
VJB
tp48
a(VYOKOTA
VT
tp49
asS'PG'
p50
I10
sS'PD'
p51
VAUG
p52
sS'pageStart'
p53
I2220
sS'issue'
p54
I4
sS'RI'
p55
(lp56
VYoneyama, Koichi/A-9819-2012; Reid, James/C-9269-2013; Nyunoya,
p57
aVHiroshi/C-9705-2013
p58
asS'journal'
p59
VPLANT PHYSIOLOGY
p60
sS'volume'
p61
V135
p62
sS'doi'
p63
V10.1104/pp.104.043786
p64
sS'emailAddress'
p65
Vyokota@nasu.bio.teikyo-u.ac.jp
p66
sS'authorAddress'
p67
(lp68
VTeikyo Univ, Dept Biosci, Utsunomiya, Tochigi 3208551, Japan.
p69
aVUniv Tasmania, Dept Plant Sci, Hobart, Tas 7001, Australia.
p70
aVUtsunomiya Univ, Dept Bioprod Sci, Utsunomiya, Tochigi 3208505, Japan.
p71
aVUtsunomiya Univ, Ctr Res Wild Plants, Utsunomiya, Tochigi 3208505, Japan.
p72
aVTokyo Univ Agr & Technol, Ctr Gene Res, Fuchu, Tokyo 1838509, Japan.
p73
aVJoetsu Univ, Dept Chem, Joetsu, Niigata 9438512, Japan.
p74
aVRIKEN, Wako, Saitama 3510198, Japan.
p75
asS'publisherAddress'
p76
V15501 MONONA DRIVE, ROCKVILLE, MD 20855 USA
p77
sS'ER'
p78
V
sS'publisher'
p79
VAMER SOC PLANT BIOLOGISTS
p80
sS'authorKeywords'
p81
(lp82
VDIGITALIS-LANATA EHRH
p83
aV3-BETA-HYDROXYSTEROID DEHYDROGENASE
p84
aVARABIDOPSIS-THALIANA
p85
aVINTERNODE LENGTH
p86
aVCHOLESTEROL OXIDASE
p87
aVCELL ELONGATION
p88
aV3-ALPHA-HYDROXYSTEROID DEHYDROGENASES
p89
aVSIGNAL-TRANSDUCTION
p90
aVGENE-EXPRESSION
p91
aVDE-ETIOLATION
p92
asS'OI'
p93
VNyunoya, Hiroshi/0000-0002-3237-9639
p94
sS'language'
p95
VEnglish
p96
sS'wosid'
p97
VWOS:000223482400034
p98
sS'citationCount'
p99
I82
sS'authors_init'
p100
(lp101
(VNOMURA
VT
tp102
a(VJAGER
VC E
tp103
a(VKITASAKA
VY
tp104
a(VTAKEUCHI
VK
tp105
a(VFUKAMI
VM
tp106
a(VYONEYAMA
VK
tp107
a(VMATSUSHITA
VY
tp108
a(VNYUNOYA
VH
tp109
a(VTAKATSUTO
VS
tp110
a(VFUJIOKA
VS
tp111
a(VSMITH
VJ J
tp112
a(VKERCKHOFFS
VL H J
tp113
a(VREID
VJ B
tp114
a(VYOKOTA
VT
tp115
asS'citedReferences'
p116
(lp117
g1
(g2
g3
NtRp118
(dp119
g63
Nsg59
VPLANT CELL
p120
sg61
V10
p121
sg100
(lp122
(VAZPIROZ
VR
tp123
asg17
I1998
sg53
VLANT
p124
sbag1
(g2
g3
NtRp125
(dp126
g63
V10.1104/pp.005439
p127
sg59
VPLANT PHYSIOL
p128
sg61
V130
p129
sg100
(lp130
(VBANCOS
VS
tp131
asg17
I2002
sg53
VLANT
p132
sbag1
(g2
g3
NtRp133
(dp134
g63
V10.1126/science.149.3684.652
p135
sg59
VSCIENCE
p136
sg61
V149
p137
sg100
(lp138
(VBENNETT
VR D
tp139
asg17
I1965
sg53
V652
p140
sbag1
(g2
g3
NtRp141
(dp142
g63
V10.1093/pcp/pce018
p143
sg59
VPLANT CELL PHYSIOL
p144
sg61
V42
p145
sg100
(lp146
(VBISHOP
VG J
tp147
asg17
I2001
sg53
VLANT
p148
sbag1
(g2
g3
NtRp149
(dp150
g63
V10.1073/pnas.96.4.1761
p151
sg59
VP NATL ACAD SCI USA
p152
sg61
V96
p153
sg100
(lp154
(VBISHOP
VG J
tp155
asg17
I1999
sg53
V1761
p156
sbag1
(g2
g3
NtRp157
(dp158
g63
Nsg59
VPLANT CELL
p159
sg61
V14
p160
sg100
(lp161
(VBISHOP
VG J
tp162
asg17
I2002
sg53
VLANT
p163
sbag1
(g2
g3
NtRp164
(dp165
g63
V10.1016/S0039-128X(72)80015-1
p166
sg59
VSTEROIDS
p167
sg61
V19
p168
sg100
(lp169
(VBJORKHEM
VI
tp170
asg17
I1972
sg53
V471
p171
sbag1
(g2
g3
NtRp172
(dp173
g63
Nsg59
VPHYTOCHEMISTRY
p174
sg61
V7
sg100
(lp175
(VCASPI
VE
tp176
asg17
I1968
sg53
VHYTOCHEMISTRY
p177
sbag1
(g2
g3
NtRp178
(dp179
g63
V10.1046/j.1365-313x.2000.00693.x
p180
sg59
VPLANT J
p181
sg61
V21
p182
sg100
(lp183
(VCHOE
VS
tp184
asg17
I2000
sg53
VLANT
p185
sbag1
(g2
g3
NtRp186
(dp187
g63
V10.1104/pp.119.3.897
p188
sg59
VPLANT PHYSIOL
p189
sg61
V119
p190
sg100
(lp191
(VCHOE
VS
tp192
asg17
I1999
sg53
VLANT
p193
sbag1
(g2
g3
NtRp194
(dp195
g63
V10.1104/pp.010496
p196
sg59
VPLANT PHYSIOL
p197
sg61
V130
p198
sg100
(lp199
(VCHOE
VS
tp200
asg17
I2002
sg53
VLANT
p201
sbag1
(g2
g3
NtRp202
(dp203
g63
V10.1105/tpc.10.2.231
p204
sg59
VPLANT CELL
p205
sg61
V10
p206
sg100
(lp207
(VCHOE
VS W
tp208
asg17
I1998
sg53
VLANT
p209
sbag1
(g2
g3
NtRp210
(dp211
g63
V10.1105/tpc.11.2.207
p212
sg59
VPLANT CELL
p213
sg61
V11
p214
sg100
(lp215
(VCHOE
VS W
tp216
asg17
I1999
sg53
VLANT
p217
sbag1
(g2
g3
NtRp218
(dp219
g63
V10.1104/pp.111.3.671
p220
sg59
VPLANT PHYSIOL
p221
sg61
V111
p222
sg100
(lp223
(VCLOUSE
VS D
tp224
asg17
I1996
sg53
VLANT
p225
sbag1
(g2
g3
NtRp226
(dp227
g63
V10.1016/S1097-2765(02)00744-X
p228
sg59
VMOL CELL
p229
sg61
V10
p230
sg100
(lp231
(VCLOUSE
VS D
tp232
asg17
I2002
sg53
V973
p233
sbag1
(g2
g3
NtRp234
(dp235
g63
V10.1146/annurev.arplant.49.1.427
p236
sg59
VANNU REV PLANT PHYS
p237
sg61
V49
p238
sg100
(lp239
(VCLOUSE
VS D
tp240
asg17
I1998
sg53
V427
p241
sbag1
(g2
g3
NtRp242
(dp243
g63
V10.1046/j.1365-313X.1999.00455.x
p244
sg59
VPLANT J
p245
sg61
V18
p246
sg100
(lp247
(VEPHRITIKHINE
VG
tp248
asg17
I1999
sg53
VLANT
p249
sbag1
(g2
g3
NtRp250
(dp251
g63
V10.1007/s004250050751
p252
sg59
VPLANTA
p253
sg61
V209
p254
sg100
(lp255
(VFINSTERBUSCH
VA
tp256
asg17
I1999
sg53
VLANTA
p257
sbag1
(g2
g3
NtRp258
(dp259
g63
V10.1146/annurev.arplant.54.131902.134921
p260
sg59
VANNU REV PLANT BIOL
p261
sg61
V54
p262
sg100
(lp263
(VFUJIOKA
VS
tp264
asg17
I2003
sg53
V137
p265
sbag1
(g2
g3
NtRp266
(dp267
g63
Nsg59
VPLANT CELL
p268
sg61
V9
sg100
(lp269
(VFUJIOKA
VS
tp270
asg17
I1997
sg53
VLANT
p271
sbag1
(g2
g3
NtRp272
(dp273
g63
V10.1111/j.1432-1033.1997.0369a.x
p274
sg59
VEUR J BIOCHEM
p275
sg61
V250
p276
sg100
(lp277
(VGADDA
VG
tp278
asg17
I1997
sg53
V369
p279
sbag1
(g2
g3
NtRp280
(dp281
g63
V10.1046/j.1432-1033.2002.02931.x
p282
sg59
VEUR J BIOCHEM
p283
sg61
V269
p284
sg100
(lp285
(VGAVIDIA
VI
tp286
asg17
I2002
sg53
V2842
p287
sbag1
(g2
g3
NtRp288
(dp289
g63
V10.1104/pp.011254
p290
sg59
VPLANT PHYSIOL
p291
sg61
V130
p292
sg100
(lp293
(VGODA
VH
tp294
asg17
I2002
sg53
VLANT
p295
sbag1
(g2
g3
NtRp296
(dp297
g63
Nsg59
VTHESIS U TASMANIA AU
p298
sg61
Nsg100
(lp299
(VGREGORY
VD
tp300
asg17
I1999
sg53
Nsbag1
(g2
g3
NtRp301
(dp302
g63
V10.1105/tpc.014712
p303
sg59
VPLANT CELL
p304
sg61
V15
p305
sg100
(lp306
(VHONG
VZ
tp307
asg17
I2003
sg53
VLANT
p308
sbag1
(g2
g3
NtRp309
(dp310
g63
V10.1046/j.1365-313X.2002.01438.x
p311
sg59
VPLANT J
p312
sg61
V32
p313
sg100
(lp314
(VHONG
VZ
tp315
asg17
I2002
sg53
VLANT
p316
sbag1
(g2
g3
NtRp317
(dp318
g63
Nsg59
VJ BACTERIOL
p319
sg61
V172
p320
sg100
(lp321
(VHORII
VM
tp322
asg17
I1990
sg53
V3644
p323
sbag1
(g2
g3
NtRp324
(dp325
g63
Nsg59
VGENE DEV
p326
sg61
V14
p327
sg100
(lp328
(VJANG
VJ C
tp329
asg17
I2000
sg53
V1485
p330
sbag1
(g2
g3
NtRp331
(dp332
g63
V10.1053/beem.2001.0120
p333
sg59
VBEST PRACT RES CL EN
p334
sg61
V15
p335
sg100
(lp336
(VJIN
VY
tp337
asg17
I2001
sg53
V79
p338
sbag1
(g2
g3
NtRp339
(dp340
g63
Nsg59
VINT TABLES XRAY CRYS
p341
sg61
V4
sg100
(lp342
(VKARLE
VJ
tp343
asg17
I1974
sg53
V337
p344
sbag1
(g2
g3
NtRp345
(dp346
g63
Nsg59
VJ BIOL CHEM
p347
sg61
V237
p348
sg100
(lp349
(VKAWAHARA
VF S
tp350
asg17
I1962
sg53
V1500
p351
sbag1
(g2
g3
NtRp352
(dp353
g63
V10.1006/anbo.2000.1227
p354
sg59
VANN BOT
p355
sg61
V86
p356
sg100
(lp357
(VKHRIPACH
VV
tp358
asg17
I2000
sg53
V441
p359
sbag1
(g2
g3
NtRp360
(dp361
g63
V10.1105/tpc.10.10.1677
p362
sg59
VPLANT CELL
p363
sg61
V10
p364
sg100
(lp365
(VKLAHRE
VU
tp366
asg17
I1998
sg53
VLANT
p367
sbag1
(g2
g3
NtRp368
(dp369
g63
V10.1104/pp.122.1.85
p370
sg59
VPLANT PHYSIOL
p371
sg61
V122
p372
sg100
(lp373
(VKOKA
VC V
tp374
asg17
I2000
sg53
VLANT
p375
sbag1
(g2
g3
NtRp376
(dp377
g63
V10.1055/s-2006-957500
p378
sg59
VPLANTA MED
p379
sg61
V64
p380
sg100
(lp381
(VKREIS
VW
tp382
asg17
I1998
sg53
VLANTA
p383
sbag1
(g2
g3
NtRp384
(dp385
g63
V10.1007/BF00193841
p386
sg59
VJ PLANT GROWTH REGUL
p387
sg61
V11
p388
sg100
(lp389
(VLAWRENCE
VN L
tp390
asg17
I1992
sg53
V35
p391
sbag1
(g2
g3
NtRp392
(dp393
g63
V10.1073/pnas.091065998
p394
sg59
VP NATL ACAD SCI USA
p395
sg61
V98
p396
sg100
(lp397
(VLI
VJ
tp398
asg17
I2001
sg53
V5916
p399
sbag1
(g2
g3
NtRp400
(dp401
g63
V10.1073/pnas.94.8.3554
p402
sg59
VP NATL ACAD SCI USA
p403
sg61
V94
p404
sg100
(lp405
(VLI
VJ M
tp406
asg17
I1997
sg53
V3554
p407
sbag1
(g2
g3
NtRp408
(dp409
g63
V10.1016/S0092-8674(00)80357-8
p410
sg59
VCELL
p411
sg61
V90
p412
sg100
(lp413
(VLI
VJ M
tp414
asg17
I1997
sg53
V929
p415
sbag1
(g2
g3
NtRp416
(dp417
g63
Nsg59
VSCIENCE
p418
sg61
V295
p419
sg100
(lp420
(VLI
VJ M
tp421
asg17
I2002
sg53
V1299
p422
sbag1
(g2
g3
NtRp423
(dp424
g63
V10.1126/science.272.5260.398
p425
sg59
VSCIENCE
p426
sg61
V272
p427
sg100
(lp428
(VLI
VJ M
tp429
asg17
I1996
sg53
V398
p430
sbag1
(g2
g3
NtRp431
(dp432
g63
V10.1093/jexbot/50.332.275
p433
sg59
VJ EXP BOT
p434
sg61
V50
p435
sg100
(lp436
(VLI
VJ M
tp437
asg17
I1999
sg53
V275
p438
sbag1
(g2
g3
NtRp439
(dp440
g63
V10.1016/0031-9422(81)83020-8
p441
sg59
VPHYTOCHEMISTRY
p442
sg61
V20
p443
sg100
(lp444
(VLIN
VJ T
tp445
asg17
I1981
sg53
VHYTOCHEMISTRY
p446
sbag1
(g2
g3
NtRp447
(dp448
g63
Nsg59
VBIOCHEMISTRY
p449
sg61
V30
p450
sg100
(lp451
(VLUUTHE
VV
tp452
asg17
I1991
sg53
V8861
p453
sbag1
(g2
g3
NtRp454
(dp455
g63
V10.1046/j.1365-313X.1998.00158.x
p456
sg59
VPLANT J
p457
sg61
V14
p458
sg100
(lp459
(VMATHUR
VJ
tp460
asg17
I1998
sg53
VLANT
p461
sbag1
(g2
g3
NtRp462
(dp463
g63
V10.1105/tpc.006379
p464
sg59
VPLANT CELL
p465
sg61
V14
p466
sg100
(lp467
(VMONTOYA
VT
tp468
asg17
I2002
sg53
VLANT
p469
sbag1
(g2
g3
NtRp470
(dp471
g63
V10.1104/pp.007179
p472
sg59
VPLANT PHYSIOL
p473
sg61
V130
p474
sg100
(lp475
(VMORI
VM
tp476
asg17
I2002
sg53
VLANT
p477
sbag1
(g2
g3
NtRp478
(dp479
g63
V10.1016/S0092-8674(02)00814-0
p480
sg59
VCELL
p481
sg61
V110
p482
sg100
(lp483
(VNAM
VK H
tp484
asg17
I2002
sg53
V203
p485
sbag1
(g2
g3
NtRp486
(dp487
g63
V10.1104/pp.120.3.833
p488
sg59
VPLANT PHYSIOL
p489
sg61
V120
p490
sg100
(lp491
(VNOGUCHI
VT
tp492
asg17
I1999
sg53
VLANT
p493
sbag1
(g2
g3
NtRp494
(dp495
g63
V10.1104/pp.121.3.743
p496
sg59
VPLANT PHYSIOL
p497
sg61
V121
p498
sg100
(lp499
(VNOGUCHI
VT
tp500
asg17
I1999
sg53
VLANT
p501
sbag1
(g2
g3
NtRp502
(dp503
g63
V10.1104/pp.119.4.1517
p504
sg59
VPLANT PHYSIOL
p505
sg61
V119
p506
sg100
(lp507
(VNOMURA
VT
tp508
asg17
I1999
sg53
VLANT
p509
sbag1
(g2
g3
NtRp510
(dp511
g63
V10.1046/j.1365-313X.2003.01863.x
p512
sg59
VPLANT J
p513
sg61
V36
p514
sg100
(lp515
(VNOMURA
VT
tp516
asg17
I2003
sg53
VLANT
p517
sbag1
(g2
g3
NtRp518
(dp519
g63
Nsg59
VPLANT PHYSIOL
p520
sg61
V113
p521
sg100
(lp522
(VNOMURA
VT
tp523
asg17
I1997
sg53
VLANT
p524
sbag1
(g2
g3
NtRp525
(dp526
g63
V10.1006/dbio.2001.0543
p527
sg59
VDEV BIOL
p528
sg61
V242
p529
sg100
(lp530
(VPEREZ-PEREZ
VJ M
tp531
asg17
I2002
sg53
V161
p532
sbag1
(g2
g3
NtRp533
(dp534
g63
V10.1111/j.1399-3054.1989.tb02067.x
p535
sg59
VPHYSIOL PLANTARUM
p536
sg61
V75
p537
sg100
(lp538
(VREID
VJ B
tp539
asg17
I1989
sg53
VHYSIOL
p540
sbag1
(g2
g3
NtRp541
(dp542
g63
Nsg59
VANN BOT
p543
sg61
V57
p544
sg100
(lp545
(VREID
VJ B
tp546
asg17
I1986
sg53
V577
p547
sbag1
(g2
g3
NtRp548
(dp549
g63
V10.1007/BF02279305
p550
sg59
VJ PLANT GROWTH REGUL
p551
sg61
V10
p552
sg100
(lp553
(VREID
VJ B
tp554
asg17
I1991
sg53
V11
p555
sbag1
(g2
g3
NtRp556
(dp557
g63
Nsg59
VMOL ENDOCRINOL
p558
sg61
V5
sg100
(lp559
(VRHEAUME
VE
tp560
asg17
I1991
sg53
V1147
p561
sbag1
(g2
g3
NtRp562
(dp563
g63
V10.1210/en.2002-220649
p564
sg59
VENDOCRINOLOGY
p565
sg61
V144
p566
sg100
(lp567
(VROSATI
VF
tp568
asg17
I2003
sg53
V220
p569
sbag1
(g2
g3
NtRp570
(dp571
g63
V10.1146/annurev.bi.63.070194.000325
p572
sg59
VANNU REV BIOCHEM
p573
sg61
V63
p574
sg100
(lp575
(VRUSSELL
VD W
tp576
asg17
I1994
sg53
V25
p577
sbag1
(g2
g3
NtRp578
(dp579
g63
V10.1016/S0031-9422(00)82945-3
p580
sg59
VPHYTOCHEMISTRY
p581
sg61
V6
sg100
(lp582
(VSAUER
VH H
tp583
asg17
I1967
sg53
VHYTOCHEMISTRY
p584
sbag1
(g2
g3
NtRp585
(dp586
g63
V10.1023/A:1011894812794
p587
sg59
VPLANT MOL BIOL
p588
sg61
V47
p589
sg100
(lp590
(VSCHULTZ
VL
tp591
asg17
I2001
sg53
VLANT
p592
sbag1
(g2
g3
NtRp593
(dp594
g63
Nsg59
VPLANT CELL REP
p595
sg61
V8
sg100
(lp596
(VSEIDEL
VS
tp597
asg17
I1990
sg53
VLANT
p598
sbag1
(g2
g3
NtRp599
(dp600
g63
Nsg59
VJ BIOL CHEM
p601
sg61
V241
p602
sg100
(lp603
(VSHEFER
VS
tp604
asg17
I1966
sg53
V946
p605
sbag1
(g2
g3
NtRp606
(dp607
g63
V10.1016/0303-7207(91)90224-G
p608
sg59
VMOL CELL ENDOCRINOL
p609
sg61
V75
p610
sg100
(lp611
(VSIMARD
VJ
tp612
asg17
I1991
sg53
V101
p613
sbag1
(g2
g3
NtRp614
(dp615
g63
V10.1074/jbc.M313308200
p616
sg59
VJ BIOL CHEM
p617
sg61
V279
p618
sg100
(lp619
(VSTECKELBROECK
VS
tp620
asg17
I2004
sg53
V10784
p621
sbag1
(g2
g3
NtRp622
(dp623
g63
V10.1016/S0031-9422(00)97338-2
p624
sg59
VPHYTOCHEMISTRY
p625
sg61
V10
p626
sg100
(lp627
(VSTOHS
VS J
tp628
asg17
I1971
sg53
VHYTOCHEMISTRY
p629
sbag1
(g2
g3
NtRp630
(dp631
g63
V10.1016/S0031-9422(00)88507-6
p632
sg59
VPHYTOCHEMISTRY
p633
sg61
V11
p634
sg100
(lp635
(VSTOHS
VS J
tp636
asg17
I1972
sg53
VHYTOCHEMISTRY
p637
sbag1
(g2
g3
NtRp638
(dp639
g63
Nsg59
VPLANT PHYSIOL BIOCH
p640
sg61
V34
p641
sg100
(lp642
(VSTUHLEMMER
VU
tp643
asg17
I1996
sg53
VLANT
p644
sbag1
(g2
g3
NtRp645
(dp646
g63
V10.1046/j.1365-313X.2003.01887.x
p647
sg59
VPLANT J
p648
sg61
V36
p649
sg100
(lp650
(VSUZUKI
VY
tp651
asg17
I2003
sg53
VLANT
p652
sbag1
(g2
g3
NtRp653
(dp654
g63
V10.1034/j.1399-3054.2002.1150219.x
p655
sg59
VPHYSIOL PLANTARUM
p656
sg61
V115
p657
sg100
(lp658
(VSYMONS
VG M
tp659
asg17
I2002
sg53
VHYSIOL
p660
sbag1
(g2
g3
NtRp661
(dp662
g63
V10.1016/S0092-8674(00)81094-6
p663
sg59
VCELL
p664
sg61
V85
p665
sg100
(lp666
(VSZEKERES
VM
tp667
asg17
I1996
sg53
V171
p668
sbag1
(g2
g3
NtRp669
(dp670
g63
V10.1101/gad.9.1.97
p671
sg59
VGENE DEV
p672
sg61
V9
sg100
(lp673
(VTAKAHASHI
VT
tp674
asg17
I1995
sg53
V97
p675
sbag1
(g2
g3
NtRp676
(dp677
g63
V10.1016/0006-3002(55)90079-2
p678
sg59
VBIOCHIM BIOPHYS ACTA
p679
sg61
V18
p680
sg100
(lp681
(VTALALAY
VP
tp682
asg17
I1955
sg53
V300
p683
sbag1
(g2
g3
NtRp684
(dp685
g63
V10.1016/S0031-9422(02)00431-4
p686
sg59
VPHYTOCHEMISTRY
p687
sg61
V62
p688
sg100
(lp689
(VVENKATRAMESH
VM
tp690
asg17
I2003
sg53
VHYTOCHEMISTRY
p691
sbag1
(g2
g3
NtRp692
(dp693
g63
V10.1016/S0039-128X(99)00010-0
p694
sg59
VSTEROIDS
p695
sg61
V64
p696
sg100
(lp697
(VWANG
VM
tp698
asg17
I1999
sg53
V356
p699
sbag1
(g2
g3
NtRp700
(dp701
g63
V10.1016/S1534-5807(02)00153-3
p702
sg59
VDEV CELL
p703
sg61
V2
sg100
(lp704
(VWANG
VZ Y
tp705
asg17
I2002
sg53
V505
p706
sbag1
(g2
g3
NtRp707
(dp708
g63
Nsg59
VBIOCHEM J
p709
sg61
V266
p710
sg100
(lp711
(VWENDROTH
VS
tp712
asg17
I1990
sg53
V41
p713
sbag1
(g2
g3
NtRp714
(dp715
g63
V10.1105/tpc.12.9.1591
p716
sg59
VPLANT CELL
p717
sg61
V12
p718
sg100
(lp719
(VYAMAMURO
VC
tp720
asg17
I2000
sg53
VLANT
p721
sbag1
(g2
g3
NtRp722
(dp723
g63
V10.1093/protein/11.11.1075
p724
sg59
VPROTEIN ENG
p725
sg61
V11
p726
sg100
(lp727
(VYAMASHITA
VM
tp728
asg17
I1998
sg53
VROTEIN
p729
sbag1
(g2
g3
NtRp730
(dp731
g63
V10.1111/j.1432-1033.1991.tb15919.x
p732
sg59
VEUR J BIOCHEM
p733
sg61
V197
p734
sg100
(lp735
(VYIN
VS J
tp736
asg17
I1991
sg53
V359
p737
sbag1
(g2
g3
NtRp738
(dp739
g63
V10.1016/S0092-8674(02)00721-3
p740
sg59
VCELL
p741
sg61
V109
p742
sg100
(lp743
(VYIN
VY H
tp744
asg17
I2002
sg53
V181
p745
sbasb.