ccopy_reg
_reconstructor
p1
(ctethne.classes.paper
Paper
p2
c__builtin__
object
p3
NtRp4
(dp5
S'publisherCity'
p6
VROCKVILLE
p7
sS'reprintAddress'
p8
VZhou, JM (reprint author), Kansas State Univ, Dept Plant Pathol, Throckmorton Hall, Manhattan, KS 66506 USA.
p9
sS'WC'
p10
VPlant Sciences
p11
sS'GA'
p12
V717FM
p13
sS'abstract'
p14
VPto confers disease resistance to Pseudomonas syringae pv tomato carrying the cognate avrPto gene. Overexpression of Pto under the cauliflower mosaic virus 35S promoter activates spontaneous lesions and confers disease resistance in tomato (Lycopersicon esculentum) plants in the absence of avrPto. Here, we show that these AvrPto-independent defenses require a functional Prf gene. Several Pto-interacting (Pti) proteins are thought to play a role in Pto-mediated defense pathways. To test if interactions with Pti proteins are required for the AvrPto-independent defense responses by Pto overexpression, we isolated several Pto mutants that were unable to interact with one or more Pti proteins, but retained normal interaction with AvrPto. Overexpression of two mutants Pto(G50S) and Pto(R150S) failed to activate AvrPto-independent defense responses or confer enhanced resistance to the virulent P. s. pv tomato. When introduced into plants carrying 35S::Pto, 35S::Pto(G50S) dominantly suppressed the AvrPto-independent resistance caused by former transgene. 35S::Pto(G50S) also blocked the induction of a number of defense genes by the wild-type 35S::Pto. However, 35S::Pto(G50S) and 35S::Pto(R150S) plants were completely resistant to P. s. pv tomato (avrPto), indicating a normal gene-for-gene resistance. Furthermore, 35S::Pto(G50S) plants exhibited normal induction of defense genes in recognition of avrPto. Thus, the AvrPto-independent defense activation and gene-for-gene resistance mediated by Pto are functionally separable.
p15
sS'pageEnd'
p16
I1249
sS'publisherAddress'
p17
V15501 MONONA DRIVE, ROCKVILLE, MD 20855 USA
p18
sS'documentType'
p19
VArticle
p20
sS'subject'
p21
VPlant Sciences
p22
sS'isoSource'
p23
VPlant Physiol.
p24
sS'timesCited'
p25
(lp26
I12
aVZ9 13
p27
asS'PT'
p28
VJ
sS'title'
p29
VPto Mutants Differentially Activate Prf-Dependent, Avrpto-Independent Resistance And Gene-For-Gene Resistance
p30
sS'ISSN'
p31
(lp32
V0032-0889
p33
aVJ9 PLANT PHYSIOL
p34
asS'authors_full'
p35
(lp36
(VXIAO
VFM
tp37
a(VLU
VM
tp38
a(VLI
VJX
tp39
a(VZHAO
VTH
tp40
a(VYI
VSY
tp41
a(VTHARA
VVK
tp42
a(VTANG
VXY
tp43
a(VZHOU
VJM
tp44
asS'PG'
p45
I11
sS'PD'
p46
VMAR
p47
sS'pageStart'
p48
I1239
sS'issue'
p49
I3
sS'journal'
p50
VPLANT PHYSIOLOGY
p51
sS'volume'
p52
V131
p53
sS'doi'
p54
V10.1104/pp.016113
p55
sS'authorAddress'
p56
VKansas State Univ, Dept Plant Pathol, Manhattan, KS 66506 USA.
p57
sS'date'
p58
I2003
sS'ER'
p59
V
sS'publisher'
p60
VAMER SOC PLANT BIOLOGISTS
p61
sS'authorKeywords'
p62
(lp63
VPLANT-DISEASE-RESISTANCE
p64
aVBACTERIAL SPECK DISEASE
p65
aVHYPERSENSITIVE RESPONSE
p66
aVPATHOGEN RECOGNITION
p67
aVCLADOSPORIUM-FULVUM
p68
aVDEFENSE RESPONSES
p69
aVTOMATO CULTIVARS
p70
aVKINASE
p71
aVPROTEIN
p72
aVAVIRULENCE
p73
asS'language'
p74
VEnglish
p75
sS'wosid'
p76
VWOS:000185076100040
p77
sS'citationCount'
p78
I31
sS'authors_init'
p79
(lp80
(VXIAO
VF M
tp81
a(VLU
VM
tp82
a(VLI
VJ X
tp83
a(VZHAO
VT H
tp84
a(VYI
VS Y
tp85
a(VTHARA
VV K
tp86
a(VTANG
VX Y
tp87
a(VZHOU
VJ M
tp88
asS'citedReferences'
p89
(lp90
g1
(g2
g3
NtRp91
(dp92
g54
V10.1094/MPMI.2000.13.5.568
p93
sg50
VMOL PLANT MICROBE IN
p94
sg52
V13
p95
sg79
(lp96
(VCHANG
VJ H
tp97
asg58
I2000
sg48
V568
p98
sbag1
(g2
g3
NtRp99
(dp100
g54
V10.1038/35081161
p101
sg50
VNATURE
p102
sg52
V411
p103
sg79
(lp104
(VDANGL
VJ L
tp105
asg58
I2001
sg48
V826
p106
sbag1
(g2
g3
NtRp107
(dp108
g54
V10.1105/tpc.12.5.771
p109
sg50
VPLANT CELL
p110
sg52
V12
p111
sg79
(lp112
(VGU
VY Q
tp113
asg58
I2000
sg48
VLANT
p114
sbag1
(g2
g3
NtRp115
(dp116
g54
V10.1094/MPMI.2001.14.12.1453
p117
sg50
VMOL PLANT MICROBE IN
p118
sg52
V14
p119
sg79
(lp120
(VHE
VP
tp121
asg58
I2001
sg48
V1453
p122
sbag1
(g2
g3
NtRp123
(dp124
g54
V10.1073/pnas.95.6.3306
p125
sg50
VP NATL ACAD SCI USA
p126
sg52
V95
p127
sg79
(lp128
(VJI
VC
tp129
asg58
I1998
sg48
V3306
p130
sbag1
(g2
g3
NtRp131
(dp132
g54
V10.1093/emboj/19.15.4004
p133
sg50
VEMBO J
p134
sg52
V19
p135
sg79
(lp136
(VJIA
VY
tp137
asg58
I2000
sg48
V4004
p138
sbag1
(g2
g3
NtRp139
(dp140
g54
Nsg50
VPLANT CELL
p141
sg52
V9
sg79
(lp142
(VJIA
VY L
tp143
asg58
I1997
sg48
VLANT
p144
sbag1
(g2
g3
NtRp145
(dp146
g54
Nsg50
VPLANT CELL REP
p147
sg52
V12
p148
sg79
(lp149
(VJOAO
VK H L
tp150
asg58
I1993
sg48
VLANT
p151
sbag1
(g2
g3
NtRp152
(dp153
g54
Nsg50
VPLANT CELL
p154
sg52
V8
sg79
(lp155
(VKOOMANGERSMANN
VM
tp156
asg58
I1996
sg48
VLANT
p157
sbag1
(g2
g3
NtRp158
(dp159
g54
V10.1094/MPMI.2002.15.7.654
p160
sg50
VMOL PLANT MICROBE IN
p161
sg52
V15
p162
sg79
(lp163
(VLI
VJ X
tp164
asg58
I2002
sg48
V654
p165
sbag1
(g2
g3
NtRp166
(dp167
g54
V10.1094/MPMI.1998.11.6.572
p168
sg50
VMOL PLANT MICROBE IN
p169
sg52
V11
p170
sg79
(lp171
(VLOH
VY T
tp172
asg58
I1998
sg48
V572
p173
sbag1
(g2
g3
NtRp174
(dp175
g54
V10.1094/MPMI.2001.14.7.867
p176
sg50
VMOL PLANT MICROBE IN
p177
sg52
V14
p178
sg79
(lp179
(VLUDERER
VR
tp180
asg58
I2001
sg48
V867
p181
sbag1
(g2
g3
NtRp182
(dp183
g54
V10.1126/science.7902614
p184
sg50
VSCIENCE
p185
sg52
V262
p186
sg79
(lp187
(VMARTIN
VG B
tp188
asg58
I1993
sg48
V1432
p189
sbag1
(g2
g3
NtRp190
(dp191
g54
V10.1073/pnas.95.17.10300
p192
sg50
VP NATL ACAD SCI USA
p193
sg52
V95
p194
sg79
(lp195
(VOLDROYD
VG E D
tp196
asg58
I1998
sg48
V10300
p197
sbag1
(g2
g3
NtRp198
(dp199
g54
V10.1093/emboj/18.12.3232
p200
sg50
VEMBO J
p201
sg52
V18
p202
sg79
(lp203
(VRATHJEN
VJ P
tp204
asg58
I1999
sg48
V3232
p205
sbag1
(g2
g3
NtRp206
(dp207
g54
V10.1105/tpc.12.10.1917
p208
sg50
VPLANT CELL
p209
sg52
V12
p210
sg79
(lp211
(VREN
VT
tp212
asg58
I2000
sg48
VLANT
p213
sbag1
(g2
g3
NtRp214
(dp215
g54
Nsg50
VJ BACTERIOL
p216
sg52
V174
p217
sg79
(lp218
(VRONALD
VP C
tp219
asg58
I1992
sg48
V1604
p220
sbag1
(g2
g3
NtRp221
(dp222
g54
V10.1016/S0092-8674(00)80083-5
p223
sg50
VCELL
p224
sg52
V86
p225
sg79
(lp226
(VSALMERON
VJ M
tp227
asg58
I1996
sg48
V123
p228
sbag1
(g2
g3
NtRp229
(dp230
g54
Nsg50
VPLANT CELL
p231
sg52
V6
sg79
(lp232
(VSALMERON
VJ M
tp233
asg58
I1994
sg48
VLANT
p234
sbag1
(g2
g3
NtRp235
(dp236
g54
V10.1126/science.274.5295.2063
p237
sg50
VSCIENCE
p238
sg52
V274
p239
sg79
(lp240
(VSCOFIELD
VS R
tp241
asg58
I1996
sg48
V2063
p242
sbag1
(g2
g3
NtRp243
(dp244
g54
V10.1093/emboj/19.10.2257
p245
sg50
VEMBO J
p246
sg52
V19
p247
sg79
(lp248
(VSESSA
VG
tp249
asg58
I2000
sg48
V2257
p250
sbag1
(g2
g3
NtRp251
(dp252
g54
V10.1105/tpc.12.12.2323
p253
sg50
VPLANT CELL
p254
sg52
V12
p255
sg79
(lp256
(VSHAN
VL B
tp257
asg58
I2000
sg48
VLANT
p258
sbag1
(g2
g3
NtRp259
(dp260
g54
V10.1094/MPMI.2000.13.6.592
p261
sg50
VMOL PLANT MICROBE IN
p262
sg52
V13
p263
sg79
(lp264
(VSHAN
VL B
tp265
asg58
I2000
sg48
V592
p266
sbag1
(g2
g3
NtRp267
(dp268
g54
V10.1126/science.274.5295.2060
p269
sg50
VSCIENCE
p270
sg52
V274
p271
sg79
(lp272
(VTANG
VX Y
tp273
asg58
I1996
sg48
V2060
p274
sbag1
(g2
g3
NtRp275
(dp276
g54
V10.1105/tpc.11.1.15
p277
sg50
VPLANT CELL
p278
sg52
V11
p279
sg79
(lp280
(VTANG
VX Y
tp281
asg58
I1999
sg48
VLANT
p282
sbag1
(g2
g3
NtRp283
(dp284
g54
V10.1046/j.1365-313x.1999.00619.x
p285
sg50
VPLANT J
p286
sg52
V20
p287
sg79
(lp288
(VTHARA
VV K
tp289
asg58
I1999
sg48
VLANT
p290
sbag1
(g2
g3
NtRp291
(dp292
g54
V10.1016/S0968-0004(98)01311-5
p293
sg50
VTRENDS BIOCHEM SCI
p294
sg52
V23
p295
sg79
(lp296
(VVAN
VD E R BIEZEN E A
tp297
asg58
I1998
sg48
V454
p298
sbag1
(g2
g3
NtRp299
(dp300
g54
V10.1104/pp.126.4.1637
p301
sg50
VPLANT PHYSIOL
p302
sg52
V126
p303
sg79
(lp304
(VXIAO
VF M
tp305
asg58
I2001
sg48
VLANT
p306
sbag1
(g2
g3
NtRp307
(dp308
g54
V10.1007/BF02512196
p309
sg50
VJ PLANT RES
p310
sg52
V111
p311
sg79
(lp312
(VZHOU
VJ M
tp313
asg58
I1998
sg48
V353
p314
sbag1
(g2
g3
NtRp315
(dp316
g54
V10.1016/0092-8674(95)90208-2
p317
sg50
VCELL
p318
sg52
V83
p319
sg79
(lp320
(VZHOU
VJ M
tp321
asg58
I1995
sg48
V925
p322
sbag1
(g2
g3
NtRp323
(dp324
g54
V10.1093/emboj/16.11.3207
p325
sg50
VEMBO J
p326
sg52
V16
p327
sg79
(lp328
(VZHOU
VJ M
tp329
asg58
I1997
sg48
V3207
p330
sbasb.