ccopy_reg
_reconstructor
p1
(ctethne.classes.paper
Paper
p2
c__builtin__
object
p3
NtRp4
(dp5
S'publisherCity'
p6
VROCKVILLE
p7
sS'reprintAddress'
p8
VMalin, G (reprint author), Univ E Anglia, Sch Environm Sci, Lab Global Marine & Atmospher Chem, Norwich Res Pk, Norwich NR4 7TJ, Norfolk, England.
p9
sS'WC'
p10
VPlant Sciences
p11
sS'GA'
p12
V870IL
p13
sS'FX'
p14
(lp15
VThis work was supported by a Norwich Research Park Studentship and by
p16
aVthe John Innes Centre and University of East Anglia Earth and Life
p17
aVSystems Alliance, by a U.K. Natural Environment Research Council
p18
aVAdvanced Fellowship (grant no. NE/B501039/1 to G. M.), and by the U.K.
p19
aVBiotechnology and Biological Sciences Research Council (to S.K.).
p20
asS'abstract'
p21
VThe availability of nitrogen varies greatly in the ocean and limits primary productivity over large areas. Diatoms, a group of phytoplankton that are responsible for about 20% of global carbon fixation, respond rapidly to influxes of nitrate and are highly successful in upwelling regions. Although recent diatom genome projects have highlighted clues to the success of this group, very little is known about their adaptive response to changing environmental conditions. Here, we compare the proteome of the marine diatom Thalassiosira pseudonana (CCMP 1335) at the onset of nitrogen starvation with that of nitrogen-replete cells using two-dimensional gel electrophoresis. In total, 3,310 protein spots were distinguishable, and we identified 42 proteins increasing and 23 decreasing in abundance (greater than 1.5-fold change; P < 0.005). Proteins involved in the metabolism of nitrogen, amino acids, proteins, and carbohydrates, photosynthesis, and chlorophyll biosynthesis were represented. Comparison of our proteomics data with the transcriptome response of this species under similar growth conditions showed good correlation and provided insight into different levels of response. The T. pseudonana response to nitrogen starvation was also compared with that of the higher plant Arabidopsis (Arabidopsis thaliana), the green alga Chlamydomonas reinhardtii, and the cyanobacterium Prochlorococcus marinus. We have found that the response of diatom carbon metabolism to nitrogen starvation is different from that of other photosynthetic eukaryotes and bears closer resemblance to the response of cyanobacteria.
p22
sS'pageEnd'
p23
I312
sS'date'
p24
I2012
sS'documentType'
p25
VArticle
p26
sS'subject'
p27
VPlant Sciences
p28
sS'isoSource'
p29
VPlant Physiol.
p30
sS'timesCited'
p31
(lp32
I15
aVZ9 15
p33
asS'funding'
p34
(lp35
(VNorwich Research Park
Ntp36
a(VJohn Innes Centre
Ntp37
a(VUniversity of East Anglia Earth and Life Systems Alliance
Ntp38
a(VU.K. Natural Environment Research Council
VNE/B501039/1
tp39
a(VU.K. Biotechnology and Biological Sciences Research Council
Ntp40
asS'PT'
p41
VJ
sS'title'
p42
VThe Response Of Diatom Central Carbon Metabolism To Nitrogen Starvation Is Different From That Of Green Algae And Higher Plants
p43
sS'ISSN'
p44
(lp45
V0032-0889
p46
aVJ9 PLANT PHYSIOL
p47
asS'authors_full'
p48
(lp49
(VHOCKIN
VNICOLA LOUISE
tp50
a(VMOCK
VTHOMAS
tp51
a(VMULHOLLAND
VFRANCIS
tp52
a(VKOPRIVA
VSTANISLAV
tp53
a(VMALIN
VGILL
tp54
asS'PG'
p55
I14
sS'PD'
p56
VJAN
p57
sS'pageStart'
p58
I299
sS'issue'
p59
I1
sS'RI'
p60
(lp61
VMock, Thomas/A-3127-2008; Malin, Gill/C-6985-2009; Kopriva,
p62
aVStanislav/C-7401-2013
p63
asS'journal'
p64
VPLANT PHYSIOLOGY
p65
sS'volume'
p66
V158
p67
sS'doi'
p68
V10.1104/pp.111.184333
p69
sS'emailAddress'
p70
Vg.malin@uea.ac.uk
p71
sS'authorAddress'
p72
(lp73
V[Hockin, Nicola Louise; Malin, Gill] Univ E Anglia, Sch Environm Sci, Lab Global Marine & Atmospher Chem, Norwich NR4 7TJ, Norfolk, England.
p74
aV[Hockin, Nicola Louise; Kopriva, Stanislav] John Innes Ctr, Norwich NR4 7UH, Norfolk, England.
p75
aV[Mulholland, Francis] Inst Food Res, Norwich NR4 7UA, Norfolk, England.
p76
asS'publisherAddress'
p77
V15501 MONONA DRIVE, ROCKVILLE, MD 20855 USA
p78
sS'ER'
p79
V
sS'publisher'
p80
VAMER SOC PLANT BIOLOGISTS
p81
sS'authorKeywords'
p82
(lp83
VTHALASSIOSIRA-PSEUDONANA BACILLARIOPHYCEAE
p84
aVSKELETONEMA-COSTATUM BACILLARIOPHYCEAE
p85
aVNITRATE REDUCTASE-ACTIVITY
p86
aVGLUTAMINE-SYNTHETASE
p87
aVMARINE-PHYTOPLANKTON
p88
aVWEISSFLOGII BACILLARIOPHYCEAE
p89
aVPHAEODACTYLUM-TRICORNUTUM
p90
aVCHLAMYDOMONAS-REINHARDTII
p91
aVMITOCHONDRIAL METABOLISM
p92
aVLEAF SENESCENCE
p93
asS'OI'
p94
(lp95
VMock, Thomas/0000-0001-9604-0362; Malin, Gill/0000-0002-3639-9215;
p96
aVKopriva, Stanislav/0000-0002-7416-6551
p97
asS'language'
p98
VEnglish
p99
sS'wosid'
p100
VWOS:000298662500026
p101
sS'citationCount'
p102
I61
sS'authors_init'
p103
(lp104
(VHOCKIN
VN L
tp105
a(VMOCK
VT
tp106
a(VMULHOLLAND
VF
tp107
a(VKOPRIVA
VS
tp108
a(VMALIN
VG
tp109
asS'citedReferences'
p110
(lp111
g1
(g2
g3
NtRp112
(dp113
g68
V10.1016/j.pbi.2006.03.013
p114
sg64
VCURR OPIN PLANT BIOL
p115
sg66
V9
sg103
(lp116
(VALLEN
VA E
tp117
asg24
I2006
sg58
V264
p118
sbag1
(g2
g3
NtRp119
(dp120
g68
V10.1111/j.1529-8817.2005.04090.x
p121
sg64
VJ PHYCOL
p122
sg66
V41
p123
sg103
(lp124
(VALLEN
VA E
tp125
asg24
I2005
sg58
V95
p126
sbag1
(g2
g3
NtRp127
(dp128
g68
V10.1038/nature10074
p129
sg64
VNATURE
p130
sg66
V473
p131
sg103
(lp132
(VALLEN
VA E
tp133
asg24
I2011
sg58
V203
p134
sbag1
(g2
g3
NtRp135
(dp136
g68
Nsg64
VROLE AIR SEA EXCHANG
p137
sg66
Nsg103
(lp138
(VANDREAE
VM O
tp139
asg24
I1986
sg58
V331
p140
sbag1
(g2
g3
NtRp141
(dp142
g68
V10.1126/science.1101156
p143
sg64
VSCIENCE
p144
sg66
V306
p145
sg103
(lp146
(VARMBRUST
VE V
tp147
asg24
I2004
sg58
V79
p148
sbag1
(g2
g3
NtRp149
(dp150
g68
Nsg64
VLIMNOL OCEANOGR
p151
sg66
V40
p152
sg103
(lp153
(VBERGES
VJ A
tp154
asg24
I1995
sg58
V82
p155
sbag1
(g2
g3
NtRp156
(dp157
g68
V10.3354/meps225139
p158
sg64
VMAR ECOL PROG SER
p159
sg66
V225
p160
sg103
(lp161
(VBERGES
VJ A
tp162
asg24
I2002
sg58
V139
p163
sbag1
(g2
g3
NtRp164
(dp165
g68
V10.1038/nature07410
p166
sg64
VNATURE
p167
sg66
V456
p168
sg103
(lp169
(VBOWLER
VC
tp170
asg24
I2008
sg58
V239
p171
sbag1
(g2
g3
NtRp172
(dp173
g68
V10.1146/annurev-marine-120308-081051
p174
sg64
VANNU REV MAR SCI
p175
sg66
V2
sg103
(lp176
(VBOWLER
VC
tp177
asg24
I2010
sg58
V333
p178
sbag1
(g2
g3
NtRp179
(dp180
g68
V10.1111/j.1529-8817.2009.00648.x
p181
sg64
VJ PHYCOL
p182
sg66
V45
p183
sg103
(lp184
(VBROWN
VK L
tp185
asg24
I2009
sg58
V413
p186
sbag1
(g2
g3
NtRp187
(dp188
g68
V10.3354/meps032115
p189
sg64
VMAR ECOL PROG SER
p190
sg66
V32
p191
sg103
(lp192
(VCLAYTON
VJ R
tp193
asg24
I1986
sg58
V115
p194
sbag1
(g2
g3
NtRp195
(dp196
g68
V10.1093/jxb/6.2.256
p197
sg64
VJ EXP BOT
p198
sg66
V6
sg103
(lp199
(VCOLLYER
VD M
tp200
asg24
I1955
sg58
V256
p201
sbag1
(g2
g3
NtRp202
(dp203
g68
V10.1111/j.1529-8817.2008.00575.x
p204
sg64
VJ PHYCOL
p205
sg66
V44
p206
sg103
(lp207
(VCONTRERAS
VL
tp208
asg24
I2008
sg58
V1315
p209
sbag1
(g2
g3
NtRp210
(dp211
g68
V10.1104/pp.105.060764
p212
sg64
VPLANT PHYSIOL
p213
sg66
V138
p214
sg103
(lp215
(VDIAZ
VC
tp216
asg24
I2005
sg58
VLANT
p217
sbag1
(g2
g3
NtRp218
(dp219
g68
V10.1111/j.1469-8137.1987.tb00165.x
p220
sg64
VNEW PHYTOL
p221
sg66
V106
p222
sg103
(lp223
(VDICKSON
VD M J
tp224
asg24
I1987
sg58
V645
p225
sbag1
(g2
g3
NtRp226
(dp227
g68
V10.1093/plankt/1.2.169
p228
sg64
VJournal of Plankton Research
p229
sg66
V1
sg103
(lp230
(VDORTCH
VQ
tp231
asg24
I1979
sg58
V169
p232
sbag1
(g2
g3
NtRp233
(dp234
g68
Nsg64
VLIMNOL OCEANOGR
p235
sg66
V24
p236
sg103
(lp237
(VESTRADA
VM
tp238
asg24
I1979
sg58
V1065
p239
sbag1
(g2
g3
NtRp240
(dp241
g68
V10.1126/science.1095964
p242
sg64
VSCIENCE
p243
sg66
V305
p244
sg103
(lp245
(VFALKOWSKI
VP G
tp246
asg24
I2004
sg58
V354
p247
sbag1
(g2
g3
NtRp248
(dp249
g68
V10.1038/387272a0
p250
sg64
VNATURE
p251
sg66
V387
p252
sg103
(lp253
(VFALKOWSKI
VP G
tp254
asg24
I1997
sg58
V272
p255
sbag1
(g2
g3
NtRp256
(dp257
g68
V10.1126/science.281.5374.237
p258
sg64
VSCIENCE
p259
sg66
V281
p260
sg103
(lp261
(VFIELD
VC B
tp262
asg24
I1998
sg58
V237
p263
sbag1
(g2
g3
NtRp264
(dp265
g68
V10.1038/43160
p266
sg64
VNATURE
p267
sg66
V387
p268
sg103
(lp269
(VGAGE
VD A
tp270
asg24
I1997
sg58
V891
p271
sbag1
(g2
g3
NtRp272
(dp273
g68
Nsg64
VPLANT PHYSIOL
p274
sg66
V103
p275
sg103
(lp276
(VGAO
VY
tp277
asg24
I1993
sg58
VLANT
p278
sbag1
(g2
g3
NtRp279
(dp280
g68
Nsg64
VPLANT PHYSIOL
p281
sg66
V103
p282
sg103
(lp283
(VHANNING
VI
tp284
asg24
I1993
sg58
VLANT
p285
sbag1
(g2
g3
NtRp286
(dp287
g68
V10.1016/B978-012088426-1/50004-4
p288
sg64
VALGAL CULTURING TECH
p289
sg66
Nsg103
(lp290
(VHARRISON
VP J
tp291
asg24
I2005
sg58
V21
p292
sbag1
(g2
g3
NtRp293
(dp294
g68
V10.1016/j.phytochem.2007.03.032
p295
sg64
VPHYTOCHEMISTRY
p296
sg66
V68
p297
sg103
(lp298
(VJUNKER
VB H
tp299
asg24
I2007
sg58
VHYTOCHEMISTRY
p300
sbag1
(g2
g3
NtRp301
(dp302
g68
V10.1007/s002270050622
p303
sg64
VMAR BIOL
p304
sg66
V135
p305
sg103
(lp306
(VKELLER
VM D
tp307
asg24
I1999
sg58
V249
p308
sbag1
(g2
g3
NtRp309
(dp310
g68
V10.1371/journal.pone.0001426
p311
sg64
VPLOS ONE
p312
sg66
V3
sg103
(lp313
(VKROTH
VP G
tp314
asg24
I2008
sg58
VLOS
p315
sbag1
(g2
g3
NtRp316
(dp317
g68
V10.1007/s004250050625
p318
sg64
VPLANTA
p319
sg66
V209
p320
sg103
(lp321
(VLOGAN
VB A
tp322
asg24
I1999
sg58
VLANTA
p323
sbag1
(g2
g3
NtRp324
(dp325
g68
V10.1006/jmsc.1993.1013
p326
sg64
VICES J MAR SCI
p327
sg66
V50
p328
sg103
(lp329
(VMANN
VK H
tp330
asg24
I1993
sg58
V105
p331
sbag1
(g2
g3
NtRp332
(dp333
g68
V10.1104/pp.110.165159
p334
sg64
VPLANT PHYSIOL
p335
sg66
V154
p336
sg103
(lp337
(VMILLER
VR
tp338
asg24
I2010
sg58
VLANT
p339
sbag1
(g2
g3
NtRp340
(dp341
g68
V10.1046/j.1529-8817.2000.99013.x
p342
sg64
VJ PHYCOL
p343
sg66
V36
p344
sg103
(lp345
(VMILLIGAN
VA J
tp346
asg24
I2000
sg58
V78
p347
sbag1
(g2
g3
NtRp348
(dp349
g68
V10.1073/pnas.0707946105
p350
sg64
VP NATL ACAD SCI USA
p351
sg66
V105
p352
sg103
(lp353
(VMOCK
VT
tp354
asg24
I2008
sg58
V1579
p355
sbag1
(g2
g3
NtRp356
(dp357
g68
V10.1016/S0031-9422(02)00216-9
p358
sg64
VPHYTOCHEMISTRY
p359
sg66
V61
p360
sg103
(lp361
(VMOCK
VT
tp362
asg24
I2002
sg58
VHYTOCHEMISTRY
p363
sbag1
(g2
g3
NtRp364
(dp365
g68
V10.1128/EC.00203-09
p366
sg64
VEUKARYOT CELL
p367
sg66
V9
sg103
(lp368
(VMOELLERING
VE R
tp369
asg24
I2010
sg58
V97
p370
sbag1
(g2
g3
NtRp371
(dp372
g68
V10.1029/95GB01070
p373
sg64
VGLOBAL BIOGEOCHEM CY
p374
sg66
V9
sg103
(lp375
(VNELSON
VD M
tp376
asg24
I1995
sg58
V359
p377
sbag1
(g2
g3
NtRp378
(dp379
g68
V10.1016/j.plaphy.2009.06.009
p380
sg64
VPLANT PHYSIOL BIOCH
p381
sg66
V47
p382
sg103
(lp383
(VNORTH
VK A
tp384
asg24
I2009
sg58
VLANT
p385
sbag1
(g2
g3
NtRp386
(dp387
g68
V10.3354/ame01284
p388
sg64
VAQUAT MICROB ECOL
p389
sg66
V55
p390
sg103
(lp391
(VNUNN
VB L
tp392
asg24
I2009
sg58
V241
p393
sbag1
(g2
g3
NtRp394
(dp395
g68
V10.1111/j.1529-8817.2011.00963.x
p396
sg64
VJ PHYCOL
p397
sg66
V47
p398
sg103
(lp399
(VPALMUCCI
VM
tp400
asg24
I2011
sg58
V313
p401
sbag1
(g2
g3
NtRp402
(dp403
g68
V10.1016/0960-9822(93)90195-T
p404
sg64
VCURR BIOL
p405
sg66
V3
sg103
(lp406
(VPAPPIN
VD J C
tp407
asg24
I1993
sg58
V327
p408
sbag1
(g2
g3
NtRp409
(dp410
g68
V10.1111/j.1529-8817.2005.00139.x
p411
sg64
VJ PHYCOL
p412
sg66
V41
p413
sg103
(lp414
(VPARKER
VM S
tp415
asg24
I2005
sg58
V1142
p416
sbag1
(g2
g3
NtRp417
(dp418
g68
V10.1007/s11103-007-9241-0
p419
sg64
VPLANT MOL BIOL
p420
sg66
V65
p421
sg103
(lp422
(VPENG
VM S
tp423
asg24
I2007
sg58
VLANT
p424
sbag1
(g2
g3
NtRp425
(dp426
g68
Nsg64
VLIMNOL OCEANOGR
p427
sg66
V25
p428
sg103
(lp429
(VPORTER
VK G
tp430
asg24
I1980
sg58
V943
p431
sbag1
(g2
g3
NtRp432
(dp433
g68
V10.1111/j.1742-4658.2005.04760.x
p434
sg64
VFEBS J
p435
sg66
V272
p436
sg103
(lp437
(VPOULSEN
VN
tp438
asg24
I2005
sg58
V3413
p439
sbag1
(g2
g3
NtRp440
(dp441
g68
V10.1093/molbev/msj110
p442
sg64
VMOL BIOL EVOL
p443
sg66
V23
p444
sg103
(lp445
(VROBERTSON
VD L
tp446
asg24
I2006
sg58
V1048
p447
sbag1
(g2
g3
NtRp448
(dp449
g68
V10.1104/pp.111.4.1169
p450
sg64
VPLANT PHYSIOL
p451
sg66
V111
p452
sg103
(lp453
(VROBERTSON
VD L
tp454
asg24
I1996
sg58
VLANT
p455
sbag1
(g2
g3
NtRp456
(dp457
g68
V10.1046/j.1529-8817.1999.3540786.x
p458
sg64
VJ PHYCOL
p459
sg66
V35
p460
sg103
(lp461
(VROBERTSON
VD L
tp462
asg24
I1999
sg58
V786
p463
sbag1
(g2
g3
NtRp464
(dp465
g68
V10.1128/JB.182.19.5615-5619.2000
p466
sg64
VJ BACTERIOL
p467
sg66
V182
p468
sg103
(lp469
(VSAUER
VJ
tp470
asg24
I2000
sg58
V5615
p471
sbag1
(g2
g3
NtRp472
(dp473
g68
V10.1074/jbc.M606266200
p474
sg64
VJ BIOL CHEM
p475
sg66
V281
p476
sg103
(lp477
(VSCHWENDER
VJ
tp478
asg24
I2006
sg58
V34040
p479
sbag1
(g2
g3
NtRp480
(dp481
g68
V10.1016/j.gene.2007.05.022
p482
sg64
VGENE
p483
sg66
V406
p484
sg103
(lp485
(VSIAUT
VM
tp486
asg24
I2007
sg58
V23
p487
sbag1
(g2
g3
NtRp488
(dp489
g68
V10.1016/S1385-1101(00)00030-7
p490
sg64
VJ SEA RES
p491
sg66
V43
p492
sg103
(lp493
(VSTEFELS
VJ
tp494
asg24
I2000
sg58
V183
p495
sbag1
(g2
g3
NtRp496
(dp497
g68
V10.1038/nature00851
p498
sg64
VNATURE
p499
sg66
V418
p500
sg103
(lp501
(VSUNDA
VW
tp502
asg24
I2002
sg58
V317
p503
sbag1
(g2
g3
NtRp504
(dp505
g68
V10.1016/j.tplants.2010.05.006
p506
sg64
VTRENDS PLANT SCI
p507
sg66
V15
p508
sg103
(lp509
(VSWEETLOVE
VL J
tp510
asg24
I2010
sg58
V462
p511
sbag1
(g2
g3
NtRp512
(dp513
g68
V10.1111/j.1529-8817.2005.04115.x
p514
sg64
VJ PHYCOL
p515
sg66
V41
p516
sg103
(lp517
(VTAKABAYASHI
VM
tp518
asg24
I2005
sg58
V84
p519
sbag1
(g2
g3
NtRp520
(dp521
g68
V10.1104/pp.120.3.695
p522
sg64
VPLANT PHYSIOL
p523
sg66
V120
p524
sg103
(lp525
(VTANAKA
VR
tp526
asg24
I1999
sg58
VLANT
p527
sbag1
(g2
g3
NtRp528
(dp529
g68
V10.1038/msb4100087
p530
sg64
VMOL SYST BIOL
p531
sg66
V2
sg103
(lp532
(VTOLONEN
VA C
tp533
asg24
I2006
sg58
Nsbag1
(g2
g3
NtRp534
(dp535
g68
V10.1046/j.1529-8817.1998.340952.x
p536
sg64
VJ PHYCOL
p537
sg66
V34
p538
sg103
(lp539
(VVERGARA
VJ J
tp540
asg24
I1998
sg58
V952
p541
sbag1
(g2
g3
NtRp542
(dp543
g68
Nsg64
VJ BACTERIOL
p544
sg66
V122
p545
sg103
(lp546
(VVOELLMY
VR
tp547
asg24
I1975
sg58
V799
p548
sbag1
(g2
g3
NtRp549
(dp550
g68
V10.1128/EC.00272-09
p551
sg64
VEUKARYOT CELL
p552
sg66
V8
sg103
(lp553
(VWANG
VZ T
tp554
asg24
I2009
sg58
V1856
p555
sbag1
(g2
g3
NtRp556
(dp557
g68
V10.1093/jxb/eri279
p558
sg64
VJ EXP BOT
p559
sg66
V57
p560
sg103
(lp561
(VWINGLER
VA
tp562
asg24
I2006
sg58
V391
p563
sbag1
(g2
g3
NtRp564
(dp565
g68
Nsg64
V44 NE ALG S ROCKL ME
p566
sg66
Nsg103
(lp567
(VZADYKOWICZ
VE
tp568
asg24
I2005
sg58
V41
p569
sbag1
(g2
g3
NtRp570
(dp571
g68
V10.1111/j.1529-8817.1988.tb00112.x
p572
sg64
VJ PHYCOL
p573
sg66
V24
p574
sg103
(lp575
(VZEHR
VJ P
tp576
asg24
I1988
sg58
V588
p577
sbasb.