ccopy_reg
_reconstructor
p1
(ctethne.classes.paper
Paper
p2
c__builtin__
object
p3
NtRp4
(dp5
S'publisherCity'
p6
VROCKVILLE
p7
sS'reprintAddress'
p8
VOliver, DJ (reprint author), Iowa State Univ, Dept Genet Dev & Cell Biol, Ames, IA 50011 USA.
p9
sS'WC'
p10
VPlant Sciences
p11
sS'GA'
p12
V369UN
p13
sS'FX'
p14
(lp15
VThis work was supported by the U. S. Department of Agriculture, the
p16
aVNational Research Initiative Program (grant no. 30471038), the Chinese
p17
aVAcademy of Science (grant no. KSCX2-SW-3), and the RIKEN Special
p18
aVPostdoctoral Researcher Program.
p19
asS'abstract'
p20
VThe degradation pathway of glutathione (GSH) in plants is not well understood. In mammals, GSH is predominantly metabolized through the gamma-glutamyl cycle, where GSH is degraded by the sequential reaction of gamma-glutamyl transpeptidase (GGT), gamma-glutamyl cyclotransferase, and 5-oxoprolinase to yield glutamate (Glu)and dipeptides that are subject to peptidase action. In this study, we examined if GSH is degraded through the same pathway in Arabidopsis (Arabidopsis thaliana) as occurs in mammals. In Arabidopsis, the oxoprolinase knockout mutants (oxp1-1 and oxp1-2) accumulate more 5-oxoproline (5OP) and less Glu than wild-type plants, suggesting substantial metabolite flux though 5OP and that 5OP is a major contributor to Glu steady-state levels. In the ggt1-1/ggt4-1/oxp1-1 triple mutant with no GGT activity in any organs except young siliques, the 5OP concentration in leaves was not different from that in oxp1-1, suggesting that GGTs are not major contributors to 5OP production in Arabidopsis. 5OP formation strongly tracked the level of GSH in Arabidopsis plants, suggesting that GSH is the precursor of 5OP in a GGT-independent reaction. Kinetics analysis suggests that gamma-glutamyl cyclotransferase is the major source of GSH degradation and 5OP formation in Arabidopsis. This discovery led us to propose a new pathway for GSH turnover in plants where GSH is converted to 5OP and then to Glu by the combined action of gamma-glutamyl cyclotransferase and 5-oxoprolinase in the cytoplasm.
p21
sS'pageEnd'
p22
I1613
sS'date'
p23
I2008
sS'documentType'
p24
VArticle
p25
sS'subject'
p26
VPlant Sciences
p27
sS'isoSource'
p28
VPlant Physiol.
p29
sS'timesCited'
p30
(lp31
I39
aVZ9 42
p32
asS'funding'
p33
(lp34
(VU. S. Department of Agriculture
Ntp35
a(VNational Research Initiative Program
V30471038
tp36
a(VChinese Academy of Science
VKSCX2-SW-3
tp37
a(VRIKEN Special Postdoctoral Researcher Program
Ntp38
asS'PT'
p39
VJ
sS'title'
p40
VA Gamma-Glutamyl Transpeptidase-Independent Pathway Of Glutathione Catabolism To Glutamate Via 5-Oxoproline In Arabidopsis
p41
sS'ISSN'
p42
(lp43
V0032-0889
p44
aVJ9 PLANT PHYSIOL
p45
asS'authors_full'
p46
(lp47
(VOHKAMAOHTSU
VNAOKO
tp48
a(VOIKAWA
VAKIRA
tp49
a(VZHAO
VPING
tp50
a(VXIANG
VCHENGBIN
tp51
a(VSAITO
VKAZUKI
tp52
a(VOLIVER
VDAVID J
tp53
asS'PG'
p54
I11
sS'PD'
p55
VNOV
p56
sS'pageStart'
p57
I1603
sS'issue'
p58
I3
sS'RI'
p59
VSaito, Kazuki/D-2670-2009
p60
sS'journal'
p61
VPLANT PHYSIOLOGY
p62
sS'volume'
p63
V148
p64
sS'doi'
p65
V10.1104/pp.108.125716
p66
sS'emailAddress'
p67
Vdoliver@iastate.edu
p68
sS'authorAddress'
p69
(lp70
V[Ohkama-Ohtsu, Naoko; Oliver, David J.] Iowa State Univ, Dept Genet Dev & Cell Biol, Ames, IA 50011 USA.
p71
aV[Ohkama-Ohtsu, Naoko; Oikawa, Akira; Saito, Kazuki] RIKEN, Plant Sci Ctr, Yokohama, Kanagawa 2300045, Japan.
p72
aV[Zhao, Ping; Xiang, Chengbin] Univ Sci & Technol China, Sch Life Sci, Hefei 230027, Anhui, Peoples R China.
p73
asS'publisherAddress'
p74
V15501 MONONA DRIVE, ROCKVILLE, MD 20855 USA
p75
sS'ER'
p76
V
sS'publisher'
p77
VAMER SOC PLANT BIOLOGISTS
p78
sS'authorKeywords'
p79
(lp80
VHIGHER-PLANTS
p81
aVSUBCELLULAR-LOCALIZATION
p82
aVPHYTOCHELATIN SYNTHASE
p83
aVCATALYTIC PROPERTIES
p84
aVDEFICIENT MICE
p85
aVTHALIANA
p86
aVSYNTHETASE
p87
aVDEGRADATION
p88
aVCLONING
p89
aVENZYME
p90
asS'language'
p91
VEnglish
p92
sS'wosid'
p93
VWOS:000260719500034
p94
sS'citationCount'
p95
I52
sS'authors_init'
p96
(lp97
(VOHKAMAOHTSU
VN
tp98
a(VOIKAWA
VA
tp99
a(VZHAO
VP
tp100
a(VXIANG
VC
tp101
a(VSAITO
VK
tp102
a(VOLIVER
VD J
tp103
asS'citedReferences'
p104
(lp105
g1
(g2
g3
NtRp106
(dp107
g65
V10.1126/science.1086391
p108
sg61
VSCIENCE
p109
sg63
V301
p110
sg96
(lp111
(VALONSO
VJ M
tp112
asg23
I2003
sg57
V653
p113
sbag1
(g2
g3
NtRp114
(dp115
g65
V10.1046/j.1365-313X.1996.10010107.x
p116
sg61
VPLANT J
p117
sg63
V10
p118
sg96
(lp119
(VAN
VY Q
tp120
asg23
I1996
sg57
VLANT
p121
sbag1
(g2
g3
NtRp122
(dp123
g65
V10.1016/S0031-9422(02)00565-4
p124
sg61
VPHYTOCHEMISTRY
p125
sg63
V62
p126
sg96
(lp127
(VBECK
VA
tp128
asg23
I2003
sg57
VHYTOCHEMISTRY
p129
sbag1
(g2
g3
NtRp130
(dp131
g65
V10.1111/j.1365-313X.2006.02993.x
p132
sg61
VPLANT J
p133
sg63
V49
p134
sg96
(lp135
(VBLUM
VR
tp136
asg23
I2007
sg57
VLANT
p137
sbag1
(g2
g3
NtRp138
(dp139
g65
Nsg61
VANAL BIOCHEM
p140
sg63
V72
p141
sg96
(lp142
(VBRADFORD
VM M
tp143
asg23
I1976
sg57
V254
p144
sbag1
(g2
g3
NtRp145
(dp146
g65
V10.1146/annurev.arplant.53.100301.135154
p147
sg61
VANNU REV PLANT BIOL
p148
sg63
V53
p149
sg96
(lp150
(VCOBBETT
VC
tp151
asg23
I2002
sg57
V159
p152
sbag1
(g2
g3
NtRp153
(dp154
g65
V10.1046/j.1365-313x.1998.00262.x
p155
sg61
VPLANT J
p156
sg63
V16
p157
sg96
(lp158
(VCOBBETT
VC S
tp159
asg23
I1998
sg57
VLANT
p160
sbag1
(g2
g3
NtRp161
(dp162
g65
V10.1006/prep.2000.1273
p163
sg61
VPROTEIN EXPRES PURIF
p164
sg63
V20
p165
sg96
(lp166
(VDAHL
VS W
tp167
asg23
I2000
sg57
VROTEIN
p168
sbag1
(g2
g3
NtRp169
(dp170
g65
V10.1002/prot.21936
p171
sg61
VPROTEINS
p172
sg63
V71
p173
sg96
(lp174
(VDE
VL A CRUZ N B
tp175
asg23
I2008
sg57
VROTEINS
p176
sbag1
(g2
g3
NtRp177
(dp178
g65
V10.1105/tpc.105.033589
p179
sg61
VPLANT CELL
p180
sg63
V17
p181
sg96
(lp182
(VFOYER
VC H
tp183
asg23
I2005
sg57
VLANT
p184
sbag1
(g2
g3
NtRp185
(dp186
g65
V10.1046/j.1365-2818.2000.00696.x
p187
sg61
VJ MICROSC
p188
sg63
V198
p189
sg96
(lp190
(VFRICKER
VM D
tp191
asg23
I2000
sg57
V162
p192
sbag1
(g2
g3
NtRp193
(dp194
g65
V10.1534/genetics.106.066944
p195
sg61
VGENETICS
p196
sg63
V175
p197
sg96
(lp198
(VGANGULI
VD
tp199
asg23
I2007
sg57
V1137
p200
sbag1
(g2
g3
NtRp201
(dp202
g65
V10.1093/pcp/pcf107
p203
sg61
VPLANT CELL PHYSIOL
p204
sg63
V43
p205
sg96
(lp206
(VGOTO
VD B
tp207
asg23
I2002
sg57
VLANT
p208
sbag1
(g2
g3
NtRp209
(dp210
g65
V10.1016/j.febslet.2007.05.071
p211
sg61
VFEBS LETT
p212
sg63
V581
p213
sg96
(lp214
(VGRZAM
VA
tp215
asg23
I2007
sg57
V3131
p216
sbag1
(g2
g3
NtRp217
(dp218
g65
V10.1093/carcin/6.2.165
p219
sg61
VCARCINOGENESIS
p220
sg63
V6
sg96
(lp221
(VHANIGAN
VM H
tp222
asg23
I1985
sg57
V165
p223
sbag1
(g2
g3
NtRp224
(dp225
g65
V10.1074/jbc.272.19.12560
p226
sg61
VJ BIOL CHEM
p227
sg63
V272
p228
sg96
(lp229
(VHARDING
VC O
tp230
asg23
I1997
sg57
V12560
p231
sbag1
(g2
g3
NtRp232
(dp233
g65
V10.1007/BF02411460
p234
sg61
VPLANTA
p235
sg63
V180
p236
sg96
(lp237
(VHELL
VR
tp238
asg23
I1990
sg57
VLANTA
p239
sbag1
(g2
g3
NtRp240
(dp241
g65
V10.1074/jbc.M405127200
p242
sg61
VJ BIOL CHEM
p243
sg63
V279
p244
sg96
(lp245
(VJEZ
VJ M
tp246
asg23
I2004
sg57
V33463
p247
sbag1
(g2
g3
NtRp248
(dp249
g65
V10.1210/en.141.11.4270
p250
sg61
VENDOCRINOLOGY
p251
sg63
V141
p252
sg96
(lp253
(VKUMAR
VT R
tp254
asg23
I2000
sg57
V4270
p255
sbag1
(g2
g3
NtRp256
(dp257
g65
V10.1146/annurev.arplant.51.1.141
p258
sg61
VANNU REV PLANT PHYS
p259
sg63
V51
p260
sg96
(lp261
(VLEUSTEK
VT
tp262
asg23
I2000
sg57
V141
p263
sbag1
(g2
g3
NtRp264
(dp265
g65
V10.1073/pnas.93.15.7923
p266
sg61
VP NATL ACAD SCI USA
p267
sg63
V93
p268
sg96
(lp269
(VLIEBERMAN
VM W
tp270
asg23
I1996
sg57
V7923
p271
sbag1
(g2
g3
NtRp272
(dp273
g65
V10.1104/pp.108.121269
p274
sg61
VPLANT PHYSIOL
p275
sg63
V147
p276
sg96
(lp277
(VLIN
VM
tp278
asg23
I2008
sg57
VLANT
p279
sbag1
(g2
g3
NtRp280
(dp281
g65
V10.1146/annurev.arplant.47.1.127
p282
sg61
VANNU REV PLANT PHYS
p283
sg63
V47
p284
sg96
(lp285
(VMARRS
VK A
tp286
asg23
I1996
sg57
V127
p287
sbag1
(g2
g3
NtRp288
(dp289
g65
V10.1104/pp.106.094409
p290
sg61
VPLANT PHYSIOL
p291
sg63
V144
p292
sg96
(lp293
(VMARTIN
VM N
tp294
asg23
I2007
sg57
VLANT
p295
sbag1
(g2
g3
NtRp296
(dp297
g65
V10.1104/pp.122.4.1417
p298
sg61
VPLANT PHYSIOL
p299
sg63
V122
p300
sg96
(lp301
(VMARTIN
VM N
tp302
asg23
I2000
sg57
VLANT
p303
sbag1
(g2
g3
NtRp304
(dp305
g65
V10.1073/pnas.91.21.10059
p306
sg61
VP NATL ACAD SCI USA
p307
sg63
V91
p308
sg96
(lp309
(VMAY
VM J
tp310
asg23
I1994
sg57
V10059
p311
sbag1
(g2
g3
NtRp312
(dp313
g65
V10.1104/pp.57.1.85
p314
sg61
VPLANT PHYSIOL
p315
sg63
V57
p316
sg96
(lp317
(VMAZELIS
VM
tp318
asg23
I1976
sg57
VLANT
p319
sbag1
(g2
g3
NtRp320
(dp321
g65
V10.1104/pp.62.5.798
p322
sg61
VPLANT PHYSIOL
p323
sg63
V62
p324
sg96
(lp325
(VMAZELIS
VM
tp326
asg23
I1978
sg57
VLANT
p327
sbag1
(g2
g3
NtRp328
(dp329
g65
V10.1126/science.180.4081.33
p330
sg61
VSCIENCE
p331
sg63
V180
p332
sg96
(lp333
(VMEISTER
VA
tp334
asg23
I1973
sg57
V33
p335
sbag1
(g2
g3
NtRp336
(dp337
g65
Nsg61
VMETABOLIC MOL BASES
p338
sg63
V1
sg96
(lp339
(VMEISTER
VA
tp340
asg23
I1995
sg57
V1461
p341
sbag1
(g2
g3
NtRp342
(dp343
g65
V10.5511/plantbiotechnology.21.243
p344
sg61
VPLANT BIOTECHNOL
p345
sg63
V21
p346
sg96
(lp347
(VNAKANO
VY
tp348
asg23
I2004
sg57
VLANT
p349
sbag1
(g2
g3
NtRp350
(dp351
g65
V10.1271/bbb.65.477
p352
sg61
VBIOSCI BIOTECH BIOCH
p353
sg63
V65
p354
sg96
(lp355
(VNISHIMURA
VA
tp356
asg23
I2001
sg57
V477
p357
sbag1
(g2
g3
NtRp358
(dp359
g65
V10.1146/annurev.arplant.49.1.249
p360
sg61
VANNU REV PLANT PHYS
p361
sg63
V49
p362
sg96
(lp363
(VNOCTOR
VG
tp364
asg23
I1998
sg57
V249
p365
sbag1
(g2
g3
NtRp366
(dp367
g65
V10.1074/jbc.M803623200
p368
sg61
VJ BIOL CHEM
p369
sg63
V283
p370
sg96
(lp371
(VOAKLEY
VA J
tp372
asg23
I2008
sg57
V22031
p373
sbag1
(g2
g3
NtRp374
(dp375
g65
V10.1111/j.1365-313X.2006.03004.x
p376
sg61
VPLANT J
p377
sg63
V49
p378
sg96
(lp379
(VOHKAMA-OHTSU
VN
tp380
asg23
I2007
sg57
VLANT
p381
sbag1
(g2
g3
NtRp382
(dp383
g65
V10.1111/j.1365-313X.2006.03005.x
p384
sg61
VPLANT J
p385
sg63
V49
p386
sg96
(lp387
(VOHKAMA-OHTSU
VN
tp388
asg23
I2007
sg57
VLANT
p389
sbag1
(g2
g3
NtRp390
(dp391
g65
V10.1021/bi00831a036
p392
sg61
VBIOCHEMISTRY
p393
sg63
V8
sg96
(lp394
(VORLOWSKI
VM
tp395
asg23
I1969
sg57
V1048
p396
sbag1
(g2
g3
NtRp397
(dp398
g65
V10.1111/j.1365-313X.2007.03389.x
p399
sg61
VPLANT J
p400
sg63
V53
p401
sg96
(lp402
(VPASTERNAK
VM
tp403
asg23
I2008
sg57
VLANT
p404
sbag1
(g2
g3
NtRp405
(dp406
g65
Nsg61
VPHYSIOL PLANTARUM
p407
sg63
V62
p408
sg96
(lp409
(VRENNENBERG
VH
tp410
asg23
I1981
sg57
VHYSIOL
p411
sbag1
(g2
g3
NtRp412
(dp413
g65
Nsg61
VZ NATURFORSCH C
p414
sg63
V35
p415
sg96
(lp416
(VRENNENBERG
VH
tp417
asg23
I1980
sg57
V708
p418
sbag1
(g2
g3
NtRp419
(dp420
g65
V10.1016/S0014-5793(04)00300-X
p421
sg61
VFEBS LETT
p422
sg63
V563
p423
sg96
(lp424
(VSCHILLING
VS
tp425
asg23
I2004
sg57
V191
p426
sbag1
(g2
g3
NtRp427
(dp428
g65
V10.1515/BC.2007.016
p429
sg61
VBIOL CHEM
p430
sg63
V388
p431
sg96
(lp432
(VSCHILLING
VS
tp433
asg23
I2007
sg57
V145
p434
sbag1
(g2
g3
NtRp435
(dp436
g65
V10.1016/j.phytochem.2005.01.017
p437
sg61
VPHYTOCHEMISTRY
p438
sg63
V66
p439
sg96
(lp440
(VSHAW
VM L
tp441
asg23
I2005
sg57
VHYTOCHEMISTRY
p442
sbag1
(g2
g3
NtRp443
(dp444
g65
Nsg61
VZ NATURFORSCH C
p445
sg63
V40
p446
sg96
(lp447
(VSTEINKAMP
VR
tp448
asg23
I1985
sg57
V29
p449
sbag1
(g2
g3
NtRp450
(dp451
g65
V10.1111/j.1399-3054.1987.tb09231.x
p452
sg61
VPHYSIOL PLANTARUM
p453
sg63
V69
p454
sg96
(lp455
(VSTEINKAMP
VR
tp456
asg23
I1987
sg57
VHYSIOL
p457
sbag1
(g2
g3
NtRp458
(dp459
g65
V10.1104/pp.010887
p460
sg61
VPLANT PHYSIOL
p461
sg63
V128
p462
sg96
(lp463
(VSTOROZHENKO
VS
tp464
asg23
I2002
sg57
VLANT
p465
sbag1
(g2
g3
NtRp466
(dp467
g65
V10.1105/tpc.12.1.97
p468
sg61
VPLANT CELL
p469
sg63
V12
p470
sg96
(lp471
(VVERNOUX
VT
tp472
asg23
I2000
sg57
VLANT
p473
sbag1
(g2
g3
NtRp474
(dp475
g65
V10.1111/j.1365-313X.2004.02269.x
p476
sg61
VPLANT J
p477
sg63
V41
p478
sg96
(lp479
(VWACHTER
VA
tp480
asg23
I2005
sg57
VLANT
p481
sbag1
(g2
g3
NtRp482
(dp483
g65
V10.1007/BF00040827
p484
sg61
VPLANT MOL BIOL
p485
sg63
V31
p486
sg96
(lp487
(VWANG
VC L
tp488
asg23
I1996
sg57
VLANT
p489
sbag1
(g2
g3
NtRp490
(dp491
g65
V10.1104/pp.107.106831
p492
sg61
VPLANT PHYSIOL
p493
sg63
V146
p494
sg96
(lp495
(VWATANABE
VM
tp496
asg23
I2008
sg57
VLANT
p497
sbag1
(g2
g3
NtRp498
(dp499
g65
V10.1104/pp.126.2.564
p500
sg61
VPLANT PHYSIOL
p501
sg63
V126
p502
sg96
(lp503
(VXIANG
VC B
tp504
asg23
I2001
sg57
VLANT
p505
sbag1
(g2
g3
NtRp506
(dp507
g65
V10.1105/tpc.10.9.1539
p508
sg61
VPLANT CELL
p509
sg63
V10
p510
sg96
(lp511
(VXIANG
VC B
tp512
asg23
I1998
sg57
VLANT
p513
sbasb.