ccopy_reg
_reconstructor
p1
(ctethne.classes.paper
Paper
p2
c__builtin__
object
p3
NtRp4
(dp5
S'publisherCity'
p6
VROCKVILLE
p7
sS'reprintAddress'
p8
VOliver, DJ (reprint author), Iowa State Univ Sci & Technol, Dept Bot, Ames, IA 50011 USA.
p9
sS'WC'
p10
VPlant Sciences
p11
sS'GA'
p12
V325FX
p13
sS'abstract'
p14
VAcetyl-coenzyme A (acetyl-CoA) formed within the plastid is the precursor for the biosynthesis of fatty acids and,through them, a range of important biomolecules. The source of acetyl-CoA in the plastid is not known, but two enzymes are thought to be involved: acetyl-CoA synthetase and plastidic pyruvate dehydrogenase. To determine the importance of these two enzymes in synthesizing acetyl-CoA during lipid accumulation in developing Arabidopsis seeds, we isolated cDNA clones for acetyl-CoA synthetase and for the ptE1 alpha- and ptE1 beta-subunits of plastidic pyruvate dehydrogenase. To our knowledge, this is the first reported acetyl-CoA synthetase sequence from a plant source. The Arabidopsis acetyl-CoA synthetase preprotein has a calculated mass of 76,678 D, an apparent plastid targeting sequence, and the mature protein is a monomer of 70 to 72 kD. During silique development, the spatial and temporal patterns of the ptE1 beta mRNA level are very similar to those of the mRNAs for the plastidic heteromeric acetyl-CoA carboxylase subunits. The pattern of ptE1 beta mRNA accumulation strongly correlates with the formation of lipid within the developing embryo. In contrast, the level of mRNA for acetyl-CoA. synthetase does not correlate in time and space with lipid accumulation. The highest level of accumulation of the mRNA for acetyl-CoA synthetase during silique development is within the funiculus. These mRNA data suggest a predominant role for plastidic pyruvate dehydrogenase in acetyl-CoA formation during lipid synthesis in seeds.
p15
sS'pageEnd'
p16
I508
sS'publisherAddress'
p17
V15501 MONONA DRIVE, ROCKVILLE, MD 20855 USA
p18
sS'documentType'
p19
VArticle
p20
sS'subject'
p21
VPlant Sciences
p22
sS'isoSource'
p23
VPlant Physiol.
p24
sS'timesCited'
p25
(lp26
I46
aVZ9 50
p27
asS'PT'
p28
VJ
sS'title'
p29
VThe Role Of Pyruvate Dehydrogenase And Acetyl-Coenzyme A Synthetase In Fatty Acid Synthesis In Developing Arabidopsis Seeds
p30
sS'ISSN'
p31
(lp32
V0032-0889
p33
aVJ9 PLANT PHYSIOL
p34
asS'authors_full'
p35
(lp36
(VKE
VJ
tp37
a(VBEHAL
VRH
tp38
a(VBACK
VSL
tp39
a(VNIKOLAU
VBJ
tp40
a(VWURTELE
VES
tp41
a(VOLIVER
VDJ
tp42
asS'PG'
p43
I12
sS'PD'
p44
VJUN
p45
sS'pageStart'
p46
I497
sS'issue'
p47
I2
sS'journal'
p48
VPLANT PHYSIOLOGY
p49
sS'volume'
p50
V123
p51
sS'doi'
p52
V10.1104/pp.123.2.497
p53
sS'emailAddress'
p54
Vdoliver@iastate.edu
p55
sS'authorAddress'
p56
(lp57
VIowa State Univ Sci & Technol, Dept Bot, Ames, IA 50011 USA.
p58
aVIowa State Univ Sci & Technol, Dept Biochem Biophys & Mol Biol, Ames, IA 50011 USA.
p59
asS'date'
p60
I2000
sS'ER'
p61
V
sS'publisher'
p62
VAMER SOC PLANT BIOLOGISTS
p63
sS'authorKeywords'
p64
(lp65
VISOLATED SPINACH-CHLOROPLASTS
p66
aVPISUM-SATIVUM-L
p67
aVBIOTIN-CONTAINING SUBUNIT
p68
aVBRASSICA-NAPUS L
p69
aVCOA SYNTHETASE
p70
aVLIPID BIOSYNTHESIS
p71
aVDEVELOPING EMBRYOS
p72
aVMOLECULAR-CLONING
p73
aVTOBACCO POLLEN
p74
aVA CARBOXYLASE
p75
asS'language'
p76
VEnglish
p77
sS'wosid'
p78
VWOS:000087666500009
p79
sS'citationCount'
p80
I73
sS'authors_init'
p81
(lp82
(VKE
VJ
tp83
a(VBEHAL
VR H
tp84
a(VBACK
VS L
tp85
a(VNIKOLAU
VB J
tp86
a(VWURTELE
VE S
tp87
a(VOLIVER
VD J
tp88
asS'citedReferences'
p89
(lp90
g1
(g2
g3
NtRp91
(dp92
g52
V10.1104/pp.118.1.183
p93
sg48
VPLANT PHYSIOL
p94
sg50
V118
p95
sg81
(lp96
(VBAO
VX M
tp97
asg60
I1998
sg46
VLANT
p98
sbag1
(g2
g3
NtRp99
(dp100
g52
V10.1006/abbi.1997.0359
p101
sg48
VARCH BIOCHEM BIOPHYS
p102
sg50
V348
p103
sg81
(lp104
(VBEHAL
VR H
tp105
asg60
I1997
sg46
V65
p106
sbag1
(g2
g3
NtRp107
(dp108
g52
Nsg48
VPlant Physiology
p109
sg50
V121
p110
sg81
(lp111
(VBEHAL
VR H
tp112
asg60
I1999
sg46
Vlant
p113
sbag1
(g2
g3
NtRp114
(dp115
g52
Nsg48
VPROTEIN METHODS
p116
sg50
Nsg81
(lp117
(VBOLAG
VD M
tp118
asg60
I1991
sg46
VROTEIN
p119
sbag1
(g2
g3
NtRp120
(dp121
g52
Nsg48
VARABIDOPSIS ATLAS MO
p122
sg50
Nsg81
(lp123
(VBOWMAN
VJ
tp124
asg60
I1994
sg46
Nsbag1
(g2
g3
NtRp125
(dp126
g52
V10.1104/pp.77.3.571
p127
sg48
VPLANT PHYSIOL
p128
sg50
V77
p129
sg81
(lp130
(VCAMP
VP J
tp131
asg60
I1985
sg46
VLANT
p132
sbag1
(g2
g3
NtRp133
(dp134
g52
V10.1016/0005-2728(88)90034-5
p135
sg48
VBIOCHIM BIOPHYS ACTA
p136
sg50
V933
p137
sg81
(lp138
(VCAMP
VP J
tp139
asg60
I1988
sg46
V269
p140
sbag1
(g2
g3
NtRp141
(dp142
g52
V10.1104/pp.109.2.619
p143
sg48
VPLANT PHYSIOL
p144
sg50
V109
p145
sg81
(lp146
(VCHOI
VJ K
tp147
asg60
I1995
sg46
VLANT
p148
sbag1
(g2
g3
NtRp149
(dp150
g52
V10.1073/pnas.81.7.1991
p151
sg48
VP NATL ACAD SCI
p152
sg50
V81
p153
sg81
(lp154
(VCHURCH
VG M
tp155
asg60
I1984
sg46
V1991
p156
sbag1
(g2
g3
NtRp157
(dp158
g52
V10.1126/science.272.5266.1334
p159
sg48
VSCIENCE
p160
sg50
V272
p161
sg81
(lp162
(VCUI
VX Q
tp163
asg60
I1996
sg46
V1334
p164
sbag1
(g2
g3
NtRp165
(dp166
g52
V10.1007/BF00403008
p167
sg48
VPLANTA
p168
sg50
V173
p169
sg81
(lp170
(VDENYER
VK
tp171
asg60
I1988
sg46
VLANTA
p172
sbag1
(g2
g3
NtRp173
(dp174
g52
Nsg48
VMETHOD ENZYMOL
p175
sg50
V148
p176
sg81
(lp177
(VDOUCE
VR
tp178
asg60
I1987
sg46
V403
p179
sbag1
(g2
g3
NtRp180
(dp181
g52
Nsg48
VPHYSIOLOGY
p182
sg50
Nsg81
(lp183
(VEASTMOND
VP J
tp184
asg60
I1997
sg46
VHYSIOLOGY
p185
sbag1
(g2
g3
NtRp186
(dp187
g52
Nsg48
VPLANT SCI LETT
p188
sg50
Nsg81
(lp189
(VELIAS
VB A
tp190
asg60
I1979
sg46
VLANT
p191
sbag1
(g2
g3
NtRp192
(dp193
g52
Nsg48
VJ BIOL CHEM
p194
sg50
V252
p195
sg81
(lp196
(VFRENKEL
VE P
tp197
asg60
I1977
sg46
V504
p198
sbag1
(g2
g3
NtRp199
(dp200
g52
V10.1104/pp.63.4.687
p201
sg48
VPLANT PHYSIOL
p202
sg50
V63
p203
sg81
(lp204
(VFRITSCH
VH
tp205
asg60
I1979
sg46
VLANT
p206
sbag1
(g2
g3
NtRp207
(dp208
g52
V10.1016/0304-4211(83)90120-7
p209
sg48
VPLANT SCI LETT
p210
sg50
V32
p211
sg81
(lp212
(VGIVAN
VC V
tp213
asg60
I1983
sg46
VLANT
p214
sbag1
(g2
g3
NtRp215
(dp216
g52
V10.1104/pp.93.3.1121
p217
sg48
VPLANT PHYSIOL
p218
sg50
V93
p219
sg81
(lp220
(VHEINTZE
VA
tp221
asg60
I1990
sg46
VLANT
p222
sbag1
(g2
g3
NtRp223
(dp224
g52
Nsg48
VPLANTA
p225
sg50
V190
p226
sg81
(lp227
(VHOPPE
VP
tp228
asg60
I1993
sg46
VLANTA
p229
sbag1
(g2
g3
NtRp230
(dp231
g52
V10.1016/0020-711X(84)90146-0
p232
sg48
VINT J BIOCHEM
p233
sg50
V16
p234
sg81
(lp235
(VIMESCH
VE
tp236
asg60
I1984
sg46
V875
p237
sbag1
(g2
g3
NtRp238
(dp239
g52
Nsg48
VJ BACTERIOL
p240
sg50
V171
p241
sg81
(lp242
(VJETTEN
VM S M
tp243
asg60
I1989
sg46
V5430
p244
sbag1
(g2
g3
NtRp245
(dp246
g52
V10.1016/S0005-2728(97)00059-5
p247
sg48
VBBA
p248
sg50
V1321
p249
sg81
(lp250
(VJOHNSTON
VM L
tp251
asg60
I1997
sg46
V200
p252
sbag1
(g2
g3
NtRp253
(dp254
g52
Nsg48
VMETHODS ENZYMOL
p255
sg50
V148
p256
sg81
(lp257
(VJOY
VK W
tp258
asg60
I1987
sg46
V179
p259
sbag1
(g2
g3
NtRp260
(dp261
g52
V10.1007/BF00393520
p262
sg48
VPLANTA
p263
sg50
V163
p264
sg81
(lp265
(VKAETHNER
VT M
tp266
asg60
I1985
sg46
VLANTA
p267
sbag1
(g2
g3
NtRp268
(dp269
g52
V10.1046/j.1365-313X.1994.6060795.x
p270
sg48
VPLANT J
p271
sg50
V6
sg81
(lp272
(VKANG
VF
tp273
asg60
I1994
sg46
VLANT
p274
sbag1
(g2
g3
NtRp275
(dp276
g52
Nsg48
VPLANTA
p277
sg50
V199
p278
sg81
(lp279
(VKANG
VF
tp280
asg60
I1996
sg46
VLANTA
p281
sbag1
(g2
g3
NtRp282
(dp283
g52
V10.1104/pp.113.2.357
p284
sg48
VPLANT PHYSIOL
p285
sg50
V113
p286
sg81
(lp287
(VKE
VJ S
tp288
asg60
I1997
sg46
VLANT
p289
sbag1
(g2
g3
NtRp290
(dp291
g52
V10.1104/pp.122.4.1057
p292
sg48
VPLANT PHYSIOL
p293
sg50
V122
p294
sg81
(lp295
(VKE
VJ S
tp296
asg60
I2000
sg46
VLANT
p297
sbag1
(g2
g3
NtRp298
(dp299
g52
V10.1016/0003-9861(81)90301-5
p300
sg48
VARCH BIOCHEM BIOPHYS
p301
sg50
V209
p302
sg81
(lp303
(VKUHN
VD N
tp304
asg60
I1981
sg46
V441
p305
sbag1
(g2
g3
NtRp306
(dp307
g52
Nsg48
VMETH MOL B
p308
sg50
V82
p309
sg81
(lp310
(VKUNST
VL
tp311
asg60
I1998
sg46
V43
p312
sbag1
(g2
g3
NtRp313
(dp314
g52
V10.1104/pp.120.3.637
p315
sg48
VPLANT PHYSIOL
p316
sg50
V120
p317
sg81
(lp318
(VLEUSTEK
VT
tp319
asg60
I1999
sg46
VLANT
p320
sbag1
(g2
g3
NtRp321
(dp322
g52
V10.1104/pp.69.4.897
p323
sg48
VPLANT PHYSIOL
p324
sg50
V69
p325
sg81
(lp326
(VLIEDVOGEL
VB
tp327
asg60
I1982
sg46
VLANT
p328
sbag1
(g2
g3
NtRp329
(dp330
g52
V10.1007/BF00392096
p331
sg48
VPLANTA
p332
sg50
V169
p333
sg81
(lp334
(VLIEDVOGEL
VB
tp335
asg60
I1986
sg46
VLANTA
p336
sbag1
(g2
g3
NtRp337
(dp338
g52
Nsg48
VBIOCHEM J
p339
sg50
V113
p340
sg81
(lp341
(VLONDESBOROUGH
VJ C
tp342
asg60
I1973
sg46
V23
p343
sbag1
(g2
g3
NtRp344
(dp345
g52
V10.1093/nar/23.18.3796
p346
sg48
VNUCLEIC ACIDS RES
p347
sg50
V23
p348
sg81
(lp349
(VMARUYAMA
VI N
tp350
asg60
I1995
sg46
V3796
p351
sbag1
(g2
g3
NtRp352
(dp353
g52
V10.1111/j.1365-3040.1990.tb01091.x
p354
sg48
VPLANT CELL ENVIRON
p355
sg50
V13
p356
sg81
(lp357
(VMASTERSON
VC
tp358
asg60
I1990
sg46
VLANT
p359
sbag1
(g2
g3
NtRp360
(dp361
g52
V10.1111/j.1365-3040.1990.tb01092.x
p362
sg48
VPLANT CELL ENVIRON
p363
sg50
V13
p364
sg81
(lp365
(VMASTERSON
VC
tp366
asg60
I1990
sg46
VLANT
p367
sbag1
(g2
g3
NtRp368
(dp369
g52
Nsg48
VPLANTA
p370
sg50
V197
p371
sg81
(lp372
(VMCCASKILL
VD
tp373
asg60
I1995
sg46
VLANTA
p374
sbag1
(g2
g3
NtRp375
(dp376
g52
V10.1093/jxb/34.6.712
p377
sg48
VJ EXP BOT
p378
sg50
V34
p379
sg81
(lp380
(VMIERNYK
VJ A
tp381
asg60
I1983
sg46
V712
p382
sbag1
(g2
g3
NtRp383
(dp384
g52
V10.1016/0014-5793(77)80226-3
p385
sg48
VFEBS LETT
p386
sg50
V77
p387
sg81
(lp388
(VMURPHY
VD J
tp389
asg60
I1977
sg46
V164
p390
sbag1
(g2
g3
NtRp391
(dp392
g52
Nsg48
VPLANT CELL PHYSIOL
p393
sg50
V18
p394
sg81
(lp395
(VNELSON
VD R
tp396
asg60
I1977
sg46
VLANT
p397
sbag1
(g2
g3
NtRp398
(dp399
g52
Nsg48
VPLANT CELL PHYSIOL
p400
sg50
V18
p401
sg81
(lp402
(VNELSON
VD R
tp403
asg60
I1977
sg46
VLANT
p404
sbag1
(g2
g3
NtRp405
(dp406
g52
V10.1104/pp.55.1.69
p407
sg48
VPLANT PHYSIOL
p408
sg50
V55
p409
sg81
(lp410
(VNELSON
VD R
tp411
asg60
I1975
sg46
VLANT
p412
sbag1
(g2
g3
NtRp413
(dp414
g52
V10.1105/tpc.7.7.957
p415
sg48
VPLANT CELL
p416
sg50
V7
sg81
(lp417
(VOHLROGGE
VJ
tp418
asg60
I1995
sg46
VLANT
p419
sbag1
(g2
g3
NtRp420
(dp421
g52
V10.1007/BF02533401
p422
sg48
VLIPIDS
p423
sg50
V13
p424
sg81
(lp425
(VOHLROGGE
VJ B
tp426
asg60
I1978
sg46
V203
p427
sbag1
(g2
g3
NtRp428
(dp429
g52
V10.1023/A:1005889129491
p430
sg48
VPLANT MOL BIOL
p431
sg50
V35
p432
sg81
(lp433
(VOPDENCAMP
VR G L
tp434
asg60
I1997
sg46
VLANT
p435
sbag1
(g2
g3
NtRp436
(dp437
g52
Nsg48
VBIOCHEM J
p438
sg50
V267
p439
sg81
(lp440
(VPRESTON
VG G
tp441
asg60
I1990
sg46
V179
p442
sbag1
(g2
g3
NtRp443
(dp444
g52
V10.1146/annurev.pp.30.060179.002233
p445
sg48
VANNU REV PLANT PHYS
p446
sg50
V30
p447
sg81
(lp448
(VQUAIL
VP H
tp449
asg60
I1979
sg46
V425
p450
sbag1
(g2
g3
NtRp451
(dp452
g52
V10.1111/j.1749-6632.1989.tb14997.x
p453
sg48
VANN NY ACAD SCI
p454
sg50
V573
p455
sg81
(lp456
(VRANDALL
VD D
tp457
asg60
I1989
sg46
V192
p458
sbag1
(g2
g3
NtRp459
(dp460
g52
V10.1007/s11745-997-0002-7
p461
sg48
VLIPIDS
p462
sg50
V32
p463
sg81
(lp464
(VRATLEDGE
VC
tp465
asg60
I1997
sg46
V7
sbag1
(g2
g3
NtRp466
(dp467
g52
V10.1104/pp.59.5.842
p468
sg48
VPLANT PHYSIOL
p469
sg50
V59
p470
sg81
(lp471
(VREID
VE E
tp472
asg60
I1977
sg46
VLANT
p473
sbag1
(g2
g3
NtRp474
(dp475
g52
Nsg48
VPLANT PHYSIOL
p476
sg50
V101
p477
sg81
(lp478
(VROUGHAN
VG
tp479
asg60
I1993
sg46
VLANT
p480
sbag1
(g2
g3
NtRp481
(dp482
g52
V10.1006/abio.1994.1010
p483
sg48
VANAL BIOCHEM
p484
sg50
V216
p485
sg81
(lp486
(VROUGHAN
VP G
tp487
asg60
I1994
sg46
V77
p488
sbag1
(g2
g3
NtRp489
(dp490
g52
Nsg48
VBIOCHEM J
p491
sg50
V158
p492
sg81
(lp493
(VROUGHAN
VP G
tp494
asg60
I1976
sg46
V593
p495
sbag1
(g2
g3
NtRp496
(dp497
g52
Nsg48
VBIOCHEM J
p498
sg50
V184
p499
sg81
(lp500
(VROUGHAN
VP G
tp501
asg60
I1979
sg46
V193
p502
sbag1
(g2
g3
NtRp503
(dp504
g52
Nsg48
VBIOCHEM J
p505
sg50
V184
p506
sg81
(lp507
(VROUGHAN
VP G
tp508
asg60
I1978
sg46
V565
p509
sbag1
(g2
g3
NtRp510
(dp511
g52
V10.1002/prot.340090304
p512
sg48
VPROTEINS
p513
sg50
V9
sg81
(lp514
(VSCHULER
VG D
tp515
asg60
I1991
sg46
VROTEINS
p516
sbag1
(g2
g3
NtRp517
(dp518
g52
V10.1104/pp.84.4.1233
p519
sg48
VPLANT PHYSIOL
p520
sg50
V84
p521
sg81
(lp522
(VSCHULZESIEBERT
VD
tp523
asg60
I1987
sg46
VLANT
p524
sbag1
(g2
g3
NtRp525
(dp526
g52
Nsg48
VBIOCHEMISTRY
p527
sg50
V25
p528
sg81
(lp529
(VSMIRNOV
VB P
tp530
asg60
I1960
sg46
V419
p531
sbag1
(g2
g3
NtRp532
(dp533
g52
V10.1104/pp.98.4.1233
p534
sg48
VPLANT PHYSIOL
p535
sg50
V98
p536
sg81
(lp537
(VSMITH
VR G
tp538
asg60
I1992
sg46
VLANT
p539
sbag1
(g2
g3
NtRp540
(dp541
g52
V10.1007/BF00403601
p542
sg48
VPLANTA
p543
sg50
V177
p544
sg81
(lp545
(VSPRINGER
VJ
tp546
asg60
I1989
sg46
VLANTA
p547
sbag1
(g2
g3
NtRp548
(dp549
g52
V10.1023/A:1005837112653
p550
sg48
VPLANT MOL BIOL
p551
sg50
V35
p552
sg81
(lp553
(VTADEGE
VM
tp554
asg60
I1997
sg46
VLANT
p555
sbag1
(g2
g3
NtRp556
(dp557
g52
Nsg48
VPR PHYT SOC
p558
sg50
V35
p559
sg81
(lp560
(VTHOMAS
VD R
tp561
asg60
I1993
sg46
VR
sbag1
(g2
g3
NtRp562
(dp563
g52
V10.1093/nar/22.22.4673
p564
sg48
VNUCLEIC ACIDS RES
p565
sg50
V22
p566
sg81
(lp567
(VTHOMPSON
VJ D
tp568
asg60
I1994
sg46
V4673
p569
sbag1
(g2
g3
NtRp570
(dp571
g52
Nsg48
VProtein Sequences and Data Analysis
p572
sg50
V4
sg81
(lp573
(VTOH
VH
tp574
asg60
I1991
sg46
Vrotein
p575
sbag1
(g2
g3
NtRp576
(dp577
g52
V10.1016/0014-5793(91)80069-F
p578
sg48
VFEBS LETT
p579
sg50
V278
p580
sg81
(lp581
(VVONHEIJNE
VG
tp582
asg60
I1991
sg46
V1
sbag1
(g2
g3
NtRp583
(dp584
g52
Nsg48
VEUR J BIOCHEM
p585
sg50
V180
p586
sg81
(lp587
(VVONHEIJNE
VG
tp588
asg60
I1989
sg46
V535
p589
sbag1
(g2
g3
NtRp590
(dp591
g52
V10.1007/BF00040827
p592
sg48
VPLANT MOL BIOL
p593
sg50
V31
p594
sg81
(lp595
(VWANG
VC L
tp596
asg60
I1996
sg46
VLANT
p597
sbag1
(g2
g3
NtRp598
(dp599
g52
V10.1104/pp.107.3.1013
p600
sg48
VPLANT PHYSIOL
p601
sg50
V107
p602
sg81
(lp603
(VWEAVER
VL M
tp604
asg60
I1995
sg46
VLANT
p605
sbag1
(g2
g3
NtRp606
(dp607
g52
Nsg48
VJ BIOL CHEM
p608
sg50
V240
p609
sg81
(lp610
(VWEBSTER
VL T
tp611
asg60
I1965
sg46
V4164
p612
sbag1
(g2
g3
NtRp613
(dp614
g52
V10.1104/pp.64.6.1099
p615
sg48
VPLANT PHYSIOL
p616
sg50
V64
p617
sg81
(lp618
(VWILLIAMS
VM
tp619
asg60
I1979
sg46
VLANT
p620
sbag1
(g2
g3
NtRp621
(dp622
g52
Nsg48
VWORTHINGTON ENZYME M
p623
sg50
Nsg81
(lp624
(VWORTHINGTON
VC C
tp625
asg60
I1988
sg46
V172
p626
sbag1
(g2
g3
NtRp627
(dp628
g52
V10.1104/pp.94.1.20
p629
sg48
VPLANT PHYSIOL
p630
sg50
V94
p631
sg81
(lp632
(VZEIHER
VC A
tp633
asg60
I1990
sg46
VLANT
p634
sbasb.