ccopy_reg
_reconstructor
p1
(ctethne.classes.paper
Paper
p2
c__builtin__
object
p3
NtRp4
(dp5
S'publisherCity'
p6
VROCKVILLE
p7
sS'reprintAddress'
p8
VMartens, S (reprint author), Univ Marburg, Inst Pharmazeut Biol, D-35037 Marburg, Germany.
p9
sS'WC'
p10
VPlant Sciences
p11
sS'GA'
p12
V187LO
p13
sS'abstract'
p14
VFlavanone 3 beta-hydroxylase (FHT) and flavone synthase I (FNS I) are 2-oxoglutarate-dependent dioxygenases with 80% sequence identity, which catalyze distinct reactions in flavonoid biosynthesis. However, FNS I has been reported exclusively from a few Apiaceae species, whereas FHTs are more abundant. Domain-swapping experiments joining the N terminus of parsley (Petroselinum crispum) FHT with the C terminus of parsley FNS I and vice versa revealed that the C-terminal portion is not essential for FNS I activity. Sequence alignments identified 26 amino acid substitutions conserved in FHT versus FNS I genes. Homology modeling, based on the related anthocyanidin synthase structure, assigned seven of these amino acids (FHT/FNS I, M106T, I115T, V116I, I131F, D195E, V200I, L215V, and K216R) to the active site. Accordingly, FHT was modified by site-directed mutagenesis, creating mutants encoding from one to seven substitutions, which were expressed in yeast (Saccharomyces cerevisiae) for FNS I and FHT assays. The exchange I131F in combination with either M106T and D195E or L215V and K216R replacements was sufficient to confer some FNS I side activity. Introduction of all seven FNS I substitutions into the FHT sequence, however, caused a nearly complete change in enzyme activity from FHT to FNS I. Both FHT and FNS I were proposed to initially withdraw the beta-face-configured hydrogen from carbon-3 of the naringenin substrate. Our results suggest that the 7-fold substitution affects the orientation of the substrate in the active-site pocket such that this is followed by syn-elimination of hydrogen from carbon-2 (FNS I reaction) rather than the rebound hydroxylation of carbon-3 (FHT reaction).
p15
sS'pageEnd'
p16
I1454
sS'date'
p17
I2007
sS'documentType'
p18
VArticle
p19
sS'subject'
p20
VPlant Sciences
p21
sS'isoSource'
p22
VPlant Physiol.
p23
sS'timesCited'
p24
(lp25
I11
aVZ9 12
p26
asS'PT'
p27
VJ
sS'title'
p28
VEvolution Of Flavone Synthase I From Parsley Flavanone 3 Beta-Hydroxylase By Site-Directed Mutagenesis
p29
sS'ISSN'
p30
(lp31
V0032-0889
p32
aVJ9 PLANT PHYSIOL
p33
asS'authors_full'
p34
(lp35
(VGEBHARDT
VYVONNE HELEN
tp36
a(VWITTE
VSIMONE
tp37
a(VSTEUBER
VHOLGER
tp38
a(VMATERN
VULRICH
tp39
a(VMARTENS
VSTEFAN
tp40
asS'PG'
p41
I13
sS'PD'
p42
VJUL
p43
sS'pageStart'
p44
I1442
sS'issue'
p45
I3
sS'RI'
p46
VMartens, Stefan/B-7659-2011
p47
sS'journal'
p48
VPLANT PHYSIOLOGY
p49
sS'volume'
p50
V144
p51
sS'doi'
p52
V10.1104/pp.107.098392
p53
sS'emailAddress'
p54
Vstefan.martens@staff.uni-marburg.de
p55
sS'authorAddress'
p56
(lp57
VUniv Marburg, Inst Pharmazeut Biol, D-35037 Marburg, Germany.
p58
aVUniv Marburg, Inst Pharmazeut Chem, D-35037 Marburg, Germany.
p59
asS'publisherAddress'
p60
V15501 MONONA DRIVE, ROCKVILLE, MD 20855 USA
p61
sS'ER'
p62
V
sS'publisher'
p63
VAMER SOC PLANT BIOLOGISTS
p64
sS'authorKeywords'
p65
(lp66
VISOPENICILLIN-N-SYNTHASE
p67
aVDEACETOXYCEPHALOSPORIN-C SYNTHASE
p68
aVGENE DUPLICATION
p69
aVANTHOCYANIDIN SYNTHASE
p70
aVCRYSTAL-STRUCTURE
p71
aVACTIVE-SITE
p72
aV2-OXOGLUTARATE-DEPENDENT DIOXYGENASES
p73
aVKETOGLUTARATE DIOXYGENASE
p74
aVSECONDARY METABOLISM
p75
aVPETUNIA-HYBRIDA
p76
asS'language'
p77
VEnglish
p78
sS'wosid'
p79
VWOS:000247849400020
p80
sS'citationCount'
p81
I65
sS'authors_init'
p82
(lp83
(VGEBHARDT
VY H
tp84
a(VWITTE
VS
tp85
a(VSTEUBER
VH
tp86
a(VMATERN
VU
tp87
a(VMARTENS
VS
tp88
asS'citedReferences'
p89
(lp90
g1
(g2
g3
NtRp91
(dp92
g52
Nsg48
VNUCLEIC ACIDS RES
p93
sg50
V25
p94
sg82
(lp95
(VALTSCHUL
VS F
tp96
asg17
I1997
sg44
V3402
p97
sbag1
(g2
g3
NtRp98
(dp99
g52
V10.1021/bi951534t
p100
sg48
VBIOCHEMISTRY
p101
sg50
V35
p102
sg82
(lp103
(VBOROVOK
VI
tp104
asg17
I1996
sg44
V1981
p105
sbag1
(g2
g3
NtRp106
(dp107
g52
Nsg48
VANAL BIOCHEM
p108
sg50
V72
p109
sg82
(lp110
(VBRADFORD
VM M
tp111
asg17
I1976
sg44
V254
p112
sbag1
(g2
g3
NtRp113
(dp114
g52
V10.1016/0003-9861(90)90099-K
p115
sg48
VARCH BIOCHEM BIOPHYS
p116
sg50
V282
p117
sg82
(lp118
(VBRITSCH
VL
tp119
asg17
I1990
sg44
V152
p120
sbag1
(g2
g3
NtRp121
(dp122
g52
V10.1111/j.1574-6968.2003.tb11525.x
p123
sg48
VFEMS MICROBIOL LETT
p124
sg50
V218
p125
sg82
(lp126
(VCHIN
VH S
tp127
asg17
I2003
sg44
V251
p128
sbag1
(g2
g3
NtRp129
(dp130
g52
V10.1046/j.0014-2956.2001.02617.x
p131
sg48
VEUR J BIOCHEM
p132
sg50
V268
p133
sg82
(lp134
(VCLIFTON
VI J
tp135
asg17
I2001
sg44
V6625
p136
sbag1
(g2
g3
NtRp137
(dp138
g52
V10.1016/j.jinorgbio.2006.01.024
p139
sg48
VJ INORG BIOCHEM
p140
sg50
V100
p141
sg82
(lp142
(VCLIFTON
VI J
tp143
asg17
I2006
sg44
V644
p144
sbag1
(g2
g3
NtRp145
(dp146
g52
V10.1074/jbc.M213054200
p147
sg48
VJ BIOL CHEM
p148
sg50
V278
p149
sg82
(lp150
(VCLIFTON
VI J
tp151
asg17
I2003
sg44
V20843
p152
sbag1
(g2
g3
NtRp153
(dp154
g52
Nsg48
VPYMOL MOL GRAPHICS S
p155
sg50
Nsg82
(lp156
(VDELANO
VW L
tp157
asg17
I2002
sg44
VYMOL
p158
sbag1
(g2
g3
NtRp159
(dp160
g52
Nsg48
VCAN J MICROBIOL
p161
sg50
V42
p162
sg82
(lp163
(VDURAIRAJ
VM
tp164
asg17
I1996
sg44
V870
p165
sbag1
(g2
g3
NtRp166
(dp167
g52
V10.1074/jbc.C200644200
p168
sg48
VJ BIOL CHEM
p169
sg50
V278
p170
sg82
(lp171
(VELKINS
VJ M
tp172
asg17
I2003
sg44
V1802
p173
sbag1
(g2
g3
NtRp174
(dp175
g52
V10.1021/bi016014e
p176
sg48
VBIOCHEMISTRY
p177
sg50
V41
p178
sg82
(lp179
(VELKINS
VJ M
tp180
asg17
I2002
sg44
V5185
p181
sbag1
(g2
g3
NtRp182
(dp183
g52
Nsg48
VCURRENT PROTOCOLS MO
p184
sg50
Nsg82
(lp185
(VENGEBRECHT
VJ
tp186
asg17
I2001
sg44
Nsbag1
(g2
g3
NtRp187
(dp188
g52
V10.1016/j.phytochem.2003.08.021
p189
sg48
VPHYTOCHEMISTRY
p190
sg50
V64
p191
sg82
(lp192
(VFELD
VH
tp193
asg17
I2003
sg44
VHYTOCHEMISTRY
p194
sbag1
(g2
g3
NtRp195
(dp196
g52
Nsg48
VBIOL CHEM UMBELLIFER
p197
sg50
Nsg82
(lp198
(VFLAVONOID
S''
tp199
asg17
I1971
sg44
V293
p200
sbag1
(g2
g3
NtRp201
(dp202
g52
V10.1016/j.phytochem.2005.03.030
p203
sg48
VPHYTOCHEMISTRY
p204
sg50
V66
p205
sg82
(lp206
(VGEBHARDT
VY
tp207
asg17
I2005
sg44
VHYTOCHEMISTRY
p208
sbag1
(g2
g3
NtRp209
(dp210
g52
V10.1016/S0031-9422(00)00235-1
p211
sg48
VPHYTOCHEMISTRY
p212
sg50
V55
p213
sg82
(lp214
(VHARBORNE
VJ B
tp215
asg17
I2000
sg44
VHYTOCHEMISTRY
p216
sbag1
(g2
g3
NtRp217
(dp218
g52
Nsg48
VHDB NATURAL FLAVONOI
p219
sg50
V2
sg82
(lp220
(VHARBORNE
VJ B
tp221
asg17
I1999
sg44
Nsbag1
(g2
g3
NtRp222
(dp223
g52
V10.1016/0031-9422(72)85030-1
p224
sg48
VPHYTOCHEMISTRY
p225
sg50
V11
p226
sg82
(lp227
(VHARBORNE
VJ B
tp228
asg17
I1972
sg44
VHYTOCHEMISTRY
p229
sbag1
(g2
g3
NtRp230
(dp231
g52
V10.1073/pnas.93.17.9033
p232
sg48
VP NATL ACAD SCI USA
p233
sg50
V93
p234
sg82
(lp235
(VHELARIUTTA
VY
tp236
asg17
I1996
sg44
V9033
p237
sbag1
(g2
g3
NtRp238
(dp239
g52
V10.1074/jbc.275.17.12400
p240
sg48
VJ BIOL CHEM
p241
sg50
V275
p242
sg82
(lp243
(VHOGAN
VD A
tp244
asg17
I2000
sg44
V12400
p245
sbag1
(g2
g3
NtRp246
(dp247
g52
V10.1016/S0378-1119(01)00357-2
p248
sg48
VGENE
p249
sg50
V265
p250
sg82
(lp251
(VHOSHINO
VA
tp252
asg17
I2001
sg44
V1
sbag1
(g2
g3
NtRp253
(dp254
g52
V10.1098/rspb.1994.0058
p255
sg48
VP ROY SOC B
p256
sg50
V256
p257
sg82
(lp258
(VHUGHES
VA L
tp259
asg17
I1994
sg44
V119
p260
sbag1
(g2
g3
NtRp261
(dp262
g52
V10.1107/S0108767390010224
p263
sg48
VACTA CRYSTALLOGR A
p264
sg50
V47
p265
sg82
(lp266
(VJONES
VT A
tp267
asg17
I1991
sg44
V110
p268
sbag1
(g2
g3
NtRp269
(dp270
g52
V10.1105/tpc.13.3.681
p271
sg48
VPLANT CELL
p272
sg50
V13
p273
sg82
(lp274
(VKLIEBENSTEIN
VD J
tp275
asg17
I2001
sg44
VLANT
p276
sbag1
(g2
g3
NtRp277
(dp278
g52
V10.1034/j.1399-3054.1997.1000316.x
p279
sg48
VPHYSIOL PLANTARUM
p280
sg50
V100
p281
sg82
(lp282
(VLANGE
VT
tp283
asg17
I1997
sg44
VHYSIOL
p284
sbag1
(g2
g3
NtRp285
(dp286
g52
V10.1006/jmbi.1999.2594
p287
sg48
VJ MOL BIOL
p288
sg50
V287
p289
sg82
(lp290
(VLLOYD
VM D
tp291
asg17
I1999
sg44
V943
p292
sbag1
(g2
g3
NtRp293
(dp294
g52
V10.1073/pnas.97.4.1903
p295
sg48
VP NATL ACAD SCI USA
p296
sg50
V97
p297
sg82
(lp298
(VLOGEMANN
VE
tp299
asg17
I2000
sg44
V1903
p300
sbag1
(g2
g3
NtRp301
(dp302
g52
V10.1111/j.1432-1033.1997.t01-2-00748.x
p303
sg48
VEUR J BIOCHEM
p304
sg50
V249
p305
sg82
(lp306
(VLUKACIN
VR
tp307
asg17
I1997
sg44
V748
p308
sbag1
(g2
g3
NtRp309
(dp310
g52
V10.1016/S0031-9422(02)00567-8
p311
sg48
VPHYTOCHEMISTRY
p312
sg50
V62
p313
sg82
(lp314
(VLUKACIN
VR
tp315
asg17
I2003
sg44
VHYTOCHEMISTRY
p316
sbag1
(g2
g3
NtRp317
(dp318
g52
V10.1016/S0014-5793(00)01116-9
p319
sg48
VFEBS LETT
p320
sg50
V467
p321
sg82
(lp322
(VLUKACIN
VR
tp323
asg17
I2000
sg44
V353
p324
sbag1
(g2
g3
NtRp325
(dp326
g52
Nsg48
VGENETICS
p327
sg50
V154
p328
sg82
(lp329
(VLYNCH
VM
tp330
asg17
I2000
sg44
V459
p331
sbag1
(g2
g3
NtRp332
(dp333
g52
V10.1016/S0014-5793(03)00479-4
p334
sg48
VFEBS LETT
p335
sg50
V544
p336
sg82
(lp337
(VMARTENS
VS
tp338
asg17
I2003
sg44
V93
p339
sbag1
(g2
g3
NtRp340
(dp341
g52
V10.1016/S0031-9422(01)00191-1
p342
sg48
VPHYTOCHEMISTRY
p343
sg50
V58
p344
sg82
(lp345
(VMARTENS
VS
tp346
asg17
I2001
sg44
VHYTOCHEMISTRY
p347
sbag1
(g2
g3
NtRp348
(dp349
g52
V10.1016/j.phytochem.205.07.013
p350
sg48
VPHYTOCHEMISTRY
p351
sg50
V66
p352
sg82
(lp353
(VMARTENS
VS
tp354
asg17
I2005
sg44
VHYTOCHEMISTRY
p355
sbag1
(g2
g3
NtRp356
(dp357
g52
V10.1074/jbc.M507528200
p358
sg48
VJ BIOL CHEM
p359
sg50
V280
p360
sg82
(lp361
(VMCDONOUGH
VM A
tp362
asg17
I2005
sg44
V41101
p363
sbag1
(g2
g3
NtRp364
(dp365
g52
V10.1093/emboj/16.6.1173
p366
sg48
VEMBO J
p367
sg50
V16
p368
sg82
(lp369
(VMYLLYHARJU
VJ
tp370
asg17
I1997
sg44
V1173
p371
sbag1
(g2
g3
NtRp372
(dp373
g52
V10.1016/j.tplants.2005.07.007
p374
sg48
VTRENDS PLANT SCI
p375
sg50
V10
p376
sg82
(lp377
(VOBER
VD
tp378
asg17
I2005
sg44
V444
p379
sbag1
(g2
g3
NtRp380
(dp381
g52
V10.1073/pnas.96.26.14777
p382
sg48
VP NATL ACAD SCI USA
p383
sg50
V96
p384
sg82
(lp385
(VOBER
VD
tp386
asg17
I1999
sg44
V14777
p387
sbag1
(g2
g3
NtRp388
(dp389
g52
V10.1016/j.jep.2004.08.015
p390
sg48
VJ ETHNOPHARMACOL
p391
sg50
V95
p392
sg82
(lp393
(VOH
VH
tp394
asg17
I2004
sg44
V421
p395
sbag1
(g2
g3
NtRp396
(dp397
g52
V10.1039/a902197c
p398
sg48
VNAT PROD REP
p399
sg50
V17
p400
sg82
(lp401
(VPRESCOTT
VA G
tp402
asg17
I2000
sg44
V367
p403
sbag1
(g2
g3
NtRp404
(dp405
g52
Nsg48
VRECENT ADV PHYTOCHEM
p406
sg50
V34
p407
sg82
(lp408
(VPRESCOTT
VA G
tp409
asg17
I2000
sg44
V249
p410
sbag1
(g2
g3
NtRp411
(dp412
g52
V10.1146/annurev.arplant.47.1.245
p413
sg48
VANNU REV PLANT PHYS
p414
sg50
V47
p415
sg82
(lp416
(VPRESCOTT
VA G
tp417
asg17
I1996
sg44
V245
p418
sbag1
(g2
g3
NtRp419
(dp420
g52
Nsg48
VNATURE
p421
sg50
V387
p422
sg82
(lp423
(VROACH
VP L
tp424
asg17
I1997
sg44
V827
p425
sbag1
(g2
g3
NtRp426
(dp427
g52
V10.1038/375700a0
p428
sg48
VNATURE
p429
sg50
V375
p430
sg82
(lp431
(VROACH
VP L
tp432
asg17
I1995
sg44
V700
p433
sbag1
(g2
g3
NtRp434
(dp435
g52
Nsg48
VMOL CLONING LAB MANU
p436
sg50
Nsg82
(lp437
(VSAMBROOK
VJ
tp438
asg17
I2001
sg44
Nsbag1
(g2
g3
NtRp439
(dp440
g52
V10.1016/S0014-5793(97)00176-2
p441
sg48
VFEBS LETT
p442
sg50
V405
p443
sg82
(lp444
(VSAMI
VM
tp445
asg17
I1997
sg44
V191
p446
sbag1
(g2
g3
NtRp447
(dp448
g52
V10.1016/S0959-440X(97)80027-9
p449
sg48
VCURR OPIN STRUC BIOL
p450
sg50
V7
sg82
(lp451
(VSANCHEZ
VR
tp452
asg17
I1997
sg44
V206
p453
sbag1
(g2
g3
NtRp454
(dp455
g52
V10.1093/nar/gkg520
p456
sg48
VNUCLEIC ACIDS RES
p457
sg50
V31
p458
sg82
(lp459
(VSCHWEDE
VT
tp460
asg17
I2003
sg44
V3381
p461
sbag1
(g2
g3
NtRp462
(dp463
g52
V10.1104/pp.004820
p464
sg48
VPLANT PHYSIOL
p465
sg50
V131
p466
sg82
(lp467
(VSHIMADA
VN
tp468
asg17
I2003
sg44
VLANT
p469
sbag1
(g2
g3
NtRp470
(dp471
g52
V10.1093/jxb/eri251
p472
sg48
VJ EXP BOT
p473
sg50
V56
p474
sg82
(lp475
(VSHIMADA
VN
tp476
asg17
I2005
sg44
V2573
p477
sbag1
(g2
g3
NtRp478
(dp479
g52
V10.1093/jxb/erg199
p480
sg48
VJ EXP BOT
p481
sg50
V54
p482
sg82
(lp483
(VSOLOVCHENKO
VA
tp484
asg17
I2003
sg44
V1977
p485
sbag1
(g2
g3
NtRp486
(dp487
g52
V10.1104/pp.96.3.680
p488
sg48
VPLANT PHYSIOL
p489
sg50
V96
p490
sg82
(lp491
(VSTAFFORD
VH A
tp492
asg17
I1991
sg44
VLANT
p493
sbag1
(g2
g3
NtRp494
(dp495
g52
V10.1074/jbc.273.4.2078
p496
sg48
VJ BIOL CHEM
p497
sg50
V273
p498
sg82
(lp499
(VSTEELE
VC L
tp500
asg17
I1998
sg44
V2078
p501
sbag1
(g2
g3
NtRp502
(dp503
g52
V10.1093/nar/22.22.4673
p504
sg48
VNUCLEIC ACIDS RES
p505
sg50
V22
p506
sg82
(lp507
(VTHOMPSON
VJ D
tp508
asg17
I1994
sg44
V4673
p509
sbag1
(g2
g3
NtRp510
(dp511
g52
V10.1104/pp.105.063842
p512
sg48
VPLANT PHYSIOL
p513
sg50
V139
p514
sg82
(lp515
(VTHORSOE
VK S
tp516
asg17
I2005
sg44
VLANT
p517
sbag1
(g2
g3
NtRp518
(dp519
g52
V10.1074/jbc.M309228200
p520
sg48
VJ BIOL CHEM
p521
sg50
V279
p522
sg82
(lp523
(VTURNBULL
VJ J
tp524
asg17
I2004
sg44
V1206
p525
sbag1
(g2
g3
NtRp526
(dp527
g52
Nsg48
VNATURE
p528
sg50
V394
p529
sg82
(lp530
(VVALEGARD
VK
tp531
asg17
I1998
sg44
V805
p532
sbag1
(g2
g3
NtRp533
(dp534
g52
V10.1039/b507153d
p535
sg48
VORG BIOMOL CHEM
p536
sg50
V3
sg82
(lp537
(VWELFORD
VR W D
tp538
asg17
I2005
sg44
V3117
p539
sbag1
(g2
g3
NtRp540
(dp541
g52
V10.1039/b105576n
p542
sg48
VCHEM COMMUN
p543
sg50
Nsg82
(lp544
(VWELFORD
VR W D
tp545
asg17
I2001
sg44
V1828
p546
sbag1
(g2
g3
NtRp547
(dp548
g52
V10.1016/S0014-5793(04)00159-0
p549
sg48
VFEBS LETT
p550
sg50
V561
p551
sg82
(lp552
(VWELLMANN
VF
tp553
asg17
I2004
sg44
V149
p554
sbag1
(g2
g3
NtRp555
(dp556
g52
V10.1046/j.1432-1033.2002.03108.x
p557
sg48
VEUR J BIOCHEM
p558
sg50
V269
p559
sg82
(lp560
(VWELLMANN
VF
tp561
asg17
I2002
sg44
V4134
p562
sbag1
(g2
g3
NtRp563
(dp564
g52
V10.1016/S0969-2126(01)00695-5
p565
sg48
VSTRUCTURE
p566
sg50
V10
p567
sg82
(lp568
(VWILMOUTH
VR C
tp569
asg17
I2002
sg44
V93
p570
sbag1
(g2
g3
NtRp571
(dp572
g52
V10.1104/pp.126.2.485
p573
sg48
VPLANT PHYSIOL
p574
sg50
V126
p575
sg82
(lp576
(VWINKEL-SHIRLEY
VB
tp577
asg17
I2001
sg44
VLANT
p578
sbag1
(g2
g3
NtRp579
(dp580
g52
Nsg48
VNAT STRUCT BIOL
p581
sg50
V7
sg82
(lp582
(VZHANG
VZ H
tp583
asg17
I2000
sg44
V127
p584
sbasb.