ccopy_reg
_reconstructor
p1
(ctethne.classes.paper
Paper
p2
c__builtin__
object
p3
NtRp4
(dp5
S'publisherCity'
p6
VROCKVILLE
p7
sS'reprintAddress'
p8
VRodermel, SR (reprint author), Iowa State Univ Sci & Technol, Dept Bot, Ames, IA 50011 USA.
p9
sS'WC'
p10
VPlant Sciences
p11
sS'GA'
p12
V474TV
p13
sS'abstract'
p14
VThe immutans (im) variegation mutant of Arabidopsis has green and white leaf sectors due to the action of a nuclear recessive gene, IMMUTANS (IM). This gene encodes the IM protein, which is a chloroplast homolog of the mitochondrial alternative oxidase. Because the white sectors of im accumulate the noncolored carotenoid, phytoene, IM likely serves as a redox component in phytoene desaturation. In this paper, we show that IM has a global impact on plant growth and development and is required for the differentiation of multiple plastid types, including chloroplasts, amyloplasts, and etioplasts. IM promoter activity and IM mRNAs are also expressed ubiquitously in Arabidopsis. IM transcript levels correlate with carotenoid accumulation in some, but not all, tissues. This suggests that IM function is not limited to carotenogenesis. Leaf anatomy is radically altered in the green and white sectors of im: Mesophyll cell sizes are dramatically enlarged in the green sectors and palisade cells fail to expand in the white sectors. The green im sectors also have significantly higher than normal rates of O-2 evolution and elevated chlorophyll alb ratios, typical of those found in "sun" leaves. We conclude that the chan-es in structure and photosynthetic function of the green leaf sectors are part of an adaptive mechanism that attempts to compensate for a lack of photosynthesis in the white leaf sectors, while maximizing the ability of the plant to avoid photodamage.
p15
sS'pageEnd'
p16
I77
sS'publisherAddress'
p17
V15501 MONONA DRIVE, ROCKVILLE, MD 20855 USA
p18
sS'documentType'
p19
VArticle
p20
sS'subject'
p21
VPlant Sciences
p22
sS'isoSource'
p23
VPlant Physiol.
p24
sS'timesCited'
p25
(lp26
I48
aVZ9 56
p27
asS'PT'
p28
VJ
sS'title'
p29
VThe Arabidopsis Immutans Mutation Affects Plastid Differentiation And The Morphogenesis Of White And Green Sectors In Variegated Plants
p30
sS'ISSN'
p31
(lp32
V0032-0889
p33
aVJ9 PLANT PHYSIOL
p34
asS'authors_full'
p35
(lp36
(VALURU
VMR
tp37
a(VBAE
VH
tp38
a(VWU
VDY
tp39
a(VRODERMEL
VSR
tp40
asS'PG'
p41
I11
sS'PD'
p42
VSEP
p43
sS'pageStart'
p44
I67
sS'issue'
p45
I1
sS'journal'
p46
VPLANT PHYSIOLOGY
p47
sS'volume'
p48
V127
p49
sS'doi'
p50
V10.1104/pp.127.1.67
p51
sS'authorAddress'
p52
(lp53
VIowa State Univ Sci & Technol, Dept Bot, Ames, IA 50011 USA.
p54
aVIowa State Univ Sci & Technol, Interdepartmental Genet Program, Ames, IA 50011 USA.
p55
asS'date'
p56
I2001
sS'ER'
p57
V
sS'publisher'
p58
VAMER SOC PLANT BIOLOGISTS
p59
sS'authorKeywords'
p60
(lp61
VNUCLEAR GENE-EXPRESSION
p62
aVNARCISSUS-PSEUDONARCISSUS
p63
aVCHLOROPLAST DEVELOPMENT
p64
aVCAROTENE DESATURATION
p65
aVPHYTOENE DESATURATION
p66
aVALTERNATIVE OXIDASE
p67
aVMOLECULAR-OXYGEN
p68
aVLEAF SENESCENCE
p69
aVPALE CRESS
p70
aVTHALIANA
p71
asS'language'
p72
VEnglish
p73
sS'wosid'
p74
VWOS:000171123700012
p75
sS'citationCount'
p76
I59
sS'authors_init'
p77
(lp78
(VALURU
VM R
tp79
a(VBAE
VH
tp80
a(VWU
VD Y
tp81
a(VRODERMEL
VS R
tp82
asS'citedReferences'
p83
(lp84
g1
(g2
g3
NtRp85
(dp86
g50
Nsg46
VPhotosynthesis
p87
sg48
Nsg77
(lp88
(VALLEN
VJ F
tp89
asg56
I1986
sg44
Vhotosynthesis
p90
sbag1
(g2
g3
NtRp91
(dp92
g50
V10.1073/pnas.88.15.6532
p93
sg46
VP NATL ACAD SCI USA
p94
sg48
V88
p95
sg77
(lp96
(VBARTLEY
VG E
tp97
asg56
I1991
sg44
V6532
p98
sbag1
(g2
g3
NtRp99
(dp100
g50
V10.1111/j.1432-1033.1989.tb15000.x
p101
sg46
VEUR J BIOCHEM
p102
sg48
V184
p103
sg77
(lp104
(VBEYER
VP
tp105
asg56
I1989
sg44
V141
p106
sbag1
(g2
g3
NtRp107
(dp108
g50
Nsg46
VARABIDOPSIS ATLAS MO
p109
sg48
Nsg77
(lp110
(VBOWMAN
VJ
tp111
asg56
I1994
sg44
Nsbag1
(g2
g3
NtRp112
(dp113
g50
V10.1105/tpc.11.1.57
p114
sg46
VPLANT CELL
p115
sg48
V11
p116
sg77
(lp117
(VCAROL
VP
tp118
asg56
I1999
sg44
VLANT
p119
sbag1
(g2
g3
NtRp120
(dp121
g50
Nsg46
VEMBO J
p122
sg48
V15
p123
sg77
(lp124
(VCHATTERJEE
VM
tp125
asg56
I1996
sg44
V4194
p126
sbag1
(g2
g3
NtRp127
(dp128
g50
V10.1046/j.1365-313x.2000.00738.x
p129
sg46
VPLANT J
p130
sg48
V22
p131
sg77
(lp132
(VCHEN
VM
tp133
asg56
I2000
sg44
VLANT
p134
sbag1
(g2
g3
NtRp135
(dp136
g50
V10.1093/jhered/90.1.207
p137
sg46
VJ HERED
p138
sg48
V90
p139
sg77
(lp140
(VCHEN
VM
tp141
asg56
I1999
sg44
V207
p142
sbag1
(g2
g3
NtRp143
(dp144
g50
V10.1046/j.1365-313x.1998.00343.x
p145
sg46
VPLANT J
p146
sg48
V16
p147
sg77
(lp148
(VCLOUGH
VS J
tp149
asg56
I1998
sg44
VLANT
p150
sbag1
(g2
g3
NtRp151
(dp152
g50
V10.1074/jbc.M908732199
p153
sg46
VJ BIOL CHEM
p154
sg48
V275
p155
sg77
(lp156
(VCOURNAC
VL
tp157
asg56
I2000
sg44
V17256
p158
sbag1
(g2
g3
NtRp159
(dp160
g50
V10.1104/pp.124.1.95
p161
sg46
VPLANT PHYSIOL
p162
sg48
V124
p163
sg77
(lp164
(VESTEVEZ
VJ M
tp165
asg56
I2000
sg44
VLANT
p166
sbag1
(g2
g3
NtRp167
(dp168
g50
Nsg46
VPLANT PHYSIOL
p169
sg48
V113
p170
sg77
(lp171
(VGAN
VS S
tp172
asg56
I1997
sg44
VLANT
p173
sbag1
(g2
g3
NtRp174
(dp175
g50
V10.1007/BF02173642
p176
sg46
VMOL GEN GENET
p177
sg48
V251
p178
sg77
(lp179
(VGREVELDING
VC
tp180
asg56
I1996
sg44
V532
p181
sbag1
(g2
g3
NtRp182
(dp183
g50
V10.1007/BF00014672
p184
sg46
VPLANT MOL BIOL
p185
sg48
V25
p186
sg77
(lp187
(VHAJDUKIEWICZ
VP
tp188
asg56
I1994
sg44
VLANT
p189
sbag1
(g2
g3
NtRp190
(dp191
g50
V10.2307/2442137
p192
sg46
VAM J BOT
p193
sg48
V67
p194
sg77
(lp195
(VHORNER
VH T
tp196
asg56
I1980
sg44
V1347
p197
sbag1
(g2
g3
NtRp198
(dp199
g50
V10.1104/pp.103.4.1047
p200
sg46
VPLANT PHYSIOL
p201
sg48
V103
p202
sg77
(lp203
(VHORVATH
VD P
tp204
asg56
I1993
sg44
VLANT
p205
sbag1
(g2
g3
NtRp206
(dp207
g50
V10.1016/S1360-1385(98)01248-5
p208
sg46
VTRENDS PLANT SCI
p209
sg48
V3
sg77
(lp210
(VHUNER
VN P A
tp211
asg56
I1998
sg44
V224
p212
sbag1
(g2
g3
NtRp213
(dp214
g50
Nsg46
VEMBO J
p215
sg48
V6
sg77
(lp216
(VJEFFERSON
VR A
tp217
asg56
I1987
sg44
V3901
p218
sbag1
(g2
g3
NtRp219
(dp220
g50
V10.1104/pp.123.4.1427
p221
sg46
VPLANT PHYSIOL
p222
sg48
V123
p223
sg77
(lp224
(VJOSSE
VE M
tp225
asg56
I2000
sg44
VLANT
p226
sbag1
(g2
g3
NtRp227
(dp228
g50
Nsg46
VEMBO J
p229
sg48
V15
p230
sg77
(lp231
(VKEDDIE
VJ S
tp232
asg56
I1996
sg44
V4208
p233
sbag1
(g2
g3
NtRp234
(dp235
g50
Nsg46
VDEVELOPMENT
p236
sg48
V125
p237
sg77
(lp238
(VKINSMAN
VE A
tp239
asg56
I1998
sg44
V1815
p240
sbag1
(g2
g3
NtRp241
(dp242
g50
V10.1146/annurev.arplant.49.1.453
p243
sg46
VANNU REV PLANT PHYS
p244
sg48
V49
p245
sg77
(lp246
(VLEON
VP
tp247
asg56
I1998
sg44
V453
p248
sbag1
(g2
g3
NtRp249
(dp250
g50
Nsg46
VPLANT CELL
p251
sg48
V7
sg77
(lp252
(VLI
VH M
tp253
asg56
I1995
sg44
VLANT
p254
sbag1
(g2
g3
NtRp255
(dp256
g50
Nsg46
VMETHOD ENZYMOL
p257
sg48
Nsg77
(lp258
(VLICHTHENTHALER
VH K
tp259
asg56
I1987
sg44
V350
p260
sbag1
(g2
g3
NtRp261
(dp262
g50
V10.1104/pp.118.3.803
p263
sg46
VPLANT PHYSIOL
p264
sg48
V118
p265
sg77
(lp266
(VLOPEZ-JUEZ
VE
tp267
asg56
I1998
sg44
VLANT
p268
sbag1
(g2
g3
NtRp269
(dp270
g50
V10.1046/j.1365-313X.1996.9050649.x
p271
sg46
VPLANT J
p272
sg48
V9
sg77
(lp273
(VMANDEL
VM A
tp274
asg56
I1996
sg44
VLANT
p275
sbag1
(g2
g3
NtRp276
(dp277
g50
Nsg46
VPLANT CELL
p278
sg48
V4
sg77
(lp279
(VMARTINEZZAPATER
VJ M
tp280
asg56
I1992
sg44
VLANT
p281
sbag1
(g2
g3
NtRp282
(dp283
g50
Nsg46
VCROP PHOTOSYNTHESIS
p284
sg48
Nsg77
(lp285
(VMATILE
VP
tp286
asg56
I1992
sg44
V413
p287
sbag1
(g2
g3
NtRp288
(dp289
g50
Nsg46
VPLANT PHYSIOL BIOCH
p290
sg48
V30
p291
sg77
(lp292
(VMAYER
VM P
tp293
asg56
I1992
sg44
VLANT
p294
sbag1
(g2
g3
NtRp295
(dp296
g50
V10.1111/j.1432-1033.1990.tb19130.x
p297
sg46
VEUR J BIOCHEM
p298
sg48
V191
p299
sg77
(lp300
(VMAYER
VM P
tp301
asg56
I1990
sg44
V359
p302
sbag1
(g2
g3
NtRp303
(dp304
g50
Nsg46
VPLANT PHYSIOL
p305
sg48
V112
p306
sg77
(lp307
(VMEEHAN
VL
tp308
asg56
I1996
sg44
VLANT
p309
sbag1
(g2
g3
NtRp310
(dp311
g50
Nsg46
VMOL GEN GENET
p312
sg48
V258
p313
sg77
(lp314
(VMEURER
VJ
tp315
asg56
I1998
sg44
V342
p316
sbag1
(g2
g3
NtRp317
(dp318
g50
V10.1023/A:1006367719639
p319
sg46
VPHOTOSYNTH RES
p320
sg48
V63
p321
sg77
(lp322
(VMILLER
VA
tp323
asg56
I2000
sg44
VHOTOSYNTH
p324
sbag1
(g2
g3
NtRp325
(dp326
g50
Nsg46
VPLANT PHYSIOL
p327
sg48
V115
p328
sg77
(lp329
(VMILLER
VA
tp330
asg56
I1997
sg44
VLANT
p331
sbag1
(g2
g3
NtRp332
(dp333
g50
V10.1111/j.1432-1033.1995.864_3.x
p334
sg46
VEUR J BIOCHEM
p335
sg48
V233
p336
sg77
(lp337
(VNIEVELSTEIN
VV
tp338
asg56
I1995
sg44
V864
p339
sbag1
(g2
g3
NtRp340
(dp341
g50
Nsg46
VPLANT CELL
p342
sg48
V7
sg77
(lp343
(VNORRIS
VS R
tp344
asg56
I1995
sg44
VLANT
p345
sbag1
(g2
g3
NtRp346
(dp347
g50
Nsg46
VGENETICS
p348
sg48
V56
p349
sg77
(lp350
(VREDEI
VG P
tp351
asg56
I1967
sg44
V431
p352
sbag1
(g2
g3
NtRp353
(dp354
g50
V10.1126/science.139.3556.767
p355
sg46
VSCIENCE
p356
sg48
V139
p357
sg77
(lp358
(VREDEI
VG P
tp359
asg56
I1963
sg44
V767
p360
sbag1
(g2
g3
NtRp361
(dp362
g50
V10.1146/annurev.ge.09.120175.000551
p363
sg46
VANNU REV GENET
p364
sg48
V9
sg77
(lp365
(VREDEI
VG P
tp366
asg56
I1975
sg44
V111
p367
sbag1
(g2
g3
NtRp368
(dp369
g50
V10.1016/0027-5107(73)90031-6
p370
sg46
VMUTAT RES
p371
sg48
V18
p372
sg77
(lp373
(VREDEI
VG P
tp374
asg56
I1973
sg44
V149
p375
sbag1
(g2
g3
NtRp376
(dp377
g50
Nsg46
VPLANT CELL
p378
sg48
V6
sg77
(lp379
(VREITER
VR S
tp380
asg56
I1994
sg44
VLANT
p381
sbag1
(g2
g3
NtRp382
(dp383
g50
V10.1007/BF00392394
p384
sg46
VPLANTA
p385
sg48
V80
p386
sg77
(lp387
(VROBBELEN
VG
tp388
asg56
I1968
sg44
VLANTA
p389
sbag1
(g2
g3
NtRp390
(dp391
g50
Nsg46
VIN PRESS TRENDS PLAN
p392
sg48
Nsg77
(lp393
(VRODERMEL
VS R
tp394
asg56
I2001
sg44
Nsbag1
(g2
g3
NtRp395
(dp396
g50
V10.1105/tpc.8.8.1377
p397
sg46
VPLANT CELL
p398
sg48
V8
sg77
(lp399
(VSAKAMOTO
VW
tp400
asg56
I1996
sg44
VLANT
p401
sbag1
(g2
g3
NtRp402
(dp403
g50
V10.1016/0014-5793(93)80013-K
p404
sg46
VFEBS LETT
p405
sg48
V318
p406
sg77
(lp407
(VSCHULZ
VA
tp408
asg56
I1993
sg44
V162
p409
sbag1
(g2
g3
NtRp410
(dp411
g50
V10.1105/tpc.7.7.821
p412
sg46
VPLANT CELL
p413
sg48
V7
sg77
(lp414
(VSIEDOW
VJ N
tp415
asg56
I1995
sg44
VLANT
p416
sbag1
(g2
g3
NtRp417
(dp418
g50
V10.1111/j.1365-3040.1991.tb01440.x
p419
sg46
VPLANT CELL ENVIRON
p420
sg48
V14
p421
sg77
(lp422
(VSTITT
VM
tp423
asg56
I1991
sg44
VLANT
p424
sbag1
(g2
g3
NtRp425
(dp426
g50
V10.1105/tpc.11.9.1609
p427
sg46
VPLANT CELL
p428
sg48
V11
p429
sg77
(lp430
(VSTREATFIELD
VS J
tp431
asg56
I1999
sg44
VLANT
p432
sbag1
(g2
g3
NtRp433
(dp434
g50
Nsg46
VAUST J PLANT PHYSIOL
p435
sg48
V19
p436
sg77
(lp437
(VSUSEK
VR E
tp438
asg56
I1992
sg44
V387
p439
sbag1
(g2
g3
NtRp440
(dp441
g50
V10.1146/annurev.pp.40.060189.001235
p442
sg46
VANNU REV PLANT PHYS
p443
sg48
V40
p444
sg77
(lp445
(VTAYLOR
VW C
tp446
asg56
I1989
sg44
V211
p447
sbag1
(g2
g3
NtRp448
(dp449
g50
Nsg46
VGENETICS BIOGENESIS
p450
sg48
Nsg77
(lp451
(VTILNEYBASSETT
VR A E
tp452
asg56
I1975
sg44
V268
p453
sbag1
(g2
g3
NtRp454
(dp455
g50
Nsg46
VEUR J CELL BIOL
p456
sg48
V78
p457
sg77
(lp458
(VTIRLAPUR
VU K
tp459
asg56
I1999
sg44
V233
p460
sbag1
(g2
g3
NtRp461
(dp462
g50
Nsg46
VPLANT PHYSIOL
p463
sg48
V120
p464
sg77
(lp465
(VVAN
VK
tp466
asg56
I1999
sg44
VLANT
p467
sbag1
(g2
g3
NtRp468
(dp469
g50
V10.1146/annurev.arplant.48.1.703
p470
sg46
VANNU REV PLANT PHYS
p471
sg48
V48
p472
sg77
(lp473
(VVANLERBERGHE
VG C
tp474
asg56
I1997
sg44
V703
p475
sbag1
(g2
g3
NtRp476
(dp477
g50
Nsg46
VPLANT CELL
p478
sg48
V7
sg77
(lp479
(VVANWETTSTEIN
VD
tp480
asg56
I1995
sg44
VLANT
p481
sbag1
(g2
g3
NtRp482
(dp483
g50
Nsg46
VGENETICS
p484
sg48
V126
p485
sg77
(lp486
(VVOYTAS
VD F
tp487
asg56
I1990
sg44
V713
p488
sbag1
(g2
g3
NtRp489
(dp490
g50
V10.1023/A:1006021522259
p491
sg46
VPLANT MOL BIOL
p492
sg48
V37
p493
sg77
(lp494
(VWETZEL
VC M
tp495
asg56
I1998
sg44
VLANT
p496
sbag1
(g2
g3
NtRp497
(dp498
g50
V10.1046/j.1365-313X.1994.6020161.x
p499
sg46
VPLANT J
p500
sg48
V6
sg77
(lp501
(VWETZEL
VC M
tp502
asg56
I1994
sg44
VLANT
p503
sbag1
(g2
g3
NtRp504
(dp505
g50
V10.1105/tpc.11.1.43
p506
sg46
VPLANT CELL
p507
sg48
V11
p508
sg77
(lp509
(VWU
VD Y
tp510
asg56
I1999
sg44
VLANT
p511
sbasb.