ccopy_reg
_reconstructor
p1
(ctethne.classes.paper
Paper
p2
c__builtin__
object
p3
NtRp4
(dp5
S'publisherCity'
p6
VROCKVILLE
p7
sS'reprintAddress'
p8
VGreen, PJ (reprint author), Univ Delaware, Delaware Biotechnol Inst, Newark, DE 19711 USA.
p9
sS'WC'
p10
VPlant Sciences
p11
sS'GA'
p12
V176SU
p13
sS'FX'
p14
(lp15
VThis work was supported by the National Science Foundation (grant nos.
p16
aVMCB-0548569 and MCB-0946326), by the National Institutes of
p17
aVHealth/National Institute of General Medical Sciences (Chemistry-Biology
p18
aVInterface training grant no. 5T32 GM 08550-15 to S. R. T.), by
p19
aVundergraduate fellowships from the University of Delaware National
p20
aVScience Foundation Experimental Program to Stimulate Competitive
p21
aVResearch and Howard Hughes Medical Institute programs to R. S. H. B.,
p22
aVand by a University of Delaware Graduate Fellow Award from the Office of
p23
aVGraduate and Professional Education to J.Z.
p24
asS'abstract'
p25
VMicroRNAs (miRNAs) are a class of small RNAs that typically function by guiding the cleavage of target messenger RNAs. They have been shown to play major roles in a variety of plant processes, including development, and responses to pathogens and environmental stresses. To identify new miRNAs and regulation in Arabidopsis (Arabidopsis thaliana), 27 small RNA libraries were constructed and sequenced from various tissues, stresses, and small RNA biogenesis mutants, resulting in 95 million genome-matched sequences. The use of rdr2 to enrich the miRNA population greatly enhanced this analysis and led to the discovery of new miRNAs arising from both known and new precursors, increasing the total number of Arabidopsis miRNAs by about 10%. Parallel Analysis of RNA Ends data provide evidence that the majority guide target cleavage. Many libraries represented novel stress/tissue conditions, such as submergence-stressed flowers, which enabled the identification of new stress regulation of both miRNAs and their targets, all of which were validated in wild-type plants. By combining small RNA expression analysis with ARGONAUTE immunoprecipitation data and global target cleavage data from Parallel Analysis of RNA Ends, a much more complete picture of Arabidopsis miRNAs was obtained. In particular, the discovery of ARGONAUTE loading and target cleavage biases gave important insights into tissue-specific expression patterns, pathogen responses, and the role of sequence variation among closely related miRNA family members that would not be evident without this combinatorial approach.
p26
sS'pageEnd'
p27
I1245
sS'date'
p28
I2013
sS'documentType'
p29
VArticle
p30
sS'subject'
p31
VPlant Sciences
p32
sS'isoSource'
p33
VPlant Physiol.
p34
sS'timesCited'
p35
(lp36
I0
aVZ9 0
p37
asS'funding'
p38
(lp39
(VNational Science Foundation
VMCB-0548569, MCB-0946326
tp40
a(VNational Institutes of Health/National Institute of General Medical Sciences
V5T32 GM 08550-15
tp41
a(VUniversity of Delaware National Science Foundation
Ntp42
a(VHoward Hughes Medical Institute
Ntp43
a(VUniversity of Delaware from the Office of Graduate and Professional Education
Ntp44
asS'PT'
p45
VJ
sS'title'
p46
VComprehensive Investigation Of Micrornas Enhanced By Analysis Of Sequence Variants, Expression Patterns, Argonaute Loading, And Target Cleavage
p47
sS'ISSN'
p48
(lp49
V0032-0889
p50
aVJ9 PLANT PHYSIOL
p51
asS'authors_full'
p52
(lp53
(VJEONG
VDONGHOON
tp54
a(VTHATCHER
VSHAWN R
tp55
a(VBROWN
VREBECCA S H
tp56
a(VZHAI
VJIXIAN
tp57
a(VPARK
VSUNHEE
tp58
a(VRYMARQUIS
VLINDA A
tp59
a(VMEYERS
VBLAKE C
tp60
a(VGREEN
VPAMELA J
tp61
asS'PG'
p62
I21
sS'PD'
p63
VJUL
p64
sS'pageStart'
p65
I1225
sS'issue'
p66
I3
sS'journal'
p67
VPLANT PHYSIOLOGY
p68
sS'volume'
p69
V162
p70
sS'doi'
p71
V10.1104/pp.113.219873
p72
sS'emailAddress'
p73
Vgreen@dbi.udel.edu
p74
sS'authorAddress'
p75
(lp76
V[Jeong, Dong-Hoon; Thatcher, Shawn R.; Brown, Rebecca S. H.; Zhai, Jixian; Park, Sunhee; Rymarquis, Linda A.; Meyers, Blake C.; Green, Pamela J.] Univ Delaware, Delaware Biotechnol Inst, Newark, DE 19711 USA.
p77
aV[Thatcher, Shawn R.] Univ Delaware, Dept Chem & Biochem, Newark, DE 19716 USA.
p78
aV[Brown, Rebecca S. H.] Univ Delaware, Dept Biol, Newark, DE 19716 USA.
p79
aV[Jeong, Dong-Hoon; Zhai, Jixian; Park, Sunhee; Rymarquis, Linda A.; Meyers, Blake C.; Green, Pamela J.] Univ Delaware, Dept Plant & Soli Sci, Newark, DE 19716 USA.
p80
asS'publisherAddress'
p81
V15501 MONONA DRIVE, ROCKVILLE, MD 20855 USA
p82
sS'ER'
p83
V
sS'publisher'
p84
VAMER SOC PLANT BIOLOGISTS
p85
sS'authorKeywords'
p86
(lp87
VTRANS-ACTING SIRNAS
p88
aVARABIDOPSIS-THALIANA
p89
aVSMALL RNAS
p90
aVPARALLEL ANALYSIS
p91
aVINNATE IMMUNITY
p92
aVMIRNA TARGETS
p93
aVGENE
p94
aVIDENTIFICATION
p95
aVBIOGENESIS
p96
aVPATHWAY
p97
asS'language'
p98
VEnglish
p99
sS'wosid'
p100
VWOS:000321325700003
p101
sS'citationCount'
p102
I64
sS'authors_init'
p103
(lp104
(VJEONG
VD H
tp105
a(VTHATCHER
VS R
tp106
a(VBROWN
VR S H
tp107
a(VZHAI
VJ X
tp108
a(VPARK
VS
tp109
a(VRYMARQUIS
VL A
tp110
a(VMEYERS
VB C
tp111
a(VGREEN
VP J
tp112
asS'citedReferences'
p113
(lp114
g1
(g2
g3
NtRp115
(dp116
g71
V10.1093/bioinformatics/btn604
p117
sg67
VBIOINFORMATICS
p118
sg69
V25
p119
sg103
(lp120
(VADDO-QUAYE
VC
tp121
asg28
I2009
sg65
V130
p122
sbag1
(g2
g3
NtRp123
(dp124
g71
V10.1016/j.cub.2006.03.035
p125
sg67
VCURR BIOL
p126
sg69
V16
p127
sg103
(lp128
(VADENOT
VX
tp129
asg28
I2006
sg65
V927
p130
sbag1
(g2
g3
NtRp131
(dp132
g71
V10.1038/ng1478
p133
sg67
VNAT GENET
p134
sg69
V36
p135
sg103
(lp136
(VALLEN
VE
tp137
asg28
I2004
sg65
V1282
p138
sbag1
(g2
g3
NtRp139
(dp140
g71
V10.1093/nar/gkp272
p141
sg67
VNUCLEIC ACIDS RES
p142
sg69
V37
p143
sg103
(lp144
(VALVES
VL
tp145
asg28
I2009
sg65
V4010
p146
sbag1
(g2
g3
NtRp147
(dp148
g71
V10.1104/pp.106.078063
p149
sg67
VPLANT PHYSIOL
p150
sg69
V141
p151
sg103
(lp152
(VAUNG
VK
tp153
asg28
I2006
sg65
VLANT
p154
sbag1
(g2
g3
NtRp155
(dp156
g71
V10.1104/pp.106.079707
p157
sg67
VPLANT PHYSIOL
p158
sg69
V141
p159
sg103
(lp160
(VBARI
VR
tp161
asg28
I2006
sg65
VLANT
p162
sbag1
(g2
g3
NtRp163
(dp164
g71
V10.1093/emboj/17.1.170
p165
sg67
VEMBO J
p166
sg69
V17
p167
sg103
(lp168
(VBOHMERT
VK
tp169
asg28
I1998
sg65
V170
p170
sbag1
(g2
g3
NtRp171
(dp172
g71
V10.1093/jxb/erq452
p173
sg67
VJ EXP BOT
p174
sg69
V62
p175
sg103
(lp176
(VBORGES
VF
tp177
asg28
I2011
sg65
V1611
p178
sbag1
(g2
g3
NtRp179
(dp180
g71
V10.1101/gr.123547.111
p181
sg67
VGENOME RES
p182
sg69
V22
p183
sg103
(lp184
(VBREAKFIELD
VN W
tp185
asg28
I2012
sg65
V163
p186
sbag1
(g2
g3
NtRp187
(dp188
g71
V10.1073/pnas.1001738107
p189
sg67
VP NATL ACAD SCI USA
p190
sg69
V107
p191
sg103
(lp192
(VCHEN
VH M
tp193
asg28
I2010
sg65
V15269
p194
sbag1
(g2
g3
NtRp195
(dp196
g71
V10.1105/tpc.105.038943
p197
sg67
VPLANT CELL
p198
sg69
V18
p199
sg103
(lp200
(VCHIOU
VT J
tp201
asg28
I2006
sg65
VLANT
p202
sbag1
(g2
g3
NtRp203
(dp204
g71
V10.1073/pnas.81.7.1991
p205
sg67
VP NATL ACAD SCI
p206
sg69
V81
p207
sg103
(lp208
(VCHURCH
VG M
tp209
asg28
I1984
sg65
V1991
p210
sbag1
(g2
g3
NtRp211
(dp212
g71
V10.1038/nsmb.1866
p213
sg67
VNAT STRUCT MOL BIOL
p214
sg69
V17
p215
sg103
(lp216
(VCUPERUS
VJ T
tp217
asg28
I2010
sg65
V997
p218
sbag1
(g2
g3
NtRp219
(dp220
g71
V10.1093/nar/gkr319
p221
sg67
VNUCLEIC ACIDS RES
p222
sg69
V39
p223
sg103
(lp224
(VDAI
VX B
tp225
asg28
I2011
sg65
VW155
p226
sbag1
(g2
g3
NtRp227
(dp228
g71
V10.1016/j.cub.2006.03.065
p229
sg67
VCURR BIOL
p230
sg69
V16
p231
sg103
(lp232
(VFAHLGREN
VN
tp233
asg28
I2006
sg65
V939
p234
sbag1
(g2
g3
NtRp235
(dp236
g71
Nsg67
VPLANT CELL
p237
sg69
V22
p238
sg103
(lp239
(VFAHLGREN
VN
tp240
asg28
I2010
sg65
VLANT
p241
sbag1
(g2
g3
NtRp242
(dp243
g71
V10.1261/rna.2379610
p244
sg67
VRNA
p245
sg69
V16
p246
sg103
(lp247
(VFERNANDEZ-VALVERDE
VS L
tp248
asg28
I2010
sg65
V1881
p249
sbag1
(g2
g3
NtRp250
(dp251
g71
V10.1016/j.cub.2005.10.016
p252
sg67
VCURR BIOL
p253
sg69
V15
p254
sg103
(lp255
(VFUJII
VH
tp256
asg28
I2005
sg65
V2038
p257
sbag1
(g2
g3
NtRp258
(dp259
g71
V10.1016/j.cub.2006.03.064
p260
sg67
VCURR BIOL
p261
sg69
V16
p262
sg103
(lp263
(VGARCIA
VD
tp264
asg28
I2006
sg65
V933
p265
sbag1
(g2
g3
NtRp266
(dp267
g71
V10.1038/nbt1417
p268
sg67
VNAT BIOTECHNOL
p269
sg69
V26
p270
sg103
(lp271
(VGERMAN
VM A
tp272
asg28
I2008
sg65
V941
p273
sbag1
(g2
g3
NtRp274
(dp275
g71
V10.1038/nprot.2009.8
p276
sg67
VNAT PROTOC
p277
sg69
V4
sg103
(lp278
(VGERMAN
VM A
tp279
asg28
I2009
sg65
V356
p280
sbag1
(g2
g3
NtRp281
(dp282
g71
V10.1105/tpc.109.072199
p283
sg67
VPLANT CELL
p284
sg69
V22
p285
sg103
(lp286
(VHAVECKER
VE R
tp287
asg28
I2010
sg65
VLANT
p288
sbag1
(g2
g3
NtRp289
(dp290
g71
V10.1038/ng1804
p291
sg67
VNAT GENET
p292
sg69
V38
p293
sg103
(lp294
(VHENDERSON
VI R
tp295
asg28
I2006
sg65
V721
p296
sbag1
(g2
g3
NtRp297
(dp298
g71
V10.1104/pp.109.147280
p299
sg67
VPLANT PHYSIOL
p300
sg69
V151
p301
sg103
(lp302
(VHSIEH
VL C
tp303
asg28
I2009
sg65
VLANT
p304
sbag1
(g2
g3
NtRp305
(dp306
g71
V10.1242/dev.02491
p307
sg67
VDEVELOPMENT
p308
sg69
V133
p309
sg103
(lp310
(VHUNTER
VC
tp311
asg28
I2006
sg65
V2973
p312
sbag1
(g2
g3
NtRp313
(dp314
g71
V10.1105/tpc.111.089045
p315
sg67
VPLANT CELL
p316
sg69
V23
p317
sg103
(lp318
(VJEONG
VD H
tp319
asg28
I2011
sg65
VLANT
p320
sbag1
(g2
g3
NtRp321
(dp322
g71
V10.1007/978-1-60327-005-2_14
p323
sg67
VMETHODS MOL BIOL
p324
sg69
V592
p325
sg103
(lp326
(VJEONG
VD H
tp327
asg28
I2010
sg65
V203
p328
sbag1
(g2
g3
NtRp329
(dp330
g71
V10.1016/j.ymeth.2012.08.005
p331
sg67
VMETHODS
p332
sg69
V58
p333
sg103
(lp334
(VJEONG
VD H
tp335
asg28
I2012
sg65
V135
p336
sbag1
(g2
g3
NtRp337
(dp338
g71
V10.1186/1471-2164-9-451
p339
sg67
VBMC GENOMICS
p340
sg69
V9
sg103
(lp341
(VKAPOOR
VM
tp342
asg28
I2008
sg65
Nsbag1
(g2
g3
NtRp343
(dp344
g71
V10.1126/science.1138050
p345
sg67
VSCIENCE
p346
sg69
V315
p347
sg103
(lp348
(VKAWAHARA
VY
tp349
asg28
I2007
sg65
V1137
p350
sbag1
(g2
g3
NtRp351
(dp352
g71
V10.1093/nar/gkq1027
p353
sg67
VNUCLEIC ACIDS RES
p354
sg69
V39
p355
sg103
(lp356
(VKOZOMARA
VA
tp357
asg28
I2011
sg65
VD152
p358
sbag1
(g2
g3
NtRp359
(dp360
g71
V10.1073/pnas.0403115101
p361
sg67
VP NATL ACAD SCI USA
p362
sg69
V101
p363
sg103
(lp364
(VKURIHARA
VY
tp365
asg28
I2004
sg65
V12753
p366
sbag1
(g2
g3
NtRp367
(dp368
g71
V10.1104/pp.109.151803
p369
sg67
VPLANT PHYSIOL
p370
sg69
V152
p371
sg103
(lp372
(VLI
VY
tp373
asg28
I2010
sg65
VLANT
p374
sbag1
(g2
g3
NtRp375
(dp376
g71
V10.1038/nature02875
p377
sg67
VNATURE
p378
sg69
V431
p379
sg103
(lp380
(VLIPPMAN
VZ
tp381
asg28
I2004
sg65
V364
p382
sbag1
(g2
g3
NtRp383
(dp384
g71
V10.1016/j.ymeth.2007.05.002
p385
sg67
VMETHODS
p386
sg69
V43
p387
sg103
(lp388
(VLU
VC
tp389
asg28
I2007
sg65
V110
p390
sbag1
(g2
g3
NtRp391
(dp392
g71
V10.1101/gr.5530106
p393
sg67
VGENOME RES
p394
sg69
V16
p395
sg103
(lp396
(VLU
VC
tp397
asg28
I2006
sg65
V1276
p398
sbag1
(g2
g3
NtRp399
(dp400
g71
V10.1126/science.1114112
p401
sg67
VSCIENCE
p402
sg69
V309
p403
sg103
(lp404
(VLU
VC
tp405
asg28
I2005
sg65
V1567
p406
sbag1
(g2
g3
NtRp407
(dp408
g71
V10.1105/tpc.110.080671
p409
sg67
VPLANT CELL
p410
sg69
V22
p411
sg103
(lp412
(VMALLORY
VA
tp413
asg28
I2010
sg65
VLANT
p414
sbag1
(g2
g3
NtRp415
(dp416
g71
V10.1073/pnas.1200169109
p417
sg67
VP NATL ACAD SCI USA
p418
sg69
V109
p419
sg103
(lp420
(VMANAVELLA
VP A
tp421
asg28
I2012
sg65
V2461
p422
sbag1
(g2
g3
NtRp423
(dp424
g71
V10.1038/nprot.2007.530
p425
sg67
VNAT PROTOC
p426
sg69
V3
sg103
(lp427
(VMARONEY
VP A
tp428
asg28
I2008
sg65
V279
p429
sbag1
(g2
g3
NtRp430
(dp431
g71
V10.1371/journal.pone.0050870
p432
sg67
VPLOS ONE
p433
sg69
V7
sg103
(lp434
(VMENG
VY J
tp435
asg28
I2012
sg65
VLOS
p436
sbag1
(g2
g3
NtRp437
(dp438
g71
V10.1105/tpc.108.064311
p439
sg67
VPLANT CELL
p440
sg69
V20
p441
sg103
(lp442
(VMEYERS
VB C
tp443
asg28
I2008
sg65
VLANT
p444
sbag1
(g2
g3
NtRp445
(dp446
g71
V10.1016/j.cell.2008.02.034
p447
sg67
VCELL
p448
sg69
V133
p449
sg103
(lp450
(VMI
VS J
tp451
asg28
I2008
sg65
V116
p452
sbag1
(g2
g3
NtRp453
(dp454
g71
V10.1016/j.cell.2008.02.033
p455
sg67
VCELL
p456
sg69
V133
p457
sg103
(lp458
(VMONTGOMERY
VT A
tp459
asg28
I2008
sg65
V128
p460
sbag1
(g2
g3
NtRp461
(dp462
g71
V10.1016/j.tig.2012.07.005
p463
sg67
VTRENDS GENET
p464
sg69
V28
p465
sg103
(lp466
(VNEILSEN
VC T
tp467
asg28
I2012
sg65
V544
p468
sbag1
(g2
g3
NtRp469
(dp470
g71
V10.1105/tpc.111.083915
p471
sg67
VPLANT CELL
p472
sg69
V23
p473
sg103
(lp474
(VNG
VD W K
tp475
asg28
I2011
sg65
VLANT
p476
sbag1
(g2
g3
NtRp477
(dp478
g71
V10.1073/pnas.0808066105
p479
sg67
VP NATL ACAD SCI USA
p480
sg69
V105
p481
sg103
(lp482
(VNOBUTA
VK
tp483
asg28
I2008
sg65
V14958
p484
sbag1
(g2
g3
NtRp485
(dp486
g71
V10.1016/j.devcel.2007.04.012
p487
sg67
VDEV CELL
p488
sg69
V13
p489
sg103
(lp490
(VPALATNIK
VJ F
tp491
asg28
I2007
sg65
V115
p492
sbag1
(g2
g3
NtRp493
(dp494
g71
V10.1104/pp.109.139139
p495
sg67
VPLANT PHYSIOL
p496
sg69
V150
p497
sg103
(lp498
(VPANT
VB D
tp499
asg28
I2009
sg65
VLANT
p500
sbag1
(g2
g3
NtRp501
(dp502
g71
V10.1016/S0960-9822(02)01017-5
p503
sg67
VCURR BIOL
p504
sg69
V12
p505
sg103
(lp506
(VPARK
VW
tp507
asg28
I2002
sg65
V1484
p508
sbag1
(g2
g3
NtRp509
(dp510
g71
V10.1101/gad.1231804
p511
sg67
VGENE DEV
p512
sg69
V18
p513
sg103
(lp514
(VPERAGINE
VA
tp515
asg28
I2004
sg65
V2368
p516
sbag1
(g2
g3
NtRp517
(dp518
g71
V10.1038/nrg3198
p519
sg67
VNAT REV GENET
p520
sg69
V13
p521
sg103
(lp522
(VPRITCHARD
VC C
tp523
asg28
I2012
sg65
V358
p524
sbag1
(g2
g3
NtRp525
(dp526
g71
V10.1093/nar/gkp367
p527
sg67
VNUCLEIC ACIDS RES
p528
sg69
V37
p529
sg103
(lp530
(VSATO
VK
tp531
asg28
I2009
sg65
VW277
p532
sbag1
(g2
g3
NtRp533
(dp534
g71
V10.1016/j.molcel.2004.06.006
p535
sg67
VMOL CELL
p536
sg69
V15
p537
sg103
(lp538
(VSOURET
VF F
tp539
asg28
I2004
sg65
V173
p540
sbag1
(g2
g3
NtRp541
(dp542
g71
V10.1093/nar/gkq727
p543
sg67
VNUCLEIC ACIDS RES
p544
sg69
V39
p545
sg103
(lp546
(VSTAREGA-ROSLAN
VJ
tp547
asg28
I2011
sg65
V257
p548
sbag1
(g2
g3
NtRp549
(dp550
g71
V10.1093/pcp/pcn043
p551
sg67
VPLANT CELL PHYSIOL
p552
sg69
V49
p553
sg103
(lp554
(VTAKEDA
VA
tp555
asg28
I2008
sg65
VLANT
p556
sbag1
(g2
g3
NtRp557
(dp558
g71
V10.1111/j.1365-3040.2008.01883.x
p559
sg67
VPLANT CELL ENVIRON
p560
sg69
V31
p561
sg103
(lp562
(VVALDES-LOPEZ
VO
tp563
asg28
I2008
sg65
VLANT
p564
sbag1
(g2
g3
NtRp565
(dp566
g71
V10.1111/j.1365-313X.2011.04594.x
p567
sg67
VPLANT J
p568
sg69
V67
p569
sg103
(lp570
(VWANG
VH
tp571
asg28
I2011
sg65
VLANT
p572
sbag1
(g2
g3
NtRp573
(dp574
g71
V10.1105/tpc.109.070938
p575
sg67
VPLANT CELL
p576
sg69
V21
p577
sg103
(lp578
(VWU
VL
tp579
asg28
I2009
sg65
VLANT
p580
sbag1
(g2
g3
NtRp581
(dp582
g71
V10.1101/gr.118059.110
p583
sg67
VGENOME RES
p584
sg69
V21
p585
sg103
(lp586
(VWYMAN
VS K
tp587
asg28
I2011
sg65
V1450
p588
sbag1
(g2
g3
NtRp589
(dp590
g71
V10.1371/journal.pbio.0020104
p591
sg67
VPLOS BIOL
p592
sg69
V2
sg103
(lp593
(VXIE
VZ X
tp594
asg28
I2004
sg65
VLOS
p595
sbag1
(g2
g3
NtRp596
(dp597
g71
V10.1016/j.molcel.2012.03.019
p598
sg67
VMOL CELL
p599
sg69
V46
p600
sg103
(lp601
(VXUE
VZ H
tp602
asg28
I2012
sg65
V299
p603
sbag1
(g2
g3
NtRp604
(dp605
g71
V10.1101/gad.177527.111
p606
sg67
VGENE DEV
p607
sg69
V25
p608
sg103
(lp609
(VZHAI
VJ X
tp610
asg28
I2011
sg65
V2540
p611
sbag1
(g2
g3
NtRp612
(dp613
g71
V10.1016/j.molcel.2011.04.010
p614
sg67
VMOL CELL
p615
sg69
V42
p616
sg103
(lp617
(VZHANG
VX M
tp618
asg28
I2011
sg65
V356
p619
sbasb.