ccopy_reg
_reconstructor
p1
(ctethne.classes.paper
Paper
p2
c__builtin__
object
p3
NtRp4
(dp5
S'publisherCity'
p6
VROCKVILLE
p7
sS'reprintAddress'
p8
VCastresana, C (reprint author), CSIC, Ctr Nacl Biotecnol, Campus Univ Autonoma, E-38049 Madrid, Spain.
p9
sS'WC'
p10
VPlant Sciences
p11
sS'GA'
p12
V585AZ
p13
sS'abstract'
p14
VWe have identified a new plant gene, AtCOX17, encoding a protein that shares sequence similarity to COX17, a Cu-binding protein from yeast (Saccharomyces cerevisiae) and vertebrates that mediates the delivery of Cu to the mitochondria for the assembly of a functional cytochrome oxidase complex. The newly characterized Arabidopsis protein has six Cys residues at positions corresponding to those known to coordinate Cu binding in the yeast homolog. Moreover, we show that the Arabidopsis COX17 cDNA complements a COX17 mutant of yeast restoring the respiratory deficiency associated with that mutation. These two lines of evidence indicate that the plant protein identified here is a functional equivalent of yeast COX17 and might serve as a Cu delivery protein for the plant mitochondria. COX17 was identified by investigating the hypersensitive response-like necrotic response provoked in tobacco (Nicotiana tabacum) leaves after harpin inoculation. AtCOX17 expression was activated by high concentrations of Cu, bacterial inoculation, salicylic acid treatment, and treatments that generated NO and hydrogen peroxide. All of the conditions inducing COX17 are known to inhibit mitochondrial respiration and to produce an increase of reactive oxygen species, suggesting that gene induction occurs in response to stress situations that interfere with mitochondrial function.
p15
sS'pageEnd'
p16
I1857
sS'publisherAddress'
p17
V15501 MONONA DRIVE, ROCKVILLE, MD 20855 USA
p18
sS'documentType'
p19
VArticle
p20
sS'subject'
p21
VPlant Sciences
p22
sS'isoSource'
p23
VPlant Physiol.
p24
sS'timesCited'
p25
(lp26
I30
aVZ9 36
p27
asS'PT'
p28
VJ
sS'title'
p29
VAtcox17, An Arabidopsis Homolog Of The Yeast Copper Chaperone Cox17
p30
sS'ISSN'
p31
(lp32
V0032-0889
p33
aVJ9 PLANT PHYSIOL
p34
asS'authors_full'
p35
(lp36
(VBALANDIN
VT
tp37
a(VCASTRESANA
VC
tp38
asS'PG'
p39
I6
sS'PD'
p40
VAUG
p41
sS'pageStart'
p42
I1852
sS'issue'
p43
I4
sS'journal'
p44
VPLANT PHYSIOLOGY
p45
sS'volume'
p46
V129
p47
sS'doi'
p48
V10.1104/pp.010963
p49
sS'authorAddress'
p50
VCSIC, Ctr Nacl Biotecnol, E-38049 Madrid, Spain.
p51
sS'date'
p52
I2002
sS'ER'
p53
V
sS'publisher'
p54
VAMER SOC PLANT BIOLOGISTS
p55
sS'authorKeywords'
p56
(lp57
VHYPERSENSITIVE RESPONSE
p58
aVDISEASE RESISTANCE
p59
aVCELL-DEATH
p60
aVSALICYLIC-ACID
p61
aVTOBACCO CELLS
p62
aVNITRIC-OXIDE
p63
aVIDENTIFICATION
p64
aVMITOCHONDRIA
p65
aVMETALLOTHIONEIN
p66
aVMECHANISMS
p67
asS'language'
p68
VEnglish
p69
sS'wosid'
p70
VWOS:000177502100045
p71
sS'citationCount'
p72
I40
sS'authors_init'
p73
(lp74
(VBALANDIN
VT
tp75
a(VCASTRESANA
VC
tp76
asS'citedReferences'
p77
(lp78
g1
(g2
g3
NtRp79
(dp80
g48
V10.1007/s004390050367
p81
sg44
VHUM GENET
p82
sg46
V99
p83
sg73
(lp84
(VAMARAVADI
VR
tp85
asg52
I1997
sg42
V329
p86
sbag1
(g2
g3
NtRp87
(dp88
g48
Nsg44
VCURRENT PROTOCOLS MO
p89
sg46
Nsg73
(lp90
(VAUSUBEL
VF M
tp91
asg52
I1988
sg42
Nsbag1
(g2
g3
NtRp92
(dp93
g48
V10.1074/jbc.272.52.33191
p94
sg44
VJ BIOL CHEM
p95
sg46
V272
p96
sg73
(lp97
(VBEERS
VJ
tp98
asg52
I1997
sg42
V33191
p99
sbag1
(g2
g3
NtRp100
(dp101
g48
V10.1002/(SICI)1521-1878(199901)21:1<84::AID-BIES11>3.3.CO;2-S
p102
sg44
VBIOESSAYS
p103
sg46
V21
p104
sg73
(lp105
(VBLACKSTONE
VN W
tp106
asg52
I1999
sg42
V84
p107
sbag1
(g2
g3
NtRp108
(dp109
g48
V10.1006/pmpp.1997.0129
p110
sg44
VPHYSIOL MOL PLANT P
p111
sg46
V51
p112
sg73
(lp113
(VBOLWELL
VG P
tp114
asg52
I1997
sg42
VHYSIOL
p115
sbag1
(g2
g3
NtRp116
(dp117
g48
V10.1093/emboj/17.1.37
p118
sg44
VEMBO J
p119
sg46
V17
p120
sg73
(lp121
(VBOSSY-WETZEL
VE
tp122
asg52
I1998
sg42
V37
p123
sbag1
(g2
g3
NtRp124
(dp125
g48
V10.1016/S0005-2728(99)00025-0
p126
sg44
VBBA
p127
sg46
V1411
p128
sg73
(lp129
(VBROWN
VG C
tp130
asg52
I1999
sg42
V351
p131
sbag1
(g2
g3
NtRp132
(dp133
g48
V10.1002/yea.320091203
p134
sg44
VYEAST
p135
sg46
V9
sg73
(lp136
(VBRUNELLI
VJ P
tp137
asg52
I1993
sg42
V1299
p138
sbag1
(g2
g3
NtRp139
(dp140
g48
Nsg44
VPLANT CELL
p141
sg46
V8
sg73
(lp142
(VDANGL
VJ L
tp143
asg52
I1996
sg42
VLANT
p144
sbag1
(g2
g3
NtRp145
(dp146
g48
V10.1046/j.1365-313X.1991.t01-7-00999.x
p147
sg44
VPLANT J
p148
sg46
V1
sg73
(lp149
(VDEBENER
VT
tp150
asg52
I1991
sg42
VLANT
p151
sbag1
(g2
g3
NtRp152
(dp153
g48
V10.1038/29087
p154
sg44
VNATURE
p155
sg46
V394
p156
sg73
(lp157
(VDELLEDONNE
VM
tp158
asg52
I1998
sg42
V585
p159
sbag1
(g2
g3
NtRp160
(dp161
g48
V10.1073/pnas.95.17.10328
p162
sg44
VP NATL ACAD SCI USA
p163
sg46
V95
p164
sg73
(lp165
(VDURNER
VJ
tp166
asg52
I1998
sg42
V10328
p167
sbag1
(g2
g3
NtRp168
(dp169
g48
V10.1016/S1360-1385(97)86349-2
p170
sg44
VTRENDS PLANT SCI
p171
sg46
V2
sg73
(lp172
(VDURNER
VJ
tp173
asg52
I1997
sg42
V266
p174
sbag1
(g2
g3
NtRp175
(dp176
g48
Nsg44
VMOL GENETICS YEAST P
p177
sg46
Nsg73
(lp178
(VGIETZ
VR D
tp179
asg52
I1994
sg42
V1212
p180
sbag1
(g2
g3
NtRp181
(dp182
g48
Nsg44
VJ BIOL CHEM
p183
sg46
V271
p184
sg73
(lp185
(VGLERUM
VD M
tp186
asg52
I1996
sg42
V14504
p187
sbag1
(g2
g3
NtRp188
(dp189
g48
V10.1104/pp.124.1.21
p190
sg44
VPLANT PHYSIOL
p191
sg46
V124
p192
sg73
(lp193
(VGRANT
VJ J
tp194
asg52
I2000
sg42
VLANT
p195
sbag1
(g2
g3
NtRp196
(dp197
g48
V10.1126/science.281.5381.1309
p198
sg44
VSCIENCE
p199
sg46
V281
p200
sg73
(lp201
(VGREEN
VD R
tp202
asg52
I1998
sg42
V1309
p203
sbag1
(g2
g3
NtRp204
(dp205
g48
V10.1016/S0968-0004(99)01492-9
p206
sg44
VTRENDS BIOCHEM SCI
p207
sg46
V25
p208
sg73
(lp209
(VHARRISON
VM D
tp210
asg52
I2000
sg42
V29
p211
sbag1
(g2
g3
NtRp212
(dp213
g48
V10.1104/pp.117.4.1227
p214
sg44
VPLANT PHYSIOL
p215
sg46
V117
p216
sg73
(lp217
(VHIMELBLAU
VE
tp218
asg52
I1998
sg42
VLANT
p219
sbag1
(g2
g3
NtRp220
(dp221
g48
V10.1016/S0092-8674(00)80747-3
p222
sg44
VCELL
p223
sg46
V97
p224
sg73
(lp225
(VHIRAYAMA
VT
tp226
asg52
I1999
sg42
V383
p227
sbag1
(g2
g3
NtRp228
(dp229
g48
V10.1016/S0966-842X(99)01638-8
p230
sg44
VTRENDS MICROBIOL
p231
sg46
V7
sg73
(lp232
(VLABBE
VS
tp233
asg52
I1999
sg42
V500
p234
sbag1
(g2
g3
NtRp235
(dp236
g48
V10.1038/35081184
p237
sg44
VNATURE
p238
sg46
V411
p239
sg73
(lp240
(VLAM
VE
tp241
asg52
I2001
sg42
V848
p242
sbag1
(g2
g3
NtRp243
(dp244
g48
V10.1126/science.1354393
p245
sg44
VSCIENCE
p246
sg46
V257
p247
sg73
(lp248
(VLIANG
VP
tp249
asg52
I1992
sg42
V967
p250
sbag1
(g2
g3
NtRp251
(dp252
g48
V10.1016/0003-2697(87)90086-8
p253
sg44
VANAL BIOCHEM
p254
sg46
V163
p255
sg73
(lp256
(VLOGEMANN
VJ
tp257
asg52
I1987
sg42
V16
p258
sbag1
(g2
g3
NtRp259
(dp260
g48
V10.1016/S0968-0004(99)01532-7
p261
sg44
VTRENDS BIOCHEM SCI
p262
sg46
V25
p263
sg73
(lp264
(VMCDOWELL
VJ M
tp265
asg52
I2000
sg42
V79
p266
sbag1
(g2
g3
NtRp267
(dp268
g48
V10.1023/A:1005727132202
p269
sg44
VPLANT MOL BIOL
p270
sg46
V33
p271
sg73
(lp272
(VMHIRI
VC
tp273
asg52
I1997
sg42
VLANT
p274
sbag1
(g2
g3
NtRp275
(dp276
g48
V10.1046/j.1365-313x.2001.00985.x
p277
sg44
VPLANT J
p278
sg46
V25
p279
sg73
(lp280
(VMIRA
VH
tp281
asg52
I2001
sg42
VLANT
p282
sbag1
(g2
g3
NtRp283
(dp284
g48
Nsg44
VCELL MOL BIOL
p285
sg46
V46
p286
sg73
(lp287
(VOGRA
VY
tp288
asg52
I2000
sg42
V357
p289
sbag1
(g2
g3
NtRp290
(dp291
g48
V10.1023/A:1006133311402
p292
sg44
VPLANT MOL BIOL
p293
sg46
V39
p294
sg73
(lp295
(VPONTIER
VD
tp296
asg52
I1999
sg42
VLANT
p297
sbag1
(g2
g3
NtRp298
(dp299
g48
V10.1094/MPMI.1998.11.6.544
p300
sg44
VMOL PLANT MICROBE IN
p301
sg46
V11
p302
sg73
(lp303
(VPONTIER
VD
tp304
asg52
I1998
sg42
V544
p305
sbag1
(g2
g3
NtRp306
(dp307
g48
Nsg44
VMOL CLONING LAB MANU
p308
sg46
Nsg73
(lp309
(VSAMBROOK
VJ
tp310
asg52
I1989
sg42
Nsbag1
(g2
g3
NtRp311
(dp312
g48
Nsg44
VPLANT CELL
p313
sg46
V10
p314
sg73
(lp315
(VSANZ
VA
tp316
asg52
I1998
sg42
VLANT
p317
sbag1
(g2
g3
NtRp318
(dp319
g48
Nsg44
VAdv Genet
p320
sg46
V28
p321
sg73
(lp322
(VSCANDALIOS
VJ G
tp323
asg52
I1990
sg42
V1
sbag1
(g2
g3
NtRp324
(dp325
g48
V10.1021/bi980418y
p326
sg44
VBIOCHEMISTRY
p327
sg46
V37
p328
sg73
(lp329
(VSRINIVASAN
VC
tp330
asg52
I1998
sg42
V7572
p331
sbag1
(g2
g3
NtRp332
(dp333
g48
V10.1126/science.1621099
p334
sg44
VSCIENCE
p335
sg46
V257
p336
sg73
(lp337
(VWEI
VZ M
tp338
asg52
I1992
sg42
V85
p339
sbag1
(g2
g3
NtRp340
(dp341
g48
V10.1105/tpc.3.1.49
p342
sg44
VPLANT CELL
p343
sg46
V3
sg73
(lp344
(VWHALEN
VM C
tp345
asg52
I1991
sg42
VLANT
p346
sbag1
(g2
g3
NtRp347
(dp348
g48
V10.1104/pp.120.1.217
p349
sg44
VPLANT PHYSIOL
p350
sg46
V120
p351
sg73
(lp352
(VXIE
VZ X
tp353
asg52
I1999
sg42
VLANT
p354
sbag1
(g2
g3
NtRp355
(dp356
g48
V10.1094/MPMI.2000.13.2.183
p357
sg44
VMOL PLANT MICROBE IN
p358
sg46
V13
p359
sg73
(lp360
(VXIE
VZ X
tp361
asg52
I2000
sg42
V183
p362
sbag1
(g2
g3
NtRp363
(dp364
g48
V10.1073/pnas.041619198
p365
sg44
VP NATL ACAD SCI USA
p366
sg46
V98
p367
sg73
(lp368
(VYE
VB
tp369
asg52
I2001
sg42
V2317
p370
sbag1
(g2
g3
NtRp371
(dp372
g48
Nsg44
VMOL GEN GENET
p373
sg46
V248
p374
sg73
(lp375
(VZHOU
VJ
tp376
asg52
I1994
sg42
V318
p377
sbasb.