ccopy_reg
_reconstructor
p1
(ctethne.classes.paper
Paper
p2
c__builtin__
object
p3
NtRp4
(dp5
S'publisherCity'
p6
VROCKVILLE
p7
sS'reprintAddress'
p8
VRoberts, DM (reprint author), Univ Tennessee, Dept Biochem & Cellular & Mol Biol, Knoxville, TN 37996 USA.
p9
sS'WC'
p10
VPlant Sciences
p11
sS'GA'
p12
V918XO
p13
sS'abstract'
p14
VA cDNA was isolated from soybean (Glycine max) nodules that encodes a putative transporter (GmN70) of the major facilitator superfamily. GmN70 is expressed predominantly in mature nitrogen-fixing root nodules. By western-blot and immunocytochemical analyses, GmN70 was localized to the symbiosome membrane of infected root nodule cells, suggesting a transport role in symbiosis. To investigate its transport function, cRNA encoding GmN70 was expressed in Xenopus laevis oocytes, and two-electrode voltage clamp analysis was performed. Ooctyes expressing GmN70 showed outward currents that are carried by anions with a selectivity of nitrate > nitrite >> chloride. These currents showed little sensitivity to pH or the nature of the counter cation in the oocyte bath solution. One-half maximal currents were induced by nitrate concentrations between 1 to 3 mm. No apparent transport of organic anions was observed. Voltage clamp records of an ortholog of GmN70 from Lotus japonicus (LjN70; K. Szczyglowski, P. Kapranov, D. Hamburger, F.J. de Bruijn [1998] Plant Mol Biol 37: 651-661) also showed anion currents with a similar selectivity profile. Overall, these findings suggest that GmN70 and LjN70 are inorganic anion transporters of the symbiosome membrane with enhanced preference for nitrate. These transport activities may aid in regulation of ion and membrane potential homeostasis, possibly in response to external nitrate concentrations that are known to regulate the symbiosis.
p15
sS'pageEnd'
p16
I1444
sS'publisherAddress'
p17
V15501 MONONA DRIVE, ROCKVILLE, MD 20855 USA
p18
sS'documentType'
p19
VArticle
p20
sS'subject'
p21
VPlant Sciences
p22
sS'isoSource'
p23
VPlant Physiol.
p24
sS'timesCited'
p25
(lp26
I17
aVZ9 17
p27
asS'PT'
p28
VJ
sS'title'
p29
VGmn70 And Ljn70. Anion Transporters Of The Symbiosome Membrane Of Nodules With A Transport Preference For Nitrate
p30
sS'ISSN'
p31
(lp32
V0032-0889
p33
aVJ9 PLANT PHYSIOL
p34
asS'authors_full'
p35
(lp36
(VVINCILL
VED
tp37
a(VSZCZYGLOWSKI
VK
tp38
a(VROBERTS
VDM
tp39
asS'PG'
p40
I10
sS'PD'
p41
VAPR
p42
sS'pageStart'
p43
I1435
sS'issue'
p44
I4
sS'journal'
p45
VPLANT PHYSIOLOGY
p46
sS'volume'
p47
V137
p48
sS'doi'
p49
V10.1104/pp.104.051953
p50
sS'emailAddress'
p51
Vdrobert2@utk.edu
p52
sS'authorAddress'
p53
(lp54
VUniv Tennessee, Dept Biochem & Cellular & Mol Biol, Knoxville, TN 37996 USA.
p55
aVAgr & Agri Food Canada, So Crop Protect & Food Res Ctr, London, ON N5V 4T3, Canada.
p56
asS'date'
p57
I2005
sS'ER'
p58
V
sS'publisher'
p59
VAMER SOC PLANT BIOLOGISTS
p60
sS'authorKeywords'
p61
(lp62
VLEGUME ROOT-NODULE
p63
aVPERIBACTEROID MEMBRANE
p64
aVSOYBEAN NODULES
p65
aVLOTUS-JAPONICUS
p66
aVSYMBIOTIC MEMBRANES
p67
aVNITROGEN-FIXATION
p68
aVXENOPUS OOCYTES
p69
aVATPASE ACTIVITY
p70
aVPLANTS
p71
aVNODULIN-26
p72
asS'language'
p73
VEnglish
p74
sS'wosid'
p75
VWOS:000228583100024
p76
sS'citationCount'
p77
I47
sS'authors_init'
p78
(lp79
(VVINCILL
VE D
tp80
a(VSZCZYGLOWSKI
VK
tp81
a(VROBERTS
VD M
tp82
asS'citedReferences'
p83
(lp84
g1
(g2
g3
NtRp85
(dp86
g49
Nsg45
VJ BIOL CHEM
p87
sg47
V271
p88
sg78
(lp89
(VABE
VK
tp90
asg57
I1996
sg43
V6789
p91
sbag1
(g2
g3
NtRp92
(dp93
g49
V10.1093/jxb/48.4.905
p94
sg45
VJ EXP BOT
p95
sg47
V48
p96
sg78
(lp97
(VARRESEIGOR
VC
tp98
asg57
I1997
sg43
V905
p99
sbag1
(g2
g3
NtRp100
(dp101
g49
V10.1016/S0005-2736(00)00139-5
p102
sg45
VBBA
p103
sg47
V1465
p104
sg78
(lp105
(VBARBIER-BRYGOO
VH
tp106
asg57
I2000
sg43
V199
p107
sbag1
(g2
g3
NtRp108
(dp109
g49
V10.1104/pp.78.4.665
p110
sg45
VPLANT PHYSIOL
p111
sg47
V78
p112
sg78
(lp113
(VBLUMWALD
VE
tp114
asg57
I1985
sg43
VLANT
p115
sbag1
(g2
g3
NtRp116
(dp117
g49
V10.1146/annurev.cb.07.110191.001203
p118
sg45
VANNU REV CELL BIOL
p119
sg47
V7
sg78
(lp120
(VBREWIN
VN J
tp121
asg57
I1991
sg43
V191
p122
sbag1
(g2
g3
NtRp123
(dp124
g49
V10.1016/0005-2736(95)00254-5
p125
sg45
VBBA
p126
sg47
V1279
p127
sg78
(lp128
(VCARPENTER
VL
tp129
asg57
I1996
sg43
V157
p130
sbag1
(g2
g3
NtRp131
(dp132
g49
Nsg45
VMolecular biology of symbiotic nitrogen fixation
p133
sg47
Nsg78
(lp134
(VCARROLL
VB J
tp135
asg57
I1990
sg43
V159
p136
sbag1
(g2
g3
NtRp137
(dp138
g49
Nsg45
VAUST J PLANT PHYSIOL
p139
sg47
V14
p140
sg78
(lp141
(VCARROLL
VB J
tp142
asg57
I1987
sg43
V679
p143
sbag1
(g2
g3
NtRp144
(dp145
g49
V10.1002/elps.200305711
p146
sg45
VELECTROPHORESIS
p147
sg47
V25
p148
sg78
(lp149
(VCATALANO
VC M
tp150
asg57
I2004
sg43
V519
p151
sbag1
(g2
g3
NtRp152
(dp153
g49
V10.3109/10409238709086960
p154
sg45
VCRIT REV BIOCHEM MOL
p155
sg47
V22
p156
sg78
(lp157
(VDASCAL
VN
tp158
asg57
I1987
sg43
V317
p159
sbag1
(g2
g3
NtRp160
(dp161
g49
V10.1007/PL00000778
p162
sg45
VCELL MOL LIFE SCI
p163
sg47
V58
p164
sg78
(lp165
(VDAY
VD A
tp166
asg57
I2001
sg43
V61
p167
sbag1
(g2
g3
NtRp168
(dp169
g49
V10.1021/bi982110c
p170
sg45
VBIOCHEMISTRY
p171
sg47
V38
p172
sg78
(lp173
(VDEAN
VR M
tp174
asg57
I1999
sg43
V347
p175
sbag1
(g2
g3
NtRp176
(dp177
g49
V10.1016/S0005-2736(00)00140-1
p178
sg45
VBBA
p179
sg47
V1465
p180
sg78
(lp181
(VFORDE
VB G
tp182
asg57
I2000
sg43
V219
p183
sbag1
(g2
g3
NtRp184
(dp185
g49
V10.1093/nar/15.2.813
p186
sg45
VNUCLEIC ACIDS RES
p187
sg47
V15
p188
sg78
(lp189
(VFORTIN
VM G
tp190
asg57
I1987
sg43
V813
p191
sbag1
(g2
g3
NtRp192
(dp193
g49
Nsg45
VEMBO J
p194
sg47
V4
sg78
(lp195
(VFORTIN
VM G
tp196
asg57
I1985
sg43
V3041
p197
sbag1
(g2
g3
NtRp198
(dp199
g49
V10.1007/s004250050675
p200
sg45
VPLANTA
p201
sg47
V210
p202
sg78
(lp203
(VGUENTHER
VJ F
tp204
asg57
I2000
sg43
VLANTA
p205
sbag1
(g2
g3
NtRp206
(dp207
g49
V10.1105/tpc.009787
p208
sg45
VPLANT CELL
p209
sg47
V15
p210
sg78
(lp211
(VGUENTHER
VJ F
tp212
asg57
I2003
sg43
VLANT
p213
sbag1
(g2
g3
NtRp214
(dp215
g49
V10.1104/pp.103.032102
p216
sg45
VPLANT PHYSIOL
p217
sg47
V134
p218
sg78
(lp219
(VJEONG
VJ Y
tp220
asg57
I2004
sg43
VLANT
p221
sbag1
(g2
g3
NtRp222
(dp223
g49
V10.1046/j.1365-313X.2003.01802.x
p224
sg45
VPLANT J
p225
sg47
V35
p226
sg78
(lp227
(VKAISER
VB N
tp228
asg57
I2003
sg43
VLANT
p229
sbag1
(g2
g3
NtRp230
(dp231
g49
V10.1093/nar/12.18.7057
p232
sg45
VNUCLEIC ACIDS RES
p233
sg47
V12
p234
sg78
(lp235
(VKRIEG
VP A
tp236
asg57
I1984
sg43
V7057
p237
sbag1
(g2
g3
NtRp238
(dp239
g49
Nsg45
VJ MOL BIOL
p240
sg47
V157
p241
sg78
(lp242
(VKYLE
VJ
tp243
asg57
I1982
sg43
V105
p244
sbag1
(g2
g3
NtRp245
(dp246
g49
V10.1016/S1369-5266(03)00068-2
p247
sg45
VCURR OPIN PLANT BIOL
p248
sg47
V6
sg78
(lp249
(VLIMPENS
VE
tp250
asg57
I2003
sg43
V343
p251
sbag1
(g2
g3
NtRp252
(dp253
g49
Nsg45
VACTA BIOCHIM POL
p254
sg47
V49
p255
sg78
(lp256
(VLUCINSKI
VR
tp257
asg57
I2002
sg43
V537
p258
sbag1
(g2
g3
NtRp259
(dp260
g49
V10.1085/jgp.113.2.249
p261
sg45
VJ GEN PHYSIOL
p262
sg47
V113
p263
sg78
(lp264
(VMACHACA
VK
tp265
asg57
I1999
sg43
V249
p266
sbag1
(g2
g3
NtRp267
(dp268
g49
V10.1104/pp.121.1.97
p269
sg45
VPLANT PHYSIOL
p270
sg47
V121
p271
sg78
(lp272
(VMATAMOROS
VM A
tp273
asg57
I1999
sg43
VLANT
p274
sbag1
(g2
g3
NtRp275
(dp276
g49
V10.1074/jbc.M106754200
p277
sg45
VJ BIOL CHEM
p278
sg47
V277
p279
sg78
(lp280
(VMOREAU
VS
tp281
asg57
I2002
sg43
V4738
p282
sbag1
(g2
g3
NtRp283
(dp284
g49
V10.1016/S0014-5793(99)01729-9
p285
sg45
VFEBS LETT
p286
sg47
V465
p287
sg78
(lp288
(VNIEMIETZ
VC M
tp289
asg57
I2000
sg43
V110
p290
sbag1
(g2
g3
NtRp291
(dp292
g49
V10.1093/jexbot/53.370.825
p293
sg45
VJ EXP BOT
p294
sg47
V53
p295
sg78
(lp296
(VORSEL
VM
tp297
asg57
I2002
sg43
V825
p298
sbag1
(g2
g3
NtRp299
(dp300
g49
V10.1094/MPMI.2000.13.3.325
p301
sg45
VMOL PLANT MICROBE IN
p302
sg47
V13
p303
sg78
(lp304
(VPANTER
VS
tp305
asg57
I2000
sg43
V325
p306
sbag1
(g2
g3
NtRp307
(dp308
g49
Nsg45
VMICROBIOL MOL BIOL R
p309
sg47
V62
p310
sg78
(lp311
(VPAO
VS S
tp312
asg57
I1998
sg43
V1
sbag1
(g2
g3
NtRp313
(dp314
g49
V10.1126/science.256.5055.385
p315
sg45
VSCIENCE
p316
sg47
V256
p317
sg78
(lp318
(VPRESTON
VG M
tp319
asg57
I1992
sg43
V385
p320
sbag1
(g2
g3
NtRp321
(dp322
g49
V10.1074/jbc.272.26.16256
p323
sg45
VJ BIOL CHEM
p324
sg47
V272
p325
sg78
(lp326
(VRIVERS
VR L
tp327
asg57
I1997
sg43
V16256
p328
sbag1
(g2
g3
NtRp329
(dp330
g49
V10.1104/pp.128.2.370
p331
sg45
VPLANT PHYSIOL
p332
sg47
V128
p333
sg78
(lp334
(VROBERTS
VD M
tp335
asg57
I2002
sg43
VLANT
p336
sbag1
(g2
g3
NtRp337
(dp338
g49
Nsg45
VMOL GENETICS PLANT
p339
sg47
Nsg78
(lp340
(VROTH
VE
tp341
asg57
I1968
sg43
V220
p342
sbag1
(g2
g3
NtRp343
(dp344
g49
V10.1002/1615-9861(200203)2:3<325::AID-PROT325>3.0.CO;2-W
p345
sg45
VPROTEOMICS
p346
sg47
V2
sg78
(lp347
(VSAALBACH
VG
tp348
asg57
I2002
sg43
VROTEOMICS
p349
sbag1
(g2
g3
NtRp350
(dp351
g49
Nsg45
VMOL CLONING LAB MANU
p352
sg47
Nsg78
(lp353
(VSAMBROOK
VJ
tp354
asg57
I1989
sg43
Nsbag1
(g2
g3
NtRp355
(dp356
g49
Nsg45
VCRC CRIT R PLANT SCI
p357
sg47
V7
sg78
(lp358
(VSTEETER
VJ
tp359
asg57
I1988
sg43
V1
sbag1
(g2
g3
NtRp360
(dp361
g49
V10.1104/pp.124.2.531
p362
sg45
VPLANT PHYSIOL
p363
sg47
V124
p364
sg78
(lp365
(VSTOUGAARD
VJ
tp366
asg57
I2000
sg43
VLANT
p367
sbag1
(g2
g3
NtRp368
(dp369
g49
V10.1023/A:1006043428636
p370
sg45
VPLANT MOL BIOL
p371
sg47
V37
p372
sg78
(lp373
(VSZCZYGLOWSKI
VK
tp374
asg57
I1998
sg43
VLANT
p375
sbag1
(g2
g3
NtRp376
(dp377
g49
V10.1038/378629a0
p378
sg45
VNATURE
p379
sg47
V378
p380
sg78
(lp381
(VTYERMAN
VS D
tp382
asg57
I1995
sg43
V629
p383
sbag1
(g2
g3
NtRp384
(dp385
g49
V10.1146/annurev.arplant.48.1.493
p386
sg45
VANNU REV PLANT PHYS
p387
sg47
V48
p388
sg78
(lp389
(VUDVARDI
VM K
tp390
asg57
I1997
sg43
V493
p391
sbag1
(g2
g3
NtRp392
(dp393
g49
V10.1104/pp.90.3.982
p394
sg45
VPLANT PHYSIOL
p395
sg47
V90
p396
sg78
(lp397
(VUDVARDI
VM K
tp398
asg57
I1989
sg43
VLANT
p399
sbag1
(g2
g3
NtRp400
(dp401
g49
V10.1007/BF00248711
p402
sg45
VARCH MICROBIOL
p403
sg47
V156
p404
sg78
(lp405
(VUDVARDI
VM K
tp406
asg57
I1991
sg43
V362
p407
sbag1
(g2
g3
NtRp408
(dp409
g49
V10.1104/pp.95.1.222
p410
sg45
VPLANT PHYSIOL
p411
sg47
V95
p412
sg78
(lp413
(VWEAVER
VC D
tp414
asg57
I1991
sg43
VLANT
p415
sbag1
(g2
g3
NtRp416
(dp417
g49
V10.1104/pp.102.015362
p418
sg45
VPLANT PHYSIOL
p419
sg47
V131
p420
sg78
(lp421
(VWIENKOOP
VS
tp422
asg57
I2003
sg43
VLANT
p423
sbag1
(g2
g3
NtRp424
(dp425
g49
Nsg45
VPLANTA
p426
sg47
V182
p427
sg78
(lp428
(VYANG
VO L J
tp429
asg57
I1990
sg43
VLANTA
p430
sbag1
(g2
g3
NtRp431
(dp432
g49
Nsg45
VMOL BIOL CELL
p433
sg47
V6
sg78
(lp434
(VZHANG
VY X
tp435
asg57
I1995
sg43
V109
p436
sbasb.