ccopy_reg
_reconstructor
p1
(ctethne.classes.paper
Paper
p2
c__builtin__
object
p3
NtRp4
(dp5
S'publisherCity'
p6
VROCKVILLE
p7
sS'reprintAddress'
p8
VRocha-Sosa, M (reprint author), Univ Nacl Autonoma Mexico, Inst Biotechnol, Cuernavaca 62250, Morelos, Mexico.
p9
sS'WC'
p10
VPlant Sciences
p11
sS'GA'
p12
V093IL
p13
sS'abstract'
p14
VRegulation of the cytosolic acetyl-coenzyme A carboxylase (ACCase) gene promoter from common bean (Phaseolus vulgaris) was studied in transgenic Arabidopsis (Arabidopsis thaliana) plants using a beta-glucuronidase (GUS) reporter gene fusion (PvACCase::GUS). Under normal growth conditions, GUS was expressed in hydathodes, stipules, trichome bases, flowers, pollen, and embryos. In roots, expression was observed in the tip, elongation zone, hypocotyl-root transition zone, and lateral root primordia. The PvACCase promoter was induced by wounding, Pseudomonas syringae infection, hydrogen peroxide, jasmonic acid (JA), ethylene, or auxin treatment. Analysis of PvACCase::GUS expression in JA and ethylene mutants (coronatine insensitive1-1 [coi1-1], ethylene resistant1-1 [etr1-1], coi1-1/etr1-1) suggests that neither JA nor ethylene perception participates in the activation of this gene in response to wounding, although each of these independent signaling pathways is sufficient for pathogen or hydrogen peroxide-induced PvACCase gene expression. We propose a model involving different pathways of PvACCase gene activation in response to stress.
p15
sS'pageEnd'
p16
I619
sS'date'
p17
I2006
sS'documentType'
p18
VArticle
p19
sS'subject'
p20
VPlant Sciences
p21
sS'isoSource'
p22
VPlant Physiol.
p23
sS'timesCited'
p24
(lp25
I8
aVZ9 8
p26
asS'PT'
p27
VJ
sS'title'
p28
VHormonal And Stress Induction Of The Gene Encoding Common Bean Acetyl-Coenzyme A Carboxylase
p29
sS'ISSN'
p30
(lp31
V0032-0889
p32
aVJ9 PLANT PHYSIOL
p33
asS'authors_full'
p34
(lp35
(VFIGUEROABALDERAS
VROSA ELIA
tp36
a(VGARCIAPONCE
VBERENICE
tp37
a(VROCHASOSA
VMARIO
tp38
asS'PG'
p39
I11
sS'PD'
p40
VOCT
p41
sS'pageStart'
p42
I609
sS'issue'
p43
I2
sS'RI'
p44
VFigueroa, Rosa/B-3172-2013
p45
sS'journal'
p46
VPLANT PHYSIOLOGY
p47
sS'volume'
p48
V142
p49
sS'doi'
p50
V10.1104/pp.106.085597
p51
sS'emailAddress'
p52
Vrocha@ibt.unam.mx
p53
sS'authorAddress'
p54
VUniv Nacl Autonoma Mexico, Inst Biotechnol, Cuernavaca 62250, Morelos, Mexico.
p55
sS'publisherAddress'
p56
V15501 MONONA DRIVE, ROCKVILLE, MD 20855 USA
p57
sS'ER'
p58
V
sS'publisher'
p59
VAMER SOC PLANT BIOLOGISTS
p60
sS'authorKeywords'
p61
(lp62
VPLANT DEFENSE GENES
p63
aVARABIDOPSIS-THALIANA
p64
aVCOA CARBOXYLASE
p65
aVAUXIN TRANSPORT
p66
aV12-OXO-PHYTODIENOIC ACID
p67
aVFLAVONOID ACCUMULATION
p68
aVCHALCONE SYNTHASE
p69
aVMETHYL JASMONATE
p70
aVEMBRYO DEVELOPMENT
p71
aVCELL-CULTURES
p72
asS'language'
p73
VEnglish
p74
sS'wosid'
p75
VWOS:000241161900019
p76
sS'citationCount'
p77
I64
sS'authors_init'
p78
(lp79
(VFIGUEROABALDERAS
VR E
tp80
a(VGARCIAPONCE
VB
tp81
a(VROCHASOSA
VM
tp82
asS'citedReferences'
p83
(lp84
g1
(g2
g3
NtRp85
(dp86
g50
V[10.1007/s00425-002-0937-8, 10.1007/s00425-003-1046-z]
p87
sg46
VPLANTA
p88
sg48
V216
p89
sg78
(lp90
(VALONI
VR
tp91
asg17
I2003
sg42
VLANTA
p92
sbag1
(g2
g3
NtRp93
(dp94
g50
V10.1104/pp.109.4.1159
p95
sg46
VPLANT PHYSIOL
p96
sg48
V109
p97
sg78
(lp98
(VLANDRY
VL G
tp99
asg17
I1995
sg42
VLANT
p100
sbag1
(g2
g3
NtRp101
(dp102
g50
V10.1038/sj.embor.7400124
p103
sg46
VEMBO REP
p104
sg48
V5
sg78
(lp105
(VBAUD
VS
tp106
asg17
I2004
sg42
V515
p107
sbag1
(g2
g3
NtRp108
(dp109
g50
V10.1046/j.1365-313X.2003.016010.x
p110
sg46
VPLANT J
p111
sg48
V33
p112
sg78
(lp113
(VBAUD
VS
tp114
asg17
I2003
sg42
VLANT
p115
sbag1
(g2
g3
NtRp116
(dp117
g50
V10.1073/pnas.81.11.3384
p118
sg46
VP NATL ACAD SCI
p119
sg48
V81
p120
sg78
(lp121
(VBELL
VJ N
tp122
asg17
I1984
sg42
V3384
p123
sbag1
(g2
g3
NtRp124
(dp125
g50
V10.1105/tpc.7.9.1405
p126
sg46
VPLANT CELL
p127
sg48
V7
sg78
(lp128
(VBOERJAN
VW
tp129
asg17
I1995
sg42
VLANT
p130
sbag1
(g2
g3
NtRp131
(dp132
g50
V10.1104/pp.126.2.524
p133
sg46
VPLANT PHYSIOL
p134
sg48
V126
p135
sg78
(lp136
(VBROWN
VD E
tp137
asg17
I2001
sg42
VLANT
p138
sbag1
(g2
g3
NtRp139
(dp140
g50
V10.1104/pp.105.075671
p141
sg46
VPLANT PHYSIOL
p142
sg48
V140
p143
sg78
(lp144
(VBUER
VC S
tp145
asg17
I2006
sg42
VLANT
p146
sbag1
(g2
g3
NtRp147
(dp148
g50
V10.1105/tpc.13.4.843
p149
sg46
VPLANT CELL
p150
sg48
V13
p151
sg78
(lp152
(VCASIMIRO
VI
tp153
asg17
I2001
sg42
VLANT
p154
sbag1
(g2
g3
NtRp155
(dp156
g50
V10.1126/science.8211181
p157
sg46
VSCIENCE
p158
sg48
V262
p159
sg78
(lp160
(VCHANG
VC
tp161
asg17
I1993
sg42
V539
p162
sbag1
(g2
g3
NtRp163
(dp164
g50
V10.1046/j.1365-313x.1998.00343.x
p165
sg46
VPLANT J
p166
sg48
V16
p167
sg78
(lp168
(VCLOUGH
VS J
tp169
asg17
I1998
sg42
VLANT
p170
sbag1
(g2
g3
NtRp171
(dp172
g50
V10.1007/s000180050041
p173
sg46
VCELL MOL LIFE SCI
p174
sg48
V57
p175
sg78
(lp176
(VDAT
VJ
tp177
asg17
I2000
sg42
V779
p178
sbag1
(g2
g3
NtRp179
(dp180
g50
V10.1007/s11103-005-7306-5
p181
sg46
VPLANT MOL BIOL
p182
sg48
V58
p183
sg78
(lp184
(VDEVOTO
VA
tp185
asg17
I2005
sg42
VLANT
p186
sbag1
(g2
g3
NtRp187
(dp188
g50
V10.1016/0014-5793(92)80733-W
p189
sg46
VFEBS LETT
p190
sg48
V309
p191
sg78
(lp192
(VDITTRICH
VH
tp193
asg17
I1992
sg42
V33
p194
sbag1
(g2
g3
NtRp195
(dp196
g50
V10.1105/tpc.7.7.1085
p197
sg46
VPLANT CELL
p198
sg48
V7
sg78
(lp199
(VDIXON
VR A
tp200
asg17
I1995
sg42
VLANT
p201
sbag1
(g2
g3
NtRp202
(dp203
g50
V10.1093/emboj/16.4.726
p204
sg46
VEMBO J
p205
sg48
V16
p206
sg78
(lp207
(VDROGELASER
VW
tp208
asg17
I1997
sg42
V726
p209
sbag1
(g2
g3
NtRp210
(dp211
g50
V10.1111/j.1432-1033.1977.tb11518.x
p212
sg46
VEUR J BIOCHEM
p213
sg48
V75
p214
sg78
(lp215
(VEBEL
VJ
tp216
asg17
I1977
sg42
V201
p217
sbag1
(g2
g3
NtRp218
(dp219
g50
V10.1073/pnas.84.15.5202
p220
sg46
VP NATL ACAD SCI USA
p221
sg48
V84
p222
sg78
(lp223
(VECKER
VJ R
tp224
asg17
I1987
sg42
V5202
p225
sbag1
(g2
g3
NtRp226
(dp227
g50
V10.1093/emboj/18.17.4689
p228
sg46
VEMBO J
p229
sg48
V18
p230
sg78
(lp231
(VEULGEM
VT
tp232
asg17
I1999
sg42
V4689
p233
sbag1
(g2
g3
NtRp234
(dp235
g50
V10.1007/BF01101680
p236
sg46
VPLANTA
p237
sg48
V194
p238
sg78
(lp239
(VEVANS
VM L
tp240
asg17
I1994
sg42
VLANTA
p241
sbag1
(g2
g3
NtRp242
(dp243
g50
V10.1046/j.1365-313X.1997.11051105.x
p244
sg46
VPLANT J
p245
sg48
V11
p246
sg78
(lp247
(VFAKTOR
VO
tp248
asg17
I1997
sg42
VLANT
p249
sbag1
(g2
g3
NtRp250
(dp251
g50
Nsg46
VPLANT CELL
p252
sg48
V6
sg78
(lp253
(VFEYS
VB J F
tp254
asg17
I1994
sg42
VLANT
p255
sbag1
(g2
g3
NtRp256
(dp257
g50
V10.1073/pnas.88.15.6745
p258
sg46
VP NATL ACAD SCI USA
p259
sg48
V88
p260
sg78
(lp261
(VFRANCESCHI
VV R
tp262
asg17
I1991
sg42
V6745
p263
sbag1
(g2
g3
NtRp264
(dp265
g50
V10.1046/j.1365-313X.2003.01705.x
p266
sg46
VPLANT J
p267
sg48
V34
p268
sg78
(lp269
(VFRIML
VJ
tp270
asg17
I2003
sg42
VLANT
p271
sbag1
(g2
g3
NtRp272
(dp273
g50
Nsg46
VTHESIS I BIOTECHNOLO
p274
sg48
Nsg78
(lp275
(VGARCIAPONCE
VB
tp276
asg17
I2000
sg42
Nsbag1
(g2
g3
NtRp277
(dp278
g50
V10.1016/S0168-9452(00)00285-5
p279
sg46
VPLANT SCI
p280
sg48
V157
p281
sg78
(lp282
(VGARCIA-PONCE
VB
tp283
asg17
I2000
sg42
VLANT
p284
sbag1
(g2
g3
NtRp285
(dp286
g50
V10.1104/pp.103.034736
p287
sg46
VPLANT PHYSIOL
p288
sg48
V134
p289
sg78
(lp290
(VGODA
VH
tp291
asg17
I2004
sg42
VLANT
p292
sbag1
(g2
g3
NtRp293
(dp294
g50
V10.1146/annurev.arplant.39.1.101
p295
sg46
VANNU REV PLANT PHYS
p296
sg48
V39
p297
sg78
(lp298
(VHARWOOD
VJ L
tp299
asg17
I1988
sg42
V101
p300
sbag1
(g2
g3
NtRp301
(dp302
g50
V10.1007/s00122-004-1641-9
p303
sg46
VTHEOR APPL GENET
p304
sg48
V109
p305
sg78
(lp306
(VHE
VX J
tp307
asg17
I2004
sg42
V377
p308
sbag1
(g2
g3
NtRp309
(dp310
g50
V10.1094/MPMI.1998.11.6.537
p311
sg46
VMOL PLANT MICROBE IN
p312
sg48
V11
p313
sg78
(lp314
(VHUGOUVIEUX
VV
tp315
asg17
I1998
sg42
V537
p316
sbag1
(g2
g3
NtRp317
(dp318
g50
V10.1007/BF02667740
p319
sg46
VPLANT MOL BIOL REP
p320
sg48
V5
sg78
(lp321
(VJEFFERSON
VR
tp322
asg17
I1987
sg42
VLANT
p323
sbag1
(g2
g3
NtRp324
(dp325
g50
V10.1093/pcp/pch148
p326
sg46
VPLANT CELL PHYSIOL
p327
sg48
V45
p328
sg78
(lp329
(VKAJIWARA
VT
tp330
asg17
I2004
sg42
VLANT
p331
sbag1
(g2
g3
NtRp332
(dp333
g50
Nsg46
VPLANT CELL PHYSIOL
p334
sg48
V37
p335
sg78
(lp336
(VKONISHI
VT
tp337
asg17
I1996
sg42
VLANT
p338
sbag1
(g2
g3
NtRp339
(dp340
g50
V10.1073/pnas.91.9.3598
p341
sg46
VP NATL ACAD SCI USA
p342
sg48
V91
p343
sg78
(lp344
(VKONISHI
VT
tp345
asg17
I1994
sg42
V3598
p346
sbag1
(g2
g3
NtRp347
(dp348
g50
Nsg46
VMOL CELL BIOL
p349
sg48
V7
sg78
(lp350
(VLAWTON
VM A
tp351
asg17
I1987
sg42
V335
p352
sbag1
(g2
g3
NtRp353
(dp354
g50
V10.1093/nar/30.1.325
p355
sg46
VNUCLEIC ACIDS RES
p356
sg48
V30
p357
sg78
(lp358
(VLESCOT
VM
tp359
asg17
I2002
sg42
V325
p360
sbag1
(g2
g3
NtRp361
(dp362
g50
V10.1007/BF00397737
p363
sg46
VPLANTA
p364
sg48
V158
p365
sg78
(lp366
(VLIU
VY
tp367
asg17
I1983
sg42
VLANTA
p368
sbag1
(g2
g3
NtRp369
(dp370
g50
V10.1105/tpc.104.029272
p371
sg46
VPLANT CELL
p372
sg48
V17
p373
sg78
(lp374
(VLJUNG
VK
tp375
asg17
I2005
sg42
VLANT
p376
sbag1
(g2
g3
NtRp377
(dp378
g50
V10.1016/0003-2697(87)90086-8
p379
sg46
VANAL BIOCHEM
p380
sg48
V163
p381
sg78
(lp382
(VLOGEMANN
VJ
tp383
asg17
I1987
sg42
V16
p384
sbag1
(g2
g3
NtRp385
(dp386
g50
V10.1007/BF00714463
p387
sg46
VPLANTA
p388
sg48
V194
p389
sg78
(lp390
(VLOIS
VR
tp391
asg17
I1994
sg42
VLANTA
p392
sbag1
(g2
g3
NtRp393
(dp394
g50
Nsg46
VDEVELOPMENT
p395
sg48
V124
p396
sg78
(lp397
(VMALAMY
VJ E
tp398
asg17
I1997
sg42
V33
p399
sbag1
(g2
g3
NtRp400
(dp401
g50
Nsg46
VP118
p402
sg48
Nsg78
(lp403
(VMCKEON
VTHOMAS A
tp404
asg17
I1995
sg42
V118
p405
sbag1
(g2
g3
NtRp406
(dp407
g50
V10.1016/S0981-9428(99)80047-3
p408
sg46
VPLANT PHYSIOL BIOCH
p409
sg48
V37
p410
sg78
(lp411
(VMURPHY
VA
tp412
asg17
I1999
sg42
VLANT
p413
sbag1
(g2
g3
NtRp414
(dp415
g50
V10.1007/s004250000300
p416
sg46
VPLANTA
p417
sg48
V211
p418
sg78
(lp419
(VMURPHY
VA
tp420
asg17
I2000
sg42
VLANTA
p421
sbag1
(g2
g3
NtRp422
(dp423
g50
V10.1126/science.274.5294.1914
p424
sg46
VSCIENCE
p425
sg48
V274
p426
sg78
(lp427
(VODONNELL
VP J
tp428
asg17
I1996
sg42
V1914
p429
sbag1
(g2
g3
NtRp430
(dp431
g50
V10.1104/pp.010862
p432
sg46
VPLANT PHYSIOL
p433
sg48
V128
p434
sg78
(lp435
(VONATE-SANCHEZ
VL
tp436
asg17
I2002
sg42
VLANT
p437
sbag1
(g2
g3
NtRp438
(dp439
g50
V10.1104/pp.115.3.1057
p440
sg46
VPLANT PHYSIOL
p441
sg48
V115
p442
sg78
(lp443
(VPARCHMANN
VS
tp444
asg17
I1997
sg42
VLANT
p445
sbag1
(g2
g3
NtRp446
(dp447
g50
V10.1105/tpc.021501
p448
sg46
VPLANT CELL
p449
sg48
V16
p450
sg78
(lp451
(VPEER
VW A
tp452
asg17
I2004
sg42
VLANT
p453
sbag1
(g2
g3
NtRp454
(dp455
g50
V10.1104/pp.126.2.536
p456
sg46
VPLANT PHYSIOL
p457
sg48
V126
p458
sg78
(lp459
(VPEER
VW A
tp460
asg17
I2001
sg42
VLANT
p461
sbag1
(g2
g3
NtRp462
(dp463
g50
V10.1105/tpc.10.12.2103
p464
sg46
VPLANT CELL
p465
sg48
V10
p466
sg78
(lp467
(VPENNINCKX
VIAMA
tp468
asg17
I1998
sg42
VLANT
p469
sbag1
(g2
g3
NtRp470
(dp471
g50
V10.1094/MPMI-6-680
p472
sg46
VMOL PLANT MICROBE IN
p473
sg48
V6
sg78
(lp474
(VPOTTER
VS
tp475
asg17
I1993
sg42
V680
p476
sbag1
(g2
g3
NtRp477
(dp478
g50
V10.1105/tpc.12.5.707
p479
sg46
VPLANT CELL
p480
sg48
V12
p481
sg78
(lp482
(VREYMOND
VP
tp483
asg17
I2000
sg42
VLANT
p484
sbag1
(g2
g3
NtRp485
(dp486
g50
V10.1104/pp.105.2.611
p487
sg46
VPLANT PHYSIOL
p488
sg48
V105
p489
sg78
(lp490
(VROESLER
VK R
tp491
asg17
I1994
sg42
VLANT
p492
sbag1
(g2
g3
NtRp493
(dp494
g50
V10.1046/j.1365-313x.1999.00570.x
p495
sg46
VPLANT J
p496
sg48
V20
p497
sg78
(lp498
(VROJO
VE
tp499
asg17
I1999
sg42
VLANT
p500
sbag1
(g2
g3
NtRp501
(dp502
g50
V10.1046/j.1365-313x.2001.01073.x
p503
sg46
VPLANT J
p504
sg48
V27
p505
sg78
(lp506
(VSASLOWSKY
VD
tp507
asg17
I2001
sg42
VLANT
p508
sbag1
(g2
g3
NtRp509
(dp510
g50
V10.1111/j.1432-1033.1988.tb13868.x
p511
sg46
VEUR J BIOCHEM
p512
sg48
V172
p513
sg78
(lp514
(VSCHRODER
VG
tp515
asg17
I1988
sg42
V161
p516
sbag1
(g2
g3
NtRp517
(dp518
g50
V10.1073/pnas.94.7.3465
p519
sg46
VP NATL ACAD SCI USA
p520
sg48
V94
p521
sg78
(lp522
(VSCHULTE
VW
tp523
asg17
I1997
sg42
V3465
p524
sbag1
(g2
g3
NtRp525
(dp526
g50
V10.1073/pnas.211311098
p527
sg46
VP NATL ACAD SCI USA
p528
sg48
V98
p529
sg78
(lp530
(VSTINTZI
VA
tp531
asg17
I2001
sg42
V12837
p532
sbag1
(g2
g3
NtRp533
(dp534
g50
V10.1104/pp.105.067058
p535
sg46
VPLANT PHYSIOL
p536
sg48
V139
p537
sg78
(lp538
(VTAKI
VN
tp539
asg17
I2005
sg42
VLANT
p540
sbag1
(g2
g3
NtRp541
(dp542
g50
V10.1023/A:1015557300450
p543
sg46
VPLANT MOL BIOL
p544
sg48
V49
p545
sg78
(lp546
(VWAGNER
VU
tp547
asg17
I2002
sg42
VLANT
p548
sbag1
(g2
g3
NtRp549
(dp550
g50
V10.1105/tpc.11.7.1337
p551
sg46
VPLANT CELL
p552
sg48
V11
p553
sg78
(lp554
(VWALKER
VA R
tp555
asg17
I1999
sg42
VLANT
p556
sbag1
(g2
g3
NtRp557
(dp558
g50
Nsg46
VPLANT PHYSIOL
p559
sg48
V115
p560
sg78
(lp561
(VYAMASAKI
VH
tp562
asg17
I1997
sg42
VLANT
p563
sbag1
(g2
g3
NtRp564
(dp565
g50
V10.1046/j.1365-313X.1999.00437.x
p566
sg46
VPLANT J
p567
sg48
V18
p568
sg78
(lp569
(VYANG
VP Z
tp570
asg17
I1999
sg42
VLANT
p571
sbag1
(g2
g3
NtRp572
(dp573
g50
V10.1073/pnas.95.17.10294
p574
sg46
VP NATL ACAD SCI USA
p575
sg48
V95
p576
sg78
(lp577
(VZHOU
VL
tp578
asg17
I1998
sg42
V10294
p579
sbasb.