ccopy_reg
_reconstructor
p1
(ctethne.classes.paper
Paper
p2
c__builtin__
object
p3
NtRp4
(dp5
S'publisherCity'
p6
VROCKVILLE
p7
sS'reprintAddress'
p8
VPolacco, JC (reprint author), Univ Missouri, Dept Biochem, 117 Schweitzer Hall, Columbia, MO 65211 USA.
p9
sS'WC'
p10
VPlant Sciences
p11
sS'GA'
p12
V157EX
p13
sS'abstract'
p14
VArginase (EC 3.5.3.1) transcript level and activity were measured in soybean (Glycine max L.) embryos from the reserve deposition stage to postgermination. Using a cDNA probe for a small soybean arginase gene family, no transcript was detected in developing embryos. However, arginase transcripts increased sharply on germination, reaching a maximum at 3 to 5 d after germination. There was low but measurable in vitro arginase specific activity in developing embryos (less than 6% of seedling maximum). During germination arginase specific activity increased in parallel with the sharply increasing arginase transcript level. Seedling arginase activity was largely localized in cotyledons. Arginase activity was assayed in vivo by measuring urea accumulation in a urease-deficient mutant. No urea was detected in developing embryos, whereas accumulated urea paralleled arginase specific activity and transcript level in germinating seedlings. As in planta embryos, cultured cotyledons did not accumulate urea when arginine (Arg) was provided with other amino acids in a "mock" seed-coat exudate. Arg as the sole nitrogen source was converted to urea but did not support cotyledon growth. There appeared to be a lack of recruitment of the low-level arginase activity to hydrolyze free Arg in developing embryos, thus avoiding a futile urea cycle.
p15
sS'pageEnd'
p16
I303
sS'publisherAddress'
p17
V15501 MONONA DRIVE, ROCKVILLE, MD 20855 USA
p18
sS'documentType'
p19
VArticle
p20
sS'subject'
p21
VPlant Sciences
p22
sS'isoSource'
p23
VPlant Physiol.
p24
sS'timesCited'
p25
(lp26
I40
aVZ9 43
p27
asS'PT'
p28
VJ
sS'title'
p29
VArginase Is Inoperative In Developing Soybean Embryos
p30
sS'ISSN'
p31
(lp32
V0032-0889
p33
aVJ9 PLANT PHYSIOL
p34
asS'authors_full'
p35
(lp36
(VGOLDRAIJ
VA
tp37
a(VPOLACCO
VJC
tp38
asS'PG'
p39
I7
sS'PD'
p40
VJAN
p41
sS'pageStart'
p42
I297
sS'issue'
p43
I1
sS'journal'
p44
VPLANT PHYSIOLOGY
p45
sS'volume'
p46
V119
p47
sS'doi'
p48
V10.1104/pp.119.1.297
p49
sS'authorAddress'
p50
(lp51
VUniv Missouri, Dept Biochem, Columbia, MO 65211 USA.
p52
aVUniv Missouri, Interdisciplinary Plant Grp, Columbia, MO 65211 USA.
p53
asS'date'
p54
I1999
sS'ER'
p55
V
sS'publisher'
p56
VAMER SOC PLANT PHYSIOLOGISTS
p57
sS'authorKeywords'
p58
(lp59
VARGININE METABOLISM
p60
aVGLYCINE-MAX
p61
aVUREASE
p62
aVCOTYLEDONS
p63
aVSEEDS
p64
aVINHIBITION
p65
aVBIOSYNTHESIS
p66
aVGERMINATION
p67
aVNUTRITION
p68
aVACIDS
p69
asS'language'
p70
VEnglish
p71
sS'wosid'
p72
VWOS:000078048300034
p73
sS'citationCount'
p74
I33
sS'authors_init'
p75
(lp76
(VGOLDRAIJ
VA
tp77
a(VPOLACCO
VJ C
tp78
asS'citedReferences'
p79
(lp80
g1
(g2
g3
NtRp81
(dp82
g48
V10.1111/j.1399-3054.1972.tb03554.x
p83
sg44
VPHYSIOL PLANTARUM
p84
sg46
V26
p85
sg75
(lp86
(VCHOU
VK
tp87
asg54
I1972
sg42
VHYSIOL
p88
sbag1
(g2
g3
NtRp89
(dp90
g48
V10.1006/bbrc.1994.1909
p91
sg44
VBIOCHEM BIOPH RES CO
p92
sg46
V202
p93
sg75
(lp94
(VDAGHIGH
VF
tp95
asg54
I1994
sg42
V174
p96
sbag1
(g2
g3
NtRp97
(dp98
g48
VDOI 10.1007/BF02712670
p99
sg44
VPLANT MOL BIOL REP
p100
sg46
V1
sg75
(lp101
(VDELLAPORTA
VS L
tp102
asg54
I1983
sg42
VLANT
p103
sbag1
(g2
g3
NtRp104
(dp105
g48
V10.1104/pp.73.3.525
p106
sg44
VPLANT PHYSIOL
p107
sg46
V73
p108
sg75
(lp109
(VDERUITER
VH
tp110
asg54
I1983
sg42
VLANT
p111
sbag1
(g2
g3
NtRp112
(dp113
g48
Nsg44
VPLANT PHYSIOL
p114
sg46
V116
p115
sg75
(lp116
(VGOLDRAIJ
VA
tp117
asg54
I1998
sg42
VLANT
p118
sbag1
(g2
g3
NtRp119
(dp120
g48
V10.1016/0304-4157(89)90002-6
p121
sg44
VBIOCHIM BIOPHYS ACTA
p122
sg46
V988
p123
sg75
(lp124
(VHARTL
VF U
tp125
asg54
I1989
sg42
V1
sbag1
(g2
g3
NtRp126
(dp127
g48
V10.1016/0305-0491(95)02138-8
p128
sg44
VCOMP BIOCHEM PHYS B
p129
sg46
V114
p130
sg75
(lp131
(VJENKINSON
VC P
tp132
asg54
I1996
sg42
V107
p133
sbag1
(g2
g3
NtRp134
(dp135
g48
V10.1104/pp.93.3.1230
p136
sg44
VPLANT PHYSIOL
p137
sg46
V93
p138
sg75
(lp139
(VKANG
VJ H
tp140
asg54
I1990
sg42
VLANT
p141
sbag1
(g2
g3
NtRp142
(dp143
g48
Nsg44
VPLANT PHYSIOL
p144
sg46
V113
p145
sg75
(lp146
(VKING
VJ E
tp147
asg54
I1997
sg42
VLANT
p148
sbag1
(g2
g3
NtRp149
(dp150
g48
V10.1104/pp.55.3.507
p151
sg44
VPLANT PHYSIOL
p152
sg46
V55
p153
sg75
(lp154
(VKOLLOFFEL
VC
tp155
asg54
I1975
sg42
VLANT
p156
sbag1
(g2
g3
NtRp157
(dp158
g48
V10.1104/pp.107.4.1479
p159
sg44
VPLANT PHYSIOL
p160
sg46
V107
p161
sg75
(lp162
(VKRUMPELMAN
VP M
tp163
asg54
I1995
sg42
VLANT
p164
sbag1
(g2
g3
NtRp165
(dp166
g48
V10.1007/BF02197808
p167
sg44
VPLANT SOIL
p168
sg46
V85
p169
sg75
(lp170
(VLIAO
VC F H
tp171
asg54
I1985
sg42
VLANT
p172
sbag1
(g2
g3
NtRp173
(dp174
g48
Nsg44
VJ BIOL CHEM
p175
sg46
V193
p176
sg75
(lp177
(VLOWRY
VO H
tp178
asg54
I1951
sg42
V265
p179
sbag1
(g2
g3
NtRp180
(dp181
g48
V10.1111/j.1399-3054.1984.tb04578.x
p182
sg44
VPHYSIOL PLANTARUM
p183
sg46
V62
p184
sg75
(lp185
(VMATSUBARA
VS
tp186
asg54
I1984
sg42
VHYSIOL
p187
sbag1
(g2
g3
NtRp188
(dp189
g48
V10.1007/BF00331146
p190
sg44
VMOL GEN GENET
p191
sg46
V209
p192
sg75
(lp193
(VMEYERBOTHLING
VL E
tp194
asg54
I1987
sg42
V432
p195
sbag1
(g2
g3
NtRp196
(dp197
g48
Nsg44
VMOL GEN GENET
p198
sg46
V209
p199
sg75
(lp200
(VMEYERBOTHLING
VL E
tp201
asg54
I1987
sg42
V439
p202
sbag1
(g2
g3
NtRp203
(dp204
g48
V10.1104/pp.90.2.631
p205
sg44
VPLANT PHYSIOL
p206
sg46
V90
p207
sg75
(lp208
(VMICALLEF
VB J
tp209
asg54
I1989
sg42
VLANT
p210
sbag1
(g2
g3
NtRp211
(dp212
g48
V10.1104/pp.90.2.624
p213
sg44
VPLANT PHYSIOL
p214
sg46
V90
p215
sg75
(lp216
(VMICALLEF
VB J
tp217
asg54
I1989
sg42
VLANT
p218
sbag1
(g2
g3
NtRp219
(dp220
g48
V10.1104/pp.91.1.170
p221
sg44
VPLANT PHYSIOL
p222
sg46
V91
p223
sg75
(lp224
(VMICALLEF
VB J
tp225
asg54
I1989
sg42
VLANT
p226
sbag1
(g2
g3
NtRp227
(dp228
g48
V10.1038/367563a0
p229
sg44
VNATURE
p230
sg46
V367
p231
sg75
(lp232
(VMURFETT
VJ
tp233
asg54
I1994
sg42
V563
p234
sbag1
(g2
g3
NtRp235
(dp236
g48
V10.1104/pp.70.1.189
p237
sg44
VPLANT PHYSIOL
p238
sg46
V70
p239
sg75
(lp240
(VPOLACCO
VJ C
tp241
asg54
I1982
sg42
VLANT
p242
sbag1
(g2
g3
NtRp243
(dp244
g48
V10.1016/S0074-7696(08)60425-8
p245
sg44
VINT REV CYTOL
p246
sg46
V145
p247
sg75
(lp248
(VPOLACCO
VJ C
tp249
asg54
I1993
sg42
V65
p250
sbag1
(g2
g3
NtRp251
(dp252
g48
V10.1104/pp.74.2.329
p253
sg44
VPLANT PHYSIOL
p254
sg46
V74
p255
sg75
(lp256
(VRAINBIRD
VR M
tp257
asg54
I1984
sg42
VLANT
p258
sbag1
(g2
g3
NtRp259
(dp260
g48
V10.1016/0076-6879(71)17203-5
p261
sg44
VMETHOD ENZYMOL
p262
sg46
V17A
p263
sg75
(lp264
(VSCHIMKE
VR T
tp265
asg54
I1970
sg42
V313
p266
sbag1
(g2
g3
NtRp267
(dp268
g48
V10.1104/pp.44.3.361
p269
sg44
VPLANT PHYSIOL
p270
sg46
V44
p271
sg75
(lp272
(VSPLITTSTWE
S''
tp273
asg54
I1969
sg42
VLANT
p274
sbag1
(g2
g3
NtRp275
(dp276
g48
V10.1104/pp.97.3.1004
p277
sg44
VPLANT PHYSIOL
p278
sg46
V97
p279
sg75
(lp280
(VSTEBBINS
VN
tp281
asg54
I1991
sg42
VLANT
p282
sbag1
(g2
g3
NtRp283
(dp284
g48
Nsg44
VPLANT PHYSIOL
p285
sg46
V109
p286
sg75
(lp287
(VSTEBBINS
VN E
tp288
asg54
I1995
sg42
VLANT
p289
sbag1
(g2
g3
NtRp290
(dp291
g48
Nsg44
VBIOCH PLANTS
p292
sg46
V5
sg75
(lp293
(VTHOMPSON
VJ F
tp294
asg54
I1980
sg42
V375
p295
sbag1
(g2
g3
NtRp296
(dp297
g48
Nsg44
VANN BOT
p298
sg46
V41
p299
sg75
(lp300
(VTHOMPSON
VJ F
tp301
asg54
I1977
sg42
V29
p302
sbag1
(g2
g3
NtRp303
(dp304
g48
V10.1021/jf60154a012
p305
sg44
VJ AGR FOOD CHEM
p306
sg46
V15
p307
sg75
(lp308
(VVANETTEN
VC H
tp309
asg54
I1967
sg42
V1077
p310
sbag1
(g2
g3
NtRp311
(dp312
g48
V10.1111/j.1432-1033.1986.tb09915.x
p313
sg44
VEUR J BIOCHEM
p314
sg46
V159
p315
sg75
(lp316
(VVISSERS
VS
tp317
asg54
I1986
sg42
V507
p318
sbag1
(g2
g3
NtRp319
(dp320
g48
V10.1021/ac60252a045
p321
sg44
VANAL CHEM
p322
sg46
V39
p323
sg75
(lp324
(VWEATHERBMW
S''
tp325
asg54
I1967
sg42
V971
p326
sbag1
(g2
g3
NtRp327
(dp328
g48
V10.1104/pp.107.4.1097
p329
sg44
VPLANT PHYSIOL
p330
sg46
V107
p331
sg75
(lp332
(VZONIA
VL E
tp333
asg54
I1995
sg42
VLANT
p334
sbasb.