ccopy_reg
_reconstructor
p1
(ctethne.classes.paper
Paper
p2
c__builtin__
object
p3
NtRp4
(dp5
S'publisherCity'
p6
VROCKVILLE
p7
sS'reprintAddress'
p8
VLohr, M (reprint author), Carnegie Inst, Dept Plant Biol, Stanford, CA USA.
p9
sS'WC'
p10
VPlant Sciences
p11
sS'GA'
p12
V925AE
p13
sS'abstract'
p14
VThe unicellular green alga Chlamydomonas reinhardtii is a particularly important model organism for the study of photosynthesis since this alga can grow heterotrophically, and mutants in photosynthesis are therefore conditional rather than lethal. The recently developed tools for genomic analyses of this organism have allowed us to identify most of the genes required for chlorophyll and carotenoid biosynthesis and to examine their phylogenetic relationships with homologous genes from vascular plants, other algae, and cyanobacteria. Comparative genome analyses revealed some intriguing features associated with pigment biosynthesis in C. reinhardtii; in some cases, there are additional conserved domains in the algal and plant but not the cyanobacterial proteins that may directly influence their activity, assembly, or regulation. For some steps in the chlorophyll biosynthetic pathway, we found multiple gene copies encoding putative isozymes. Phylogenetic studies, theoretical evaluation of gene expression through analysis of expressed sequence tag data and codon bias of each gene, enabled us to generate hypotheses concerning the function and regulation of the individual genes, and to propose targets for future research. We have also used quantitative polymerase chain reaction to examine the effect of low fluence light on the level of mRNA accumulation encoding key proteins of the biosynthetic pathways and examined differential expression of those genes encoding isozymes that function in the pathways. This work is directing us toward the exploration of the role of specific photoreceptors in the biosynthesis of pigments and the coordination of pigment biosynthesis with the synthesis of proteins of the photosynthetic apparatus.
p15
sS'pageEnd'
p16
I515
sS'date'
p17
I2005
sS'documentType'
p18
VReview
p19
sS'subject'
p20
VPlant Sciences
p21
sS'isoSource'
p22
VPlant Physiol.
p23
sS'timesCited'
p24
(lp25
I47
aVZ9 52
p26
asS'PT'
p27
VJ
sS'title'
p28
VGenome-Based Examination Of Chlorophyll And Carotenoid Biosynthesis In Chlamydomonas Reinhardtii
p29
sS'ISSN'
p30
(lp31
V0032-0889
p32
aVJ9 PLANT PHYSIOL
p33
asS'authors_full'
p34
(lp35
(VLOHR
VM
tp36
a(VIM
VCS
tp37
a(VGROSSMAN
VAR
tp38
asS'PG'
p39
I26
sS'PD'
p40
VMAY
p41
sS'pageStart'
p42
I490
sS'issue'
p43
I1
sS'RI'
p44
VLohr, Martin/A-1214-2009
p45
sS'journal'
p46
VPLANT PHYSIOLOGY
p47
sS'volume'
p48
V138
p49
sS'doi'
p50
V10.1104/pp.104.056069
p51
sS'emailAddress'
p52
Vlohr@uni-mainz.de
p53
sS'authorAddress'
p54
(lp55
VCarnegie Inst, Dept Plant Biol, Stanford, CA USA.
p56
aVJohannes Gutenberg Univ Mainz, Inst Allgemeine Bot, D-55099 Mainz, Germany.
p57
asS'publisherAddress'
p58
V15501 MONONA DRIVE, ROCKVILLE, MD 20855 USA
p59
sS'ER'
p60
V
sS'publisher'
p61
VAMER SOC PLANT BIOLOGISTS
p62
sS'authorKeywords'
p63
(lp64
VLIGHT-REGULATED EXPRESSION
p65
aVGLUTAMATE 1-SEMIALDEHYDE AMINOTRANSFERASE
p66
aVCHLOROPLAST TRANSIT PEPTIDES
p67
aVTRANSFER-RNA REDUCTASE
p68
aVCODON USAGE BIAS
p69
aVARABIDOPSIS-THALIANA
p70
aVESCHERICHIA-COLI
p71
aVGENE-EXPRESSION
p72
aVHIGHER-PLANTS
p73
aVGSA GENE
p74
asS'language'
p75
VEnglish
p76
sS'wosid'
p77
VWOS:000229023100048
p78
sS'citationCount'
p79
I140
sS'authors_init'
p80
(lp81
(VLOHR
VM
tp82
a(VIM
VC S
tp83
a(VGROSSMAN
VA R
tp84
asS'citedReferences'
p85
(lp86
g1
(g2
g3
NtRp87
(dp88
g50
Nsg46
VFEBS LETT
p89
sg48
V485
p90
sg80
(lp91
(VALBABILI
VS
tp92
asg17
I2000
sg42
V165
p93
sbag1
(g2
g3
NtRp94
(dp95
g50
V10.1093/nar/25.17.3389
p96
sg46
VNUCLEIC ACIDS RES
p97
sg48
V25
p98
sg80
(lp99
(VALTSCHUL
VS F
tp100
asg17
I1997
sg42
V3389
p101
sbag1
(g2
g3
NtRp102
(dp103
g50
V10.1007/s11120-004-2439-y
p104
sg46
VPHOTOSYNTH RES
p105
sg48
V82
p106
sg80
(lp107
(VANWARUZZAMAN
VM
tp108
asg17
I2004
sg42
VHOTOSYNTH
p109
sbag1
(g2
g3
NtRp110
(dp111
g50
V10.1126/science.1101156
p112
sg46
VSCIENCE
p113
sg48
V306
p114
sg80
(lp115
(VARMBRUST
VE V
tp116
asg17
I2004
sg42
V79
p117
sbag1
(g2
g3
NtRp118
(dp119
g50
V10.1093/dnares/6.6.369
p120
sg46
VDNA Res
p121
sg48
V6
sg80
(lp122
(VASAMIZU
VE
tp123
asg17
I1999
sg42
V369
p124
sbag1
(g2
g3
NtRp125
(dp126
g50
V10.1093/dnares/7.5.305
p127
sg46
VDNA RES
p128
sg48
V7
sg80
(lp129
(VASAMIZIU
VE
tp130
asg17
I2000
sg42
V305
p131
sbag1
(g2
g3
NtRp132
(dp133
g50
V10.1104/pp.118.3.1021
p134
sg46
VPLANT PHYSIOL
p135
sg48
V118
p136
sg80
(lp137
(VAUDRAN
VC
tp138
asg17
I1998
sg42
VLANT
p139
sbag1
(g2
g3
NtRp140
(dp141
g50
V10.1093/bioinformatics/18.2.298
p142
sg46
VBIOINFORMATICS
p143
sg48
V18
p144
sg80
(lp145
(VBANNAI
VH
tp146
asg17
I2002
sg42
V298
p147
sbag1
(g2
g3
NtRp148
(dp149
g50
V10.1098/rstb.2000.0700
p150
sg46
VPHILOS T ROY SOC B
p151
sg48
V355
p152
sg80
(lp153
(VBAROLI
VI
tp154
asg17
I2000
sg42
VHILOS
p155
sbag1
(g2
g3
NtRp156
(dp157
g50
V10.1105/tpc.010405
p158
sg46
VPLANT CELL
p159
sg48
V15
p160
sg80
(lp161
(VBAROLI
VI
tp162
asg17
I2003
sg42
VLANT
p163
sbag1
(g2
g3
NtRp164
(dp165
g50
V10.1023/A:1006297731456
p166
sg46
VPHOTOSYNTH RES
p167
sg48
V60
p168
sg80
(lp169
(VBEALE
VS I
tp170
asg17
I1999
sg42
VHOTOSYNTH
p171
sbag1
(g2
g3
NtRp172
(dp173
g50
Nsg46
VJ BIOL CHEM
p174
sg48
V257
p175
sg80
(lp176
(VBENNETZEN
VJ L
tp177
asg17
I1982
sg42
V3026
p178
sbag1
(g2
g3
NtRp179
(dp180
g50
V10.1016/S0167-4781(02)00500-6
p181
sg46
VBBA
p182
sg48
V1579
p183
sg80
(lp184
(VBOHNE
VF
tp185
asg17
I2002
sg42
V26
p186
sbag1
(g2
g3
NtRp187
(dp188
g50
V10.1111/j.1365-313X.2004.02198.x
p189
sg46
VPLANT J
p190
sg48
V40
p191
sg80
(lp192
(VBOTELLA-PAVIA
VP
tp193
asg17
I2004
sg42
VLANT
p194
sbag1
(g2
g3
NtRp195
(dp196
g50
V10.1046/j.1365-313X.1996.9060867.x
p197
sg46
VPLANT J
p198
sg48
V9
sg80
(lp199
(VBOUGRI
VO
tp200
asg17
I1996
sg42
VLANT
p201
sbag1
(g2
g3
NtRp202
(dp203
g50
Nsg46
VJ BIOL CHEM
p204
sg48
V271
p205
sg80
(lp206
(VBOUVIER
VF
tp207
asg17
I1996
sg42
V28861
p208
sbag1
(g2
g3
NtRp209
(dp210
g50
V10.1046/j.1432-1327.2000.01722.x
p211
sg46
VEUR J BIOCHEM
p212
sg48
V267
p213
sg80
(lp214
(VBOUVIER
VF
tp215
asg17
I2000
sg42
V6346
p216
sbag1
(g2
g3
NtRp217
(dp218
g50
V10.1016/0378-1097(96)00187-5
p219
sg46
VFEMS MICROBIOL LETT
p220
sg48
V140
p221
sg80
(lp222
(VBREITENBACH
VJ
tp223
asg17
I1996
sg42
V241
p224
sbag1
(g2
g3
NtRp225
(dp226
g50
V10.1074/jbc.273.25.15321
p227
sg46
VJ BIOL CHEM
p228
sg48
V273
p229
sg80
(lp230
(VBUGOS
VR C
tp231
asg17
I1998
sg42
V15321
p232
sbag1
(g2
g3
NtRp233
(dp234
g50
V10.1007/s004380100574
p235
sg46
VMOL GENET GENOMICS
p236
sg48
V266
p237
sg80
(lp238
(VCHEKOUNOVA
VE
tp239
asg17
I2001
sg42
V363
p240
sbag1
(g2
g3
NtRp241
(dp242
g50
Nsg46
VGENE
p243
sg48
V209
p244
sg80
(lp245
(VCHIAPELLO
VH
tp246
asg17
I1998
sg42
V1
sbag1
(g2
g3
NtRp247
(dp248
g50
V10.1016/S1360-1385(03)00064-6
p249
sg46
VTRENDS PLANT SCI
p250
sg48
V8
sg80
(lp251
(VCORNAH
VJ E
tp252
asg17
I2003
sg42
V224
p253
sbag1
(g2
g3
NtRp254
(dp255
g50
V10.1093/protein/10.6.673
p256
sg46
VPROTEIN ENG
p257
sg48
V10
p258
sg80
(lp259
(VCSERZO
VM
tp260
asg17
I1997
sg42
VROTEIN
p261
sbag1
(g2
g3
NtRp262
(dp263
g50
V10.2307/3870254
p264
sg46
VPLANT CELL
p265
sg48
V8
sg80
(lp266
(VCUNNINGHAM
VF X
tp267
asg17
I1996
sg42
VLANT
p268
sbag1
(g2
g3
NtRp269
(dp270
g50
Nsg46
VPLANT CELL PHYSIOL
p271
sg48
V41
p272
sg80
(lp273
(VCUNNINGHAM
VF X
tp274
asg17
I2000
sg42
VLANT
p275
sbag1
(g2
g3
NtRp276
(dp277
g50
V10.1016/0005-2728(90)90088-L
p278
sg46
VBIOCHIM BIOPHYS ACTA
p279
sg48
V1020
p280
sg80
(lp281
(VDEMMIGADAMS
VB
tp282
asg17
I1990
sg42
V1
sbag1
(g2
g3
NtRp283
(dp284
g50
Nsg46
VFASEB J
p285
sg48
V10
p286
sg80
(lp287
(VDEMMIGADAMS
VB
tp288
asg17
I1996
sg42
V403
p289
sbag1
(g2
g3
NtRp290
(dp291
g50
V10.1093/nar/gkg897
p292
sg46
VNUCLEIC ACIDS RES
p293
sg48
V31
p294
sg80
(lp295
(VDOS
VREIS M
tp296
asg17
I2003
sg42
V6976
p297
sbag1
(g2
g3
NtRp298
(dp299
g50
V10.1186/1471-2229-4-5
p300
sg46
VBMC Plant Biology
p301
sg48
V4
sg80
(lp302
(VEGGINK
VLAURA L
tp303
asg17
I2004
sg42
V5
sbag1
(g2
g3
NtRp304
(dp305
g50
V10.1007/s00294-003-0460-x
p306
sg46
VCURR GENET
p307
sg48
V45
p308
sg80
(lp309
(VELRAD
VD
tp310
asg17
I2004
sg42
V61
p311
sbag1
(g2
g3
NtRp312
(dp313
g50
V10.1006/jmbi.2000.3903
p314
sg46
VJ MOL BIOL
p315
sg48
V300
p316
sg80
(lp317
(VEMANUELSSON
VO
tp318
asg17
I2000
sg42
V1005
p319
sbag1
(g2
g3
NtRp320
(dp321
g50
Nsg46
VPROTEIN SCI
p322
sg48
V8
sg80
(lp323
(VEMANUELSSON
VO
tp324
asg17
I1999
sg42
VROTEIN
p325
sbag1
(g2
g3
NtRp326
(dp327
g50
V10.1073/pnas.96.18.10507
p328
sg46
VP NATL ACAD SCI USA
p329
sg48
V96
p330
sg80
(lp331
(VESPINEDA
VC E
tp332
asg17
I1999
sg42
V10507
p333
sbag1
(g2
g3
NtRp334
(dp335
g50
Nsg46
VCLADISTICS
p336
sg48
V5
sg80
(lp337
(VFELSENSTEIN
VJ
tp338
asg17
I1989
sg42
V164
p339
sbag1
(g2
g3
NtRp340
(dp341
g50
V10.1006/jmbi.2001.5179
p342
sg46
VJ MOL BIOL
p343
sg48
V314
p344
sg80
(lp345
(VFORMAGGIO
VE
tp346
asg17
I2001
sg42
V1157
p347
sbag1
(g2
g3
NtRp348
(dp349
g50
Nsg46
VCAROTENOIDS PHOTOSYN
p350
sg48
Nsg80
(lp351
(VFRANK
VH A
tp352
asg17
I1993
sg42
V253
p353
sbag1
(g2
g3
NtRp354
(dp355
g50
V10.1021/bi0492096
p356
sg46
VBIOCHEMISTRY
p357
sg48
V43
p358
sg80
(lp359
(VFRANK
VH A
tp360
asg17
I2004
sg42
V8607
p361
sbag1
(g2
g3
NtRp362
(dp363
g50
V10.1016/0014-5793(90)80094-Y
p364
sg46
VFEBS LETT
p365
sg48
V260
p366
sg80
(lp367
(VFRANZEN
VL G
tp368
asg17
I1990
sg42
V165
p369
sbag1
(g2
g3
NtRp370
(dp371
g50
V10.1126/science.1068275
p372
sg46
VSCIENCE
p373
sg48
V296
p374
sg80
(lp375
(VGOFF
VS A
tp376
asg17
I2002
sg42
V92
p377
sbag1
(g2
g3
NtRp378
(dp379
g50
V10.1126/science.283.5407.1476
p380
sg46
VSCIENCE
p381
sg48
V283
p382
sg80
(lp383
(VGRAY
VM W
tp384
asg17
I1999
sg42
V1476
p385
sbag1
(g2
g3
NtRp386
(dp387
g50
V10.1146/annurev.genet.38.072902.092328
p388
sg46
VANNU REV GENET
p389
sg48
V38
p390
sg80
(lp391
(VGROSSMAN
VA R
tp392
asg17
I2004
sg42
V119
p393
sbag1
(g2
g3
NtRp394
(dp395
g50
V10.1016/S1369-5266(99)00053-9
p396
sg46
VCURR OPIN PLANT BIOL
p397
sg48
V3
sg80
(lp398
(VGROSSMAN
VA R
tp399
asg17
I2000
sg42
V132
p400
sbag1
(g2
g3
NtRp401
(dp402
g50
V10.1128/EC.2.6.1137-1150.2003
p403
sg46
VEUKARYOT CELL
p404
sg48
V2
sg80
(lp405
(VGROSSMAN
VA R
tp406
asg17
I2003
sg42
V1137
p407
sbag1
(g2
g3
NtRp408
(dp409
g50
VDOI 10.1111/J.1469-8137.2009.02874.X
p410
sg46
VNUCL ACIDS S SER
p411
sg48
V41
p412
sg80
(lp413
(VHALL
VT A
tp414
asg17
I1999
sg42
V95
p415
sbag1
(g2
g3
NtRp416
(dp417
g50
V10.1146/annurev.arplant.52.1.363
p418
sg46
VANNU REV PLANT PHYS
p419
sg48
V52
p420
sg80
(lp421
(VHARRIS
VE H
tp422
asg17
I2001
sg42
V363
p423
sbag1
(g2
g3
NtRp424
(dp425
g50
V10.1073/pnas.96.15.8762
p426
sg46
VP NATL ACAD SCI USA
p427
sg48
V96
p428
sg80
(lp429
(VHAVAUX
VM
tp430
asg17
I1999
sg42
V8762
p431
sbag1
(g2
g3
NtRp432
(dp433
g50
V10.1023/A:1006100822721
p434
sg46
VPLANT MOL BIOL
p435
sg48
V39
p436
sg80
(lp437
(VHERMAN
VC A
tp438
asg17
I1999
sg42
VLANT
p439
sbag1
(g2
g3
NtRp440
(dp441
g50
Nsg46
VEMBO J
p442
sg48
V14
p443
sg80
(lp444
(VHILL
VK L
tp445
asg17
I1995
sg42
V857
p446
sbag1
(g2
g3
NtRp447
(dp448
g50
V10.1016/S1369-5266(00)00163-1
p449
sg46
VCURR OPIN PLANT BIOL
p450
sg48
V4
sg80
(lp451
(VHIRSCHBERG
VJ
tp452
asg17
I2001
sg42
V210
p453
sbag1
(g2
g3
NtRp454
(dp455
g50
V10.1034/j.1399-3054.2002.1150416.x
p456
sg46
VPHYSIOL PLANTARUM
p457
sg48
V115
p458
sg80
(lp459
(VHUANG
VK Y
tp460
asg17
I2002
sg42
VHYSIOL
p461
sbag1
(g2
g3
NtRp462
(dp463
g50
V10.1046/j.1365-313X.1995.08030417.x
p464
sg46
VPLANT J
p465
sg48
V8
sg80
(lp466
(VHUGUENEY
VP
tp467
asg17
I1995
sg42
VLANT
p468
sbag1
(g2
g3
NtRp469
(dp470
g50
Nsg46
VMOL BIOL EVOL
p471
sg48
V2
sg80
(lp472
(VIKEMURA
VT
tp473
asg17
I1985
sg42
V13
p474
sbag1
(g2
g3
NtRp475
(dp476
g50
V10.1105/tpc.6.2.265
p477
sg46
VPLANT CELL
p478
sg48
V6
sg80
(lp479
(VILAG
VL L
tp480
asg17
I1994
sg42
VLANT
p481
sbag1
(g2
g3
NtRp482
(dp483
g50
V10.1046/j.1365-313X.2001.01287.x
p484
sg46
VPLANT J
p485
sg48
V30
p486
sg80
(lp487
(VIM
VC S
tp488
asg17
I2002
sg42
VLANT
p489
sbag1
(g2
g3
NtRp490
(dp491
g50
V10.1023/A:1022800630430
p492
sg46
VPHOTOSYNTH RES
p493
sg48
V75
p494
sg80
(lp495
(VIM
VC S
tp496
asg17
I2003
sg42
VHOTOSYNTH
p497
sbag1
(g2
g3
NtRp498
(dp499
g50
Nsg46
VPLANT CELL
p500
sg48
V8
sg80
(lp501
(VIM
VC S
tp502
asg17
I1996
sg42
VLANT
p503
sbag1
(g2
g3
NtRp504
(dp505
g50
V10.1007/s004250050709
p506
sg46
VPLANTA
p507
sg48
V210
p508
sg80
(lp509
(VIM
VC S
tp510
asg17
I2000
sg42
VLANTA
p511
sbag1
(g2
g3
NtRp512
(dp513
g50
V10.1083/jcb.93.2.411
p514
sg46
VJ CELL BIOL
p515
sg48
V93
p516
sg80
(lp517
(VJANERO
VD R
tp518
asg17
I1982
sg42
V411
p519
sbag1
(g2
g3
NtRp520
(dp521
g50
V10.1111/j.1432-1033.1988.tb14391.x
p522
sg46
VEUR J BIOCHEM
p523
sg48
V177
p524
sg80
(lp525
(VJOHANNINGMEIER
VU
tp526
asg17
I1988
sg42
V417
p527
sbag1
(g2
g3
NtRp528
(dp529
g50
Nsg46
VJ BIOL CHEM
p530
sg48
V259
p531
sg80
(lp532
(VJOHANNINGMEIER
VU
tp533
asg17
I1984
sg42
V3541
p534
sbag1
(g2
g3
NtRp535
(dp536
g50
V10.1093/pcp/pcg064
p537
sg46
VPLANT CELL PHYSIOL
p538
sg48
V44
p539
sg80
(lp540
(VJUNG
VK H
tp541
asg17
I2003
sg42
VLANT
p542
sbag1
(g2
g3
NtRp543
(dp544
g50
V10.1006/jmbi.2000.4315
p545
sg46
VJ MOL BIOL
p546
sg48
V305
p547
sg80
(lp548
(VKROGH
VA
tp549
asg17
I2001
sg42
V567
p550
sbag1
(g2
g3
NtRp551
(dp552
g50
V10.1073/pnas.94.25.14168
p553
sg46
VP NATL ACAD SCI USA
p554
sg48
V94
p555
sg80
(lp556
(VKROPAT
VJ
tp557
asg17
I1997
sg42
V14168
p558
sbag1
(g2
g3
NtRp559
(dp560
g50
V10.1007/BF01106776
p561
sg46
VPLANTA
p562
sg48
V196
p563
sg80
(lp564
(VKRUSE
VE
tp565
asg17
I1995
sg42
VLANTA
p566
sbag1
(g2
g3
NtRp567
(dp568
g50
V10.1007/s004250050124
p569
sg46
VPLANTA
p570
sg48
V202
p571
sg80
(lp572
(VKRUSE
VE
tp573
asg17
I1997
sg42
VLANTA
p574
sbag1
(g2
g3
NtRp575
(dp576
g50
V10.1016/S0031-9422(99)00114-4
p577
sg46
VPHYTOCHEMISTRY
p578
sg48
V51
p579
sg80
(lp580
(VKUMAR
VM A
tp581
asg17
I1999
sg42
VHYTOCHEMISTRY
p582
sbag1
(g2
g3
NtRp583
(dp584
g50
V10.1023/A:1024955916194
p585
sg46
VPHOTOSYNTH RES
p586
sg48
V77
p587
sg80
(lp588
(VLAKE
VV
tp589
asg17
I2003
sg42
VHOTOSYNTH
p590
sbag1
(g2
g3
NtRp591
(dp592
g50
V10.1023/A:1023005504702
p593
sg46
VPLANT MOL BIOL
p594
sg48
V51
p595
sg80
(lp596
(VLANGE
VB M
tp597
asg17
I2003
sg42
VLANT
p598
sbag1
(g2
g3
NtRp599
(dp600
g50
V10.1073/pnas.240454797
p601
sg46
VP NATL ACAD SCI USA
p602
sg48
V97
p603
sg80
(lp604
(VLANGE
VB M
tp605
asg17
I2000
sg42
V13172
p606
sbag1
(g2
g3
NtRp607
(dp608
g50
V10.1073/pnas.94.16.8895
p609
sg46
VP NATL ACAD SCI USA
p610
sg48
V94
p611
sg80
(lp612
(VLERMONTOVA
VI
tp613
asg17
I1997
sg42
V8895
p614
sbag1
(g2
g3
NtRp615
(dp616
g50
Nsg46
VJ BIOL CHEM
p617
sg48
V272
p618
sg80
(lp619
(VLEUSTEK
VT
tp620
asg17
I1997
sg42
V2744
p621
sbag1
(g2
g3
NtRp622
(dp623
g50
V10.1146/annurev.pp.20.060169.002515
p624
sg46
VANN REV PLANT PHYSIO
p625
sg48
V20
p626
sg80
(lp627
(VLEVINE
VR P
tp628
asg17
I1969
sg42
V523
p629
sbag1
(g2
g3
NtRp630
(dp631
g50
V10.1073/pnas.0400935101
p632
sg46
VP NATL ACAD SCI USA
p633
sg48
V101
p634
sg80
(lp635
(VLIU
VY S
tp636
asg17
I2004
sg42
V9897
p637
sbag1
(g2
g3
NtRp638
(dp639
g50
V10.1006/meth.2001.1262
p640
sg46
VMETHODS
p641
sg48
V25
p642
sg80
(lp643
(VLIVAK
VK J
tp644
asg17
I2001
sg42
V402
p645
sbag1
(g2
g3
NtRp646
(dp647
g50
V10.1016/0014-5793(95)00368-J
p648
sg46
VFEBS LETT
p649
sg48
V364
p650
sg80
(lp651
(VLOTAN
VT
tp652
asg17
I1995
sg42
V125
p653
sbag1
(g2
g3
NtRp654
(dp655
g50
V10.1073/pnas.0736959100
p656
sg46
VP NATL ACAD SCI USA
p657
sg48
V100
p658
sg80
(lp659
(VMA
VY Z
tp660
asg17
I2003
sg42
V4377
p661
sbag1
(g2
g3
NtRp662
(dp663
g50
V10.1007/s00253-001-0902-7
p664
sg46
VAPPL MICROBIOL BIOT
p665
sg48
V58
p666
sg80
(lp667
(VMARTENS
VJ H
tp668
asg17
I2002
sg42
V275
p669
sbag1
(g2
g3
NtRp670
(dp671
g50
V10.1038/nature02398
p672
sg46
VNATURE
p673
sg48
V428
p674
sg80
(lp675
(VMATSUZAKI
VM
tp676
asg17
I2004
sg42
V653
p677
sbag1
(g2
g3
NtRp678
(dp679
g50
V10.1007/BF00023558
p680
sg46
VPLANT MOL BIOL
p681
sg48
V24
p682
sg80
(lp683
(VMATTERS
VG L
tp684
asg17
I1994
sg42
VLANT
p685
sbag1
(g2
g3
NtRp686
(dp687
g50
Nsg46
VPLANT PHYSIOL
p688
sg48
V109
p689
sg80
(lp690
(VMATTERS
VG L
tp691
asg17
I1995
sg42
VLANT
p692
sbag1
(g2
g3
NtRp693
(dp694
g50
V10.1046/j.1365-313x.2001.00986.x
p695
sg46
VPLANT J
p696
sg48
V25
p697
sg80
(lp698
(VMCCORMAC
VA C
tp699
asg17
I2001
sg42
VLANT
p700
sbag1
(g2
g3
NtRp701
(dp702
g50
V10.1093/bioinformatics/16.4.404
p703
sg46
VBIOINFORMATICS
p704
sg48
V16
p705
sg80
(lp706
(VMCGUFFIN
VL J
tp707
asg17
I2000
sg42
V404
p708
sbag1
(g2
g3
NtRp709
(dp710
g50
Nsg46
VJ BIOCHEM
p711
sg48
V116
p712
sg80
(lp713
(VMISAWA
VN
tp714
asg17
I1994
sg42
V980
p715
sbag1
(g2
g3
NtRp716
(dp717
g50
V10.1007/BF00020244
p718
sg46
VPLANT MOL BIOL
p719
sg48
V28
p720
sg80
(lp721
(VMOCK
VH P
tp722
asg17
I1995
sg42
VLANT
p723
sbag1
(g2
g3
NtRp724
(dp725
g50
V10.1093/emboj/19.10.2139
p726
sg46
VEMBO J
p727
sg48
V19
p728
sg80
(lp729
(VMOSELEY
VJ
tp730
asg17
I2000
sg42
V2139
p731
sbag1
(g2
g3
NtRp732
(dp733
g50
V10.1105/tpc.010420
p734
sg46
VPLANT CELL
p735
sg48
V14
p736
sg80
(lp737
(VMOSELEY
VJ L
tp738
asg17
I2002
sg42
VLANT
p739
sbag1
(g2
g3
NtRp740
(dp741
g50
V10.1007/s00425-003-1181-6
p742
sg46
VPLANTA
p743
sg48
V218
p744
sg80
(lp745
(VNAGATA
VN
tp746
asg17
I2004
sg42
VLANTA
p747
sbag1
(g2
g3
NtRp748
(dp749
g50
V10.1006/bbrc.1995.2481
p750
sg46
VBIOCHEM BIOPH RES CO
p751
sg48
V215
p752
sg80
(lp753
(VNAKAYAMA
VM
tp754
asg17
I1995
sg42
V422
p755
sbag1
(g2
g3
NtRp756
(dp757
g50
V10.1016/S0014-5793(01)02644-8
p758
sg46
VFEBS LETT
p759
sg48
V501
p760
sg80
(lp761
(VNAYA
VH
tp762
asg17
I2001
sg42
V127
p763
sbag1
(g2
g3
NtRp764
(dp765
g50
V10.1093/protein/10.1.1
p766
sg46
VPROTEIN ENG
p767
sg48
V10
p768
sg80
(lp769
(VNIELSEN
VH
tp770
asg17
I1997
sg42
VROTEIN
p771
sbag1
(g2
g3
NtRp772
(dp773
g50
V10.1146/annurev.arplant.50.1.333
p774
sg46
VANNU REV PLANT PHYS
p775
sg48
V50
p776
sg80
(lp777
(VNIYOGI
VK K
tp778
asg17
I1999
sg42
V333
p779
sbag1
(g2
g3
NtRp780
(dp781
g50
V10.1104/pp.122.4.1045
p782
sg46
VPLANT PHYSIOL
p783
sg48
V122
p784
sg80
(lp785
(VOKADA
VK
tp786
asg17
I2000
sg42
VLANT
p787
sbag1
(g2
g3
NtRp788
(dp789
g50
V10.1046/j.1365-313x.2000.00672.x
p790
sg46
VPLANT J
p791
sg48
V21
p792
sg80
(lp793
(VOSTER
VU
tp794
asg17
I2000
sg42
VLANT
p795
sbag1
(g2
g3
NtRp796
(dp797
g50
Nsg46
VMICROBIOL
p798
sg48
V148
p799
sg80
(lp800
(VPANEK
VH
tp801
asg17
I2002
sg42
V2273
p802
sbag1
(g2
g3
NtRp803
(dp804
g50
V10.1046/j.1365-313x.2000.00724.x
p805
sg46
VPLANT J
p806
sg48
V22
p807
sg80
(lp808
(VPAPENBROCK
VJ
tp809
asg17
I2000
sg42
VLANT
p810
sbag1
(g2
g3
NtRp811
(dp812
g50
V10.1098/rstb.2000.0701
p813
sg46
VPHILOS T ROY SOC B
p814
sg48
V355
p815
sg80
(lp816
(VPOGSON
VB J
tp817
asg17
I2000
sg42
VHILOS
p818
sbag1
(g2
g3
NtRp819
(dp820
g50
V10.1007/BF00016474
p821
sg46
VPLANT MOL BIOL
p822
sg48
V26
p823
sg80
(lp824
(VQUARMBY
VL M
tp825
asg17
I1994
sg42
VLANT
p826
sbag1
(g2
g3
NtRp827
(dp828
g50
V10.1016/S0014-5793(02)02402-X
p829
sg46
VFEBS LETT
p830
sg48
V514
p831
sg80
(lp832
(VQUEROL
VJ
tp833
asg17
I2002
sg42
V343
p834
sbag1
(g2
g3
NtRp835
(dp836
g50
V10.1074/jbc.274.20.14444
p837
sg46
VJ BIOL CHEM
p838
sg48
V274
p839
sg80
(lp840
(VQUINN
VJ M
tp841
asg17
I1999
sg42
V14444
p842
sbag1
(g2
g3
NtRp843
(dp844
g50
V10.1074/jbc.M313250200
p845
sg46
VJ BIOL CHEM
p846
sg48
V279
p847
sg80
(lp848
(VRAVANEL
VS
tp849
asg17
I2004
sg42
V22548
p850
sbag1
(g2
g3
NtRp851
(dp852
g50
V10.1016/S0092-8674(00)80144-0
p853
sg46
VCELL
p854
sg48
V86
p855
sg80
(lp856
(VREINBOTHE
VS
tp857
asg17
I1996
sg42
V703
p858
sbag1
(g2
g3
NtRp859
(dp860
g50
V10.1016/S0014-5793(02)03181-2
p861
sg46
VFEBS LETT
p862
sg48
V529
p863
sg80
(lp864
(VROCHAIX
VJ D
tp865
asg17
I2002
sg42
V34
p866
sbag1
(g2
g3
NtRp867
(dp868
g50
Nsg46
VPLANT PHYSIOL
p869
sg48
V130
p870
sg80
(lp871
(VRODRIGUEZCONCEPCIO
S''
tp872
asg17
I2002
sg42
VLANT
p873
sbag1
(g2
g3
NtRp874
(dp875
g50
V10.1351/pac200375020375
p876
sg46
VPURE APPL CHEM
p877
sg48
V75
p878
sg80
(lp879
(VROHMER
VM
tp880
asg17
I2003
sg42
VURE
p881
sbag1
(g2
g3
NtRp882
(dp883
g50
V10.1073/pnas.190177497
p884
sg46
VP NATL ACAD SCI USA
p885
sg48
V97
p886
sg80
(lp887
(VRONEN
VG
tp888
asg17
I2000
sg42
V11102
p889
sbag1
(g2
g3
NtRp890
(dp891
g50
VDOI 10.1385/1-59259-192-2:365
p892
sg46
VBIOINFORMATICS METHO
p893
sg48
Nsg80
(lp894
(VROZEN
VS
tp895
asg17
I2000
sg42
V365
p896
sbag1
(g2
g3
NtRp897
(dp898
g50
Nsg46
VNATO ASI 3 HIGH TECH
p899
sg48
V64
p900
sg80
(lp901
(VRUDIGER
VW
tp902
asg17
I1999
sg42
V185
p903
sbag1
(g2
g3
NtRp904
(dp905
g50
V10.1016/S0981-9428(02)01374-8
p906
sg46
VPLANT PHYSIOL BIOCH
p907
sg48
V40
p908
sg80
(lp909
(VSANTANA
VM A
tp910
asg17
I2002
sg42
VLANT
p911
sbag1
(g2
g3
NtRp912
(dp913
g50
V10.1093/nar/14.13.5125
p914
sg46
VNUCLEIC ACIDS RES
p915
sg48
V14
p916
sg80
(lp917
(VSHARP
VP M
tp918
asg17
I1986
sg42
V5125
p919
sbag1
(g2
g3
NtRp920
(dp921
g50
Nsg46
VMOL BIOL EVOL
p922
sg48
V4
sg80
(lp923
(VSHARP
VP M
tp924
asg17
I1987
sg42
V222
p925
sbag1
(g2
g3
NtRp926
(dp927
g50
V10.1104/pp.016899
p928
sg46
VPLANT PHYSIOL
p929
sg48
V131
p930
sg80
(lp931
(VSHRAGER
VJ
tp932
asg17
I2003
sg42
VLANT
p933
sbag1
(g2
g3
NtRp934
(dp935
g50
V10.1111/j.1399-3054.1987.tb09240.x
p936
sg46
VPHYSIOL PLANTARUM
p937
sg48
V69
p938
sg80
(lp939
(VSIEFERMANNHARMS
VD
tp940
asg17
I1987
sg42
VHYSIOL
p941
sbag1
(g2
g3
NtRp942
(dp943
g50
V10.1104/pp.010908
p944
sg46
VPLANT PHYSIOL
p945
sg48
V129
p946
sg80
(lp947
(VSIMPSON
VC L
tp948
asg17
I2002
sg42
VLANT
p949
sbag1
(g2
g3
NtRp950
(dp951
g50
V10.1002/pmic.200300776
p952
sg46
VPROTEOMICS
p953
sg48
V4
sg80
(lp954
(VSMALL
VI
tp955
asg17
I2004
sg42
VROTEOMICS
p956
sbag1
(g2
g3
NtRp957
(dp958
g50
V10.1007/BF02900361
p959
sg46
VMOL BIOTECHNOL
p960
sg48
V5
sg80
(lp961
(VSTADEN
VR
tp962
asg17
I1996
sg42
V233
p963
sbag1
(g2
g3
NtRp964
(dp965
g50
V10.1016/S0022-2836(03)00527-8
p966
sg46
VJ MOL BIOL
p967
sg48
V329
p968
sg80
(lp969
(VSTEINBACHER
VS
tp970
asg17
I2003
sg42
V973
p971
sbag1
(g2
g3
NtRp972
(dp973
g50
V10.1104/pp.125.2.810
p974
sg46
VPLANT PHYSIOL
p975
sg48
V125
p976
sg80
(lp977
(VSTEINBRENNER
VJ
tp978
asg17
I2001
sg42
VLANT
p979
sbag1
(g2
g3
NtRp980
(dp981
g50
V10.1038/nature01204
p982
sg46
VNATURE
p983
sg48
V421
p984
sg80
(lp985
(VSTRAND
VA
tp986
asg17
I2003
sg42
V79
p987
sbag1
(g2
g3
NtRp988
(dp989
g50
V10.1146/annurev.genet.31.1.61
p990
sg46
VANNU REV GENET
p991
sg48
V31
p992
sg80
(lp993
(VSUZUKI
VJ Y
tp994
asg17
I1997
sg42
V61
p995
sbag1
(g2
g3
NtRp996
(dp997
g50
V10.1073/pnas.95.21.12719
p998
sg46
VP NATL ACAD SCI USA
p999
sg48
V95
p1000
sg80
(lp1001
(VTANAKA
VA
tp1002
asg17
I1998
sg42
V12719
p1003
sbag1
(g2
g3
NtRp1004
(dp1005
g50
Nsg46
VNATURE
p1006
sg48
V408
p1007
sg80
(lp1008
(VKAUL
VS
tp1009
asg17
I2000
sg42
V796
p1010
sbag1
(g2
g3
NtRp1011
(dp1012
g50
V10.1093/nar/22.22.4673
p1013
sg46
VNUCLEIC ACIDS RES
p1014
sg48
V22
p1015
sg80
(lp1016
(VTHOMPSON
VJ D
tp1017
asg17
I1994
sg42
V4673
p1018
sbag1
(g2
g3
NtRp1019
(dp1020
g50
V10.1038/22101
p1021
sg46
VNATURE
p1022
sg48
V400
p1023
sg80
(lp1024
(VTOMITANI
VA
tp1025
asg17
I1999
sg42
V159
p1026
sbag1
(g2
g3
NtRp1027
(dp1028
g50
V10.1073/pnas.2136793100
p1029
sg46
VP NATL ACAD SCI USA
p1030
sg48
V100
p1031
sg80
(lp1032
(VTOTTEY
VS
tp1033
asg17
I2003
sg42
V16119
p1034
sbag1
(g2
g3
NtRp1035
(dp1036
g50
V10.1006/abbi.2000.2150
p1037
sg46
VARCH BIOCHEM BIOPHYS
p1038
sg48
V385
p1039
sg80
(lp1040
(VTRACEWELL
VC A
tp1041
asg17
I2001
sg42
V61
p1042
sbag1
(g2
g3
NtRp1043
(dp1044
g50
V10.1016/S0014-5793(04)00323-0
p1045
sg46
VFEBS LETT
p1046
sg48
V564
p1047
sg80
(lp1048
(VTURKINA
VM V
tp1049
asg17
I2004
sg42
V104
p1050
sbag1
(g2
g3
NtRp1051
(dp1052
g50
V10.1023/A:1016081114758
p1053
sg46
VPLANT MOL BIOL
p1054
sg48
V50
p1055
sg80
(lp1056
(VUJWAL
VM L
tp1057
asg17
I2002
sg42
VLANT
p1058
sbag1
(g2
g3
NtRp1059
(dp1060
g50
Nsg46
VCOMPUT APPL BIOSCI
p1061
sg48
V10
p1062
sg80
(lp1063
(VVANDEPEER
VY
tp1064
asg17
I1994
sg42
V569
p1065
sbag1
(g2
g3
NtRp1066
(dp1067
g50
V10.1034/j.1399-3054.2002.1150102.x
p1068
sg46
VPHYSIOL PLANTARUM
p1069
sg48
V115
p1070
sg80
(lp1071
(VVAVILIN
VD V
tp1072
asg17
I2002
sg42
VHYSIOL
p1073
sbag1
(g2
g3
NtRp1074
(dp1075
g50
Nsg46
VEUR J BIOCHEM
p1076
sg48
V180
p1077
sg80
(lp1078
(VVONHEIJNE
VG
tp1079
asg17
I1989
sg42
V535
p1080
sbag1
(g2
g3
NtRp1081
(dp1082
g50
Nsg46
VBIOCHEM J
p1083
sg48
V327
p1084
sg80
(lp1085
(VWALKER
VC J
tp1086
asg17
I1997
sg42
V321
p1087
sbag1
(g2
g3
NtRp1088
(dp1089
g50
V10.1046/j.1365-313X.2002.01352.x
p1090
sg46
VPLANT J
p1091
sg48
V31
p1092
sg80
(lp1093
(VWALTER
VM H
tp1094
asg17
I2002
sg42
VLANT
p1095
sbag1
(g2
g3
NtRp1096
(dp1097
g50
V10.1104/pp.102.019364
p1098
sg46
VPLANT PHYSIOL
p1099
sg48
V132
p1100
sg80
(lp1101
(VWOITSCH
VS
tp1102
asg17
I2003
sg42
VLANT
p1103
sbag1
(g2
g3
NtRp1104
(dp1105
g50
V10.1016/0378-1119(90)90491-9
p1106
sg46
VGENE
p1107
sg48
V87
p1108
sg80
(lp1109
(VWRIGHT
VF
tp1110
asg17
I1990
sg42
V23
p1111
sbag1
(g2
g3
NtRp1112
(dp1113
g50
V10.1073/pnas.251530298
p1114
sg46
VP NATL ACAD SCI USA
p1115
sg48
V98
p1116
sg80
(lp1117
(VXU
VH
tp1118
asg17
I2001
sg42
V14168
p1119
sbag1
(g2
g3
NtRp1120
(dp1121
g50
Nsg46
VOXYGENIC PHOTOSYNTHE
p1122
sg48
Nsg80
(lp1123
(VYAMAMOTO
VH Y
tp1124
asg17
I1996
sg42
V539
p1125
sbag1
(g2
g3
NtRp1126
(dp1127
g50
Nsg46
VADV PHOTOSYNTH
p1128
sg48
V8
sg80
(lp1129
(VYAMAMOTO
VH Y
tp1130
asg17
I1999
sg42
V293
p1131
sbag1
(g2
g3
NtRp1132
(dp1133
g50
V10.1126/science.1068037
p1134
sg46
VSCIENCE
p1135
sg48
V296
p1136
sg80
(lp1137
(VYU
VJ
tp1138
asg17
I2002
sg42
V79
p1139
sbag1
(g2
g3
NtRp1140
(dp1141
g50
V10.1128/EC.3.5.1331-1348.2004
p1142
sg46
VEUKARYOT CELL
p1143
sg48
V3
sg80
(lp1144
(VZHANG
VZ D
tp1145
asg17
I2004
sg42
V1331
p1146
sbag1
(g2
g3
NtRp1147
(dp1148
g50
V10.1023/A:1005898805326
p1149
sg46
VPLANT MOL BIOL
p1150
sg48
V35
p1151
sg80
(lp1152
(VZHU
VX F
tp1153
asg17
I1997
sg42
VLANT
p1154
sbasb.