ccopy_reg
_reconstructor
p1
(ctethne.classes.paper
Paper
p2
c__builtin__
object
p3
NtRp4
(dp5
S'publisherCity'
p6
VROCKVILLE
p7
sS'reprintAddress'
p8
VSandalio, LM (reprint author), CSIC, Estac Expt Zaidin, Dept Bioquim Biol Celular & Mol Plantas, E-18008 Granada, Spain.
p9
sS'WC'
p10
VPlant Sciences
p11
sS'GA'
p12
V439XT
p13
sS'FX'
p14
(lp15
VThis work was supported by the Ministry of Education and Science (grant
p16
aVno. BIO2005-03305 and fellowship to M. R.-S.) and the Junta de Andalucia
p17
aV(Research Group no. BIO-0192), Spain.
p18
asS'abstract'
p19
VCadmium (Cd) toxicity has been widely studied in different plant species; however, the mechanism involved in its toxicity as well as the cell response against the metal have not been well established. In this work, using pea (Pisum sativum) plants, we studied the effect of Cd on antioxidants, reactive oxygen species (ROS), and nitric oxide (NO) metabolism of leaves using different cellular, molecular, and biochemical approaches. The growth of pea plants with 50 mu M CdCl(2) affected differentially the expression of superoxide dismutase (SOD) isozymes at both transcriptional and posttranscriptional levels, giving rise to a SOD activity reduction. The copper/zinc-SOD down-regulation was apparently due to the calcium (Ca) deficiency induced by the heavy metal. In these circumstances, the overproduction of the ROS hydrogen peroxide and superoxide could be observed in vivo by confocal laser microscopy, mainly associated with vascular tissue, epidermis, and mesophyll cells, and the production of superoxide radicals was prevented by exogenous Ca. On the other hand, the NO synthase-dependent NO production was strongly depressed by Cd, and treatment with Ca prevented this effect. Under these conditions, the pathogen-related proteins PrP4A and chitinase and the heat shock protein 71.2, were up-regulated, probably to protect cells against damages induced by Cd. The regulation of these proteins could be mediated by jasmonic acid and ethylene, whose contents increased by Cd treatment. A model is proposed for the cellular response to long-term Cd exposure consisting of cross talk between Ca, ROS, and NO.
p20
sS'pageEnd'
p21
I243
sS'date'
p22
I2009
sS'documentType'
p23
VReview
p24
sS'subject'
p25
VPlant Sciences
p26
sS'isoSource'
p27
VPlant Physiol.
p28
sS'timesCited'
p29
(lp30
I111
aVZ9 121
p31
asS'funding'
p32
(lp33
(VMinistry of Education and Science
VBIO2005-03305
tp34
a(VJunta de Andalucia
VBIO-0192
tp35
asS'PT'
p36
VJ
sS'title'
p37
VCellular Response Of Pea Plants To Cadmium Toxicity: Cross Talk Between Reactive Oxygen Species, Nitric Oxide, And Calcium
p38
sS'ISSN'
p39
(lp40
V0032-0889
p41
aVJ9 PLANT PHYSIOL
p42
asS'authors_full'
p43
(lp44
(VRODRIGUEZSERRANO
VMARIA
tp45
a(VROMEROPUERTAS
VMARIA C
tp46
a(VPAZMINO
VDIANA M
tp47
a(VTESTILLANO
VPILAR S
tp48
a(VRISUENO
VMARIA C
tp49
a(VDEL RIO
VLUIS A
tp50
a(VSANDALIO
VLUISA M
tp51
asS'PG'
p52
I15
sS'PD'
p53
VMAY
p54
sS'pageStart'
p55
I229
sS'issue'
p56
I1
sS'journal'
p57
VPLANT PHYSIOLOGY
p58
sS'volume'
p59
V150
p60
sS'doi'
p61
V10.1104/pp.108.131524
p62
sS'emailAddress'
p63
Vluisamaria.sandalio@eez.csic.es
p64
sS'authorAddress'
p65
(lp66
V[Rodriguez-Serrano, Maria; Romero-Puertas, Maria C.; Pazmino, Diana M.; del Rio, Luis A.; Sandalio, Luisa M.] CSIC, Estac Expt Zaidin, Dept Bioquim Biol Celular & Mol Plantas, E-18008 Granada, Spain.
p67
aV[Testillano, Pilar S.; Risueno, Maria C.] CSIC, Ctr Invest Biol, Madrid 28040, Spain.
p68
asS'publisherAddress'
p69
V15501 MONONA DRIVE, ROCKVILLE, MD 20855 USA
p70
sS'ER'
p71
V
sS'publisher'
p72
VAMER SOC PLANT BIOLOGISTS
p73
sS'authorKeywords'
p74
(lp75
VHEAVY-METAL STRESS
p76
aVCLASS-I CHITINASE
p77
aVHYDROGEN-PEROXIDE
p78
aVOXIDATIVE STRESS
p79
aVGENE-EXPRESSION
p80
aVMETHYL-JASMONATE
p81
aVANTIOXIDATIVE ENZYMES
p82
aVSUNFLOWER LEAVES
p83
aVSALICYLIC-ACID
p84
aVABIOTIC STRESS
p85
asS'language'
p86
VEnglish
p87
sS'wosid'
p88
VWOS:000265661700020
p89
sS'citationCount'
p90
I127
sS'authors_init'
p91
(lp92
(VRODRIGUEZSERRANO
VM
tp93
a(VROMEROPUERTAS
VM C
tp94
a(VPAZMINO
VD M
tp95
a(VTESTILLANO
VP S
tp96
a(VRISUENO
VM C
tp97
a(VDEL RIO
VL A
tp98
a(VSANDALIO
VL M
tp99
asS'citedReferences'
p100
(lp101
g1
(g2
g3
NtRp102
(dp103
g61
V10.1023/A:1026561029533
p104
sg57
VPLANT MOL BIOL
p105
sg59
V44
p106
sg91
(lp107
(VALVAREZ
VM E
tp108
asg22
I2000
sg55
VLANT
p109
sbag1
(g2
g3
NtRp110
(dp111
g61
V10.1080/01904160500324808
p112
sg57
VJ PLANT NUTR
p113
sg59
V28
p114
sg91
(lp115
(VAZEVEDO
VH
tp116
asg22
I2005
sg55
V2221
p117
sbag1
(g2
g3
NtRp118
(dp119
g61
V10.1016/j.plaphy.2007.04.005
p120
sg57
VPLANT PHYSIOL BIOCH
p121
sg59
V45
p122
sg91
(lp123
(VAZPILICUETA
VC E
tp124
asg22
I2007
sg55
VLANT
p125
sbag1
(g2
g3
NtRp126
(dp127
g61
V10.1104/pp.104.900191
p128
sg57
VPLANT PHYSIOL
p129
sg59
V141
p130
sg91
(lp131
(VBAILEY-SERRES
VJ
tp132
asg22
I2006
sg55
VLANT
p133
sbag1
(g2
g3
NtRp134
(dp135
g61
V10.1093/jxb/erj175
p136
sg57
VJ EXP BOT
p137
sg59
V57
p138
sg91
(lp139
(VBARROSO
VJ B
tp140
asg22
I2006
sg55
V1785
p141
sbag1
(g2
g3
NtRp142
(dp143
g61
Nsg57
VActa Biologica Szegediensis
p144
sg59
V49
p145
sg91
(lp146
(VBARTHA
VBERNADETT
tp147
asg22
I2005
sg55
V9
sbag1
(g2
g3
NtRp148
(dp149
g61
V10.1007/s11033-007-9127-x
p150
sg57
VMOL BIOL REP
p151
sg59
V35
p152
sg91
(lp153
(VBEKESIOVA
VB
tp154
asg22
I2008
sg55
V579
p155
sbag1
(g2
g3
NtRp156
(dp157
g61
V10.1590/S1677-04202005000100003
p158
sg57
VBrazilian Journal of Plant Physiology
p159
sg59
V17
p160
sg91
(lp161
(VBENAVIDES
VMARIA P
tp162
asg22
I2005
sg55
V21
p163
sbag1
(g2
g3
NtRp164
(dp165
g61
V10.1073/pnas.87.19.7633
p166
sg57
VP NATL ACAD SCI USA
p167
sg59
V87
p168
sg91
(lp169
(VBROEKAERT
VW
tp170
asg22
I1990
sg55
V7633
p171
sbag1
(g2
g3
NtRp172
(dp173
g61
Nsg57
VBIOL PLANTARUM
p174
sg59
V40
p175
sg91
(lp176
(VCARDINAELS
VC
tp177
asg22
I1984
sg55
V131
p178
sbag1
(g2
g3
NtRp179
(dp180
g61
V10.1104/pp.002857
p181
sg57
VPLANT PHYSIOL
p182
sg59
V129
p183
sg91
(lp184
(VCHEONG
VY H
tp185
asg22
I2002
sg55
VLANT
p186
sbag1
(g2
g3
NtRp187
(dp188
g61
V10.1104/pp.107.103325
p189
sg57
VPLANT PHYSIOL
p190
sg59
V145
p191
sg91
(lp192
(VCHOI
VH W
tp193
asg22
I2007
sg55
VLANT
p194
sbag1
(g2
g3
NtRp195
(dp196
g61
Nsg57
VANAL BIOCHEM
p197
sg59
V162
p198
sg91
(lp199
(VCHOMCZYNSKI
VP
tp200
asg22
I1987
sg55
V156
p201
sbag1
(g2
g3
NtRp202
(dp203
g61
Nsg57
VIntegrative Biosciences
p204
sg59
V9
sg91
(lp205
(VCHUNG
VSAMYOUNG
tp206
asg22
I2005
sg55
V239
p207
sbag1
(g2
g3
NtRp208
(dp209
g61
V10.1094/MPMI.2000.13.12.1380
p210
sg57
VMOL PLANT MICROBE IN
p211
sg59
V13
p212
sg91
(lp213
(VCLARK
VD
tp214
asg22
I2000
sg55
V1380
p215
sbag1
(g2
g3
NtRp216
(dp217
g61
V10.1016/j.biochi.2006.07.003
p218
sg57
VBIOCHIMIE
p219
sg59
V88
p220
sg91
(lp221
(VCLEMENS
VS
tp222
asg22
I2006
sg55
V1707
p223
sbag1
(g2
g3
NtRp224
(dp225
g61
V10.1007/s00425-005-0205-9
p226
sg57
VPLANTA
p227
sg59
V224
p228
sg91
(lp229
(VCORPAS
VF J
tp230
asg22
I2006
sg55
VLANTA
p231
sbag1
(g2
g3
NtRp232
(dp233
g61
V10.1104/pp.104.042812
p234
sg57
VPLANT PHYSIOL
p235
sg59
V136
p236
sg91
(lp237
(VCORPAS
VF J
tp238
asg22
I2004
sg55
VLANT
p239
sbag1
(g2
g3
NtRp240
(dp241
g61
V10.1104/pp.106.086140
p242
sg57
VPLANT PHYSIOL
p243
sg59
V142
p244
sg91
(lp245
(VDANA
VM D
tp246
asg22
I2006
sg55
VLANT
p247
sbag1
(g2
g3
NtRp248
(dp249
g61
V10.1111/j.1365-3040.2006.01531.x
p250
sg57
VPLANT CELL ENVIRON
p251
sg59
V29
p252
sg91
(lp253
(VRODRIGUEZ-SERRANO
VM
tp254
asg22
I2006
sg55
VLANT
p255
sbag1
(g2
g3
NtRp256
(dp257
g61
V10.1073/pnas.231178298
p258
sg57
VP NATL ACAD SCI USA
p259
sg59
V98
p260
sg91
(lp261
(VDELLEDONNE
VM
tp262
asg22
I2001
sg55
V13454
p263
sbag1
(g2
g3
NtRp264
(dp265
g61
Nsg57
VFREE RADICAL RES COM
p266
sg59
V12
p267
sg91
(lp268
(VDELRIO
VL A
tp269
asg22
I1991
sg55
V819
p270
sbag1
(g2
g3
NtRp271
(dp272
g61
V10.1016/j.phytochem.2004.02.001
p273
sg57
VPHYTOCHEMISTRY
p274
sg59
V65
p275
sg91
(lp276
(VDEL
VR I O L A
tp277
asg22
I2004
sg55
VHYTOCHEMISTRY
p278
sbag1
(g2
g3
NtRp279
(dp280
g61
V10.1038/sj.bjp.0701573
p281
sg57
VBRIT J PHARMACOL
p282
sg59
V123
p283
sg91
(lp284
(VDEMONTIS
VM P
tp285
asg22
I1998
sg55
V129
p286
sbag1
(g2
g3
NtRp287
(dp288
g61
V10.1104/pp.005629
p289
sg57
VPLANT PHYSIOL
p290
sg59
V130
p291
sg91
(lp292
(VDE
VPINTO M C
tp293
asg22
I2002
sg55
VLANT
p294
sbag1
(g2
g3
NtRp295
(dp296
g61
V10.1007/BF00019312
p297
sg57
VPLANT MOL BIOL
p298
sg59
V27
p299
sg91
(lp300
(VDEROCHER
VA
tp301
asg22
I1995
sg55
VLANT
p302
sbag1
(g2
g3
NtRp303
(dp304
g61
V10.1111/j.1399-3054.2004.00418.x
p305
sg57
VPHYSIOL PLANTARUM
p306
sg59
V123
p307
sg91
(lp308
(VDEVOTO
VA
tp309
asg22
I2005
sg55
VHYSIOL
p310
sbag1
(g2
g3
NtRp311
(dp312
g61
V10.1093/jexbot/52.358.1101
p313
sg57
VJ EXP BOT
p314
sg59
V52
p315
sg91
(lp316
(VDIXIT
VV
tp317
asg22
I2001
sg55
V1101
p318
sbag1
(g2
g3
NtRp319
(dp320
g61
V10.1073/pnas.95.17.10328
p321
sg57
VP NATL ACAD SCI USA
p322
sg59
V95
p323
sg91
(lp324
(VDURNER
VJ
tp325
asg22
I1998
sg55
V10328
p326
sbag1
(g2
g3
NtRp327
(dp328
g61
V10.1093/jexbot/52.356.631
p329
sg57
VJ EXP BOT
p330
sg59
V52
p331
sg91
(lp332
(VFRICKER
VM D
tp333
asg22
I2001
sg55
V631
p334
sbag1
(g2
g3
NtRp335
(dp336
g61
V10.1111/j.1469-8137.2004.01230.x
p337
sg57
VNEW PHYTOL
p338
sg59
V165
p339
sg91
(lp340
(VGABALDON
VC
tp341
asg22
I2005
sg55
V121
p342
sbag1
(g2
g3
NtRp343
(dp344
g61
V10.1016/S0168-9452(96)04528-1
p345
sg57
VPLANT SCI
p346
sg59
V121
p347
sg91
(lp348
(VGALLEGO
VS M
tp349
asg22
I1996
sg55
VLANT
p350
sbag1
(g2
g3
NtRp351
(dp352
g61
V10.1104/pp.011020
p353
sg57
VPLANT PHYSIOL
p354
sg59
V128
p355
sg91
(lp356
(VGARCIA-MATA
VC
tp357
asg22
I2002
sg55
VLANT
p358
sbag1
(g2
g3
NtRp359
(dp360
g61
V10.1111/j.1365-3040.2006.01571.x
p361
sg57
VPLANT CELL ENVIRON
p362
sg59
V29
p363
sg91
(lp364
(VGARNIER
VL
tp365
asg22
I2006
sg55
VLANT
p366
sbag1
(g2
g3
NtRp367
(dp368
g61
V10.1007/s00709-002-0073-0
p369
sg57
VPROTOPLASMA
p370
sg59
V221
p371
sg91
(lp372
(VGARRIDO
VI
tp373
asg22
I2003
sg55
VROTOPLASMA
p374
sbag1
(g2
g3
NtRp375
(dp376
g61
V10.1016/j.chemosphere.2006.04.056
p377
sg57
VCHEMOSPHERE
p378
sg59
V65
p379
sg91
(lp380
(VGOMES-JUNIOR
VR A
tp381
asg22
I2006
sg55
V1330
p382
sbag1
(g2
g3
NtRp383
(dp384
g61
V10.1046/j.1365-3040.2003.01101.x
p385
sg57
VPLANT CELL ENVIRON
p386
sg59
V26
p387
sg91
(lp388
(VGOULD
VK S
tp389
asg22
I2003
sg55
VLANT
p390
sbag1
(g2
g3
NtRp391
(dp392
g61
V10.1093/jxb/erj053
p393
sg57
VJ EXP BOT
p394
sg59
V57
p395
sg91
(lp396
(VGRUN
VS
tp397
asg22
I2006
sg55
V507
p398
sbag1
(g2
g3
NtRp399
(dp400
g61
V10.1016/j.pbi.2003.11.011
p401
sg57
VCURR OPIN PLANT BIOL
p402
sg59
V7
sg91
(lp403
(VGUO
VH W
tp404
asg22
I2004
sg55
V40
p405
sbag1
(g2
g3
NtRp406
(dp407
g61
V10.1093/jxb/47.2.211
p408
sg57
VJ EXP BOT
p409
sg59
V47
p410
sg91
(lp411
(VGUSSARSSON
VM
tp412
asg22
I1996
sg55
V211
p413
sbag1
(g2
g3
NtRp414
(dp415
g61
V10.1016/S0168-9452(98)00011-9
p416
sg57
VPLANT SCI
p417
sg59
V132
p418
sg91
(lp419
(VHERNANDEZ
VL E
tp420
asg22
I1998
sg55
VLANT
p421
sbag1
(g2
g3
NtRp422
(dp423
g61
V10.1023/A:1022349623951
p424
sg57
VPLANT MOL BIOL
p425
sg59
V51
p426
sg91
(lp427
(VHOWARTH
VJ R
tp428
asg22
I2003
sg55
VLANT
p429
sbag1
(g2
g3
NtRp430
(dp431
g61
Nsg57
VJ PHYSIOL PHARMACOL
p432
sg59
V53
p433
sg91
(lp434
(VIGNARRO
VL J
tp435
asg22
I2002
sg55
V503
p436
sbag1
(g2
g3
NtRp437
(dp438
g61
Nsg57
VPLANT PHYSIOL
p439
sg59
V114
p440
sg91
(lp441
(VJIMENEZ
VA
tp442
asg22
I1997
sg55
VLANT
p443
sbag1
(g2
g3
NtRp444
(dp445
g61
Nsg57
VCELL MOL BIOL LETT
p446
sg59
V8
sg91
(lp447
(VKASPRZEWSKA
VA
tp448
asg22
I2003
sg55
V809
p449
sbag1
(g2
g3
NtRp450
(dp451
g61
V10.1034/j.1399-3054.2002.1160312.x
p452
sg57
VPHYSIOL PLANTARUM
p453
sg59
V116
p454
sg91
(lp455
(VKIM
VY Y
tp456
asg22
I2002
sg55
VHYSIOL
p457
sbag1
(g2
g3
NtRp458
(dp459
g61
V10.1104/pp.83.3.546
p460
sg57
VPLANT PHYSIOL
p461
sg59
V83
p462
sg91
(lp463
(VKINRAIDE
VT B
tp464
asg22
I1987
sg55
VLANT
p465
sbag1
(g2
g3
NtRp466
(dp467
g61
V10.1023/B:PLSO.0000020972.18777.99
p468
sg57
VPLANT SOIL
p469
sg59
V259
p470
sg91
(lp471
(VKINRAIDE
VT B
tp472
asg22
I2004
sg55
VLANT
p473
sbag1
(g2
g3
NtRp474
(dp475
g61
V10.1104/pp.118.2.513
p476
sg57
VPLANT PHYSIOL
p477
sg59
V118
p478
sg91
(lp479
(VKINRAIDE
VT B
tp480
asg22
I1998
sg55
VLANT
p481
sbag1
(g2
g3
NtRp482
(dp483
g61
V10.1007/s11738-006-0048-4
p484
sg57
VACTA PHYSIOL PLANT
p485
sg59
V28
p486
sg91
(lp487
(VKOPYRA
VM
tp488
asg22
I2006
sg55
V525
p489
sbag1
(g2
g3
NtRp490
(dp491
g61
V10.1016/j.plaphy.2003.09.003
p492
sg57
VPLANT PHYSIOL BIOCH
p493
sg59
V41
p494
sg91
(lp495
(VKOPYRA
VM
tp496
asg22
I2003
sg55
VLANT
p497
sbag1
(g2
g3
NtRp498
(dp499
g61
V10.1016/j.plantsci.2005.02.007
p500
sg57
VPLANT SCI
p501
sg59
V169
p502
sg91
(lp503
(VLASPINA
VN V
tp504
asg22
I2005
sg55
VLANT
p505
sbag1
(g2
g3
NtRp506
(dp507
g61
V10.1007/s00425-002-0875-5
p508
sg57
VPLANTA
p509
sg59
V216
p510
sg91
(lp511
(VLEE
VS C
tp512
asg22
I2003
sg55
VLANTA
p513
sbag1
(g2
g3
NtRp514
(dp515
g61
Nsg57
VNITRIC OXIDE PLANTS
p516
sg59
Nsg91
(lp517
(VLESHEM
VY
tp518
asg22
I2000
sg55
Nsbag1
(g2
g3
NtRp519
(dp520
g61
V10.1007/BF00024375
p521
sg57
VPLANT GROWTH REGUL
p522
sg59
V18
p523
sg91
(lp524
(VLESHEM
VY Y
tp525
asg22
I1996
sg55
VLANT
p526
sbag1
(g2
g3
NtRp527
(dp528
g61
Nsg57
VJ PLANT PHYSIOL
p529
sg59
V148
p530
sg91
(lp531
(VLESHEM
VY Y
tp532
asg22
I1996
sg55
V258
p533
sbag1
(g2
g3
NtRp534
(dp535
g61
V10.1074/jbc.M511635200
p536
sg57
VJ BIOL CHEM
p537
sg59
V281
p538
sg91
(lp539
(VLINDERMAYR
VC
tp540
asg22
I2006
sg55
V4285
p541
sbag1
(g2
g3
NtRp542
(dp543
g61
V10.1093/jxb/48.1.123
p544
sg57
VJ EXP BOT
p545
sg59
V48
p546
sg91
(lp547
(VLOZANORODRIGUEZ
VE
tp548
asg22
I1997
sg55
V123
p549
sbag1
(g2
g3
NtRp550
(dp551
g61
Nsg57
VPLANT PHYSIOL BIOCH
p552
sg59
V32
p553
sg91
(lp554
(VLU
VY T
tp555
asg22
I1994
sg55
VLANT
p556
sbag1
(g2
g3
NtRp557
(dp558
g61
V10.1104/pp.105.073841
p559
sg57
VPLANT PHYSIOL
p560
sg59
V141
p561
sg91
(lp562
(VMA
VC L
tp563
asg22
I2006
sg55
VLANT
p564
sbag1
(g2
g3
NtRp565
(dp566
g61
Nsg57
VPHYSL PLANT MOL BIOL
p567
sg59
V5
sg91
(lp568
(VMAGALHAES
VJ R
tp569
asg22
I1999
sg55
VHYSL
p570
sbag1
(g2
g3
NtRp571
(dp572
g61
V10.1016/j.chemosphere.2006.06.025
p573
sg57
VCHEMOSPHERE
p574
sg59
V66
p575
sg91
(lp576
(VMAKSYMIEC
VW
tp577
asg22
I2007
sg55
V421
p578
sbag1
(g2
g3
NtRp579
(dp580
g61
V10.1251/bpo20
p581
sg57
VBiological Procedures Online
p582
sg59
V3
sg91
(lp583
(VMARONE
VMARIA
tp584
asg22
I2001
sg55
V19
p585
sbag1
(g2
g3
NtRp586
(dp587
g61
V10.1016/j.ejcb.2005.02.002
p588
sg57
VEUR J CELL BIOL
p589
sg59
V84
p590
sg91
(lp591
(VMASSONNEAU
VA
tp592
asg22
I2005
sg55
V663
p593
sbag1
(g2
g3
NtRp594
(dp595
g61
V10.1046/j.1365-3040.2001.00750.x
p596
sg57
VPLANT CELL ENVIRON
p597
sg59
V24
p598
sg91
(lp599
(VMCCARTHY
VI
tp600
asg22
I2001
sg55
VLANT
p601
sbag1
(g2
g3
NtRp602
(dp603
g61
V10.1016/S0968-0004(99)01532-7
p604
sg57
VTRENDS BIOCHEM SCI
p605
sg59
V25
p606
sg91
(lp607
(VMCDOWELL
VJ M
tp608
asg22
I2000
sg55
V79
p609
sbag1
(g2
g3
NtRp610
(dp611
g61
V10.1104/pp.102.018457
p612
sg57
VPLANT PHYSIOL
p613
sg59
V132
p614
sg91
(lp615
(VMETWALLY
VA
tp616
asg22
I2003
sg55
VLANT
p617
sbag1
(g2
g3
NtRp618
(dp619
g61
V10.1093/aob/mc/mc1107
p620
sg57
VANN BOT
p621
sg59
V98
p622
sg91
(lp623
(VMILLER
VG
tp624
asg22
I2006
sg55
V279
p625
sbag1
(g2
g3
NtRp626
(dp627
g61
V10.1016/S0098-8472(03)00037-6
p628
sg57
VENVIRON EXP BOT
p629
sg59
V50
p630
sg91
(lp631
(VMILONE
VM T
tp632
asg22
I2003
sg55
V265
p633
sbag1
(g2
g3
NtRp634
(dp635
g61
Nsg57
VPHARMACOL REV
p636
sg59
V43
p637
sg91
(lp638
(VMONCADA
VS
tp639
asg22
I1991
sg55
VHARMACOL
p640
sbag1
(g2
g3
NtRp641
(dp642
g61
V10.1093/jxb/erm218
p643
sg57
VJ EXP BOT
p644
sg59
V59
p645
sg91
(lp646
(VNEILL
VS
tp647
asg22
I2008
sg55
V25
p648
sbag1
(g2
g3
NtRp649
(dp650
g61
V10.1104/pp.128.1.13
p651
sg57
VPLANT PHYSIOL
p652
sg59
V128
p653
sg91
(lp654
(VNEILL
VS J
tp655
asg22
I2002
sg55
VLANT
p656
sbag1
(g2
g3
NtRp657
(dp658
g61
V10.1104/pp.105.076240
p659
sg57
VPLANT PHYSIOL
p660
sg59
V141
p661
sg91
(lp662
(VNOCITO
VF F
tp663
asg22
I2006
sg55
VLANT
p664
sbag1
(g2
g3
NtRp665
(dp666
g61
V10.1093/jexbot/49.321.623
p667
sg57
VJ EXP BOT
p668
sg59
V49
p669
sg91
(lp670
(VNOCTOR
VG
tp671
asg22
I1998
sg55
V623
p672
sbag1
(g2
g3
NtRp673
(dp674
g61
V10.1023/A:1010640811983
p675
sg57
VPLANT MOL BIOL
p676
sg59
V46
p677
sg91
(lp678
(VOBREGON
VP
tp679
asg22
I2001
sg55
VLANT
p680
sbag1
(g2
g3
NtRp681
(dp682
g61
Nsg57
VPLANT CELL PHYSIOL
p683
sg59
V38
p684
sg91
(lp685
(VOGAWA
VK
tp686
asg22
I1997
sg55
VLANT
p687
sbag1
(g2
g3
NtRp688
(dp689
g61
V10.1093/jxb/erg028
p690
sg57
VJ EXP BOT
p691
sg59
V54
p692
sg91
(lp693
(VOLMOS
VE
tp694
asg22
I2003
sg55
V291
p695
sbag1
(g2
g3
NtRp696
(dp697
g61
V10.1073/pnas.96.11.6553
p698
sg57
VP NATL ACAD SCI USA
p699
sg59
V96
p700
sg91
(lp701
(VOROZCO-CARDENAS
VM
tp702
asg22
I1999
sg55
V6553
p703
sbag1
(g2
g3
NtRp704
(dp705
g61
V10.1093/jxb/eri223
p706
sg57
VJ EXP BOT
p707
sg59
V56
p708
sg91
(lp709
(VORTEGA-VILLASANTE
VC
tp710
asg22
I2005
sg55
V2239
p711
sbag1
(g2
g3
NtRp712
(dp713
g61
V10.1093/jxb/erl197
p714
sg57
VJ EXP BOT
p715
sg59
V57
p716
sg91
(lp717
(VILLES
VP
tp718
asg22
I2006
sg55
V4201
p719
sbag1
(g2
g3
NtRp720
(dp721
g61
V10.1006/anbo.2000.1260
p722
sg57
VANN BOT
p723
sg59
V86
p724
sg91
(lp725
(VPEDROSO
VM C
tp726
asg22
I2000
sg55
V983
p727
sbag1
(g2
g3
NtRp728
(dp729
g61
V10.1016/j.scitotenv.2004.01.004
p730
sg57
VSCI TOTAL ENVIRON
p731
sg59
V326
p732
sg91
(lp733
(VPINTO
VA P
tp734
asg22
I2004
sg55
V239
p735
sbag1
(g2
g3
NtRp736
(dp737
g61
V10.1023/B:MOLE.0000031407.18708.95
p738
sg57
VMOL BIOL REP
p739
sg59
V31
p740
sg91
(lp741
(VRAKWAL
VR
tp742
asg22
I2004
sg55
V113
p743
sbag1
(g2
g3
NtRp744
(dp745
g61
V10.1104/pp.104.042663
p746
sg57
VPLANT PHYSIOL
p747
sg59
V135
p748
sg91
(lp749
(VRENTEL
VM C
tp750
asg22
I2004
sg55
VLANT
p751
sbag1
(g2
g3
NtRp752
(dp753
g61
V10.1016/S0014-5793(99)00138-6
p754
sg57
VFEBS LETT
p755
sg59
V445
p756
sg91
(lp757
(VRIBEIRO
VE A
tp758
asg22
I1999
sg55
V283
p759
sbag1
(g2
g3
NtRp760
(dp761
g61
V10.1111/j.1365-3040.1997.00072.x
p762
sg57
VPLANT CELL ENVIRON
p763
sg59
V20
p764
sg91
(lp765
(VRIVETTA
VA
tp766
asg22
I1997
sg55
VLANT
p767
sbag1
(g2
g3
NtRp768
(dp769
g61
V10.1146/annurev.pp.43.060192.002111
p770
sg57
VANNU REV PLANT PHYS
p771
sg59
V43
p772
sg91
(lp773
(VROBERTS
VD M
tp774
asg22
I1992
sg55
V375
p775
sbag1
(g2
g3
NtRp776
(dp777
g61
V10.1093/jexbot/53.366.103
p778
sg57
VJ EXP BOT
p779
sg59
V53
p780
sg91
(lp781
(VROCKEL
VP
tp782
asg22
I2002
sg55
V103
p783
sbag1
(g2
g3
NtRp784
(dp785
g61
V10.1073/pnas.210214197
p786
sg57
VP NATL ACAD SCI USA
p787
sg59
V97
p788
sg91
(lp789
(VROGERS
VE E
tp790
asg22
I2000
sg55
V12356
p791
sbag1
(g2
g3
NtRp792
(dp793
g61
V10.1111/j.1365-3040.2004.01217.x
p794
sg57
VPLANT CELL ENVIRON
p795
sg59
V27
p796
sg91
(lp797
(VROMERO-PUERTAS
VM C
tp798
asg22
I2004
sg55
VLANT
p799
sbag1
(g2
g3
NtRp800
(dp801
g61
V10.1046/j.1365-3040.2002.00850.x
p802
sg57
VPLANT CELL ENVIRON
p803
sg59
V25
p804
sg91
(lp805
(VROMERO-PUERTAS
VM C
tp806
asg22
I2002
sg55
VLANT
p807
sbag1
(g2
g3
NtRp808
(dp809
g61
V10.1080/10715769900301281
p810
sg57
VFREE RADICAL RES
p811
sg59
V31
p812
sg91
(lp813
(VROMERO-PUERTAS
VM C
tp814
asg22
I1999
sg55
V25
p815
sbag1
(g2
g3
NtRp816
(dp817
g61
V[10.1080/15216540321001639274, 10.1080/15216540310001639274]
p818
sg57
VIUBMB LIFE
p819
sg59
V55
p820
sg91
(lp821
(VROMERO-PUERTAS
VM C
tp822
asg22
I2003
sg55
V579
p823
sbag1
(g2
g3
NtRp824
(dp825
g61
V10.1016/j.jplph.2006.06.018
p826
sg57
VJ PLANT PHYSIOL
p827
sg59
V164
p828
sg91
(lp829
(VROMERO-PUERTAS
VM C
tp830
asg22
I2007
sg55
V1346
p831
sbag1
(g2
g3
NtRp832
(dp833
g61
Nsg57
VFree Radical Research
p834
sg59
V31
p835
sg91
(lp836
(VROS
VBARCELO\u0301 A
tp837
asg22
I1999
sg55
VS147
p838
sbag1
(g2
g3
NtRp839
(dp840
g61
Nsg57
VPLANT PHYSIOL
p841
sg59
V109
p842
sg91
(lp843
(VSALT
VD E
tp844
asg22
I1995
sg55
VLANT
p845
sbag1
(g2
g3
NtRp846
(dp847
g61
Nsg57
VMETHOD ENZYMOL
p848
sg59
V440
p849
sg91
(lp850
(VSANDALIO
VL M
tp851
asg22
I2008
sg55
V399
p852
sbag1
(g2
g3
NtRp853
(dp854
g61
Nsg57
VJ EXP BOT
p855
sg59
V52
p856
sg91
(lp857
(VSANDALIO
VL M
tp858
asg22
I2001
sg55
V2115
p859
sbag1
(g2
g3
NtRp860
(dp861
g61
V10.1016/S0098-8472(98)00058-6
p862
sg57
VENVIRON EXP BOT
p863
sg59
V41
p864
sg91
(lp865
(VSANITA
VD I TOPPI L
tp866
asg22
I1999
sg55
V105
p867
sbag1
(g2
g3
NtRp868
(dp869
g61
V10.1046/j.1365-3040.2000.00586.x
p870
sg57
VPLANT CELL ENVIRON
p871
sg59
V23
p872
sg91
(lp873
(VSAVENSTRAND
VH
tp874
asg22
I2000
sg55
VLANT
p875
sbag1
(g2
g3
NtRp876
(dp877
g61
V10.1034/j.1399-3054.1999.105107.x
p878
sg57
VPHYSIOL PLANTARUM
p879
sg59
V105
p880
sg91
(lp881
(VSCHICKLER
VH
tp882
asg22
I1999
sg55
VHYSIOL
p883
sbag1
(g2
g3
NtRp884
(dp885
g61
V10.1078/0176-1617-0621
p886
sg57
VJ PLANT PHYSIOL
p887
sg59
V159
p888
sg91
(lp889
(VSCHMITZ-EIBERGER
VM
tp890
asg22
I2002
sg55
V733
p891
sbag1
(g2
g3
NtRp892
(dp893
g61
V10.1104/pp.127.3.887
p894
sg57
VPLANT PHYSIOL
p895
sg59
V127
p896
sg91
(lp897
(VSCHUTZENDUBEL
VA
tp898
asg22
I2001
sg55
VLANT
p899
sbag1
(g2
g3
NtRp900
(dp901
g61
V10.1007/BF02908843
p902
sg57
VBIOL PLANTARUM
p903
sg59
V37
p904
sg91
(lp905
(VSHAW
VB P
tp906
asg22
I1995
sg55
V587
p907
sbag1
(g2
g3
NtRp908
(dp909
g61
V10.1385/BTER:92:3:257
p910
sg57
VBIOL TRACE ELEM RES
p911
sg59
V92
p912
sg91
(lp913
(VSHUKLA
VU C
tp914
asg22
I2003
sg55
V257
p915
sbag1
(g2
g3
NtRp916
(dp917
g61
V10.1034/j.1399-3054.1992.850113.x
p918
sg57
VPHYSIOL PLANTARUM
p919
sg59
V85
p920
sg91
(lp921
(VSOMASHEKARAIAH
VB V
tp922
asg22
I1992
sg55
VHYSIOL
p923
sbag1
(g2
g3
NtRp924
(dp925
g61
Nsg57
VFREE RADICAL BIO MED
p926
sg59
V18
p927
sg91
(lp928
(VSTOCHS
VS J
tp929
asg22
I1995
sg55
V321
p930
sbag1
(g2
g3
NtRp931
(dp932
g61
V10.1104/pp.103.038158
p933
sg57
VPLANT PHYSIOL
p934
sg59
V135
p935
sg91
(lp936
(VSTRESSMANN
VM
tp937
asg22
I2004
sg55
VLANT
p938
sbag1
(g2
g3
NtRp939
(dp940
g61
V10.1105/tpc.106.041673
p941
sg57
VPLANT CELL
p942
sg59
V18
p943
sg91
(lp944
(VSUNKAR
VR
tp945
asg22
I2006
sg55
VLANT
p946
sbag1
(g2
g3
NtRp947
(dp948
g61
V10.1046/j.1365-3040.2001.00773.x
p949
sg57
VPLANT CELL ENVIRON
p950
sg59
V24
p951
sg91
(lp952
(VSUZUKI
VN
tp953
asg22
I2001
sg55
VLANT
p954
sbag1
(g2
g3
NtRp955
(dp956
g61
V10.5511/plantbiotechnology.22.19
p957
sg57
VPLANT BIOTECHNOL
p958
sg59
V22
p959
sg91
(lp960
(VSUZUKI
VN
tp961
asg22
I2005
sg55
VLANT
p962
sbag1
(g2
g3
NtRp963
(dp964
g61
V10.1271/bbb.65.1663
p965
sg57
VBIOSCI BIOTECH BIOCH
p966
sg59
V65
p967
sg91
(lp968
(VTATEISHI
VY
tp969
asg22
I2001
sg55
V1663
p970
sbag1
(g2
g3
NtRp971
(dp972
g61
V10.1016/S0952-7915(00)00183-7
p973
sg57
VCURR OPIN IMMUNOL
p974
sg59
V13
p975
sg91
(lp976
(VTHOMMA
VBPHJ
tp977
asg22
I2001
sg55
V63
p978
sbag1
(g2
g3
NtRp979
(dp980
g61
V10.1111/j.1469-8137.2007.02005.x
p981
sg57
VNEW PHYTOL
p982
sg59
V174
p983
sg91
(lp984
(VTIAN
VQ Y
tp985
asg22
I2007
sg55
V322
p986
sbag1
(g2
g3
NtRp987
(dp988
g61
V10.1093/aob/mcl261
p989
sg57
VANN BOT
p990
sg59
V99
p991
sg91
(lp992
(VTSYGANOV
VV E
tp993
asg22
I2007
sg55
V227
p994
sbag1
(g2
g3
NtRp995
(dp996
g61
Nsg57
VBIOCELL
p997
sg59
V26
p998
sg91
(lp999
(VVIGLIOCCO
VA
tp1000
asg22
I2002
sg55
V369
p1001
sbag1
(g2
g3
NtRp1002
(dp1003
g61
V10.1016/S0031-9422(01)00130-3
p1004
sg57
VPHYTOCHEMISTRY
p1005
sg59
V57
p1006
sg91
(lp1007
(VVITORIA
VA P
tp1008
asg22
I2001
sg55
VHYTOCHEMISTRY
p1009
sbag1
(g2
g3
NtRp1010
(dp1011
g61
V10.1093/pcp/pci098
p1012
sg57
VPLANT CELL PHYSIOL
p1013
sg59
V46
p1014
sg91
(lp1015
(VWANG
VJ W
tp1016
asg22
I2005
sg55
VLANT
p1017
sbag1
(g2
g3
NtRp1018
(dp1019
g61
V10.1016/j.tplants.2004.03.006
p1020
sg57
VTRENDS PLANT SCI
p1021
sg59
V9
sg91
(lp1022
(VWANG
VW X
tp1023
asg22
I2004
sg55
V244
p1024
sbag1
(g2
g3
NtRp1025
(dp1026
g61
V10.1016/S1360-1385(97)89952-9
p1027
sg57
VTRENDS PLANT SCI
p1028
sg59
V2
sg91
(lp1029
(VWASTERNACK
VC
tp1030
asg22
I1997
sg55
V302
p1031
sbag1
(g2
g3
NtRp1032
(dp1033
g61
V10.1104/pp.103.024687
p1034
sg57
VPLANT PHYSIOL
p1035
sg59
V133
p1036
sg91
(lp1037
(VWU
VC T
tp1038
asg22
I2003
sg55
VLANT
p1039
sbag1
(g2
g3
NtRp1040
(dp1041
g61
V10.1006/pmpp.1996.0010
p1042
sg57
VPHYSIOL MOL PLANT P
p1043
sg59
V48
p1044
sg91
(lp1045
(VWUBBEN
VJ P
tp1046
asg22
I1996
sg55
VHYSIOL
p1047
sbag1
(g2
g3
NtRp1048
(dp1049
g61
V10.1105/tpc.10.9.1539
p1050
sg57
VPLANT CELL
p1051
sg59
V10
p1052
sg91
(lp1053
(VXIANG
VC B
tp1054
asg22
I1998
sg55
VLANT
p1055
sbag1
(g2
g3
NtRp1056
(dp1057
g61
V10.1073/pnas.052564899
p1058
sg57
VP NATL ACAD SCI USA
p1059
sg59
V99
p1060
sg91
(lp1061
(VYANG
VT
tp1062
asg22
I2002
sg55
V4097
p1063
sbag1
(g2
g3
NtRp1064
(dp1065
g61
Nsg57
VJ PLANT PHYSL
p1066
sg59
V162
p1067
sg91
(lp1068
(VZANG
VH
tp1069
asg22
I2005
sg55
V977
p1070
sbag1
(g2
g3
NtRp1071
(dp1072
g61
V10.1016/j.tplants.2006.09.008
p1073
sg57
VTRENDS PLANT SCI
p1074
sg59
V11
p1075
sg91
(lp1076
(VZEMOJTEL
VT
tp1077
asg22
I2006
sg55
V524
p1078
sbag1
(g2
g3
NtRp1079
(dp1080
g61
V10.1016/S0378-1119(96)00422-2
p1081
sg57
VGENE
p1082
sg59
V179
p1083
sg91
(lp1084
(VZENK
VM H
tp1085
asg22
I1996
sg55
V21
p1086
sbasb.