ccopy_reg
_reconstructor
p1
(ctethne.classes.paper
Paper
p2
c__builtin__
object
p3
NtRp4
(dp5
S'publisherCity'
p6
VROCKVILLE
p7
sS'reprintAddress'
p8
VDavies, JM (reprint author), Univ Cambridge, Dept Plant Sci, Cambridge CB2 3EA, England.
p9
sS'WC'
p10
VPlant Sciences
p11
sS'GA'
p12
V578ZO
p13
sS'FX'
p14
(lp15
VThis work was supported by the Cambridge Thai Foundation, the Isaac
p16
aVNewton Trust, and the Engineering and Physical Sciences Research
p17
aVCouncil.
p18
asS'pageEnd'
p19
I1829
sS'date'
p20
I2010
sS'documentType'
p21
VArticle
p22
sS'subject'
p23
VPlant Sciences
p24
sS'isoSource'
p25
VPlant Physiol.
p26
sS'timesCited'
p27
(lp28
I20
aVZ9 21
p29
asS'funding'
p30
(lp31
(VCambridge Thai Foundation
Ntp32
a(VIsaac Newton Trust
Ntp33
a(VEngineering and Physical Sciences Research Council
Ntp34
asS'PT'
p35
VJ
sS'title'
p36
VAnnexins: Components Of The Calcium And Reactive Oxygen Signaling Network
p37
sS'ISSN'
p38
(lp39
V0032-0889
p40
aVJ9 PLANT PHYSIOL
p41
asS'authors_full'
p42
(lp43
(VLAOHAVISIT
VANUPHON
tp44
a(VBROWN
VAIDAN T
tp45
a(VCICUTA
VPIETRO
tp46
a(VDAVIES
VJULIA M
tp47
asS'PG'
p48
I6
sS'PD'
p49
VAPR
p50
sS'pageStart'
p51
I1824
sS'issue'
p52
I4
sS'journal'
p53
VPLANT PHYSIOLOGY
p54
sS'volume'
p55
V152
p56
sS'doi'
p57
V10.1104/pp.109.145458
p58
sS'emailAddress'
p59
Vjmd32@cam.ac.uk
p60
sS'authorAddress'
p61
(lp62
V[Laohavisit, Anuphon; Davies, Julia M.] Univ Cambridge, Dept Plant Sci, Cambridge CB2 3EA, England.
p63
aV[Brown, Aidan T.; Cicuta, Pietro] Univ Cambridge, Cavendish Lab, Dept Phys, Cambridge CB3 0HE, England.
p64
asS'publisherAddress'
p65
V15501 MONONA DRIVE, ROCKVILLE, MD 20855 USA
p66
sS'ER'
p67
V
sS'publisher'
p68
VAMER SOC PLANT BIOLOGISTS
p69
sS'authorKeywords'
p70
(lp71
VPLASMA-MEMBRANE CA2+
p72
aVARABIDOPSIS-THALIANA
p73
aVPROTEOMIC IDENTIFICATION
p74
aVLIPID-PEROXIDATION
p75
aVCELLULAR-RESPONSE
p76
aVPHASE-BEHAVIOR
p77
aVCROSS-TALK
p78
aVSTRESS
p79
aVCHANNELS
p80
aVROOTS
p81
asS'language'
p82
VEnglish
p83
sS'wosid'
p84
VWOS:000276335900007
p85
sS'citationCount'
p86
I51
sS'authors_init'
p87
(lp88
(VLAOHAVISIT
VA
tp89
a(VBROWN
VA T
tp90
a(VCICUTA
VP
tp91
a(VDAVIES
VJ M
tp92
asS'citedReferences'
p93
(lp94
g1
(g2
g3
NtRp95
(dp96
g57
Nsg53
VV400
p97
sg55
V400
p98
sg87
(lp99
(VANDERSEN
VOLAF S
tp100
asg20
I2007
sg51
V543
p101
sbag1
(g2
g3
NtRp102
(dp103
g57
Nsg53
VPROG COLL POL SCI S
p104
sg55
V89
p105
sg87
(lp106
(VANGELOVA
VM I
tp107
asg20
I1992
sg51
VROG
p108
sbag1
(g2
g3
NtRp109
(dp110
g57
V10.1021/bi010841y
p111
sg53
VBIOCHEMISTRY
p112
sg55
V40
p113
sg87
(lp114
(VBALASUBRAMANIAN
VK
tp115
asg20
I2001
sg51
V8672
p116
sbag1
(g2
g3
NtRp117
(dp118
g57
V10.1071/PP01113
p119
sg53
VFUNCT PLANT BIOL
p120
sg55
V29
p121
sg87
(lp122
(VBIANCHI
VM W
tp123
asg20
I2002
sg51
Nsbag1
(g2
g3
NtRp124
(dp125
g57
V10.1016/0009-3084(94)02411-W
p126
sg53
VCHEM PHYS LIPIDS
p127
sg55
V76
p128
sg87
(lp129
(VBOROCHOV
VN
tp130
asg20
I1995
sg51
V85
p131
sbag1
(g2
g3
NtRp132
(dp133
g57
V10.1104/pp.105.061275
p134
sg53
VPLANT PHYSIOL
p135
sg55
V138
p136
sg87
(lp137
(VBOUDSOCQ
VM
tp138
asg20
I2005
sg51
VLANT
p139
sbag1
(g2
g3
NtRp140
(dp141
g57
V10.1007/s10886-008-9477-4
p142
sg53
VJ CHEM ECOL
p143
sg55
V34
p144
sg87
(lp145
(VCARLETTI
VP
tp146
asg20
I2008
sg51
V804
p147
sbag1
(g2
g3
NtRp148
(dp149
g57
V10.1002/pmic.200800340
p150
sg53
VPROTEOMICS
p151
sg55
V9
sg87
(lp152
(VCHENG
VY W
tp153
asg20
I2009
sg51
VROTEOMICS
p154
sbag1
(g2
g3
NtRp155
(dp156
g57
V10.1111/j.1365-3040.2007.01755.x
p157
sg53
VPLANT CELL ENVIRON
p158
sg55
V31
p159
sg87
(lp160
(VCOLLIN
VV C
tp161
asg20
I2008
sg51
VLANT
p162
sbag1
(g2
g3
NtRp163
(dp164
g57
V10.1242/jcs.00201
p165
sg53
VJ CELL SCI
p166
sg55
V116
p167
sg87
(lp168
(VDEMIDCHIK
VV
tp169
asg20
I2003
sg51
V81
p170
sbag1
(g2
g3
NtRp171
(dp172
g57
V10.1111/j.1365-313X.2006.02971.x
p173
sg53
VPLANT J
p174
sg55
V49
p175
sg87
(lp176
(VDEMIDCHIK
VV
tp177
asg20
I2007
sg51
VLANT
p178
sbag1
(g2
g3
NtRp179
(dp180
g57
V10.1111/j.1365-313X.2009.03830.x
p181
sg53
VPLANT J
p182
sg55
V58
p183
sg87
(lp184
(VDEMIDCHIK
VV
tp185
asg20
I2009
sg51
VLANT
p186
sbag1
(g2
g3
NtRp187
(dp188
g57
V10.1016/j.envexpbot.2004.03.017
p189
sg53
VENVIRON EXP BOT
p190
sg55
V53
p191
sg87
(lp192
(VDEMIRAL
VT
tp193
asg20
I2005
sg51
V247
p194
sbag1
(g2
g3
NtRp195
(dp196
g57
V10.1016/j.pbi.2007.04.019
p197
sg53
VCURR OPIN PLANT BIOL
p198
sg55
V10
p199
sg87
(lp200
(VFARMER
VE E
tp201
asg20
I2007
sg51
V380
p202
sbag1
(g2
g3
NtRp203
(dp204
g57
V10.1104/pp.106.078717
p205
sg53
VPLANT PHYSIOL
p206
sg55
V141
p207
sg87
(lp208
(VGADJEV
VI
tp209
asg20
I2006
sg51
VLANT
p210
sbag1
(g2
g3
NtRp211
(dp212
g57
V10.1152/physrev.00030.2001
p213
sg53
VPHYSIOL REV
p214
sg55
V82
p215
sg87
(lp216
(VGERKE
VV
tp217
asg20
I2002
sg51
VHYSIOL
p218
sbag1
(g2
g3
NtRp219
(dp220
g57
V10.1093/pcp/pcm046
p221
sg53
VPLANT CELL PHYSIOL
p222
sg55
V48
p223
sg87
(lp224
(VGORECKA
VK M
tp225
asg20
I2007
sg51
VLANT
p226
sbag1
(g2
g3
NtRp227
(dp228
g57
V10.1074/jbc.275.11.8072
p229
sg53
VJ BIOL CHEM
p230
sg55
V275
p231
sg87
(lp232
(VHOFMANN
VA
tp233
asg20
I2000
sg51
V8072
p234
sbag1
(g2
g3
NtRp235
(dp236
g57
V10.1016/j.plaphy.2008.07.006
p237
sg53
VPLANT PHYSIOL BIOCH
p238
sg55
V46
p239
sg87
(lp240
(VJAMI
VS K
tp241
asg20
I2008
sg51
VLANT
p242
sbag1
(g2
g3
NtRp243
(dp244
g57
V10.1093/jxb/48.4.979
p245
sg53
VJ EXP BOT
p246
sg55
V48
p247
sg87
(lp248
(VKAILE
VA
tp249
asg20
I1997
sg51
V979
p250
sbag1
(g2
g3
NtRp251
(dp252
g57
V10.1016/S0014-5793(97)00364-5
p253
sg53
VFEBS LETT
p254
sg55
V407
p255
sg87
(lp256
(VKLUSENER
VB
tp257
asg20
I1997
sg51
V230
p258
sbag1
(g2
g3
NtRp259
(dp260
g57
V10.1104/pp.109.135228
p261
sg53
VPLANT PHYSIOL
p262
sg55
V150
p263
sg87
(lp264
(VKONOPKA-POSTUPOLSKA
VD
tp265
asg20
I2009
sg51
VLANT
p266
sbag1
(g2
g3
NtRp267
(dp268
g57
V10.1016/S0079-6107(00)00003-1
p269
sg53
VPROG BIOPHYS MOL BIO
p270
sg55
V73
p271
sg87
(lp272
(VKOURIE
VJ I
tp273
asg20
I2000
sg51
VROG
p274
sbag1
(g2
g3
NtRp275
(dp276
g57
V10.1016/S0960-9822(00)80085-8
p277
sg53
VCURR BIOL
p278
sg55
V9
sg87
(lp279
(VKUBISTA
VH
tp280
asg20
I1999
sg51
V1403
p281
sbag1
(g2
g3
NtRp282
(dp283
g57
V10.1073/pnas.95.24.14060
p284
sg53
VP NATL ACAD SCI USA
p285
sg55
V95
p286
sg87
(lp287
(VLANGEN
VR
tp288
asg20
I1998
sg51
V14060
p289
sbag1
(g2
g3
NtRp290
(dp291
g57
V10.1105/tpc.108.059550
p292
sg53
VPLANT CELL
p293
sg55
V21
p294
sg87
(lp295
(VLAOHAVISIT
VA
tp296
asg20
I2009
sg51
VLANT
p297
sbag1
(g2
g3
NtRp298
(dp299
g57
V10.1016/j.plantsci.2009.09.008
p300
sg53
VPLANT SCI
p301
sg55
V177
p302
sg87
(lp303
(VLAOHAVISIT
VA
tp304
asg20
I2009
sg51
VLANT
p305
sbag1
(g2
g3
NtRp306
(dp307
g57
V10.1105/tpc.021683
p308
sg53
VPLANT CELL
p309
sg55
V16
p310
sg87
(lp311
(VLEE
VS
tp312
asg20
I2004
sg51
VLANT
p313
sbag1
(g2
g3
NtRp314
(dp315
g57
Nsg53
VCELL SIGNAL
p316
sg55
V6
sg87
(lp317
(VLEE
VY S
tp318
asg20
I1994
sg51
V181
p319
sbag1
(g2
g3
NtRp320
(dp321
g57
Nsg53
VV400
p322
sg55
V400
p323
sg87
(lp324
(VLEWIS RUTHVEN N A H
S''
tp325
asg20
I2007
sg51
V171
p326
sbag1
(g2
g3
NtRp327
(dp328
g57
V10.1104/pp.104.058719
p329
sg53
VPLANT PHYSIOL
p330
sg55
V137
p331
sg87
(lp332
(VLINDERMAYR
VC
tp333
asg20
I2005
sg51
VLANT
p334
sbag1
(g2
g3
NtRp335
(dp336
g57
V10.1016/j.plaphy.2009.02.011
p337
sg53
VPLANT PHYSIOL BIOCH
p338
sg55
V47
p339
sg87
(lp340
(VMATOS
VA R
tp341
asg20
I2009
sg51
VLANT
p342
sbag1
(g2
g3
NtRp343
(dp344
g57
V10.1111/j.1469-8137.2008.02682.x
p345
sg53
VNEW PHYTOL
p346
sg55
V181
p347
sg87
(lp348
(VMCAINSH
VM R
tp349
asg20
I2009
sg51
V275
p350
sbag1
(g2
g3
NtRp351
(dp352
g57
V10.1021/la026606d
p353
sg53
VLANGMUIR
p354
sg55
V19
p355
sg87
(lp356
(VMECKE
VK R
tp357
asg20
I2003
sg51
V2080
p358
sbag1
(g2
g3
NtRp359
(dp360
g57
Nsg53
VBIOPHYS J
p361
sg55
V72
p362
sg87
(lp363
(VMELEARD
VP
tp364
asg20
I1997
sg51
V2616
p365
sbag1
(g2
g3
NtRp366
(dp367
g57
V10.1104/pp.104.042069
p368
sg53
VPLANT PHYSIOL
p369
sg55
V135
p370
sg87
(lp371
(VMORI
VI C
tp372
asg20
I2004
sg51
VLANT
p373
sbag1
(g2
g3
NtRp374
(dp375
g57
V10.1105/tpc.108.059550
p376
sg53
VPlant Signal Behav
p377
sg55
V4
sg87
(lp378
(VMORTIMER
VJENNIFER C
tp379
asg20
I2009
sg51
Vlant
p380
sbag1
(g2
g3
NtRp381
(dp382
g57
V10.1093/jxb/erm344
p383
sg53
VJ EXP BOT
p384
sg55
V59
p385
sg87
(lp386
(VMORTIMER
VJ C
tp387
asg20
I2008
sg51
V533
p388
sbag1
(g2
g3
NtRp389
(dp390
g57
V10.1105/tpc.107.054809
p391
sg53
VPLANT CELL
p392
sg55
V20
p393
sg87
(lp394
(VMUELLER
VS
tp395
asg20
I2008
sg51
VLANT
p396
sbag1
(g2
g3
NtRp397
(dp398
g57
V10.1038/35069092
p399
sg53
VNATURE
p400
sg55
V410
p401
sg87
(lp402
(VNG
VC K Y
tp403
asg20
I2001
sg51
V596
p404
sbag1
(g2
g3
NtRp405
(dp406
g57
V10.1046/j.1469-8137.2003.00682.x
p407
sg53
VNEW PHYTOL
p408
sg55
V157
p409
sg87
(lp410
(VREPETTO
VO
tp411
asg20
I2003
sg51
V555
p412
sbag1
(g2
g3
NtRp413
(dp414
g57
V10.1104/pp.108.131524
p415
sg53
VPLANT PHYSIOL
p416
sg55
V150
p417
sg87
(lp418
(VRODRIGUEZ-SERRANO
VM
tp419
asg20
I2009
sg51
VLANT
p420
sbag1
(g2
g3
NtRp421
(dp422
g57
Nsg53
VLIPID PROTEIN INTERA
p423
sg55
Nsg87
(lp424
(VSILVIUS
VJ R
tp425
asg20
I1982
sg51
V239
p426
sbag1
(g2
g3
NtRp427
(dp428
g57
V10.1071/PP01030
p429
sg53
VAUST J PLANT PHYSIOL
p430
sg55
V28
p431
sg87
(lp432
(VTYERMAN
VS D
tp433
asg20
I2001
sg51
V591
p434
sbag1
(g2
g3
NtRp435
(dp436
g57
V[10.1111/j.1364-3703.2007.00385.x, 10.1111/J.1364-3703.2007.00385.X]
p437
sg53
VMOL PLANT PATHOL
p438
sg55
V8
sg87
(lp439
(VVANDEPUTTE
VO
tp440
asg20
I2007
sg51
V185
p441
sbag1
(g2
g3
NtRp442
(dp443
g57
V10.1016/j.bbamcr.2005.06.010
p444
sg53
VBBA
p445
sg55
V1746
p446
sg87
(lp447
(VVEATCH
VS L
tp448
asg20
I2005
sg51
V172
p449
sbag1
(g2
g3
NtRp450
(dp451
g57
Nsg53
VRUSS J PLANT PHYSL
p452
sg55
V49
p453
sg87
(lp454
(VVESELOV
VA P
tp455
asg20
I2002
sg51
V385
p456
sbag1
(g2
g3
NtRp457
(dp458
g57
V10.1146/annurev.physiol.010908.163204
p459
sg53
VANNU REV PHYSIOL
p460
sg55
V71
p461
sg87
(lp462
(VWARD
VJ M
tp463
asg20
I2009
sg51
V59
p464
sbag1
(g2
g3
NtRp465
(dp466
g57
V10.1111/j.1365-313X.2003.02013.x
p467
sg53
VPLANT J
p468
sg55
V37
p469
sg87
(lp470
(VWEBER
VH
tp471
asg20
I2004
sg51
VLANT
p472
sbag1
(g2
g3
NtRp473
(dp474
g57
V10.1046/j.1365-313X.1997.12020427.x
p475
sg53
VPLANT J
p476
sg55
V12
p477
sg87
(lp478
(VWYMER
VC L
tp479
asg20
I1997
sg51
VLANT
p480
sbag1
(g2
g3
NtRp481
(dp482
g57
V10.1016/j.plaphy.2008.04.018
p483
sg53
VPLANT PHYSIOL BIOCH
p484
sg55
V46
p485
sg87
(lp486
(VYAMAUCHI
VY
tp487
asg20
I2008
sg51
VLANT
p488
sbasb.