ccopy_reg
_reconstructor
p1
(ctethne.classes.paper
Paper
p2
c__builtin__
object
p3
NtRp4
(dp5
S'publisherCity'
p6
VROCKVILLE
p7
sS'reprintAddress'
p8
VStacey, G (reprint author), Univ Missouri, Div Plant Sci, Natl Ctr Soybean Biotechnol, Columbia, MO 65211 USA.
p9
sS'WC'
p10
VPlant Sciences
p11
sS'GA'
p12
V634FQ
p13
sS'FX'
p14
(lp15
VThis work was supported by the National Science Foundation, Plant Genome
p16
aVProgram (grant no. DBI-0421620), and by the United Soybean Board.
p17
asS'abstract'
p18
VNodulation of soybean (Glycine max) root hairs by the nitrogen-fixing symbiotic bacterium Bradyrhizobium japonicum is a complex process coordinated by the mutual exchange of diffusible signal molecules. A metabolomic study was performed to identify small molecules produced in roots and root hairs during the rhizobial infection process. Metabolites extracted from roots and root hairs mock inoculated or inoculated with B. japonicum were analyzed by gas chromatography-mass spectrometry and ultraperformance liquid chromatography-quadrupole time of flight-mass spectrometry. These combined approaches identified 2,610 metabolites in root hairs. Of these, 166 were significantly regulated in response to B. japonicum inoculation, including various (iso)flavonoids, amino acids, fatty acids, carboxylic acids, and various carbohydrates. Trehalose was among the most strongly induced metabolites produced following inoculation. Subsequent metabolomic analyses of root hairs inoculated with a B. japonicum mutant defective in the trehalose synthase, trehalose 6-phosphate synthase, and maltooligosyltrehalose synthase genes showed that the trehalose detected in the inoculated root hairs was primarily of bacterial origin. Since trehalose is generally considered an osmoprotectant, these data suggest that B. japonicum likely experiences osmotic stress during the infection process, either on the root hair surface or within the infection thread.
p19
sS'pageEnd'
p20
I1822
sS'date'
p21
I2010
sS'documentType'
p22
VArticle
p23
sS'subject'
p24
VPlant Sciences
p25
sS'isoSource'
p26
VPlant Physiol.
p27
sS'timesCited'
p28
(lp29
I16
aVZ9 16
p30
asS'funding'
p31
(lp32
(VNational Science Foundation
VDBI-0421620
tp33
a(VUnited Soybean Board
Ntp34
asS'PT'
p35
VJ
sS'title'
p36
VSoybean Metabolites Regulated In Root Hairs In Response To The Symbiotic Bacterium Bradyrhizobium Japonicum
p37
sS'ISSN'
p38
(lp39
V0032-0889
p40
aVJ9 PLANT PHYSIOL
p41
asS'authors_full'
p42
(lp43
(VBRECHENMACHER
VLAURENT
tp44
a(VLEI
VZHENTIAN
tp45
a(VLIBAULT
VMARC
tp46
a(VFINDLEY
VSETH
tp47
a(VSUGAWARA
VMASAYUKI
tp48
a(VSADOWSKY
VMICHAEL J
tp49
a(VSUMNER
VLLOYD W
tp50
a(VSTACEY
VGARY
tp51
asS'PG'
p52
I15
sS'PD'
p53
VAUG
p54
sS'pageStart'
p55
I1808
sS'issue'
p56
I4
sS'RI'
p57
VSumner, Lloyd/A-3270-2013
p58
sS'journal'
p59
VPLANT PHYSIOLOGY
p60
sS'volume'
p61
V153
p62
sS'doi'
p63
V10.1104/pp.110.157800
p64
sS'emailAddress'
p65
Vstaceyg@missouri.edu
p66
sS'authorAddress'
p67
(lp68
V[Brechenmacher, Laurent; Libault, Marc; Findley, Seth; Stacey, Gary] Univ Missouri, Div Plant Sci, Natl Ctr Soybean Biotechnol, Columbia, MO 65211 USA.
p69
aV[Stacey, Gary] Univ Missouri, Ctr Sustainable Energy, Div Biochem, Columbia, MO 65211 USA.
p70
aV[Lei, Zhentian; Sumner, Lloyd W.] Samuel Roberts Noble Fdn Inc, Div Plant Biol, Ardmore, OK 73401 USA.
p71
aV[Sugawara, Masayuki; Sadowsky, Michael J.] Univ Minnesota, Dept Soil Water & Climate, St Paul, MN 55108 USA.
p72
aV[Sadowsky, Michael J.] Univ Minnesota, Microbial & Plant Genom Inst, Inst Biotechnol, St Paul, MN 55108 USA.
p73
asS'publisherAddress'
p74
V15501 MONONA DRIVE, ROCKVILLE, MD 20855 USA
p75
sS'ER'
p76
V
sS'publisher'
p77
VAMER SOC PLANT BIOLOGISTS
p78
sS'authorKeywords'
p79
(lp80
VPISUM-SATIVUM L.
p81
aVMAGNETIC-RESONANCE-SPECTROSCOPY
p82
aVTRUNCATULA CELL-CULTURES
p83
aVPEANUT RHIZOBIA STRAINS
p84
aVGAMMA-AMINOBUTYRIC-ACID
p85
aVALFALFA MEDICAGO-SATIVA
p86
aVPLANT-PATHOGENIC FUNGI
p87
aVTREHALOSE BIOSYNTHESIS
p88
aVSINORHIZOBIUM-MELILOTI
p89
aVSALICYLIC-ACID
p90
asS'language'
p91
VEnglish
p92
sS'wosid'
p93
VWOS:000280566000030
p94
sS'citationCount'
p95
I154
sS'authors_init'
p96
(lp97
(VBRECHENMACHER
VL
tp98
a(VLEI
VZ T
tp99
a(VLIBAULT
VM
tp100
a(VFINDLEY
VS
tp101
a(VSUGAWARA
VM
tp102
a(VSADOWSKY
VM J
tp103
a(VSUMNER
VL W
tp104
a(VSTACEY
VG
tp105
asS'citedReferences'
p106
(lp107
g1
(g2
g3
NtRp108
(dp109
g63
V10.1046/j.1365-3059.2003.00814.x
p110
sg59
VPLANT PATHOL
p111
sg61
V52
p112
sg96
(lp113
(VABOOD
VJ K
tp114
asg21
I2003
sg55
VLANT
p115
sbag1
(g2
g3
NtRp116
(dp117
g63
V10.1626/pps.12.37
p118
sg59
VPLANT PROD SCI
p119
sg61
V12
p120
sg96
(lp121
(VAGARIE
VS
tp122
asg21
I2009
sg55
VLANT
p123
sbag1
(g2
g3
NtRp124
(dp125
g63
V10.1078/0944-7113-00059
p126
sg59
VPHYTOMEDICINE
p127
sg61
V8
sg96
(lp128
(VAGNESE
VA M
tp129
asg21
I2001
sg55
VHYTOMEDICINE
p130
sbag1
(g2
g3
NtRp131
(dp132
g63
V10.1023/B:JOEC.0000048791.74017.93
p133
sg59
VJ CHEM ECOL
p134
sg61
V30
p135
sg96
(lp136
(VAGRELL
VJ
tp137
asg21
I2004
sg55
V2309
p138
sbag1
(g2
g3
NtRp139
(dp140
g63
V10.1023/A:1022625810395
p141
sg59
VJ CHEM ECOL
p142
sg61
V29
p143
sg96
(lp144
(VAGRELL
VJ
tp145
asg21
I2003
sg55
V303
p146
sbag1
(g2
g3
NtRp147
(dp148
g63
V10.1111/j.1399-3054.2007.01001.x
p149
sg59
VPHYSIOL PLANTARUM
p150
sg61
V132
p151
sg96
(lp152
(VALLWOOD
VJ W
tp153
asg21
I2008
sg55
VHYSIOL
p154
sbag1
(g2
g3
NtRp155
(dp156
g63
V10.1007/s10681-005-7080-0
p157
sg59
VEUPHYTICA
p158
sg61
V146
p159
sg96
(lp160
(VALMEIDA
VA M
tp161
asg21
I2005
sg55
V165
p162
sbag1
(g2
g3
NtRp163
(dp164
g63
V10.1111/j.1469-8137.2008.02460.x
p165
sg59
VNEW PHYTOL
p166
sg61
V179
p167
sg96
(lp168
(VAMPOMAH
VO Y
tp169
asg21
I2008
sg55
V495
p170
sbag1
(g2
g3
NtRp171
(dp172
g63
V10.1007/s10658-007-9207-8
p173
sg59
VEUR J PLANT PATHOL
p174
sg61
V120
p175
sg96
(lp176
(VARGENTIERI
VM P
tp177
asg21
I2008
sg55
V189
p178
sbag1
(g2
g3
NtRp179
(dp180
g63
V10.1055/s-2007-993782
p181
sg59
VPLANTA MED
p182
sg61
V74
p183
sg96
(lp184
(VAWOUAFACK
VM D
tp185
asg21
I2008
sg55
VLANTA
p186
sbag1
(g2
g3
NtRp187
(dp188
g63
V10.1094/MPMI-19-0998
p189
sg59
VMOL PLANT MICROBE IN
p190
sg61
V19
p191
sg96
(lp192
(VBARSCH
VA
tp193
asg21
I2006
sg55
V998
p194
sbag1
(g2
g3
NtRp195
(dp196
g63
V10.1093/jexbot/52.360.1537
p197
sg59
VJ EXP BOT
p198
sg61
V52
p199
sg96
(lp200
(VBEGUM
VA A
tp201
asg21
I2001
sg55
V1537
p202
sbag1
(g2
g3
NtRp203
(dp204
g63
V10.1111/j.1365-313X.2008.03519.x
p205
sg59
VPLANT J
p206
sg61
V55
p207
sg96
(lp208
(VBENEDITO
VV A
tp209
asg21
I2008
sg55
VLANT
p210
sbag1
(g2
g3
NtRp211
(dp212
g63
V10.1094/MPMI.1997.10.3.339
p213
sg59
VMOL PLANT MICROBE IN
p214
sg61
V10
p215
sg96
(lp216
(VBOLANOSVASQUEZ
VM C
tp217
asg21
I1997
sg55
V339
p218
sbag1
(g2
g3
NtRp219
(dp220
g63
V10.1094/MPMI-19-0896
p221
sg59
VMOL PLANT MICROBE IN
p222
sg61
V19
p223
sg96
(lp224
(VBOSCARI
VA
tp225
asg21
I2006
sg55
V896
p226
sbag1
(g2
g3
NtRp227
(dp228
g63
V10.1016/0031-9422(90)89018-5
p229
sg59
VPHYTOCHEMISTRY
p230
sg61
V29
p231
sg96
(lp232
(VBOTTALICO
VA
tp233
asg21
I1990
sg55
VHYTOCHEMISTRY
p234
sbag1
(g2
g3
NtRp235
(dp236
g63
V10.1016/j.tplants.2004.01.006
p237
sg59
VTRENDS PLANT SCI
p238
sg61
V9
sg96
(lp239
(VBOUCHE
VN
tp240
asg21
I2004
sg55
V110
p241
sbag1
(g2
g3
NtRp242
(dp243
g63
V10.1104/pp.108.131649
p244
sg59
VPLANT PHYSIOL
p245
sg61
V149
p246
sg96
(lp247
(VBRECHENMACHER
VL
tp248
asg21
I2009
sg55
VLANT
p249
sbag1
(g2
g3
NtRp250
(dp251
g63
V10.1094/MPMI-21-5-0631
p252
sg59
VMOL PLANT MICROBE IN
p253
sg61
V21
p254
sg96
(lp255
(VBRECHENIMACHER
VL
tp256
asg21
I2008
sg55
V631
p257
sbag1
(g2
g3
NtRp258
(dp259
g63
V10.1094/MPMI.2002.15.7.693
p260
sg59
VMOL PLANT MICROBE IN
p261
sg61
V15
p262
sg96
(lp263
(VBRODMANN
VD
tp264
asg21
I2002
sg55
V693
p265
sbag1
(g2
g3
NtRp266
(dp267
g63
V10.1093/jxb/eri058
p268
sg59
VJ EXP BOT
p269
sg61
V56
p270
sg96
(lp271
(VBROECKLING
VC D
tp272
asg21
I2005
sg55
V323
p273
sbag1
(g2
g3
NtRp274
(dp275
g63
V10.1021/ac0521596
p276
sg59
VANAL CHEM
p277
sg61
V78
p278
sg96
(lp279
(VBROECKLING
VC D
tp280
asg21
I2006
sg55
V4334
p281
sbag1
(g2
g3
NtRp282
(dp283
g63
Nsg59
VBIOCHEM J
p284
sg61
V125
p285
sg96
(lp286
(VBROUGHTOWJ
S''
tp287
asg21
I1971
sg55
V1075
p288
sbag1
(g2
g3
NtRp289
(dp290
g63
V10.1128/JB.182.20.5641-5652.2000
p291
sg59
VJ BACTERIOL
p292
sg61
V182
p293
sg96
(lp294
(VBROUGHTON
VW J
tp295
asg21
I2000
sg55
V5641
p296
sbag1
(g2
g3
NtRp297
(dp298
g63
V10.1046/j.0028-646x.2001.00246.x
p299
sg59
VNEW PHYTOL
p300
sg61
V152
p301
sg96
(lp302
(VBUENO
VP
tp303
asg21
I2001
sg55
V91
p304
sbag1
(g2
g3
NtRp305
(dp306
g63
V10.1021/np50048a030
p307
sg59
VJ NAT PROD
p308
sg61
V49
p309
sg96
(lp310
(VCABALLERO
VP
tp311
asg21
I1986
sg55
V1126
p312
sbag1
(g2
g3
NtRp313
(dp314
g63
V10.1111/j.1365-313X.2008.03644.x
p315
sg59
VPLANT J
p316
sg61
V56
p317
sg96
(lp318
(VCARDENAS
VL
tp319
asg21
I2008
sg55
VLANT
p320
sbag1
(g2
g3
NtRp321
(dp322
g63
V10.1002/elps.200800594
p323
sg59
VELECTROPHORESIS
p324
sg61
V30
p325
sg96
(lp326
(VCEVALLOS-CEVALLOS
VJ M
tp327
asg21
I2009
sg55
V1240
p328
sbag1
(g2
g3
NtRp329
(dp330
g63
V10.1094/mpmi-20-10-1298
p331
sg59
VMOL PLANT MICROBE IN
p332
sg61
V20
p333
sg96
(lp334
(VCHANG
VW S
tp335
asg21
I2007
sg55
V1298
p336
sbag1
(g2
g3
NtRp337
(dp338
g63
V10.1007/BF00037795
p339
sg59
VPLANT GROWTH REGUL
p340
sg61
V19
p341
sg96
(lp342
(VCHANG
VY N
tp343
asg21
I1996
sg55
VLANT
p344
sbag1
(g2
g3
NtRp345
(dp346
g63
V10.1007/s11306-008-0128-0
p347
sg59
VMETABOLOMICS
p348
sg61
V4
sg96
(lp349
(VCHARLTON
VA J
tp350
asg21
I2008
sg55
V312
p351
sbag1
(g2
g3
NtRp352
(dp353
g63
V10.1021/pr800128q
p354
sg59
VJ PROTEOME RES
p355
sg61
V7
sg96
(lp356
(VCHO
VK
tp357
asg21
I2008
sg55
V2980
p358
sbag1
(g2
g3
NtRp359
(dp360
g63
V10.1111/j.1365-313X.2004.02150.x
p361
sg59
VPLANT J
p362
sg61
V39
p363
sg96
(lp364
(VCOLEBATCH
VG
tp365
asg21
I2004
sg55
VLANT
p366
sbag1
(g2
g3
NtRp367
(dp368
g63
Nsg59
VPLANT PHYSIOL
p369
sg61
V111
p370
sg96
(lp371
(VCONCONI
VA
tp372
asg21
I1996
sg55
VLANT
p373
sbag1
(g2
g3
NtRp374
(dp375
g63
V10.1073/pnas.0406069101
p376
sg59
VP NATL ACAD SCI USA
p377
sg61
V101
p378
sg96
(lp379
(VCOOK
VD
tp380
asg21
I2004
sg55
V15243
p381
sbag1
(g2
g3
NtRp382
(dp383
g63
V10.1016/j.plantsci.2005.02.026
p384
sg59
VPLANT SCI
p385
sg61
V169
p386
sg96
(lp387
(VCORTINA
VC
tp388
asg21
I2005
sg55
VLANT
p389
sbag1
(g2
g3
NtRp390
(dp391
g63
Nsg59
VZhongguo Kangshengsu Zazhi
p392
sg61
V33
p393
sg96
(lp394
(VCUI
VHAIBIN
tp395
asg21
I2008
sg55
V407
p396
sbag1
(g2
g3
NtRp397
(dp398
g63
V10.1128/JB.00533-07
p399
sg59
VJ BACTERIOL
p400
sg61
V189
p401
sg96
(lp402
(VCYTRYN
VE J
tp403
asg21
I2007
sg55
V6751
p404
sbag1
(g2
g3
NtRp405
(dp406
g63
V10.1002/1521-4028(200007)40:3<149::AID-JOBM149>3.0.CO;2-Y
p407
sg59
VJ BASIC MICROB
p408
sg61
V40
p409
sg96
(lp410
(VDARDANELLI
VM S
tp411
asg21
I2000
sg55
V149
p412
sbag1
(g2
g3
NtRp413
(dp414
g63
Nsg59
VSYMBIOSIS
p415
sg61
V23
p416
sg96
(lp417
(VDARDANELLI
VM S
tp418
asg21
I1997
sg55
V73
p419
sbag1
(g2
g3
NtRp420
(dp421
g63
V10.1104/pp.104.054957
p422
sg59
VPLANT PHYSIOL
p423
sg61
V137
p424
sg96
(lp425
(VDESBROSSES
VG G
tp426
asg21
I2005
sg55
VLANT
p427
sbag1
(g2
g3
NtRp428
(dp429
g63
V10.1002/pmic.20300802
p430
sg59
VPROTEOMICS
p431
sg61
V4
sg96
(lp432
(VDJORDJEVIC
VM A
tp433
asg21
I2004
sg55
VROTEOMICS
p434
sbag1
(g2
g3
NtRp435
(dp436
g63
Nsg59
VSYMBIOSIS
p437
sg61
V46
p438
sg96
(lp439
(VEL
VIDRISSI M M
tp440
asg21
I2008
sg55
V33
p441
sbag1
(g2
g3
NtRp442
(dp443
g63
V10.1111/j.1462-2920.2006.01176.x
p444
sg59
VENVIRON MICROBIOL
p445
sg61
V9
sg96
(lp446
(VESSENDOUBI
VM
tp447
asg21
I2007
sg55
V603
p448
sbag1
(g2
g3
NtRp449
(dp450
g63
V10.1104/pp.107.108431
p451
sg59
VPLANT PHYSIOL
p452
sg61
V146
p453
sg96
(lp454
(VFARAG
VM A
tp455
asg21
I2008
sg55
VLANT
p456
sbag1
(g2
g3
NtRp457
(dp458
g63
V10.1074/jbc.R100042200
p459
sg59
VJ BIOL CHEM
p460
sg61
V276
p461
sg96
(lp462
(VFARAZI
VT A
tp463
asg21
I2001
sg55
V39501
p464
sbag1
(g2
g3
NtRp465
(dp466
g63
V10.1034/j.1399-3054.1998.1020303.x
p467
sg59
VPHYSIOL PLANTARUM
p468
sg61
V102
p469
sg96
(lp470
(VFARIAS-RODRIGUEZ
VR
tp471
asg21
I1998
sg55
VHYSIOL
p472
sbag1
(g2
g3
NtRp473
(dp474
g63
V10.1104/pp.96.4.1228
p475
sg59
VPLANT PHYSIOL
p476
sg61
V96
p477
sg96
(lp478
(VFOUGERE
VF
tp479
asg21
I1991
sg55
VLANT
p480
sbag1
(g2
g3
NtRp481
(dp482
g63
V10.1093/jxb/erp034
p483
sg59
VJ EXP BOT
p484
sg61
V60
p485
sg96
(lp486
(VFUHRS
VH
tp487
asg21
I2009
sg55
V1663
p488
sbag1
(g2
g3
NtRp489
(dp490
g63
Nsg59
VPLANT PHYSIOL
p491
sg61
V115
p492
sg96
(lp493
(VGARCIA
VA B
tp494
asg21
I1997
sg55
VLANT
p495
sbag1
(g2
g3
NtRp496
(dp497
g63
V10.1073/pnas.252637799
p498
sg59
VP NATL ACAD SCI USA
p499
sg61
V99
p500
sg96
(lp501
(VGARG
VA K
tp502
asg21
I2002
sg55
V15898
p503
sbag1
(g2
g3
NtRp504
(dp505
g63
Nsg59
VSYMBIOSIS
p506
sg61
V20
p507
sg96
(lp508
(VGHITTONI
VN E
tp509
asg21
I1996
sg55
V117
p510
sbag1
(g2
g3
NtRp511
(dp512
g63
V10.1002/elsc.200500087
p513
sg59
VENG LIFE SCI
p514
sg61
V5
sg96
(lp515
(VGHOSH
VA C
tp516
asg21
I2005
sg55
V378
p517
sbag1
(g2
g3
NtRp518
(dp519
g63
V10.1146/annurev.genet.42.110807.091427
p520
sg59
VANNU REV GENET
p521
sg61
V42
p522
sg96
(lp523
(VGIBSON
VK E
tp524
asg21
I2008
sg55
V413
p525
sbag1
(g2
g3
NtRp526
(dp527
g63
V10.1016/S1388-1981(02)00268-8
p528
sg59
VBBA
p529
sg61
V1584
p530
sg96
(lp531
(VGOBEL
VC
tp532
asg21
I2002
sg55
V55
p533
sbag1
(g2
g3
NtRp534
(dp535
g63
V10.1111/j.1365-313X.2005.02587.x
p536
sg59
VPLANT J
p537
sg61
V44
p538
sg96
(lp539
(VGONG
VQ Q
tp540
asg21
I2005
sg55
VLANT
p541
sbag1
(g2
g3
NtRp542
(dp543
g63
V10.1016/S0098-8472(96)01047-7
p544
sg59
VENVIRON EXP BOT
p545
sg61
V37
p546
sg96
(lp547
(VGUO
VC X
tp548
asg21
I1997
sg55
V147
p549
sbag1
(g2
g3
NtRp550
(dp551
g63
Nsg59
VAPPL ENVIRON MICROB
p552
sg61
V56
p553
sg96
(lp554
(VHOELZLE
VI
tp555
asg21
I1990
sg55
V3213
p556
sbag1
(g2
g3
NtRp557
(dp558
g63
V10.1146/annurev.ento.54.110807.090623
p559
sg59
VANNU REV ENTOMOL
p560
sg61
V54
p561
sg96
(lp562
(VHOPKINS
VR J
tp563
asg21
I2009
sg55
V57
p564
sbag1
(g2
g3
NtRp565
(dp566
g63
V10.1080/01904160600564303
p567
sg59
VJ PLANT NUTR
p568
sg61
V29
p569
sg96
(lp570
(VHOSSAIN
VAKMZ
tp571
asg21
I2006
sg55
V601
p572
sbag1
(g2
g3
NtRp573
(dp574
g63
V10.1104/pp.108.129874
p575
sg59
VPLANT PHYSIOL
p576
sg61
V149
p577
sg96
(lp578
(VHOWELL
VK A
tp579
asg21
I2009
sg55
VLANT
p580
sbag1
(g2
g3
NtRp581
(dp582
g63
V10.1111/j.1744-7909.2008.00736.x
p583
sg59
VJ INTEGR PLANT BIOL
p584
sg61
V50
p585
sg96
(lp586
(VIORDACHESCU
VM
tp587
asg21
I2008
sg55
V1223
p588
sbag1
(g2
g3
NtRp589
(dp590
g63
V10.1007/BF01372783
p591
sg59
VPLANT SOIL
p592
sg61
V34
p593
sg96
(lp594
(VJALALI
VB L
tp595
asg21
I1971
sg55
VLANT
p596
sbag1
(g2
g3
NtRp597
(dp598
g63
V10.1128/JB.01130-07
p599
sg59
VJ BACTERIOL
p600
sg61
V189
p601
sg96
(lp602
(VJAMET
VA
tp603
asg21
I2007
sg55
V8741
p604
sbag1
(g2
g3
NtRp605
(dp606
g63
V10.1007/s00425-006-0470-2
p607
sg59
VPLANTA
p608
sg61
V226
p609
sg96
(lp610
(VJOBIC
VC
tp611
asg21
I2007
sg55
VLANTA
p612
sbag1
(g2
g3
NtRp613
(dp614
g63
V10.1016/j.phytochem.2005.04.007
p615
sg59
VPHYTOCHEMISTRY
p616
sg61
V66
p617
sg96
(lp618
(VKAMARA
VB I
tp619
asg21
I2005
sg55
VHYTOCHEMISTRY
p620
sbag1
(g2
g3
NtRp621
(dp622
g63
Nsg59
VAPPL ENVIRON MICROB
p623
sg61
V58
p624
sg96
(lp625
(VKAPE
VR
tp626
asg21
I1992
sg55
V1705
p627
sbag1
(g2
g3
NtRp628
(dp629
g63
V10.1007/s00253-008-1581-4
p630
sg59
VAPPL MICROBIOL BIOT
p631
sg61
V80
p632
sg96
(lp633
(VKEUM
VY S
tp634
asg21
I2008
sg55
V863
p635
sbag1
(g2
g3
NtRp636
(dp637
g63
V10.1046/j.1365-3059.2001.00599.x
p638
sg59
VPLANT PATHOL
p639
sg61
V50
p640
sg96
(lp641
(VKHAN
VS H
tp642
asg21
I2001
sg55
VLANT
p643
sbag1
(g2
g3
NtRp644
(dp645
g63
V10.1007/BF00027441
p646
sg59
VPLANT GROWTH REGUL
p647
sg61
V9
sg96
(lp648
(VKINNERSLEY
VA M
tp649
asg21
I1990
sg55
VLANT
p650
sbag1
(g2
g3
NtRp651
(dp652
g63
V10.1016/S0735-2689(01)80006-X
p653
sg59
VCRIT REV PLANT SCI
p654
sg61
V19
p655
sg96
(lp656
(VKINNERSLEY
VA M
tp657
asg21
I2000
sg55
V479
p658
sbag1
(g2
g3
NtRp659
(dp660
g63
V10.1073/pnas.94.5.2079
p661
sg59
VP NATL ACAD SCI USA
p662
sg61
V94
p663
sg96
(lp664
(VKIRSCH
VC
tp665
asg21
I1997
sg55
V2079
p666
sbag1
(g2
g3
NtRp667
(dp668
g63
V10.1016/j.envexpbot.2008.10.001
p669
sg59
VENVIRON EXP BOT
p670
sg61
V65
p671
sg96
(lp672
(VKRETZSCHMAR
VF D
tp673
asg21
I2009
sg55
V319
p674
sbag1
(g2
g3
NtRp675
(dp676
g63
V10.1016/j.phytochem.2006.09.029
p677
sg59
VPHYTOCHEMISTRY
p678
sg61
V68
p679
sg96
(lp680
(VKUSTER
VH
tp681
asg21
I2007
sg55
VHYTOCHEMISTRY
p682
sbag1
(g2
g3
NtRp683
(dp684
g63
Nsg59
VACS SYM SER
p685
sg61
V954
p686
sg96
(lp687
(VKUSUMA
VI W
tp688
asg21
I2007
sg55
V377
p689
sbag1
(g2
g3
NtRp690
(dp691
g63
V10.1007/s00438-007-0280-7
p692
sg59
VMOL GENET GENOMICS
p693
sg61
V279
p694
sg96
(lp695
(VLANG
VK
tp696
asg21
I2008
sg55
V203
p697
sbag1
(g2
g3
NtRp698
(dp699
g63
V10.1104/pp.109.138131
p700
sg59
VPLANT PHYSIOL
p701
sg61
V150
p702
sg96
(lp703
(VLEISS
VK A
tp704
asg21
I2009
sg55
VLANT
p705
sbag1
(g2
g3
NtRp706
(dp707
g63
V10.1111/j.1745-7270.2008.00462.x
p708
sg59
VACTA BIOCH BIOPH SIN
p709
sg61
V40
p710
sg96
(lp711
(VLI
VF Q
tp712
asg21
I2008
sg55
V783
p713
sbag1
(g2
g3
NtRp714
(dp715
g63
Nsg59
VPLANT PHYSIOL
p716
sg61
V52
p717
sg96
(lp718
(VLIBAULT
VM
tp719
asg21
I2010
sg55
VLANT
p720
sbag1
(g2
g3
NtRp721
(dp722
g63
V10.1016/S0031-9422(99)00145-4
p723
sg59
VPHYTOCHEMISTRY
p724
sg61
V52
p725
sg96
(lp726
(VLOEWUS
VF A
tp727
asg21
I1999
sg55
VHYTOCHEMISTRY
p728
sbag1
(g2
g3
NtRp729
(dp730
g63
Nsg59
VPLANT PHYSIOL
p731
sg61
V140
p732
sg96
(lp733
(VLOHAR
VD P
tp734
asg21
I2006
sg55
VLANT
p735
sbag1
(g2
g3
NtRp736
(dp737
g63
V10.1111/j.1399-3054.2008.01162.x
p738
sg59
VPHYSIOL PLANTARUM
p739
sg61
V134
p740
sg96
(lp741
(VLOPEZ
VM
tp742
asg21
I2008
sg55
VHYSIOL
p743
sbag1
(g2
g3
NtRp744
(dp745
g63
V10.1111/j.1469-8137.2007.01983.x
p746
sg59
VNEW PHYTOL
p747
sg61
V174
p748
sg96
(lp749
(VLOPEZ
VM F
tp750
asg21
I2007
sg55
V389
p751
sbag1
(g2
g3
NtRp752
(dp753
g63
V10.1007/s11101-008-9096-2
p754
sg59
VPHYTOCHEM REV
p755
sg61
V8
sg96
(lp756
(VLUDWIG-MULLER
VJ
tp757
asg21
I2009
sg55
VHYTOCHEM
p758
sbag1
(g2
g3
NtRp759
(dp760
g63
V10.1111/j.1399-3054.2005.00559.x
p761
sg59
VPHYSIOL PLANTARUM
p762
sg61
V125
p763
sg96
(lp764
(VMABOOD
VF
tp765
asg21
I2005
sg55
VHYSIOL
p766
sbag1
(g2
g3
NtRp767
(dp768
g63
V10.1002/ptr.1696
p769
sg59
VPHYTOTHER RES
p770
sg61
V19
p771
sg96
(lp772
(VMACHADO
VT D
tp773
asg21
I2005
sg55
VHYTOTHER
p774
sbag1
(g2
g3
NtRp775
(dp776
g63
V10.1104/pp.106.081463
p777
sg59
VPLANT PHYSIOL
p778
sg61
V141
p779
sg96
(lp780
(VMATAMOROS
VM A
tp781
asg21
I2006
sg55
VLANT
p782
sbag1
(g2
g3
NtRp783
(dp784
g63
V10.1071/FP08177
p785
sg59
VFUNCT PLANT BIOL
p786
sg61
V35
p787
sg96
(lp788
(VMATHESIUS
VU
tp789
asg21
I2008
sg55
V651
p790
sbag1
(g2
g3
NtRp791
(dp792
g63
V10.5511/plantbiotechnology.22.423
p793
sg59
VPLANT BIOTECHNOL
p794
sg61
V22
p795
sg96
(lp796
(VMATSUDA
VO
tp797
asg21
I2005
sg55
VLANT
p798
sbag1
(g2
g3
NtRp799
(dp800
g63
V10.1007/s10725-008-9347-7
p801
sg59
VPLANT GROWTH REGUL
p802
sg61
V57
p803
sg96
(lp804
(VMATSUURA
VH
tp805
asg21
I2009
sg55
VLANT
p806
sbag1
(g2
g3
NtRp807
(dp808
g63
V10.1128/AEM.00412-07
p809
sg59
VAPPL ENVIRON MICROB
p810
sg61
V73
p811
sg96
(lp812
(VMCINTYRE
VH J
tp813
asg21
I2007
sg55
V3984
p814
sbag1
(g2
g3
NtRp815
(dp816
g63
V10.1094/MPMI-21-4-0459
p817
sg59
VMOL PLANT MICROBE IN
p818
sg61
V21
p819
sg96
(lp820
(VMESCHINI
VE P
tp821
asg21
I2008
sg55
V459
p822
sbag1
(g2
g3
NtRp823
(dp824
g63
V10.1034/j.1399-3054.1996.980407.x
p825
sg59
VPHYSIOL PLANTARUM
p826
sg61
V98
p827
sg96
(lp828
(VMULLER
VJ
tp829
asg21
I1996
sg55
VHYSIOL
p830
sbag1
(g2
g3
NtRp831
(dp832
g63
V10.1016/j.jplph.2006.05.017
p833
sg59
VJ PLANT PHYSIOL
p834
sg61
V164
p835
sg96
(lp836
(VNANDWAL
VA S
tp837
asg21
I2007
sg55
V1161
p838
sbag1
(g2
g3
NtRp839
(dp840
g63
V10.3390/50300589
p841
sg59
VMOLECULES
p842
sg61
V5
sg96
(lp843
(VNAZARENO
VM A
tp844
asg21
I2000
sg55
V589
p845
sbag1
(g2
g3
NtRp846
(dp847
g63
V10.1093/jxb/erf016
p848
sg59
VJ EXP BOT
p849
sg61
V53
p850
sg96
(lp851
(VNOVAK
VK
tp852
asg21
I2002
sg55
V1735
p853
sbag1
(g2
g3
NtRp854
(dp855
g63
V10.1093/pcp/pci118
p856
sg59
VPLANT CELL PHYSIOL
p857
sg61
V46
p858
sg96
(lp859
(VOGAWA
VD
tp860
asg21
I2005
sg55
VLANT
p861
sbag1
(g2
g3
NtRp862
(dp863
g63
Nsg59
VPlant Signal Behav
p864
sg61
V4
sg96
(lp865
(VDING
VYILIANG
tp866
asg21
I2009
sg55
Vlant
p867
sbag1
(g2
g3
NtRp868
(dp869
g63
V10.1146/annurev.arplant.59.032607.092839
p870
sg59
VANNU REV PLANT BIOL
p871
sg61
V59
p872
sg96
(lp873
(VOLDROYD
VG E D
tp874
asg21
I2008
sg55
V519
p875
sbag1
(g2
g3
NtRp876
(dp877
g63
V10.1111/j.1365-2672.2006.03037.x
p878
sg59
VJ APPL MICROBIOL
p879
sg61
V101
p880
sg96
(lp881
(VOVERY
VD P
tp882
asg21
I2006
sg55
V1292
p883
sbag1
(g2
g3
NtRp884
(dp885
g63
V10.1111/j.1399-3054.2005.00545.x
p886
sg59
VPHYSIOL PLANTARUM
p887
sg61
V125
p888
sg96
(lp889
(VPAL
VM
tp890
asg21
I2005
sg55
VHYSIOL
p891
sbag1
(g2
g3
NtRp892
(dp893
g63
V10.1111/j.1365-313X.2009.03912.x
p894
sg59
VPLANT J
p895
sg61
V59
p896
sg96
(lp897
(VPARKER
VD
tp898
asg21
I2009
sg55
VLANT
p899
sbag1
(g2
g3
NtRp900
(dp901
g63
V10.1094/MPMI-20-11-1353
p902
sg59
VMOL PLANT MICROBE IN
p903
sg61
V20
p904
sg96
(lp905
(VPESSI
VG
tp906
asg21
I2007
sg55
V1353
p907
sbag1
(g2
g3
NtRp908
(dp909
g63
V10.1111/j.1469-8137.2004.01152.x
p910
sg59
VNEW PHYTOL
p911
sg61
V163
p912
sg96
(lp913
(VPFEFFER
VP E
tp914
asg21
I2004
sg55
V617
p915
sbag1
(g2
g3
NtRp916
(dp917
g63
V10.1111/j.1399-3054.2007.01004.x
p918
sg59
VPHYSIOL PLANTARUM
p919
sg61
V132
p920
sg96
(lp921
(VPONTAIS
VI
tp922
asg21
I2008
sg55
VHYSIOL
p923
sbag1
(g2
g3
NtRp924
(dp925
g63
V10.1248/cpb.56.1428
p926
sg59
VCHEM PHARM BULL
p927
sg61
V56
p928
sg96
(lp929
(VPOUMALE
VH M P
tp930
asg21
I2008
sg55
V1428
p931
sbag1
(g2
g3
NtRp932
(dp933
g63
V10.1007/s11103-005-7404-4
p934
sg59
VPLANT MOL BIOL
p935
sg61
V58
p936
sg96
(lp937
(VPRAMANIK
VM H R
tp938
asg21
I2005
sg55
VLANT
p939
sbag1
(g2
g3
NtRp940
(dp941
g63
V10.1016/j.tim.2006.02.005
p942
sg59
VTRENDS MICROBIOL
p943
sg61
V14
p944
sg96
(lp945
(VPRELL
VJ
tp946
asg21
I2006
sg55
V161
p947
sbag1
(g2
g3
NtRp948
(dp949
g63
Nsg59
VEUR J CELL BIOL
p950
sg61
V49
p951
sg96
(lp952
(VROTH
VL E
tp953
asg21
I1989
sg55
V13
p954
sbag1
(g2
g3
NtRp955
(dp956
g63
V10.1016/j.jbiotec.2007.03.007
p957
sg59
VJ BIOTECHNOL
p958
sg61
V130
p959
sg96
(lp960
(VSANCHEZ-SAMPEDRO
VA
tp961
asg21
I2007
sg55
V133
p962
sbag1
(g2
g3
NtRp963
(dp964
g63
V10.1016/j.soilbio.2006.05.002
p965
sg59
VSOIL BIOL BIOCHEM
p966
sg61
V38
p967
sg96
(lp968
(VSCERVINO
VJ M
tp969
asg21
I2006
sg55
V2919
p970
sbag1
(g2
g3
NtRp971
(dp972
g63
V10.1046/j.1469-8137.1999.00376.x
p973
sg59
VNEW PHYTOL
p974
sg61
V142
p975
sg96
(lp976
(VSCHELLENBAUM
VL
tp977
asg21
I1999
sg55
V67
p978
sbag1
(g2
g3
NtRp979
(dp980
g63
V10.1016/j.phytochem.2007.06.032
p981
sg59
VPHYTOCHEMISTRY
p982
sg61
V69
p983
sg96
(lp984
(VSCHLIEMANN
VW
tp985
asg21
I2008
sg55
VHYTOCHEMISTRY
p986
sbag1
(g2
g3
NtRp987
(dp988
g63
V10.1111/j.1365-313X.2004.02168.x
p989
sg59
VPLANT J
p990
sg61
V39
p991
sg96
(lp992
(VSCHMELZ
VE A
tp993
asg21
I2004
sg55
VLANT
p994
sbag1
(g2
g3
NtRp995
(dp996
g63
V10.1023/A:1021865029762
p997
sg59
VPLANT GROWTH REGUL
p998
sg61
V39
p999
sg96
(lp1000
(VSENARATNA
VT
tp1001
asg21
I2003
sg55
VLANT
p1002
sbag1
(g2
g3
NtRp1003
(dp1004
g63
V10.1590/S1517-83822008000300006
p1005
sg59
VBRAZ J MICROBIOL
p1006
sg61
V39
p1007
sg96
(lp1008
(VSHABANA
VY M
tp1009
asg21
I2008
sg55
V438
p1010
sbag1
(g2
g3
NtRp1011
(dp1012
g63
V10.1016/S0003-2697(03)00405-6
p1013
sg59
VANAL BIOCHEM
p1014
sg61
V320
p1015
sg96
(lp1016
(VSHAPIRO
VA D
tp1017
asg21
I2003
sg55
V223
p1018
sbag1
(g2
g3
NtRp1019
(dp1020
g63
V10.1016/S1360-1385(99)01486-7
p1021
sg59
VTRENDS PLANT SCI
p1022
sg61
V4
sg96
(lp1023
(VSHELP
VB J
tp1024
asg21
I1999
sg55
V446
p1025
sbag1
(g2
g3
NtRp1026
(dp1027
g63
V10.1111/j.1399-3054.2007.01025.x
p1028
sg59
VPHYSIOL PLANTARUM
p1029
sg61
V132
p1030
sg96
(lp1031
(VSHULAEV
VV
tp1032
asg21
I2008
sg55
VHYSIOL
p1033
sbag1
(g2
g3
NtRp1034
(dp1035
g63
V10.1081/PLN-200025998
p1036
sg59
VJ PLANT NUTR
p1037
sg61
V27
p1038
sg96
(lp1039
(VSINGH
VS
tp1040
asg21
I2004
sg55
V1543
p1041
sbag1
(g2
g3
NtRp1042
(dp1043
g63
V10.1016/j.pbi.2006.01.005
p1044
sg59
VCURR OPIN PLANT BIOL
p1045
sg61
V9
sg96
(lp1046
(VSTACEY
VG
tp1047
asg21
I2006
sg55
V110
p1048
sbag1
(g2
g3
NtRp1049
(dp1050
g63
V10.1046/j.1365-2672.2003.02017.x
p1051
sg59
VJ APPL MICROBIOL
p1052
sg61
V95
p1053
sg96
(lp1054
(VSTREETER
VJ G
tp1055
asg21
I2003
sg55
V484
p1056
sbag1
(g2
g3
NtRp1057
(dp1058
g63
V10.1046/j.1365-3040.2001.00690.x
p1059
sg59
VPLANT CELL ENVIRON
p1060
sg61
V24
p1061
sg96
(lp1062
(VSTREETER
VJ G
tp1063
asg21
I2001
sg55
VLANT
p1064
sbag1
(g2
g3
NtRp1065
(dp1066
g63
V10.1128/AEM.00256-06
p1067
sg59
VAPPL ENVIRON MICROB
p1068
sg61
V72
p1069
sg96
(lp1070
(VSTREETER
VJ G
tp1071
asg21
I2006
sg55
V4250
p1072
sbag1
(g2
g3
NtRp1073
(dp1074
g63
V10.1016/j.phytochem.2005.01.020
p1075
sg59
VPHYTOCHEMISTRY
p1076
sg61
V66
p1077
sg96
(lp1078
(VSTUMPE
VM
tp1079
asg21
I2005
sg55
VHYTOCHEMISTRY
p1080
sbag1
(g2
g3
NtRp1081
(dp1082
g63
V10.1094/MPMI-21-7-0958
p1083
sg59
VMOL PLANT MICROBE IN
p1084
sg61
V21
p1085
sg96
(lp1086
(VSUAREZ
VR
tp1087
asg21
I2008
sg55
V958
p1088
sbag1
(g2
g3
NtRp1089
(dp1090
g63
V10.1016/j.tplants.2007.06.006
p1091
sg59
VTRENDS PLANT SCI
p1092
sg61
V12
p1093
sg96
(lp1094
(VSUBRAMANIAN
VS
tp1095
asg21
I2007
sg55
V282
p1096
sbag1
(g2
g3
NtRp1097
(dp1098
g63
V10.1111/j.1365-313X.2006.02874.x
p1099
sg59
VPLANT J
p1100
sg61
V48
p1101
sg96
(lp1102
(VSUBRAMANIAN
VS
tp1103
asg21
I2006
sg55
VLANT
p1104
sbag1
(g2
g3
NtRp1105
(dp1106
g63
V10.1128/AEM.02483-09
p1107
sg59
VAPPL ENVIRON MICROB
p1108
sg61
V76
p1109
sg96
(lp1110
(VSUGAWARA
VM
tp1111
asg21
I2010
sg55
V1071
p1112
sbag1
(g2
g3
NtRp1113
(dp1114
g63
Nsg59
VIndian Journal of Experimental Biology
p1115
sg61
V37
p1116
sg96
(lp1117
(VSWARAJ
VK
tp1118
asg21
I1999
sg55
V843
p1119
sbag1
(g2
g3
NtRp1120
(dp1121
g63
Nsg59
VPlant Signal Behav
p1122
sg61
V3
sg96
(lp1123
(VTAKAHASHI
VHIDEYUKI
tp1124
asg21
I2008
sg55
Vlant
p1125
sbag1
(g2
g3
NtRp1126
(dp1127
g63
Nsg59
VACTA BIOCHIM POL
p1128
sg61
V56
p1129
sg96
(lp1130
(VTALUKDAR
VT
tp1131
asg21
I2009
sg55
V199
p1132
sbag1
(g2
g3
NtRp1133
(dp1134
g63
V10.1055/s-1999-13965
p1135
sg59
VPLANTA MED
p1136
sg61
V65
p1137
sg96
(lp1138
(VTAN
VR X
tp1139
asg21
I1999
sg55
VLANTA
p1140
sbag1
(g2
g3
NtRp1141
(dp1142
g63
V10.1007/s102650200012
p1143
sg59
VJ PLANT RES
p1144
sg61
V115
p1145
sg96
(lp1146
(VTIMOTIWU
VP B
tp1147
asg21
I2002
sg55
V77
p1148
sbag1
(g2
g3
NtRp1149
(dp1150
g63
V10.1034/j.1399-3054.1998.1040106.x
p1151
sg59
VPHYSIOL PLANTARUM
p1152
sg61
V104
p1153
sg96
(lp1154
(VTRINCHANT
VJ C
tp1155
asg21
I1998
sg55
VHYSIOL
p1156
sbag1
(g2
g3
NtRp1157
(dp1158
g63
V10.1007/s10529-008-9639-z
p1159
sg59
VBIOTECHNOL LETT
p1160
sg61
V30
p1161
sg96
(lp1162
(VUPCHURCH
VR G
tp1163
asg21
I2008
sg55
V967
p1164
sbag1
(g2
g3
NtRp1165
(dp1166
g63
V10.1111/j.1365-313X.2008.03748.x
p1167
sg59
VPLANT J
p1168
sg61
V57
p1169
sg96
(lp1170
(VURANO
VK
tp1171
asg21
I2009
sg55
VLANT
p1172
sbag1
(g2
g3
NtRp1173
(dp1174
g63
V10.1007/s11101-008-9101-9
p1175
sg59
VPHYTOCHEM REV
p1176
sg61
V8
sg96
(lp1177
(VVAN
VD A M N M
tp1178
asg21
I2009
sg55
VHYTOCHEM
p1179
sbag1
(g2
g3
NtRp1180
(dp1181
g63
V10.1111/j.1365-3040.2006.01567.x
p1182
sg59
VPLANT CELL ENVIRON
p1183
sg61
V29
p1184
sg96
(lp1185
(VVERDOY
VD
tp1186
asg21
I2006
sg55
VLANT
p1187
sbag1
(g2
g3
NtRp1188
(dp1189
g63
Nsg59
VCAN J MICROBIOL
p1190
sg61
V41
p1191
sg96
(lp1192
(VWAGNER
VS
tp1193
asg21
I1995
sg55
V633
p1194
sbag1
(g2
g3
NtRp1195
(dp1196
g63
V10.1023/B:MYCO.0000012222.68156.2c
p1197
sg59
VMYCOPATHOLOGIA
p1198
sg61
V157
p1199
sg96
(lp1200
(VWALTERS
VD
tp1201
asg21
I2004
sg55
V87
p1202
sbag1
(g2
g3
NtRp1203
(dp1204
g63
Nsg59
VJ PHYTOPATHOL
p1205
sg61
V151
p1206
sg96
(lp1207
(VWALTERS
VD R
tp1208
asg21
I2003
sg55
V228
p1209
sbag1
(g2
g3
NtRp1210
(dp1211
g63
V10.1094/MPMI-18-0458
p1212
sg59
VMOL PLANT MICROBE IN
p1213
sg61
V18
p1214
sg96
(lp1215
(VWAN
VJ R
tp1216
asg21
I2005
sg55
V458
p1217
sbag1
(g2
g3
NtRp1218
(dp1219
g63
V10.1093/aob/mcm079
p1220
sg59
VANN BOT
p1221
sg61
V100
p1222
sg96
(lp1223
(VWASTERNACK
VC
tp1224
asg21
I2007
sg55
V681
p1225
sbag1
(g2
g3
NtRp1226
(dp1227
g63
V10.1016/j.soilbio.2008.10.007
p1228
sg59
VSOIL BIOL BIOCHEM
p1229
sg61
V41
p1230
sg96
(lp1231
(VWATKIN
VE L J
tp1232
asg21
I2009
sg55
V163
p1233
sbag1
(g2
g3
NtRp1234
(dp1235
g63
V10.1023/A:1027355604096
p1236
sg59
VPLANT GROWTH REGUL
p1237
sg61
V41
p1238
sg96
(lp1239
(VWILLIAMS
VM
tp1240
asg21
I2003
sg55
VLANT
p1241
sbag1
(g2
g3
NtRp1242
(dp1243
g63
V10.1016/S1534-5807(03)00236-3
p1244
sg59
VDEV CELL
p1245
sg61
V5
sg96
(lp1246
(VYANG
VZ B
tp1247
asg21
I2003
sg55
V185
p1248
sbag1
(g2
g3
NtRp1249
(dp1250
g63
Nsg59
VMOL CELLS
p1251
sg61
V10
p1252
sg96
(lp1253
(VYEO
VE T
tp1254
asg21
I2000
sg55
V263
p1255
sbag1
(g2
g3
NtRp1256
(dp1257
g63
V10.1139/w08-021
p1258
sg59
VCAN J MICROBIOL
p1259
sg61
V54
p1260
sg96
(lp1261
(VYOKOYAMA
VT
tp1262
asg21
I2008
sg55
V401
p1263
sbag1
(g2
g3
NtRp1264
(dp1265
g63
V10.4161/psb.2.5.4265
p1266
sg59
VPlant Signal Behav
p1267
sg61
V2
sg96
(lp1268
(VYU
VGUANGHUI
tp1269
asg21
I2007
sg55
Vlant
p1270
sbag1
(g2
g3
NtRp1271
(dp1272
g63
Nsg59
VADV EXP MED BIOL
p1273
sg61
V404
p1274
sg96
(lp1275
(VZEHAVI
VU
tp1276
asg21
I1996
sg55
V535
p1277
sbag1
(g2
g3
NtRp1278
(dp1279
g63
V10.1111/j.1365-313X.2008.03676.x
p1280
sg59
VPLANT J
p1281
sg61
V57
p1282
sg96
(lp1283
(VZHANG
VJ
tp1284
asg21
I2009
sg55
VLANT
p1285
sbag1
(g2
g3
NtRp1286
(dp1287
g63
V10.1128/AEM.72.4.2738-2748.2006
p1288
sg59
VAPPL ENVIRON MICROB
p1289
sg61
V72
p1290
sg96
(lp1291
(VZHANG
VX S
tp1292
asg21
I2006
sg55
V2738
p1293
sbag1
(g2
g3
NtRp1294
(dp1295
g63
V10.1094/MPMI.1998.11.8.784
p1296
sg59
VMOL PLANT MICROBE IN
p1297
sg61
V11
p1298
sg96
(lp1299
(VZUANAZZI
VJ A S
tp1300
asg21
I1998
sg55
V784
p1301
sbasb.