ccopy_reg
_reconstructor
p1
(ctethne.classes.paper
Paper
p2
c__builtin__
object
p3
NtRp4
(dp5
S'publisherCity'
p6
VROCKVILLE
p7
sS'reprintAddress'
p8
VHagemann, M (reprint author), Univ Rostock, Inst Biowissensch, D-18051 Rostock, Germany.
p9
sS'WC'
p10
VPlant Sciences
p11
sS'GA'
p12
V380YH
p13
sS'FX'
p14
(lp15
VThis work was supported by the Deutsche Forschungsgemeinschaft ( grant
p16
aVto M. H. and J. K.).
p17
asS'abstract'
p18
VThe amount of inorganic carbon represents one of the main environmental factors determining productivity of photoautotrophic organisms. Using the model cyanobacterium Synechocystis sp. PCC 6803, we performed a first metabolome study with cyanobacterial cells shifted from high CO(2) (5% in air) into conditions of low CO(2) (LC; ambient air with 0.035% CO(2)). Using gas chromatography-mass spectrometry, 74 metabolites were reproducibly identified under different growth conditions. Shifting wild-type cells into LC conditions resulted in a global metabolic reprogramming and involved increases of, for example, 2-oxoglutarate (2OG) and phosphoenolpyruvate, and reductions of, for example, sucrose and fructose-1,6-bisphosphate. A decrease in Calvin-Benson cycle activity and increased usage of associated carbon cycling routes, including photorespiratory metabolism, was indicated by synergistic accumulation of the fumarate, malate, and 2- phosphoglycolate pools and a transient increase of 3-phosphoglycerate. The unexpected accumulation of 2OG with a concomitant decrease of glutamine pointed toward reduced nitrogen availability when cells are confronted with LC. Despite the increase in 2OG and low amino acid pools, we found a complete dephosphorylation of the PII regulatory protein at LC characteristic for nitrogen-replete conditions. Moreover, mutants with defined blocks in the photorespiratory metabolism leading to the accumulation of glycolate and glycine, respectively, exhibited features of LC-treated wild-type cells such as the changed 2OG to glutamine ratio and PII phosphorylation state already under high CO(2) conditions. Thus, metabolome profiling demonstrated that acclimation to LC involves coordinated changes of carbon and interacting nitrogen metabolism. We hypothesize that Synechocystis has a temporal lag of acclimating carbon versus nitrogen metabolism with carbon leading.
p19
sS'pageEnd'
p20
I2120
sS'date'
p21
I2008
sS'documentType'
p22
VArticle
p23
sS'subject'
p24
VPlant Sciences
p25
sS'isoSource'
p26
VPlant Physiol.
p27
sS'timesCited'
p28
(lp29
I20
aVZ9 20
p30
asS'funding'
p31
(lp32
(VDeutsche Forschungsgemeinschaft
Ntp33
asS'PT'
p34
VJ
sS'title'
p35
VMetabolome Phenotyping Of Inorganic Carbon Limitation In Cells Of The Wild Type And Photorespiratory Mutants Of The Cyanobacterium Synechocystis Sp Strain Pcc 6803
p36
sS'ISSN'
p37
(lp38
V0032-0889
p39
aVJ9 PLANT PHYSIOL
p40
asS'authors_full'
p41
(lp42
(VEISENHUT
VMARION
tp43
a(VHUEGE
VJAN
tp44
a(VSCHWARZ
VDOREEN
tp45
a(VBAUWE
VHERMANN
tp46
a(VKOPKA
VJOACHIM
tp47
a(VHAGEMANN
VMARTIN
tp48
asS'PG'
p49
I12
sS'PD'
p50
VDEC
p51
sS'pageStart'
p52
I2109
sS'issue'
p53
I4
sS'journal'
p54
VPLANT PHYSIOLOGY
p55
sS'volume'
p56
V148
p57
sS'doi'
p58
V10.1104/pp.108.129403
p59
sS'emailAddress'
p60
Vmartin.hagemann@uni-rostock.de
p61
sS'authorAddress'
p62
(lp63
V[Eisenhut, Marion; Schwarz, Doreen; Bauwe, Hermann; Hagemann, Martin] Univ Rostock, Inst Biowissensch, D-18051 Rostock, Germany.
p64
aV[Huege, Jan; Kopka, Joachim] Max Planck Inst Mol Pflanzenphysiol, D-14476 Golm, Germany.
p65
asS'publisherAddress'
p66
V15501 MONONA DRIVE, ROCKVILLE, MD 20855 USA
p67
sS'ER'
p68
V
sS'publisher'
p69
VAMER SOC PLANT BIOLOGISTS
p70
sS'authorKeywords'
p71
(lp72
VFLUX ANALYSIS
p73
aVSP PCC-6803
p74
aVPROTEIN
p75
aVPCC-7942
p76
aVGENOMICS
p77
aVCYCLE
p78
aVMICROORGANISMS
p79
aVPURIFICATION
p80
aVSPECTROMETRY
p81
aVPHOSPHATASE
p82
asS'language'
p83
VEnglish
p84
sS'wosid'
p85
VWOS:000261501500029
p86
sS'citationCount'
p87
I41
sS'authors_init'
p88
(lp89
(VEISENHUT
VM
tp90
a(VHUEGE
VJ
tp91
a(VSCHWARZ
VD
tp92
a(VBAUWE
VH
tp93
a(VKOPKA
VJ
tp94
a(VHAGEMANN
VM
tp95
asS'citedReferences'
p96
(lp97
g1
(g2
g3
NtRp98
(dp99
g58
V10.1016/0003-9861(80)90509-3
p100
sg54
VARCH BIOCHEM BIOPHYS
p101
sg56
V201
p102
sg88
(lp103
(VBADGER
VM R
tp104
asg21
I1980
sg52
V247
p105
sbag1
(g2
g3
NtRp106
(dp107
g58
V10.1093/jxb/eri286
p108
sg54
VJ EXP BOT
p109
sg56
V57
p110
sg88
(lp111
(VBADGER
VM R
tp112
asg21
I2006
sg52
V249
p113
sbag1
(g2
g3
NtRp114
(dp115
g58
V10.1093/jxb/erh079
p116
sg54
VJ EXP BOT
p117
sg56
V55
p118
sg88
(lp119
(VBARI
VR
tp120
asg21
I2004
sg52
V623
p121
sbag1
(g2
g3
NtRp122
(dp123
g58
V10.1128/JB.182.3.714-722.2000
p124
sg54
VJ BACTERIOL
p125
sg56
V182
p126
sg88
(lp127
(VCOOLEY
VJ W
tp128
asg21
I2000
sg52
V714
p129
sbag1
(g2
g3
NtRp130
(dp131
g58
V10.1093/bioinformatics/btg321
p132
sg54
VBIOINFORMATICS
p133
sg56
V19
p134
sg88
(lp135
(VDAUB
VC O
tp136
asg21
I2003
sg52
V2332
p137
sbag1
(g2
g3
NtRp138
(dp139
g58
V10.1093/molbev/msn022
p140
sg54
VMOL BIOL EVOL
p141
sg56
V25
p142
sg88
(lp143
(VDEUSCH
VO
tp144
asg21
I2008
sg52
V748
p145
sbag1
(g2
g3
NtRp146
(dp147
g58
V10.1104/pp.107.103341
p148
sg54
VPLANT PHYSIOL
p149
sg56
V144
p150
sg88
(lp151
(VEISENHUT
VM
tp152
asg21
I2007
sg52
VLANT
p153
sbag1
(g2
g3
NtRp154
(dp155
g58
V10.1111/j.1574-6968.2007.00960.x
p156
sg54
VFEMS MICROBIOL LETT
p157
sg56
V277
p158
sg88
(lp159
(VEISENHUT
VM
tp160
asg21
I2007
sg52
V232
p161
sbag1
(g2
g3
NtRp162
(dp163
g58
V10.1104/pp.106.082982
p164
sg54
VPLANT PHYSIOL
p165
sg56
V142
p166
sg88
(lp167
(VEISENHUT
VM
tp168
asg21
I2006
sg52
VLANT
p169
sbag1
(g2
g3
NtRp170
(dp171
g58
Nsg54
VMETABOLOMICS METHODS
p172
sg56
Nsg88
(lp173
(VERBAN
VA
tp174
asg21
I2007
sg52
V19
p175
sbag1
(g2
g3
NtRp176
(dp177
g58
V10.1038/nrm1451
p178
sg54
VNAT REV MOL CELL BIO
p179
sg56
V5
sg88
(lp180
(VFERNIE
VA R
tp181
asg21
I2004
sg52
V763
p182
sbag1
(g2
g3
NtRp183
(dp184
g58
V10.1038/81137
p185
sg54
VNAT BIOTECHNOL
p186
sg56
V18
p187
sg88
(lp188
(VFIEHN
VO
tp189
asg21
I2000
sg52
V1157
p190
sbag1
(g2
g3
NtRp191
(dp192
g58
V10.1016/j.tim.2007.11.004
p193
sg54
VTRENDS MICROBIOL
p194
sg56
V16
p195
sg88
(lp196
(VFORCHHAMMER
VK
tp197
asg21
I2008
sg52
V65
p198
sbag1
(g2
g3
NtRp199
(dp200
g58
Nsg54
VJ BACTERIOL
p201
sg56
V177
p202
sg88
(lp203
(VFORCHHAMMER
VK
tp204
asg21
I1995
sg52
V2033
p205
sbag1
(g2
g3
NtRp206
(dp207
g58
Nsg54
VJ BACTERIOL
p208
sg56
V176
p209
sg88
(lp210
(VFORCHHAMMER
VK
tp211
asg21
I1994
sg52
V84
p212
sbag1
(g2
g3
NtRp213
(dp214
g58
V10.1023/A:1014472322835
p215
sg54
VPLANT MOL BIOL
p216
sg56
V49
p217
sg88
(lp218
(VFULDA
VS
tp219
asg21
I2002
sg52
VLANT
p220
sbag1
(g2
g3
NtRp221
(dp222
g58
V10.1111/j.1399-3054.2007.00999.x
p223
sg54
VPHYSIOL PLANTARUM
p224
sg56
V132
p225
sg88
(lp226
(VGUY
VC
tp227
asg21
I2008
sg52
VHYSIOL
p228
sbag1
(g2
g3
NtRp229
(dp230
g58
V10.1055/s-2004-830445
p231
sg54
VPLANT BIOLOGY
p232
sg56
V7
sg88
(lp233
(VHAGEMANN
VM
tp234
asg21
I2005
sg52
VLANT
p235
sbag1
(g2
g3
NtRp236
(dp237
g58
V10.1080/07352688709382234
p238
sg54
VCRIT REV PLANT SCI
p239
sg56
V5
sg88
(lp240
(VHUSIC
VD W
tp241
asg21
I1987
sg52
V45
p242
sbag1
(g2
g3
NtRp243
(dp244
g58
V10.1146/annurev.arplant.50.1.539
p245
sg54
VANNU REV PLANT PHYS
p246
sg56
V50
p247
sg88
(lp248
(VKAPLAN
VA
tp249
asg21
I1999
sg52
V539
p250
sbag1
(g2
g3
NtRp251
(dp252
g58
V10.1104/pp.60.2.295
p253
sg54
VPLANT PHYSIOL
p254
sg56
V60
p255
sg88
(lp256
(VKELLY
VG J
tp257
asg21
I1977
sg52
VLANT
p258
sbag1
(g2
g3
NtRp259
(dp260
g58
V10.1099/mic.0.27771-0
p261
sg54
VMICROBIOL
p262
sg56
V151
p263
sg88
(lp264
(VKLOFT
VN
tp265
asg21
I2005
sg52
V1275
p266
sbag1
(g2
g3
NtRp267
(dp268
g58
V10.1021/ac051683+
p269
sg54
VANAL CHEM
p270
sg56
V78
p271
sg88
(lp272
(VKOEK
VM M
tp273
asg21
I2006
sg52
V1272
p274
sbag1
(g2
g3
NtRp275
(dp276
g58
V10.1093/bioinformatics/bti236
p277
sg54
VBIOINFORMATICS
p278
sg56
V21
p279
sg88
(lp280
(VKOPKA
VJ
tp281
asg21
I2005
sg52
V1635
p282
sbag1
(g2
g3
NtRp283
(dp284
g58
V10.1093/bioinformatics/btn023
p285
sg54
VBIOINFORMATICS
p286
sg56
V24
p287
sg88
(lp288
(VLUEDEMANN
VA
tp289
asg21
I2008
sg52
V732
p290
sbag1
(g2
g3
NtRp291
(dp292
g58
Nsg54
VMikrobiol Z
p293
sg56
V62
p294
sg88
(lp295
(VMENDZHUL
VM I
tp296
asg21
I2000
sg52
V3
sbag1
(g2
g3
NtRp297
(dp298
g58
V10.1007/s11120-004-2082-7
p299
sg54
VPHOTOSYNTH RES
p300
sg56
V83
p301
sg88
(lp302
(VMURO-PASTOR
VM I
tp303
asg21
I2005
sg52
VHOTOSYNTH
p304
sbag1
(g2
g3
NtRp305
(dp306
g58
V10.1111/j.1365-2958.2008.06137.x
p307
sg54
VMOL MICROBIOL
p308
sg56
V68
p309
sg88
(lp310
(VNISHIMURA
VT
tp311
asg21
I2008
sg52
V98
p312
sbag1
(g2
g3
NtRp313
(dp314
g58
V10.1104/pp.95.3.693
p315
sg54
VPLANT PHYSIOL
p316
sg56
V95
p317
sg88
(lp318
(VNORMAN
VE G
tp319
asg21
I1991
sg52
VLANT
p320
sbag1
(g2
g3
NtRp321
(dp322
g58
Nsg54
VMICROBIOL MOL BIOL R
p323
sg56
V63
p324
sg88
(lp325
(VPARTENSKY
VF
tp326
asg21
I1999
sg52
V106
p327
sbag1
(g2
g3
NtRp328
(dp329
g58
Nsg54
VJ GEN MICROBIOL
p330
sg56
V111
p331
sg88
(lp332
(VRIPPKA
VR
tp333
asg21
I1979
sg52
V1
sbag1
(g2
g3
NtRp334
(dp335
g58
V10.1104/pp.127.3.749
p336
sg54
VPLANT PHYSIOL
p337
sg56
V127
p338
sg88
(lp339
(VROESSNER
VU
tp340
asg21
I2001
sg52
VLANT
p341
sbag1
(g2
g3
NtRp342
(dp343
g58
Nsg54
VBIOTECHNIQUES
p344
sg56
V34
p345
sg88
(lp346
(VSAEED
VA I
tp347
asg21
I2003
sg52
V374
p348
sbag1
(g2
g3
NtRp349
(dp350
g58
V10.1016/j.phytochem.2007.03.042
p351
sg54
VPHYTOCHEMISTRY
p352
sg56
V68
p353
sg88
(lp354
(VSHASTRI
VA A
tp355
asg21
I2007
sg52
VHYTOCHEMISTRY
p356
sbag1
(g2
g3
NtRp357
(dp358
g58
V10.1016/j.jchromb.2008.04.042
p359
sg54
VJ CHROMATOGR B
p360
sg56
V871
p361
sg88
(lp362
(VSTREHMEL
VN
tp363
asg21
I2008
sg52
V182
p364
sbag1
(g2
g3
NtRp365
(dp366
g58
V10.1146/annurev.arplant.48.1.1
p367
sg54
VANNU REV PLANT PHYS
p368
sg56
V48
p369
sg88
(lp370
(VTOLBERT
VN E
tp371
asg21
I1997
sg52
V1
sbag1
(g2
g3
NtRp372
(dp373
g58
V10.1016/S1369-5266(99)80017-X
p374
sg54
VCURR OPIN PLANT BIOL
p375
sg56
V2
sg88
(lp376
(VTRETHEWEY
VR N
tp377
asg21
I1999
sg52
V83
p378
sbag1
(g2
g3
NtRp379
(dp380
g58
V10.1104/pp.105.069146
p381
sg54
VPLANT PHYSIOL
p382
sg56
V139
p383
sg88
(lp384
(VWOODGER
VF J
tp385
asg21
I2005
sg52
VLANT
p386
sbag1
(g2
g3
NtRp387
(dp388
g58
V10.1006/mben.2002.0226
p389
sg54
VMETAB ENG
p390
sg56
V4
sg88
(lp391
(VYANG
VC
tp392
asg21
I2002
sg52
V202
p393
sbag1
(g2
g3
NtRp394
(dp395
g58
V10.1111/j.1365-2958.2005.04979.x
p396
sg54
VMOL MICROBIOL
p397
sg56
V59
p398
sg88
(lp399
(VZHANG
VC C
tp400
asg21
I2006
sg52
V367
p401
sbag1
(g2
g3
NtRp402
(dp403
g58
V10.1111/j.1365-2958.2007.05822.x
p404
sg54
VMOL MICROBIOL
p405
sg56
V65
p406
sg88
(lp407
(VZHANG
VP P
tp408
asg21
I2007
sg52
V728
p409
sbasb.