ccopy_reg
_reconstructor
p1
(ctethne.classes.paper
Paper
p2
c__builtin__
object
p3
NtRp4
(dp5
S'publisherCity'
p6
VROCKVILLE
p7
sS'reprintAddress'
p8
VDegenhardt, RF (reprint author), Univ Saskatchewan, Dept Biol, Saskatoon, SK S7N 5E2, Canada.
p9
sS'WC'
p10
VPlant Sciences
p11
sS'GA'
p12
V308VV
p13
sS'abstract'
p14
VProtein synthesis is catalyzed by the ribosome, a two-subunit enzyme comprised of four ribosomal RNAs and, in Arabidopsis (Arabidopsis thaliana), 81 ribosomal proteins (r-proteins). Plant r-protein genes exist as families of multiple expressed members, yet only one r-protein from each family is incorporated into any given ribosome, suggesting that many r-protein genes may be functionally redundant or development/tissue/stress specific. Here, we characterized the localization and gene-silencing phenotypes of a large subunit r-protein family, RPL23a, containing two expressed genes (RPL23aA and RPL23aB). Live cell imaging of RPL23aA and RPL23aB in tobacco with a C-terminal fluorescent-protein tag demonstrated that both isoforms accumulated in the nucleolus; however, only RPL23aA was targeted to the nucleolus with an N-terminal fluorescent protein tag, suggesting divergence in targeting efficiency of localization signals. Independent knockdowns of endogenous RPL23aA and RPL23aB transcript levels using RNA interference determined that an RPL23aB knockdown did not alter plant growth or development. Conversely, a knockdown of RPL23aA produced a pleiotropic phenotype characterized by growth retardation, irregular leaf and root morphology, abnormal phyllotaxy and vasculature, and loss of apical dominance. Comparison to other mutants suggests that the phenotype results from reduced ribosome biogenesis, and we postulate a link between biogenesis, microRNA-target degradation, and maintenance of auxin homeostasis. An additional RNA interference construct that coordinately silenced both RPL23aA and RPL23aB demonstrated that this family is essential for viability.
p15
sS'pageEnd'
p16
I142
sS'publisherAddress'
p17
V15501 MONONA DRIVE, ROCKVILLE, MD 20855 USA
p18
sS'documentType'
p19
VReview
p20
sS'subject'
p21
VPlant Sciences
p22
sS'isoSource'
p23
VPlant Physiol.
p24
sS'timesCited'
p25
(lp26
I36
aVZ9 36
p27
asS'PT'
p28
VJ
sS'title'
p29
VArabidopsis Ribosomal Proteins Rpl23Aa And Rpl23Ab Are Differentially Targeted To The Nucleolus And Are Disparately Required For Normal Development
p30
sS'ISSN'
p31
(lp32
V0032-0889
p33
aVJ9 PLANT PHYSIOL
p34
asS'authors_full'
p35
(lp36
(VDEGENHARDT
VRORY F
tp37
a(VBONHAMSMITH
VPETA C
tp38
asS'PG'
p39
I15
sS'PD'
p40
VMAY
p41
sS'pageStart'
p42
I128
sS'issue'
p43
I1
sS'journal'
p44
VPLANT PHYSIOLOGY
p45
sS'volume'
p46
V147
p47
sS'doi'
p48
V10.1104/pp.107.111799
p49
sS'emailAddress'
p50
Vrfd014@mail.usask.ca
p51
sS'authorAddress'
p52
V[Degenhardt, Rory F.; Bonham-Smith, Peta C.] Univ Saskatchewan, Dept Biol, Saskatoon, SK S7N 5E2, Canada.
p53
sS'date'
p54
I2008
sS'ER'
p55
V
sS'publisher'
p56
VAMER SOC PLANT BIOLOGISTS
p57
sS'authorKeywords'
p58
(lp59
VGREEN-FLUORESCENT PROTEIN
p60
aVAFFECTS PLANT DEVELOPMENT
p61
aVSACCHAROMYCES-CEREVISIAE
p62
aVANGSTROM RESOLUTION
p63
aVESCHERICHIA-COLI
p64
aVBINDING-PROTEIN
p65
aVGENE-EXPRESSION
p66
aVAUXIN RESPONSE
p67
aVIN-VITRO
p68
aVENDOPLASMIC-RETICULUM
p69
asS'language'
p70
VEnglish
p71
sS'wosid'
p72
VWOS:000256419400013
p73
sS'citationCount'
p74
I133
sS'authors_init'
p75
(lp76
(VDEGENHARDT
VR F
tp77
a(VBONHAMSMITH
VP C
tp78
asS'citedReferences'
p79
(lp80
g1
(g2
g3
NtRp81
(dp82
g48
V10.1242/dev.02554
p83
sg44
VDEVELOPMENT
p84
sg46
V133
p85
sg75
(lp86
(VALONSO-PERAL
VM M
tp87
asg54
I2006
sg42
V3755
p88
sbag1
(g2
g3
NtRp89
(dp90
g48
Nsg44
VLOOK BEYOND TRANSCRIPTION
p91
sg46
Nsg75
(lp92
(VBAILEY-SERRES
VJ
tp93
asg54
I1998
sg42
V125
p94
sbag1
(g2
g3
NtRp95
(dp96
g48
V10.1126/science.289.5481.905
p97
sg44
VSCIENCE
p98
sg46
V289
p99
sg75
(lp100
(VBAN
VN
tp101
asg54
I2000
sg42
V905
p102
sbag1
(g2
g3
NtRp103
(dp104
g48
V10.1104/pp.127.2.398
p105
sg44
VPLANT PHYSIOL
p106
sg46
V127
p107
sg75
(lp108
(VBARAKAT
VA
tp109
asg54
I2001
sg42
VLANT
p110
sbag1
(g2
g3
NtRp111
(dp112
g48
Nsg44
VJ BIOL CHEM
p113
sg46
V275
p114
sg75
(lp115
(VBARNECHE
VF
tp116
asg54
I2000
sg42
V27212
p117
sbag1
(g2
g3
NtRp118
(dp119
g48
V10.1105/tpc.12.11.2201
p120
sg44
VPLANT CELL
p121
sg46
V12
p122
sg75
(lp123
(VBATOKO
VH
tp124
asg54
I2000
sg42
VLANT
p125
sbag1
(g2
g3
NtRp126
(dp127
g48
V10.1126/science.278.5346.2123
p128
sg44
VSCIENCE
p129
sg46
V278
p130
sg75
(lp131
(VBECKMANN
VR
tp132
asg54
I1997
sg42
V2123
p133
sbag1
(g2
g3
NtRp134
(dp135
g48
V10.1046/j.1365-313X.1995.8040505.x
p136
sg44
VPLANT J
p137
sg46
V8
sg75
(lp138
(VBENNETT
VS R M
tp139
asg54
I1995
sg42
VLANT
p140
sbag1
(g2
g3
NtRp141
(dp142
g48
Nsg44
VJ CELL SCI
p143
sg46
V108
p144
sg75
(lp145
(VBEVEN
VA F
tp146
asg54
I1995
sg42
V509
p147
sbag1
(g2
g3
NtRp148
(dp149
g48
V10.1126/science.1138359
p150
sg44
VSCIENCE
p151
sg46
V188
p152
sg75
(lp153
(VBOGORAD
VL
tp154
asg54
I1975
sg42
V891
p155
sbag1
(g2
g3
NtRp156
(dp157
g48
V10.1093/emboj/17.1.170
p158
sg44
VEMBO J
p159
sg46
V17
p160
sg75
(lp161
(VBOHMERT
VK
tp162
asg54
I1998
sg42
V170
p163
sbag1
(g2
g3
NtRp164
(dp165
g48
V10.1093/emboj/cdf613
p166
sg44
VEMBO J
p167
sg46
V21
p168
sg75
(lp169
(VBOHNSACK
VM T
tp170
asg54
I2002
sg42
V6205
p171
sbag1
(g2
g3
NtRp172
(dp173
g48
V10.1073/pnas.0404025101
p174
sg44
VP NATL ACAD SCI USA
p175
sg46
V101
p176
sg75
(lp177
(VBONNET
VE
tp178
asg54
I2004
sg42
V11511
p179
sbag1
(g2
g3
NtRp180
(dp181
g48
V10.1074/jbc.273.30.19025
p182
sg44
VJ BIOL CHEM
p183
sg46
V273
p184
sg75
(lp185
(VBOUVET
VP
tp186
asg54
I1998
sg42
V19025
p187
sbag1
(g2
g3
NtRp188
(dp189
g48
V10.1105/tpc.000620
p190
sg44
VPLANT CELL
p191
sg46
V14
p192
sg75
(lp193
(VBRANDIZZI
VF
tp194
asg54
I2002
sg42
VLANT
p195
sbag1
(g2
g3
NtRp196
(dp197
g48
V10.1006/jmbi.2001.5359
p198
sg44
VJ MOL BIOL
p199
sg46
V316
p200
sg75
(lp201
(VBRODERSEN
VD E
tp202
asg54
I2002
sg42
V725
p203
sbag1
(g2
g3
NtRp204
(dp205
g48
V10.1073/pnas.082243699
p206
sg44
VP NATL ACAD SCI USA
p207
sg46
V99
p208
sg75
(lp209
(VCAMPBELL
VR E
tp210
asg54
I2002
sg42
V7877
p211
sbag1
(g2
g3
NtRp212
(dp213
g48
V10.1111/j.1432-1033.1997.00981.x
p214
sg44
VEUR J BIOCHEM
p215
sg46
V247
p216
sg75
(lp217
(VCAPARROSRUIZ
VD
tp218
asg54
I1997
sg42
V981
p219
sbag1
(g2
g3
NtRp220
(dp221
g48
Nsg44
VDEVELOPMENT
p222
sg46
V122
p223
sg75
(lp224
(VCARLAND
VF M
tp225
asg54
I1996
sg42
V1811
p226
sbag1
(g2
g3
NtRp227
(dp228
g48
V10.1074/mcp.M700052-MCP200
p229
sg44
VMOL CELL PROTEOMICS
p230
sg46
V7
sg75
(lp231
(VCARROLL
VA J
tp232
asg54
I2008
sg42
V347
p233
sbag1
(g2
g3
NtRp234
(dp235
g48
V10.1104/pp.104.053637
p236
sg44
VPLANT PHYSIOL
p237
sg46
V137
p238
sg75
(lp239
(VCHANG
VI F
tp240
asg54
I2005
sg42
VLANT
p241
sbag1
(g2
g3
NtRp242
(dp243
g48
V10.1046/j.1365-313x.2000.00862.x
p244
sg44
VPLANT J
p245
sg46
V24
p246
sg75
(lp247
(VCHATFIELD
VS P
tp248
asg54
I2000
sg42
VLANT
p249
sbag1
(g2
g3
NtRp250
(dp251
g48
Nsg44
VDEVELOPMENT
p252
sg46
V129
p253
sg75
(lp254
(VCHEN
VX M
tp255
asg54
I2002
sg42
V1085
p256
sbag1
(g2
g3
NtRp257
(dp258
g48
V10.1007/BF02858771
p259
sg44
VBOT REV
p260
sg46
V57
p261
sg75
(lp262
(VCLINE
VM G
tp263
asg54
I1991
sg42
V318
p264
sbag1
(g2
g3
NtRp265
(dp266
g48
V10.1046/j.1365-313x.1998.00343.x
p267
sg44
VPLANT J
p268
sg46
V16
p269
sg75
(lp270
(VCLOUGH
VS J
tp271
asg54
I1998
sg42
VLANT
p272
sbag1
(g2
g3
NtRp273
(dp274
g48
Nsg44
VDEVELOPMENT
p275
sg46
V127
p276
sg75
(lp277
(VCNOPS
VG
tp278
asg54
I2000
sg42
V3385
p279
sbag1
(g2
g3
NtRp280
(dp281
g48
V10.1105/tpc.105.040568
p282
sg44
VPLANT CELL
p283
sg46
V18
p284
sg75
(lp285
(VCNOPS
VG
tp286
asg54
I2006
sg42
VLANT
p287
sbag1
(g2
g3
NtRp288
(dp289
g48
V10.1105/tpc.010282
p290
sg44
VPLANT CELL
p291
sg46
V14
p292
sg75
(lp293
(VDEL
VPOZO J C
tp294
asg54
I2002
sg42
VLANT
p295
sbag1
(g2
g3
NtRp296
(dp297
g48
V10.1242/dev.00909
p298
sg44
VDEVELOPMENT
p299
sg46
V130
p300
sg75
(lp301
(VDEYHOLOS
VM K
tp302
asg54
I2003
sg42
V6577
p303
sbag1
(g2
g3
NtRp304
(dp305
g48
V10.1016/0968-0004(91)90184-W
p306
sg44
VTRENDS BIOCHEM SCI
p307
sg46
V16
p308
sg75
(lp309
(VDINGWALL
VC
tp310
asg54
I1991
sg42
V478
p311
sbag1
(g2
g3
NtRp312
(dp313
g48
V10.1105/tpc.105.033159
p314
sg44
VPLANT CELL
p315
sg46
V17
p316
sg75
(lp317
(VECKARDT
VN A
tp318
asg54
I2005
sg42
VLANT
p319
sbag1
(g2
g3
NtRp320
(dp321
g48
V10.1016/0300-9084(87)90227-6
p322
sg44
VBIOCHIMIE
p323
sg46
V69
p324
sg75
(lp325
(VELBARADI
VTTAL
tp326
asg54
I1987
sg42
V939
p327
sbag1
(g2
g3
NtRp328
(dp329
g48
V10.1111/j.1432-1033.1984.tb08477.x
p330
sg44
VEUR J BIOCHEM
p331
sg46
V144
p332
sg75
(lp333
(VELBARADI
VTTAL
tp334
asg54
I1984
sg42
V393
p335
sbag1
(g2
g3
NtRp336
(dp337
g48
Nsg44
VEMBO J
p338
sg46
V4
sg75
(lp339
(VELBARADI
VTTAL
tp340
asg54
I1985
sg42
V2101
p341
sbag1
(g2
g3
NtRp342
(dp343
g48
V10.1101/gad.443107
p344
sg44
VGENE DEV
p345
sg46
V21
p346
sg75
(lp347
(VEULALIO
VA
tp348
asg54
I2007
sg42
V2558
p349
sbag1
(g2
g3
NtRp350
(dp351
g48
V10.1007/BF00028872
p352
sg44
VPLANT MOL BIOL
p353
sg46
V25
p354
sg75
(lp355
(VGAO
VJ W
tp356
asg54
I1994
sg42
VLANT
p357
sbag1
(g2
g3
NtRp358
(dp359
g48
V10.1007/s11103-005-0699-3
p360
sg44
VPLANT MOL BIOL
p361
sg46
V57
p362
sg75
(lp363
(VGIAVALISCO
VP
tp364
asg54
I2005
sg42
VLANT
p365
sbag1
(g2
g3
NtRp366
(dp367
g48
V10.1093/emboj/17.5.1476
p368
sg44
VEMBO J
p369
sg46
V17
p370
sg75
(lp371
(VGINISTY
VH
tp372
asg54
I1998
sg42
V1476
p373
sbag1
(g2
g3
NtRp374
(dp375
g48
Nsg44
VJ CELL SCI
p376
sg46
V112
p377
sg75
(lp378
(VGINISTY
VH
tp379
asg54
I1999
sg42
V761
p380
sbag1
(g2
g3
NtRp381
(dp382
g48
V10.1266/jjg.66.551
p383
sg44
VJPN J GENET
p384
sg46
V66
p385
sg75
(lp386
(VGOTO
VN
tp387
asg54
I1991
sg42
V551
p388
sbag1
(g2
g3
NtRp389
(dp390
g48
V10.1046/j.1365-313X.1997.11030573.x
p391
sg44
VPLANT J
p392
sg46
V11
p393
sg75
(lp394
(VGREBENOK
VR J
tp395
asg54
I1997
sg42
VLANT
p396
sbag1
(g2
g3
NtRp397
(dp398
g48
V10.1046/j.1365-2958.2003.03733.x
p399
sg44
VMOL MICROBIOL
p400
sg46
V50
p401
sg75
(lp402
(VGUARINOS
VE
tp403
asg54
I2003
sg42
V703
p404
sbag1
(g2
g3
NtRp405
(dp406
g48
V10.1046/j.1365-313X.2003.01723.x
p407
sg44
VPLANT J
p408
sg46
V34
p409
sg75
(lp410
(VGUO
VH S
tp411
asg54
I2003
sg42
VLANT
p412
sbag1
(g2
g3
NtRp413
(dp414
g48
V10.1046/j.1365-313X.1999.00644.x
p415
sg44
VPLANT J
p416
sg46
V20
p417
sg75
(lp418
(VHAASEN
VD
tp419
asg54
I1999
sg42
VLANT
p420
sbag1
(g2
g3
NtRp421
(dp422
g48
V10.1038/nature02342
p423
sg44
VNATURE
p424
sg46
V427
p425
sg75
(lp426
(VHALIC
VM
tp427
asg54
I2004
sg42
V808
p428
sbag1
(g2
g3
NtRp429
(dp430
g48
V10.1074/jbc.M405718200
p431
sg44
VJ BIOL CHEM
p432
sg46
V279
p433
sg75
(lp434
(VHANSON
VC L
tp435
asg54
I2004
sg42
V42750
p436
sbag1
(g2
g3
NtRp437
(dp438
g48
V10.1073/pnas.94.6.2122
p439
sg44
VP NATL ACAD SCI USA
p440
sg46
V94
p441
sg75
(lp442
(VHASELOFF
VJ
tp443
asg54
I1997
sg42
V2122
p444
sbag1
(g2
g3
NtRp445
(dp446
g48
V10.1023/A:1006496308160
p447
sg44
VPLANT MOL BIOL
p448
sg46
V42
p449
sg75
(lp450
(VHELLENS
VR P
tp451
asg54
I2000
sg42
VLANT
p452
sbag1
(g2
g3
NtRp453
(dp454
g48
V10.1038/303179a0
p455
sg44
VNATURE
p456
sg46
V303
p457
sg75
(lp458
(VHOEKEMA
VA
tp459
asg54
I1983
sg42
V179
p460
sbag1
(g2
g3
NtRp461
(dp462
g48
V10.1074/jbc.M401017200
p463
sg44
VJ BIOL CHEM
p464
sg46
V279
p465
sg75
(lp466
(VHORKE
VS
tp467
asg54
I2004
sg42
V26563
p468
sbag1
(g2
g3
NtRp469
(dp470
g48
V10.1016/j.plantsci.2005.04.001
p471
sg44
VPLANT SCI
p472
sg46
V169
p473
sg75
(lp474
(VHULM
VJ L
tp475
asg54
I2005
sg42
VLANT
p476
sbag1
(g2
g3
NtRp477
(dp478
g48
V10.1128/MCB.24.24.10894-10904.2004
p479
sg44
VMOL CELL BIOL
p480
sg46
V24
p481
sg75
(lp482
(VINTINE
VR V
tp483
asg54
I2004
sg42
V10894
p484
sbag1
(g2
g3
NtRp485
(dp486
g48
V10.1046/j.1365-313x.2000.00728.x
p487
sg44
VPLANT J
p488
sg46
V22
p489
sg75
(lp490
(VITO
VT
tp491
asg54
I2000
sg42
VLANT
p492
sbag1
(g2
g3
NtRp493
(dp494
g48
Nsg44
VDEVELOPMENT
p495
sg46
V126
p496
sg75
(lp497
(VJACOBSEN
VS E
tp498
asg54
I1999
sg42
V5231
p499
sbag1
(g2
g3
NtRp500
(dp501
g48
V10.1093/emboj/17.15.4491
p502
sg44
VEMBO J
p503
sg46
V17
p504
sg75
(lp505
(VJAKEL
VS
tp506
asg54
I1998
sg42
V4491
p507
sbag1
(g2
g3
NtRp508
(dp509
g48
V10.1006/jmbi.1996.0605
p510
sg44
VJ MOL BIOL
p511
sg46
V263
p512
sg75
(lp513
(VJEENINGA
VR E
tp514
asg54
I1996
sg42
V648
p515
sbag1
(g2
g3
NtRp516
(dp517
g48
V10.1016/0092-8674(84)90457-4
p518
sg44
VCELL
p519
sg46
V39
p520
sg75
(lp521
(VKALDERON
VD
tp522
asg54
I1984
sg42
V499
p523
sbag1
(g2
g3
NtRp524
(dp525
g48
V10.1038/nature01278
p526
sg44
VNATURE
p527
sg46
V421
p528
sg75
(lp529
(VKAMATH
VR S
tp530
asg54
I2003
sg42
V231
p531
sbag1
(g2
g3
NtRp532
(dp533
g48
V10.1038/sj.emboj.7601674
p534
sg44
VEMBO J
p535
sg46
V26
p536
sg75
(lp537
(VKIM
VS H
tp538
asg54
I2007
sg42
V2169
p539
sbag1
(g2
g3
NtRp540
(dp541
g48
V10.1016/S0161-5890(96)00088-0
p542
sg44
VMOL IMMUNOL
p543
sg46
V33
p544
sg75
(lp545
(VKISHI
VF
tp546
asg54
I1996
sg42
V1241
p547
sbag1
(g2
g3
NtRp548
(dp549
g48
V10.1016/j.jmb.2004.03.076
p550
sg44
VJ MOL BIOL
p551
sg46
V340
p552
sg75
(lp553
(VKLEIN
VD J
tp554
asg54
I2004
sg42
V141
p555
sbag1
(g2
g3
NtRp556
(dp557
g48
V10.1111/j.1365-313X.2006.03016.x
p558
sg44
VPLANT J
p559
sg46
V49
p560
sg75
(lp561
(VKOJIMA
VH
tp562
asg54
I2007
sg42
VLANT
p563
sbag1
(g2
g3
NtRp564
(dp565
g48
V10.1006/jmbi.1994.1438
p566
sg44
VJ MOL BIOL
p567
sg46
V240
p568
sg75
(lp569
(VKOOI
VE A
tp570
asg54
I1994
sg42
V243
p571
sbag1
(g2
g3
NtRp572
(dp573
g48
V10.1093/nar/gkf693
p574
sg44
VNUCLEIC ACIDS RES
p575
sg46
V30
p576
sg75
(lp577
(VLECOMPTE
VO
tp578
asg54
I2002
sg42
V5382
p579
sbag1
(g2
g3
NtRp580
(dp581
g48
V10.1074/jbc.273.13.7650
p582
sg44
VJ BIOL CHEM
p583
sg46
V273
p584
sg75
(lp585
(VLEE
VC H
tp586
asg54
I1998
sg42
V7650
p587
sbag1
(g2
g3
NtRp588
(dp589
g48
Nsg44
VPLANT CELL
p590
sg46
V2
sg75
(lp591
(VLINCOLN
VC
tp592
asg54
I1990
sg42
VLANT
p593
sbag1
(g2
g3
NtRp594
(dp595
g48
V10.1006/meth.2001.1262
p596
sg44
VMETHODS
p597
sg46
V25
p598
sg75
(lp599
(VLIVAK
VK J
tp600
asg54
I2001
sg42
V402
p601
sbag1
(g2
g3
NtRp602
(dp603
g48
V10.1105/tpc.12.12.2351
p604
sg44
VPLANT CELL
p605
sg46
V12
p606
sg75
(lp607
(VLU
VC
tp608
asg54
I2000
sg42
VLANT
p609
sbag1
(g2
g3
NtRp610
(dp611
g48
V10.1016/j.sbi.2005.03.005
p612
sg44
VCURR OPIN STRUC BIOL
p613
sg46
V15
p614
sg75
(lp615
(VMAIER
VT
tp616
asg54
I2005
sg42
V204
p617
sbag1
(g2
g3
NtRp618
(dp619
g48
V10.1038/ng1791
p620
sg44
VNAT GENET
p621
sg46
V38
p622
sg75
(lp623
(VMALLORY
VA C
tp624
asg54
I2006
sg42
VS31
p625
sbag1
(g2
g3
NtRp626
(dp627
g48
V10.1105/tpc.105.031716
p628
sg44
VPLANT CELL
p629
sg46
V17
p630
sg75
(lp631
(VMALLORY
VA C
tp632
asg54
I2005
sg42
VLANT
p633
sbag1
(g2
g3
NtRp634
(dp635
g48
V10.1073/pnas.88.18.8174
p636
sg44
VP NATL ACAD SCI USA
p637
sg46
V88
p638
sg75
(lp639
(VMANDIYAN
VV
tp640
asg54
I1991
sg42
V8174
p641
sbag1
(g2
g3
NtRp642
(dp643
g48
V10.1534/genetics.104.034124
p644
sg44
VGENETICS
p645
sg46
V169
p646
sg75
(lp647
(VMARYGOLD
VS J
tp648
asg54
I2005
sg42
V683
p649
sbag1
(g2
g3
NtRp650
(dp651
g48
Nsg44
VDEVELOPMENT
p652
sg46
V126
p653
sg75
(lp654
(VMATTSSON
VJ
tp655
asg54
I1999
sg42
V2979
p656
sbag1
(g2
g3
NtRp657
(dp658
g48
V10.1104/pp.013623
p659
sg44
VPLANT PHYSIOL
p660
sg46
V131
p661
sg75
(lp662
(VMATTSSON
VJ
tp663
asg54
I2003
sg42
VLANT
p664
sbag1
(g2
g3
NtRp665
(dp666
g48
V10.1139/B06-014
p667
sg44
VCAN J BOT
p668
sg46
V84
p669
sg75
(lp670
(VMCINTOSH
VK B
tp671
asg54
I2006
sg42
V342
p672
sbag1
(g2
g3
NtRp673
(dp674
g48
V10.1139/G05-007
p675
sg44
VGENOME
p676
sg46
V48
p677
sg75
(lp678
(VMCINTOSH
VK B
tp679
asg54
I2005
sg42
V443
p680
sbag1
(g2
g3
NtRp681
(dp682
g48
V10.1023/A:1011612329398
p683
sg44
VPLANT MOL BIOL
p684
sg46
V46
p685
sg75
(lp686
(VMCINTOSH
VK B
tp687
asg54
I2001
sg42
VLANT
p688
sbag1
(g2
g3
NtRp689
(dp690
g48
V10.1016/j.jmb.2005.02.053
p691
sg44
VJ MOL BIOL
p692
sg46
V348
p693
sg75
(lp694
(VMENETRET
VJ F
tp695
asg54
I2005
sg42
V445
p696
sbag1
(g2
g3
NtRp697
(dp698
g48
V10.1007/s00294-003-0444-x
p699
sg44
VCURR GENET
p700
sg46
V44
p701
sg75
(lp702
(VMERKLE
VT
tp703
asg54
I2003
sg42
V231
p704
sbag1
(g2
g3
NtRp705
(dp706
g48
V10.1016/j.tcb.2006.11.010
p707
sg44
VTRENDS CELL BIOL
p708
sg46
V17
p709
sg75
(lp710
(VMONGELARD
VF
tp711
asg54
I2007
sg42
V80
p712
sbag1
(g2
g3
NtRp713
(dp714
g48
V10.1016/S0022-2836(02)01111-7
p715
sg44
VJ MOL BIOL
p716
sg46
V324
p717
sg75
(lp718
(VMORGAN
VD G
tp719
asg54
I2002
sg42
V871
p720
sbag1
(g2
g3
NtRp721
(dp722
g48
Nsg44
VDEVELOPMENT
p723
sg46
V127
p724
sg75
(lp725
(VNEMHAUSER
VJ L
tp726
asg54
I2000
sg42
V3877
p727
sbag1
(g2
g3
NtRp728
(dp729
g48
V10.1105/tpc.105.036533
p730
sg44
VPLANT CELL
p731
sg46
V17
p732
sg75
(lp733
(VNISHIMURA
VT
tp734
asg54
I2005
sg42
VLANT
p735
sbag1
(g2
g3
NtRp736
(dp737
g48
V10.1126/science.289.5481.920
p738
sg44
VSCIENCE
p739
sg46
V289
p740
sg75
(lp741
(VNISSEN
VP
tp742
asg54
I2000
sg42
V920
p743
sbag1
(g2
g3
NtRp744
(dp745
g48
V10.1083/jcb.128.5.849
p746
sg44
VJ CELL BIOL
p747
sg46
V128
p748
sg75
(lp749
(VOOKATA
VK
tp750
asg54
I1995
sg42
V849
p751
sbag1
(g2
g3
NtRp752
(dp753
g48
V10.1093/nar/gkl976
p754
sg44
VNUCLEIC ACIDS RES
p755
sg46
V35
p756
sg75
(lp757
(VOUYANG
VS
tp758
asg54
I2007
sg42
VD883
p759
sbag1
(g2
g3
NtRp760
(dp761
g48
V10.1126/science.1123542
p762
sg44
VSCIENCE
p763
sg46
V312
p764
sg75
(lp765
(VPETRASEK
VJ
tp766
asg54
I2006
sg42
V914
p767
sbag1
(g2
g3
NtRp768
(dp769
g48
V10.1104/pp.106.093575
p770
sg44
VPLANT PHYSIOL
p771
sg46
V144
p772
sg75
(lp773
(VPETRICKA
VJ J
tp774
asg54
I2007
sg42
VLANT
p775
sbag1
(g2
g3
NtRp776
(dp777
g48
V10.1002/(SICI)1097-0061(199712)13:16<1505::AID-YEA229>3.3.CO;2-9
p778
sg44
VYEAST
p779
sg46
V13
p780
sg75
(lp781
(VPLANTA
VR J
tp782
asg54
I1997
sg42
V1505
p783
sbag1
(g2
g3
NtRp784
(dp785
g48
V10.1091/mbc.E06-08-0751
p786
sg44
VMOL BIOL CELL
p787
sg46
V18
p788
sg75
(lp789
(VPONTVIANNE
VF
tp790
asg54
I2007
sg42
V369
p791
sbag1
(g2
g3
NtRp792
(dp793
g48
V10.1126/science.1072366
p794
sg44
VSCIENCE
p795
sg46
V297
p796
sg75
(lp797
(VPOOL
VM R
tp798
asg54
I2002
sg42
V1345
p799
sbag1
(g2
g3
NtRp800
(dp801
g48
V10.1111/j.1365-313X.2004.02109.x
p802
sg44
VPLANT J
p803
sg46
V39
p804
sg75
(lp805
(VPOPESCU
VS C
tp806
asg54
I2004
sg42
VLANT
p807
sbag1
(g2
g3
NtRp808
(dp809
g48
Nsg44
VPLANTA
p810
sg46
V200
p811
sg75
(lp812
(VPRZEMECK
VG K H
tp813
asg54
I1996
sg42
VLANTA
p814
sbag1
(g2
g3
NtRp815
(dp816
g48
V10.1104/pp.118.4.1369
p817
sg44
VPLANT PHYSIOL
p818
sg46
V118
p819
sg75
(lp820
(VREED
VR C
tp821
asg54
I1998
sg42
VLANT
p822
sbag1
(g2
g3
NtRp823
(dp824
g48
V10.1387/ijdb.041922dr
p825
sg44
VINT J DEV BIOL
p826
sg46
V49
p827
sg75
(lp828
(VREINHARDT
VD
tp829
asg54
I2005
sg42
V539
p830
sbag1
(g2
g3
NtRp831
(dp832
g48
V10.1016/S0168-9525(00)02024-2
p833
sg44
VTRENDS GENET
p834
sg46
V16
p835
sg75
(lp836
(VRICE
VP
tp837
asg54
I2000
sg42
V276
p838
sbag1
(g2
g3
NtRp839
(dp840
g48
V10.1007/s00412-002-0221-5
p841
sg44
VCHROMOSOMA
p842
sg46
V111
p843
sg75
(lp844
(VROGER
VB
tp845
asg54
I2003
sg42
V399
p846
sbag1
(g2
g3
NtRp847
(dp848
g48
V10.1093/jxb/eri289
p849
sg44
VJ EXP BOT
p850
sg46
V57
p851
sg75
(lp852
(VRUNIONS
VJ
tp853
asg54
I2006
sg42
V43
p854
sbag1
(g2
g3
NtRp855
(dp856
g48
V10.1016/0022-2836(91)90719-M
p857
sg44
VJ MOL BIOL
p858
sg46
V218
p859
sg75
(lp860
(VRUTGERS
VC A
tp861
asg54
I1991
sg42
V375
p862
sbag1
(g2
g3
NtRp863
(dp864
g48
V10.1016/0167-4781(90)90144-Q
p865
sg44
VBIOCHIM BIOPHYS ACTA
p866
sg46
V1050
p867
sg75
(lp868
(VRUTGERS
VC A
tp869
asg54
I1990
sg42
V74
p870
sbag1
(g2
g3
NtRp871
(dp872
g48
V10.1016/S0092-8674(00)81535-4
p873
sg44
VCELL
p874
sg46
V99
p875
sg75
(lp876
(VSABATINI
VS
tp877
asg54
I1999
sg42
V463
p878
sbag1
(g2
g3
NtRp879
(dp880
g48
Nsg44
VGENETICS
p881
sg46
V148
p882
sg75
(lp883
(VSABOELARSSEN
VS
tp884
asg54
I1998
sg42
V1215
p885
sbag1
(g2
g3
NtRp886
(dp887
g48
V10.1128/MCB.24.16.7284-7297.2004
p888
sg44
VMOL CELL BIOL
p889
sg46
V24
p890
sg75
(lp891
(VSAEZ-VASQUEZ
VJ
tp892
asg54
I2004
sg42
V7284
p893
sbag1
(g2
g3
NtRp894
(dp895
g48
Nsg44
VMOL CLONING LAB MANU
p896
sg46
Nsg75
(lp897
(VSAMBROOK
VJ
tp898
asg54
I1989
sg42
Nsbag1
(g2
g3
NtRp899
(dp900
g48
V10.1016/0022-2836(91)90816-O
p901
sg44
VJ MOL BIOL
p902
sg46
V221
p903
sg75
(lp904
(VSCHAAP
VP J
tp905
asg54
I1991
sg42
V225
p906
sbag1
(g2
g3
NtRp907
(dp908
g48
V10.1126/science.1117230
p909
sg44
VSCIENCE
p910
sg46
V310
p911
sg75
(lp912
(VSCHUWIRTH
VB S
tp913
asg54
I2005
sg42
V827
p914
sbag1
(g2
g3
NtRp915
(dp916
g48
Nsg44
VDEVELOPMENT
p917
sg46
V124
p918
sg75
(lp919
(VSESSIONS
VA
tp920
asg54
I1997
sg42
V4481
p921
sbag1
(g2
g3
NtRp922
(dp923
g48
V10.1104/pp.121.4.1179
p924
sg44
VPLANT PHYSIOL
p925
sg46
V121
p926
sg75
(lp927
(VSIEBURTH
VL E
tp928
asg54
I1999
sg42
VLANT
p929
sbag1
(g2
g3
NtRp930
(dp931
g48
V10.1016/S0092-8674(01)00539-6
p932
sg44
VCELL
p933
sg46
V107
p934
sg75
(lp935
(VSPAHN
VC M T
tp936
asg54
I2001
sg42
V373
p937
sbag1
(g2
g3
NtRp938
(dp939
g48
V10.1038/nprot.2006.286
p940
sg44
VNAT PROTOC
p941
sg46
V1
sg75
(lp942
(VSPARKES
VI A
tp943
asg54
I2006
sg42
V2019
p944
sbag1
(g2
g3
NtRp945
(dp946
g48
V10.1046/j.1365-313X.2003.01973.x
p947
sg44
VPLANT J
p948
sg46
V37
p949
sg75
(lp950
(VTAKASE
VT
tp951
asg54
I2004
sg42
VLANT
p952
sbag1
(g2
g3
NtRp953
(dp954
g48
V10.1016/0092-8674(93)90120-F
p955
sg44
VCELL
p956
sg46
V72
p957
sg75
(lp958
(VTOLLERVEY
VD
tp959
asg54
I1993
sg42
V443
p960
sbag1
(g2
g3
NtRp961
(dp962
g48
V10.1007/BF00351666
p963
sg44
VCURR GENET
p964
sg46
V25
p965
sg75
(lp966
(VTORNOW
VJ
tp967
asg54
I1994
sg42
V480
p968
sbag1
(g2
g3
NtRp969
(dp970
g48
Nsg44
VPLANT CELL
p971
sg46
V9
sg75
(lp972
(VULMASOV
VT
tp973
asg54
I1997
sg42
VLANT
p974
sbag1
(g2
g3
NtRp975
(dp976
g48
V10.1093/nar/29.24.5001
p977
sg44
VNUCLEIC ACIDS RES
p978
sg46
V29
p979
sg75
(lp980
(VVAN
VBEEKVELT C A
tp981
asg54
I2001
sg42
V5001
p982
sbag1
(g2
g3
NtRp983
(dp984
g48
V10.1016/j.febslet.2006.04.012
p985
sg44
VFEBS LETT
p986
sg46
V580
p987
sg75
(lp988
(VVANDERHAEGHEN
VR
tp989
asg54
I2006
sg42
V2630
p990
sbag1
(g2
g3
NtRp991
(dp992
g48
Nsg44
VEMBO J
p993
sg46
V13
p994
sg75
(lp995
(VVANLIJSEBETTENS
VM
tp996
asg54
I1994
sg42
V3378
p997
sbag1
(g2
g3
NtRp998
(dp999
g48
V[10.1016/j.cub.2004.01.035, 10.1016/S0960-9822(04)00047-8]
p1000
sg44
VCURR BIOL
p1001
sg46
V14
p1002
sg75
(lp1003
(VVAZQUEZ
VF
tp1004
asg54
I2004
sg42
V346
p1005
sbag1
(g2
g3
NtRp1006
(dp1007
g48
Nsg44
VSHOCK
p1008
sg46
V23
p1009
sg75
(lp1010
(VWANG
VX
tp1011
asg54
I2005
sg42
V24
p1012
sbag1
(g2
g3
NtRp1013
(dp1014
g48
Nsg44
VMOL CELL BIOL
p1015
sg46
V5
sg75
(lp1016
(VWARNER
VJ R
tp1017
asg54
I1985
sg42
V1512
p1018
sbag1
(g2
g3
NtRp1019
(dp1020
g48
V10.1128/MCB.20.7.2517-2528.2000
p1021
sg44
VMOL CELL BIOL
p1022
sg46
V20
p1023
sg75
(lp1024
(VWEBER
VJ D
tp1025
asg54
I2000
sg42
V2517
p1026
sbag1
(g2
g3
NtRp1027
(dp1028
g48
Nsg44
VDEVELOPMENT
p1029
sg46
V128
p1030
sg75
(lp1031
(VWEIJERS
VD
tp1032
asg54
I2001
sg42
V4289
p1033
sbag1
(g2
g3
NtRp1034
(dp1035
g48
Nsg44
VNATURE
p1036
sg46
V407
p1037
sg75
(lp1038
(VWIMBERLY
VB T
tp1039
asg54
I2000
sg42
V327
p1040
sbag1
(g2
g3
NtRp1041
(dp1042
g48
V10.1016/S0968-0004(96)20011-8
p1043
sg44
VTRENDS BIOCHEM SCI
p1044
sg46
V21
p1045
sg75
(lp1046
(VWOOL
VI G
tp1047
asg54
I1996
sg42
V164
p1048
sbag1
(g2
g3
NtRp1049
(dp1050
g48
V10.1016/0300-9084(89)90024-2
p1051
sg44
VBIOCHIMIE
p1052
sg46
V71
p1053
sg75
(lp1054
(VXIANG
VR H
tp1055
asg54
I1989
sg42
V1201
p1056
sbag1
(g2
g3
NtRp1057
(dp1058
g48
V10.1016/j.febslet.2007.02.074
p1059
sg44
VFEBS LETT
p1060
sg46
V581
p1061
sg75
(lp1062
(VXIE
VF L
tp1063
asg54
I2007
sg42
V1464
p1064
sbag1
(g2
g3
NtRp1065
(dp1066
g48
V10.1104/pp.105.062943
p1067
sg44
VPLANT PHYSIOL
p1068
sg46
V138
p1069
sg75
(lp1070
(VXIE
VZ X
tp1071
asg54
I2005
sg42
VLANT
p1072
sbag1
(g2
g3
NtRp1073
(dp1074
g48
Nsg44
VEUR J CELL BIOL
p1075
sg46
V62
p1076
sg75
(lp1077
(VXUE
VZ X
tp1078
asg54
I1993
sg42
V13
p1079
sbag1
(g2
g3
NtRp1080
(dp1081
g48
V10.1126/science.1060089
p1082
sg44
VSCIENCE
p1083
sg46
V292
p1084
sg75
(lp1085
(VYUSUPOV
VM M
tp1086
asg54
I2001
sg42
V883
p1087
sbag1
(g2
g3
NtRp1088
(dp1089
g48
V10.1104/pp.105.059477
p1090
sg44
VPLANT PHYSIOL
p1091
sg46
V138
p1092
sg75
(lp1093
(VZANETTI
VM E
tp1094
asg54
I2005
sg42
VLANT
p1095
sbag1
(g2
g3
NtRp1096
(dp1097
g48
V10.1093/nar/gkh024
p1098
sg44
VNUCLEIC ACIDS RES
p1099
sg46
V32
p1100
sg75
(lp1101
(VZHANG
VR
tp1102
asg54
I2004
sg42
VD271
p1103
sbag1
(g2
g3
NtRp1104
(dp1105
g48
V10.1046/j.1365-313x.2000.00868.x
p1106
sg44
VPLANT J
p1107
sg46
V24
p1108
sg75
(lp1109
(VZUO
VJ R
tp1110
asg54
I2000
sg42
VLANT
p1111
sbasb.