ccopy_reg
_reconstructor
p1
(ctethne.classes.paper
Paper
p2
c__builtin__
object
p3
NtRp4
(dp5
S'publisherCity'
p6
VROCKVILLE
p7
sS'reprintAddress'
p8
VMiranda, M (reprint author), Inst Pflanzengenet & Kulturpflanzen Forsch, D-06466 Gatersleben, Germany.
p9
sS'WC'
p10
VPlant Sciences
p11
sS'GA'
p12
V710ZV
p13
sS'abstract'
p14
VTwo peptide transporter (PTR) homologs have been isolated from developing seeds of faba bear, (Vicia faba). VfPTR1 was shown to be a functional peptide transporter through complementation of a yeast mutant. Expression patterns of VfPTR1 and VfPTR2 as well as of the amino acid permease VfAAP1 (Miranda et al., 2001) were compared throughout seed development and germination. In developing seeds, the highest levels of VfPTR1 transcripts were reached during midcotyledon development, whereas VfAAP1 transcripts were most abundant during early cotyledon development, before the appearance of storage protein gene transcripts, and were detectable until late cotyledon development. During early germination, VfPTR1 mRNA appeared first in cotyledons and later, during seedling growth, also in axes and roots. Expression of VfPTR2 and VfAAP1 was delayed compared with VfPTR1, and was restricted to the nascent organs of the seedlings. Localization of VfPTR1 transcripts showed that this FTR is temporally and spatially regulated during cotyledon development. In germinating seeds, VfPTR1 mRNA was localized in root hairs and root epidermal cells, suggesting a role in nutrient uptake from the soil. In seedling roots, VfPTR1 was repressed by a dipeptide and by an amino acid, whereas nitrate was without influence.
p15
sS'pageEnd'
p16
I1960
sS'publisherAddress'
p17
V15501 MONONA DRIVE, ROCKVILLE, MD 20855 USA
p18
sS'documentType'
p19
VArticle
p20
sS'subject'
p21
VPlant Sciences
p22
sS'isoSource'
p23
VPlant Physiol.
p24
sS'timesCited'
p25
(lp26
I32
aVZ9 36
p27
asS'PT'
p28
VJ
sS'title'
p29
VPeptide And Amino Acid Transporters Are Differentially Regulated During Seed Development And Germination In Faba Bean
p30
sS'ISSN'
p31
(lp32
V0032-0889
p33
aVJ9 PLANT PHYSIOL
p34
asS'authors_full'
p35
(lp36
(VMIRANDA
VM
tp37
a(VBORISJUK
VL
tp38
a(VTEWES
VA
tp39
a(VDIETRICH
VD
tp40
a(VRENTSCH
VD
tp41
a(VWEBER
VH
tp42
a(VWOBUS
VU
tp43
asS'PG'
p44
I11
sS'PD'
p45
VAUG
p46
sS'pageStart'
p47
I1950
sS'issue'
p48
I4
sS'journal'
p49
VPLANT PHYSIOLOGY
p50
sS'volume'
p51
V132
p52
sS'doi'
p53
V10.1104/pp.103.024422
p54
sS'emailAddress'
p55
Vmiranda@uvic.ca
p56
sS'authorAddress'
p57
(lp58
VInst Pflanzengenet & Kulturpflanzen Forsch, D-06466 Gatersleben, Germany.
p59
aVUniv Bern, Inst Pflanzenwissensch, CH-3008 Bern, Switzerland.
p60
asS'date'
p61
I2003
sS'ER'
p62
V
sS'publisher'
p63
VAMER SOC PLANT BIOLOGISTS
p64
sS'authorKeywords'
p65
(lp66
VSTORAGE PROTEIN-SYNTHESIS
p67
aVVICIA-SATIVA L.
p68
aVFUNCTIONAL-CHARACTERIZATION
p69
aVGENE-EXPRESSION
p70
aVPHOTOSYNTHATE TRANSFER
p71
aVSUBSTRATE-SPECIFICITY
p72
aVGLOBULIN MOBILIZATION
p73
aVARABIDOPSIS-THALIANA
p74
aVASSIMILATE UPTAKE
p75
aVTRANSFER CELLS
p76
asS'language'
p77
VEnglish
p78
sS'wosid'
p79
VWOS:000184713400023
p80
sS'citationCount'
p81
I65
sS'authors_init'
p82
(lp83
(VMIRANDA
VM
tp84
a(VBORISJUK
VL
tp85
a(VTEWES
VA
tp86
a(VDIETRICH
VD
tp87
a(VRENTSCH
VD
tp88
a(VWEBER
VH
tp89
a(VWOBUS
VU
tp90
asS'citedReferences'
p91
(lp92
g1
(g2
g3
NtRp93
(dp94
g53
V10.1034/j.1399-3054.1992.860416.x
p95
sg49
VPHYSIOL PLANTARUM
p96
sg51
V86
p97
sg82
(lp98
(VBARNEIX
VA J
tp99
asg61
I1992
sg47
VHYSIOL
p100
sbag1
(g2
g3
NtRp101
(dp102
g53
Nsg49
VSEEDS PHYSL DEV GERM
p103
sg51
Nsg82
(lp104
(VBEWLEY
VJ D
tp105
asg61
I1994
sg47
Nsbag1
(g2
g3
NtRp106
(dp107
g53
V10.1023/A:1005903229458
p108
sg49
VPLANT MOL BIOL
p109
sg51
V36
p110
sg82
(lp111
(VBICK
VJ A
tp112
asg61
I1998
sg47
VLANT
p113
sbag1
(g2
g3
NtRp114
(dp115
g53
Nsg49
VJ PLANT PHYSIOL
p116
sg51
V147
p117
sg82
(lp118
(VBORISJUK
VL
tp119
asg61
I1995
sg47
V203
p120
sbag1
(g2
g3
NtRp121
(dp122
g53
Nsg49
VPLANTA
p123
sg51
V199
p124
sg82
(lp125
(VBUCHNER
VP
tp126
asg61
I1996
sg47
VLANTA
p127
sbag1
(g2
g3
NtRp128
(dp129
g53
V10.1073/pnas.81.7.1991
p130
sg49
VP NATL ACAD SCI
p131
sg51
V81
p132
sg82
(lp133
(VCHURCH
VG M
tp134
asg61
I1984
sg47
V1991
p135
sbag1
(g2
g3
NtRp136
(dp137
g53
V10.1016/S1360-1385(98)01231-X
p138
sg49
VTRENDS PLANT SCI
p139
sg51
V3
sg82
(lp140
(VFISCHER
VW N
tp141
asg61
I1998
sg47
V188
p142
sbag1
(g2
g3
NtRp143
(dp144
g53
Nsg49
VJ BIOL CHEM
p145
sg51
V270
p146
sg82
(lp147
(VFISCHER
VW N
tp148
asg61
I1995
sg47
V16315
p149
sbag1
(g2
g3
NtRp150
(dp151
g53
V10.1046/j.1365-313X.2002.01248.x
p152
sg49
VPLANT J
p153
sg51
V29
p154
sg82
(lp155
(VFISCHER
VW N
tp156
asg61
I2002
sg47
VLANT
p157
sbag1
(g2
g3
NtRp158
(dp159
g53
V10.1016/0014-5793(94)00533-8
p160
sg49
VFEBS LETT
p161
sg51
V347
p162
sg82
(lp163
(VFROMMER
VW B
tp164
asg61
I1994
sg47
V185
p165
sbag1
(g2
g3
NtRp166
(dp167
g53
V10.1007/BF00016495
p168
sg49
VPLANT MOL BIOL
p169
sg51
V26
p170
sg82
(lp171
(VFROMMER
VW B
tp172
asg61
I1994
sg47
VLANT
p173
sbag1
(g2
g3
NtRp174
(dp175
g53
Nsg49
VAM J PHYSIOL
p176
sg51
V281
p177
sg82
(lp178
(VGAMBA
VG
tp179
asg61
I2001
sg47
VF781
p180
sbag1
(g2
g3
NtRp181
(dp182
g53
V10.1078/0176-1617-00357
p183
sg49
VJ PLANT PHYSIOL
p184
sg51
V158
p185
sg82
(lp186
(VGOLOMBEK
VS
tp187
asg61
I2001
sg47
V457
p188
sbag1
(g2
g3
NtRp189
(dp190
g53
Nsg49
VDYNAMIC ASPECTS PLAN
p191
sg51
Nsg82
(lp192
(VGUNNING
VB E S
tp193
asg61
I1974
sg47
V441
p194
sbag1
(g2
g3
NtRp195
(dp196
g53
V10.1093/jxb/47.1.33
p197
sg49
VJ EXP BOT
p198
sg51
V47
p199
sg82
(lp200
(VHAYATI
VR
tp201
asg61
I1996
sg47
V33
p202
sbag1
(g2
g3
NtRp203
(dp204
g53
Nsg49
VPLANTA
p205
sg51
V191
p206
sg82
(lp207
(VHEIM
VU
tp208
asg61
I1993
sg47
VLANTA
p209
sbag1
(g2
g3
NtRp210
(dp211
g53
V10.1023/A:1011886908619
p212
sg49
VPLANT MOL BIOL
p213
sg51
V47
p214
sg82
(lp215
(VHEIM
VU
tp216
asg61
I2001
sg47
VLANT
p217
sbag1
(g2
g3
NtRp218
(dp219
g53
V10.1007/BF00386814
p220
sg49
VPLANTA
p221
sg51
V138
p222
sg82
(lp223
(VHIGGINS
VC F
tp224
asg61
I1978
sg47
VLANTA
p225
sbag1
(g2
g3
NtRp226
(dp227
g53
V10.1046/j.1365-313X.1998.00151.x
p228
sg49
VPLANT J
p229
sg51
V14
p230
sg82
(lp231
(VHIRNER
VB
tp232
asg61
I1998
sg47
VLANT
p233
sbag1
(g2
g3
NtRp234
(dp235
g53
V10.1093/jxb/47.Special_Issue.1223
p236
sg49
VJ EXP BOT
p237
sg51
V47
p238
sg82
(lp239
(VJAMAI
VA
tp240
asg61
I1996
sg47
V1223
p241
sbag1
(g2
g3
NtRp242
(dp243
g53
V10.1006/jmbi.2000.4315
p244
sg49
VJ MOL BIOL
p245
sg51
V305
p246
sg82
(lp247
(VKROGH
VA
tp248
asg61
I2001
sg47
V567
p249
sbag1
(g2
g3
NtRp250
(dp251
g53
V10.1046/j.1365-313X.1993.04060993.x
p252
sg49
VPLANT J
p253
sg51
V4
sg82
(lp254
(VKWART
VM
tp255
asg61
I1993
sg47
VLANT
p256
sbag1
(g2
g3
NtRp257
(dp258
g53
V10.1016/0022-2836(82)90515-0
p259
sg49
VJ MOL BIOL
p260
sg51
V157
p261
sg82
(lp262
(VKYTE
VJ
tp263
asg61
I1982
sg47
V105
p264
sbag1
(g2
g3
NtRp265
(dp266
g53
Nsg49
VPLANTA
p267
sg51
V181
p268
sg82
(lp269
(VLANFERMEIJER
VF C
tp270
asg61
I1990
sg47
VLANTA
p271
sbag1
(g2
g3
NtRp272
(dp273
g53
V10.1104/pp.122.2.379
p274
sg49
VPLANT PHYSIOL
p275
sg51
V122
p276
sg82
(lp277
(VLIN
VC M
tp278
asg61
I2000
sg47
VLANT
p279
sbag1
(g2
g3
NtRp280
(dp281
g53
V10.1046/j.1365-313X.2001.01129.x
p282
sg49
VPLANT J
p283
sg51
V28
p284
sg82
(lp285
(VMIRANDA
VM
tp286
asg61
I2001
sg47
VLANT
p287
sbag1
(g2
g3
NtRp288
(dp289
g53
V10.1111/j.1399-3054.1962.tb08052.x
p290
sg49
VPHYSIOL PLANTARUM
p291
sg51
V15
p292
sg82
(lp293
(VMURASHIGE
VT
tp294
asg61
I1962
sg47
VHYSIOL
p295
sbag1
(g2
g3
NtRp296
(dp297
g53
V10.1093/protein/10.1.1
p298
sg49
VPROTEIN ENG
p299
sg51
V10
p300
sg82
(lp301
(VNIELSEN
VH
tp302
asg61
I1997
sg47
VROTEIN
p303
sbag1
(g2
g3
NtRp304
(dp305
g53
Nsg49
VPLANT NUTRIENT ACQUISITION
p306
sg51
Nsg82
(lp307
(VNISHIZAWA
VN K
tp308
asg61
I2001
sg47
VLANT
p309
sbag1
(g2
g3
NtRp310
(dp311
g53
V10.1093/jxb/40.7.769
p312
sg49
VJ EXP BOT
p313
sg51
V40
p314
sg82
(lp315
(VOFFLER
VC E
tp316
asg61
I1989
sg47
V769
p317
sbag1
(g2
g3
NtRp318
(dp319
g53
V10.1093/jxb/44.4.711
p320
sg49
VJ EXP BOT
p321
sg51
V44
p322
sg82
(lp323
(VOFFLER
VC E
tp324
asg61
I1993
sg47
V711
p325
sbag1
(g2
g3
NtRp326
(dp327
g53
Nsg49
VAUST J PLANT PHYSIOL
p328
sg51
V22
p329
sg82
(lp330
(VPATRICK
VJ W
tp331
asg61
I1995
sg47
V681
p332
sbag1
(g2
g3
NtRp333
(dp334
g53
V10.1073/pnas.171039798
p335
sg49
VP NATL ACAD SCI USA
p336
sg51
V98
p337
sg82
(lp338
(VPERSANS
VM W
tp339
asg61
I2001
sg47
V9995
p340
sbag1
(g2
g3
NtRp341
(dp342
g53
V10.1007/s002329900355
p343
sg49
VJ MEMBRANE BIOL
p344
sg51
V162
p345
sg82
(lp346
(VRENTSCH
VD
tp347
asg61
I1998
sg47
V177
p348
sbag1
(g2
g3
NtRp349
(dp350
g53
V10.1105/tpc.8.8.1437
p351
sg49
VPLANT CELL
p352
sg51
V8
sg82
(lp353
(VRENTSCH
VD
tp354
asg61
I1996
sg47
VLANT
p355
sbag1
(g2
g3
NtRp356
(dp357
g53
V10.1016/0014-5793(95)00853-2
p358
sg49
VFEBS LETT
p359
sg51
V370
p360
sg82
(lp361
(VRENTSCH
VD
tp362
asg61
I1995
sg47
V264
p363
sbag1
(g2
g3
NtRp364
(dp365
g53
V10.1093/jexbot/51.349.1423
p366
sg49
VJ EXP BOT
p367
sg51
V51
p368
sg82
(lp369
(VSCHLERETH
VA
tp370
asg61
I2000
sg47
V1423
p371
sbag1
(g2
g3
NtRp372
(dp373
g53
V10.1046/j.1365-313X.1999.00414.x
p374
sg49
VPLANT J
p375
sg51
V17
p376
sg82
(lp377
(VSCHULZE
VW
tp378
asg61
I1999
sg47
VLANT
p379
sbag1
(g2
g3
NtRp380
(dp381
g53
V10.1104/pp.114.3.927
p382
sg49
VPLANT PHYSIOL
p383
sg51
V114
p384
sg82
(lp385
(VSONG
VW
tp386
asg61
I1997
sg47
VLANT
p387
sbag1
(g2
g3
NtRp388
(dp389
g53
V10.1104/pp.110.1.171
p390
sg49
VPLANT PHYSIOL
p391
sg51
V110
p392
sg82
(lp393
(VSONG
VW
tp394
asg61
I1996
sg47
VLANT
p395
sbag1
(g2
g3
NtRp396
(dp397
g53
V10.1016/0014-5793(77)80337-2
p398
sg49
VFEBS LETT
p399
sg51
V79
p400
sg82
(lp401
(VSOPANEN
VT
tp402
asg61
I1977
sg47
V4
sbag1
(g2
g3
NtRp403
(dp404
g53
V10.1016/S1360-1385(02)02249-5
p405
sg49
VTRENDS PLANT SCI
p406
sg51
V7
sg82
(lp407
(VSTACEY
VG
tp408
asg61
I2002
sg47
V257
p409
sbag1
(g2
g3
NtRp410
(dp411
g53
Nsg49
VPLANT PHYSIOL
p412
sg51
V104
p413
sg82
(lp414
(VSTASWICK
VP E
tp415
asg61
I1994
sg47
VLANT
p416
sbag1
(g2
g3
NtRp417
(dp418
g53
V10.1105/tpc.6.9.1289
p419
sg49
VPLANT CELL
p420
sg51
V6
sg82
(lp421
(VSTEINER
VH Y
tp422
asg61
I1994
sg47
VLANT
p423
sbag1
(g2
g3
NtRp424
(dp425
g53
Nsg49
VPLANT CELL
p426
sg51
V12
p427
sg82
(lp428
(VSTEINER
VH Y
tp429
asg61
I2000
sg47
VLANT
p430
sbag1
(g2
g3
NtRp431
(dp432
g53
V10.1046/j.1365-313X.1999.00439.x
p433
sg49
VPLANT J
p434
sg51
V18
p435
sg82
(lp436
(VTEGEDER
VM
tp437
asg61
I1999
sg47
VLANT
p438
sbag1
(g2
g3
NtRp439
(dp440
g53
V10.1104/pp.122.2.319
p441
sg49
VPLANT PHYSIOL
p442
sg51
V122
p443
sg82
(lp444
(VTEGEDER
VM
tp445
asg61
I2000
sg47
VLANT
p446
sbag1
(g2
g3
NtRp447
(dp448
g53
Nsg49
VNATURE
p449
sg51
V408
p450
sg82
(lp451
(VKAUL
VS
tp452
asg61
I2000
sg47
V796
p453
sbag1
(g2
g3
NtRp454
(dp455
g53
Nsg49
VANNU REV PLANT PHYS
p456
sg51
V36
p457
sg82
(lp458
(VTHORNE
VJ H
tp459
asg61
I1985
sg47
V317
p460
sbag1
(g2
g3
NtRp461
(dp462
g53
V10.1007/s004250000259
p463
sg49
VPLANTA
p464
sg51
V211
p465
sg82
(lp466
(VTIEDEMANN
VJ
tp467
asg61
I2000
sg47
VLANTA
p468
sbag1
(g2
g3
NtRp469
(dp470
g53
V10.1104/pp.82.1.222
p471
sg49
VPLANT PHYSIOL
p472
sg51
V82
p473
sg82
(lp474
(VVERNOOY
VC D
tp475
asg61
I1986
sg47
VLANT
p476
sbag1
(g2
g3
NtRp477
(dp478
g53
Nsg49
VSEED SCI RES
p479
sg51
V11
p480
sg82
(lp481
(VWATERWORTH
VW M
tp482
asg61
I2001
sg47
V275
p483
sbag1
(g2
g3
NtRp484
(dp485
g53
V10.1079/9780851994048.0297
p486
sg49
VSEED BIOLOGY
p487
sg51
Nsg82
(lp488
(VWATERWORTH
VW M
tp489
asg61
I2000
sg47
V297
p490
sbag1
(g2
g3
NtRp491
(dp492
g53
Nsg49
VPLANTA
p493
sg51
V195
p494
sg82
(lp495
(VWEBER
VH
tp496
asg61
I1995
sg47
VLANTA
p497
sbag1
(g2
g3
NtRp498
(dp499
g53
V10.1016/S1360-1385(97)85222-3
p500
sg49
VTRENDS PLANT SCI
p501
sg51
V2
sg82
(lp502
(VWEBER
VH
tp503
asg61
I1997
sg47
V169
p504
sbag1
(g2
g3
NtRp505
(dp506
g53
Nsg49
VSEED SCI RES
p507
sg51
V8
sg82
(lp508
(VWEBER
VH
tp509
asg61
I1998
sg47
V331
p510
sbag1
(g2
g3
NtRp511
(dp512
g53
V10.1105/tpc.9.6.895
p513
sg49
VPLANT CELL
p514
sg51
V9
sg82
(lp515
(VWEBER
VH
tp516
asg61
I1997
sg47
VLANT
p517
sbag1
(g2
g3
NtRp518
(dp519
g53
V10.1046/j.1365-313X.1998.00199.x
p520
sg49
VPLANT J
p521
sg51
V15
p522
sg82
(lp523
(VWEST
VC E
tp524
asg61
I1998
sg47
VLANT
p525
sbag1
(g2
g3
NtRp526
(dp527
g53
V10.1034/j.1399-3054.1994.910411.x
p528
sg49
VPHYSIOL PLANTARUM
p529
sg51
V91
p530
sg82
(lp531
(VWESTON
VK
tp532
asg61
I1994
sg47
VHYSIOL
p533
sbag1
(g2
g3
NtRp534
(dp535
g53
V10.1146/annurev.arplant.52.1.659
p536
sg49
VANNU REV PLANT PHYS
p537
sg51
V52
p538
sg82
(lp539
(VWILLIAMS
VL E
tp540
asg61
I2001
sg47
V659
p541
sbag1
(g2
g3
NtRp542
(dp543
g53
V10.1104/pp.70.5.1544
p544
sg49
VPLANT PHYSIOL
p545
sg51
V70
p546
sg82
(lp547
(VWITTENBACH
VV A
tp548
asg61
I1982
sg47
VLANT
p549
sbag1
(g2
g3
NtRp550
(dp551
g53
Nsg49
VJ PLANT PHYSIOL
p552
sg51
V145
p553
sg82
(lp554
(VWOBUS
VU
tp555
asg61
I1995
sg47
V592
p556
sbag1
(g2
g3
NtRp557
(dp558
g53
Nsg49
VPLANT NUTRIENT ACQUISITION
p559
sg51
Nsg82
(lp560
(VYAMAGATA
VM
tp561
asg61
I2001
sg47
VLANT
p562
sbag1
(g2
g3
NtRp563
(dp564
g53
V10.1016/S0167-4781(01)00175-0
p565
sg49
VBBA
p566
sg51
V1518
p567
sg82
(lp568
(VYOKOYAMA
VT
tp569
asg61
I2001
sg47
V79
p570
sbag1
(g2
g3
NtRp571
(dp572
g53
V10.1074/jbc.273.20.12017
p573
sg49
VJ BIOL CHEM
p574
sg51
V273
p575
sg82
(lp576
(VZHOU
VJ J
tp577
asg61
I1998
sg47
V12017
p578
sbasb.