ccopy_reg
_reconstructor
p1
(ctethne.classes.paper
Paper
p2
c__builtin__
object
p3
NtRp4
(dp5
S'publisherCity'
p6
VROCKVILLE
p7
sS'reprintAddress'
p8
VKang, BH (reprint author), Univ Colorado, Boulder, CO 80309 USA.
p9
sS'WC'
p10
VPlant Sciences
p11
sS'GA'
p12
V333WR
p13
sS'pageEnd'
p14
I1468
sS'publisherAddress'
p15
V15501 MONONA DRIVE, ROCKVILLE, MD 20855 USA
p16
sS'documentType'
p17
VArticle
p18
sS'subject'
p19
VPlant Sciences
p20
sS'isoSource'
p21
VPlant Physiol.
p22
sS'timesCited'
p23
(lp24
I63
aVZ9 66
p25
asS'PT'
p26
VJ
sS'title'
p27
VNanoscale Architecture Of Endoplasmic Reticulum Export Sites And Of Golgi Membranes As Determined By Electron Tomography
p28
sS'ISSN'
p29
(lp30
V0032-0889
p31
aVJ9 PLANT PHYSIOL
p32
asS'authors_full'
p33
(lp34
(VSTAEHELIN
VL ANDREW
tp35
a(VKANG
VBYUNGHO
tp36
asS'PG'
p37
I15
sS'PD'
p38
VAUG
p39
sS'pageStart'
p40
I1454
sS'issue'
p41
I4
sS'RI'
p42
VKang, Byung-Ho/F-5262-2013
p43
sS'journal'
p44
VPLANT PHYSIOLOGY
p45
sS'volume'
p46
V147
p47
sS'doi'
p48
V10.1104/pp.108.120618
p49
sS'emailAddress'
p50
Vbkang@ufl.edu
p51
sS'authorAddress'
p52
(lp53
V[Staehelin, L. Andrew] Univ Colorado, Boulder, CO 80309 USA.
p54
aV[Kang, Byung-Ho] Univ Florida, Dept Microbiol & Cell Sci, Gainesville, FL 32611 USA.
p55
aV[Kang, Byung-Ho] Univ Florida, Integrated Ctr Biotechnol Res, Gainesville, FL 32611 USA.
p56
asS'date'
p57
I2008
sS'ER'
p58
V
sS'publisher'
p59
VAMER SOC PLANT BIOLOGISTS
p60
sS'authorKeywords'
p61
(lp62
VCOPI-COATED VESICLES
p63
aVHIGH-PRESSURE FROZEN
p64
aVPLANT GOLGI
p65
aVEXIT SITES
p66
aVMULTIVESICULAR BODIES
p67
aVARABIDOPSIS-THALIANA
p68
aVCISTERNAL MATURATION
p69
aVMERISTEMATIC CELLS
p70
aVSECRETORY PATHWAY
p71
aVSTORAGE PROTEINS
p72
asS'language'
p73
VEnglish
p74
sS'wosid'
p75
VWOS:000258184800002
p76
sS'citationCount'
p77
I76
sS'authors_init'
p78
(lp79
(VSTAEHELIN
VL A
tp80
a(VKANG
VB H
tp81
asS'citedReferences'
p82
(lp83
g1
(g2
g3
NtRp84
(dp85
g48
Nsg44
VPLANT ENDOPLASMIC RE
p86
sg46
Nsg78
(lp87
(VANIENTO
VF
tp88
asg57
I2006
sg40
VLANT
p89
sbag1
(g2
g3
NtRp90
(dp91
g48
V10.1242/jcs.02512
p92
sg44
VJ CELL SCI
p93
sg46
V118
p94
sg78
(lp95
(VAUSTIN
VJ R
tp96
asg57
I2005
sg40
V3895
p97
sbag1
(g2
g3
NtRp98
(dp99
g48
V10.1016/S0962-8924(00)89047-9
p100
sg44
VTRENDS CELL BIOL
p101
sg46
V5
sg78
(lp102
(VBECKER
VB
tp103
asg57
I1995
sg40
V305
p104
sbag1
(g2
g3
NtRp105
(dp106
g48
V10.1078/0171-9335-00191
p107
sg44
VEUR J CELL BIOL
p108
sg46
V80
p109
sg78
(lp110
(VBENCHIMOL
VM
tp111
asg57
I2001
sg40
V593
p112
sbag1
(g2
g3
NtRp113
(dp114
g48
V10.1038/ncb852
p115
sg44
VNAT CELL BIOL
p116
sg46
V4
sg78
(lp117
(VBEVIS
VB J
tp118
asg57
I2002
sg40
V750
p119
sbag1
(g2
g3
NtRp120
(dp121
g48
V10.1046/j.1365-313X.1998.00208.x
p122
sg44
VPLANT J
p123
sg46
V15
p124
sg78
(lp125
(VBOEVINK
VP
tp126
asg57
I1998
sg40
VLANT
p127
sbag1
(g2
g3
NtRp128
(dp129
g48
V10.1016/S0092-8674(00)81723-7
p130
sg44
VCELL
p131
sg46
V95
p132
sg78
(lp133
(VBONFANTI
VL
tp134
asg57
I1998
sg40
V993
p135
sbag1
(g2
g3
NtRp136
(dp137
g48
V10.1016/S0092-8674(03)01079-1
p138
sg44
VCELL
p139
sg46
V116
p140
sg78
(lp141
(VBONIFACINO
VJ S
tp142
asg57
I2004
sg40
V153
p143
sbag1
(g2
g3
NtRp144
(dp145
g48
V10.1105/tpc.001586
p146
sg44
VPLANT CELL
p147
sg46
V14
p148
sg78
(lp149
(VBRANDIZZI
VF
tp150
asg57
I2002
sg40
VLANT
p151
sbag1
(g2
g3
NtRp152
(dp153
g48
Nsg44
VLAB INVEST
p154
sg46
V29
p155
sg78
(lp156
(VBUCKLEY
VI K
tp157
asg57
I1973
sg40
V398
p158
sbag1
(g2
g3
NtRp159
(dp160
g48
V10.1093/emboj/17.8.2156
p161
sg44
VEMBO J
p162
sg46
V17
p163
sg78
(lp164
(VCAO
VX C
tp165
asg57
I1998
sg40
V2156
p166
sbag1
(g2
g3
NtRp167
(dp168
g48
Nsg44
VMOL BIOL CELL
p169
sg46
V7
sg78
(lp170
(VCOLE
VN B
tp171
asg57
I1996
sg40
V631
p172
sbag1
(g2
g3
NtRp173
(dp174
g48
V10.1105/tpc.022673
p175
sg44
VPLANT CELL
p176
sg46
V16
p177
sg78
(lp178
(VDASILVA
VL L P
tp179
asg57
I2004
sg40
VLANT
p180
sbag1
(g2
g3
NtRp181
(dp182
g48
V10.1073/pnas.0609818104
p183
sg44
VP NATL ACAD SCI USA
p184
sg46
V104
p185
sg78
(lp186
(VDONOHOE
VB S
tp187
asg57
I2007
sg40
V163
p188
sbag1
(g2
g3
NtRp189
(dp190
g48
V10.1016/j.ymeth.2006.05.013
p191
sg44
VMETHODS
p192
sg46
V39
p193
sg78
(lp194
(VDONOHOE
VB S
tp195
asg57
I2006
sg40
V154
p196
sbag1
(g2
g3
NtRp197
(dp198
g48
V10.1016/S0962-8924(97)01187-2
p199
sg44
VTRENDS CELL BIOL
p200
sg46
V8
sg78
(lp201
(VFARQUHAR
VM G
tp202
asg57
I1998
sg40
V2
sbag1
(g2
g3
NtRp203
(dp204
g48
Nsg44
VJ CELL BIOL
p205
sg46
V91
p206
sg78
(lp207
(VFARQUHAR
VM G
tp208
asg57
I1981
sg40
V77
p209
sbag1
(g2
g3
NtRp210
(dp211
g48
V10.1007/s00425-004-1302-x
p212
sg44
VPLANTA
p213
sg46
V219
p214
sg78
(lp215
(VGELDNER
VN
tp216
asg57
I2004
sg40
VLANTA
p217
sbag1
(g2
g3
NtRp218
(dp219
g48
V10.1016/S0092-8674(00)81713-4
p220
sg44
VCELL
p221
sg46
V95
p222
sg78
(lp223
(VGLICK
VB S
tp224
asg57
I1998
sg40
V883
p225
sbag1
(g2
g3
NtRp226
(dp227
g48
V10.1126/science.2945253
p228
sg44
VSCIENCE
p229
sg46
V234
p230
sg78
(lp231
(VGRIFFITHS
VG
tp232
asg57
I1986
sg40
V438
p233
sbag1
(g2
g3
NtRp234
(dp235
g48
V10.1016/j.tplants.2006.05.003
p236
sg44
VTRENDS PLANT SCI
p237
sg46
V11
p238
sg78
(lp239
(VHANTON
VS L
tp240
asg57
I2006
sg40
V335
p241
sbag1
(g2
g3
NtRp242
(dp243
g48
V10.1007/BF01279872
p244
sg44
VPROTOPLASMA
p245
sg46
V114
p246
sg78
(lp247
(VHARRIS
VN
tp248
asg57
I1983
sg40
VROTOPLASMA
p249
sbag1
(g2
g3
NtRp250
(dp251
g48
V10.1016/j.bbamcr.2005.03.009
p252
sg44
VBBA
p253
sg46
V1744
p254
sg78
(lp255
(VHAWES
VC
tp256
asg57
I2005
sg40
V93
p257
sbag1
(g2
g3
NtRp258
(dp259
g48
V10.1111/j.1469-8137.2004.01218.x
p260
sg44
VNEW PHYTOL
p261
sg46
V165
p262
sg78
(lp263
(VHAWES
VC
tp264
asg57
I2005
sg40
V29
p265
sbag1
(g2
g3
NtRp266
(dp267
g48
V10.1083/jcb.152.1.41
p268
sg44
VJ CELL BIOL
p269
sg46
V152
p270
sg78
(lp271
(VHILLMER
VS
tp272
asg57
I2001
sg40
V41
p273
sbag1
(g2
g3
NtRp274
(dp275
g48
V10.1016/j.bbamcr.2006.04.004
p276
sg44
VBBA
p277
sg46
V1763
p278
sg78
(lp279
(VJAKOBS
VS
tp280
asg57
I2006
sg40
V561
p281
sbag1
(g2
g3
NtRp282
(dp283
g48
V10.1086/337282
p284
sg44
VBOT GAZ
p285
sg46
V143
p286
sg78
(lp287
(VJUNIPER
VB E
tp288
asg57
I1982
sg40
V135
p289
sbag1
(g2
g3
NtRp290
(dp291
g48
V10.1038/35043117
p292
sg44
VNAT REV MOL CELL BIO
p293
sg46
V1
sg78
(lp294
(VKIRCHHAUSEN
VT
tp295
asg57
I2000
sg40
V187
p296
sbag1
(g2
g3
NtRp297
(dp298
g48
Nsg44
VRAPID FREEZING FREEZ
p299
sg46
Nsg78
(lp300
(VKISS
VJ Z
tp301
asg57
I1995
sg40
V89
p302
sbag1
(g2
g3
NtRp303
(dp304
g48
V10.1006/jsbi.1997.3933
p305
sg44
VJ STRUCT BIOL
p306
sg46
V120
p307
sg78
(lp308
(VKOSTER
VA J
tp309
asg57
I1997
sg40
V276
p310
sbag1
(g2
g3
NtRp311
(dp312
g48
V10.1083/jcb.144.6.1135
p313
sg44
VJ CELL BIOL
p314
sg46
V144
p315
sg78
(lp316
(VLADINSKY
VM S
tp317
asg57
I1999
sg40
V1135
p318
sbag1
(g2
g3
NtRp319
(dp320
g48
V10.1016/j.tplants.2007.09.001
p321
sg44
VTRENDS PLANT SCI
p322
sg46
V12
p323
sg78
(lp324
(VLAM
VS K
tp325
asg57
I2007
sg40
V497
p326
sbag1
(g2
g3
NtRp327
(dp328
g48
V10.1083/jcb.200108017
p329
sg44
VJ CELL BIOL
p330
sg46
V155
p331
sg78
(lp332
(VLANOIX
VJ
tp333
asg57
I2001
sg40
V1199
p334
sbag1
(g2
g3
NtRp335
(dp336
g48
V10.1038/nature04717
p337
sg44
VNATURE
p338
sg46
V441
p339
sg78
(lp340
(VLOSEV
VE
tp341
asg57
I2006
sg40
V1002
p342
sbag1
(g2
g3
NtRp343
(dp344
g48
V10.1038/441939a
p345
sg44
VNATURE
p346
sg46
V441
p347
sg78
(lp348
(VMALHOTRA
VV
tp349
asg57
I2006
sg40
V939
p350
sbag1
(g2
g3
NtRp351
(dp352
g48
V10.1073/pnas.051631998
p353
sg44
VP NATL ACAD SCI USA
p354
sg46
V98
p355
sg78
(lp356
(VMARSH
VB J
tp357
asg57
I2001
sg40
V2399
p358
sbag1
(g2
g3
NtRp359
(dp360
g48
V10.1016/S0092-8674(00)80608-X
p361
sg44
VCELL
p362
sg46
V98
p363
sg78
(lp364
(VMARTINEZ-MENARGUEZ
VJ A
tp365
asg57
I1999
sg40
V81
p366
sbag1
(g2
g3
NtRp367
(dp368
g48
V10.1038/nature04737
p369
sg44
VNATURE
p370
sg46
V441
p371
sg78
(lp372
(VMATSUURA-TOKITA
VK
tp373
asg57
I2006
sg40
V1007
p374
sbag1
(g2
g3
NtRp375
(dp376
g48
V10.1007/BF01285039
p377
sg44
VPROTOPLASMA
p378
sg46
V131
p379
sg78
(lp380
(VMCFADDEN
VG I
tp381
asg57
I1986
sg40
VROTOPLASMA
p382
sbag1
(g2
g3
NtRp383
(dp384
g48
V10.1016/j.tcb.2004.11.009
p385
sg44
VTRENDS CELL BIOL
p386
sg46
V15
p387
sg78
(lp388
(VMCINTOSH
VR
tp389
asg57
I2005
sg40
V43
p390
sbag1
(g2
g3
NtRp391
(dp392
g48
Nsg44
VJ MICROSC
p393
sg46
V166
p394
sg78
(lp395
(VMERSEY
VB G
tp396
asg57
I1978
sg40
V43
p397
sbag1
(g2
g3
NtRp398
(dp399
g48
V10.1091/mbc.E02-10-0697
p400
sg44
VMOL BIOL CELL
p401
sg46
V14
p402
sg78
(lp403
(VMOGELSVANG
VS
tp404
asg57
I2003
sg40
V2277
p405
sbag1
(g2
g3
NtRp406
(dp407
g48
V10.1083/jcb.49.1.212
p408
sg44
VJ CELL BIOL
p409
sg46
V49
p410
sg78
(lp411
(VMOLLENHAHH
S''
tp412
asg57
I1971
sg40
V212
p413
sbag1
(g2
g3
NtRp414
(dp415
g48
V10.1083/jcb.112.4.589
p416
sg44
VJ CELL BIOL
p417
sg46
V112
p418
sg78
(lp419
(VMOORE
VP J
tp420
asg57
I1991
sg40
V589
p421
sbag1
(g2
g3
NtRp422
(dp423
g48
V10.1093/jxb/erl135
p424
sg44
VJ EXP BOT
p425
sg46
V58
p426
sg78
(lp427
(VMOREAU
VP
tp428
asg57
I2007
sg40
V49
p429
sbag1
(g2
g3
NtRp430
(dp431
g48
V10.1093/glycob/4.2.113
p432
sg44
VGLYCOBIOLOGY
p433
sg46
V4
sg78
(lp434
(VMOREMEN
VK W
tp435
asg57
I1994
sg40
V113
p436
sbag1
(g2
g3
NtRp437
(dp438
g48
Nsg44
VCELLULAR ELECT MICRO
p439
sg46
V79
p440
sg78
(lp441
(VMORPHEW
VM K
tp442
asg57
I2007
sg40
V494
p443
sbag1
(g2
g3
NtRp444
(dp445
g48
Nsg44
VORIGIN CONTINUITY CE
p446
sg46
Nsg78
(lp447
(VMORRE
VJ
tp448
asg57
I1971
sg40
V82
p449
sbag1
(g2
g3
NtRp450
(dp451
g48
V10.1104/pp.119.4.1437
p452
sg44
VPLANT PHYSIOL
p453
sg46
V119
p454
sg78
(lp455
(VMOVAFEGHI
VA
tp456
asg57
I1999
sg40
VLANT
p457
sbag1
(g2
g3
NtRp458
(dp459
g48
V10.1038/ncb1002-e223
p460
sg44
VNAT CELL BIOL
p461
sg46
V4
sg78
(lp462
(VMUNRO
VS
tp463
asg57
I2002
sg40
VE223
p464
sbag1
(g2
g3
NtRp465
(dp466
g48
V10.1104/pp.121.4.1127
p467
sg44
VPLANT PHYSIOL
p468
sg46
V121
p469
sg78
(lp470
(VNEBENFUHR
VA
tp471
asg57
I1999
sg40
VLANT
p472
sbag1
(g2
g3
NtRp473
(dp474
g48
V10.1104/pp.124.1.135
p475
sg44
VPLANT PHYSIOL
p476
sg46
V124
p477
sg78
(lp478
(VNEBENFUHR
VA
tp479
asg57
I2000
sg40
VLANT
p480
sbag1
(g2
g3
NtRp481
(dp482
g48
Nsg44
VANNU PLANT REV
p483
sg46
V9
sg78
(lp484
(VNEBENFUHR
VA
tp485
asg57
I2003
sg40
V76
p486
sbag1
(g2
g3
NtRp487
(dp488
g48
V10.1105/tpc.106.040931
p489
sg44
VPLANT CELL
p490
sg46
V18
p491
sg78
(lp492
(VOTEGUI
VM S
tp493
asg57
I2006
sg40
VLANT
p494
sbag1
(g2
g3
NtRp495
(dp496
g48
V10.1105/tpc.13.9.2033
p497
sg44
VPLANT CELL
p498
sg46
V13
p499
sg78
(lp500
(VOTEGUI
VM S
tp501
asg57
I2001
sg40
VLANT
p502
sbag1
(g2
g3
NtRp503
(dp504
g48
V10.1038/nature00946
p505
sg44
VNATURE
p506
sg46
V418
p507
sg78
(lp508
(VPELLETIER
VL
tp509
asg57
I2002
sg40
V548
p510
sbag1
(g2
g3
NtRp511
(dp512
g48
V10.1007/BF01281235
p513
sg44
VPROTOPLASMA
p514
sg46
V125
p515
sg78
(lp516
(VPESACRETA
VT C
tp517
asg57
I1985
sg40
VROTOPLASMA
p518
sbag1
(g2
g3
NtRp519
(dp520
g48
V10.1105/tpc.13.9.2005
p521
sg44
VPLANT CELL
p522
sg46
V13
p523
sg78
(lp524
(VPHILLIPSON
VB A
tp525
asg57
I2001
sg40
VLANT
p526
sbag1
(g2
g3
NtRp527
(dp528
g48
V10.1105/tpc.12.11.2219
p529
sg44
VPLANT CELL
p530
sg46
V12
p531
sg78
(lp532
(VPIMPL
VP
tp533
asg57
I2000
sg40
VLANT
p534
sbag1
(g2
g3
NtRp535
(dp536
g48
V10.1083/jcb.200508116
p537
sg44
VJ CELL BIOL
p538
sg46
V172
p539
sg78
(lp540
(VPREUSS
VM L
tp541
asg57
I2006
sg40
V991
p542
sbag1
(g2
g3
NtRp543
(dp544
g48
V10.1016/j.cub.2007.10.040
p545
sg44
VCURR BIOL
p546
sg46
V17
p547
sg78
(lp548
(VREICHARDT
VL
tp549
asg57
I2007
sg40
V2047
p550
sbag1
(g2
g3
NtRp551
(dp552
g48
V10.1007/s00709-002-0033-8
p553
sg44
VPROTOPLASMA
p554
sg46
V220
p555
sg78
(lp556
(VRENSING
VK H
tp557
asg57
I2002
sg40
VROTOPLASMA
p558
sbag1
(g2
g3
NtRp559
(dp560
g48
V10.1105/tpc.010237
p561
sg44
VPLANT CELL
p562
sg46
V14
p563
sg78
(lp564
(VRITZENTHALER
VC
tp565
asg57
I2002
sg40
VLANT
p566
sbag1
(g2
g3
NtRp567
(dp568
g48
V10.1080/07352680701495820
p569
sg44
VCRIT REV PLANT SCI
p570
sg46
V26
p571
sg78
(lp572
(VROBINSON
VD G
tp573
asg57
I2007
sg40
V199
p574
sbag1
(g2
g3
NtRp575
(dp576
g48
Nsg44
VEUR J CELL BIOL
p577
sg46
V23
p578
sg78
(lp579
(VROBINSON
VD G
tp580
asg57
I1980
sg40
V22
p581
sbag1
(g2
g3
NtRp582
(dp583
g48
V10.1105/tpc.105.036400
p584
sg44
VPLANT CELL
p585
sg46
V18
p586
sg78
(lp587
(VSAINT-JORE-DUPAS
VC
tp588
asg57
I2006
sg40
VLANT
p589
sbag1
(g2
g3
NtRp590
(dp591
g48
V10.1007/s00018-003-3354-7
p592
sg44
VCELL MOL LIFE SCI
p593
sg46
V61
p594
sg78
(lp595
(VSAINT-JORE-DUPAS
VC
tp596
asg57
I2004
sg40
V159
p597
sbag1
(g2
g3
NtRp598
(dp599
g48
V10.1007/s00425-005-0082-2
p600
sg44
VPLANTA
p601
sg46
V223
p602
sg78
(lp603
(VSEGUI-SIMARRO
VJ M
tp604
asg57
I2006
sg40
VLANTA
p605
sbag1
(g2
g3
NtRp606
(dp607
g48
V10.1105/tpc.017749
p608
sg44
VPLANT CELL
p609
sg46
V16
p610
sg78
(lp611
(VSEGUI-SIMARRO
VJ M
tp612
asg57
I2004
sg40
VLANT
p613
sbag1
(g2
g3
NtRp614
(dp615
g48
Nsg44
VEur J Cell Biol
p616
sg46
V46
p617
sg78
(lp618
(VCRAIG
VS
tp619
asg57
I1988
sg40
V81
p620
sbag1
(g2
g3
NtRp621
(dp622
g48
V10.1007/BF01322640
p623
sg44
VPROTOPLASMA
p624
sg46
V157
p625
sg78
(lp626
(VSTAEHELIN
VL A
tp627
asg57
I1990
sg40
VROTOPLASMA
p628
sbag1
(g2
g3
NtRp629
(dp630
g48
V10.1146/annurev.pp.46.060195.001401
p631
sg44
VANNU REV PLANT PHYS
p632
sg46
V46
p633
sg78
(lp634
(VSTAEHELIN
VL A
tp635
asg57
I1995
sg40
V261
p636
sbag1
(g2
g3
NtRp637
(dp638
g48
V10.1105/tpc.104.026757
p639
sg44
VPLANT CELL
p640
sg46
V17
p641
sg78
(lp642
(VYANG
VY D
tp643
asg57
I2005
sg40
VLANT
p644
sbag1
(g2
g3
NtRp645
(dp646
g48
V10.1038/ncb1371
p647
sg44
VNAT CELL BIOL
p648
sg46
V8
sg78
(lp649
(VZEUSCHNER
VD
tp650
asg57
I2006
sg40
V377
p651
sbag1
(g2
g3
NtRp652
(dp653
g48
V10.1104/pp.99.3.1070
p654
sg44
VPLANT PHYSIOL
p655
sg46
V99
p656
sg78
(lp657
(VZHANG
VG F
tp658
asg57
I1992
sg40
VLANT
p659
sbag1
(g2
g3
NtRp660
(dp661
g48
Nsg44
VJ CELL SCI
p662
sg46
V104
p663
sg78
(lp664
(VZHANG
VG F
tp665
asg57
I1993
sg40
V819
p666
sbasb.