ccopy_reg
_reconstructor
p1
(ctethne.classes.paper
Paper
p2
c__builtin__
object
p3
NtRp4
(dp5
S'publisherCity'
p6
VROCKVILLE
p7
sS'reprintAddress'
p8
VMatringe, M (reprint author), Rhone Poulenc, CNRS, UMR 41, F-69263 Lyon 09, France.
p9
sS'WC'
p10
VPlant Sciences
p11
sS'GA'
p12
V186PJ
p13
sS'abstract'
p14
V4-Hydroxyphenylpyruvate dioxygenase (4HPPD) catalyzes the formation of homogentisate (2,5-dihydroxyphenylacetate) from p-hydroxyphenylpyruvate and molecular oxygen. In plants this enzyme activity is involved in two distinct metabolic processes, the biosynthesis of prenylquinones and the catabolism of tyrosine. We report here the molecular and biochemical characterization of an Arabidopsis 4HPPD and the compartmentation of the recombinant protein in chlorophyllous tissues. We isolated a 1508-bp cDNA with one large open reading frame of 1338 bp. Southern analysis strongly suggested that this Arabidopsis 4HPPD is encoded by a single-copy gene. We investigated the biochemical characteristics of this 4HPPD by overproducing the recombinant protein in Escherichia coli JM105. The subcellular localization of the recombinant 4HPPD in chlorophyllous tissues was examined by overexpressing its complete coding sequence in transgenic tobacco (Nicotiana tabacum), using Agrobacterium tumefaciens transformation. We. performed western analyses for the immunodetection of protein extracts from purified chloroplasts and total leaf extracts and for the immunocytochemistry on tissue sections. These analyses clearly revealed that 4HPPD was confined to the cytosol compartment, not targeted to the chloroplast. Western analyses confirmed the presence of a cytosolic form of 4HPPD in cultured green Arabidopsis cells.
p15
sS'pageEnd'
p16
I1516
sS'publisherAddress'
p17
V15501 MONONA DRIVE, ROCKVILLE, MD 20855 USA
p18
sS'documentType'
p19
VArticle
p20
sS'subject'
p21
VPlant Sciences
p22
sS'isoSource'
p23
VPlant Physiol.
p24
sS'timesCited'
p25
(lp26
I49
aVZ9 54
p27
asS'PT'
p28
VJ
sS'title'
p29
VCharacterization And Subcellular Compartmentation Of Recombinant 4-Hydroxyphenylpyruvate Dioxygenase From Arabidopsis In Transgenic Tobacco
p30
sS'ISSN'
p31
(lp32
V0032-0889
p33
aVJ9 PLANT PHYSIOL
p34
asS'authors_full'
p35
(lp36
(VGARCIA
VI
tp37
a(VRODGERS
VM
tp38
a(VPEPIN
VR
tp39
a(VHSIEH
VTF
tp40
a(VMATRINGE
VM
tp41
asS'PG'
p42
I10
sS'PD'
p43
VAPR
p44
sS'pageStart'
p45
I1507
sS'issue'
p46
I4
sS'journal'
p47
VPLANT PHYSIOLOGY
p48
sS'volume'
p49
V119
p50
sS'doi'
p51
V10.1104/pp.119.4.1507
p52
sS'authorAddress'
p53
(lp54
VRhone Poulenc, CNRS, UMR 41, F-69263 Lyon 09, France.
p55
aVRhone Poulenc Agrochim, Dept Biotechnol, F-69263 Lyon, France.
p56
aVTexas A&M Univ, Dept Biol, College Stn, TX 77843 USA.
p57
asS'date'
p58
I1999
sS'ER'
p59
V
sS'publisher'
p60
VAMER SOC PLANT PHYSIOLOGISTS
p61
sS'authorKeywords'
p62
(lp63
VP-HYDROXYPHENYLPYRUVATE DIOXYGENASE
p64
aVRAT-LIVER
p65
aVSPINACH-CHLOROPLASTS
p66
aVACID DIOXYGENASE
p67
aVGENE-EXPRESSION
p68
aVPURIFICATION
p69
aVHOMOGENTISATE
p70
aVLOCALIZATION
p71
aVPROTEIN
p72
aVENZYME
p73
asS'language'
p74
VEnglish
p75
sS'wosid'
p76
VWOS:000079737900038
p77
sS'citationCount'
p78
I42
sS'authors_init'
p79
(lp80
(VGARCIA
VI
tp81
a(VRODGERS
VM
tp82
a(VPEPIN
VR
tp83
a(VHSIEH
VT F
tp84
a(VMATRINGE
VM
tp85
asS'citedReferences'
p86
(lp87
g1
(g2
g3
NtRp88
(dp89
g51
Nsg47
VPLANT PHYSIOL BIOCH
p90
sg49
V30
p91
sg79
(lp92
(VAXELOS
VM
tp93
asg58
I1992
sg45
VLANT
p94
sbag1
(g2
g3
NtRp95
(dp96
g51
V10.1016/0960-894X(95)00204-7
p97
sg47
VBIOORG MED CHEM LETT
p98
sg49
V5
sg79
(lp99
(VBALDWIN
VJ E
tp100
asg58
I1995
sg45
V1255
p101
sbag1
(g2
g3
NtRp102
(dp103
g51
Nsg47
VPESTIC SCI
p104
sg49
V48
p105
sg79
(lp106
(VBARTA
VI C
tp107
asg58
I1996
sg45
VESTIC
p108
sbag1
(g2
g3
NtRp109
(dp110
g51
Nsg47
VMETHOD ENZYMOL
p111
sg49
V69
p112
sg79
(lp113
(VCHUA
VN H
tp114
asg58
I1980
sg45
V434
p115
sbag1
(g2
g3
NtRp116
(dp117
g51
V10.1146/annurev.cellbio.12.1.1
p118
sg47
VANNU REV CELL DEV BI
p119
sg49
V12
p120
sg79
(lp121
(VCLINE
VK
tp122
asg58
I1996
sg45
V1
sbag1
(g2
g3
NtRp123
(dp124
g51
Nsg47
VJ BACTERIOL
p125
sg49
V176
p126
sg79
(lp127
(VDENOYA
VC D
tp128
asg58
I1994
sg45
V5312
p129
sbag1
(g2
g3
NtRp130
(dp131
g51
V10.1016/0031-9422(74)80313-4
p132
sg47
VPHYTOCHEMISTRY
p133
sg49
V13
p134
sg79
(lp135
(VDURAND
VR
tp136
asg58
I1974
sg45
VHYTOCHEMISTRY
p137
sbag1
(g2
g3
NtRp138
(dp139
g51
Nsg47
VJ BIOL CHEM
p140
sg49
V267
p141
sg79
(lp142
(VENDO
VF
tp143
asg58
I1992
sg45
V24235
p144
sbag1
(g2
g3
NtRp145
(dp146
g51
Nsg47
VJ BIOL CHEM
p147
sg49
V270
p148
sg79
(lp149
(VFERNANDEZCANON
VJ M
tp150
asg58
I1995
sg45
V21199
p151
sbag1
(g2
g3
NtRp152
(dp153
g51
V10.1007/BF01607575
p154
sg47
VPLANTA
p155
sg49
V155
p156
sg79
(lp157
(VFIEDLER
VE
tp158
asg58
I1982
sg45
VLANTA
p159
sbag1
(g2
g3
NtRp160
(dp161
g51
Nsg47
VPLANT PHYSIOL
p162
sg49
V114
p163
sg79
(lp164
(VFUKS
VB
tp165
asg58
I1997
sg45
VLANT
p166
sbag1
(g2
g3
NtRp167
(dp168
g51
Nsg47
VBIOCHEM J
p169
sg49
V325
p170
sg79
(lp171
(VGARCIA
VI
tp172
asg58
I1997
sg45
V761
p173
sbag1
(g2
g3
NtRp174
(dp175
g51
Nsg47
VTYROSINE CATABOLISM
p176
sg49
Nsg79
(lp177
(VGOODWIN
VB L
tp178
asg58
I1972
sg45
V1
sbag1
(g2
g3
NtRp179
(dp180
g51
Nsg47
VSCIENCE
p181
sg49
V227
p182
sg79
(lp183
(VHORSCH
VR B
tp184
asg58
I1985
sg45
V1229
p185
sbag1
(g2
g3
NtRp186
(dp187
g51
V10.1007/BF01989880
p188
sg47
VEXPERIENTIA
p189
sg49
V37
p190
sg79
(lp191
(VJEFFORD
VC W
tp192
asg58
I1981
sg45
V1134
p193
sbag1
(g2
g3
NtRp194
(dp195
g51
Nsg47
VPLANT PHYSIOL
p196
sg49
V66
p197
sg79
(lp198
(VJENSEN
VR A
tp199
asg58
I1985
sg45
VLANT
p200
sbag1
(g2
g3
NtRp201
(dp202
g51
V10.1007/s004250050199
p203
sg47
VPLANTA
p204
sg49
V203
p205
sg79
(lp206
(VKLEBERJANKE
VT
tp207
asg58
I1997
sg45
VLANTA
p208
sbag1
(g2
g3
NtRp209
(dp210
g51
Nsg47
VELECTROPHORESIS 78
p211
sg49
Nsg79
(lp212
(VLASKY
VM
tp213
asg58
I1978
sg45
V195
p214
sbag1
(g2
g3
NtRp215
(dp216
g51
Nsg47
VPatent No
p217
sg49
Nsg79
(lp218
(VLEBRUN
VM
tp219
asg58
I1992
sg45
Vatent
p220
sbag1
(g2
g3
NtRp221
(dp222
g51
V10.1093/nar/15.10.4360
p223
sg47
VNUCLEIC ACIDS RES
p224
sg49
V15
p225
sg79
(lp226
(VLEBRUN
VM
tp227
asg58
I1987
sg45
V4360
p228
sbag1
(g2
g3
NtRp229
(dp230
g51
V10.1016/0014-5793(96)00902-7
p231
sg47
VFEBS LETT
p232
sg49
V393
p233
sg79
(lp234
(VLEE
VM H
tp235
asg58
I1996
sg45
V269
p236
sbag1
(g2
g3
NtRp237
(dp238
g51
Nsg47
VPHOTOSYNTHESIS LIGHT
p239
sg49
V5
sg79
(lp240
(VLENNE
VC
tp241
asg58
I1995
sg45
VHOTOSYNTHESIS
p242
sbag1
(g2
g3
NtRp243
(dp244
g51
Nsg47
VJ BIOL CHEM
p245
sg49
V252
p246
sg79
(lp247
(VLINDBLAD
VB
tp248
asg58
I1977
sg45
V5073
p249
sbag1
(g2
g3
NtRp250
(dp251
g51
V10.1016/S0076-6879(87)42022-3
p252
sg47
VMETHOD ENZYMOL
p253
sg49
V142
p254
sg79
(lp255
(VLINDSTEDT
VS
tp256
asg58
I1987
sg45
V143
p257
sbag1
(g2
g3
NtRp258
(dp259
g51
Nsg47
VPROC BRIGHTON CROP
p260
sg49
Nsg79
(lp261
(VLUSCOMBE
VB M
tp262
asg58
I1995
sg45
VROC
p263
sbag1
(g2
g3
NtRp264
(dp265
g51
V10.1007/BF00014972
p266
sg47
VPLANT MOL BIOL
p267
sg49
V29
p268
sg79
(lp269
(VMANDEL
VT
tp270
asg58
I1995
sg45
VLANT
p271
sbag1
(g2
g3
NtRp272
(dp273
g51
Nsg47
VMOL CLONING LAB MANU
p274
sg49
Nsg79
(lp275
(VMANIATIS
VT
tp276
asg58
I1982
sg45
Nsbag1
(g2
g3
NtRp277
(dp278
g51
V10.1104/pp.117.4.1317
p279
sg47
VPLANT PHYSIOL
p280
sg49
V117
p281
sg79
(lp282
(VNORRIS
VS R
tp283
asg58
I1998
sg45
VLANT
p284
sbag1
(g2
g3
NtRp285
(dp286
g51
Nsg47
VPLANT CELL
p287
sg49
V7
sg79
(lp288
(VNORRIS
VS R
tp289
asg58
I1995
sg45
VLANT
p290
sbag1
(g2
g3
NtRp291
(dp292
g51
Nsg47
VP BRIGHTON CROP PROT
p293
sg49
V2
sg79
(lp294
(VPRISBYLLA
VM P
tp295
asg58
I1993
sg45
V731
p296
sbag1
(g2
g3
NtRp297
(dp298
g51
V10.1016/0003-9861(82)90188-6
p299
sg47
VARCH BIOCHEM BIOPHYS
p300
sg49
V216
p301
sg79
(lp302
(VROCHE
VP A
tp303
asg58
I1982
sg45
V62
p304
sbag1
(g2
g3
NtRp305
(dp306
g51
V10.1111/j.1432-1033.1993.tb17857.x
p307
sg47
VEUR J BIOCHEM
p308
sg49
V213
p309
sg79
(lp310
(VRUETSCHI
VU
tp311
asg58
I1993
sg45
V1081
p312
sbag1
(g2
g3
NtRp313
(dp314
g51
V10.1016/0003-9861(81)90074-6
p315
sg47
VARCH BIOCHEM BIOPHYS
p316
sg49
V206
p317
sg79
(lp318
(VSABOURIN
VP J
tp319
asg58
I1981
sg45
V132
p320
sbag1
(g2
g3
NtRp321
(dp322
g51
Nsg47
VPatent No
p323
sg49
Nsg79
(lp324
(VSAILLAND
VA
tp325
asg58
I1996
sg45
Vatent
p326
sbag1
(g2
g3
NtRp327
(dp328
g51
V10.1016/0014-5793(93)80013-K
p329
sg47
VFEBS LETT
p330
sg49
V318
p331
sg79
(lp332
(VSCHULZ
VA
tp333
asg58
I1993
sg45
V162
p334
sbag1
(g2
g3
NtRp335
(dp336
g51
Nsg47
VPLANT PHYSIOL
p337
sg49
V106
p338
sg79
(lp339
(VSECOR
VJ
tp340
asg58
I1994
sg45
VLANT
p341
sbag1
(g2
g3
NtRp342
(dp343
g51
V10.1016/0003-9861(85)90167-5
p344
sg47
VARCH BIOCHEM BIOPHYS
p345
sg49
V238
p346
sg79
(lp347
(VSOLL
VJ
tp348
asg58
I1985
sg45
V290
p349
sbag1
(g2
g3
NtRp350
(dp351
g51
V10.1073/pnas.77.9.5201
p352
sg47
VP NATL ACAD SCI
p353
sg49
V77
p354
sg79
(lp355
(VTHOMAS
VP S
tp356
asg58
I1980
sg45
V5201
p357
sbag1
(g2
g3
NtRp358
(dp359
g51
V10.1073/pnas.76.9.4350
p360
sg47
VP NATL ACAD SCI USA
p361
sg49
V76
p362
sg79
(lp363
(VTOWBIN
VH
tp364
asg58
I1979
sg45
V4350
p365
sbag1
(g2
g3
NtRp366
(dp367
g51
Nsg47
VJ BIOL CHEM
p368
sg49
V250
p369
sg79
(lp370
(VWADA
VG H
tp371
asg58
I1975
sg45
V6720
p372
sbag1
(g2
g3
NtRp373
(dp374
g51
V10.1093/nar/15.3.1328
p375
sg47
VNUCLEIC ACIDS RES
p376
sg49
V15
p377
sg79
(lp378
(VWAKSMAN
VG
tp379
asg58
I1987
sg45
V1328
p380
sbag1
(g2
g3
NtRp381
(dp382
g51
V10.1016/0378-1119(95)00250-A
p383
sg47
VGENE
p384
sg49
V161
p385
sg79
(lp386
(VWYCKOFF
VE E
tp387
asg58
I1995
sg45
V107
p388
sbasb.