ccopy_reg
_reconstructor
p1
(ctethne.classes.paper
Paper
p2
c__builtin__
object
p3
NtRp4
(dp5
S'publisherCity'
p6
VROCKVILLE
p7
sS'reprintAddress'
p8
VZhang, ZD (reprint author), China Agr Univ, Coll Biol Sci, State Key Lab Agrobiotechnol, Beijing 100193, Peoples R China.
p9
sS'WC'
p10
VPlant Sciences
p11
sS'GA'
p12
V634FQ
p13
sS'FX'
p14
(lp15
VThis work was supported by the National Natural Science Foundation
p16
aV(grant nos. 30830058 and J0730639) and the State Key Laboratory of
p17
aVAgrobiotechnology (grant no. 2010SKLAB05-11).
p18
asS'abstract'
p19
VIn a plant, the progression from vegetative growth to reproductive growth is called the floral transition. Over the past several decades, the floral transition has been shown to be determined not by a single gene but by a complicated gene network. This important biological process, however, has not been investigated at a genome-wide network level. We collected Arabidopsis (Arabidopsis thaliana) protein-protein interaction data from several public databases and compiled them into a genome-wide Arabidopsis interactome. Then, we integrated gene expression profiles during the Arabidopsis floral transition process into the established protein-protein interaction network to identify two types of anticorrelated modules associated with vegetative and reproductive growth. Generally, the vegetative modules are conserved in plants, while the reproductive modules are more specific to advanced plants. The existence of floral transition switches demonstrates that vegetative and reproductive processes might be coordinated by the interacting interface of these modules. Our work also provides many candidates for mediating the interactions between these modules, which may play important roles during the Arabidopsis vegetative/reproductive switch.
p20
sS'pageEnd'
p21
I1505
sS'date'
p22
I2010
sS'documentType'
p23
VArticle
p24
sS'subject'
p25
VPlant Sciences
p26
sS'isoSource'
p27
VPlant Physiol.
p28
sS'timesCited'
p29
(lp30
I5
aVZ9 7
p31
asS'funding'
p32
(lp33
(VNational Natural Science Foundation
V30830058, J0730639
tp34
a(VState Key Laboratory of Agrobiotechnology
V2010SKLAB05-11
tp35
asS'PT'
p36
VJ
sS'title'
p37
VDeciphering The Arabidopsis Floral Transition Process By Integrating A Protein-Protein Interaction Network And Gene Expression Data
p38
sS'ISSN'
p39
(lp40
V0032-0889
p41
aVJ9 PLANT PHYSIOL
p42
asS'authors_full'
p43
(lp44
(VHE
VFEI
tp45
a(VZHOU
VYUAN
tp46
a(VZHANG
VZIDING
tp47
asS'PG'
p48
I14
sS'PD'
p49
VAUG
p50
sS'pageStart'
p51
I1492
sS'issue'
p52
I4
sS'RI'
p53
VZhang, Ziding/E-9320-2011
p54
sS'journal'
p55
VPLANT PHYSIOLOGY
p56
sS'volume'
p57
V153
p58
sS'doi'
p59
V10.1104/pp.110.153650
p60
sS'emailAddress'
p61
Vzidingzhang@cau.edu.cn
p62
sS'authorAddress'
p63
(lp64
V[He, Fei; Zhang, Ziding] China Agr Univ, Coll Biol Sci, State Key Lab Agrobiotechnol, Beijing 100193, Peoples R China.
p65
aV[Zhou, Yuan] Capital Normal Univ, Coll Life Sci, Beijing 100048, Peoples R China.
p66
asS'publisherAddress'
p67
V15501 MONONA DRIVE, ROCKVILLE, MD 20855 USA
p68
sS'ER'
p69
V
sS'publisher'
p70
VAMER SOC PLANT BIOLOGISTS
p71
sS'authorKeywords'
p72
(lp73
VFLOWER MORPHOGENESIS
p74
aVREGULATORY NETWORKS
p75
aVCELL-CYCLE
p76
aVTRANSCRIPTION
p77
aVTHALIANA
p78
aVGIBBERELLIN
p79
aVINDUCTION
p80
aVIDENTIFICATION
p81
aVINFORMATION
p82
aVPREDICTION
p83
asS'language'
p84
VEnglish
p85
sS'wosid'
p86
VWOS:000280566000005
p87
sS'citationCount'
p88
I61
sS'authors_init'
p89
(lp90
(VHE
VF
tp91
a(VZHOU
VY A
tp92
a(VZHANG
VZ D
tp93
asS'citedReferences'
p94
(lp95
g1
(g2
g3
NtRp96
(dp97
g59
V10.1371/journal.pone.0003626
p98
sg55
VPLOS ONE
p99
sg57
V3
sg89
(lp100
(VALVAREZ-BUYLLA
VE R
tp101
asg22
I2008
sg51
VLOS
p102
sbag1
(g2
g3
NtRp103
(dp104
g59
VDOI 10.1371/journal.pbio.1000090
p105
sg55
VPLOS BIOL
p106
sg57
V7
sg89
(lp107
(VANGENENT
VG C
tp108
asg22
I2009
sg51
VLOS
p109
sbag1
(g2
g3
NtRp110
(dp111
g59
V10.1186/1471-2105-4-2
p112
sg55
VBMC BIOINFORMATICS
p113
sg57
V4
sg89
(lp114
(VBADER
VG D
tp115
asg22
I2003
sg51
Nsbag1
(g2
g3
NtRp116
(dp117
g59
V10.1016/j.cell.2006.05.005
p118
sg55
VCELL
p119
sg57
V125
p120
sg89
(lp121
(VBAURLE
VI
tp122
asg22
I2006
sg51
V655
p123
sbag1
(g2
g3
NtRp124
(dp125
g59
Nsg55
VPLANT CELL
p126
sg57
V5
sg89
(lp127
(VBERNIER
VG
tp128
asg22
I1993
sg51
VLANT
p129
sbag1
(g2
g3
NtRp130
(dp131
g59
V10.1111/j.1467-7652.2004.00114.x
p132
sg55
VPLANT BIOTECHNOL J
p133
sg57
V3
sg89
(lp134
(VBERNIER
VG
tp135
asg22
I2005
sg51
VLANT
p136
sbag1
(g2
g3
NtRp137
(dp138
g59
V10.1186/1471-2105-10-454
p139
sg55
VBMC BIOINFORMATICS
p140
sg57
V10
p141
sg89
(lp142
(VBRANDAO
VM M
tp143
asg22
I2009
sg51
Nsbag1
(g2
g3
NtRp144
(dp145
g59
V10.1093/nar/gkm1001
p146
sg55
VNUCLEIC ACIDS RES
p147
sg57
V36
p148
sg89
(lp149
(VBREITKREUTZ
VB J
tp150
asg22
I2008
sg51
VD637
p151
sbag1
(g2
g3
NtRp152
(dp153
g59
V10.1038/nature03985
p154
sg55
VNATURE
p155
sg57
V437
p156
sg89
(lp157
(VCALVANO
VS E
tp158
asg22
I2005
sg51
V1032
p159
sbag1
(g2
g3
NtRp160
(dp161
g59
V10.1105/tpc.108.062760
p162
sg55
VPLANT CELL
p163
sg57
V20
p164
sg89
(lp165
(VCAO
VY
tp166
asg22
I2008
sg51
VLANT
p167
sbag1
(g2
g3
NtRp168
(dp169
g59
V10.1242/dev.00992
p170
sg55
VDEVELOPMENT
p171
sg57
V131
p172
sg89
(lp173
(VCHENG
VH
tp174
asg22
I2004
sg51
V1055
p175
sbag1
(g2
g3
NtRp176
(dp177
g59
V10.1093/jxb/erl095
p178
sg55
VJ EXP BOT
p179
sg57
V57
p180
sg89
(lp181
(VCORBESIER
VL
tp182
asg22
I2006
sg51
V3395
p183
sbag1
(g2
g3
NtRp184
(dp185
g59
V10.1126/science.1141752
p186
sg55
VSCIENCE
p187
sg57
V316
p188
sg89
(lp189
(VCORBESIER
VL
tp190
asg22
I2007
sg51
V1030
p191
sbag1
(g2
g3
NtRp192
(dp193
g59
V10.1093/nar/gkm844
p194
sg55
VNUCLEIC ACIDS RES
p195
sg57
V36
p196
sg89
(lp197
(VCUI
VJ
tp198
asg22
I2008
sg51
VD999
p199
sbag1
(g2
g3
NtRp200
(dp201
g59
V10.1038/nature06520
p202
sg55
VNATURE
p203
sg57
V451
p204
sg89
(lp205
(VDE
VLUCAS M
tp206
asg22
I2008
sg51
V480
p207
sbag1
(g2
g3
NtRp208
(dp209
g59
V10.1101/gr.1073603
p210
sg55
VGENOME RES
p211
sg57
V13
p212
sg89
(lp213
(VDEZSO
VZ
tp214
asg22
I2003
sg51
V2450
p215
sbag1
(g2
g3
NtRp216
(dp217
g59
V10.1093/bioinformatics/btg209
p218
sg55
VBIOINFORMATICS
p219
sg57
V19
p220
sg89
(lp221
(VDHILLON
VI S
tp222
asg22
I2003
sg51
V1612
p223
sbag1
(g2
g3
NtRp224
(dp225
g59
V10.1073/pnas.95.25.14863
p226
sg55
VP NATL ACAD SCI USA
p227
sg57
V95
p228
sg89
(lp229
(VEISEN
VM B
tp230
asg22
I1998
sg51
V14863
p231
sbag1
(g2
g3
NtRp232
(dp233
g59
V10.1105/tpc.104.021725
p234
sg55
VPLANT CELL
p235
sg57
V16
p236
sg89
(lp237
(VESPINOSA-SOTO
VC
tp238
asg22
I2004
sg51
VLANT
p239
sbag1
(g2
g3
NtRp240
(dp241
g59
V10.1104/pp.107.103465
p242
sg55
VPLANT PHYSIOL
p243
sg57
V145
p244
sg89
(lp245
(VGEISLER-LEE
VJ
tp246
asg22
I2007
sg51
VLANT
p247
sbag1
(g2
g3
NtRp248
(dp249
g59
V10.1038/nature03876
p250
sg55
VNATURE
p251
sg57
V436
p252
sg89
(lp253
(VGUNSALUS
VK C
tp254
asg22
I2005
sg51
V861
p255
sbag1
(g2
g3
NtRp256
(dp257
g59
V10.1038/nature02555
p258
sg55
VNATURE
p259
sg57
V430
p260
sg89
(lp261
(VHAN
VJ D J
tp262
asg22
I2004
sg51
V88
p263
sbag1
(g2
g3
NtRp264
(dp265
g59
Nsg55
VNUCLEIC ACIDS RES
p266
sg57
V32
p267
sg89
(lp268
(VHARRIS
VM A
tp269
asg22
I2004
sg51
V258
p270
sbag1
(g2
g3
NtRp271
(dp272
g59
V10.1186/1471-2164-9-519
p273
sg55
VBMC GENOMICS
p274
sg57
V9
sg89
(lp275
(VHE
VF
tp276
asg22
I2008
sg51
Nsbag1
(g2
g3
NtRp277
(dp278
g59
V10.1371/journal.pgen.0020088
p279
sg55
VPLOS GENET
p280
sg57
V2
sg89
(lp281
(VHE
VX L
tp282
asg22
I2006
sg51
VLOS
p283
sbag1
(g2
g3
NtRp284
(dp285
g59
V10.1242/dev.01294
p286
sg55
VDEVELOPMENT
p287
sg57
V131
p288
sg89
(lp289
(VHENDERSON
VI R
tp290
asg22
I2004
sg51
V3829
p291
sbag1
(g2
g3
NtRp292
(dp293
g59
Nsg55
VNUCLEIC ACIDS RES
p294
sg57
V32
p295
sg89
(lp296
(VHERMJAKOB
VH
tp297
asg22
I2004
sg51
V452
p298
sbag1
(g2
g3
NtRp299
(dp300
g59
V10.1016/j.jtbi.2008.02.011
p301
sg55
VJ THEOR BIOL
p302
sg57
V252
p303
sg89
(lp304
(VHWANG
VS
tp305
asg22
I2008
sg51
V722
p306
sbag1
(g2
g3
NtRp307
(dp308
g59
V10.1186/gb-2009-10-2-r24
p309
sg55
VGENOME BIOL
p310
sg57
V10
p311
sg89
(lp312
(VIMMINK
VR G H
tp313
asg22
I2009
sg51
Nsbag1
(g2
g3
NtRp314
(dp315
g59
V10.1038/emboj.2008.68
p316
sg55
VEMBO J
p317
sg57
V27
p318
sg89
(lp319
(VJANG
VS
tp320
asg22
I2008
sg51
V1277
p321
sbag1
(g2
g3
NtRp322
(dp323
g59
V10.1038/35075138
p324
sg55
VNATURE
p325
sg57
V411
p326
sg89
(lp327
(VJEONG
VH
tp328
asg22
I2001
sg51
V41
p329
sbag1
(g2
g3
NtRp330
(dp331
g59
V10.1016/j.pbi.2009.10.002
p332
sg55
VCURR OPIN PLANT BIOL
p333
sg57
V13
p334
sg89
(lp335
(VJONSSON
VH
tp336
asg22
I2010
sg51
V5
sbag1
(g2
g3
NtRp337
(dp338
g59
V10.1093/jxb/erp139
p339
sg55
VJ EXP BOT
p340
sg57
V60
p341
sg89
(lp342
(VLAGERCRANTZ
VU
tp343
asg22
I2009
sg51
V2501
p344
sbag1
(g2
g3
NtRp345
(dp346
g59
V10.1104/pp.109.141317
p347
sg55
VPLANT PHYSIOL
p348
sg57
V151
p349
sg89
(lp350
(VLIN
VM Z
tp351
asg22
I2009
sg51
VLANT
p352
sbag1
(g2
g3
NtRp353
(dp354
g59
V10.1242/dev.033076
p355
sg55
VDEVELOPMENT
p356
sg57
V136
p357
sg89
(lp358
(VLIU
VC
tp359
asg22
I2009
sg51
V3379
p360
sbag1
(g2
g3
NtRp361
(dp362
g59
V10.1126/science.1163927
p363
sg55
VSCIENCE
p364
sg57
V322
p365
sg89
(lp366
(VLIU
VH T
tp367
asg22
I2008
sg51
V1535
p368
sbag1
(g2
g3
NtRp369
(dp370
g59
V10.1016/j.cub.2009.01.051
p371
sg55
VCURR BIOL
p372
sg57
V19
p373
sg89
(lp374
(VLUCYSHYN
VD
tp375
asg22
I2009
sg51
VR265
p376
sbag1
(g2
g3
NtRp377
(dp378
g59
V10.1093/bioinformatics/15.7.593
p379
sg55
VBIOINFORMATICS
p380
sg57
V15
p381
sg89
(lp382
(VMENDOZA
VL
tp383
asg22
I1999
sg51
V593
p384
sbag1
(g2
g3
NtRp385
(dp386
g59
V10.1006/jtbi.1998.0701
p387
sg55
VJ THEOR BIOL
p388
sg57
V193
p389
sg89
(lp390
(VMENDOZA
VL
tp391
asg22
I1998
sg51
V307
p392
sbag1
(g2
g3
NtRp393
(dp394
g59
V10.1073/pnas.0437826100
p395
sg55
VP NATL ACAD SCI USA
p396
sg57
V100
p397
sg89
(lp398
(VMOCKLER
VT
tp399
asg22
I2003
sg51
V2140
p400
sbag1
(g2
g3
NtRp401
(dp402
g59
V10.1093/jxb/erp040
p403
sg55
VJ EXP BOT
p404
sg57
V60
p405
sg89
(lp406
(VMUTASA-GOTTGENS
VE
tp407
asg22
I2009
sg51
V1979
p408
sbag1
(g2
g3
NtRp409
(dp410
g59
V10.1104/pp.109.145318
p411
sg55
VPLANT PHYSIOL
p412
sg57
V152
p413
sg89
(lp414
(VMUTWIL
VM
tp415
asg22
I2010
sg51
VLANT
p416
sbag1
(g2
g3
NtRp417
(dp418
g59
V10.1105/tpc.011544
p419
sg55
VPLANT CELL
p420
sg57
V15
p421
sg89
(lp422
(VPARENICOVA
VL
tp423
asg22
I2003
sg51
VLANT
p424
sbag1
(g2
g3
NtRp425
(dp426
g59
V10.1016/j.ppi.2004.09.013
p427
sg55
VCURR OPIN PLANT BIOL
p428
sg57
V7
sg89
(lp429
(VPERFUS-BARBEOCH
VL
tp430
asg22
I2004
sg51
V719
p431
sbag1
(g2
g3
NtRp432
(dp433
g59
V10.1093/bioinformatics/btg347
p434
sg55
VBIOINFORMATICS
p435
sg57
V19
p436
sg89
(lp437
(VQIAN
VJ
tp438
asg22
I2003
sg51
V1917
p439
sbag1
(g2
g3
NtRp440
(dp441
g59
V10.1242/dev.00842
p442
sg55
VDEVELOPMENT
p443
sg57
V130
p444
sg89
(lp445
(VSCHMID
VM
tp446
asg22
I2003
sg51
V6001
p447
sbag1
(g2
g3
NtRp448
(dp449
g59
V10.1016/j.copbio.2007.11.003
p450
sg55
VCURR OPIN BIOTECH
p451
sg57
V19
p452
sg89
(lp453
(VSHI
VL M
tp454
asg22
I2008
sg51
V10
p455
sbag1
(g2
g3
NtRp456
(dp457
g59
V10.1371/journal.pcbi.0030042
p458
sg55
VPLOS COMPUT BIOL
p459
sg57
V3
sg89
(lp460
(VSHOEMAKER
VB A
tp461
asg22
I2007
sg51
VLOS
p462
sbag1
(g2
g3
NtRp463
(dp464
g59
V10.1016/j.febslet.2009.11.011
p465
sg55
VFEBS LETT
p466
sg57
V583
p467
sg89
(lp468
(VSNYDER
VM
tp469
asg22
I2009
sg51
V3895
p470
sbag1
(g2
g3
NtRp471
(dp472
g59
V10.1073/pnas.1530509100
p473
sg55
VP NATL ACAD SCI USA
p474
sg57
V100
p475
sg89
(lp476
(VSTOREY
VJ D
tp477
asg22
I2003
sg51
V9440
p478
sbag1
(g2
g3
NtRp479
(dp480
g59
V10.1093/nar/gkm965
p481
sg55
VNUCLEIC ACIDS RES
p482
sg57
V36
p483
sg89
(lp484
(VSWARBRECK
VD
tp485
asg22
I2008
sg51
VD1009
p486
sbag1
(g2
g3
NtRp487
(dp488
g59
V10.1016/j.tplants.2007.11.005
p489
sg55
VTRENDS PLANT SCI
p490
sg57
V13
p491
sg89
(lp492
(VTO
VJ P C
tp493
asg22
I2008
sg51
V85
p494
sbag1
(g2
g3
NtRp495
(dp496
g59
V10.1126/science.1120499
p497
sg55
VSCIENCE
p498
sg57
V310
p499
sg89
(lp500
(VTU
VB P
tp501
asg22
I2005
sg51
V1152
p502
sbag1
(g2
g3
NtRp503
(dp504
g59
V10.1146/annurev.arplant.59.032607.092755
p505
sg55
VANNU REV PLANT BIOL
p506
sg57
V59
p507
sg89
(lp508
(VTURCK
VF
tp509
asg22
I2008
sg51
V573
p510
sbag1
(g2
g3
NtRp511
(dp512
g59
V10.1104/pp.105.069906
p513
sg55
VPLANT PHYSIOL
p514
sg57
V139
p515
sg89
(lp516
(VVERKEST
VA
tp517
asg22
I2005
sg51
VLANT
p518
sbag1
(g2
g3
NtRp519
(dp520
g59
V10.1101/gad.440307
p521
sg55
VGENE DEV
p522
sg57
V21
p523
sg89
(lp524
(VWELCH
VD
tp525
asg22
I2007
sg51
V2196
p526
sbag1
(g2
g3
NtRp527
(dp528
g59
V10.1126/science.1114358
p529
sg55
VSCIENCE
p530
sg57
V309
p531
sg89
(lp532
(VWIGGE
VP A
tp533
asg22
I2005
sg51
V1056
p534
sbag1
(g2
g3
NtRp535
(dp536
g59
Nsg55
VCURR PROTOC BIOINFOR
p537
sg57
Nsg89
(lp538
(VWILLIS
VR C
tp539
asg22
I2006
sg51
Nsbag1
(g2
g3
NtRp540
(dp541
g59
V10.1002/pmic.200900053
p542
sg55
VPROTEOMICS
p543
sg57
V9
sg89
(lp544
(VWU
VX M
tp545
asg22
I2009
sg51
VROTEOMICS
p546
sbag1
(g2
g3
NtRp547
(dp548
g59
V10.1371/journal.pcbi.0020145
p549
sg55
VPLOS COMPUT BIOL
p550
sg57
V2
sg89
(lp551
(VXIA
VK
tp552
asg22
I2006
sg51
VLOS
p553
sbag1
(g2
g3
NtRp554
(dp555
g59
V10.1038/msb4100189
p556
sg55
VMOL SYST BIOL
p557
sg57
V3
sg89
(lp558
(VXUE
VH L
tp559
asg22
I2007
sg51
Nsbasb.