ccopy_reg
_reconstructor
p1
(ctethne.classes.paper
Paper
p2
c__builtin__
object
p3
NtRp4
(dp5
S'publisherCity'
p6
VROCKVILLE
p7
sS'reprintAddress'
p8
VCheong, JJ (reprint author), Seoul Natl Univ, Dept Agr Biotechnol, Seoul 151921, South Korea.
p9
sS'WC'
p10
VPlant Sciences
p11
sS'GA'
p12
V258TP
p13
sS'abstract'
p14
VAtMYB44 belongs to the R2R3 MYB subgroup 22 transcription factor family in Arabidopsis (Arabidopsis thaliana). Treatment with abscisic acid (ABA) induced AtMYB44 transcript accumulation within 30 min. The gene was also activated under various abiotic stresses, such as dehydration, low temperature, and salinity. In transgenic Arabidopsis carrying an AtMYB44 promoter-driven beta-glucuronidase (GUS) construct, strong GUS activity was observed in the vasculature and leaf epidermal guard cells. Transgenic Arabidopsis overexpressing AtMYB44 is more sensitive to ABA and has a more rapid ABA-induced stomatal closure response than wild-type and atmyb44 knockout plants. Transgenic plants exhibited a reduced rate of water loss, as measured by the fresh-weight loss of detached shoots, and remarkably enhanced tolerance to drought and salt stress compared to wild-type plants. Microarray analysis and northern blots revealed that salt-induced activation of the genes that encode a group of serine/threonine protein phosphatases 2C (PP2Cs), such as ABI1, ABI2, AtPP2CA, HAB1, and HAB2, was diminished in transgenic plants overexpressing AtMYB44. By contrast, the atmyb44 knockout mutant line exhibited enhanced salt-induced expression of PP2C-encoding genes and reduced drought/salt stress tolerance compared to wild-type plants. Therefore, enhanced abiotic stress tolerance of transgenic Arabidopsis overexpressing AtMYB44 was conferred by reduced expression of genes encoding PP2Cs, which have been described as negative regulators of ABA signaling.
p15
sS'pageEnd'
p16
I635
sS'publisherAddress'
p17
V15501 MONONA DRIVE, ROCKVILLE, MD 20855 USA
p18
sS'documentType'
p19
VArticle
p20
sS'subject'
p21
VPlant Sciences
p22
sS'isoSource'
p23
VPlant Physiol.
p24
sS'timesCited'
p25
(lp26
I99
aVZ9 127
p27
asS'PT'
p28
VJ
sS'title'
p29
VOverexpression Of Atmyb44 Enhances Stomatal Closure To Confer Abiotic Stress Tolerance In Transgenic Arabidopsis
p30
sS'ISSN'
p31
(lp32
V0032-0889
p33
aVJ9 PLANT PHYSIOL
p34
asS'authors_full'
p35
(lp36
(VJUNG
VCHOONKYUN
tp37
a(VSEO
VJUN SUNG
tp38
a(VHAN
VSANG WON
tp39
a(VKOO
VYEON JONG
tp40
a(VKIM
VCHUNG HO
tp41
a(VSONG
VSANG IK
tp42
a(VNAHM
VBAEK HIE
tp43
a(VDO CHOI
VYANG
tp44
a(VCHEONG
VJONGJOO
tp45
asS'PG'
p46
I13
sS'PD'
p47
VFEB
p48
sS'pageStart'
p49
I623
sS'issue'
p50
I2
sS'journal'
p51
VPLANT PHYSIOLOGY
p52
sS'volume'
p53
V146
p54
sS'doi'
p55
V10.1104/pp.107.110981
p56
sS'emailAddress'
p57
Vcheongjj@snu.ac.kr
p58
sS'authorAddress'
p59
(lp60
V[Jung, Choonkyun; Seo, Jun Sung; Han, Sang Won; Koo, Yeon Jong; Do Choi, Yang; Cheong, Jong-Joo] Seoul Natl Univ, Dept Agr Biotechnol, Seoul 151921, South Korea.
p61
aV[Jung, Choonkyun; Seo, Jun Sung; Han, Sang Won; Koo, Yeon Jong; Do Choi, Yang; Cheong, Jong-Joo] Seoul Natl Univ, Ctr Agr Biomat, Seoul 151921, South Korea.
p62
aV[Kim, Chung Ho] Seowon Univ, Dept Food & Nutr, Chonju 361742, South Korea.
p63
aV[Song, Sang Ik; Nahm, Baek Hie] Myongji Univ, Div Biosci & Bioinformat, Yongin 449728, South Korea.
p64
asS'date'
p65
I2008
sS'ER'
p66
V
sS'publisher'
p67
VAMER SOC PLANT BIOLOGISTS
p68
sS'authorKeywords'
p69
(lp70
VPROTEIN PHOSPHATASE 2C
p71
aVMYB TRANSCRIPTION FACTORS
p72
aVACID SIGNAL-TRANSDUCTION
p73
aVR2R3-MYB GENE FAMILY
p74
aVABSCISIC-ACID
p75
aVCOLD-ACCLIMATION
p76
aVNEGATIVE REGULATOR
p77
aVPLANT DROUGHT
p78
aVTHALIANA
p79
aVEXPRESSION
p80
asS'language'
p81
VEnglish
p82
sS'wosid'
p83
VWOS:000252892700025
p84
sS'citationCount'
p85
I78
sS'authors_init'
p86
(lp87
(VJUNG
VC
tp88
a(VSEO
VJ S
tp89
a(VHAN
VS W
tp90
a(VKOO
VY J
tp91
a(VKIM
VC H
tp92
a(VSONG
VS I
tp93
a(VNAHM
VB H
tp94
a(VDO CHOI
VY
tp95
a(VCHEONG
VJ J
tp96
asS'citedReferences'
p97
(lp98
g1
(g2
g3
NtRp99
(dp100
g55
V10.1105/tpc.006130
p101
sg51
VPLANT CELL
p102
sg53
V15
p103
sg86
(lp104
(VABE
VH
tp105
asg65
I2003
sg49
VLANT
p106
sbag1
(g2
g3
NtRp107
(dp108
g55
V10.1126/science.1086391
p109
sg51
VSCIENCE
p110
sg53
V301
p111
sg86
(lp112
(VALONSO
VJ M
tp113
asg65
I2003
sg49
V653
p114
sbag1
(g2
g3
NtRp115
(dp116
g55
Nsg51
VMETH MOL B
p117
sg53
V82
p118
sg86
(lp119
(VCARPENTER
VC D
tp120
asg65
I1998
sg49
V85
p121
sbag1
(g2
g3
NtRp122
(dp123
g55
V10.1104/pp.002857
p124
sg51
VPLANT PHYSIOL
p125
sg53
V129
p126
sg86
(lp127
(VCHEONG
VY H
tp128
asg65
I2002
sg49
VLANT
p129
sbag1
(g2
g3
NtRp130
(dp131
g55
V10.1046/j.1365-313x.1998.00343.x
p132
sg51
VPLANT J
p133
sg53
V16
p134
sg86
(lp135
(VCLOUGH
VS J
tp136
asg65
I1998
sg49
VLANT
p137
sbag1
(g2
g3
NtRp138
(dp139
g55
V10.1016/j.cub.2005.05.048
p140
sg51
VCURR BIOL
p141
sg53
V15
p142
sg86
(lp143
(VCOMINELLI
VE
tp144
asg65
I2005
sg49
V1196
p145
sbag1
(g2
g3
NtRp146
(dp147
g55
Nsg51
VPLANT CELL
p148
sg53
V8
sg86
(lp149
(VDANIELS
VM J
tp150
asg65
I1996
sg49
VLANT
p151
sbag1
(g2
g3
NtRp152
(dp153
g55
V10.1104/pp.102.019273
p154
sg51
VPLANT PHYSIOL
p155
sg53
V132
p156
sg86
(lp157
(VDENEKAMP
VM
tp158
asg65
I2003
sg49
VLANT
p159
sbag1
(g2
g3
NtRp160
(dp161
g55
V10.1105/tpc.003483
p162
sg51
VPLANT CELL
p163
sg53
V14
p164
sg86
(lp165
(VFOWLER
VS
tp166
asg65
I2002
sg49
VLANT
p167
sbag1
(g2
g3
NtRp168
(dp169
g55
V10.1016/j.devcel.2004.06.017
p170
sg51
VDEV CELL
p171
sg53
V7
sg86
(lp172
(VGAZZARRINI
VS
tp173
asg65
I2004
sg49
V373
p174
sbag1
(g2
g3
NtRp175
(dp176
g55
V10.1104/pp.124.4.1854
p177
sg51
VPLANT PHYSIOL
p178
sg53
V124
p179
sg86
(lp180
(VGILMOUR
VS J
tp181
asg65
I2000
sg49
VLANT
p182
sbag1
(g2
g3
NtRp183
(dp184
g55
V10.1104/pp.104.042176
p185
sg51
VPLANT PHYSIOL
p186
sg53
V135
p187
sg86
(lp188
(VGONG
VW
tp189
asg65
I2004
sg49
VLANT
p190
sbag1
(g2
g3
NtRp191
(dp192
g55
V10.1105/tpc.11.10.1897
p193
sg51
VPLANT CELL
p194
sg53
V11
p195
sg86
(lp196
(VGOSTI
VF
tp197
asg65
I1999
sg49
VLANT
p198
sbag1
(g2
g3
NtRp199
(dp200
g55
V10.1073/pnas.250379897
p201
sg51
VP NATL ACAD SCI USA
p202
sg53
V97
p203
sg86
(lp204
(VGROTEWOLD
VE
tp205
asg65
I2000
sg49
V13579
p206
sbag1
(g2
g3
NtRp207
(dp208
g55
V10.1073/pnas.040577697
p209
sg51
VP NATL ACAD SCI USA
p210
sg53
V97
p211
sg86
(lp212
(VHALFTER
VU
tp213
asg65
I2000
sg49
V3735
p214
sbag1
(g2
g3
NtRp215
(dp216
g55
V10.1038/ncb1387
p217
sg51
VNAT CELL BIOL
p218
sg53
V8
sg86
(lp219
(VHASHIMOTO
VM
tp220
asg65
I2006
sg49
V391
p221
sbag1
(g2
g3
NtRp222
(dp223
g55
V10.1046/j.1469-8137.1999.00341.x
p224
sg51
VNEW PHYTOL
p225
sg53
V141
p226
sg86
(lp227
(VHERNANDEZ
VJ
tp228
asg65
I1999
sg49
V241
p229
sbag1
(g2
g3
NtRp230
(dp231
g55
V10.1242/jcs.00175
p232
sg51
VJ CELL SCI
p233
sg53
V115
p234
sg86
(lp235
(VHOTH
VS
tp236
asg65
I2002
sg49
V4891
p237
sbag1
(g2
g3
NtRp238
(dp239
g55
V10.1111/j.1365-313X.2007.03056.x
p240
sg51
VPLANT J
p241
sg53
V50
p242
sg86
(lp243
(VHUANG
VD Q
tp244
asg65
I2007
sg49
VLANT
p245
sbag1
(g2
g3
NtRp246
(dp247
g55
V10.1007/s11103-006-9109-8
p248
sg51
VPLANT MOL BIOL
p249
sg53
V63
p250
sg86
(lp251
(VHUANG
VM D
tp252
asg65
I2007
sg49
VLANT
p253
sbag1
(g2
g3
NtRp254
(dp255
g55
V10.1023/B:PLAN.0000040900.61345.a6
p256
sg51
VPLANT MOL BIOL
p257
sg53
V54
p258
sg86
(lp259
(VJANG
VJ Y
tp260
asg65
I2004
sg49
VLANT
p261
sbag1
(g2
g3
NtRp262
(dp263
g55
Nsg51
VEMBO J
p264
sg53
V6
sg86
(lp265
(VJEFFERSON
VR A
tp266
asg65
I1987
sg49
V3901
p267
sbag1
(g2
g3
NtRp268
(dp269
g55
V10.1023/A:1006319732410
p270
sg51
VPLANT MOL BIOL
p271
sg53
V41
p272
sg86
(lp273
(VJIN
VH L
tp274
asg65
I1999
sg49
VLANT
p275
sbag1
(g2
g3
NtRp276
(dp277
g55
V10.1007/s00299-007-0311-1
p278
sg51
VPLANT CELL REP
p279
sg53
V26
p280
sg86
(lp281
(VJUNG
VC
tp282
asg65
I2007
sg49
VLANT
p283
sbag1
(g2
g3
NtRp284
(dp285
g55
V10.1111/j.1365-3040.2005.01363.x
p286
sg51
VPLANT CELL ENVIRON
p287
sg53
V28
p288
sg86
(lp289
(VKAMEI
VA
tp290
asg65
I2005
sg49
VLANT
p291
sbag1
(g2
g3
NtRp292
(dp293
g55
V10.1105/tpc.010362
p294
sg51
VPLANT CELL
p295
sg53
V14
p296
sg86
(lp297
(VKANG
VJ Y
tp298
asg65
I2002
sg49
VLANT
p299
sbag1
(g2
g3
NtRp300
(dp301
g55
V10.1038/7036
p302
sg51
VNAT BIOTECHNOL
p303
sg53
V17
p304
sg86
(lp305
(VKASUGA
VM
tp306
asg65
I1999
sg49
V287
p307
sbag1
(g2
g3
NtRp308
(dp309
g55
V10.1023/A:1006011002499
p310
sg51
VPLANT MOL BIOL
p311
sg53
V37
p312
sg86
(lp313
(VKIRIK
VV
tp314
asg65
I1998
sg49
VLANT
p315
sbag1
(g2
g3
NtRp316
(dp317
g55
V10.1242/dev.01708
p318
sg51
VDEVELOPMENT
p319
sg53
V132
p320
sg86
(lp321
(VKIRIK
VV
tp322
asg65
I2005
sg49
V1477
p323
sbag1
(g2
g3
NtRp324
(dp325
g55
V10.1046/j.1365-313x.1998.00278.x
p326
sg51
VPLANT J
p327
sg53
V16
p328
sg86
(lp329
(VKRANZ
VH D
tp330
asg65
I1998
sg49
VLANT
p331
sbag1
(g2
g3
NtRp332
(dp333
g55
V10.1104/pp.105.070318
p334
sg51
VPLANT PHYSIOL
p335
sg53
V140
p336
sg86
(lp337
(VKUHN
VJ M
tp338
asg65
I2006
sg49
VLANT
p339
sbag1
(g2
g3
NtRp340
(dp341
g55
V10.1105/tpc.105.034116
p342
sg51
VPLANT CELL
p343
sg53
V17
p344
sg86
(lp345
(VLAI
VL B
tp346
asg65
I2005
sg49
VLANT
p347
sbag1
(g2
g3
NtRp348
(dp349
g55
V10.1111/j.1469-8137.2005.01591.x
p350
sg51
VNEW PHYTOL
p351
sg53
V169
p352
sg86
(lp353
(VLAMPORT
VD T A
tp354
asg65
I2006
sg49
V479
p355
sbag1
(g2
g3
NtRp356
(dp357
g55
Nsg51
VDEVELOPMENT
p358
sg53
V128
p359
sg86
(lp360
(VLEE
VM M
tp361
asg65
I2001
sg49
V1539
p362
sbag1
(g2
g3
NtRp363
(dp364
g55
V10.1105/tpc.019000
p365
sg51
VPLANT CELL
p366
sg53
V16
p367
sg86
(lp368
(VLEONHARDT
VN
tp369
asg65
I2004
sg49
VLANT
p370
sbag1
(g2
g3
NtRp371
(dp372
g55
V10.1105/tpc.9.5.759
p373
sg51
VPLANT CELL
p374
sg53
V9
sg86
(lp375
(VLEUNG
VJ
tp376
asg65
I1997
sg49
VLANT
p377
sbag1
(g2
g3
NtRp378
(dp379
g55
V10.1016/j.cub.2005.06.041
p380
sg51
VCURR BIOL
p381
sg53
V15
p382
sg86
(lp383
(VLIANG
VY K
tp384
asg65
I2005
sg49
V1201
p385
sbag1
(g2
g3
NtRp386
(dp387
g55
V10.1093/jxb/eri290
p388
sg51
VJ EXP BOT
p389
sg53
V56
p390
sg86
(lp391
(VLIN
VB L
tp392
asg65
I2005
sg49
V2935
p393
sbag1
(g2
g3
NtRp394
(dp395
g55
Nsg51
VONCOGENE
p396
sg53
V13
p397
sg86
(lp398
(VLIPSICK
VJ S
tp399
asg65
I1996
sg49
V223
p400
sbag1
(g2
g3
NtRp401
(dp402
g55
Nsg51
VALUMINUM T
p403
sg53
V2
sg86
(lp404
(VLIU
VY L
tp405
asg65
I2000
sg49
V97
p406
sbag1
(g2
g3
NtRp407
(dp408
g55
V10.1104/pp.104.054783
p409
sg51
VPLANT PHYSIOL
p410
sg53
V138
p411
sg86
(lp412
(VMA
VL G
tp413
asg65
I2005
sg49
VLANT
p414
sbag1
(g2
g3
NtRp415
(dp416
g55
V10.1111/j.1365-313X.2006.02756.x
p417
sg51
VPLANT J
p418
sg53
V46
p419
sg86
(lp420
(VMANDAOKAR
VA
tp421
asg65
I2006
sg49
VLANT
p422
sbag1
(g2
g3
NtRp423
(dp424
g55
V10.1016/S0168-9525(96)10049-4
p425
sg51
VTRENDS GENET
p426
sg53
V13
p427
sg86
(lp428
(VMARTIN
VC
tp429
asg65
I1997
sg49
V67
p430
sbag1
(g2
g3
NtRp431
(dp432
g55
V10.1105/tpc.11.10.1827
p433
sg51
VPLANT CELL
p434
sg53
V11
p435
sg86
(lp436
(VMEISSNER
VR C
tp437
asg65
I1999
sg49
VLANT
p438
sbag1
(g2
g3
NtRp439
(dp440
g55
V10.1046/j.1365-313x.2001.00965.x
p441
sg51
VPLANT J
p442
sg53
V25
p443
sg86
(lp444
(VMERLOT
VS
tp445
asg65
I2001
sg49
VLANT
p446
sbag1
(g2
g3
NtRp447
(dp448
g55
V10.1007/s00425-004-1206-9
p449
sg51
VPLANTA
p450
sg53
V219
p451
sg86
(lp452
(VMONKE
VG
tp453
asg65
I2004
sg49
VLANTA
p454
sbag1
(g2
g3
NtRp455
(dp456
g55
V10.1006/dbio.2000.9632
p457
sg51
VDEV BIOL
p458
sg53
V220
p459
sg86
(lp460
(VNAMBARA
VE
tp461
asg65
I2000
sg49
V412
p462
sbag1
(g2
g3
NtRp463
(dp464
g55
V10.1007/s11103-004-0685-1
p465
sg51
VPLANT MOL BIOL
p466
sg53
V55
p467
sg86
(lp468
(VNARUSAKA
VY
tp469
asg65
I2004
sg49
VLANT
p470
sbag1
(g2
g3
NtRp471
(dp472
g55
Nsg51
VANNU REV PLANT BIOL
p473
sg53
V57
p474
sg86
(lp475
(VNOTT
VA
tp476
asg65
I2006
sg49
V730
p477
sbag1
(g2
g3
NtRp478
(dp479
g55
V10.1073/pnas.2034853100
p480
sg51
VP NATL ACAD SCI USA
p481
sg53
V100
p482
sg86
(lp483
(VOHTA
VM
tp484
asg65
I2003
sg49
V11771
p485
sbag1
(g2
g3
NtRp486
(dp487
g55
V10.1038/nature03381
p488
sg51
VNATURE
p489
sg53
V434
p490
sg86
(lp491
(VPEITER
VE
tp492
asg65
I2005
sg49
V404
p493
sbag1
(g2
g3
NtRp494
(dp495
g55
V10.1105/tpc.105.034041
p496
sg51
VPLANT CELL
p497
sg53
V18
p498
sg86
(lp499
(VQUATTROCCHIO
VF
tp500
asg65
I2006
sg49
VLANT
p501
sbag1
(g2
g3
NtRp502
(dp503
g55
Nsg51
VP NATL ACAD SCI USA
p504
sg53
V99
p505
sg86
(lp506
(VQUI
VQ S
tp507
asg65
I2002
sg49
V8436
p508
sbag1
(g2
g3
NtRp509
(dp510
g55
V10.1073/pnas.132092099
p511
sg51
VP NATL ACAD SCI USA
p512
sg53
V99
p513
sg86
(lp514
(VQUINTERO
VF J
tp515
asg65
I2002
sg49
V9061
p516
sbag1
(g2
g3
NtRp517
(dp518
g55
V10.1126/science.290.5499.2105
p519
sg51
VSCIENCE
p520
sg53
V290
p521
sg86
(lp522
(VRIECHMANN
VJ L
tp523
asg65
I2000
sg49
V2105
p524
sbag1
(g2
g3
NtRp525
(dp526
g55
V10.1111/j.1469-8137.2005.01460.x
p527
sg51
VNEW PHYTOL
p528
sg53
V167
p529
sg86
(lp530
(VROELFSEMA
VM R G
tp531
asg65
I2005
sg49
V665
p532
sbag1
(g2
g3
NtRp533
(dp534
g55
Nsg51
VPLANT J
p535
sg53
V14
p536
sg86
(lp537
(VROMERO
VI
tp538
asg65
I1998
sg49
VLANT
p539
sbag1
(g2
g3
NtRp540
(dp541
g55
V10.1007/PL00006285
p542
sg51
VJ MOL EVOL
p543
sg53
V46
p544
sg86
(lp545
(VROSINSKI
VJ A
tp546
asg65
I1998
sg49
V74
p547
sbag1
(g2
g3
NtRp548
(dp549
g55
V10.1111/j.1365-313X.2004.01966.x
p550
sg51
VPLANT J
p551
sg53
V37
p552
sg86
(lp553
(VSAEZ
VA
tp554
asg65
I2004
sg49
VLANT
p555
sbag1
(g2
g3
NtRp556
(dp557
g55
V10.1104/pp.106.081018
p558
sg51
VPLANT PHYSIOL
p559
sg53
V141
p560
sg86
(lp561
(VSAEZ
VA
tp562
asg65
I2006
sg49
VLANT
p563
sbag1
(g2
g3
NtRp564
(dp565
g55
V10.1105/tpc.105.035881
p566
sg51
VPLANT CELL
p567
sg53
V18
p568
sg86
(lp569
(VSAKUMA
VY
tp570
asg65
I2006
sg49
VLANT
p571
sbag1
(g2
g3
NtRp572
(dp573
g55
V10.1146/annurev.arplant.49.1.127
p574
sg51
VANNU REV PLANT PHYS
p575
sg53
V49
p576
sg86
(lp577
(VSCHWECHHEIMER
VC
tp578
asg65
I1998
sg49
V127
p579
sbag1
(g2
g3
NtRp580
(dp581
g55
V10.1016/j.tplants.2004.03.007
p582
sg51
VTRENDS PLANT SCI
p583
sg53
V9
sg86
(lp584
(VSCHWEIGHOFER
VA
tp585
asg65
I2004
sg49
V236
p586
sbag1
(g2
g3
NtRp587
(dp588
g55
V10.1038/nature05176
p589
sg51
VNATURE
p590
sg53
V443
p591
sg86
(lp592
(VSHEN
VY Y
tp593
asg65
I2006
sg49
V823
p594
sbag1
(g2
g3
NtRp595
(dp596
g55
V10.1073/pnas.120170197
p597
sg51
VP NATL ACAD SCI USA
p598
sg53
V97
p599
sg86
(lp600
(VSHI
VH Z
tp601
asg65
I2000
sg49
V6896
p602
sbag1
(g2
g3
NtRp603
(dp604
g55
V10.1016/S1369-5266(02)00289-3
p605
sg51
VCURR OPIN PLANT BIOL
p606
sg53
V5
sg86
(lp607
(VSINGH
VK B
tp608
asg65
I2002
sg49
V430
p609
sbag1
(g2
g3
NtRp610
(dp611
g55
V10.1016/S1369-5266(00)00199-0
p612
sg51
VCURR OPIN PLANT BIOL
p613
sg53
V4
sg86
(lp614
(VSTRACKE
VR
tp615
asg65
I2001
sg49
V447
p616
sbag1
(g2
g3
NtRp617
(dp618
g55
V10.1104/pp.103.022475
p619
sg51
VPLANT PHYSIOL
p620
sg53
V132
p621
sg86
(lp622
(VSUZUKI
VM
tp623
asg65
I2003
sg49
VLANT
p624
sbag1
(g2
g3
NtRp625
(dp626
g55
V10.1046/j.1365-313X.2001.2641048.x
p627
sg51
VPLANT J
p628
sg53
V26
p629
sg86
(lp630
(VTAHTIHARJU
VS
tp631
asg65
I2001
sg49
VLANT
p632
sbag1
(g2
g3
NtRp633
(dp634
g55
Nsg51
VNATURE
p635
sg53
V408
p636
sg86
(lp637
(VKAUL
VS
tp638
asg65
I2000
sg49
V796
p639
sbag1
(g2
g3
NtRp640
(dp641
g55
V10.1105/tpc.105.039925
p642
sg51
VPLANT CELL
p643
sg53
V18
p644
sg86
(lp645
(VTO
VA
tp646
asg65
I2006
sg49
VLANT
p647
sbag1
(g2
g3
NtRp648
(dp649
g55
V10.1105/tpc.5.11.1529
p650
sg51
VPLANT CELL
p651
sg53
V5
sg86
(lp652
(VURAO
VT
tp653
asg65
I1993
sg49
VLANT
p654
sbag1
(g2
g3
NtRp655
(dp656
g55
V10.1046/j.1365-313X.2003.01874.x
p657
sg51
VPLANT J
p658
sg53
V36
p659
sg86
(lp660
(VVAN
VHENGEL A J
tp661
asg65
I2003
sg49
VLANT
p662
sbag1
(g2
g3
NtRp663
(dp664
g55
V10.1016/j.cub.2006.03.028
p665
sg51
VCURR BIOL
p666
sg53
V16
p667
sg86
(lp668
(VXIE
VX D
tp669
asg65
I2006
sg49
V882
p670
sbag1
(g2
g3
NtRp671
(dp672
g55
V10.1007/s11103-005-2910-y
p673
sg51
VPlant Mol Biol
p674
sg53
V60
p675
sg86
(lp676
(VYANHUI
VCHEN
tp677
asg65
I2006
sg49
Vlant
p678
sbag1
(g2
g3
NtRp679
(dp680
g55
V10.1104/pp.105.070128
p681
sg51
VPLANT PHYSIOL
p682
sg53
V140
p683
sg86
(lp684
(VYOSHIDA
VT
tp685
asg65
I2006
sg49
VLANT
p686
sbag1
(g2
g3
NtRp687
(dp688
g55
V10.1073/pnas.0503960102
p689
sg51
VP NATL ACAD SCI USA
p690
sg53
V102
p691
sg86
(lp692
(VZHU
VJ H
tp693
asg65
I2005
sg49
V9966
p694
sbag1
(g2
g3
NtRp695
(dp696
g55
V10.1111/j.1365-313X.2004.02183.x
p697
sg51
VPLANT J
p698
sg53
V40
p699
sg86
(lp700
(VZIMMERMANN
VI M
tp701
asg65
I2004
sg49
VLANT
p702
sbasb.