ccopy_reg
_reconstructor
p1
(ctethne.classes.paper
Paper
p2
c__builtin__
object
p3
NtRp4
(dp5
S'publisherCity'
p6
VROCKVILLE
p7
sS'reprintAddress'
p8
VFreeling, M (reprint author), Univ Calif Berkeley, Dept Plant & Microbial Biol, Berkeley, CA 94720 USA.
p9
sS'WC'
p10
VPlant Sciences
p11
sS'GA'
p12
V423MJ
p13
sS'pageEnd'
p14
I1197
sS'publisherAddress'
p15
V15501 MONONA DRIVE, ROCKVILLE, MD 20855 USA
p16
sS'documentType'
p17
VArticle
p18
sS'subject'
p19
VPlant Sciences
p20
sS'isoSource'
p21
VPlant Physiol.
p22
sS'timesCited'
p23
(lp24
I48
aVZ9 58
p25
asS'PT'
p26
VJ
sS'title'
p27
VGrasses As A Single Genetic System. Reassessment 2001
p28
sS'ISSN'
p29
(lp30
V0032-0889
p31
aVJ9 PLANT PHYSIOL
p32
asS'authors_full'
p33
(lp34
(VFREELING
VM
tp35
asS'PG'
p36
I7
sS'PD'
p37
VMAR
p38
sS'pageStart'
p39
I1191
sS'issue'
p40
I3
sS'journal'
p41
VPLANT PHYSIOLOGY
p42
sS'volume'
p43
V125
p44
sS'doi'
p45
V10.1104/pp.125.3.1191
p46
sS'emailAddress'
p47
Vfreeling@nature.berkeley.edu
p48
sS'authorAddress'
p49
VUniv Calif Berkeley, Dept Plant & Microbial Biol, Berkeley, CA 94720 USA.
p50
sS'date'
p51
I2001
sS'ER'
p52
V
sS'publisher'
p53
VAMER SOC PLANT BIOLOGISTS
p54
sS'authorKeywords'
p55
(lp56
VFOXTAIL MILLET
p57
aVCEREAL CROPS
p58
aVGENOME
p59
aVRICE
p60
aVDUPLICATION
p61
aVARABIDOPSIS
p62
aVCOLINEARITY
p63
aVSEQUENCE
p64
aVREVEALS
p65
aVSYNTENY
p66
asS'language'
p67
VEnglish
p68
sS'wosid'
p69
VWOS:000168179800009
p70
sS'citationCount'
p71
I28
sS'authors_init'
p72
(lp73
(VFREELING
VM
tp74
asS'citedReferences'
p75
(lp76
g1
(g2
g3
NtRp77
(dp78
g45
V10.1073/pnas.90.17.7980
p79
sg41
VP NATL ACAD SCI USA
p80
sg43
V90
p81
sg72
(lp82
(VAHN
VS
tp83
asg51
I1993
sg39
V7980
p84
sbag1
(g2
g3
NtRp85
(dp86
g45
Nsg41
VGENOME RES
p87
sg43
V7
sg72
(lp88
(VBENNETZEN
VJ L
tp89
asg51
I1997
sg39
V301
p90
sbag1
(g2
g3
NtRp91
(dp92
g45
V10.1105/tpc.12.7.1021
p93
sg41
VPLANT CELL
p94
sg43
V12
p95
sg72
(lp96
(VBENNETZEN
VJ L
tp97
asg51
I2000
sg39
VLANT
p98
sbag1
(g2
g3
NtRp99
(dp100
g45
V10.1016/0168-9525(93)90001-X
p101
sg41
VTRENDS GENET
p102
sg43
V9
sg72
(lp103
(VBENNETZEN
VJ L
tp104
asg51
I1993
sg39
V259
p105
sbag1
(g2
g3
NtRp106
(dp107
g45
V10.1105/tpc.7.1.75
p108
sg41
VPLANT CELL
p109
sg43
V7
sg72
(lp110
(VBENSEN
VR J
tp111
asg51
I1995
sg39
VLANT
p112
sbag1
(g2
g3
NtRp113
(dp114
g45
V10.1105/tpc.12.7.1093
p115
sg41
VPLANT CELL
p116
sg43
V12
p117
sg72
(lp118
(VBLANC
VG
tp119
asg51
I2000
sg39
VLANT
p120
sbag1
(g2
g3
NtRp121
(dp122
g45
Nsg41
VKEW B ADDITIONAL SER
p123
sg43
VXIII
p124
sg72
(lp125
(VCLAYTON
VW D
tp126
asg51
I1986
sg39
Nsbag1
(g2
g3
NtRp127
(dp128
g45
V10.1007/s001220050709
p129
sg41
VTHEOR APPL GENET
p130
sg43
V96
p131
sg72
(lp132
(VDEVOS
VK M
tp133
asg51
I1998
sg39
V63
p134
sbag1
(g2
g3
NtRp135
(dp136
g45
V10.1007/s001220050026
p137
sg41
VTHEOR APPL GENET
p138
sg43
V100
p139
sg72
(lp140
(VDEVOS
VK M
tp141
asg51
I2000
sg39
V190
p142
sbag1
(g2
g3
NtRp143
(dp144
g45
V10.1105/tpc.12.5.637
p145
sg41
VPLANT CELL
p146
sg43
V12
p147
sg72
(lp148
(VDEVOS
VK M
tp149
asg51
I2000
sg39
VLANT
p150
sbag1
(g2
g3
NtRp151
(dp152
g45
V10.1101/gr.9.9.825
p153
sg41
VGENOME RES
p154
sg43
V9
sg72
(lp155
(VDEVOS
VK M
tp156
asg51
I1999
sg39
V825
p157
sbag1
(g2
g3
NtRp158
(dp159
g45
Nsg41
VGRASSES
p160
sg43
Nsg72
(lp161
(VFITTER
VR
tp162
asg51
I1984
sg39
Nsbag1
(g2
g3
NtRp163
(dp164
g45
V10.1073/pnas.95.5.1971
p165
sg41
VP NATL ACAD SCI USA
p166
sg43
V95
p167
sg72
(lp168
(VGALE
VM D
tp169
asg51
I1998
sg39
V1971
p170
sbag1
(g2
g3
NtRp171
(dp172
g45
Nsg41
VP NATL ACAD SCI USA
p173
sg43
V88
p174
sg72
(lp175
(VGAUT
VB S
tp176
asg51
I1997
sg39
V2060
p177
sbag1
(g2
g3
NtRp178
(dp179
g45
Nsg41
VAMER SCI
p180
sg43
V40
p181
sg72
(lp182
(VGOLDSCHMIDT
VRICHARD B
tp183
asg51
I1952
sg39
V84
p184
sbag1
(g2
g3
NtRp185
(dp186
g45
V10.1007/s001220051127
p187
sg41
VTHEOR APPL GENET
p188
sg43
V98
p189
sg72
(lp190
(VIVANDIC
VV
tp191
asg51
I1999
sg39
V728
p192
sbag1
(g2
g3
NtRp193
(dp194
g45
V10.1073/pnas.95.5.2005
p195
sg41
VP NATL ACAD SCI USA
p196
sg43
V95
p197
sg72
(lp198
(VKELLOGG
VE A
tp199
asg51
I1998
sg39
V2005
p200
sbag1
(g2
g3
NtRp201
(dp202
g45
V10.1073/pnas.160271297
p203
sg41
VP NATL ACAD SCI USA
p204
sg43
V97
p205
sg72
(lp206
(VKU
VH M
tp207
asg51
I2000
sg39
V9121
p208
sbag1
(g2
g3
NtRp209
(dp210
g45
Nsg41
VGENETICS
p211
sg43
V155
p212
sg72
(lp213
(VLAN
VT H
tp214
asg51
I2000
sg39
V1927
p215
sbag1
(g2
g3
NtRp216
(dp217
g45
Nsg41
VGENE MANIPULATION PL
p218
sg43
Nsg72
(lp219
(VLAURIE
VD A
tp220
asg51
I1990
sg39
V95
p221
sbag1
(g2
g3
NtRp222
(dp223
g45
V10.1016/S0960-9822(95)00148-5
p224
sg41
VCURR BIOL
p225
sg43
V5
sg72
(lp226
(VMOORE
VG
tp227
asg51
I1995
sg39
V737
p228
sbag1
(g2
g3
NtRp229
(dp230
g45
V10.1126/science.269.5231.1714
p231
sg41
VSCIENCE
p232
sg43
V269
p233
sg72
(lp234
(VPATERSON
VA H
tp235
asg51
I1995
sg39
V1714
p236
sbag1
(g2
g3
NtRp237
(dp238
g45
V10.1038/22307
p239
sg41
VNATURE
p240
sg43
V400
p241
sg72
(lp242
(VPENG
VJ R
tp243
asg51
I1999
sg39
V256
p244
sbag1
(g2
g3
NtRp245
(dp246
g45
Nsg41
VGENETICS
p247
sg43
V156
p248
sg72
(lp249
(VRIERA-LIZARAZU
VO
tp250
asg51
I2000
sg39
V327
p251
sbag1
(g2
g3
NtRp252
(dp253
g45
V10.1126/science.274.5288.765
p254
sg41
VSCIENCE
p255
sg43
V274
p256
sg72
(lp257
(VSANMIGUEL
VP
tp258
asg51
I1996
sg39
V765
p259
sbag1
(g2
g3
NtRp260
(dp261
g45
V10.1105/tpc.11.9.1651
p262
sg41
VPLANT CELL
p263
sg43
V11
p264
sg72
(lp265
(VSENTOKU
VN
tp266
asg51
I1999
sg39
VLANT
p267
sbag1
(g2
g3
NtRp268
(dp269
g45
V10.1105/tpc.12.3.381
p270
sg41
VPLANT CELL
p271
sg43
V12
p272
sg72
(lp273
(VTARCHINI
VR
tp274
asg51
I2000
sg39
VLANT
p275
sbag1
(g2
g3
NtRp276
(dp277
g45
V10.1038/42711
p278
sg41
VNATURE
p279
sg43
V387
p280
sg72
(lp281
(VWOLFE
VK H
tp282
asg51
I1997
sg39
V708
p283
sbasb.