ccopy_reg
_reconstructor
p1
(ctethne.classes.paper
Paper
p2
c__builtin__
object
p3
NtRp4
(dp5
S'publisherCity'
p6
VROCKVILLE
p7
sS'reprintAddress'
p8
VStacey, G (reprint author), Univ Missouri, Natl Ctr Soybean Biotechnol, Div Plant Sci, Columbia, MO 65211 USA.
p9
sS'WC'
p10
VPlant Sciences
p11
sS'GA'
p12
V658TM
p13
sS'FX'
p14
(lp15
VThis work was supported by the National Research Initiative of the U.S.
p16
aVDepartment of Agriculture Cooperative State Research, Education, and
p17
aVExtension Service (grant no. 2005-35319-16192 to G.S.), by the National
p18
aVScience Foundation (grant no. MCB 0641288 to S.G.), and by the National
p19
aVAeronautics and Space Administration (award to S.G.).
p20
asS'abstract'
p21
VExtracellular ATP induces a rise in the level of cytosolic free calcium ([Ca2+](cyt)) in plant cells. To expand our knowledge about the function of extracellular nucleotides in plants, the effects of several nucleotide analogs and pharmacological agents on [Ca2+](cyt) changes were studied using transgenic Arabidopsis (Arabidopsis thaliana) expressing aequorin or the fluorescence resonance energy transfer-based Ca2+ sensor Yellow Cameleon 3.6. Exogenously applied CTP caused elevations in [Ca2+](cyt) that displayed distinct time-and dose-dependent kinetics compared with the purine nucleotides ATP and GTP. The inhibitory effects of antagonists of mammalian P2 receptors and calcium influx inhibitors on nucleotide-induced [Ca2+](cyt) elevations were distinct between CTP and purine nucleotides. These results suggest that distinct recognition systems may exist for the respective types of nucleotides. Interestingly, a mutant lacking the heterotrimeric G protein G beta-subunit exhibited a remarkably higher [Ca2+](cyt) elevation in response to all tested nucleotides in comparison with the wild type. These data suggest a role for G beta in negatively regulating extracellular nucleotide signaling and point to an important role for heterotrimeric G proteins in modulating the cellular effects of extracellular nucleotides. The addition of extracellular nucleotides induced multiple temporal [Ca2+](cyt) oscillations, which could be localized to specific root cells. The oscillations were attenuated by a vesicle-trafficking inhibitor, indicating that the oscillations likely require ATP release via exocytotic secretion. The results reveal new molecular details concerning extracellular nucleotide signaling in plants and the importance of fine control of extracellular nucleotide levels to mediate specific plant cell responses.
p22
sS'pageEnd'
p23
I719
sS'date'
p24
I2010
sS'documentType'
p25
VArticle
p26
sS'subject'
p27
VPlant Sciences
p28
sS'isoSource'
p29
VPlant Physiol.
p30
sS'timesCited'
p31
(lp32
I19
aVZ9 20
p33
asS'funding'
p34
(lp35
(VNational Research Initiative of the U.S. Department of Agriculture Cooperative State Research, Education, and Extension Service
V2005-35319-16192
tp36
a(VNational Science Foundation
VMCB 0641288
tp37
a(VNational Aeronautics and Space Administration
Ntp38
asS'PT'
p39
VJ
sS'title'
p40
VExtracellular Nucleotides Elicit Cytosolic Free Calcium Oscillations In Arabidopsis
p41
sS'ISSN'
p42
(lp43
V0032-0889
p44
aVJ9 PLANT PHYSIOL
p45
asS'authors_full'
p46
(lp47
(VTANAKA
VKIWAMU
tp48
a(VSWANSON
VSARAH J
tp49
a(VGILROY
VSIMON
tp50
a(VSTACEY
VGARY
tp51
asS'PG'
p52
I15
sS'PD'
p53
VOCT
p54
sS'pageStart'
p55
I705
sS'issue'
p56
I2
sS'RI'
p57
VTanaka, Kiwamu/E-9942-2013
p58
sS'journal'
p59
VPLANT PHYSIOLOGY
p60
sS'volume'
p61
V154
p62
sS'doi'
p63
V10.1104/pp.110.162503
p64
sS'emailAddress'
p65
Vstaceyg@missouri.edu
p66
sS'authorAddress'
p67
(lp68
V[Tanaka, Kiwamu; Stacey, Gary] Univ Missouri, Natl Ctr Soybean Biotechnol, Div Plant Sci, Columbia, MO 65211 USA.
p69
aV[Stacey, Gary] Univ Missouri, Div Biochem, Columbia, MO 65211 USA.
p70
aV[Swanson, Sarah J.; Gilroy, Simon] Univ Wisconsin, Dept Bot, Madison, WI 53706 USA.
p71
asS'publisherAddress'
p72
V15501 MONONA DRIVE, ROCKVILLE, MD 20855 USA
p73
sS'ER'
p74
V
sS'publisher'
p75
VAMER SOC PLANT BIOLOGISTS
p76
sS'authorKeywords'
p77
(lp78
VHETEROTRIMERIC G-PROTEIN
p79
aVCULTURED CARDIAC MYOCYTES
p80
aVOPERATED CA2+ ENTRY
p81
aVATP RELEASE
p82
aVFLUORESCENT INDICATORS
p83
aVINTRACELLULAR CA2+
p84
aVSIGNALING ROLE
p85
aVSMOOTH-MUSCLE
p86
aVBETA-SUBUNIT
p87
aVROOT HAIRS
p88
asS'OI'
p89
VTanaka, Kiwamu/0000-0001-5045-560X
p90
sS'language'
p91
VEnglish
p92
sS'wosid'
p93
VWOS:000282512300046
p94
sS'citationCount'
p95
I73
sS'authors_init'
p96
(lp97
(VTANAKA
VK
tp98
a(VSWANSON
VS J
tp99
a(VGILROY
VS
tp100
a(VSTACEY
VG
tp101
asS'citedReferences'
p102
(lp103
g1
(g2
g3
NtRp104
(dp105
g63
V10.1046/j.1365-313x.1999.00574.x
p106
sg59
VPLANT J
p107
sg61
V19
p108
sg96
(lp109
(VALLEN
VG J
tp110
asg24
I1999
sg55
VLANT
p111
sbag1
(g2
g3
NtRp112
(dp113
g63
V10.1046/j.1471-4159.2003.02204.x
p114
sg59
VJ NEUROCHEM
p115
sg61
V88
p116
sg96
(lp117
(VANDERSON
VC M
tp118
asg24
I2004
sg55
V246
p119
sbag1
(g2
g3
NtRp120
(dp121
g63
V10.1038/nrm1155
p122
sg59
VNAT REV MOL CELL BIO
p123
sg61
V4
sg96
(lp124
(VBERRIDGE
VM J
tp125
asg24
I2003
sg55
V517
p126
sbag1
(g2
g3
NtRp127
(dp128
g63
V10.1104/pp.116.1.213
p129
sg59
VPLANT PHYSIOL
p130
sg61
V116
p131
sg96
(lp132
(VBLANCAFLOR
VE B
tp133
asg24
I1998
sg55
VLANT
p134
sbag1
(g2
g3
NtRp135
(dp136
g63
V10.1007/s00018-007-6497-0
p137
sg59
VCELL MOL LIFE SCI
p138
sg61
V64
p139
sg96
(lp140
(VBURNSTOCK
VG
tp141
asg24
I2007
sg55
V1471
p142
sbag1
(g2
g3
NtRp143
(dp144
g63
V10.1111/j.1365-313X.2009.03968.x
p145
sg59
VPLANT J
p146
sg61
V60
p147
sg96
(lp148
(VCHIVASA
VS
tp149
asg24
I2009
sg55
VLANT
p150
sbag1
(g2
g3
NtRp151
(dp152
g63
V10.1105/tpc.105.036806
p153
sg59
VPLANT CELL
p154
sg61
V17
p155
sg96
(lp156
(VCHIVASA
VS
tp157
asg24
I2005
sg55
VLANT
p158
sbag1
(g2
g3
NtRp159
(dp160
g63
V10.1016/j.cell.2007.11.028
p161
sg59
VCELL
p162
sg61
V131
p163
sg96
(lp164
(VCLAPHAM
VD E
tp165
asg24
I2007
sg55
V1047
p166
sbag1
(g2
g3
NtRp167
(dp168
g63
V10.1073/pnas.95.26.15735
p169
sg59
VP NATL ACAD SCI USA
p170
sg61
V95
p171
sg96
(lp172
(VCOTRINA
VM L
tp173
asg24
I1998
sg55
V15735
p174
sbag1
(g2
g3
NtRp175
(dp176
g63
V10.1016/j.bbrc.2009.02.006
p177
sg59
VBIOCHEM BIOPH RES CO
p178
sg61
V381
p179
sg96
(lp180
(VCZYZ
VA
tp181
asg24
I2009
sg55
V176
p182
sbag1
(g2
g3
NtRp183
(dp184
g63
V10.1104/pp.103.024091
p185
sg59
VPLANT PHYSIOL
p186
sg61
V133
p187
sg96
(lp188
(VDEMIDCHIK
VV
tp189
asg24
I2003
sg55
VLANT
p190
sbag1
(g2
g3
NtRp191
(dp192
g63
V10.1111/j.1365-313X.2009.03830.x
p193
sg59
VPLANT J
p194
sg61
V58
p195
sg96
(lp196
(VDEMIDCHIK
VV
tp197
asg24
I2009
sg55
VLANT
p198
sbag1
(g2
g3
NtRp199
(dp200
g63
V10.1111/j.1365-313X.2006.02933.x
p201
sg59
VPLANT J
p202
sg61
V48
p203
sg96
(lp204
(VDODD
VA N
tp205
asg24
I2006
sg55
VLANT
p206
sbag1
(g2
g3
NtRp207
(dp208
g63
V10.1073/pnas.96.10.5856
p209
sg59
VP NATL ACAD SCI USA
p210
sg61
V96
p211
sg96
(lp212
(VETZLER
VM E
tp213
asg24
I1999
sg55
V5856
p214
sbag1
(g2
g3
NtRp215
(dp216
g63
V10.1016/S1369-5266(00)00194-1
p217
sg59
VCURR OPIN PLANT BIOL
p218
sg61
V4
sg96
(lp219
(VEVANS
VN H
tp220
asg24
I2001
sg55
V415
p221
sbag1
(g2
g3
NtRp222
(dp223
g63
V10.1038/nrn1928
p224
sg59
VNAT REV NEUROSCI
p225
sg61
V7
sg96
(lp226
(VFIELDS
VR D
tp227
asg24
I2006
sg55
V423
p228
sbag1
(g2
g3
NtRp229
(dp230
g63
V10.1104/pp.107.106518
p231
sg59
VPLANT PHYSIOL
p232
sg61
V145
p233
sg96
(lp234
(VFORESI
VN P
tp235
asg24
I2007
sg55
VLANT
p236
sbag1
(g2
g3
NtRp237
(dp238
g63
V10.1091/mbc.E02-10-0698
p239
sg59
VMOL BIOL CELL
p240
sg61
V14
p241
sg96
(lp242
(VGEISLER
VM
tp243
asg24
I2003
sg55
V4238
p244
sbag1
(g2
g3
NtRp245
(dp246
g63
Nsg59
VACTA BIOCHIM POL
p247
sg61
V50
p248
sg96
(lp249
(VGENDASZEWSKA-DARMACH
VE
tp250
asg24
I2003
sg55
V973
p251
sbag1
(g2
g3
NtRp252
(dp253
g63
V10.1007/s00424-007-0366-4
p254
sg59
VPFLUG ARCH EUR J PHY
p255
sg61
V455
p256
sg96
(lp257
(VGEYTI
VC S
tp258
asg24
I2008
sg55
VFLUG
p259
sbag1
(g2
g3
NtRp260
(dp261
g63
V10.1385/MN:31:1-3:065
p262
sg59
VMOL NEUROBIOL
p263
sg61
V31
p264
sg96
(lp265
(VGONZALEZ
VF A
tp266
asg24
I2005
sg55
V65
p267
sbag1
(g2
g3
NtRp268
(dp269
g63
V10.1104/pp.108.128728
p270
sg59
VPLANT PHYSIOL
p271
sg61
V149
p272
sg96
(lp273
(VGOVINDARAJULU
VM
tp274
asg24
I2009
sg55
VLANT
p275
sbag1
(g2
g3
NtRp276
(dp277
g63
V10.1073/pnas.0400733101
p278
sg59
VP NATL ACAD SCI USA
p279
sg61
V101
p280
sg96
(lp281
(VHANLEY
VP J
tp282
asg24
I2004
sg55
V9479
p283
sbag1
(g2
g3
NtRp284
(dp285
g63
V10.1146/annurev.biochem.67.1.49
p286
sg59
VANNU REV BIOCHEM
p287
sg61
V67
p288
sg96
(lp289
(VHIRSCHBERG
VC B
tp290
asg24
I1998
sg55
V49
p291
sbag1
(g2
g3
NtRp292
(dp293
g63
Nsg59
VJ BIOL CHEM
p294
sg61
V264
p295
sg96
(lp296
(VHORIO
VM
tp297
asg24
I1989
sg55
V14880
p298
sbag1
(g2
g3
NtRp299
(dp300
g63
V10.1152/ajpcell.00364.2001
p301
sg59
VAM J PHYSIOL
p302
sg61
V282
p303
sg96
(lp304
(VITO
VK
tp305
asg24
I2002
sg55
VC1121
p306
sbag1
(g2
g3
NtRp307
(dp308
g63
V10.1104/pp.51.1.17
p309
sg59
VPLANT PHYSIOL
p310
sg61
V51
p311
sg96
(lp312
(VJAFFE
VM J
tp313
asg24
I1973
sg55
VLANT
p314
sbag1
(g2
g3
NtRp315
(dp316
g63
V10.1105/tpc.104.023945
p317
sg59
VPLANT CELL
p318
sg61
V16
p319
sg96
(lp320
(VJETER
VC R
tp321
asg24
I2004
sg55
VLANT
p322
sbag1
(g2
g3
NtRp323
(dp324
g63
V10.1104/pp.102.017624
p325
sg59
VPLANT PHYSIOL
p326
sg61
V131
p327
sg96
(lp328
(VJONES
VA M
tp329
asg24
I2003
sg55
VLANT
p330
sbag1
(g2
g3
NtRp331
(dp332
g63
V10.1080/07420520701800843
p333
sg59
VCHRONOBIOL INT
p334
sg61
V24
p335
sg96
(lp336
(VKAWAHARA
VK
tp337
asg24
I2007
sg55
V1035
p338
sbag1
(g2
g3
NtRp339
(dp340
g63
V10.1038/scientificamerican1209-84
p341
sg59
VSCI AM
p342
sg61
V301
p343
sg96
(lp344
(VKHAKH
VB S
tp345
asg24
I2009
sg55
V84
p346
sbag1
(g2
g3
NtRp347
(dp348
g63
V10.1104/pp.106.085670
p349
sg59
VPLANT PHYSIOL
p350
sg61
V142
p351
sg96
(lp352
(VKIM
VS Y
tp353
asg24
I2006
sg55
VLANT
p354
sbag1
(g2
g3
NtRp355
(dp356
g63
Nsg59
VPLANT CELL
p357
sg61
V8
sg96
(lp358
(VKNIGHT
VH
tp359
asg24
I1996
sg55
VLANT
p360
sbag1
(g2
g3
NtRp361
(dp362
g63
V10.1124/mol.64.4.785
p363
sg59
VMOL PHARMACOL
p364
sg61
V64
p365
sg96
(lp366
(VLAZAROWSKI
VE R
tp367
asg24
I2003
sg55
V785
p368
sbag1
(g2
g3
NtRp369
(dp370
g63
V10.1105/tpc.13.12.2631
p371
sg59
VPLANT CELL
p372
sg61
V13
p373
sg96
(lp374
(VLEASE
VK A
tp375
asg24
I2001
sg55
VLANT
p376
sbag1
(g2
g3
NtRp377
(dp378
g63
V10.1007/s11302-004-4746-3
p379
sg59
VPurinergic Signal
p380
sg61
V1
sg96
(lp381
(VLECHNER
VSTEFAN G
tp382
asg24
I2004
sg55
Vurinergic
p383
sbag1
(g2
g3
NtRp384
(dp385
g63
V10.1016/S0168-9452(99)00242-3
p386
sg59
VPLANT SCI
p387
sg61
V153
p388
sg96
(lp389
(VLEW
VR R
tp390
asg24
I2000
sg55
VLANT
p391
sbag1
(g2
g3
NtRp392
(dp393
g63
Nsg59
VAustralian Journal of Plant Physiology
p394
sg61
V1
sg96
(lp395
(VLUTTGE
VU
tp396
asg24
I1974
sg55
V211
p397
sbag1
(g2
g3
NtRp398
(dp399
g63
Nsg59
VMOL BIOL CELL
p400
sg61
V3
sg96
(lp401
(VMAHONEY
VM G
tp402
asg24
I1992
sg55
V493
p403
sbag1
(g2
g3
NtRp404
(dp405
g63
V10.1021/bi700338m
p406
sg59
VBIOCHEMISTRY
p407
sg61
V46
p408
sg96
(lp409
(VMARRARI
VY
tp410
asg24
I2007
sg55
V7665
p411
sbag1
(g2
g3
NtRp412
(dp413
g63
V10.1038/sj.bjp.0701329
p414
sg59
VBRIT J PHARMACOL
p415
sg61
V121
p416
sg96
(lp417
(VMATSUO
VK
tp418
asg24
I1997
sg55
V1744
p419
sbag1
(g2
g3
NtRp420
(dp421
g63
V10.1111/j.1469-8137.2008.02682.x
p422
sg59
VNEW PHYTOL
p423
sg61
V181
p424
sg96
(lp425
(VMCAINSH
VM R
tp426
asg24
I2009
sg55
V275
p427
sbag1
(g2
g3
NtRp428
(dp429
g63
V10.1104/pp.104.055939
p430
sg59
VPLANT PHYSIOL
p431
sg61
V137
p432
sg96
(lp433
(VMCALVIN
VC B
tp434
asg24
I2005
sg55
VLANT
p435
sbag1
(g2
g3
NtRp436
(dp437
g63
Nsg59
VNATURE
p438
sg61
V388
p439
sg96
(lp440
(VMIYAWAKI
VA
tp441
asg24
I1997
sg55
V882
p442
sbag1
(g2
g3
NtRp443
(dp444
g63
V10.1104/pp.108.123638
p445
sg59
VPLANT PHYSIOL
p446
sg61
V147
p447
sg96
(lp448
(VMONSHAUSEN
VG B
tp449
asg24
I2008
sg55
VLANT
p450
sbag1
(g2
g3
NtRp451
(dp452
g63
V10.1104/pp.010519
p453
sg59
VPLANT PHYSIOL
p454
sg61
V128
p455
sg96
(lp456
(VMURPHY
VA S
tp457
asg24
I2002
sg55
VLANT
p458
sbag1
(g2
g3
NtRp459
(dp460
g63
V10.1073/pnas.0400417101
p461
sg59
VP NATL ACAD SCI USA
p462
sg61
V101
p463
sg96
(lp464
(VNAGAI
VT
tp465
asg24
I2004
sg55
V10554
p466
sbag1
(g2
g3
NtRp467
(dp468
g63
V10.1016/j.biosystems.2006.08.002
p469
sg59
VBIOSYSTEMS
p470
sg61
V90
p471
sg96
(lp472
(VNAKAYAMA
VY
tp473
asg24
I2007
sg55
V179
p474
sbag1
(g2
g3
NtRp475
(dp476
g63
V10.1146/annurev.arplant.59.032607.092839
p477
sg59
VANNU REV PLANT BIOL
p478
sg61
V59
p479
sg96
(lp480
(VOLDROYD
VG E D
tp481
asg24
I2008
sg55
V519
p482
sbag1
(g2
g3
NtRp483
(dp484
g63
V10.1074/jbc.275.16.11735
p485
sg59
VJ BIOL CHEM
p486
sg61
V275
p487
sg96
(lp488
(VOSTROM
VR S
tp489
asg24
I2000
sg55
V11735
p490
sbag1
(g2
g3
NtRp491
(dp492
g63
V10.1111/j.1365-313X.2008.03506.x
p493
sg59
VPLANT J
p494
sg61
V55
p495
sg96
(lp496
(VPANDEY
VS
tp497
asg24
I2008
sg55
VLANT
p498
sbag1
(g2
g3
NtRp499
(dp500
g63
V10.1016/0006-2952(96)00086-X
p501
sg59
VBIOCHEM PHARMACOL
p502
sg61
V51
p503
sg96
(lp504
(VPICHER
VM
tp505
asg24
I1996
sg55
V1453
p506
sbag1
(g2
g3
NtRp507
(dp508
g63
Nsg59
VPHARMACOL REV
p509
sg61
V50
p510
sg96
(lp511
(VRALEVIC
VV
tp512
asg24
I1998
sg55
VHARMACOL
p513
sbag1
(g2
g3
NtRp514
(dp515
g63
V10.1046/j.1469-8137.2001.00173.x
p516
sg59
VNEW PHYTOL
p517
sg61
V151
p518
sg96
(lp519
(VRUDD
VJ J
tp520
asg24
I2001
sg55
V7
sbag1
(g2
g3
NtRp521
(dp522
g63
V10.1111/j.1460-9568.2005.04135.x
p523
sg59
VEUR J NEUROSCI
p524
sg61
V21
p525
sg96
(lp526
(VSHEN
VJ
tp527
asg24
I2005
sg55
V2912
p528
sbag1
(g2
g3
NtRp529
(dp530
g63
V10.1104/pp.105.073072
p531
sg59
VPLANT PHYSIOL
p532
sg61
V140
p533
sg96
(lp534
(VSONG
VC J
tp535
asg24
I2006
sg55
VLANT
p536
sbag1
(g2
g3
NtRp537
(dp538
g63
V10.1104/pp.102.014308
p539
sg59
VPLANT PHYSIOL
p540
sg61
V131
p541
sg96
(lp542
(VSTEINEBRUNNER
VI
tp543
asg24
I2003
sg55
VLANT
p544
sbag1
(g2
g3
NtRp545
(dp546
g63
V10.1104/pp.51.3.485
p547
sg59
VPLANT PHYSIOL
p548
sg61
V51
p549
sg96
(lp550
(VSTUART
VD M
tp551
asg24
I1973
sg55
VLANT
p552
sbag1
(g2
g3
NtRp553
(dp554
g63
V10.1104/pp.013672
p555
sg59
VPLANT PHYSIOL
p556
sg61
V131
p557
sg96
(lp558
(VTANG
VW Q
tp559
asg24
I2003
sg55
VLANT
p560
sbag1
(g2
g3
NtRp561
(dp562
g63
V10.1016/j.tibs.2006.09.007
p563
sg59
VTRENDS BIOCHEM SCI
p564
sg61
V31
p565
sg96
(lp566
(VTAYLOR
VC W
tp567
asg24
I2006
sg55
V597
p568
sbag1
(g2
g3
NtRp569
(dp570
g63
V10.1105/tpc.12.4.519
p571
sg59
VPLANT CELL
p572
sg61
V12
p573
sg96
(lp574
(VTHOMAS
VC
tp575
asg24
I2000
sg55
VLANT
p576
sbag1
(g2
g3
NtRp577
(dp578
g63
V10.1091/mbc.E07-06-0547
p579
sg59
VMOL BIOL CELL
p580
sg61
V19
p581
sg96
(lp582
(VUCCELLETTI
VD
tp583
asg24
I2008
sg55
V1337
p584
sbag1
(g2
g3
NtRp585
(dp586
g63
Nsg59
VZ PFLANZENPHYSIOL
p587
sg61
V69
p588
sg96
(lp589
(VUDVARDY
VJ
tp590
asg24
I1973
sg55
V394
p591
sbag1
(g2
g3
NtRp592
(dp593
g63
V10.1105/tpc.006148
p594
sg59
VPLANT CELL
p595
sg61
V15
p596
sg96
(lp597
(VULLAH
VH
tp598
asg24
I2003
sg55
VLANT
p599
sbag1
(g2
g3
NtRp600
(dp601
g63
V10.1016/S1011-1344(00)00107-X
p602
sg59
VJ PHOTOCH PHOTOBIO B
p603
sg61
V58
p604
sg96
(lp605
(VVISEGRADY
VA
tp606
asg24
I2000
sg55
V80
p607
sbag1
(g2
g3
NtRp608
(dp609
g63
V10.1073/pnas.0611735104
p610
sg59
VP NATL ACAD SCI USA
p611
sg61
V104
p612
sg96
(lp613
(VWANG
VS Y
tp614
asg24
I2007
sg55
V3817
p615
sbag1
(g2
g3
NtRp616
(dp617
g63
V10.1016/j.febslet.2009.07.007
p618
sg59
VFEBS LETT
p619
sg61
V583
p620
sg96
(lp621
(VWEERASINGHE
VR R
tp622
asg24
I2009
sg55
V2521
p623
sbag1
(g2
g3
NtRp624
(dp625
g63
V10.1038/nbt809
p626
sg59
VNAT BIOTECHNOL
p627
sg61
V21
p628
sg96
(lp629
(VWINDSOR
VB
tp630
asg24
I2003
sg55
V428
p631
sbag1
(g2
g3
NtRp632
(dp633
g63
V10.1007/s11103-007-9184-5
p634
sg59
VPLANT MOL BIOL
p635
sg61
V64
p636
sg96
(lp637
(VWOLF
VC
tp638
asg24
I2007
sg55
VLANT
p639
sbag1
(g2
g3
NtRp640
(dp641
g63
V10.1104/pp.107.097568
p642
sg59
VPLANT PHYSIOL
p643
sg61
V144
p644
sg96
(lp645
(VWU
VJ
tp646
asg24
I2007
sg55
VLANT
p647
sbag1
(g2
g3
NtRp648
(dp649
g63
V10.1093/jxb/ern242
p650
sg59
VJ EXP BOT
p651
sg61
V59
p652
sg96
(lp653
(VWU
VS J
tp654
asg24
I2008
sg55
V4007
p655
sbag1
(g2
g3
NtRp656
(dp657
g63
V10.1093/pcp/pcn033
p658
sg59
VPLANT CELL PHYSIOL
p659
sg61
V49
p660
sg96
(lp661
(VWU
VS J
tp662
asg24
I2008
sg55
VLANT
p663
sbag1
(g2
g3
NtRp664
(dp665
g63
Nsg59
VCIRC RES
p666
sg61
V74
p667
sg96
(lp668
(VYANG
VS M
tp669
asg24
I1994
sg55
V401
p670
sbasb.