ccopy_reg
_reconstructor
p1
(ctethne.classes.paper
Paper
p2
c__builtin__
object
p3
NtRp4
(dp5
S'publisherCity'
p6
VROCKVILLE
p7
sS'reprintAddress'
p8
VSmant, G (reprint author), Wageningen Univ, Nematol Lab, NL-6700 ES Wageningen, Netherlands.
p9
sS'WC'
p10
VPlant Sciences
p11
sS'GA'
p12
V016MV
p13
sS'FX'
p14
(lp15
VThis work was supported by the European Commission's Framework 6 project
p16
aVBIOEXPLOIT (CT-FOOD-2005-513959), the Dutch Technology Foundation (STW)
p17
aVProject 4797, and within the research program of the Centre of
p18
aVBioSystems Genomics, which is part of the Netherlands Genomics
p19
aVInitiative/Netherlands Organization for Scientific Research.
p20
asS'abstract'
p21
VThe potato cyst nematode Globodera rostochiensis invades roots of host plants where it transforms cells near the vascular cylinder into a permanent feeding site. The host cell modifications are most likely induced by a complex mixture of proteins in the stylet secretions of the nematodes. Resistance to nematodes conferred by nucleotide-binding-leucine-rich repeat (NB-LRR) proteins usually results in a programmed cell death in and around the feeding site, and is most likely triggered by the recognition of effectors in stylet secretions. However, the actual role of these secretions in the activation and suppression of effector-triggered immunity is largely unknown. Here we demonstrate that the effector SPRYSEC-19 of G. rostochiensis physically associates in planta with the LRR domain of a member of the SW5 resistance gene cluster in tomato (Lycopersicon esculentum). Unexpectedly, this interaction did not trigger defense-related programmed cell death and resistance to G. rostochiensis. By contrast, agroinfiltration assays showed that the coexpression of SPRYSEC-19 in leaves of Nicotiana benthamiana suppresses programmed cell death mediated by several coiled-coil (CC)-NB-LRR immune receptors. Furthermore, SPRYSEC-19 abrogated resistance to Potato virus X mediated by the CC-NB-LRR resistance protein Rx1, and resistance to Verticillium dahliae mediated by an unidentified resistance in potato (Solanum tuberosum). The suppression of cell death and disease resistance did not require a physical association of SPRYSEC-19 and the LRR domains of the CC-NB-LRR resistance proteins. Altogether, our data demonstrated that potato cyst nematodes secrete effectors that enable the suppression of programmed cell death and disease resistance mediated by several CC-NB-LRR proteins in plants.
p22
sS'pageEnd'
p23
I954
sS'date'
p24
I2012
sS'documentType'
p25
VArticle
p26
sS'subject'
p27
VPlant Sciences
p28
sS'isoSource'
p29
VPlant Physiol.
p30
sS'timesCited'
p31
(lp32
I4
aVZ9 4
p33
asS'funding'
p34
(lp35
(VEuropean Commission
VCT-FOOD-2005-513959
tp36
a(VDutch Technology Foundation (STW)
V4797
tp37
asS'PT'
p38
VJ
sS'title'
p39
VThe Effector Sprysec-19 Of Globodera Rostochiensis Suppresses Cc-Nb-Lrr-Mediated Disease Resistance In Plants
p40
sS'ISSN'
p41
(lp42
V0032-0889
p43
aVJ9 PLANT PHYSIOL
p44
asS'authors_full'
p45
(lp46
(VPOSTMA
VWIEBE J
tp47
a(VSLOOTWEG
VERIK J
tp48
a(VREHMAN
VSAJID
tp49
a(VFINKERSTOMCZAK
VANNA
tp50
a(VTYTGAT
VTOM O G
tp51
a(VVAN GELDEREN
VKASPER
tp52
a(VLOZANOTORRES
VJOSE L
tp53
a(VROOSIEN
VJAN
tp54
a(VPOMP
VRIKUS
tp55
a(VVAN SCHAIK
VCASPER
tp56
a(VBAKKER
VJAAP
tp57
a(VGOVERSE
VASKA
tp58
a(VSMANT
VGEERT
tp59
asS'PG'
p60
I11
sS'PD'
p61
VOCT
p62
sS'pageStart'
p63
I944
sS'issue'
p64
I2
sS'journal'
p65
VPLANT PHYSIOLOGY
p66
sS'volume'
p67
V160
p68
sS'doi'
p69
V10.1104/pp.112.200188
p70
sS'emailAddress'
p71
Vgeert.smant@wur.nl
p72
sS'authorAddress'
p73
(lp74
V[Postma, Wiebe J.; Slootweg, Erik J.; Rehman, Sajid; Finkers-Tomczak, Anna; Tytgat, Tom O. G.; van Gelderen, Kasper; Lozano-Torres, Jose L.; Roosien, Jan; Pomp, Rikus; van Schaik, Casper; Bakker, Jaap; Goverse, Aska; Smant, Geert] Wageningen Univ, Nematol Lab, NL-6700 ES Wageningen, Netherlands.
p75
aV[Postma, Wiebe J.; Pomp, Rikus; Bakker, Jaap; Goverse, Aska; Smant, Geert] Ctr BioSyst Genom, NL-6708 PB Wageningen, Netherlands.
p76
asS'publisherAddress'
p77
V15501 MONONA DRIVE, ROCKVILLE, MD 20855 USA
p78
sS'ER'
p79
V
sS'publisher'
p80
VAMER SOC PLANT BIOLOGISTS
p81
sS'authorKeywords'
p82
(lp83
VLATE BLIGHT RESISTANCE
p84
aVPOTATO CYST-NEMATODE
p85
aVSOLANUM-BULBOCASTANUM
p86
aVPARASITIC NEMATODES
p87
aVNUCLEOTIDE-BINDING
p88
aVEXPRESSION LEVELS
p89
aVVIRUS-RESISTANCE
p90
aVARC DOMAIN
p91
aVCELL-DEATH
p92
aVPROTEIN
p93
asS'language'
p94
VEnglish
p95
sS'wosid'
p96
VWOS:000309523800029
p97
sS'citationCount'
p98
I64
sS'authors_init'
p99
(lp100
(VPOSTMA
VW J
tp101
a(VSLOOTWEG
VE J
tp102
a(VREHMAN
VS
tp103
a(VFINKERSTOMCZAK
VA
tp104
a(VTYTGAT
VT O G
tp105
a(VVAN GELDEREN
VK
tp106
a(VLOZANOTORRES
VJ L
tp107
a(VROOSIEN
VJ
tp108
a(VPOMP
VR
tp109
a(VVAN SCHAIK
VC
tp110
a(VBAKKER
VJ
tp111
a(VGOVERSE
VA
tp112
a(VSMANT
VG
tp113
asS'citedReferences'
p114
(lp115
g1
(g2
g3
NtRp116
(dp117
g69
V10.1094/MPMI.2001.14.5.629
p118
sg65
VMOL PLANT MICROBE IN
p119
sg67
V14
p120
sg99
(lp121
(VBALLVORA
VA
tp122
asg24
I2001
sg63
V629
p123
sbag1
(g2
g3
NtRp124
(dp125
g69
V10.1046/j.1365-313X.2002.01413.x
p126
sg65
VPLANT J
p127
sg67
V32
p128
sg99
(lp129
(VBENDAHMANE
VA
tp130
asg24
I2002
sg63
VLANT
p131
sbag1
(g2
g3
NtRp132
(dp133
g69
Nsg65
VPLANT CELL
p134
sg67
V11
p135
sg99
(lp136
(VBENDAHMANE
VA
tp137
asg24
I1999
sg63
VLANT
p138
sbag1
(g2
g3
NtRp139
(dp140
g69
Nsg65
VPLANT J
p141
sg67
V8
sg99
(lp142
(VBENDAHMANE
VA
tp143
asg24
I1995
sg63
VLANT
p144
sbag1
(g2
g3
NtRp145
(dp146
g69
V10.1007/BF00023478
p147
sg65
VEUPHYTICA
p148
sg67
V71
p149
sg99
(lp150
(VBOITEUX
VL S
tp151
asg24
I1993
sg63
V151
p152
sbag1
(g2
g3
NtRp153
(dp154
g69
Nsg65
VPLOS ONE
p155
sg67
V5
sg99
(lp156
(VBULGARELLI
VD
tp157
asg24
I2010
sg63
VLOS
p158
sbag1
(g2
g3
NtRp159
(dp160
g69
V10.1371/journal.ppat.1002595
p161
sg65
VPLOS PATHOG
p162
sg67
V8
sg99
(lp163
(VCHEN
VY
tp164
asg24
I2012
sg63
VLOS
p165
sbag1
(g2
g3
NtRp166
(dp167
g69
V10.1016/j.chom.2011.01.009
p168
sg65
VCELL HOST MICROBE
p169
sg67
V9
sg99
(lp170
(VCHUNG
VE H
tp171
asg24
I2011
sg63
V125
p172
sbag1
(g2
g3
NtRp173
(dp174
g69
V10.1038/cdd.2011.37
p175
sg65
VCELL DEATH DIFFER
p176
sg67
V18
p177
sg99
(lp178
(VCOLL
VN S
tp179
asg24
I2011
sg63
V1247
p180
sbag1
(g2
g3
NtRp181
(dp182
g69
V10.1016/j.tplants.2009.08.001
p183
sg65
VTRENDS PLANT SCI
p184
sg67
V14
p185
sg99
(lp186
(VCOLLIER
VS M
tp187
asg24
I2009
sg63
V521
p188
sbag1
(g2
g3
NtRp189
(dp190
g69
V10.1016/j.pbi.2008.04.003
p191
sg65
VCURR OPIN PLANT BIOL
p192
sg67
V11
p193
sg99
(lp194
(VDAVIS
VE L
tp195
asg24
I2008
sg63
V360
p196
sbag1
(g2
g3
NtRp197
(dp198
g69
Nsg65
VPARASITOLOGY
p199
sg67
V105
p200
sg99
(lp201
(VDEBOER
VJ M
tp202
asg24
I1992
sg63
VARASITOLOGY
p203
sbag1
(g2
g3
NtRp204
(dp205
g69
V10.1073/pnas.1230660100
p206
sg65
VP NATL ACAD SCI USA
p207
sg67
V100
p208
sg99
(lp209
(VDESLANDES
VL
tp210
asg24
I2003
sg63
V8024
p211
sbag1
(g2
g3
NtRp212
(dp213
g69
V10.1016/j.pbi.2010.04.007
p214
sg65
VCURR OPIN PLANT BIOL
p215
sg67
V13
p216
sg99
(lp217
(VEITAS
VT K
tp218
asg24
I2010
sg63
V472
p219
sbag1
(g2
g3
NtRp220
(dp221
g69
V10.1146/annurev.phyto.45.062806.094331
p222
sg65
VANNU REV PHYTOPATHOL
p223
sg67
V45
p224
sg99
(lp225
(VELLIS
VJ G
tp226
asg24
I2007
sg63
V289
p227
sbag1
(g2
g3
NtRp228
(dp229
g69
V10.1073/pnas.0605777103
p230
sg65
VP NATL ACAD SCI USA
p231
sg67
V103
p232
sg99
(lp233
(VFARNHAM
VG
tp234
asg24
I2006
sg63
V18828
p235
sbag1
(g2
g3
NtRp236
(dp237
g69
V10.1007/s00122-010-1472-9
p238
sg65
VTHEOR APPL GENET
p239
sg67
V122
p240
sg99
(lp241
(VFINKERS-TOMCZAK
VA
tp242
asg24
I2011
sg63
V595
p243
sbag1
(g2
g3
NtRp244
(dp245
g69
Nsg65
VTHESIS WAGENINGEN U
p246
sg67
Nsg99
(lp247
(VFINKERS-TOMCZAK
VA M
tp248
asg24
I2011
sg63
Nsbag1
(g2
g3
NtRp249
(dp250
g69
V10.1104/pp.111.180067
p251
sg65
VPLANT PHYSIOL
p252
sg67
V156
p253
sg99
(lp254
(VFRADIN
VE F
tp255
asg24
I2011
sg63
VLANT
p256
sbag1
(g2
g3
NtRp257
(dp258
g69
V10.1111/j.1365-313X.2007.03027.x
p259
sg65
VPLANT J
p260
sg67
V50
p261
sg99
(lp262
(VGABRIELS
VSHEJ
tp263
asg24
I2007
sg63
VLANT
p264
sbag1
(g2
g3
NtRp265
(dp266
g69
V10.1111/j.1365-294X.1993.tb00005.x
p267
sg65
VMOL ECOL
p268
sg67
V2
sg99
(lp269
(VGARDES
VM
tp270
asg24
I1993
sg63
V113
p271
sbag1
(g2
g3
NtRp272
(dp273
g69
V10.1016/j.gene.2011.10.040
p274
sg65
VGENE
p275
sg67
V492
p276
sg99
(lp277
(VHAEGEMAN
VA
tp278
asg24
I2012
sg63
V19
p279
sbag1
(g2
g3
NtRp280
(dp281
g69
V10.1073/pnas.0705306104
p282
sg65
VP NATL ACAD SCI USA
p283
sg67
V104
p284
sg99
(lp285
(VHEESE
VA
tp286
asg24
I2007
sg63
V12217
p287
sbag1
(g2
g3
NtRp288
(dp289
g69
V10.1016/0147-619X(80)90110-9
p290
sg65
VPLASMID
p291
sg67
V3
sg99
(lp292
(VHOLSTERS
VM
tp293
asg24
I1980
sg63
VLASMID
p294
sbag1
(g2
g3
NtRp295
(dp296
g69
V10.1007/BF01977351
p297
sg65
VTRANSGENIC RES
p298
sg67
V2
sg99
(lp299
(VHOOD
VE E
tp300
asg24
I1993
sg63
V208
p301
sbag1
(g2
g3
NtRp302
(dp303
g69
V10.1111/j.1365-313X.2005.02365.x
p304
sg65
VPLANT J
p305
sg67
V42
p306
sg99
(lp307
(VHUANG
VS W
tp308
asg24
I2005
sg63
VLANT
p309
sbag1
(g2
g3
NtRp310
(dp311
g69
Nsg65
VANNU REV PHYTOPATHOL
p312
sg67
V27
p313
sg99
(lp314
(VHUSSEY
VR S
tp315
asg24
I1989
sg63
V123
p316
sbag1
(g2
g3
NtRp317
(dp318
g69
V10.1093/emboj/19.15.4004
p319
sg65
VEMBO J
p320
sg67
V19
p321
sg99
(lp322
(VJIA
VY
tp323
asg24
I2000
sg63
V4004
p324
sbag1
(g2
g3
NtRp325
(dp326
g69
Nsg65
VJ CELL SCI
p327
sg67
V10
p328
sg99
(lp329
(VJONES
VM G K
tp330
asg24
I1972
sg63
V789
p331
sbag1
(g2
g3
NtRp332
(dp333
g69
V10.1094/MPMI.2003.16.1.7
p334
sg65
VMOL PLANT MICROBE IN
p335
sg67
V16
p336
sg99
(lp337
(VKAMOUN
VS
tp338
asg24
I2003
sg63
V7
sbag1
(g2
g3
NtRp339
(dp340
g69
Nsg65
VTHESIS WAGENINGEN U
p341
sg67
Nsg99
(lp342
(VKOROPACKA
VK B
tp343
asg24
I2010
sg63
Nsbag1
(g2
g3
NtRp344
(dp345
g69
V10.1105/tpc.110.075358
p346
sg65
VPLANT CELL
p347
sg67
V22
p348
sg99
(lp349
(VKRASILEVA
VK V
tp350
asg24
I2010
sg63
VLANT
p351
sbag1
(g2
g3
NtRp352
(dp353
g69
V10.1111/j.1439-0434.1993.tb01319.x
p354
sg65
VJ PHYTOPATHOL
p355
sg67
V137
p356
sg99
(lp357
(VKROON
VB A M
tp358
asg24
I1993
sg63
V1
sbag1
(g2
g3
NtRp359
(dp360
g69
V10.1016/j.plantsci.2006.03.009
p361
sg65
VPLANT SCI
p362
sg67
V171
p363
sg99
(lp364
(VLIEVENS
VB
tp365
asg24
I2006
sg63
VLANT
p366
sbag1
(g2
g3
NtRp367
(dp368
g69
V10.1016/j.pbi.2009.03.001
p369
sg65
VCURR OPIN PLANT BIOL
p370
sg67
V12
p371
sg99
(lp372
(VLUKASIK
VE
tp373
asg24
I2009
sg63
V427
p374
sbag1
(g2
g3
NtRp375
(dp376
g69
V10.1094/MPMI.2000.13.4.366
p377
sg65
VMOL PLANT MICROBE IN
p378
sg67
V13
p379
sg99
(lp380
(VMAKI-VALKAMA
VT
tp381
asg24
I2000
sg63
V366
p382
sbag1
(g2
g3
NtRp383
(dp384
g69
V10.1007/s00299-010-0972-z
p385
sg65
VPLANT CELL REP
p386
sg67
V30
p387
sg99
(lp388
(VMOLINARI
VS
tp389
asg24
I2011
sg63
VLANT
p390
sbag1
(g2
g3
NtRp391
(dp392
g69
V10.1093/jxb/eri285
p393
sg65
VJ EXP BOT
p394
sg67
V56
p395
sg99
(lp396
(VNICOT
VN
tp397
asg24
I2005
sg63
V2907
p398
sbag1
(g2
g3
NtRp399
(dp400
g69
V10.1105/tpc.109.068247
p401
sg65
VPLANT CELL
p402
sg67
V21
p403
sg99
(lp404
(VOH
VS K
tp405
asg24
I2009
sg63
VLANT
p406
sbag1
(g2
g3
NtRp407
(dp408
g69
V10.1046/j.1365-313X.2002.029005569.x
p409
sg65
VPLANT J
p410
sg67
V29
p411
sg99
(lp412
(VPEART
VJ R
tp413
asg24
I2002
sg63
VLANT
p414
sbag1
(g2
g3
NtRp415
(dp416
g69
V10.1105/tpc.106.042747
p417
sg65
VPLANT CELL
p418
sg67
V18
p419
sg99
(lp420
(VRAIRDAN
VG J
tp421
asg24
I2006
sg63
VLANT
p422
sbag1
(g2
g3
NtRp423
(dp424
g69
V10.1094/MPMI-22-3-0330
p425
sg65
VMOL PLANT MICROBE IN
p426
sg67
V22
p427
sg99
(lp428
(VREHMAN
VS
tp429
asg24
I2009
sg63
V330
p430
sbag1
(g2
g3
NtRp431
(dp432
g69
V10.1111/j.1365-2567.2005.02248.x
p433
sg65
VIMMUNOLOGY
p434
sg67
V116
p435
sg99
(lp436
(VRHODES
VD A
tp437
asg24
I2005
sg63
V411
p438
sbag1
(g2
g3
NtRp439
(dp440
g69
V10.1371/journal.ppat.1000564
p441
sg65
VPLOS PATHOG
p442
sg67
V5
sg99
(lp443
(VSACCO
VM A
tp444
asg24
I2009
sg63
VLOS
p445
sbag1
(g2
g3
NtRp446
(dp447
g69
Nsg65
VMOL CLONING LAB MANU
p448
sg67
Nsg99
(lp449
(VSAMBROOK
VJ
tp450
asg24
I1989
sg63
Nsbag1
(g2
g3
NtRp451
(dp452
g69
V10.1094/MPMI-18-1215
p453
sg65
VMOL PLANT MICROBE IN
p454
sg67
V18
p455
sg99
(lp456
(VSCHORNACK
VS
tp457
asg24
I2005
sg63
V1215
p458
sbag1
(g2
g3
NtRp459
(dp460
g69
V10.1016/S0014-5793(97)01129-0
p461
sg65
VFEBS LETT
p462
sg67
V415
p463
sg99
(lp464
(VSCHOUTEN
VA
tp465
asg24
I1997
sg63
V235
p466
sbag1
(g2
g3
NtRp467
(dp468
g69
V10.1105/tpc.110.077537
p469
sg65
VPLANT CELL
p470
sg67
V22
p471
sg99
(lp472
(VSLOOTWEG
VE
tp473
asg24
I2010
sg63
VLANT
p474
sbag1
(g2
g3
NtRp475
(dp476
g69
V10.1007/978-3-540-85215-5_6
p477
sg65
VCELL BIOL PLANT NEMA
p478
sg67
V15
p479
sg99
(lp480
(VSOBCZAK
VM
tp481
asg24
I2009
sg63
V153
p482
sbag1
(g2
g3
NtRp483
(dp484
g69
V10.1094/MPMI-18-0158
p485
sg65
VMOL PLANT MICROBE IN
p486
sg67
V18
p487
sg99
(lp488
(VSOBCZAK
VM
tp489
asg24
I2005
sg63
V158
p490
sbag1
(g2
g3
NtRp491
(dp492
g69
V10.1023/A:1011363119763
p493
sg65
VMOL BREEDING
p494
sg67
V7
sg99
(lp495
(VSPASSOVA
VM I
tp496
asg24
I2001
sg63
V151
p497
sbag1
(g2
g3
NtRp498
(dp499
g69
V10.1007/s00249-009-0455-8
p500
sg65
VEUR BIOPHYS J BIOPHY
p501
sg67
V39
p502
sg99
(lp503
(VTAE
VH
tp504
asg24
I2009
sg63
V51
p505
sbag1
(g2
g3
NtRp506
(dp507
g69
V10.1016/j.pbi.2012.05.001
p508
sg65
VCURR OPIN PLANT BIOL
p509
sg67
V15
p510
sg99
(lp511
(VTAKKEN
VF L W
tp512
asg24
I2012
sg63
V375
p513
sbag1
(g2
g3
NtRp514
(dp515
g69
V10.1104/pp.105.073510
p516
sg65
VPLANT PHYSIOL
p517
sg67
V140
p518
sg99
(lp519
(VTAMELING
VW I L
tp520
asg24
I2006
sg63
VLANT
p521
sbag1
(g2
g3
NtRp522
(dp523
g69
V10.1371/journal.ppat.1001202
p524
sg65
VPLOS PATHOG
p525
sg67
V6
sg99
(lp526
(VTASSET
VC
tp527
asg24
I2010
sg63
VLOS
p528
sbag1
(g2
g3
NtRp529
(dp530
g69
V10.1094/MPMI.2000.13.4.465
p531
sg65
VMOL PLANT MICROBE IN
p532
sg67
V13
p533
sg99
(lp534
(VTHOMAS
VC M
tp535
asg24
I2000
sg63
V465
p536
sbag1
(g2
g3
NtRp537
(dp538
g69
V10.1111/j.1365-313X.2005.02450.x
p539
sg65
VPLANT J
p540
sg67
V43
p541
sg99
(lp542
(VVAN
VBENTEM S D F
tp543
asg24
I2005
sg63
VLANT
p544
sbag1
(g2
g3
NtRp545
(dp546
g69
V10.1016/S0968-0004(98)01311-5
p547
sg65
VTRENDS BIOCHEM SCI
p548
sg67
V23
p549
sg99
(lp550
(VVAN
VD E R BIEZEN E A
tp551
asg24
I1998
sg63
V454
p552
sbag1
(g2
g3
NtRp553
(dp554
g69
V10.1111/j.1365-313X.2005.02527.x
p555
sg65
VPLANT J
p556
sg67
V44
p557
sg99
(lp558
(VVAN
VD E R VOSSEN E A G
tp559
asg24
I2005
sg63
VLANT
p560
sbag1
(g2
g3
NtRp561
(dp562
g69
Nsg65
VPLANT MOL BIOL
p563
sg67
V26
p564
sg99
(lp565
(VVANENGELEN
VF A
tp566
asg24
I1994
sg63
VLANT
p567
sbag1
(g2
g3
NtRp568
(dp569
g69
Nsg65
VTRANSGENIC RES
p570
sg67
V4
sg99
(lp571
(VVANENGELEN
VF A
tp572
asg24
I1995
sg63
V288
p573
sbag1
(g2
g3
NtRp574
(dp575
g69
V10.1093/jxb/ern045
p576
sg65
VJ EXP BOT
p577
sg67
V59
p578
sg99
(lp579
(VVAN
VOOIJEN G
tp580
asg24
I2008
sg63
V1383
p581
sbag1
(g2
g3
NtRp582
(dp583
g69
V10.1111/j.1467-7652.2005.00123.x
p584
sg65
VPLANT BIOTECHNOL J
p585
sg67
V3
sg99
(lp586
(VWROBLEWSKI
VT
tp587
asg24
I2005
sg63
VLANT
p588
sbag1
(g2
g3
NtRp589
(dp590
g69
V10.1007/s11248-008-9199-y
p591
sg65
VTRANSGENIC RES
p592
sg67
V17
p593
sg99
(lp594
(VZHONG
VS L
tp595
asg24
I2008
sg63
V985
p596
sbasb.