ccopy_reg
_reconstructor
p1
(ctethne.classes.paper
Paper
p2
c__builtin__
object
p3
NtRp4
(dp5
S'publisherCity'
p6
VROCKVILLE
p7
sS'reprintAddress'
p8
VRahier, A (reprint author), CNRS, Inst Biol Mol Plantes, Unite Propre Rech 2357, F-67083 Strasbourg, France.
p9
sS'WC'
p10
VPlant Sciences
p11
sS'GA'
p12
V427RR
p13
sS'abstract'
p14
VSterols become functional only after removal of the two methyl groups at C4 by a membrane-bound multienzyme complex including a 3 beta-hydroxysteroid-dehydrogenase/C4-decarboxylase (3 beta HSD/D). We recently identified Arabidopsis (Arabidopsis thaliana) 3bHSD/D as a bifunctional short-chain dehydrogenase/reductase protein. We made use of three-dimensional homology modeling to identify key amino acids involved in 4 alpha-carboxy-sterol and NAD binding and catalysis. Key amino acids were subjected to site-directed mutagenesis, and the mutated enzymes were expressed and assayed both in vivo and in vitro in an erg26 yeast strain defective in 3bHSD/D. We show that tyrosine-159 and lysine-163, which are oriented near the 3 beta-hydroxyl group of the substrate in the model, are essential for the 3bHSD/D activity, consistent with their involvement in the initial dehydrogenation step of the reaction. The essential arginine-326 residue is predicted to form a salt bridge with the 4 alpha-carboxyl group of the substrate, suggesting its involvement both in substrate binding and in the decarboxylation step. The essential aspartic acid-39 residue is in close contact with the hydroxyl groups of the adenosine-ribose ring of NAD+, in good agreement with the strong preference of 3 beta HSD/D for NAD(+). Data obtained with serine-133 mutants suggest close proximity between the serine-133 residue and the C4 beta domain of the bound sterol. Based on these data, we propose a tentative mechanism for 3 beta HSD/D activity. This study provides, to our knowledge, the first data on the three-dimensional molecular interactions of an enzyme of the postoxidosqualene cyclase sterol biosynthesis pathway with its substrate. The implications of our findings for studying the roles of C4-alkylated sterol precursors in plant development are discussed.
p15
sS'pageEnd'
p16
I1886
sS'publisherAddress'
p17
V15501 MONONA DRIVE, ROCKVILLE, MD 20855 USA
p18
sS'documentType'
p19
VArticle
p20
sS'subject'
p21
VPlant Sciences
p22
sS'isoSource'
p23
VPlant Physiol.
p24
sS'timesCited'
p25
(lp26
I5
aVZ9 5
p27
asS'PT'
p28
VJ
sS'title'
p29
VHomology Modeling And Site-Directed Mutagenesis Reveal Catalytic Key Amino Acids Of 3 Beta-Hydroxysteroid-Dehydrogenase/C4-Decarboxylase From Arabidopsis
p30
sS'ISSN'
p31
(lp32
V0032-0889
p33
aVJ9 PLANT PHYSIOL
p34
asS'authors_full'
p35
(lp36
(VRAHIER
VALAIN
tp37
a(VBERGDOLL
VMARC
tp38
a(VGENOT
VGENEVIEVE
tp39
a(VBOUVIER
VFLORENCE
tp40
a(VCAMARA
VBILAL
tp41
asS'PG'
p42
I15
sS'PD'
p43
VAPR
p44
sS'pageStart'
p45
I1872
sS'issue'
p46
I4
sS'journal'
p47
VPLANT PHYSIOLOGY
p48
sS'volume'
p49
V149
p50
sS'doi'
p51
V10.1104/pp.108.132282
p52
sS'emailAddress'
p53
Valain.rahier@ibmp-ulp.u-strasbg.fr
p54
sS'authorAddress'
p55
V[Rahier, Alain; Bergdoll, Marc; Genot, Genevieve; Bouvier, Florence; Camara, Bilal] CNRS, Inst Biol Mol Plantes, Unite Propre Rech 2357, F-67083 Strasbourg, France.
p56
sS'date'
p57
I2009
sS'ER'
p58
V
sS'publisher'
p59
VAMER SOC PLANT BIOLOGISTS
p60
sS'authorKeywords'
p61
(lp62
VSHORT-CHAIN DEHYDROGENASES/REDUCTASES
p63
aVPLANT STEROL BIOSYNTHESIS
p64
aVDROSOPHILA ALCOHOL-DEHYDROGENASE
p65
aVHISTIDINE-ASPARTATE PAIR
p66
aVSUGAR DONOR SPECIFICITY
p67
aV2 TROPINONE REDUCTASES
p68
aV3-BETA-HYDROXYSTEROID DEHYDROGENASE
p69
aVSACCHAROMYCES-CEREVISIAE
p70
aV3-DIMENSIONAL STRUCTURE
p71
aVCOFACTOR SPECIFICITY
p72
asS'language'
p73
VEnglish
p74
sS'wosid'
p75
VWOS:000264796900024
p76
sS'citationCount'
p77
I61
sS'authors_init'
p78
(lp79
(VRAHIER
VA
tp80
a(VBERGDOLL
VM
tp81
a(VGENOT
VG
tp82
a(VBOUVIER
VF
tp83
a(VCAMARA
VB
tp84
asS'citedReferences'
p85
(lp86
g1
(g2
g3
NtRp87
(dp88
g51
V10.1074/jbc.M310134200
p89
sg47
VJ BIOL CHEM
p90
sg49
V279
p91
sg78
(lp92
(VALLARD
VS T M
tp93
asg57
I2004
sg45
V2211
p94
sbag1
(g2
g3
NtRp95
(dp96
g51
V10.1021/bi00461a025
p97
sg47
VBIOCHEMISTRY
p98
sg49
V29
p99
sg78
(lp100
(VANDERSON
VD E
tp101
asg57
I1990
sg45
V2403
p102
sbag1
(g2
g3
NtRp103
(dp104
g51
V10.1073/pnas.93.1.186
p105
sg47
VP NATL ACAD SCI USA
p106
sg49
V93
p107
sg78
(lp108
(VBARD
VM
tp109
asg57
I1996
sg45
V186
p110
sbag1
(g2
g3
NtRp111
(dp112
g51
V10.1146/annurev.arplant.55.031903.141616
p113
sg47
VANNU REV PLANT BIOL
p114
sg49
V55
p115
sg78
(lp116
(VBENVENISTE
VP
tp117
asg57
I2004
sg45
V429
p118
sbag1
(g2
g3
NtRp119
(dp120
g51
V10.1093/nar/28.1.235
p121
sg47
VNUCLEIC ACIDS RES
p122
sg49
V28
p123
sg78
(lp124
(VBERMAN
VH M
tp125
asg57
I2000
sg45
V235
p126
sbag1
(g2
g3
NtRp127
(dp128
g51
V10.1073/pnas.77.3.1496
p129
sg47
VP NATL ACAD SCI
p130
sg49
V77
p131
sg78
(lp132
(VBLOBEL
VG
tp133
asg57
I1980
sg45
V1496
p134
sbag1
(g2
g3
NtRp135
(dp136
g51
Nsg47
VJ MED GENET
p137
sg49
V42
p138
sg78
(lp139
(VBORNHOLDT
VD
tp140
asg57
I2005
sg45
V1
sbag1
(g2
g3
NtRp141
(dp142
g51
V10.1016/j.plipres.2005.09.003
p143
sg47
VPROG LIPID RES
p144
sg49
V44
p145
sg78
(lp146
(VBOUVIER
VF
tp147
asg57
I2005
sg45
VROG
p148
sbag1
(g2
g3
NtRp149
(dp150
g51
Nsg47
VANAL BIOCHEM
p151
sg49
V72
p152
sg78
(lp153
(VBRADFORD
VM M
tp154
asg57
I1976
sg45
V254
p155
sbag1
(g2
g3
NtRp156
(dp157
g51
V10.1016/j.bmc.2003.10.044
p158
sg47
VBIOORGAN MED CHEM
p159
sg49
V12
p160
sg78
(lp161
(VCHEN
VH P
tp162
asg57
I2004
sg45
V577
p163
sbag1
(g2
g3
NtRp164
(dp165
g51
V10.1111/j.1432-1033.1991.tb16371.x
p166
sg47
VEUR J BIOCHEM
p167
sg49
V202
p168
sg78
(lp169
(VCHEN
VZ
tp170
asg57
I1991
sg45
V263
p171
sbag1
(g2
g3
NtRp172
(dp173
g51
V10.1021/bi00064a017
p174
sg47
VBIOCHEMISTRY
p175
sg49
V32
p176
sg78
(lp177
(VCHEN
VZ
tp178
asg57
I1993
sg45
V3342
p179
sbag1
(g2
g3
NtRp180
(dp181
g51
V10.1105/tpc.140930
p182
sg47
VPLANT CELL
p183
sg49
V14
p184
sg78
(lp185
(VCLOUSE
VS D
tp186
asg57
I2002
sg45
VLANT
p187
sbag1
(g2
g3
NtRp188
(dp189
g51
V10.1016/S1388-1981(03)00093-3
p190
sg47
VBBA
p191
sg49
V1633
p192
sg78
(lp193
(VDARNET
VS
tp194
asg57
I2003
sg45
V106
p195
sbag1
(g2
g3
NtRp196
(dp197
g51
V10.1042/BJ20031572
p198
sg47
VBIOCHEM J
p199
sg49
V378
p200
sg78
(lp201
(VDARNET
VS
tp202
asg57
I2004
sg45
V889
p203
sbag1
(g2
g3
NtRp204
(dp205
g51
Nsg47
VPYMOL MOL GRAPHICS S
p206
sg49
Nsg78
(lp207
(VDELANO
VW L
tp208
asg57
I2002
sg45
VYMOL
p209
sbag1
(g2
g3
NtRp210
(dp211
g51
V10.1002/prot.10512
p212
sg47
VPROTEINS
p213
sg49
V53
p214
sg78
(lp215
(VDUAX
VW L
tp216
asg57
I2003
sg45
VROTEINS
p217
sbag1
(g2
g3
NtRp218
(dp219
g51
V10.1016/0010-4825(84)90045-3
p220
sg47
VCOMPUT BIOL MED
p221
sg49
V14
p222
sg78
(lp223
(VDUGGLEBY
VR G
tp224
asg57
I1984
sg45
V447
p225
sbag1
(g2
g3
NtRp226
(dp227
g51
V10.1074/jbc.M202160200
p228
sg47
VJ BIOL CHEM
p229
sg49
V277
p230
sg78
(lp231
(VFILLING
VC
tp232
asg57
I2002
sg45
V25677
p233
sbag1
(g2
g3
NtRp234
(dp235
g51
V10.1073/pnas.95.23.13794
p236
sg47
VP NATL ACAD SCI USA
p237
sg49
V95
p238
sg78
(lp239
(VGACHOTTE
VD
tp240
asg57
I1998
sg45
V13794
p241
sbag1
(g2
g3
NtRp242
(dp243
g51
V10.1104/pp.106.095166
p244
sg47
VPLANT PHYSIOL
p245
sg49
V143
p246
sg78
(lp247
(VGEISSLER
VR
tp248
asg57
I2007
sg45
VLANT
p249
sbag1
(g2
g3
NtRp250
(dp251
g51
V10.1016/S0969-2126(00)00064-2
p252
sg47
VSTRUCTURE
p253
sg49
V2
sg78
(lp254
(VGHOSH
VD
tp255
asg57
I1994
sg45
V629
p256
sbag1
(g2
g3
NtRp257
(dp258
g51
V10.1074/jbc.M100538200
p259
sg47
VJ BIOL CHEM
p260
sg49
V276
p261
sg78
(lp262
(VGHOSH
VD
tp263
asg57
I2001
sg45
V18457
p264
sbag1
(g2
g3
NtRp265
(dp266
g51
V10.1093/nar/20.6.1425
p267
sg47
VNUCLEIC ACIDS RES
p268
sg49
V20
p269
sg78
(lp270
(VGIETZ
VD
tp271
asg57
I1992
sg45
V1425
p272
sbag1
(g2
g3
NtRp273
(dp274
g51
V10.1016/S1360-1385(98)01233-3
p275
sg47
VTRENDS PLANT SCI
p276
sg49
V3
sg78
(lp277
(VHARTMANN
VM A
tp278
asg57
I1998
sg45
V170
p279
sbag1
(g2
g3
NtRp280
(dp281
g51
V10.1046/j.1365-313X.2003.01851.x
p282
sg47
VPLANT J
p283
sg49
V36
p284
sg78
(lp285
(VHOLMBERG
VN
tp286
asg57
I2003
sg45
VLANT
p287
sbag1
(g2
g3
NtRp288
(dp289
g51
V10.1210/me.15.11.2010
p290
sg47
VMOL ENDOCRINOL
p291
sg49
V15
p292
sg78
(lp293
(VHUANG
VY W
tp294
asg57
I2001
sg45
V2010
p295
sbag1
(g2
g3
NtRp296
(dp297
g51
V10.1107/S0108767390010224
p298
sg47
VACTA CRYSTALLOGR A
p299
sg49
V47
p300
sg78
(lp301
(VJONES
VT A
tp302
asg57
I1991
sg45
V110
p303
sbag1
(g2
g3
NtRp304
(dp305
g51
Nsg47
VBIOCHEMISTRY
p306
sg49
V34
p307
sg78
(lp308
(VJORNVALL
VH
tp309
asg57
I1995
sg45
V6003
p310
sbag1
(g2
g3
NtRp311
(dp312
g51
V10.1046/j.1432-1033.2002.03130.x
p313
sg47
VEUR J BIOCHEM
p314
sg49
V269
p315
sg78
(lp316
(VKALLBERG
VY
tp317
asg57
I2002
sg45
V4409
p318
sbag1
(g2
g3
NtRp319
(dp320
g51
V10.1074/jbc.273.41.26285
p321
sg47
VJ BIOL CHEM
p322
sg49
V273
p323
sg78
(lp324
(VKALLEN
VC B
tp325
asg57
I1998
sg45
V26285
p326
sbag1
(g2
g3
NtRp327
(dp328
g51
V10.1038/5794
p329
sg47
VNature Structural Biology
p330
sg49
V6
sg78
(lp331
(VKOEHL
VPATRICE
tp332
asg57
I1999
sg45
V108
p333
sbag1
(g2
g3
NtRp334
(dp335
g51
Nsg47
VAM J MED GENET
p336
sg49
V90
p337
sg78
(lp338
(VKONIG
VA
tp339
asg57
I2000
sg45
V339
p340
sbag1
(g2
g3
NtRp341
(dp342
g51
V10.1007/BF02537824
p343
sg47
VLIPIDS
p344
sg49
V30
p345
sg78
(lp346
(VLEES
VN D
tp347
asg57
I1995
sg45
V221
p348
sbag1
(g2
g3
NtRp349
(dp350
g51
V10.1016/j.tplants.2003.09.012
p351
sg47
VTRENDS PLANT SCI
p352
sg49
V8
sg78
(lp353
(VLINDSEY
VK
tp354
asg57
I2003
sg45
V521
p355
sbag1
(g2
g3
NtRp356
(dp357
g51
V10.1038/9700
p358
sg47
VNAT GENET
p359
sg49
V22
p360
sg78
(lp361
(VLIU
VX Y
tp362
asg57
I1999
sg45
V182
p363
sbag1
(g2
g3
NtRp364
(dp365
g51
V10.1007/BF00293818
p366
sg47
VMOL GEN GENET
p367
sg49
V231
p368
sg78
(lp369
(VMAILLOTVERNIER
VP
tp370
asg57
I1991
sg45
V33
p371
sbag1
(g2
g3
NtRp372
(dp373
g51
V10.1006/abbi.2001.2512
p374
sg47
VARCH BIOCHEM BIOPHYS
p375
sg49
V394
p376
sg78
(lp377
(VMATSUNAGA
VI
tp378
asg57
I2001
sg45
V45
p379
sbag1
(g2
g3
NtRp380
(dp381
g51
V10.1038/ncb1686
p382
sg47
VNAT CELL BIOL
p383
sg49
V10
p384
sg78
(lp385
(VMEN
VS Z
tp386
asg57
I2008
sg45
V237
p387
sbag1
(g2
g3
NtRp388
(dp389
g51
V10.1074/jbc.274.23.16563
p390
sg47
VJ BIOL CHEM
p391
sg49
V274
p392
sg78
(lp393
(VNAKAJIMA
VK
tp394
asg57
I1999
sg45
V16563
p395
sbag1
(g2
g3
NtRp396
(dp397
g51
V10.1073/pnas.95.9.4876
p398
sg47
VP NATL ACAD SCI USA
p399
sg49
V95
p400
sg78
(lp401
(VNAKAJIMA
VK
tp402
asg57
I1998
sg45
V4876
p403
sbag1
(g2
g3
NtRp404
(dp405
g51
V10.1021/ja9802504
p406
sg47
VJ AM CHEM SOC
p407
sg49
V120
p408
sg78
(lp409
(VNES
VW D
tp410
asg57
I1998
sg45
V5970
p411
sbag1
(g2
g3
NtRp412
(dp413
g51
V10.1016/S0009-2797(02)00164-3
p414
sg47
VCHEM
p415
sg49
V143
p416
sg78
(lp417
(VOPPERMANN
VU
tp418
asg57
I2003
sg45
V247
p419
sbag1
(g2
g3
NtRp420
(dp421
g51
V10.1104/pp.108.128256
p422
sg47
VPLANT PHYSIOL
p423
sg49
V148
p424
sg78
(lp425
(VOSMANI
VS A
tp426
asg57
I2008
sg45
VLANT
p427
sbag1
(g2
g3
NtRp428
(dp429
g51
Nsg47
VJ BIOL CHEM
p430
sg49
V268
p431
sg78
(lp432
(VPASCAL
VS
tp433
asg57
I1993
sg45
V11639
p434
sbag1
(g2
g3
NtRp435
(dp436
g51
V10.1006/abbi.1994.1308
p437
sg47
VARCH BIOCHEM BIOPHYS
p438
sg49
V312
p439
sg78
(lp440
(VPASCAL
VS
tp441
asg57
I1994
sg45
V260
p442
sbag1
(g2
g3
NtRp443
(dp444
g51
V10.1016/S0968-0004(99)01362-6
p445
sg47
VTRENDS BIOCHEM SCI
p446
sg49
V24
p447
sg78
(lp448
(VPONTING
VC P
tp449
asg57
I1999
sg45
V130
p450
sbag1
(g2
g3
NtRp451
(dp452
g51
Nsg47
VANAL STEROLS OTHER B
p453
sg49
Nsg78
(lp454
(VRAHIER
VA
tp455
asg57
I1989
sg45
Nsbag1
(g2
g3
NtRp456
(dp457
g51
V10.1074/jbc.M604431200
p458
sg47
VJ BIOL CHEM
p459
sg49
V281
p460
sg78
(lp461
(VRAHIER
VA
tp462
asg57
I2006
sg45
V27264
p463
sbag1
(g2
g3
NtRp464
(dp465
g51
V10.1006/abbi.1999.1218
p466
sg47
VARCH BIOCHEM BIOPHYS
p467
sg49
V366
p468
sg78
(lp469
(VRONDET
VS
tp470
asg57
I1999
sg45
V249
p471
sbag1
(g2
g3
NtRp472
(dp473
g51
V10.1006/jmbi.1993.1626
p474
sg47
VJ MOL BIOL
p475
sg49
V234
p476
sg78
(lp477
(VSALI
VA
tp478
asg57
I1993
sg45
V779
p479
sbag1
(g2
g3
NtRp480
(dp481
g51
V10.1186/gb-2004-5-6-r41
p482
sg47
VGENOME BIOL
p483
sg49
V5
sg78
(lp484
(VSCHRICK
VK
tp485
asg57
I2004
sg45
Nsbag1
(g2
g3
NtRp486
(dp487
g51
V10.1016/S1074-5521(98)90003-5
p488
sg47
VCHEM BIOL
p489
sg49
V5
sg78
(lp490
(VSUNDARAMOORTHY
VM
tp491
asg57
I1998
sg45
V461
p492
sbag1
(g2
g3
NtRp493
(dp494
g51
V10.1021/bi951904d
p495
sg47
VBIOCHEMISTRY
p496
sg49
V35
p497
sg78
(lp498
(VTANAKA
VN
tp499
asg57
I1996
sg45
V7715
p500
sbag1
(g2
g3
NtRp501
(dp502
g51
V10.1677/jme.0.0330253
p503
sg47
VJ MOL ENDOCRINOL
p504
sg49
V33
p505
sg78
(lp506
(VTHOMAS
VJ L
tp507
asg57
I2004
sg45
V253
p508
sbag1
(g2
g3
NtRp509
(dp510
g51
V10.1074/jbc.M706185200
p511
sg47
VJ BIOL CHEM
p512
sg49
V283
p513
sg78
(lp514
(VTHORN
VA
tp515
asg57
I2008
sg45
V17260
p516
sbag1
(g2
g3
NtRp517
(dp518
g51
V10.1104/pp.105.063842
p519
sg47
VPLANT PHYSIOL
p520
sg49
V139
p521
sg78
(lp522
(VTHORSOE
VK S
tp523
asg57
I2005
sg45
VLANT
p524
sbag1
(g2
g3
NtRp525
(dp526
g51
V10.1074/jbc.M510126200
p527
sg47
VJ BIOL CHEM
p528
sg49
V281
p529
sg78
(lp530
(VTU
VS L
tp531
asg57
I2006
sg45
V3127
p532
sbag1
(g2
g3
NtRp533
(dp534
g51
V10.1016/0378-1119(87)90049-7
p535
sg47
VGENE
p536
sg49
V52
p537
sg78
(lp538
(VVERNET
VT
tp539
asg57
I1987
sg45
V225
p540
sbag1
(g2
g3
NtRp541
(dp542
g51
V10.1074/jbc.M100892200
p543
sg47
VJ BIOL CHEM
p544
sg49
V276
p545
sg78
(lp546
(VWRIGHT
VS K
tp547
asg57
I2001
sg45
V31151
p548
sbag1
(g2
g3
NtRp549
(dp550
g51
V10.1016/j.mce.2006.12.006
p551
sg47
VMOL CELL ENDOCRINOL
p552
sg49
V265
p553
sg78
(lp554
(VWU
VX Q
tp555
asg57
I2007
sg45
V71
p556
sbasb.