ccopy_reg
_reconstructor
p1
(ctethne.classes.paper
Paper
p2
c__builtin__
object
p3
NtRp4
(dp5
S'publisherCity'
p6
VROCKVILLE
p7
sS'reprintAddress'
p8
VRoux, SJ (reprint author), Univ Texas, Dept Bot, Austin, TX 78713 USA.
p9
sS'WC'
p10
VPlant Sciences
p11
sS'GA'
p12
V175PA
p13
sS'abstract'
p14
VThe protein kinase CK2 (formerly casein kinase II) is thought to be involved in light-regulated gene expression in plants because of its ability to phosphorylate transcription factors that bind to the promoter regions of light-regulated genes in vitro. To address this possibility in vivo and to learn more about the potential physiological roles of CK2 in plants, we transformed Arabidopsis with an antisense construct of the CK2 alpha-subunit gene and investigated both morphological and molecular phenotypes. Antisense transformants had a smaller adult leaf size and showed increased expression of chs in darkness and of cab and rbcS after red-light treatment. The latter molecular phenotype implied that CK2 might serve as one of several negative and quantitative effectors in light-regulated gene expression. The possible mechanism of CK2 action and its involvement in the phytochrome signal transduction pathway are discussed.
p15
sS'pageEnd'
p16
I1000
sS'publisherAddress'
p17
V15501 MONONA DRIVE, ROCKVILLE, MD 20855 USA
p18
sS'documentType'
p19
VReview
p20
sS'subject'
p21
VPlant Sciences
p22
sS'isoSource'
p23
VPlant Physiol.
p24
sS'timesCited'
p25
(lp26
I38
aVZ9 43
p27
asS'PT'
p28
VJ
sS'title'
p29
VAntisense Expression Of The Ck2 Alpha-Subunit Gene In Arabidopsis. Effects On Light-Regulated Gene Expression And Plant Growth
p30
sS'ISSN'
p31
(lp32
V0032-0889
p33
aVJ9 PLANT PHYSIOL
p34
asS'authors_full'
p35
(lp36
(VLEE
VY
tp37
a(VLLOYD
VAM
tp38
a(VROUX
VSJ
tp39
asS'PG'
p40
I12
sS'PD'
p41
VMAR
p42
sS'pageStart'
p43
I989
sS'issue'
p44
I3
sS'journal'
p45
VPLANT PHYSIOLOGY
p46
sS'volume'
p47
V119
p48
sS'doi'
p49
V10.1104/pp.119.3.989
p50
sS'emailAddress'
p51
Vsroux@uts.cc.utexas.edu
p52
sS'authorAddress'
p53
(lp54
VUniv Texas, Dept Bot, Austin, TX 78713 USA.
p55
aVUniv Texas, Inst Mol & Cellular Biol, Austin, TX 78713 USA.
p56
asS'date'
p57
I1999
sS'ER'
p58
V
sS'publisher'
p59
VAMER SOC PLANT PHYSIOLOGISTS
p60
sS'authorKeywords'
p61
(lp62
VCASEIN-KINASE-II
p63
aVNUCLEAR-LOCALIZATION SEQUENCE
p64
aVSIGNAL-TRANSDUCTION PATHWAYS
p65
aVCHALCONE SYNTHASE PROMOTER
p66
aVCHLOROPHYLL A/B-PROTEIN
p67
aVDNA-BINDING ACTIVITY
p68
aVG-BOX
p69
aVTRANSCRIPTION FACTOR
p70
aVPHYTOCHROME-B
p71
aVBETA-SUBUNIT
p72
asS'language'
p73
VEnglish
p74
sS'wosid'
p75
VWOS:000079102000017
p76
sS'citationCount'
p77
I102
sS'authors_init'
p78
(lp79
(VLEE
VY
tp80
a(VLLOYD
VA M
tp81
a(VROUX
VS J
tp82
asS'citedReferences'
p83
(lp84
g1
(g2
g3
NtRp85
(dp86
g49
Nsg45
VCELL MOL BIOL RES
p87
sg47
V39
p88
sg78
(lp89
(VAHMED
VK
tp90
asg57
I1993
sg43
V451
p91
sbag1
(g2
g3
NtRp92
(dp93
g49
Nsg45
VFASEB J
p94
sg47
V9
sg78
(lp95
(VALLENDE
VJ E
tp96
asg57
I1995
sg43
V313
p97
sbag1
(g2
g3
NtRp98
(dp99
g49
Nsg45
VPLANT CELL
p100
sg47
V4
sg78
(lp101
(VAMSTRONG
VG A
tp102
asg57
I1992
sg43
VLANT
p103
sbag1
(g2
g3
NtRp104
(dp105
g49
Nsg45
VPLANT CELL
p106
sg47
V9
sg78
(lp107
(VANDERSON
VS L
tp108
asg57
I1997
sg43
VLANT
p109
sbag1
(g2
g3
NtRp110
(dp111
g49
Nsg45
VENERGY ENV
p112
sg47
V5
sg78
(lp113
(VANG
VB W
tp114
asg57
I1994
sg43
V1
sbag1
(g2
g3
NtRp115
(dp116
g49
Nsg45
VCURRENT PROTOCOLS MO
p117
sg47
Nsg78
(lp118
(VAUSUBEL
VF M
tp119
asg57
I1987
sg43
Nsbag1
(g2
g3
NtRp120
(dp121
g49
Nsg45
VPLANT PHYSIOL
p122
sg47
V105
p123
sg78
(lp124
(VBIERMANN
VB J
tp125
asg57
I1994
sg43
VLANT
p126
sbag1
(g2
g3
NtRp127
(dp128
g49
V10.1073/pnas.87.14.5387
p129
sg45
VP NATL ACAD SCI USA
p130
sg47
V87
p131
sg78
(lp132
(VBLOCK
VA
tp133
asg57
I1990
sg43
V5387
p134
sbag1
(g2
g3
NtRp135
(dp136
g49
V10.1002/(SICI)1097-4644(19960101)60:1<61::AID-JCB10>3.0.CO;2-N
p137
sg45
VJ CELL BIOCHEM
p138
sg47
V60
p139
sg78
(lp140
(VBOULIKAS
VT
tp141
asg57
I1996
sg43
V61
p142
sbag1
(g2
g3
NtRp143
(dp144
g49
V10.1016/0092-8674(94)90236-4
p145
sg45
VCELL
p146
sg47
V77
p147
sg78
(lp148
(VBOWLER
VC
tp149
asg57
I1994
sg43
V73
p150
sbag1
(g2
g3
NtRp151
(dp152
g49
V10.1101/gad.8.18.2188
p153
sg45
VGENE DEV
p154
sg47
V8
sg78
(lp155
(VBOWLER
VC
tp156
asg57
I1994
sg43
V2188
p157
sbag1
(g2
g3
NtRp158
(dp159
g49
Nsg45
VDEVELOPMENT
p160
sg47
V115
p161
sg78
(lp162
(VCHORY
VJ
tp163
asg57
I1992
sg43
V337
p164
sbag1
(g2
g3
NtRp165
(dp166
g49
Nsg45
VPLANT CELL
p167
sg47
V9
sg78
(lp168
(VCICERI
VP
tp169
asg57
I1997
sg43
VLANT
p170
sbag1
(g2
g3
NtRp171
(dp172
g49
V10.1007/BF00029603
p173
sg45
VPLANT MOL BIOL
p174
sg47
V25
p175
sg78
(lp176
(VCOLLINGE
VM A
tp177
asg57
I1994
sg43
VLANT
p178
sbag1
(g2
g3
NtRp179
(dp180
g49
V10.1016/0006-291X(85)91096-4
p181
sg45
VBIOCHEM BIOPH RES CO
p182
sg47
V128
p183
sg78
(lp184
(VDATTA
VN
tp185
asg57
I1985
sg43
V1403
p186
sbag1
(g2
g3
NtRp187
(dp188
g49
Nsg45
VPLANT CELL
p189
sg47
V1
sg78
(lp190
(VDATTA
VN
tp191
asg57
I1989
sg43
VLANT
p192
sbag1
(g2
g3
NtRp193
(dp194
g49
Nsg45
VARABIDOPSIS
p195
sg47
Nsg78
(lp196
(VDAUGHERTY
VC J
tp197
asg57
I1994
sg43
V769
p198
sbag1
(g2
g3
NtRp199
(dp200
g49
V10.1104/pp.101.3.801
p201
sg45
VPLANT PHYSIOL
p202
sg47
V101
p203
sg78
(lp204
(VDEDONDER
VA
tp205
asg57
I1993
sg43
VLANT
p206
sbag1
(g2
g3
NtRp207
(dp208
g49
Nsg45
VP522
p209
sg47
Nsg78
(lp210
(VDELLAPORTA
VSTEPHEN
tp211
asg57
I1994
sg43
V522
p212
sbag1
(g2
g3
NtRp213
(dp214
g49
Nsg45
VEMBO J
p215
sg47
V9
sg78
(lp216
(VDONALD
VR G K
tp217
asg57
I1990
sg43
V1717
p218
sbag1
(g2
g3
NtRp219
(dp220
g49
Nsg45
VPLANT MOL BIOL
p221
sg47
Nsg78
(lp222
(VERNST
VD
tp223
asg57
I1988
sg43
VLANT
p224
sbag1
(g2
g3
NtRp225
(dp226
g49
Nsg45
VPLANT PHYSIOL
p227
sg47
V105
p228
sg78
(lp229
(VFALLON
VK M
tp230
asg57
I1994
sg43
VLANT
p231
sbag1
(g2
g3
NtRp232
(dp233
g49
Nsg45
VMOL CELL BIOL
p234
sg47
V8
sg78
(lp235
(VFEINBAUM
VR L
tp236
asg57
I1988
sg43
V1985
p237
sbag1
(g2
g3
NtRp238
(dp239
g49
V10.1105/tpc.3.5.531
p240
sg45
VPLANT CELL
p241
sg47
V3
sg78
(lp242
(VFERREIRA
VP C G
tp243
asg57
I1991
sg43
VLANT
p244
sbag1
(g2
g3
NtRp245
(dp246
g49
Nsg45
VFASEB J
p247
sg47
V8
sg78
(lp248
(VFOSTER
VR
tp249
asg57
I1994
sg43
V192
p250
sbag1
(g2
g3
NtRp251
(dp252
g49
Nsg45
VTRENDS PLANT SCI
p253
sg47
V1
sg78
(lp254
(VFURUYA
VM
tp255
asg57
I1996
sg43
V301
p256
sbag1
(g2
g3
NtRp257
(dp258
g49
V10.1073/pnas.85.19.7089
p259
sg45
VP NATL ACAD SCI USA
p260
sg47
V85
p261
sg78
(lp262
(VGIULIANO
VG
tp263
asg57
I1988
sg43
V7089
p264
sbag1
(g2
g3
NtRp265
(dp266
g49
V10.1002/jcb.240580109
p267
sg45
VJ CELL BIOCHEM
p268
sg47
V58
p269
sg78
(lp270
(VGRUPPUSO
VP A
tp271
asg57
I1995
sg43
V65
p272
sbag1
(g2
g3
NtRp273
(dp274
g49
Nsg45
VFASEB J
p275
sg47
V9
sg78
(lp276
(VHANKS
VS K
tp277
asg57
I1995
sg43
V576
p278
sbag1
(g2
g3
NtRp279
(dp280
g49
Nsg45
VPLANT CELL
p281
sg47
V6
sg78
(lp282
(VHARTER
VK
tp283
asg57
I1994
sg43
VLANT
p284
sbag1
(g2
g3
NtRp285
(dp286
g49
Nsg45
VEMBO J
p287
sg47
V14
p288
sg78
(lp289
(VHEMERLY
VA
tp290
asg57
I1995
sg43
V3925
p291
sbag1
(g2
g3
NtRp292
(dp293
g49
V10.1007/BF02506852
p294
sg45
VJ PLANT RES
p295
sg47
V110
p296
sg78
(lp297
(VHIRATSUKA
VK
tp298
asg57
I1997
sg43
V131
p299
sbag1
(g2
g3
NtRp300
(dp301
g49
V10.1074/jbc.272.27.17191
p302
sg45
VJ BIOL CHEM
p303
sg47
V272
p304
sg78
(lp305
(VHUBNER
VS
tp306
asg57
I1997
sg43
V17191
p307
sbag1
(g2
g3
NtRp308
(dp309
g49
V10.1016/0092-8674(95)90405-0
p310
sg45
VCELL
p311
sg47
V80
p312
sg78
(lp313
(VHUNTER
VT
tp314
asg57
I1995
sg43
V225
p315
sbag1
(g2
g3
NtRp316
(dp317
g49
V10.1006/jmbi.1993.1230
p318
sg45
VJ MOL BIOL
p319
sg47
V230
p320
sg78
(lp321
(VIZAWA
VT
tp322
asg57
I1993
sg43
V1131
p323
sbag1
(g2
g3
NtRp324
(dp325
g49
Nsg45
VBIOCHEM J
p326
sg47
V311
p327
sg78
(lp328
(VJANS
VD A
tp329
asg57
I1995
sg43
V705
p330
sbag1
(g2
g3
NtRp331
(dp332
g49
Nsg45
VDevelopmental regulation of plant gene expression
p333
sg47
Nsg78
(lp334
(VJENKINS
VG I
tp335
asg57
I1991
sg43
V1
sbag1
(g2
g3
NtRp336
(dp337
g49
Nsg45
VPLANT PHYSIOL
p338
sg47
V114
p339
sg78
(lp340
(VKANEKATSU
VM
tp341
asg57
I1997
sg43
VLANT
p342
sbag1
(g2
g3
NtRp343
(dp344
g49
Nsg45
VPLANT CELL PHYSIOL
p345
sg47
V36
p346
sg78
(lp347
(VKANEKATSU
VM
tp348
asg57
I1995
sg43
VLANT
p349
sbag1
(g2
g3
NtRp350
(dp351
g49
V10.1104/pp.88.4.1323
p352
sg45
VPLANT PHYSIOL
p353
sg47
V88
p354
sg78
(lp355
(VKARLINNEUMANN
VG A
tp356
asg57
I1988
sg43
VLANT
p357
sbag1
(g2
g3
NtRp358
(dp359
g49
Nsg45
VPLANT CELL
p360
sg47
V7
sg78
(lp361
(VKLIMCZAK
VL J
tp362
asg57
I1995
sg43
VLANT
p363
sbag1
(g2
g3
NtRp364
(dp365
g49
Nsg45
VPLANT CELL
p366
sg47
V4
sg78
(lp367
(VKLIMCZAK
VL J
tp368
asg57
I1992
sg43
VLANT
p369
sbag1
(g2
g3
NtRp370
(dp371
g49
Nsg45
VPLANT PHYSIOL
p372
sg47
V105
p373
sg78
(lp374
(VKLIMCZAK
VL J
tp375
asg57
I1994
sg43
VLANT
p376
sbag1
(g2
g3
NtRp377
(dp378
g49
Nsg45
VZ PFLANZENPHYSIOL
p379
sg47
V100
p380
sg78
(lp381
(VKOORNNEEF
VM
tp382
asg57
I1980
sg43
V147
p383
sbag1
(g2
g3
NtRp384
(dp385
g49
V10.1007/BF00019515
p386
sg45
VPLANT MOL BIOL
p387
sg47
V11
p388
sg78
(lp389
(VKREBBERS
VE
tp390
asg57
I1988
sg43
VLANT
p391
sbag1
(g2
g3
NtRp392
(dp393
g49
V10.1146/annurev.bi.48.070179.004423
p394
sg45
VANNU REV BIOCHEM
p395
sg47
V48
p396
sg78
(lp397
(VKREBS
VE G
tp398
asg57
I1979
sg43
V923
p399
sbag1
(g2
g3
NtRp400
(dp401
g49
V10.1083/jcb.116.1.43
p402
sg45
VJ CELL BIOL
p403
sg47
V116
p404
sg78
(lp405
(VKREK
VW
tp406
asg57
I1992
sg43
V43
p407
sbag1
(g2
g3
NtRp408
(dp409
g49
Nsg45
VMOL CELL BIOL
p410
sg47
V9
sg78
(lp411
(VLAM
VE
tp412
asg57
I1989
sg43
V4819
p413
sbag1
(g2
g3
NtRp414
(dp415
g49
V10.1093/nar/14.10.4051
p416
sg45
VNUCLEIC ACIDS RES
p417
sg47
V14
p418
sg78
(lp419
(VLEUTWILER
VL S
tp420
asg57
I1986
sg43
V4051
p421
sbag1
(g2
g3
NtRp422
(dp423
g49
Nsg45
VJ BIOL CHEM
p424
sg47
V265
p425
sg78
(lp426
(VLITCHFIELD
VD W
tp427
asg57
I1990
sg43
V7638
p428
sbag1
(g2
g3
NtRp429
(dp430
g49
V10.1007/BF01076770
p431
sg45
VMolecular and Cellular Biochemistry
p432
sg47
V127
p433
sg78
(lp434
(VLITCHFIELD
VDAVID W
tp435
asg57
I1993
sg43
V187
p436
sbag1
(g2
g3
NtRp437
(dp438
g49
V10.1016/0167-4889(95)00100-7
p439
sg45
VBBA
p440
sg47
V1269
p441
sg78
(lp442
(VLITCHFIELD
VD W
tp443
asg57
I1995
sg43
V69
p444
sbag1
(g2
g3
NtRp445
(dp446
g49
Nsg45
VJ BIOL CHEM
p447
sg47
V267
p448
sg78
(lp449
(VLITCHFIELD
VD W
tp450
asg57
I1992
sg43
V13943
p451
sbag1
(g2
g3
NtRp452
(dp453
g49
Nsg45
VJ BIOL CHEM
p454
sg47
V268
p455
sg78
(lp456
(VLORENZ
VP
tp457
asg57
I1993
sg43
V2733
p458
sbag1
(g2
g3
NtRp459
(dp460
g49
V10.1038/344517a0
p461
sg45
VNATURE
p462
sg47
V344
p463
sg78
(lp464
(VLUSCHER
VB
tp465
asg57
I1990
sg43
V517
p466
sbag1
(g2
g3
NtRp467
(dp468
g49
V10.1007/BF00039619
p469
sg45
VPLANT MOL BIOL
p470
sg47
V21
p471
sg78
(lp472
(VMANZARA
VT
tp473
asg57
I1993
sg43
VLANT
p474
sbag1
(g2
g3
NtRp475
(dp476
g49
V10.1016/S0968-0004(00)89118-5
p477
sg45
VTRENDS BIOCHEM SCI
p478
sg47
V20
p479
sg78
(lp480
(VMENKENS
VA E
tp481
asg57
I1995
sg43
V506
p482
sbag1
(g2
g3
NtRp483
(dp484
g49
V10.1073/pnas.91.7.2522
p485
sg45
VP NATL ACAD SCI USA
p486
sg47
V91
p487
sg78
(lp488
(VMENKENS
VA E
tp489
asg57
I1994
sg43
V2522
p490
sbag1
(g2
g3
NtRp491
(dp492
g49
V10.1007/BF00019944
p493
sg45
VPLANT MOL BIOL
p494
sg47
V21
p495
sg78
(lp496
(VMIZOGUCHI
VT
tp497
asg57
I1993
sg43
VLANT
p498
sbag1
(g2
g3
NtRp499
(dp500
g49
V10.1111/j.1432-1033.1990.tb19368.x
p501
sg45
VEUR J BIOCHEM
p502
sg47
V193
p503
sg78
(lp504
(VMULNERLORILLON
VO
tp505
asg57
I1990
sg43
V529
p506
sbag1
(g2
g3
NtRp507
(dp508
g49
Nsg45
VPLANT PHYSIOL
p509
sg47
V104
p510
sg78
(lp511
(VNEFF
VM M
tp512
asg57
I1994
sg43
VLANT
p513
sbag1
(g2
g3
NtRp514
(dp515
g49
V10.1016/0092-8674(93)90272-R
p516
sg45
VCELL
p517
sg47
V73
p518
sg78
(lp519
(VNEUHAUS
VG
tp520
asg57
I1993
sg43
V937
p521
sbag1
(g2
g3
NtRp522
(dp523
g49
Nsg45
VPLANT CELL PHYSIOL
p524
sg47
V29
p525
sg78
(lp526
(VOTTO
VV
tp527
asg57
I1988
sg43
VLANT
p528
sbag1
(g2
g3
NtRp529
(dp530
g49
V10.1101/gad.11.22.2983
p531
sg45
VGENE DEV
p532
sg47
V11
p533
sg78
(lp534
(VOYAMA
VT
tp535
asg57
I1997
sg43
V2983
p536
sbag1
(g2
g3
NtRp537
(dp538
g49
Nsg45
VMOL CELL BIOL
p539
sg47
V10
p540
sg78
(lp541
(VPADMANABHA
VR
tp542
asg57
I1990
sg43
V4089
p543
sbag1
(g2
g3
NtRp544
(dp545
g49
Nsg45
VJ CELL BIOCHEM
p546
sg47
V64
p547
sg78
(lp548
(VPENNER
VC G
tp549
asg57
I1997
sg43
V525
p550
sbag1
(g2
g3
NtRp551
(dp552
g49
Nsg45
VGENETICS
p553
sg47
V145
p554
sg78
(lp555
(VPEPPER
VA E
tp556
asg57
I1997
sg43
V1125
p557
sbag1
(g2
g3
NtRp558
(dp559
g49
Nsg45
VJ BIOL CHEM
p560
sg47
V269
p561
sg78
(lp562
(VPEPPERKOK
VR
tp563
asg57
I1994
sg43
V6986
p564
sbag1
(g2
g3
NtRp565
(dp566
g49
V10.1016/S1357-2725(96)00142-2
p567
sg45
VINT J BIOCHEM CELL B
p568
sg47
V29
p569
sg78
(lp570
(VPINNA
VL A
tp571
asg57
I1997
sg43
V551
p572
sbag1
(g2
g3
NtRp573
(dp574
g49
V10.1016/0167-4889(90)90098-X
p575
sg45
VBIOCHIM BIOPHYS ACTA
p576
sg47
V1054
p577
sg78
(lp578
(VPINNA
VL A
tp579
asg57
I1990
sg43
V267
p580
sbag1
(g2
g3
NtRp581
(dp582
g49
V10.1002/bies.950120305
p583
sg45
VBIOESSAYS
p584
sg47
V12
p585
sg78
(lp586
(VRALPH
VR K
tp587
asg57
I1990
sg43
V121
p588
sbag1
(g2
g3
NtRp589
(dp590
g49
Nsg45
VPLANT PHYSIOL
p591
sg47
V104
p592
sg78
(lp593
(VREED
VJ W
tp594
asg57
I1994
sg43
VLANT
p595
sbag1
(g2
g3
NtRp596
(dp597
g49
V10.1073/pnas.89.10.4718
p598
sg45
VP NATL ACAD SCI USA
p599
sg47
V89
p600
sg78
(lp601
(VREYMOND
VP
tp602
asg57
I1992
sg43
V4718
p603
sbag1
(g2
g3
NtRp604
(dp605
g49
Nsg45
VEMBO J
p606
sg47
V10
p607
sg78
(lp608
(VRIHS
VH P
tp609
asg57
I1991
sg43
V633
p610
sbag1
(g2
g3
NtRp611
(dp612
g49
Nsg45
VP187
p613
sg47
Nsg78
(lp614
(VROUX
VSTANLEY J
tp615
asg57
I1994
sg43
V187
p616
sbag1
(g2
g3
NtRp617
(dp618
g49
Nsg45
VJ BIOL CHEM
p619
sg47
V267
p620
sg78
(lp621
(VRUSSO
VG L
tp622
asg57
I1992
sg43
V20317
p623
sbag1
(g2
g3
NtRp624
(dp625
g49
Nsg45
VBIOCHEM J
p626
sg47
V283
p627
sg78
(lp628
(VSACKS
VD B
tp629
asg57
I1992
sg43
V21
p630
sbag1
(g2
g3
NtRp631
(dp632
g49
Nsg45
VPLANT CELL
p633
sg47
V4
sg78
(lp634
(VSAROKIN
VL P
tp635
asg57
I1992
sg43
VLANT
p636
sbag1
(g2
g3
NtRp637
(dp638
g49
V10.1016/0378-1119(87)90359-3
p639
sg45
VGENE
p640
sg47
V61
p641
sg78
(lp642
(VSCHARDL
VC L
tp643
asg57
I1987
sg43
V1
sbag1
(g2
g3
NtRp644
(dp645
g49
Nsg45
VEMBO J
p646
sg47
V9
sg78
(lp647
(VSCHINDLER
VU
tp648
asg57
I1990
sg43
V3415
p649
sbag1
(g2
g3
NtRp650
(dp651
g49
Nsg45
VPLANT CELL
p652
sg47
V4
sg78
(lp653
(VSCHMIDT
VR J
tp654
asg57
I1992
sg43
VLANT
p655
sbag1
(g2
g3
NtRp656
(dp657
g49
Nsg45
VPLANT CELL
p658
sg47
V1
sg78
(lp659
(VSCHULZE-LEFERT
VP
tp660
asg57
I1989
sg43
VLANT
p661
sbag1
(g2
g3
NtRp662
(dp663
g49
V10.1126/science.7846532
p664
sg45
VSCIENCE
p665
sg47
V267
p666
sg78
(lp667
(VSELDIN
VD C
tp668
asg57
I1995
sg43
V894
p669
sbag1
(g2
g3
NtRp670
(dp671
g49
Nsg45
VEMBO J
p672
sg47
V12
p673
sg78
(lp674
(VSHEEN
VJ
tp675
asg57
I1993
sg43
V3497
p676
sbag1
(g2
g3
NtRp677
(dp678
g49
V10.1104/pp.108.2.451
p679
sg45
VPLANT PHYSIOL
p680
sg47
V108
p681
sg78
(lp682
(VSTONE
VJ M
tp683
asg57
I1995
sg43
VLANT
p684
sbag1
(g2
g3
NtRp685
(dp686
g49
V10.1111/j.1751-1097.1990.tb01754.x
p687
sg45
VPHOTOCHEM PHOTOBIOL
p688
sg47
V52
p689
sg78
(lp690
(VSUN
VL
tp691
asg57
I1990
sg43
VHOTOCHEM
p692
sbag1
(g2
g3
NtRp693
(dp694
g49
V10.1046/j.1365-313X.1997.11050967.x
p695
sg45
VPLANT J
p696
sg47
V11
p697
sg78
(lp698
(VTERZAGHI
VW B
tp699
asg57
I1997
sg43
VLANT
p700
sbag1
(g2
g3
NtRp701
(dp702
g49
V10.1146/annurev.arplant.46.1.445
p703
sg45
VANNU REV PLANT PHYS
p704
sg47
V46
p705
sg78
(lp706
(VTERZAGHI
VW B
tp707
asg57
I1995
sg43
V445
p708
sbag1
(g2
g3
NtRp709
(dp710
g49
Nsg45
VPLANT CELL
p711
sg47
V6
sg78
(lp712
(VTJADEN
VG
tp713
asg57
I1994
sg43
VLANT
p714
sbag1
(g2
g3
NtRp715
(dp716
g49
V10.1111/j.1751-1097.1996.tb01848.x
p717
sg45
VPHOTOCHEM PHOTOBIOL
p718
sg47
V64
p719
sg78
(lp720
(VTONG
VC G
tp721
asg57
I1996
sg43
VHOTOCHEM
p722
sbag1
(g2
g3
NtRp723
(dp724
g49
V10.1016/0168-9525(91)90255-O
p725
sg45
VTRENDS GENET
p726
sg47
V7
sg78
(lp727
(VTREWAVAS
VA
tp728
asg57
I1991
sg43
V356
p729
sbag1
(g2
g3
NtRp730
(dp731
g49
Nsg45
VADV SEC MESS PHOSPH
p732
sg47
V23
p733
sg78
(lp734
(VTUAZON
VP T
tp735
asg57
I1991
sg43
V123
p736
sbag1
(g2
g3
NtRp737
(dp738
g49
Nsg45
VPLANT CELL
p739
sg47
V4
sg78
(lp740
(VUEDA
VT
tp741
asg57
I1992
sg43
VLANT
p742
sbag1
(g2
g3
NtRp743
(dp744
g49
V10.1073/pnas.85.15.5536
p745
sg45
VP NATL ACAD SCI USA
p746
sg47
V85
p747
sg78
(lp748
(VVALVEKENS
VD
tp749
asg57
I1988
sg43
V5536
p750
sbag1
(g2
g3
NtRp751
(dp752
g49
V10.1105/tpc.9.4.491
p753
sg45
VPLANT CELL
p754
sg47
V9
sg78
(lp755
(VWANG
VZ Y
tp756
asg57
I1997
sg43
VLANT
p757
sbag1
(g2
g3
NtRp758
(dp759
g49
V10.1105/tpc.3.12.1289
p760
sg45
VPLANT CELL
p761
sg47
V3
sg78
(lp762
(VWANNER
VL A
tp763
asg57
I1991
sg43
VLANT
p764
sbag1
(g2
g3
NtRp765
(dp766
g49
Nsg45
VJ CELL SCI
p767
sg47
V104
p768
sg78
(lp769
(VWHITESIDE
VS T
tp770
asg57
I1993
sg43
V949
p771
sbag1
(g2
g3
NtRp772
(dp773
g49
Nsg45
VPLANT CELL
p774
sg47
V4
sg78
(lp775
(VWILLIAMS
VM E
tp776
asg57
I1992
sg43
VLANT
p777
sbag1
(g2
g3
NtRp778
(dp779
g49
V10.1016/0167-4781(92)90083-C
p780
sg45
VBIOCHIM BIOPHYS ACTA
p781
sg47
V1131
p782
sg78
(lp783
(VWIRKNER
VU
tp784
asg57
I1992
sg43
V220
p785
sbag1
(g2
g3
NtRp786
(dp787
g49
V10.1073/pnas.86.10.3469
p788
sg45
VP NATL ACAD SCI USA
p789
sg47
V86
p790
sg78
(lp791
(VWONG
VY S
tp792
asg57
I1989
sg43
V3469
p793
sbag1
(g2
g3
NtRp794
(dp795
g49
V10.1104/pp.91.2.709
p796
sg45
VPLANT PHYSIOL
p797
sg47
V91
p798
sg78
(lp799
(VWONG
VY S
tp800
asg57
I1989
sg43
VLANT
p801
sbag1
(g2
g3
NtRp802
(dp803
g49
V10.1104/pp.96.4.1387
p804
sg45
VPLANT PHYSIOL
p805
sg47
V96
p806
sg78
(lp807
(VZHANG
VH
tp808
asg57
I1991
sg43
VLANT
p809
sbasb.