ccopy_reg
_reconstructor
p1
(ctethne.classes.paper
Paper
p2
c__builtin__
object
p3
NtRp4
(dp5
S'publisherCity'
p6
VROCKVILLE
p7
sS'reprintAddress'
p8
VWagner, A (reprint author), Scion, Private Bag 3020, Rotorua 3010, New Zealand.
p9
sS'WC'
p10
VPlant Sciences
p11
sS'GA'
p12
V454EB
p13
sS'FX'
p14
(lp15
VThis work was supported by the New Zealand Foundation for Research,
p16
aVScience, and Technology (grant nos. C04X0207 and C04X0703) and by a
p17
aVScion Postdoctoral Fellowship to S. W. M.
p18
asS'abstract'
p19
VSoftwood species such as pines react to gravitropic stimuli by producing compression wood, which unlike normal wood contains significant amounts of beta(1,4)-galactan. Currently, little is known regarding the biosynthesis or physiological function of this polymer or the regulation of its deposition. The subcellular location of beta(1,4)-galactan in developing tracheids was investigated in Pinus radiata D. Don using anti-beta(1,4)-galactan antibodies to gain insight into its possible physiological role in compression wood. beta(1,4)-Galactan was prominent and evenly distributed throughout the S2 layer of developing tracheid cell walls in P. radiata compression wood. In contrast, beta(1,4)-galactan was not detected in normal wood. Greatly reduced antibody labeling was observed in fully lignified compression wood tracheids, implying that lignification results in masking of the epitope. To begin to understand the biosynthesis of galactan and its regulation, an assay was developed to monitor the enzyme that elongates the beta(1,4)-galactan backbone in pine. A beta(1,4)-galactosyltransferase (GalT) activity capable of extending 2-aminopyridine-labeled galacto-oligosaccharides was found to be associated with microsomes. Digestion of the enzymatic products using a beta(1,4)-specific endogalactanase confirmed the production of beta(1,4)-galactan by this enzyme. This GalT activity was substantially higher in compression wood relative to normal wood. Characterization of the identified pine GalT enzyme activity revealed pH and temperature optima of 7.0 and 20 degrees C, respectively. The beta(1,4)-galactan produced by the pine GalT had a higher degree of polymerization than most pectic galactans found in angiosperms. This observation is consistent with the high degree of polymerization of the naturally occurring beta(1,4)-galactan in pine.
p20
sS'pageEnd'
p21
I583
sS'date'
p22
I2009
sS'documentType'
p23
VArticle
p24
sS'subject'
p25
VPlant Sciences
p26
sS'isoSource'
p27
VPlant Physiol.
p28
sS'timesCited'
p29
(lp30
I10
aVZ9 12
p31
asS'funding'
p32
(lp33
(VNew Zealand Foundation for Research, Science, and Technology
VC04X0207, C04X0703
tp34
a(VScion Postdoctoral Fellowship
Ntp35
asS'PT'
p36
VJ
sS'title'
p37
VExploring The Ultrastructural Localization And Biosynthesis Of Beta(1,4)-Galactan In Pinus Radiata Compression Wood
p38
sS'ISSN'
p39
(lp40
V0032-0889
p41
aVJ9 PLANT PHYSIOL
p42
asS'authors_full'
p43
(lp44
(VMAST
VSTEVEN W
tp45
a(VDONALDSON
VLLOYD
tp46
a(VTORR
VKIRK
tp47
a(VPHILLIPS
VLORELLE
tp48
a(VFLINT
VHEATHER
tp49
a(VWEST
VMARK
tp50
a(VSTRABALA
VTIMOTHY J
tp51
a(VWAGNER
VARMIN
tp52
asS'PG'
p53
I11
sS'PD'
p54
VJUN
p55
sS'pageStart'
p56
I573
sS'issue'
p57
I2
sS'RI'
p58
VStrabala, Timothy/B-4472-2008
p59
sS'journal'
p60
VPLANT PHYSIOLOGY
p61
sS'volume'
p62
V150
p63
sS'doi'
p64
V10.1104/pp.108.134379
p65
sS'emailAddress'
p66
Varmin.wagner@scionresearch.com
p67
sS'authorAddress'
p68
V[Mast, Steven W.; Donaldson, Lloyd; Torr, Kirk; Phillips, Lorelle; Flint, Heather; West, Mark; Strabala, Timothy J.; Wagner, Armin] Scion, Rotorua 3010, New Zealand.
p69
sS'publisherAddress'
p70
V15501 MONONA DRIVE, ROCKVILLE, MD 20855 USA
p71
sS'ER'
p72
V
sS'publisher'
p73
VAMER SOC PLANT BIOLOGISTS
p74
sS'authorKeywords'
p75
(lp76
VTHERMAL-DEGRADATION PRODUCTS
p77
aVMEMBRANE-BOUND GALACTOSYLTRANSFERASE
p78
aVMASS-SPECTROMETRIC CHARACTERIZATION
p79
aVPOLYSACCHARIDE DERIVED PRODUCTS
p80
aVGAS-CHROMATOGRAPHIC SEPARATION
p81
aVLIGNIN-CARBOHYDRATE COMPLEXES
p82
aVIN-VITRO BIOSYNTHESIS
p83
aVRHAMNOGALACTURONAN-I
p84
aVPECTIC GALACTAN
p85
aVTENSION WOOD
p86
asS'OI'
p87
VStrabala, Timothy/0000-0002-0368-9400
p88
sS'language'
p89
VEnglish
p90
sS'wosid'
p91
VWOS:000266663700005
p92
sS'citationCount'
p93
I46
sS'authors_init'
p94
(lp95
(VMAST
VS W
tp96
a(VDONALDSON
VL
tp97
a(VTORR
VK
tp98
a(VPHILLIPS
VL
tp99
a(VFLINT
VH
tp100
a(VWEST
VM
tp101
a(VSTRABALA
VT J
tp102
a(VWAGNER
VA
tp103
asS'citedReferences'
p104
(lp105
g1
(g2
g3
NtRp106
(dp107
g64
V10.1007/s00425-002-0861-y
p108
sg60
VPLANTA
p109
sg62
V216
p110
sg94
(lp111
(VABDEL-MASSIH
VR M
tp112
asg22
I2003
sg56
VLANTA
p113
sbag1
(g2
g3
NtRp114
(dp115
g64
V10.1515/HF.2007.049
p116
sg60
VHOLZFORSCHUNG
p117
sg62
V61
p118
sg94
(lp119
(VALTANER
VC
tp120
asg22
I2007
sg56
V311
p121
sbag1
(g2
g3
NtRp122
(dp123
g64
Nsg60
VTREE PHYSIOL
p124
sg62
V28
p125
sg94
(lp126
(VAREND
VM
tp127
asg22
I2008
sg56
V1263
p128
sbag1
(g2
g3
NtRp129
(dp130
g64
Nsg60
VMETHOD ENZYMOL
p131
sg62
V148
p132
sg94
(lp133
(VBRISKIN
VD P
tp134
asg22
I1987
sg56
V542
p135
sbag1
(g2
g3
NtRp136
(dp137
g64
V10.1007/s00226-006-0121-6
p138
sg60
VWOOD SCI TECHNOL
p139
sg62
V41
p140
sg94
(lp141
(VDONALDSON
VL
tp142
asg22
I2007
sg56
V443
p143
sbag1
(g2
g3
NtRp144
(dp145
g64
Nsg60
VCAN J BOT
p146
sg62
V77
p147
sg94
(lp148
(VDONALDSON
VL A
tp149
asg22
I1999
sg56
V41
p150
sbag1
(g2
g3
NtRp151
(dp152
g64
V10.1111/j.1744-7909.2007.00427.x
p153
sg60
VJ INTEGR PLANT BIOL
p154
sg62
V49
p155
sg94
(lp156
(VDU
VS
tp157
asg22
I2007
sg56
V131
p158
sbag1
(g2
g3
NtRp159
(dp160
g64
Nsg60
VHOLZ ROH WERKST
p161
sg62
V48
p162
sg94
(lp163
(VFAIX
VO
tp164
asg22
I1990
sg56
V281
p165
sbag1
(g2
g3
NtRp166
(dp167
g64
V10.1007/BF02613278
p168
sg60
VHOLZ ROH WERKST
p169
sg62
V49
p170
sg94
(lp171
(VFAIX
VO
tp172
asg22
I1991
sg56
V213
p173
sbag1
(g2
g3
NtRp174
(dp175
g64
V10.1007/BF02663795
p176
sg60
VHOLZ ROH WERKST
p177
sg62
V49
p178
sg94
(lp179
(VFAIX
VO
tp180
asg22
I1991
sg56
V299
p181
sbag1
(g2
g3
NtRp182
(dp183
g64
Nsg60
VHEM WORKSH WOOD TECH
p184
sg62
Nsg94
(lp185
(VFLOYD
VS
tp186
asg22
I2005
sg56
V115
p187
sbag1
(g2
g3
NtRp188
(dp189
g64
V10.1007/s00425-003-1168-3
p190
sg60
VPLANTA
p191
sg62
V218
p192
sg94
(lp193
(VGESHI
VN
tp194
asg22
I2004
sg56
VLANTA
p195
sbag1
(g2
g3
NtRp196
(dp197
g64
V10.1034/j.1399-3054.2002.1140406.x
p198
sg60
VPHYSIOL PLANTARUM
p199
sg62
V114
p200
sg94
(lp201
(VGESHI
VN
tp202
asg22
I2002
sg56
VHYSIOL
p203
sbag1
(g2
g3
NtRp204
(dp205
g64
V10.1007/s00425-005-0118-7
p206
sg60
VPLANTA
p207
sg62
V223
p208
sg94
(lp209
(VGORSHKOVA
VT
tp210
asg22
I2006
sg56
VLANTA
p211
sbag1
(g2
g3
NtRp212
(dp213
g64
Nsg60
VJ ASSOC OFF ANA CHEM
p214
sg62
V71
p215
sg94
(lp216
(VHARRIS
VP J
tp217
asg22
I1988
sg56
V272
p218
sbag1
(g2
g3
NtRp219
(dp220
g64
Nsg60
VMETHOD ENZYMOL
p221
sg62
V230
p222
sg94
(lp223
(VHASE
VS
tp224
asg22
I1994
sg56
V225
p225
sbag1
(g2
g3
NtRp226
(dp227
g64
V10.1021/jf9808776
p228
sg60
VJ AGR FOOD CHEM
p229
sg62
V47
p230
sg94
(lp231
(VHATFIELD
VR D
tp232
asg22
I1999
sg56
V628
p233
sbag1
(g2
g3
NtRp234
(dp235
g64
V10.1007/s00425-004-1219-4
p236
sg60
VPLANTA
p237
sg62
V219
p238
sg94
(lp239
(VISHII
VT
tp240
asg22
I2004
sg56
VLANTA
p241
sbag1
(g2
g3
NtRp242
(dp243
g64
V10.1007/s004250050680
p244
sg60
VPLANTA
p245
sg62
V210
p246
sg94
(lp247
(VISHIKAWA
VM
tp248
asg22
I2000
sg56
VLANTA
p249
sbag1
(g2
g3
NtRp250
(dp251
g64
Nsg60
VPLANT PHYSIOL
p252
sg62
V113
p253
sg94
(lp254
(VJONES
VL
tp255
asg22
I1997
sg56
VLANT
p256
sbag1
(g2
g3
NtRp257
(dp258
g64
V10.1007/s00425-003-0978-7
p259
sg60
VPLANTA
p260
sg62
V217
p261
sg94
(lp262
(VKATO
VH
tp263
asg22
I2003
sg56
VLANTA
p264
sbag1
(g2
g3
NtRp265
(dp266
g64
V10.1016/0008-6215(94)00010-D
p267
sg60
VCARBOHYD RES
p268
sg62
V270
p269
sg94
(lp270
(VKIMURA
VK
tp271
asg22
I1995
sg56
V33
p272
sbag1
(g2
g3
NtRp273
(dp274
g64
V10.1007/s00425-007-0505-3
p275
sg60
VPLANTA
p276
sg62
V226
p277
sg94
(lp278
(VKONISHI
VT
tp279
asg22
I2007
sg56
VLANTA
p280
sbag1
(g2
g3
NtRp281
(dp282
g64
V10.1007/s00425-003-1163-8
p283
sg60
VPLANTA
p284
sg62
V218
p285
sg94
(lp286
(VKONISHI
VT
tp287
asg22
I2004
sg56
VLANTA
p288
sbag1
(g2
g3
NtRp289
(dp290
g64
V10.1515/HF.2004.115
p291
sg60
VHOLZFORSCHUNG
p292
sg62
V58
p293
sg94
(lp294
(VLAINE
VC
tp295
asg22
I2004
sg56
V611
p296
sbag1
(g2
g3
NtRp297
(dp298
g64
V10.1080/02773818208085116
p299
sg60
VJournal of Wood Chemistry and Technology
p300
sg62
V2
sg94
(lp301
(VMINOR
VJ L
tp302
asg22
I1982
sg56
V1
sbag1
(g2
g3
NtRp303
(dp304
g64
Nsg60
VP 2 NZ GERM WORKSH P
p305
sg62
Nsg94
(lp306
(VMOLLER
VR
tp307
asg22
I2007
sg56
V105
p308
sbag1
(g2
g3
NtRp309
(dp310
g64
V10.1007/s00425-003-1053-0
p311
sg60
VPLANTA
p312
sg62
V217
p313
sg94
(lp314
(VMOLLER
VR
tp315
asg22
I2003
sg56
VLANTA
p316
sbag1
(g2
g3
NtRp317
(dp318
g64
V10.1515/hfsg.1981.35.5.233
p319
sg60
VHOLZFORSCHUNG
p320
sg62
V35
p321
sg94
(lp322
(VMUKOYOSHI
VS I
tp323
asg22
I1981
sg56
V233
p324
sbag1
(g2
g3
NtRp325
(dp326
g64
Nsg60
VTHESIS U WAIKATO HAM
p327
sg62
Nsg94
(lp328
(VNANAYAKKARA
VB
tp329
asg22
I2007
sg56
Nsbag1
(g2
g3
NtRp330
(dp331
g64
Nsg60
VP 59 APP ANN C APP C
p332
sg62
V2
sg94
(lp333
(VNANAYAKKARA
VB
tp334
asg22
I2005
sg56
V585
p335
sbag1
(g2
g3
NtRp336
(dp337
g64
V10.1007/s004250100539
p338
sg60
VPLANTA
p339
sg62
V213
p340
sg94
(lp341
(VPEUGNET
VI
tp342
asg22
I2001
sg56
VLANTA
p343
sbag1
(g2
g3
NtRp344
(dp345
g64
V10.1021/jf00008a014
p346
sg60
VJ AGR FOOD CHEM
p347
sg62
V39
p348
sg94
(lp349
(VRALPH
VJ
tp350
asg22
I1991
sg56
V1426
p351
sbag1
(g2
g3
NtRp352
(dp353
g64
V10.1016/j.pbi.2008.03.008
p354
sg60
VCURR OPIN PLANT BIOL
p355
sg62
V11
p356
sg94
(lp357
(VREYES
VF
tp358
asg22
I2008
sg56
V244
p359
sbag1
(g2
g3
NtRp360
(dp361
g64
V10.1016/S0031-9422(01)00113-3
p362
sg60
VPHYTOCHEMISTRY
p363
sg62
V57
p364
sg94
(lp365
(VRIDLEY
VB L
tp366
asg22
I2001
sg56
VHYTOCHEMISTRY
p367
sbag1
(g2
g3
NtRp368
(dp369
g64
V10.1007/s00425-002-0884-4
p370
sg60
VPLANTA
p371
sg62
V216
p372
sg94
(lp373
(VSAMUELS
VA L
tp374
asg22
I2002
sg56
VLANTA
p375
sbag1
(g2
g3
NtRp376
(dp377
g64
Nsg60
VNew Zealand Journal of Forestry Science
p378
sg62
V36
p379
sg94
(lp380
(VSCHMITT
VU W E
tp381
asg22
I2006
sg56
V72
p382
sbag1
(g2
g3
NtRp383
(dp384
g64
Nsg60
VCAN J BOT
p385
sg62
V77
p386
sg94
(lp387
(VSINGH
VA P
tp388
asg22
I1999
sg56
V32
p389
sbag1
(g2
g3
NtRp390
(dp391
g64
V10.1104/pp.127.1.360
p392
sg60
VPLANT PHYSIOL
p393
sg62
V127
p394
sg94
(lp395
(VSTERLING
VJ D
tp396
asg22
I2001
sg56
VLANT
p397
sbag1
(g2
g3
NtRp398
(dp399
g64
V10.1016/0377-8401(91)90007-F
p400
sg60
VANIM FEED SCI TECH
p401
sg62
V32
p402
sg94
(lp403
(VTHEANDER
VO
tp404
asg22
I1991
sg56
V35
p405
sbag1
(g2
g3
NtRp406
(dp407
g64
Nsg60
VSVEN PAPPERSTIDN
p408
sg62
V72
p409
sg94
(lp410
(VTIMELL
VT E
tp411
asg22
I1969
sg56
V173
p412
sbag1
(g2
g3
NtRp413
(dp414
g64
Nsg60
VCOMPRESSION WOOD GYM
p415
sg62
V1
sg94
(lp416
(VTIMELL
VT E
tp417
asg22
I1986
sg56
Nsbag1
(g2
g3
NtRp418
(dp419
g64
Nsg60
VP INT S WOOD PULP CH
p420
sg62
Nsg94
(lp421
(VVIKKULA
VA
tp422
asg22
I1997
sg56
Nsbag1
(g2
g3
NtRp423
(dp424
g64
V10.1073/pnas.0701428104
p425
sg60
VP NATL ACAD SCI USA
p426
sg62
V104
p427
sg94
(lp428
(VWAGNER
VA
tp429
asg22
I2007
sg56
V11856
p430
sbag1
(g2
g3
NtRp431
(dp432
g64
V10.1007/s00226-001-0137-x
p433
sg60
VWOOD SCI TECHNOL
p434
sg62
V36
p435
sg94
(lp436
(VWILLFOR
VS
tp437
asg22
I2002
sg56
V101
p438
sbag1
(g2
g3
NtRp439
(dp440
g64
V10.1515/HF.2006.001
p441
sg60
VHOLZFORSCHUNG
p442
sg62
V60
p443
sg94
(lp444
(VYEH
VT F
tp445
asg22
I2006
sg56
V1
sbasb.