ccopy_reg
_reconstructor
p1
(ctethne.classes.paper
Paper
p2
c__builtin__
object
p3
NtRp4
(dp5
S'publisherCity'
p6
VROCKVILLE
p7
sS'WC'
p8
VPlant Sciences
p9
sS'pageEnd'
p10
I311
sS'publisherAddress'
p11
V15501 MONONA DRIVE, ROCKVILLE, MD 20855 USA
p12
sS'documentType'
p13
VEditorial Material
p14
sS'subject'
p15
VPlant Sciences
p16
sS'isoSource'
p17
VPlant Physiol.
p18
sS'timesCited'
p19
(lp20
I39
aVZ9 46
p21
asS'PT'
p22
VJ
sS'title'
p23
VThe Roles Of Reactive Oxygen Species In Plant Cells
p24
sS'ISSN'
p25
(lp26
V0032-0889
p27
aVJ9 PLANT PHYSIOL
p28
asS'authors_full'
p29
(lp30
(VBAILEYSERRES
VJ
tp31
a(VMITTLER
VR
tp32
asS'PG'
p33
I1
sS'PD'
p34
VJUN
p35
sS'pageStart'
p36
I311
sS'issue'
p37
I2
sS'journal'
p38
VPLANT PHYSIOLOGY
p39
sS'volume'
p40
V141
p41
sS'GA'
p42
V051NW
p43
sS'date'
p44
I2006
sS'ER'
p45
V
sS'publisher'
p46
VAMER SOC PLANT BIOLOGISTS
p47
sS'doi'
p48
V10.1104/pp.104.900191
p49
sS'language'
p50
VEnglish
p51
sS'wosid'
p52
VWOS:000238168800001
p53
sS'citationCount'
p54
I0
sS'authors_init'
p55
(lp56
(VBAILEYSERRES
VJ
tp57
a(VMITTLER
VR
tp58
asb.