ccopy_reg
_reconstructor
p1
(ctethne.classes.paper
Paper
p2
c__builtin__
object
p3
NtRp4
(dp5
S'publisherCity'
p6
VROCKVILLE
p7
sS'reprintAddress'
p8
VWeil, CF (reprint author), Purdue Univ, Dept Agron, W Lafayette, IN 47907 USA.
p9
sS'WC'
p10
VPlant Sciences
p11
sS'GA'
p12
V391VE
p13
sS'pageEnd'
p14
I164
sS'publisherAddress'
p15
V15501 MONONA DRIVE, ROCKVILLE, MD 20855 USA
p16
sS'documentType'
p17
VEditorial Material
p18
sS'subject'
p19
VPlant Sciences
p20
sS'isoSource'
p21
VPlant Physiol.
p22
sS'timesCited'
p23
(lp24
I21
aVZ9 21
p25
asS'PT'
p26
VJ
sS'title'
p27
VTilling In Grass Species
p28
sS'ISSN'
p29
(lp30
V0032-0889
p31
aVJ9 PLANT PHYSIOL
p32
asS'authors_full'
p33
(lp34
(VWEIL
VCLIFFORD F
tp35
asS'PG'
p36
I7
sS'PD'
p37
VJAN
p38
sS'pageStart'
p39
I158
sS'issue'
p40
I1
sS'journal'
p41
VPLANT PHYSIOLOGY
p42
sS'volume'
p43
V149
p44
sS'doi'
p45
V10.1104/pp.108.128785
p46
sS'emailAddress'
p47
Vcweil@purdue.edu
p48
sS'authorAddress'
p49
VPurdue Univ, Dept Agron, W Lafayette, IN 47907 USA.
p50
sS'date'
p51
I2009
sS'ER'
p52
V
sS'publisher'
p53
VAMER SOC PLANT BIOLOGISTS
p54
sS'authorKeywords'
p55
(lp56
VMUTANT POPULATION
p57
aVDISCOVERY
p58
aVMAIZE
p59
aVMUTATIONS
p60
aVDIVERSITY
p61
aVBARLEY
p62
aVPOINT
p63
aVRICE
p64
asS'language'
p65
VEnglish
p66
sS'wosid'
p67
VWOS:000262261500023
p68
sS'citationCount'
p69
I18
sS'authors_init'
p70
(lp71
(VWEIL
VC F
tp72
asS'citedReferences'
p73
(lp74
g1
(g2
g3
NtRp75
(dp76
g45
V10.1111/j.1365-313X.2004.02190.x
p77
sg41
VPLANT J
p78
sg43
V40
p79
sg70
(lp80
(VCALDWELL
VD G
tp81
asg51
I2004
sg39
VLANT
p82
sbag1
(g2
g3
NtRp83
(dp84
g45
V10.1111/j.1365-313X.2006.02670.x
p85
sg41
VPLANT J
p86
sg43
V45
p87
sg70
(lp88
(VCOMAI
VL
tp89
asg51
I2006
sg39
VLANT
p90
sbag1
(g2
g3
NtRp91
(dp92
g45
V10.1111/j.1365-313X.2003.01999.x
p93
sg41
VPLANT J
p94
sg43
V37
p95
sg70
(lp96
(VCOMAI
VL
tp97
asg51
I2004
sg39
VLANT
p98
sbag1
(g2
g3
NtRp99
(dp100
g45
V10.2135/cropsci2007.06.0332tpg
p101
sg41
VCROP SCI
p102
sg43
V48
p103
sg70
(lp104
(VGARVIN
VD F
tp105
asg51
I2008
sg39
VS69
p106
sbag1
(g2
g3
NtRp107
(dp108
g45
V10.1007/s12155-008-9010-1
p109
sg41
VBIOENERG RES
p110
sg43
V1
sg70
(lp111
(VGROTH
VD
tp112
asg51
I2008
sg39
V118
p113
sbag1
(g2
g3
NtRp114
(dp115
g45
Nsg41
VGENETICS
p116
sg43
V165
p117
sg70
(lp118
(VLIU
VK J
tp119
asg51
I2003
sg39
V2117
p120
sbag1
(g2
g3
NtRp121
(dp122
g45
V10.1104/pp.123.2.439
p123
sg41
VPLANT PHYSIOL
p124
sg43
V123
p125
sg70
(lp126
(VMCCALLUM
VC M
tp127
asg51
I2000
sg39
VLANT
p128
sbag1
(g2
g3
NtRp129
(dp130
g45
V10.1007/s12155-008-9011-0
p131
sg41
VBIOENERG RES
p132
sg43
V1
sg70
(lp133
(VNARASIMHAMOORTHY
VB
tp134
asg51
I2008
sg39
V136
p135
sbag1
(g2
g3
NtRp136
(dp137
g45
V10.1038/nbt1043
p138
sg41
VNAT BIOTECHNOL
p139
sg43
V23
p140
sg70
(lp141
(VSLADE
VA J
tp142
asg51
I2005
sg39
V75
p143
sbag1
(g2
g3
NtRp144
(dp145
g45
V10.1007/s00438-007-0293-2
p146
sg41
VMOL GENET GENOMICS
p147
sg43
V279
p148
sg70
(lp149
(VSUZUKI
VT
tp150
asg51
I2008
sg39
V213
p151
sbag1
(g2
g3
NtRp152
(dp153
g45
V10.1111/j.1467-7652.2008.00341.x
p154
sg41
VPLANT BIOTECHNOL J
p155
sg43
V6
sg70
(lp156
(VTALAME
VV
tp157
asg51
I2008
sg39
VLANT
p158
sbag1
(g2
g3
NtRp159
(dp160
g45
V10.1186/1471-2229-4-12
p161
sg41
VBMC Plant Biology
p162
sg43
V4
sg70
(lp163
(VTILL
VBRADLEY J
tp164
asg51
I2004
sg39
V12
p165
sbag1
(g2
g3
NtRp166
(dp167
g45
V10.1093/nar/gkh599
p168
sg41
VNUCLEIC ACIDS RES
p169
sg43
V32
p170
sg70
(lp171
(VTILL
VB J
tp172
asg51
I2004
sg39
V2632
p173
sbag1
(g2
g3
NtRp174
(dp175
g45
V10.1186/1471-2229-7-19
p176
sg41
VBMC PLANT BIOL
p177
sg43
V7
sg70
(lp178
(VTILL
VB J
tp179
asg51
I2007
sg39
Nsbag1
(g2
g3
NtRp180
(dp181
g45
V10.1038/nprot.2006.329
p182
sg41
VNAT PROTOC
p183
sg43
V1
sg70
(lp184
(VTILL
VB J
tp185
asg51
I2006
sg39
V2465
p186
sbag1
(g2
g3
NtRp187
(dp188
g45
V10.1186/1471-2229-8-103
p189
sg41
VBMC PLANT BIOL
p190
sg43
V8
sg70
(lp191
(VXIN
VZ G
tp192
asg51
I2008
sg39
Nsbag1
(g2
g3
NtRp193
(dp194
g45
V10.2135/cropsci2006.09.0563tpg
p195
sg41
VCROP SCI
p196
sg43
V47
p197
sg70
(lp198
(VWEIL
VC F
tp199
asg51
I2007
sg39
VS60
p200
sbag1
(g2
g3
NtRp201
(dp202
g45
V10.1073/pnas.202476999
p203
sg41
VP NATL ACAD SCI USA
p204
sg43
V99
p205
sg70
(lp206
(VWHITT
VS R
tp207
asg51
I2002
sg39
V12959
p208
sbasb.