ccopy_reg
_reconstructor
p1
(ctethne.classes.paper
Paper
p2
c__builtin__
object
p3
NtRp4
(dp5
S'publisherCity'
p6
VROCKVILLE
p7
sS'reprintAddress'
p8
VCochard, H (reprint author), Univ Clermont Ferrand, Inst Natl Rech Agron, UMR 547, Site Crouelle, F-63039 Clermont Ferrand 02, France.
p9
sS'WC'
p10
VPlant Sciences
p11
sS'GA'
p12
V512YR
p13
sS'abstract'
p14
VThe objectives of the study were to identify the relevant hydraulic parameters associated with stomatal regulation during water stress and to test the hypothesis of a stomatal control of xylem embolism in walnut (Juglans regia X nigra) trees. The hydraulic characteristics of the sap pathway were experimentally altered with different methods to alter plant transpiration (E-plant) and stomatal conductance (g(s)). Potted trees were exposed to a soil water depletion to alter soil water potential (Psi(soil)), soil resistance (R-soil), and root hydraulic resistances (R-root). Soil temperature was changed to alter R-root alone. Embolism was created in the trunk to increase shoot resistance (R-shoot). Stomata closed in response to these stresses with the effect of maintaining the water pressure in the leaf rachis Xylem (P-rachis) above - 1.4 MPa and the leaf water potential (Psi(leaf)) above - 1.6 MPa. The same dependence of E-plant and g(s) on P-rachis or Psi(leaf) was always observed. This suggested that stomata were not responding to changes in Psi(soil) R-root or R-shoot per se but rather to their impact on P-rachis and/or Psi(leaf). Leaf rachis was the most vulnerable organ, with a threshold P-rachis for embolism induction of - 1.4 MPa. The minimum Psi(leaf) values corresponded to leaf turgor loss point. This suggested that stomata are responding to leaf water status as determined by transpiration rate and plant hydraulics and that P-rachis might be the physiological parameter regulated by stomatal closure during water stress, which would have the effect of preventing extensive developments of cavitation during water stress.
p15
sS'pageEnd'
p16
I290
sS'publisherAddress'
p17
V15501 MONONA DRIVE, ROCKVILLE, MD 20855 USA
p18
sS'documentType'
p19
VArticle
p20
sS'subject'
p21
VPlant Sciences
p22
sS'isoSource'
p23
VPlant Physiol.
p24
sS'timesCited'
p25
(lp26
I142
aVZ9 146
p27
asS'PT'
p28
VJ
sS'title'
p29
VUnraveling The Effects Of Plant Hydraulics On Stomatal Closure During Water Stress In Walnut
p30
sS'ISSN'
p31
(lp32
V0032-0889
p33
aVJ9 PLANT PHYSIOL
p34
asS'authors_full'
p35
(lp36
(VCOCHARD
VH
tp37
a(VCOLL
VL
tp38
a(VLE ROUX
VX
tp39
a(VAMEGLIO
VT
tp40
asS'PG'
p41
I9
sS'PD'
p42
VJAN
p43
sS'pageStart'
p44
I282
sS'issue'
p45
I1
sS'RI'
p46
VAMEGLIO, THIERRY/E-1535-2011; Cochard, Herve/B-9707-2011
p47
sS'journal'
p48
VPLANT PHYSIOLOGY
p49
sS'volume'
p50
V128
p51
sS'doi'
p52
V10.1104/pp.010400
p53
sS'authorAddress'
p54
VUniv Clermont Ferrand, Inst Natl Rech Agron, UMR 547, F-63039 Clermont Ferrand 02, France.
p55
sS'date'
p56
I2002
sS'ER'
p57
V
sS'publisher'
p58
VAMER SOC PLANT BIOLOGISTS
p59
sS'authorKeywords'
p60
(lp61
VXYLEM CAVITATION
p62
aVBETULA-OCCIDENTALIS
p63
aVSOIL DROUGHT
p64
aVWOODY-PLANTS
p65
aVDOUGLAS-FIR
p66
aVCONDUCTANCE
p67
aVEMBOLISM
p68
aVVULNERABILITY
p69
aVTREE
p70
aVCONDUCTIVITY
p71
asS'language'
p72
VEnglish
p73
sS'wosid'
p74
VWOS:000173351600031
p75
sS'citationCount'
p76
I51
sS'authors_init'
p77
(lp78
(VCOCHARD
VH
tp79
a(VCOLL
VL
tp80
a(VLE ROUX
VX
tp81
a(VAMEGLIO
VT
tp82
asS'citedReferences'
p83
(lp84
g1
(g2
g3
NtRp85
(dp86
g52
Nsg48
VPLANT SCI
p87
sg50
Nsg77
(lp88
(VAMEGLIO
VT
tp89
asg56
I1994
sg44
VLANT
p90
sbag1
(g2
g3
NtRp91
(dp92
g52
V10.1023/A:1026415302759
p93
sg48
VPLANT SOIL
p94
sg50
V207
p95
sg77
(lp96
(VAMEGLIO
VT
tp97
asg56
I1999
sg44
VLANT
p98
sbag1
(g2
g3
NtRp99
(dp100
g52
V10.1104/pp.123.3.1021
p101
sg48
VPLANT PHYSIOL
p102
sg50
V123
p103
sg77
(lp104
(VBRODRIBB
VT J
tp105
asg56
I2000
sg44
VLANT
p106
sbag1
(g2
g3
NtRp107
(dp108
g52
Nsg48
VTREE PHYSIOL
p109
sg50
V11
p110
sg77
(lp111
(VCOCHARD
VH
tp112
asg56
I1992
sg44
V73
p113
sbag1
(g2
g3
NtRp114
(dp115
g52
V10.1046/j.1365-3040.1999.00367.x
p116
sg48
VPLANT CELL ENVIRON
p117
sg50
V22
p118
sg77
(lp119
(VCOCHARD
VH
tp120
asg56
I1999
sg44
VLANT
p121
sbag1
(g2
g3
NtRp122
(dp123
g52
V10.1093/jexbot/51.348.1255
p124
sg48
VJ EXP BOT
p125
sg50
V51
p126
sg77
(lp127
(VCOCHARD
VH
tp128
asg56
I2000
sg44
V1255
p129
sbag1
(g2
g3
NtRp130
(dp131
g52
V10.1051/forest:19960203
p132
sg48
VANN SCI FOREST
p133
sg50
V53
p134
sg77
(lp135
(VCOCHARD
VH
tp136
asg56
I1996
sg44
V197
p137
sbag1
(g2
g3
NtRp138
(dp139
g52
V10.1111/j.1469-8137.1996.tb04362.x
p140
sg48
VNEW PHYTOL
p141
sg50
V134
p142
sg77
(lp143
(VCOCHARD
VH
tp144
asg56
I1996
sg44
V455
p145
sbag1
(g2
g3
NtRp146
(dp147
g52
V10.1104/pp.124.3.1191
p148
sg48
VPLANT PHYSIOL
p149
sg50
V124
p150
sg77
(lp151
(VCOCHARD
VH
tp152
asg56
I2000
sg44
VLANT
p153
sbag1
(g2
g3
NtRp154
(dp155
g52
V10.1104/pp.100.1.205
p156
sg48
VPLANT PHYSIOL
p157
sg50
V100
p158
sg77
(lp159
(VCOCHARD
VH
tp160
asg56
I1992
sg44
VLANT
p161
sbag1
(g2
g3
NtRp162
(dp163
g52
V10.1046/j.1365-3040.1998.00353.x
p164
sg48
VPLANT CELL ENVIRON
p165
sg50
V21
p166
sg77
(lp167
(VCOMSTOCK
VJ
tp168
asg56
I1998
sg44
VLANT
p169
sbag1
(g2
g3
NtRp170
(dp171
g52
V10.1046/j.1469-8137.2000.00763.x
p172
sg48
VNEW PHYTOL
p173
sg50
V148
p174
sg77
(lp175
(VCOMSTOCK
VJ P
tp176
asg56
I2000
sg44
V195
p177
sbag1
(g2
g3
NtRp178
(dp179
g52
Nsg48
VAdvances in Botanical Research
p180
sg50
V4
sg77
(lp181
(VCOWAN
VI R
tp182
asg56
I1977
sg44
V117
p183
sbag1
(g2
g3
NtRp184
(dp185
g52
V10.1111/j.1365-3040.1996.tb00216.x
p186
sg48
VPLANT CELL ENVIRON
p187
sg50
V19
p188
sg77
(lp189
(VFUCHS
VE E
tp190
asg56
I1996
sg44
VLANT
p191
sbag1
(g2
g3
NtRp192
(dp193
g52
Nsg48
VCAN J BOT
p194
sg50
V53
p195
sg77
(lp196
(VHINCKLEY
VT M
tp197
asg56
I1975
sg44
V62
p198
sbag1
(g2
g3
NtRp199
(dp200
g52
V10.1046/j.1365-3040.2001.00660.x
p201
sg48
VPLANT CELL ENVIRON
p202
sg50
V24
p203
sg77
(lp204
(VHUBBARD
VR M
tp205
asg56
I2001
sg44
VLANT
p206
sbag1
(g2
g3
NtRp207
(dp208
g52
V10.1111/j.1365-3040.1995.tb00352.x
p209
sg48
VPLANT CELL ENVIRON
p210
sg50
V18
p211
sg77
(lp212
(VJARBEAU
VJ A
tp213
asg56
I1995
sg44
VLANT
p214
sbag1
(g2
g3
NtRp215
(dp216
g52
V10.1111/j.1365-3040.1991.tb01532.x
p217
sg48
VPLANT CELL ENVIRON
p218
sg50
V14
p219
sg77
(lp220
(VJONES
VH G
tp221
asg56
I1991
sg44
VLANT
p222
sbag1
(g2
g3
NtRp223
(dp224
g52
Nsg48
VWATER RELATIONS PLAN
p225
sg50
Nsg77
(lp226
(VKRAMER
VP J
tp227
asg56
I1995
sg44
Nsbag1
(g2
g3
NtRp228
(dp229
g52
V10.1051/forest:19960108
p230
sg48
VANN SCI FOREST
p231
sg50
V53
p232
sg77
(lp233
(VLU
VP
tp234
asg56
I1996
sg44
V113
p235
sbag1
(g2
g3
NtRp236
(dp237
g52
V10.1111/j.1365-3040.1996.tb00383.x
p238
sg48
VPLANT CELL ENVIRON
p239
sg50
V19
p240
sg77
(lp241
(VMEIDNER
VH
tp242
asg56
I1996
sg44
VLANT
p243
sbag1
(g2
g3
NtRp244
(dp245
g52
V10.1111/j.1365-3040.1990.tb02142.x
p246
sg48
VPLANT CELL ENVIRON
p247
sg50
V13
p248
sg77
(lp249
(VMEINZER
VF C
tp250
asg56
I1990
sg44
VLANT
p251
sbag1
(g2
g3
NtRp252
(dp253
g52
V10.1111/j.1365-3040.1995.tb00371.x
p254
sg48
VPLANT CELL ENVIRON
p255
sg50
V18
p256
sg77
(lp257
(VMONTEITH
VJ L
tp258
asg56
I1995
sg44
VLANT
p259
sbag1
(g2
g3
NtRp260
(dp261
g52
Nsg48
VSOVIET METEOROLOGY H
p262
sg50
V5
sg77
(lp263
(VMUROMTSEV
VN A
tp264
asg56
I1981
sg44
V68
p265
sbag1
(g2
g3
NtRp266
(dp267
g52
V10.1104/pp.125.4.1700
p268
sg48
VPLANT PHYSIOL
p269
sg50
V125
p270
sg77
(lp271
(VNARDINI
VA
tp272
asg56
I2001
sg44
VLANT
p273
sbag1
(g2
g3
NtRp274
(dp275
g52
V10.1093/jxb/43.3.319
p276
sg48
VJ EXP BOT
p277
sg50
V43
p278
sg77
(lp279
(VNOBEL
VP S
tp280
asg56
I1992
sg44
V319
p281
sbag1
(g2
g3
NtRp282
(dp283
g52
Nsg48
VPROG BIOPHYS MOL BIO
p284
sg50
V37
p285
sg77
(lp286
(VPICKARD
VW F
tp287
asg56
I1981
sg44
VROG
p288
sbag1
(g2
g3
NtRp289
(dp290
g52
V10.1016/S0065-2504(08)60290-1
p291
sg48
VAdvances in Ecological Research
p292
sg50
V9
sg77
(lp293
(VRITCHIE
VG A
tp294
asg56
I1975
sg44
V165
p295
sbag1
(g2
g3
NtRp296
(dp297
g52
V10.1007/s004680050010
p298
sg48
VTREES
p299
sg50
V14
p300
sg77
(lp301
(VROOD
VS B
tp302
asg56
I2000
sg44
V248
p303
sbag1
(g2
g3
NtRp304
(dp305
g52
V10.1007/BF00201396
p306
sg48
VPLANTA
p307
sg50
V196
p308
sg77
(lp309
(VSALIENDRA
VN Z
tp310
asg56
I1995
sg44
VLANTA
p311
sbag1
(g2
g3
NtRp312
(dp313
g52
V10.1046/j.1365-3040.2000.00516.x
p314
sg48
VPLANT CELL ENVIRON
p315
sg50
V23
p316
sg77
(lp317
(VSALLEO
VS
tp318
asg56
I2000
sg44
VLANT
p319
sbag1
(g2
g3
NtRp320
(dp321
g52
V10.1111/j.1365-3040.1992.tb01001.x
p322
sg48
VPLANT CELL ENVIRON
p323
sg50
V15
p324
sg77
(lp325
(VSALLEO
VS
tp326
asg56
I1992
sg44
VLANT
p327
sbag1
(g2
g3
NtRp328
(dp329
g52
V10.1093/jxb/36.10.1590
p330
sg48
VJ EXP BOT
p331
sg50
V36
p332
sg77
(lp333
(VSCHULTE
VP J
tp334
asg56
I1985
sg44
V1590
p335
sbag1
(g2
g3
NtRp336
(dp337
g52
Nsg48
VStomatal function
p338
sg50
Nsg77
(lp339
(VSCHULZE
VE D
tp340
asg56
I1987
sg44
V311
p341
sbag1
(g2
g3
NtRp342
(dp343
g52
V10.1046/j.1365-3040.1998.00287.x
p344
sg48
VPLANT CELL ENVIRON
p345
sg50
V21
p346
sg77
(lp347
(VSPERRY
VJ S
tp348
asg56
I1998
sg44
VLANT
p349
sbag1
(g2
g3
NtRp350
(dp351
g52
V10.1111/j.1365-3040.1994.tb02021.x
p352
sg48
VPLANT CELL ENVIRON
p353
sg50
V17
p354
sg77
(lp355
(VSPERRY
VJ S
tp356
asg56
I1994
sg44
VLANT
p357
sbag1
(g2
g3
NtRp358
(dp359
g52
V10.1093/jxb/44.6.1075
p360
sg48
VJ EXP BOT
p361
sg50
V44
p362
sg77
(lp363
(VSPERRY
VJ S
tp364
asg56
I1993
sg44
V1075
p365
sbag1
(g2
g3
NtRp366
(dp367
g52
V10.1111/j.1365-3040.1988.tb01774.x
p368
sg48
VPLANT CELL ENVIRON
p369
sg50
V11
p370
sg77
(lp371
(VSPERRY
VJ S
tp372
asg56
I1988
sg44
VLANT
p373
sbag1
(g2
g3
NtRp374
(dp375
g52
V10.1104/pp.88.3.581
p376
sg48
VPLANT PHYSIOL
p377
sg50
V88
p378
sg77
(lp379
(VSPERRY
VJ S
tp380
asg56
I1988
sg44
VLANT
p381
sbag1
(g2
g3
NtRp382
(dp383
g52
Nsg48
VTREE PHYSIOL
p384
sg50
V17
p385
sg77
(lp386
(VSPERRY
VJ S
tp387
asg56
I1997
sg44
V275
p388
sbag1
(g2
g3
NtRp389
(dp390
g52
V10.1016/S0168-1923(00)00144-1
p391
sg48
VAGR FOREST METEOROL
p392
sg50
V104
p393
sg77
(lp394
(VSPERRY
VJ S
tp395
asg56
I2000
sg44
V13
p396
sbag1
(g2
g3
NtRp397
(dp398
g52
V10.1111/j.1365-3040.1992.tb01472.x
p399
sg48
VPLANT CELL ENVIRON
p400
sg50
V15
p401
sg77
(lp402
(VTARDIEU
VF
tp403
asg56
I1992
sg44
VLANT
p404
sbag1
(g2
g3
NtRp405
(dp406
g52
V10.1111/j.1365-3040.1993.tb00880.x
p407
sg48
VPLANT CELL ENVIRON
p408
sg50
V16
p409
sg77
(lp410
(VTARDIEU
VF
tp411
asg56
I1993
sg44
VLANT
p412
sbag1
(g2
g3
NtRp413
(dp414
g52
Nsg48
VAUST J PLANT PHYSIOL
p415
sg50
V7
sg77
(lp416
(VTURNER
VN C
tp417
asg56
I1980
sg44
V527
p418
sbag1
(g2
g3
NtRp419
(dp420
g52
V10.1104/pp.88.3.574
p421
sg48
VPLANT PHYSIOL
p422
sg50
V88
p423
sg77
(lp424
(VTYREE
VM T
tp425
asg56
I1988
sg44
VLANT
p426
sbag1
(g2
g3
NtRp427
(dp428
g52
V10.1111/j.1365-3040.1993.tb00511.x
p429
sg48
VPLANT CELL ENVIRON
p430
sg50
V16
p431
sg77
(lp432
(VTYREE
VM T
tp433
asg56
I1993
sg44
VLANT
p434
sbag1
(g2
g3
NtRp435
(dp436
g52
V10.1111/j.1469-8137.1991.tb00035.x
p437
sg48
VNEW PHYTOL
p438
sg50
V119
p439
sg77
(lp440
(VTYREE
VM T
tp441
asg56
I1991
sg44
V345
p442
sbag1
(g2
g3
NtRp443
(dp444
g52
Nsg48
VPLANT PHYSIOL
p445
sg50
V104
p446
sg77
(lp447
(VTYREE
VM T
tp448
asg56
I1994
sg44
VLANT
p449
sbag1
(g2
g3
NtRp450
(dp451
g52
Nsg48
VWATER TRANSPORT PLAN
p452
sg50
Nsg77
(lp453
(VVALANCOGNE
VC
tp454
asg56
I1989
sg44
V166
p455
sbag1
(g2
g3
NtRp456
(dp457
g52
Nsg48
VSTOMATAL FUNCTION
p458
sg50
Nsg77
(lp459
(VZEIGER
VE
tp460
asg56
I1987
sg44
Vxiv
p461
sbag1
(g2
g3
NtRp462
(dp463
g52
V10.1126/science.1057175
p464
sg48
VSCIENCE
p465
sg50
V291
p466
sg77
(lp467
(VZWIENIECKI
VM A
tp468
asg56
I2001
sg44
V1059
p469
sbasb.