ccopy_reg
_reconstructor
p1
(ctethne.classes.paper
Paper
p2
c__builtin__
object
p3
NtRp4
(dp5
S'publisherCity'
p6
VROCKVILLE
p7
sS'reprintAddress'
p8
VRochaix, JD (reprint author), Univ Geneva, Dept Mol Biol, CH-1211 Geneva 4, Switzerland.
p9
sS'WC'
p10
VPlant Sciences
p11
sS'GA'
p12
V744LH
p13
sS'FX'
p14
(lp15
VThis work was supported by a grant from the Swiss National Foundation
p16
aV(grant no. 3100AO-117712).
p17
asS'pageEnd'
p18
I1500
sS'date'
p19
I2011
sS'documentType'
p20
VArticle
p21
sS'subject'
p22
VPlant Sciences
p23
sS'isoSource'
p24
VPlant Physiol.
p25
sS'timesCited'
p26
(lp27
I9
aVZ9 9
p28
asS'funding'
p29
(lp30
(VSwiss National Foundation
V3100AO-117712
tp31
asS'PT'
p32
VJ
sS'title'
p33
VAssembly Of The Photosynthetic Apparatus
p34
sS'ISSN'
p35
(lp36
V0032-0889
p37
aVJ9 PLANT PHYSIOL
p38
asS'authors_full'
p39
(lp40
(VROCHAIX
VJEANDAVID
tp41
asS'PG'
p42
I8
sS'PD'
p43
VAPR
p44
sS'pageStart'
p45
I1493
sS'issue'
p46
I4
sS'journal'
p47
VPLANT PHYSIOLOGY
p48
sS'volume'
p49
V155
p50
sS'doi'
p51
V10.1104/pp.110.169839
p52
sS'emailAddress'
p53
Vjean-david.rochaix@unige.ch
p54
sS'authorAddress'
p55
(lp56
V[Rochaix, Jean-David] Univ Geneva, Dept Mol Biol, CH-1211 Geneva 4, Switzerland.
p57
aV[Rochaix, Jean-David] Univ Geneva, Dept Plant Biol, CH-1211 Geneva 4, Switzerland.
p58
asS'publisherAddress'
p59
V15501 MONONA DRIVE, ROCKVILLE, MD 20855 USA
p60
sS'ER'
p61
V
sS'publisher'
p62
VAMER SOC PLANT BIOLOGISTS
p63
sS'authorKeywords'
p64
(lp65
VLIGHT-HARVESTING COMPLEX
p66
aVTHYLAKOID MEMBRANE-PROTEINS
p67
aVCYTOCHROME B(6)F COMPLEX
p68
aVPHOTOSYSTEM-II
p69
aVARABIDOPSIS-THALIANA
p70
aVCHLAMYDOMONAS-REINHARDTII
p71
aVSTATE TRANSITIONS
p72
aVGENE-EXPRESSION
p73
aVMESSENGER-RNA
p74
aVPSB27 HOMOLOG
p75
asS'language'
p76
VEnglish
p77
sS'wosid'
p78
VWOS:000289095500004
p79
sS'citationCount'
p80
I49
sS'authors_init'
p81
(lp82
(VROCHAIX
VJ D
tp83
asS'citedReferences'
p84
(lp85
g1
(g2
g3
NtRp86
(dp87
g51
V10.1083/jcb.200201060
p88
sg47
VJ CELL BIOL
p89
sg49
V157
p90
sg81
(lp91
(VAUCHINCLOSS
VA H
tp92
asg19
I2002
sg45
V953
p93
sbag1
(g2
g3
NtRp94
(dp95
g51
V10.1016/j.tplants.2005.05.002
p96
sg47
VTRENDS PLANT SCI
p97
sg49
V10
p98
sg81
(lp99
(VBALK
VJ
tp100
asg19
I2005
sg45
V324
p101
sbag1
(g2
g3
NtRp102
(dp103
g51
V10.1007/BF01142194
p104
sg47
VBIOSCIENCE REP
p105
sg49
V2
sg81
(lp106
(VBARBER
VJ
tp107
asg19
I1982
sg45
V1
sbag1
(g2
g3
NtRp108
(dp109
g51
V10.1016/S0300-9084(00)00602-7
p110
sg47
VBIOCHIMIE
p111
sg49
V82
p112
sg81
(lp113
(VBARKAN
VA
tp114
asg19
I2000
sg45
V559
p115
sbag1
(g2
g3
NtRp116
(dp117
g51
V10.1105/tpc.003442
p118
sg47
VPLANT CELL
p119
sg49
V14
p120
sg81
(lp121
(VBELLAFIORE
VS
tp122
asg19
I2002
sg45
VLANT
p123
sbag1
(g2
g3
NtRp124
(dp125
g51
V10.1038/nature02200
p126
sg47
VNATURE
p127
sg49
V426
p128
sg81
(lp129
(VBEN-SHEM
VA
tp130
asg19
I2003
sg45
V630
p131
sbag1
(g2
g3
NtRp132
(dp133
g51
V10.1111/j.1365-313X.2008.03490.x
p134
sg47
VPLANT J
p135
sg49
V55
p136
sg81
(lp137
(VBUSCH
VA
tp138
asg19
I2008
sg45
VLANT
p139
sbag1
(g2
g3
NtRp140
(dp141
g51
V10.1038/emboj.2009.232
p142
sg47
VEMBO J
p143
sg49
V28
p144
sg81
(lp145
(VCAFFARRI
VS
tp146
asg19
I2009
sg45
V3052
p147
sbag1
(g2
g3
NtRp148
(dp149
g51
V10.1104/pp.110.159558
p150
sg47
VPLANT PHYSIOL
p151
sg49
V154
p152
sg81
(lp153
(VCAI
VW H
tp154
asg19
I2010
sg45
VLANT
p155
sbag1
(g2
g3
NtRp156
(dp157
g51
V10.1007/s11103-006-0031-x
p158
sg47
VPLANT MOL BIOL
p159
sg49
V61
p160
sg81
(lp161
(VCHEN
VH
tp162
asg19
I2006
sg45
VLANT
p163
sbag1
(g2
g3
NtRp164
(dp165
g51
V10.1016/S0300-9084(00)00609-X
p166
sg47
VBIOCHIMIE
p167
sg49
V82
p168
sg81
(lp169
(VCHOQUET
VY
tp170
asg19
I2000
sg45
V615
p171
sbag1
(g2
g3
NtRp172
(dp173
g51
V10.1093/emboj/17.5.1192
p174
sg47
VEMBO J
p175
sg49
V17
p176
sg81
(lp177
(VDAS
VA K
tp178
asg19
I1998
sg45
V1192
p179
sbag1
(g2
g3
NtRp180
(dp181
g51
Nsg47
VCHLAMYDOMONAS SOURCE
p182
sg49
Nsg81
(lp183
(VDE
VVITRY C
tp184
asg19
I2009
sg45
V603
p185
sbag1
(g2
g3
NtRp186
(dp187
g51
V10.1016/j.bbabio.2004.09.009
p188
sg47
VBBA
p189
sg49
V1706
p190
sg81
(lp191
(VDEKKER
VJ P
tp192
asg19
I2005
sg45
V12
p193
sbag1
(g2
g3
NtRp194
(dp195
g51
V10.1146/annurev.genet.42.110807.091452
p196
sg47
VANNU REV GENET
p197
sg49
V42
p198
sg81
(lp199
(VEBERHARD
VS
tp200
asg19
I2008
sg45
V463
p201
sbag1
(g2
g3
NtRp202
(dp203
g51
V10.1016/S0092-8674(01)00318-X
p204
sg47
VCELL
p205
sg49
V105
p206
sg81
(lp207
(VEDWARDS
VT A
tp208
asg19
I2001
sg45
V281
p209
sbag1
(g2
g3
NtRp210
(dp211
g51
V10.1105/tpc.109.069435
p212
sg47
VPLANT CELL
p213
sg49
V21
p214
sg81
(lp215
(VFRISTEDT
VR
tp216
asg19
I2009
sg45
VLANT
p217
sbag1
(g2
g3
NtRp218
(dp219
g51
V10.1105/tpc.105.038695
p220
sg47
VPLANT CELL
p221
sg49
V18
p222
sg81
(lp223
(VGOHRE
VV
tp224
asg19
I2006
sg45
VLANT
p225
sbag1
(g2
g3
NtRp226
(dp227
g51
V10.1016/S1360-1385(99)01419-3
p228
sg47
VTRENDS PLANT SCI
p229
sg49
V4
sg81
(lp230
(VJANSSON
VS
tp231
asg19
I1999
sg45
V236
p232
sbag1
(g2
g3
NtRp233
(dp234
g51
V10.1093/emboj/20.4.872
p235
sg47
VEMBO J
p236
sg49
V20
p237
sg81
(lp238
(VJENKINS
VB D
tp239
asg19
I2001
sg45
V872
p240
sbag1
(g2
g3
NtRp241
(dp242
g51
V10.1021/bi051097a
p243
sg47
VBIOCHEMISTRY
p244
sg49
V44
p245
sg81
(lp246
(VKOURIL
VR
tp247
asg19
I2005
sg45
V10935
p248
sbag1
(g2
g3
NtRp249
(dp250
g51
V10.1007/s11120-007-9244-3
p251
sg47
VPHOTOSYNTH RES
p252
sg49
V95
p253
sg81
(lp254
(VKUFRYK
VG
tp255
asg19
I2008
sg45
VHOTOSYNTH
p256
sbag1
(g2
g3
NtRp257
(dp258
g51
V10.1007/s11120-010-9538-8
p259
sg47
VPHOTOSYNTH RES
p260
sg49
V106
p261
sg81
(lp262
(VLEMEILLE
VS
tp263
asg19
I2010
sg45
VHOTOSYNTH
p264
sbag1
(g2
g3
NtRp265
(dp266
g51
V10.1105/tpc.13.11.2539
p267
sg47
VPLANT CELL
p268
sg49
V13
p269
sg81
(lp270
(VLENNARTZ
VK
tp271
asg19
I2001
sg45
VLANT
p272
sbag1
(g2
g3
NtRp273
(dp274
g51
V10.1073/pnas.0605452103
p275
sg47
VP NATL ACAD SCI USA
p276
sg49
V103
p277
sg81
(lp278
(VLIMA
VA
tp279
asg19
I2006
sg45
V12631
p280
sbag1
(g2
g3
NtRp281
(dp282
g51
V10.1038/35046121
p283
sg47
VNATURE
p284
sg49
V408
p285
sg81
(lp286
(VLUNDE
VC
tp287
asg19
I2000
sg45
V613
p288
sbag1
(g2
g3
NtRp289
(dp290
g51
V10.1105/tpc.107.050526
p291
sg47
VPLANT CELL
p292
sg49
V19
p293
sg81
(lp294
(VMA
VJ F
tp295
asg19
I2007
sg45
VLANT
p296
sbag1
(g2
g3
NtRp297
(dp298
g51
V10.1093/emboj/17.18.5286
p299
sg47
VEMBO J
p300
sg49
V17
p301
sg81
(lp302
(VMEURER
VJ
tp303
asg19
I1998
sg45
V5286
p304
sbag1
(g2
g3
NtRp305
(dp306
g51
Nsg47
VBIOCH BIOPHYS A 1123
p307
sg49
Nsg81
(lp308
(VMINAGAWA
VJ
tp309
asg19
I2010
sg45
Nsbag1
(g2
g3
NtRp310
(dp311
g51
V10.1093/emboj/cdf666
p312
sg47
VEMBO J
p313
sg49
V21
p314
sg81
(lp315
(VMOSELEY
VJ L
tp316
asg19
I2002
sg45
V6709
p317
sbag1
(g2
g3
NtRp318
(dp319
g51
V10.1074/jbc.M414486200
p320
sg47
VJ BIOL CHEM
p321
sg49
V280
p322
sg81
(lp323
(VNAUMANN
VB
tp324
asg19
I2005
sg45
V20431
p325
sbag1
(g2
g3
NtRp326
(dp327
g51
Nsg47
VPLANT CELL
p328
sg49
V13
p329
sg81
(lp330
(VNAVER
VH
tp331
asg19
I2001
sg45
VLANT
p332
sbag1
(g2
g3
NtRp333
(dp334
g51
V10.1093/aob/mcq059
p335
sg47
VANN BOT
p336
sg49
V106
p337
sg81
(lp338
(VNIXON
VP J
tp339
asg19
I2010
sg45
V1
sbag1
(g2
g3
NtRp340
(dp341
g51
V10.1105/tpc.108.063313
p342
sg47
VPLANT CELL
p343
sg49
V21
p344
sg81
(lp345
(VOZAWA
VS
tp346
asg19
I2009
sg45
VLANT
p347
sbag1
(g2
g3
NtRp348
(dp349
g51
V10.1074/jbc.M404285200
p350
sg47
VJ BIOL CHEM
p351
sg49
V279
p352
sg81
(lp353
(VPAGE
VM L D
tp354
asg19
I2004
sg45
V32474
p355
sbag1
(g2
g3
NtRp356
(dp357
g51
V10.1105/tpc.105.037689
p358
sg47
VPLANT CELL
p359
sg49
V18
p360
sg81
(lp361
(VPENG
VL W
tp362
asg19
I2006
sg45
VLANT
p363
sbag1
(g2
g3
NtRp364
(dp365
g51
V10.1093/emboj/18.22.6481
p366
sg47
VEMBO J
p367
sg49
V18
p368
sg81
(lp369
(VPERRON
VK
tp370
asg19
I1999
sg45
V6481
p371
sbag1
(g2
g3
NtRp372
(dp373
g51
V10.1073/pnas.0703162104
p374
sg47
VP NATL ACAD SCI USA
p375
sg49
V104
p376
sg81
(lp377
(VRAYNAUD
VC
tp378
asg19
I2007
sg45
V9093
p379
sbag1
(g2
g3
NtRp380
(dp381
g51
V10.1074/jbc.272.48.30476
p382
sg47
VJ BIOL CHEM
p383
sg49
V272
p384
sg81
(lp385
(VRINTAMAKI
VE
tp386
asg19
I1997
sg45
V30476
p387
sbag1
(g2
g3
NtRp388
(dp389
g51
V10.1074/jbc.M408458200
p390
sg47
VJ BIOL CHEM
p391
sg49
V279
p392
sg81
(lp393
(VROOSE
VJ L
tp394
asg19
I2004
sg45
V45417
p395
sbag1
(g2
g3
NtRp396
(dp397
g51
V10.1016/j.tplants.2008.10.001
p398
sg47
VTRENDS PLANT SCI
p399
sg49
V13
p400
sg81
(lp401
(VSCHMITZ-LINNEWEBER
VC
tp402
asg19
I2008
sg45
V663
p403
sbag1
(g2
g3
NtRp404
(dp405
g51
V10.1016/S0968-0004(99)01520-0
p406
sg47
VTRENDS BIOCHEM SCI
p407
sg49
V25
p408
sg81
(lp409
(VSMALL
VI D
tp410
asg19
I2000
sg45
V46
p411
sbag1
(g2
g3
NtRp412
(dp413
g51
V10.1111/j.1365-313X.2010.04140.x
p414
sg47
VPLANT J
p415
sg49
V62
p416
sg81
(lp417
(VSUN
VX W
tp418
asg19
I2010
sg45
VLANT
p419
sbag1
(g2
g3
NtRp420
(dp421
g51
V10.1105/tpc.9.5.717
p422
sg47
VPLANT CELL
p423
sg49
V9
sg81
(lp424
(VSUNDBERG
VE
tp425
asg19
I1997
sg45
VLANT
p426
sbag1
(g2
g3
NtRp427
(dp428
g51
V10.1074/jbc.M110.105064
p429
sg47
VJ BIOL CHEM
p430
sg49
V285
p431
sg81
(lp432
(VWEI
VL L
tp433
asg19
I2010
sg45
V21391
p434
sbag1
(g2
g3
NtRp435
(dp436
g51
V10.1074/jbc.M609206200
p437
sg47
VJ Biol Chem
p438
sg49
V282
p439
sg81
(lp440
(VDU\u0308HRING
VU L F
tp441
asg19
I2007
sg45
V10915
p442
sbag1
(g2
g3
NtRp443
(dp444
g51
V10.1093/emboj/20.14.3623
p445
sg47
VEMBO J
p446
sg49
V20
p447
sg81
(lp448
(VWOLLMAN
VF A
tp449
asg19
I2001
sg45
V3623
p450
sbag1
(g2
g3
NtRp451
(dp452
g51
V10.1038/sj.emboj.7600266
p453
sg47
VEMBO J
p454
sg49
V23
p455
sg81
(lp456
(VWOSTRIKOFF
VK
tp457
asg19
I2004
sg45
V2696
p458
sbag1
(g2
g3
NtRp459
(dp460
g51
V10.1074/jbc.M311640200
p461
sg47
VJ BIOL CHEM
p462
sg49
V279
p463
sg81
(lp464
(VZHANG
VS P
tp465
asg19
I2004
sg45
V3180
p466
sbasb.