ccopy_reg
_reconstructor
p1
(ctethne.classes.paper
Paper
p2
c__builtin__
object
p3
NtRp4
(dp5
S'publisherCity'
p6
VROCKVILLE
p7
sS'reprintAddress'
p8
VMitchell, RAC (reprint author), Rothamsted Res, Plant Biol & Crop Sci, Harpenden AL5 2JQ, Herts, England.
p9
sS'WC'
p10
VPlant Sciences
p11
sS'GA'
p12
V209LS
p13
sS'FX'
p14
(lp15
VThis work was supported by the Biotechnology and Biological Sciences
p16
aVResearch Council of the United Kingdom (grant no. BB/F014295/1 and a
p17
aV"Designing Seeds" Institute Strategic Programme grant). Rothamsted
p18
aVResearch receives grant-aided support from the Biotechnology and
p19
aVBiological Sciences Research Council.
p20
asS'abstract'
p21
VThe cell walls of wheat (Triticum aestivum) starchy endosperm are dominated by arabinoxylan (AX), accounting for 65% to 70% of the polysaccharide content. Genes within two glycosyl transferase (GT) families, GT43 (IRREGULAR XYLEM9 [IRX9] and IRX14) and GT47 (IRX10), have previously been shown to be involved in the synthesis of the xylan backbone in Arabidopsis, and close homologs of these have been implicated in the synthesis of xylan in other species. Here, homologs of IRX10 TaGT47_2 and IRX9 TaGT43_2, which are highly expressed in wheat starchy endosperm cells, were suppressed by RNA interference (RNAi) constructs driven by a starchy endosperm-specific promoter. The total amount of AX was decreased by 40% to 50% and the degree of arabinosylation was increased by 25% to 30% in transgenic lines carrying either of the transgenes. The cell walls of starchy endosperm in sections of grain from TaGT43_2 and TaGT47_2 RNAi transgenics showed decreased immunolabeling for xylan and arabinoxylan epitopes and approximately 50% decreased cell wall thickness compared with controls. The proportion of AX that was water soluble was not significantly affected, but average AX polymer chain length was decreased in both TaGT43_2 and TaGT47_2 RNAi transgenics. However, the long AX chains seen in controls were absent in TaGT43_2 RNAi transgenics but still present in TaGT47_2 RNAi transgenics. The results support an emerging picture of IRX9-like and IRX10-like proteins acting as key components in the xylan synthesis machinery in both dicots and grasses. Since AX is the main component of dietary fiber in wheat foods, the TaGT43_2 and TaGT47_2 genes are of major importance to human nutrition.
p22
sS'pageEnd'
p23
I107
sS'date'
p24
I2013
sS'documentType'
p25
VArticle
p26
sS'subject'
p27
VPlant Sciences
p28
sS'isoSource'
p29
VPlant Physiol.
p30
sS'timesCited'
p31
(lp32
I0
aVZ9 0
p33
asS'funding'
p34
(lp35
(VBiotechnology and Biological Sciences Research Council of the United Kingdom
VBB/F014295/1
tp36
a(VBiotechnology and Biological Sciences Research Council of the United Kingdom ("Designing Seeds" Institute Strategic Programme grant)
Ntp37
a(VBiotechnology and Biological Sciences Research Council
Ntp38
asS'PT'
p39
VJ
sS'title'
p40
VRna Interference Suppression Of Genes In Glycosyl Transferase Families 43 And 47 In Wheat Starchy Endosperm Causes Large Decreases In Arabinoxylan Content
p41
sS'ISSN'
p42
(lp43
V0032-0889
p44
aVJ9 PLANT PHYSIOL
p45
asS'authors_full'
p46
(lp47
(VLOVEGROVE
VALISON
tp48
a(VWILKINSON
VMARK D
tp49
a(VFREEMAN
VJACKIE
tp50
a(VPELLNY
VTILL K
tp51
a(VTOSI
VPAOLA
tp52
a(VSAULNIER
VLUC
tp53
a(VSHEWRY
VPETER R
tp54
a(VMITCHELL
VROWAN A C
tp55
asS'PG'
p56
I13
sS'PD'
p57
VSEP
p58
sS'pageStart'
p59
I95
sS'issue'
p60
I1
sS'journal'
p61
VPLANT PHYSIOLOGY
p62
sS'volume'
p63
V163
p64
sS'doi'
p65
V10.1104/pp.113.222653
p66
sS'emailAddress'
p67
Vrowan.mitchell@rothamsted.ac.uk
p68
sS'authorAddress'
p69
(lp70
V[Lovegrove, Alison; Wilkinson, Mark D.; Freeman, Jackie; Pellny, Till K.; Tosi, Paola; Shewry, Peter R.; Mitchell, Rowan A. C.] Rothamsted Res, Plant Biol & Crop Sci, Harpenden AL5 2JQ, Herts, England.
p71
aV[Saulnier, Luc] INRA, Ctr Rech Angers Nantes, F-44316 Nantes 03, France.
p72
asS'publisherAddress'
p73
V15501 MONONA DRIVE, ROCKVILLE, MD 20855 USA
p74
sS'ER'
p75
V
sS'publisher'
p76
VAMER SOC PLANT BIOLOGISTS
p77
sS'authorKeywords'
p78
(lp79
VCELL-WALLS
p80
aVGLUCURONOXYLAN BIOSYNTHESIS
p81
aVMONOCLONAL-ANTIBODIES
p82
aVXYLAN BIOSYNTHESIS
p83
aVMUTANTS REVEALS
p84
aVDIETARY FIBER
p85
aVARABIDOPSIS
p86
aVHEMICELLULOSE
p87
aVVARIETIES
p88
aVGENOMICS
p89
asS'language'
p90
VEnglish
p91
sS'wosid'
p92
VWOS:000323759200009
p93
sS'citationCount'
p94
I34
sS'authors_init'
p95
(lp96
(VLOVEGROVE
VA
tp97
a(VWILKINSON
VM D
tp98
a(VFREEMAN
VJ
tp99
a(VPELLNY
VT K
tp100
a(VTOSI
VP
tp101
a(VSAULNIER
VL
tp102
a(VSHEWRY
VP R
tp103
a(VMITCHELL
VR A C
tp104
asS'citedReferences'
p105
(lp106
g1
(g2
g3
NtRp107
(dp108
g65
V10.1073/pnas.1115858109
p109
sg61
VP NATL ACAD SCI USA
p110
sg63
V109
p111
sg95
(lp112
(VANDERS
VN
tp113
asg24
I2012
sg59
V989
p114
sbag1
(g2
g3
NtRp115
(dp116
g65
V10.1111/j.1365-313X.2008.03729.x
p117
sg61
VPLANT J
p118
sg63
V57
p119
sg95
(lp120
(VBROWN
VD M
tp121
asg24
I2009
sg59
VLANT
p122
sbag1
(g2
g3
NtRp123
(dp124
g65
V10.1111/j.1365-313X.2007.03307.x
p125
sg61
VPLANT J
p126
sg63
V52
p127
sg95
(lp128
(VBROWN
VD M
tp129
asg24
I2007
sg59
VLANT
p130
sbag1
(g2
g3
NtRp131
(dp132
g65
V10.1146/annurev.arplant.47.1.445
p133
sg61
VANNU REV PLANT PHYS
p134
sg63
V47
p135
sg95
(lp136
(VCARPITA
VN C
tp137
asg24
I1996
sg59
V445
p138
sbag1
(g2
g3
NtRp139
(dp140
g65
V10.1093/mp/sss135
p141
sg61
VMOL PLANT
p142
sg63
V6
sg95
(lp143
(VCHEN
VX W
tp144
asg24
I2013
sg59
V570
p145
sbag1
(g2
g3
NtRp146
(dp147
g65
V10.3389/fpls.2013.00083
p148
sg61
VFront Plant Sci
p149
sg63
V4
sg95
(lp150
(VCHINIQUY
VDAWN
tp151
asg24
I2013
sg59
V83
p152
sbag1
(g2
g3
NtRp153
(dp154
g65
V10.1016/S0008-6215(00)00300-1
p155
sg61
VCARBOHYD RES
p156
sg63
V330
p157
sg95
(lp158
(VDERVILLY-PINEL
VG
tp159
asg24
I2001
sg59
V365
p160
sbag1
(g2
g3
NtRp161
(dp162
g65
V10.1007/b136816
p163
sg61
VADV POLYM SCI
p164
sg63
V186
p165
sg95
(lp166
(VEBRINGEROVA
VA
tp167
asg24
I2005
sg59
V1
sbag1
(g2
g3
NtRp168
(dp169
g65
V10.1039/an9941901497
p170
sg61
VANALYST
p171
sg63
V119
p172
sg95
(lp173
(VENGLYST
VH N
tp174
asg24
I1994
sg59
V1497
p175
sbag1
(g2
g3
NtRp176
(dp177
g65
V10.1071/CH08458
p178
sg61
VAUST J CHEM
p179
sg63
V62
p180
sg95
(lp181
(VFAURE
VR
tp182
asg24
I2009
sg59
V533
p183
sbag1
(g2
g3
NtRp184
(dp185
g65
V10.1093/nar/gkr944
p186
sg61
VNUCLEIC ACIDS RES
p187
sg63
V40
p188
sg95
(lp189
(VGOODSTEIN
VD M
tp190
asg24
I2012
sg59
VD1178
p191
sbag1
(g2
g3
NtRp192
(dp193
g65
V10.1016/j.jcs.2004.06.004
p194
sg61
VJ CEREAL SCI
p195
sg63
V40
p196
sg95
(lp197
(VGUILLON
VF
tp198
asg24
I2004
sg59
V167
p199
sbag1
(g2
g3
NtRp200
(dp201
g65
V10.1111/j.1365-313X.2010.04475.x
p202
sg61
VPLANT J
p203
sg63
V66
p204
sg95
(lp205
(VJENSEN
VJ K
tp206
asg24
I2011
sg59
VLANT
p207
sbag1
(g2
g3
NtRp208
(dp209
g65
V10.1093/glycob/cwl081
p210
sg61
VGLYCOBIOLOGY
p211
sg63
V17
p212
sg95
(lp213
(VKONISHI
VT
tp214
asg24
I2007
sg59
V345
p215
sbag1
(g2
g3
NtRp216
(dp217
g65
V10.1093/pcp/pcr158
p218
sg61
VPLANT CELL PHYSIOL
p219
sg63
V53
p220
sg95
(lp221
(VLEE
VC
tp222
asg24
I2012
sg59
VLANT
p223
sbag1
(g2
g3
NtRp224
(dp225
g65
V10.1093/mp/ssr035
p226
sg61
VMOL PLANT
p227
sg63
V4
sg95
(lp228
(VLEE
VC H
tp229
asg24
I2011
sg59
V730
p230
sbag1
(g2
g3
NtRp231
(dp232
g65
V10.1369/jhc.4B6578.2005
p233
sg61
VJ HISTOCHEM CYTOCHEM
p234
sg63
V53
p235
sg95
(lp236
(VMCCARTNEY
VL
tp237
asg24
I2005
sg59
V543
p238
sbag1
(g2
g3
NtRp239
(dp240
g65
V10.1073/pnas.1005456107
p241
sg61
VP NATL ACAD SCI USA
p242
sg63
V107
p243
sg95
(lp244
(VMORTIMER
VJ C
tp245
asg24
I2010
sg59
V17409
p246
sbag1
(g2
g3
NtRp247
(dp248
g65
V10.1104/pp.109.151712
p249
sg61
VPLANT PHYSIOL
p250
sg63
V152
p251
sg95
(lp252
(VNEMETH
VC
tp253
asg24
I2010
sg59
VLANT
p254
sbag1
(g2
g3
NtRp255
(dp256
g65
V10.1021/jf050755v
p257
sg61
VJ AGR FOOD CHEM
p258
sg63
V53
p259
sg95
(lp260
(VORDAZ-ORTIZ
VJ J
tp261
asg24
I2005
sg59
V8349
p262
sbag1
(g2
g3
NtRp263
(dp264
g65
V10.1016/j.jcs.2004.02.004
p265
sg61
VJ CEREAL SCI
p266
sg63
V42
p267
sg95
(lp268
(VORDAZ-ORTIZ
VJ J
tp269
asg24
I2005
sg59
V119
p270
sbag1
(g2
g3
NtRp271
(dp272
g65
V10.1104/pp.111.189191
p273
sg61
VPLANT PHYSIOL
p274
sg63
V158
p275
sg95
(lp276
(VPELLNY
VT K
tp277
asg24
I2012
sg59
VLANT
p278
sbag1
(g2
g3
NtRp279
(dp280
g65
V10.1105/tpc.106.049320
p281
sg61
VPLANT CELL
p282
sg63
V19
p283
sg95
(lp284
(VPENA
VM J
tp285
asg24
I2007
sg59
VLANT
p286
sbag1
(g2
g3
NtRp287
(dp288
g65
V10.1007/s10142-010-0183-2
p289
sg61
VFUNCT INTEGR GENOMIC
p290
sg63
V11
p291
sg95
(lp292
(VQURAISHI
VU M
tp293
asg24
I2011
sg59
V71
p294
sbag1
(g2
g3
NtRp295
(dp296
g65
V10.1002/rcm.5060
p297
sg61
VRAPID COMMUN MASS SP
p298
sg63
V25
p299
sg95
(lp300
(VROPARTZ
VD
tp301
asg24
I2011
sg59
V2059
p302
sbag1
(g2
g3
NtRp303
(dp304
g65
V10.1016/j.jcs.2007.06.014
p305
sg61
VJ CEREAL SCI
p306
sg63
V46
p307
sg95
(lp308
(VSAULNIER
VL
tp309
asg24
I2007
sg59
V261
p310
sbag1
(g2
g3
NtRp311
(dp312
g65
V10.1146/annurev-arplant-042809-112315
p313
sg61
VANNU REV PLANT BIOL
p314
sg63
V61
p315
sg95
(lp316
(VSCHELLER
VH V
tp317
asg24
I2010
sg59
V263
p318
sbag1
(g2
g3
NtRp319
(dp320
g65
V10.1007/978-1-59745-379-0_4
p321
sg61
VV478
p322
sg63
V478
p323
sg95
(lp324
(VSPARKS
VCAROLINE A
tp325
asg24
I2009
sg59
V71
p326
sbag1
(g2
g3
NtRp327
(dp328
g65
V10.1038/nature11543
p329
sg61
VNATURE
p330
sg63
V491
p331
sg95
(lp332
(VTHE INTERNATIONAL BARLEY GENOME SEQUENCING CONSORTIUM
S''
tp333
asg24
I2012
sg59
V711
p334
sbag1
(g2
g3
NtRp335
(dp336
g65
V10.1016/j.jcs.2007.06.004
p337
sg61
VJ CEREAL SCI
p338
sg63
V46
p339
sg95
(lp340
(VTOPPING
VD
tp341
asg24
I2007
sg59
V220
p342
sbag1
(g2
g3
NtRp343
(dp344
g65
V10.1111/j.1365-313X.2008.03724.x
p345
sg61
VPLANT J
p346
sg63
V57
p347
sg95
(lp348
(VWU
VA M
tp349
asg24
I2009
sg59
VLANT
p350
sbag1
(g2
g3
NtRp351
(dp352
g65
V10.1104/pp.110.154971
p353
sg61
VPLANT PHYSIOL
p354
sg63
V153
p355
sg95
(lp356
(VWU
VA M
tp357
asg24
I2010
sg59
VLANT
p358
sbag1
(g2
g3
NtRp359
(dp360
g65
V10.1016/j.pbi.2008.02.007
p361
sg61
VCURR OPIN PLANT BIOL
p362
sg63
V11
p363
sg95
(lp364
(VYORK
VW S
tp365
asg24
I2008
sg59
V258
p366
sbag1
(g2
g3
NtRp367
(dp368
g65
V10.1104/pp.110.159749
p369
sg61
VPLANT PHYSIOL
p370
sg63
V154
p371
sg95
(lp372
(VZENG
VW
tp373
asg24
I2010
sg59
VLANT
p374
sbasb.