ccopy_reg
_reconstructor
p1
(ctethne.classes.paper
Paper
p2
c__builtin__
object
p3
NtRp4
(dp5
S'publisherCity'
p6
VROCKVILLE
p7
sS'reprintAddress'
p8
VBaldwin, IT (reprint author), Max Planck Inst Chem Ecol, Dept Mol Ecol, Beutenberg Campus, D-07745 Jena, Germany.
p9
sS'WC'
p10
VPlant Sciences
p11
sS'GA'
p12
V944GM
p13
sS'abstract'
p14
VModel systems have proven enormously useful in elucidating the biochemical function of plant genes. However their ecological function, having been sculpted by evolutionary forces specific to a species, may be less conserved across taxa. Responses to wounding and herbivore attack differ among plant families and are known to be mediated by oxylipin, ethylene, and systemin-signaling networks. We analyzed transcriptional responses of two native Solanaceous species to the attack of an herbivore whose elicitors are known not to be influenced by diet. With The Institute for Genomic Research 10k- cDNA potato (Solanum tuberosum) microarray, we compared the transcriptional responses of Nicotiana attenuata with those of black nightshade (Solanum nigrum) when both were attacked by the Solanaceous generalist herbivore, Manduca sexta. Based on an NADH dehydrogenase subunit F phylogeny, S. nigrum is more closely related to potato than N. attenuata but responded significantly less to M. sexta attack. Apart from transcriptional differences anticipated from their differences in secondary metabolism, both species showed distinct transcriptional patterns (with only 10% overlap in significantly regulated genes), which point to fundamental differences in the signaling cascades and downstream genes mediating herbivore resistance. The lackluster transcriptional response of S. nigrum could not be attributed to its inability to respond to elicitation, because methyl jasmonate elicitation of S. nigrum resulted in a strong transcriptional response. Given that attack from the same herbivore elicits profoundly different responses in two Solanaceaous taxa, we conclude that blueprints for commonly regulated responses to plant-herbivore interactions appear unlikely.
p15
sS'pageEnd'
p16
I1773
sS'date'
p17
I2005
sS'documentType'
p18
VArticle
p19
sS'subject'
p20
VPlant Sciences
p21
sS'isoSource'
p22
VPlant Physiol.
p23
sS'timesCited'
p24
(lp25
I50
aVZ9 56
p26
asS'PT'
p27
VJ
sS'title'
p28
VSpecificity In Ecological Interactions. Attack From The Same Lepidopteran Herbivore Results In Species-Specific Transcriptional Responses In Two Solanaceous Host Plants
p29
sS'ISSN'
p30
(lp31
V0032-0889
p32
aVJ9 PLANT PHYSIOL
p33
asS'authors_full'
p34
(lp35
(VSCHMIDT
VDD
tp36
a(VVOELCKEL
VC
tp37
a(VHARTL
VM
tp38
a(VSCHMIDT
VS
tp39
a(VBALDWIN
VIT
tp40
asS'PG'
p41
I11
sS'PD'
p42
VJUL
p43
sS'pageStart'
p44
I1763
sS'issue'
p45
I3
sS'RI'
p46
VHartl, Markus/F-2866-2010; Baldwin, Ian /K-1809-2013
p47
sS'journal'
p48
VPLANT PHYSIOLOGY
p49
sS'volume'
p50
V138
p51
sS'doi'
p52
V10.1104/pp.105.061192
p53
sS'emailAddress'
p54
Vbaldwin@ice.mpg.de
p55
sS'authorAddress'
p56
VMax Planck Inst Chem Ecol, Dept Mol Ecol, D-07745 Jena, Germany.
p57
sS'publisherAddress'
p58
V15501 MONONA DRIVE, ROCKVILLE, MD 20855 USA
p59
sS'ER'
p60
V
sS'publisher'
p61
VAMER SOC PLANT BIOLOGISTS
p62
sS'authorKeywords'
p63
(lp64
VMANDUCA-SEXTA LEPIDOPTERA
p65
aVTOBACCO NICOTIANA-ATTENUATA
p66
aVMOLECULAR-INTERACTIONS
p67
aVSOLANUM-NIGRUM
p68
aVARABIDOPSIS-THALIANA
p69
aVMICROARRAY ANALYSIS
p70
aVEXPRESSION SYSTEM
p71
aVJASMONATE
p72
aVSPHINGIDAE
p73
aVDEFENSE
p74
asS'OI'
p75
VHartl, Markus/0000-0002-4970-7336; 
p76
sS'language'
p77
VEnglish
p78
sS'wosid'
p79
VWOS:000230414800053
p80
sS'citationCount'
p81
I48
sS'authors_init'
p82
(lp83
(VSCHMIDT
VD D
tp84
a(VVOELCKEL
VC
tp85
a(VHARTL
VM
tp86
a(VSCHMIDT
VS
tp87
a(VBALDWIN
VI T
tp88
asS'citedReferences'
p89
(lp90
g1
(g2
g3
NtRp91
(dp92
g52
V10.1023/A:1024209302628
p93
sg48
VJ CHEM ECOL
p94
sg50
V29
p95
sg82
(lp96
(VALBORN
VH T
tp97
asg17
I2003
sg44
V1357
p98
sbag1
(g2
g3
NtRp99
(dp100
g52
V10.1023/A:1020880931488
p101
sg48
VJ CHEM ECOL
p102
sg50
V25
p103
sg82
(lp104
(VBALDWIN
VI T
tp105
asg17
I1999
sg44
V3
sbag1
(g2
g3
NtRp106
(dp107
g52
V10.1016/0092-8674(91)90129-M
p108
sg48
VCELL
p109
sg50
V66
p110
sg82
(lp111
(VBARR
VP J
tp112
asg17
I1991
sg44
V1
sbag1
(g2
g3
NtRp113
(dp114
g52
V10.1016/0031-9422(95)00554-4
p115
sg48
VPHYTOCHEMISTRY
p116
sg50
V41
p117
sg82
(lp118
(VBERGENSTRAHLE
VA
tp119
asg17
I1996
sg44
VHYTOCHEMISTRY
p120
sbag1
(g2
g3
NtRp121
(dp122
g52
V10.1046/j.0031-9317.2001.1140112.x
p123
sg48
VPHYSIOL PLANTARUM
p124
sg50
V114
p125
sg82
(lp126
(VBERGER
VS
tp127
asg17
I2002
sg44
VHYSIOL
p128
sbag1
(g2
g3
NtRp129
(dp130
g52
V10.1073/pnas.91.6.2329
p131
sg48
VP NATL ACAD SCI USA
p132
sg50
V91
p133
sg82
(lp134
(VCHOI
VD
tp135
asg17
I1994
sg44
V2329
p136
sbag1
(g2
g3
NtRp137
(dp138
g52
V10.1104/pp.124.1.285
p139
sg48
VPLANT PHYSIOL
p140
sg50
V124
p141
sg82
(lp142
(VCONSTABEL
VC P
tp143
asg17
I2000
sg44
VLANT
p144
sbag1
(g2
g3
NtRp145
(dp146
g52
V10.1023/A:1005986004615
p147
sg48
VPLANT MOL BIOL
p148
sg50
V36
p149
sg82
(lp150
(VCONSTABEL
VC P
tp151
asg17
I1998
sg44
VLANT
p152
sbag1
(g2
g3
NtRp153
(dp154
g52
V10.1046/j.1365-313X.2002.01432.x
p155
sg48
VPLANT J
p156
sg50
V32
p157
sg82
(lp158
(VDEVOTO
VA
tp159
asg17
I2002
sg44
VLANT
p160
sbag1
(g2
g3
NtRp161
(dp162
g52
Nsg48
VZ CHEM
p163
sg50
V27
p164
sg82
(lp165
(VDOPKE
VW
tp166
asg17
I1987
sg44
V64
p167
sbag1
(g2
g3
NtRp168
(dp169
g52
V10.2307/2406212
p170
sg48
VEVOLUTION
p171
sg50
V18
p172
sg82
(lp173
(VEHRLICH
VP R
tp174
asg17
I1964
sg44
V586
p175
sbag1
(g2
g3
NtRp176
(dp177
g52
V10.1126/science.129.3361.1466
p178
sg48
VSCIENCE
p179
sg50
V129
p180
sg82
(lp181
(VFRAENKEL
VG S
tp182
asg17
I1959
sg44
V1466
p183
sbag1
(g2
g3
NtRp184
(dp185
g52
Nsg48
VSYSTEMATIK PFLANZENR
p186
sg50
Nsg82
(lp187
(VFROHNE
VD
tp188
asg17
I1992
sg44
Nsbag1
(g2
g3
NtRp189
(dp190
g52
V10.1104/pp.007146
p191
sg48
VPLANT PHYSIOL
p192
sg50
V130
p193
sg82
(lp194
(VGANG
VD R
tp195
asg17
I2002
sg44
VLANT
p196
sbag1
(g2
g3
NtRp197
(dp198
g52
Nsg48
VPLANT PHYSIOL
p199
sg50
Nsg82
(lp200
(VGERSHENZON
VJ
tp201
asg17
I2002
sg44
VLANT
p202
sbag1
(g2
g3
NtRp203
(dp204
g52
V10.1104/pp.102.018184
p205
sg48
VPLANT PHYSIOL
p206
sg50
V131
p207
sg82
(lp208
(VHALITSCHKE
VR
tp209
asg17
I2003
sg44
VLANT
p210
sbag1
(g2
g3
NtRp211
(dp212
g52
V10.1104/pp.125.2.711
p213
sg48
VPLANT PHYSIOL
p214
sg50
V125
p215
sg82
(lp216
(VHALITSCHKE
VR
tp217
asg17
I2001
sg44
VLANT
p218
sbag1
(g2
g3
NtRp219
(dp220
g52
V10.1016/S1369-5266(03)00080-3
p221
sg48
VCURR OPIN PLANT BIOL
p222
sg50
V6
sg82
(lp223
(VHARE
VP D
tp224
asg17
I2003
sg44
V453
p225
sbag1
(g2
g3
NtRp226
(dp227
g52
V10.1111/j.1365-3040.2004.01228.x
p228
sg48
VPLANT CELL ENVIRON
p229
sg50
V27
p230
sg82
(lp231
(VHEIDEL
VA J
tp232
asg17
I2004
sg44
VLANT
p233
sbag1
(g2
g3
NtRp234
(dp235
g52
V10.1104/pp.125.2.683
p236
sg48
VPLANT PHYSIOL
p237
sg50
V125
p238
sg82
(lp239
(VHERMSMEIER
VD
tp240
asg17
I2001
sg44
VLANT
p241
sbag1
(g2
g3
NtRp242
(dp243
g52
V10.1098/rstb.1991.0077
p244
sg48
VPHILOS T ROY SOC B
p245
sg50
V333
p246
sg82
(lp247
(VJONES
VC G
tp248
asg17
I1991
sg44
VHILOS
p249
sbag1
(g2
g3
NtRp250
(dp251
g52
V10.1007/PL00008142
p252
sg48
VPLANTA
p253
sg50
V210
p254
sg82
(lp255
(VKAHL
VJ
tp256
asg17
I2000
sg44
VLANTA
p257
sbag1
(g2
g3
NtRp258
(dp259
g52
V10.1111/j.1365-313X.2004.02076.x
p260
sg48
VPLANT J
p261
sg50
V38
p262
sg82
(lp263
(VKESSLER
VA
tp264
asg17
I2004
sg44
VLANT
p265
sbag1
(g2
g3
NtRp266
(dp267
g52
V10.1126/science.291.5511.2141
p268
sg48
VSCIENCE
p269
sg50
V291
p270
sg82
(lp271
(VKESSLER
VA
tp272
asg17
I2001
sg44
V2141
p273
sbag1
(g2
g3
NtRp274
(dp275
g52
V10.1007/PL00012666
p276
sg48
VCHEMOECOLOGY
p277
sg50
V12
p278
sg82
(lp279
(VKRUGEL
VT
tp280
asg17
I2002
sg44
V177
p281
sbag1
(g2
g3
NtRp282
(dp283
g52
V10.1104/pp.125.1.58
p284
sg48
VPLANT PHYSIOL
p285
sg50
V125
p286
sg82
(lp287
(VKUTCHAN
VT M
tp288
asg17
I2001
sg44
VLANT
p289
sbag1
(g2
g3
NtRp290
(dp291
g52
V10.1023/A:1006375522626
p292
sg48
VPLANT MOL BIOL
p293
sg50
V41
p294
sg82
(lp295
(VLANTIN
VS
tp296
asg17
I1999
sg44
VLANT
p297
sbag1
(g2
g3
NtRp298
(dp299
g52
V10.1093/jexbot/52.354.1
p300
sg48
VJ EXP BOT
p301
sg50
V52
p302
sg82
(lp303
(VLEON
VJ
tp304
asg17
I2001
sg44
V1
sbag1
(g2
g3
NtRp305
(dp306
g52
V10.1146/annurev.arplant.50.1.47
p307
sg48
VANNU REV PLANT PHYS
p308
sg50
V50
p309
sg82
(lp310
(VLICHTENTHALER
VH K
tp311
asg17
I1999
sg44
V47
p312
sbag1
(g2
g3
NtRp313
(dp314
g52
V10.1006/meth.2001.1262
p315
sg48
VMETHODS
p316
sg50
V25
p317
sg82
(lp318
(VLIVAK
VK J
tp319
asg17
I2001
sg44
V402
p320
sbag1
(g2
g3
NtRp321
(dp322
g52
V10.1016/S0169-5347(01)02291-1
p323
sg48
VTRENDS ECOL EVOL
p324
sg50
V16
p325
sg82
(lp326
(VMITCHELL-OLDS
VT
tp327
asg17
I2001
sg44
V693
p328
sbag1
(g2
g3
NtRp329
(dp330
g52
V10.1034/j.1399-3054.2002.1150309.x
p331
sg48
VPHYSIOL PLANTARUM
p332
sg50
V115
p333
sg82
(lp334
(VMITTOVA
VV
tp335
asg17
I2002
sg44
VHYSIOL
p336
sbag1
(g2
g3
NtRp337
(dp338
g52
V10.1038/35081107
p339
sg48
VNATURE
p340
sg50
V411
p341
sg82
(lp342
(VPEARCE
VG
tp343
asg17
I2001
sg44
V817
p344
sbag1
(g2
g3
NtRp345
(dp346
g52
Nsg48
VPHARMAZIE
p347
sg50
V44
p348
sg82
(lp349
(VRIDOUT
VC L
tp350
asg17
I1989
sg44
VHARMAZIE
p351
sbag1
(g2
g3
NtRp352
(dp353
g52
V10.1111/j.1365-294X.2004.02260.x
p354
sg48
VMOL ECOL
p355
sg50
V13
p356
sg82
(lp357
(VRODA
VA
tp358
asg17
I2004
sg44
V2421
p359
sbag1
(g2
g3
NtRp360
(dp361
g52
V10.1016/S0031-9422(02)00608-8
p362
sg48
VPHYTOCHEMISTRY
p363
sg50
V62
p364
sg82
(lp365
(VRODA
VA L
tp366
asg17
I2003
sg44
VHYTOCHEMISTRY
p367
sbag1
(g2
g3
NtRp368
(dp369
g52
V10.1016/S0167-4838(99)00269-1
p370
sg48
VBBA
p371
sg50
V1477
p372
sg82
(lp373
(VRYAN
VC A
tp374
asg17
I2000
sg44
V112
p375
sbag1
(g2
g3
NtRp376
(dp377
g52
V10.1073/pnas.1432910100
p378
sg48
VP NATL ACAD SCI USA
p379
sg50
V100
p380
sg82
(lp381
(VSCHEER
VJ M
tp382
asg17
I2003
sg44
V10114
p383
sbag1
(g2
g3
NtRp384
(dp385
g52
V10.1111/j.1365-294X.2004.02111.x
p386
sg48
VMOL ECOL
p387
sg50
V13
p388
sg82
(lp389
(VSCHMIDT
VD D
tp390
asg17
I2004
sg44
V981
p391
sbag1
(g2
g3
NtRp392
(dp393
g52
V10.1104/pp.102.013854
p394
sg48
VPLANT PHYSIOL
p395
sg50
V132
p396
sg82
(lp397
(VTU
VC J
tp398
asg17
I2003
sg44
VLANT
p399
sbag1
(g2
g3
NtRp400
(dp401
g52
V10.1023/A:1010341022761
p402
sg48
VJ CHEM ECOL
p403
sg50
V27
p404
sg82
(lp405
(VVAN
VD A M N M
tp406
asg17
I2001
sg44
V547
p407
sbag1
(g2
g3
NtRp408
(dp409
g52
V10.1111/j.1365-313X.2004.02077.x
p410
sg48
VPLANT J
p411
sg50
V38
p412
sg82
(lp413
(VVOELCKEL
VC
tp414
asg17
I2004
sg44
VLANT
p415
sbag1
(g2
g3
NtRp416
(dp417
g52
V10.1034/j.1399-3054.2003.00105.x
p418
sg48
VPHYSIOL PLANTARUM
p419
sg50
V118
p420
sg82
(lp421
(VVOELCKEL
VC
tp422
asg17
I2003
sg44
VHYSIOL
p423
sbag1
(g2
g3
NtRp424
(dp425
g52
Nsg48
VJ CELL BIOCH S
p426
sg50
V19
p427
sg82
(lp428
(VWALLING
VL L
tp429
asg17
I1995
sg44
V137
p430
sbag1
(g2
g3
NtRp431
(dp432
g52
Nsg48
VJ PLANT GROWTH REGUL
p433
sg50
V19
p434
sg82
(lp435
(VWALLING
VL L
tp436
asg17
I2000
sg44
V195
p437
sbag1
(g2
g3
NtRp438
(dp439
g52
V10.1104/pp.125.4.2189
p440
sg48
VPLANT PHYSIOL
p441
sg50
V125
p442
sg82
(lp443
(VWINZ
VR A
tp444
asg17
I2001
sg44
VLANT
p445
sbag1
(g2
g3
NtRp446
(dp447
g52
V10.1126/science.280.5366.1091
p448
sg48
VSCIENCE
p449
sg50
V280
p450
sg82
(lp451
(VXIE
VD X
tp452
asg17
I1998
sg44
V1091
p453
sbag1
(g2
g3
NtRp454
(dp455
g52
V10.1104/pp.103.035634
p456
sg48
VPLANT PHYSIOL
p457
sg50
V134
p458
sg82
(lp459
(VZAVALA
VJ A
tp460
asg17
I2004
sg44
VLANT
p461
sbasb.