ccopy_reg
_reconstructor
p1
(ctethne.classes.paper
Paper
p2
c__builtin__
object
p3
NtRp4
(dp5
S'publisherCity'
p6
VROCKVILLE
p7
sS'reprintAddress'
p8
VClark, SE (reprint author), Univ Michigan, Dept Mol Cellular & Dev Biol, Ann Arbor, MI 48109 USA.
p9
sS'WC'
p10
VPlant Sciences
p11
sS'GA'
p12
V814XZ
p13
sS'FX'
p14
(lp15
VThis work was supported by the National Institutes of Health (grant no.
p16
aVR01GM62962 to S. E. C.) and the U.S. Department of Agriculture National
p17
aVResearch Initiative Competitive Grants Program (grant no.
p18
aV2006-35304-17403 to S. E. C. and grant nos. 2007-35607-17790 and
p19
aV2009-35302-05304 to X.W.).
p20
asS'abstract'
p21
VNematodes that parasitize plant roots cause huge economic losses and have few mechanisms for control. Many parasitic nematodes infect plants by reprogramming root development to drive the formation of feeding structures. How nematodes take control of plant development is largely unknown. Here, we identify two host factors involved in the function of a receptor ligand mimic, GrCLE1, secreted by the potato cyst nematode Globodera rostochiensis. GrCLE1 is correctly processed to an active form by host plant proteases. Processed GrCLE1 peptides bind directly to the plant CLE receptors CLV2, BAM1, and BAM2. Involvement of these receptors in the ligand-mimicking process is also supported by the fact that the ability of GrCLE1 peptides to alter plant root development in Arabidopsis (Arabidopsis thaliana) is dependent on these receptors. Critically, we also demonstrate that GrCLE1 maturation can be entirely carried out by plant factors and that the availability of CLE processing activity may be essential for successful ligand mimicry.
p22
sS'pageEnd'
p23
I484
sS'date'
p24
I2011
sS'documentType'
p25
VArticle
p26
sS'subject'
p27
VPlant Sciences
p28
sS'isoSource'
p29
VPlant Physiol.
p30
sS'timesCited'
p31
(lp32
I8
aVZ9 8
p33
asS'funding'
p34
(lp35
(VNational Institutes of Health
VR01GM62962
tp36
a(VU.S. Department of Agriculture National Research Initiative
V2006-35304-17403, 2007-35607-17790, 2009-35302-05304
tp37
asS'PT'
p38
VJ
sS'title'
p39
VMechanisms Of Molecular Mimicry Of Plant Cle Peptide Ligands By The Parasitic Nematode Globodera Rostochiensis
p40
sS'ISSN'
p41
(lp42
V0032-0889
p43
aVJ9 PLANT PHYSIOL
p44
asS'authors_full'
p45
(lp46
(VGUO
VYONGFENG
tp47
a(VNI
VJUN
tp48
a(VDENVER
VROBERT
tp49
a(VWANG
VXIAOHONG
tp50
a(VCLARK
VSTEVEN E
tp51
asS'PG'
p52
I9
sS'PD'
p53
VSEP
p54
sS'pageStart'
p55
I476
sS'issue'
p56
I1
sS'RI'
p57
VGuo, Yongfeng/G-4693-2011
p58
sS'journal'
p59
VPLANT PHYSIOLOGY
p60
sS'volume'
p61
V157
p62
sS'doi'
p63
V10.1104/pp.111.180554
p64
sS'emailAddress'
p65
Vclarks@umich.edu
p66
sS'authorAddress'
p67
(lp68
V[Guo, Yongfeng; Ni, Jun; Denver, Robert; Clark, Steven E.] Univ Michigan, Dept Mol Cellular & Dev Biol, Ann Arbor, MI 48109 USA.
p69
aV[Wang, Xiaohong] Cornell Univ, Robert W Holley Ctr Agr & Hlth, USDA, ARS, Ithaca, NY 14853 USA.
p70
aV[Wang, Xiaohong] Cornell Univ, Dept Plant Pathol & Plant Microbe Biol, Ithaca, NY 14853 USA.
p71
asS'publisherAddress'
p72
V15501 MONONA DRIVE, ROCKVILLE, MD 20855 USA
p73
sS'ER'
p74
V
sS'publisher'
p75
VAMER SOC PLANT BIOLOGISTS
p76
sS'authorKeywords'
p77
(lp78
VRECEPTOR-LIKE KINASE
p79
aVSTEM-CELL FATE
p80
aVARABIDOPSIS-THALIANA
p81
aVHETERODERA-GLYCINES
p82
aVROOT-MERISTEM
p83
aVGENES
p84
aVPROTEINS
p85
aVCLAVATA2
p86
aVPOLYPEPTIDE
p87
aVFAMILY
p88
asS'language'
p89
VEnglish
p90
sS'wosid'
p91
VWOS:000294491800036
p92
sS'citationCount'
p93
I36
sS'authors_init'
p94
(lp95
(VGUO
VY F
tp96
a(VNI
VJ
tp97
a(VDENVER
VR
tp98
a(VWANG
VX H
tp99
a(VCLARK
VS E
tp100
asS'citedReferences'
p101
(lp102
g1
(g2
g3
NtRp103
(dp104
g63
V10.1094/MPMI-20-3-0306
p105
sg59
VMOL PLANT MICROBE IN
p106
sg61
V20
p107
sg94
(lp108
(VBAKHETIA
VM
tp109
asg24
I2007
sg55
V306
p110
sbag1
(g2
g3
NtRp111
(dp112
g63
V10.1016/S0960-9822(03)00533-5
p113
sg59
VCURR BIOL
p114
sg61
V13
p115
sg94
(lp116
(VCASAMITJANA-MARTINEZ
VE
tp117
asg24
I2003
sg55
V1435
p118
sbag1
(g2
g3
NtRp119
(dp120
g63
Nsg59
VDEVELOPMENT
p121
sg61
V121
p122
sg94
(lp123
(VCLARK
VS E
tp124
asg24
I1995
sg55
V2057
p125
sbag1
(g2
g3
NtRp126
(dp127
g63
V10.1104/pp.126.3.939
p128
sg59
VPLANT PHYSIOL
p129
sg61
V126
p130
sg94
(lp131
(VCOCK
VJ M
tp132
asg24
I2001
sg55
VLANT
p133
sbag1
(g2
g3
NtRp134
(dp135
g63
V10.1016/j.pbi.2008.04.003
p136
sg59
VCURR OPIN PLANT BIOL
p137
sg61
V11
p138
sg94
(lp139
(VDAVIS
VE L
tp140
asg24
I2008
sg55
V360
p141
sbag1
(g2
g3
NtRp142
(dp143
g63
V10.1016/j.pt.2004.01.005
p144
sg59
VTRENDS PARASITOL
p145
sg61
V20
p146
sg94
(lp147
(VDAVIS
VE L
tp148
asg24
I2004
sg55
V134
p149
sbag1
(g2
g3
NtRp150
(dp151
g63
V10.1023/A:1010672910703
p152
sg59
VPLANT MOL BIOL
p153
sg61
V46
p154
sg94
(lp155
(VDEYOUNG
VB J
tp156
asg24
I2001
sg55
VLANT
p157
sbag1
(g2
g3
NtRp158
(dp159
g63
V10.1111/j.1365-313X.2005.02592.x
p160
sg59
VPLANT J
p161
sg61
V45
p162
sg94
(lp163
(VDEYOUNG
VB J
tp164
asg24
I2006
sg55
VLANT
p165
sbag1
(g2
g3
NtRp166
(dp167
g63
V10.1007/BF00333575
p168
sg59
VMOL GEN GENET
p169
sg61
V206
p170
sg94
(lp171
(VESTELLE
VM A
tp172
asg24
I1987
sg55
V200
p173
sbag1
(g2
g3
NtRp174
(dp175
g63
V10.1105/tpc.105.034009
p176
sg59
VPLANT CELL
p177
sg61
V17
p178
sg94
(lp179
(VFIERS
VM
tp180
asg24
I2005
sg55
VLANT
p181
sbag1
(g2
g3
NtRp182
(dp183
g63
V10.1126/science.283.5409.1911
p184
sg59
VScience 
p185
sg61
V283
p186
sg94
(lp187
(VFLETCHER
VJENNIFER C
tp188
asg24
I1999
sg55
V1911
p189
sbag1
(g2
g3
NtRp190
(dp191
g63
V10.1111/j.1365-313X.2010.04295.x
p192
sg59
VPLANT J
p193
sg61
V63
p194
sg94
(lp195
(VGUO
VY F
tp196
asg24
I2010
sg55
VLANT
p197
sbag1
(g2
g3
NtRp198
(dp199
g63
V10.1073/pnas.0808444105
p200
sg59
VP NATL ACAD SCI USA
p201
sg61
V105
p202
sg94
(lp203
(VHIRAKAWA
VY
tp204
asg24
I2008
sg55
V15208
p205
sbag1
(g2
g3
NtRp206
(dp207
g63
V10.1126/science.1128436
p208
sg59
VSCIENCE
p209
sg61
V313
p210
sg94
(lp211
(VITO
VY
tp212
asg24
I2006
sg55
V842
p213
sbag1
(g2
g3
NtRp214
(dp215
g63
V10.1105/tpc.11.10.1925
p216
sg59
VPLANT CELL
p217
sg61
V11
p218
sg94
(lp219
(VJEONG
VS
tp220
asg24
I1999
sg55
VLANT
p221
sbag1
(g2
g3
NtRp222
(dp223
g63
V10.1007/s00018-007-7411-5
p224
sg59
VCELL MOL LIFE SCI
p225
sg61
V65
p226
sg94
(lp227
(VJUN
VJ H
tp228
asg24
I2008
sg55
V743
p229
sbag1
(g2
g3
NtRp230
(dp231
g63
V10.1016/j.bbrc.2008.09.139
p232
sg59
VBIOCHEM BIOPH RES CO
p233
sg61
V377
p234
sg94
(lp235
(VKONDO
VT
tp236
asg24
I2008
sg55
V312
p237
sbag1
(g2
g3
NtRp238
(dp239
g63
V10.1111/j.1365-313X.2010.04474.x
p240
sg59
VPLANT J
p241
sg61
V65
p242
sg94
(lp243
(VKRUSELL
VL
tp244
asg24
I2011
sg55
VLANT
p245
sbag1
(g2
g3
NtRp246
(dp247
g63
V10.1094/MPMI-22-9-1128
p248
sg59
VMOL PLANT MICROBE IN
p249
sg61
V22
p250
sg94
(lp251
(VLU
VS W
tp252
asg24
I2009
sg55
V1128
p253
sbag1
(g2
g3
NtRp254
(dp255
g63
V10.1093/mp/ssq021
p256
sg59
VMOL PLANT
p257
sg61
V3
sg94
(lp258
(VMENG
VL
tp259
asg24
I2010
sg55
V760
p260
sbag1
(g2
g3
NtRp261
(dp262
g63
V10.1016/j.pbi.2007.10.010
p263
sg59
VCURR OPIN PLANT BIOL
p264
sg61
V11
p265
sg94
(lp266
(VMITCHUM
VM G
tp267
asg24
I2008
sg55
V75
p268
sbag1
(g2
g3
NtRp269
(dp270
g63
V10.1093/pcp/pcn148
p271
sg59
VPLANT CELL PHYSIOL
p272
sg61
V49
p273
sg94
(lp274
(VMIWA
VH
tp275
asg24
I2008
sg55
VLANT
p276
sbag1
(g2
g3
NtRp277
(dp278
g63
Nsg59
VPLANT PHYSIOL
p279
sg61
V140
p280
sg94
(lp281
(VNI
VJ
tp282
asg24
I2006
sg55
VLANT
p283
sbag1
(g2
g3
NtRp284
(dp285
g63
V10.1007/s11103-010-9708-2
p286
sg59
VPLANT MOL BIOL
p287
sg61
V75
p288
sg94
(lp289
(VNI
VJ
tp290
asg24
I2011
sg55
VLANT
p291
sbag1
(g2
g3
NtRp292
(dp293
g63
V10.1186/1471-2229-8-1
p294
sg59
VBMC PLANT BIOL
p295
sg61
V8
sg94
(lp296
(VOELKERS
VK
tp297
asg24
I2008
sg55
Nsbag1
(g2
g3
NtRp298
(dp299
g63
V10.1126/science.1150083
p300
sg59
VSCIENCE
p301
sg61
V319
p302
sg94
(lp303
(VOGAWA
VM
tp304
asg24
I2008
sg55
V294
p305
sbag1
(g2
g3
NtRp306
(dp307
g63
V10.1038/nchembio.182
p308
sg59
VNAT CHEM BIOL
p309
sg61
V5
sg94
(lp310
(VOHYAMA
VK
tp311
asg24
I2009
sg55
V578
p312
sbag1
(g2
g3
NtRp313
(dp314
g63
V10.1016/S1360-1385(03)00003-7
p315
sg59
VTRENDS PLANT SCI
p316
sg61
V8
sg94
(lp317
(VOLSEN
VA N
tp318
asg24
I2003
sg55
V55
p319
sbag1
(g2
g3
NtRp320
(dp321
g63
V10.1111/j.1365-313X.2010.04433.x
p322
sg59
VPLANT J
p323
sg61
V65
p324
sg94
(lp325
(VREPLOGLE
VA
tp326
asg24
I2011
sg55
VLANT
p327
sbag1
(g2
g3
NtRp328
(dp329
g63
Nsg59
VVistas on Nematology
p330
sg61
Vistas
p331
sg94
(lp332
(VSASSER
VJ N
tp333
asg24
I1987
sg55
V7
sbag1
(g2
g3
NtRp334
(dp335
g63
V10.1023/A:1022038932376
p336
sg59
VPLANT MOL BIOL
p337
sg61
V51
p338
sg94
(lp339
(VSHARMA
VV K
tp340
asg24
I2003
sg55
VLANT
p341
sbag1
(g2
g3
NtRp342
(dp343
g63
V10.1104/pp.106.080671
p344
sg59
VPLANT PHYSIOL
p345
sg61
V141
p346
sg94
(lp347
(VFIERS
VM
tp348
asg24
I2006
sg55
VLANT
p349
sbag1
(g2
g3
NtRp350
(dp351
g63
V10.1111/j.1469-8137.2010.03300.x
p352
sg59
VNEW PHYTOL
p353
sg61
V187
p354
sg94
(lp355
(VWANG
VJ Y
tp356
asg24
I2010
sg55
V1003
p357
sbag1
(g2
g3
NtRp358
(dp359
g63
V10.1111/j.1364-3703.2010.00660.x
p360
sg59
VMOL PLANT PATHOL
p361
sg61
V12
p362
sg94
(lp363
(VWANG
VJ Y
tp364
asg24
I2011
sg55
V177
p365
sbag1
(g2
g3
NtRp366
(dp367
g63
V10.1094/MPMI.2001.14.4.536
p368
sg59
VMOL PLANT MICROBE IN
p369
sg61
V14
p370
sg94
(lp371
(VWANG
VX H
tp372
asg24
I2001
sg55
V536
p373
sbag1
(g2
g3
NtRp374
(dp375
g63
V[10.1111/j.1364-3703.2005.00270.x, 10.1111/J.1364-3703.2005.00270.X]
p376
sg59
VMOL PLANT PATHOL
p377
sg61
V6
sg94
(lp378
(VWANG
VX H
tp379
asg24
I2005
sg55
V187
p380
sbasb.