ccopy_reg
_reconstructor
p1
(ctethne.classes.paper
Paper
p2
c__builtin__
object
p3
NtRp4
(dp5
S'publisherCity'
p6
VROCKVILLE
p7
sS'reprintAddress'
p8
VSauer, N (reprint author), Univ Erlangen Nurnberg, Staudtstr 5, D-91058 Erlangen, Germany.
p9
sS'WC'
p10
VPlant Sciences
p11
sS'GA'
p12
V767EL
p13
sS'abstract'
p14
VThe cDNAs of two sorbitol transporters, common plantain (Plantago major) polyol transporter (PLT) 1 and 2 (PmPLT1 and PmPLT2), were isolated from a vascular bundle-specific cDNA library from common plantain, a dicot plant transporting Suc plus sorbitol in its phloem. Here, we describe the kinetic characterization of these sorbitol transporters by functional expression in Brewer's yeast (Saccharomyces cerevisiae) and in Xenopus sp. oocytes and for the first time the localization of plant PLTs in specific cell types of the vascular tissue. In the yeast system, both proteins were shown to be uncoupler sensitive and could be characterized as low-affinity and low-specificity polyol symporters. The K-m value for the physiological substrate sorbitol is 12 mm for PmPLT1 and even higher for PmPLT2, which showed an almost linear increase in sorbitol transport rates up to 20 mm. These data were confirmed in the Xenopus sp. system, where PmPLT1 was analyzed in detail and characterized as a H+ symporter. Using peptide-specific polyclonal antisera against PmPLT1 or PmPLT2 and simultaneous labeling with the monoclonal antiserum 1A2 raised against the companion cell-specific PmSUC2 Suc transporter, both PLTs were localized to companion cells of the phloem in common plantain source leaves. These analyses revealed two different types of companion cells in the common plantain phloem: younger cells expressing PmSUC2 at higher levels and older cells expressing lower levels of PmSUC2 plus both PLT genes. The putative role of these low-affinity transporters in phloem loading is discussed.
p15
sS'pageEnd'
p16
I160
sS'date'
p17
I2004
sS'documentType'
p18
VArticle
p19
sS'subject'
p20
VPlant Sciences
p21
sS'isoSource'
p22
VPlant Physiol.
p23
sS'timesCited'
p24
(lp25
I37
aVZ9 39
p26
asS'PT'
p27
VJ
sS'title'
p28
VDifferential Expression Of Sucrose Transporter And Polyol Transporter Genes During Maturation Of Common Plantain Companion Cells
p29
sS'ISSN'
p30
(lp31
V0032-0889
p32
aVJ9 PLANT PHYSIOL
p33
asS'authors_full'
p34
(lp35
(VRAMSPERGERGLEIXNER
VM
tp36
a(VGEIGER
VD
tp37
a(VHEDRICH
VR
tp38
a(VSAUER
VN
tp39
asS'PG'
p40
I14
sS'PD'
p41
VJAN
p42
sS'pageStart'
p43
I147
sS'issue'
p44
I1
sS'RI'
p45
VHedrich, Rainer/G-8771-2011
p46
sS'journal'
p47
VPLANT PHYSIOLOGY
p48
sS'volume'
p49
V134
p50
sS'doi'
p51
V10.1104/pp.103.027136
p52
sS'emailAddress'
p53
Vnsauer@biologie.uni-erlangen.de
p54
sS'authorAddress'
p55
(lp56
VUniv Erlangen Nurnberg, D-91058 Erlangen, Germany.
p57
aVJulius von Sachs Inst Biowissensch, Lehrstuhl Bot 1, D-97082 Wurzburg, Germany.
p58
asS'publisherAddress'
p59
V15501 MONONA DRIVE, ROCKVILLE, MD 20855 USA
p60
sS'ER'
p61
V
sS'publisher'
p62
VAMER SOC PLANT BIOLOGISTS
p63
sS'authorKeywords'
p64
(lp65
VENUCLEATE SIEVE ELEMENTS
p66
aVAPIUM-GRAVEOLENS L
p67
aVARABIDOPSIS-THALIANA
p68
aVH+ SYMPORTER
p69
aVSACCHAROMYCES-CEREVISIAE
p70
aVACYCLIC POLYOLS
p71
aVMAJOR L
p72
aVPHLOEM
p73
aVMANNITOL
p74
aVSORBITOL
p75
asS'language'
p76
VEnglish
p77
sS'wosid'
p78
VWOS:000188427200017
p79
sS'citationCount'
p80
I56
sS'authors_init'
p81
(lp82
(VRAMSPERGERGLEIXNER
VM
tp83
a(VGEIGER
VD
tp84
a(VHEDRICH
VR
tp85
a(VSAUER
VN
tp86
asS'citedReferences'
p87
(lp88
g1
(g2
g3
NtRp89
(dp90
g51
Nsg47
VPLANT CELL PHYSIOL
p91
sg49
V40
p92
sg81
(lp93
(VAOKI
VN
tp94
asg17
I1999
sg43
VLANT
p95
sbag1
(g2
g3
NtRp96
(dp97
g51
V10.1105/tpc.12.7.1153
p98
sg47
VPLANT CELL
p99
sg49
V12
p100
sg81
(lp101
(VBARKER
VL
tp102
asg17
I2000
sg43
VLANT
p103
sbag1
(g2
g3
NtRp104
(dp105
g51
Nsg47
VMOD METHOD PLANT
p106
sg49
Nsg81
(lp107
(VBARKER
VS A
tp108
asg17
I1955
sg43
V158
p109
sbag1
(g2
g3
NtRp110
(dp111
g51
V10.1105/tpc.010967
p112
sg47
VPLANT CELL
p113
sg49
V15
p114
sg81
(lp115
(VBARTH
VI
tp116
asg17
I2003
sg43
VLANT
p117
sbag1
(g2
g3
NtRp118
(dp119
g51
Nsg47
VPLANTA
p120
sg49
V188
p121
sg81
(lp122
(VBEBEE
VD U
tp123
asg17
I1992
sg43
VLANTA
p124
sbag1
(g2
g3
NtRp125
(dp126
g51
V10.1073/pnas.93.15.8123
p127
sg47
VP NATL ACAD SCI USA
p128
sg49
V93
p129
sg81
(lp130
(VBECKER
VD
tp131
asg17
I1996
sg43
V8123
p132
sbag1
(g2
g3
NtRp133
(dp134
g51
V10.1104/pp.119.2.735
p135
sg47
VPLANT PHYSIOL
p136
sg49
V119
p137
sg81
(lp138
(VBELLALOUI
VN
tp139
asg17
I1999
sg43
VLANT
p140
sbag1
(g2
g3
NtRp141
(dp142
g51
Nsg47
VJ EXP BOT
p143
sg49
V44
p144
sg81
(lp145
(VBERUTER
VJ
tp146
asg17
I1997
sg43
V519
p147
sbag1
(g2
g3
NtRp148
(dp149
g51
Nsg47
VJ BIOL CHEM
p150
sg49
V269
p151
sg81
(lp152
(VBOORER
VK J
tp153
asg17
I1994
sg43
V20417
p154
sbag1
(g2
g3
NtRp155
(dp156
g51
Nsg47
VJ BIOL CHEM
p157
sg49
V271
p158
sg81
(lp159
(VBOORER
VK J
tp160
asg17
I1996
sg43
V25139
p161
sbag1
(g2
g3
NtRp162
(dp163
g51
V10.1104/pp.119.1.17
p164
sg47
VPLANT PHYSIOL
p165
sg49
V119
p166
sg81
(lp167
(VBROWN
VP H
tp168
asg17
I1999
sg43
VLANT
p169
sbag1
(g2
g3
NtRp170
(dp171
g51
V10.1104/pp.118.1.59
p172
sg47
VPLANT PHYSIOL
p173
sg49
V118
p174
sg81
(lp175
(VBURKLE
VL
tp176
asg17
I1998
sg43
VLANT
p177
sbag1
(g2
g3
NtRp178
(dp179
g51
V10.1007/BF02878113
p180
sg47
VFOLIA MICROBIOL
p181
sg49
V20
p182
sg81
(lp183
(VCANH
VD S
tp184
asg17
I1975
sg43
V320
p185
sbag1
(g2
g3
NtRp186
(dp187
g51
V10.1073/pnas.80.23.7080
p188
sg47
VP NATL ACAD SCI
p189
sg49
V80
p190
sg81
(lp191
(VEMR
VS D
tp192
asg17
I1983
sg43
V7080
p193
sbag1
(g2
g3
NtRp194
(dp195
g51
Nsg47
VPLANT PHYSIOL
p196
sg49
V106
p197
sg81
(lp198
(VEVERARD
VJ D
tp199
asg17
I1994
sg43
VLANT
p200
sbag1
(g2
g3
NtRp201
(dp202
g51
Nsg47
VPLANTA
p203
sg49
V198
p204
sg81
(lp205
(VFLORA
VL L
tp206
asg17
I1996
sg43
VLANTA
p207
sbag1
(g2
g3
NtRp208
(dp209
g51
V10.1046/j.1365-313X.1994.6050697.x
p210
sg47
VPLANT J
p211
sg49
V6
sg81
(lp212
(VGAHRTZ
VM
tp213
asg17
I1994
sg43
VLANT
p214
sbag1
(g2
g3
NtRp215
(dp216
g51
V10.1046/j.1365-313X.1996.09010093.x
p217
sg47
VPLANT J
p218
sg49
V9
sg81
(lp219
(VGAHRTZ
VM
tp220
asg17
I1996
sg43
VLANT
p221
sbag1
(g2
g3
NtRp222
(dp223
g51
V10.1104/pp.102.016725
p224
sg47
VPLANT PHYSIOL
p225
sg49
V131
p226
sg81
(lp227
(VGAO
VZ F
tp228
asg17
I2003
sg43
VLANT
p229
sbag1
(g2
g3
NtRp230
(dp231
g51
V10.1073/pnas.250473797
p232
sg47
VP NATL ACAD SCI USA
p233
sg49
V97
p234
sg81
(lp235
(VGOTTWALD
VJ R
tp236
asg17
I2000
sg43
V13979
p237
sbag1
(g2
g3
NtRp238
(dp239
g51
V10.1016/S0022-2836(83)80284-8
p240
sg47
VJ MOL BIOL
p241
sg49
V166
p242
sg81
(lp243
(VHANAHAN
VD
tp244
asg17
I1983
sg43
V557
p245
sbag1
(g2
g3
NtRp246
(dp247
g51
V10.1093/jexbot/52.359.1251
p248
sg47
VJ EXP BOT
p249
sg49
V52
p250
sg81
(lp251
(VHANSCH
VR
tp252
asg17
I2001
sg43
V1251
p253
sbag1
(g2
g3
NtRp254
(dp255
g51
V10.1104/pp.123.3.929
p256
sg47
VPLANT PHYSIOL
p257
sg49
V123
p258
sg81
(lp259
(VHARITATOS
VE
tp260
asg17
I2000
sg43
VLANT
p261
sbag1
(g2
g3
NtRp262
(dp263
g51
Nsg47
VMOL CELLULAR BIOL YE
p264
sg49
V1
sg81
(lp265
(VHINNEBUSCH
VA G
tp266
asg17
I1991
sg43
V627
p267
sbag1
(g2
g3
NtRp268
(dp269
g51
V10.1104/pp.113.2.649
p270
sg47
VPLANT PHYSIOL
p271
sg49
V113
p272
sg81
(lp273
(VHU
VH N
tp274
asg17
I1997
sg43
VLANT
p275
sbag1
(g2
g3
NtRp276
(dp277
g51
V10.1073/pnas.95.25.15129
p278
sg47
VP NATL ACAD SCI USA
p279
sg49
V95
p280
sg81
(lp281
(VJENNINGS
VD B
tp282
asg17
I1998
sg43
V15129
p283
sbag1
(g2
g3
NtRp284
(dp285
g51
Nsg47
VENCY PLANT PHYSL A
p286
sg49
V13a
p287
sg81
(lp288
(VKANDLER
VO
tp289
asg17
I1982
sg43
V348
p290
sbag1
(g2
g3
NtRp291
(dp292
g51
Nsg47
VPHOTOASSIMILATE DIST
p293
sg49
Nsg81
(lp294
(VKELLER
VF
tp295
asg17
I1996
sg43
VHOTOASSIMILATE
p296
sbag1
(g2
g3
NtRp297
(dp298
g51
V10.1126/science.275.5304.1298
p299
sg47
VSCIENCE
p300
sg49
V275
p301
sg81
(lp302
(VKUHN
VC
tp303
asg17
I1997
sg43
V1298
p304
sbag1
(g2
g3
NtRp305
(dp306
g51
Nsg47
VIN PRESS ADV PHOTOSY
p307
sg49
Nsg81
(lp308
(VLOHAUS
VG
tp309
asg17
I2002
sg43
Nsbag1
(g2
g3
NtRp310
(dp311
g51
V10.1046/j.1365-313x.2000.00900.x
p312
sg47
VPLANT J
p313
sg49
V24
p314
sg81
(lp315
(VLUDWIG
VA
tp316
asg17
I2000
sg43
VLANT
p317
sbag1
(g2
g3
NtRp318
(dp319
g51
Nsg47
VPLANT PHYSIOL
p320
sg49
V106
p321
sg81
(lp322
(VMOING
VA
tp323
asg17
I1994
sg43
VLANT
p324
sbag1
(g2
g3
NtRp325
(dp326
g51
V10.1105/tpc.13.3.695
p327
sg47
VPLANT CELL
p328
sg49
V13
p329
sg81
(lp330
(VNOIRAUD
VN
tp331
asg17
I2001
sg43
VLANT
p332
sbag1
(g2
g3
NtRp333
(dp334
g51
V10.1104/pp.122.4.1447
p335
sg47
VPLANT PHYSIOL
p336
sg49
V122
p337
sg81
(lp338
(VNOIRAUD
VN
tp339
asg17
I2000
sg43
VLANT
p340
sbag1
(g2
g3
NtRp341
(dp342
g51
V10.1021/ac970101o
p343
sg47
VANAL CHEM
p344
sg49
V69
p345
sg81
(lp346
(VPENN
VS G
tp347
asg17
I1997
sg43
V2471
p348
sbag1
(g2
g3
NtRp349
(dp350
g51
Nsg47
VPLANT CELL
p351
sg49
V5
sg81
(lp352
(VRIESMEIER
VJ W
tp353
asg17
I1993
sg43
VLANT
p354
sbag1
(g2
g3
NtRp355
(dp356
g51
Nsg47
VEMBO J
p357
sg49
V11
p358
sg81
(lp359
(VRIESMEIER
VJ W
tp360
asg17
I1992
sg43
V4705
p361
sbag1
(g2
g3
NtRp362
(dp363
g51
Nsg47
VPLANTA
p364
sg49
V197
p365
sg81
(lp366
(VSALMON
VS
tp367
asg17
I1995
sg43
VLANTA
p368
sbag1
(g2
g3
NtRp369
(dp370
g51
V10.1016/0378-1119(94)90741-2
p371
sg47
VGENE
p372
sg49
V140
p373
sg81
(lp374
(VSARTHY
VA V
tp375
asg17
I1994
sg43
V121
p376
sbag1
(g2
g3
NtRp377
(dp378
g51
V10.1046/j.1365-313X.1994.6010067.x
p379
sg47
VPLANT J
p380
sg49
V6
sg81
(lp381
(VSAUER
VN
tp382
asg17
I1994
sg43
VLANT
p383
sbag1
(g2
g3
NtRp384
(dp385
g51
Nsg47
VEMBO J
p386
sg49
V9
sg81
(lp387
(VSAUER
VN
tp388
asg17
I1990
sg43
V3045
p389
sbag1
(g2
g3
NtRp390
(dp391
g51
Nsg47
VPLANT PHYSIOL
p392
sg49
V115
p393
sg81
(lp394
(VSHEN
VB
tp395
asg17
I1997
sg43
VLANT
p396
sbag1
(g2
g3
NtRp397
(dp398
g51
Nsg47
VPLANT CELL
p399
sg49
V7
sg81
(lp400
(VSTADLER
VR
tp401
asg17
I1995
sg43
VLANT
p402
sbag1
(g2
g3
NtRp403
(dp404
g51
V10.1104/pp.107.1.33
p405
sg47
VPLANT PHYSIOL
p406
sg49
V107
p407
sg81
(lp408
(VSTADLER
VR
tp409
asg17
I1995
sg43
VLANT
p410
sbag1
(g2
g3
NtRp411
(dp412
g51
Nsg47
VBOT ACTA
p413
sg49
V109
p414
sg81
(lp415
(VSTADLER
VR
tp416
asg17
I1996
sg43
V299
p417
sbag1
(g2
g3
NtRp418
(dp419
g51
V10.1016/S0014-5793(99)00756-5
p420
sg47
VFEBS LETT
p421
sg49
V453
p422
sg81
(lp423
(VSTOLZ
VJ
tp424
asg17
I1999
sg43
V375
p425
sbag1
(g2
g3
NtRp426
(dp427
g51
Nsg47
VPLANT PHYSIOL
p428
sg49
V106
p429
sg81
(lp430
(VSTOOP
VJ M H
tp431
asg17
I1994
sg43
VLANT
p432
sbag1
(g2
g3
NtRp433
(dp434
g51
Nsg47
VJ AM SOC HORTIC SCI
p435
sg49
V119
p436
sg81
(lp437
(VSTOOP
VJ M H
tp438
asg17
I1994
sg43
V237
p439
sbag1
(g2
g3
NtRp440
(dp441
g51
V10.1126/science.259.5094.508
p442
sg47
VSCIENCE
p443
sg49
V259
p444
sg81
(lp445
(VTARCZYNSKI
VM C
tp446
asg17
I1993
sg43
V508
p447
sbag1
(g2
g3
NtRp448
(dp449
g51
Nsg47
VPLANTA
p450
sg49
V196
p451
sg81
(lp452
(VTRUERNIT
VE
tp453
asg17
I1995
sg43
VLANTA
p454
sbag1
(g2
g3
NtRp455
(dp456
g51
V10.1016/S1360-1385(96)10045-5
p457
sg47
VTRENDS PLANT SCI
p458
sg49
V1
sg81
(lp459
(VTURGEON
VR
tp460
asg17
I1996
sg43
V418
p461
sbag1
(g2
g3
NtRp462
(dp463
g51
Nsg47
VP K NED AKAD C BIOL
p464
sg49
V84
p465
sg81
(lp466
(VWALLAART
VR A M
tp467
asg17
I1981
sg43
V77
p468
sbag1
(g2
g3
NtRp469
(dp470
g51
V10.1126/science.137.3532.766
p471
sg47
VSCIENCE
p472
sg49
V137
p473
sg81
(lp474
(VWEBB
VK L
tp475
asg17
I1962
sg43
V766
p476
sbag1
(g2
g3
NtRp477
(dp478
g51
V10.1105/tpc.12.8.1345
p479
sg47
VPLANT CELL
p480
sg49
V12
p481
sg81
(lp482
(VWEISE
VA
tp483
asg17
I2000
sg43
VLANT
p484
sbag1
(g2
g3
NtRp485
(dp486
g51
V10.1016/S1360-1385(00)01681-2
p487
sg47
VTRENDS PLANT SCI
p488
sg49
V5
sg81
(lp489
(VWILLIAMS
VL E
tp490
asg17
I2000
sg43
V283
p491
sbag1
(g2
g3
NtRp492
(dp493
g51
Nsg47
VENCY PLANT PHYSL
p494
sg49
V1
sg81
(lp495
(VZIEGLER
VH
tp496
asg17
I1975
sg43
V480
p497
sbasb.