ccopy_reg
_reconstructor
p1
(ctethne.classes.paper
Paper
p2
c__builtin__
object
p3
NtRp4
(dp5
S'publisherCity'
p6
VIOWA CITY
p7
sS'reprintAddress'
p8
VKnudsen, SH (reprint author), Univ Washington, Sch Law, Law, Seattle, WA 98195 USA.
p9
sS'WC'
p10
VLaw
p11
sS'GA'
p12
VCH6KY
p13
sS'abstract'
p14
VAdversarial science-sometimes referred to as "litigation science" or "junk science"-has a bad name. It is often associated with the tobacco industry's relentless use of science to manufacture uncertainty and avoid liability. This Article challenges the traditional conception that adversarial science should be castigated simply because it was developed for litigation. Rather, this Article urges that adversarial science is an important informational asset that should, and indeed must, be embraced. In the ecological context, adversarial science is vital to understanding the ecological effects of long-term toxic exposure. Government trustees and corporate defendants fund intensive scientific research following major ecological disasters like oil spills as part of a process known as natural resource damage assessment ("NRDA"). During this process, lawyers engage scientists to advance advocacy positions, either to support or to defeat claims for natural resource damages. The NRDA process presents an unparalleled opportunity to intensively study the effects of toxic exposure to ecosystems at the very moment those impacts are unfolding. At the same time, the science that emerges is adversarial; it suffers from the same conflicts of interests and perceptions of bias as other result-oriented science. While scientists and legal scholars have written extensively about the conflicts of interest embedded in other forms of policy-relevant science, surprisingly little scholarly attention has been given to the influence of litigation on NRDA science or the implications of that influence on the broader scientific understanding of ecological harms. This Article casts a bright light on adversarial science, using the scientific literature to expose the influence of litigation on NRDA science. More importantly, this Article-while acknowledging the risks of adversarial science-urges policymakers to embrace it. Ultimately, this Article offers solutions that both release adversarial science from traditional clouds of suspicion and allow adversarial science to inform public policy on the long-term harm from toxic exposure.
p15
sS'pageEnd'
p16
I1557
sS'publisherAddress'
p17
V290 BOYD LAW BLDG, IOWA CITY, IA 52242 USA
p18
sS'documentType'
p19
VArticle
p20
sS'subject'
p21
VGovernment & Law
p22
sS'isoSource'
p23
VIowa Law Rev.
p24
sS'timesCited'
p25
(lp26
I0
aVZ9 0
p27
asS'PT'
p28
VJ
sS'title'
p29
VAdversarial Science
p30
sS'ISSN'
p31
(lp32
V0021-0552
p33
aVJ9 IOWA LAW REV
p34
asS'authors_full'
p35
(lp36
(VKNUDSEN
VSANNE H
tp37
asS'PG'
p38
I55
sS'PD'
p39
VMAY
p40
sS'pageStart'
p41
I1503
sS'issue'
p42
I4
sS'journal'
p43
VIOWA LAW REVIEW
p44
sS'volume'
p45
V100
p46
sS'authorAddress'
p47
VUniv Washington, Sch Law, Law, Seattle, WA 98195 USA.
p48
sS'date'
p49
I2015
sS'ER'
p50
V
sS'publisher'
p51
VUNIV IOWA, COLL LAW
p52
sS'authorKeywords'
p53
(lp54
VVALDEZ OIL-SPILL
p55
aVPRINCE-WILLIAM-SOUND
p56
aVNATURAL-RESOURCE MANAGEMENT
p57
aVECOLOGICAL RISK-ASSESSMENT
p58
aVHARLEQUIN DUCKS
p59
aVSEA OTTERS
p60
aVENVIRONMENTAL ACCIDENTS
p61
aVCONTINGENT VALUATION
p62
aVPUNITIVE DAMAGES
p63
aVBENZENE EXPOSURE
p64
asS'language'
p65
VEnglish
p66
sS'wosid'
p67
VWOS:000354146700004
p68
sS'citationCount'
p69
I194
sS'authors_init'
p70
(lp71
(VKNUDSEN
VS H
tp72
asS'citedReferences'
p73
(lp74
g1
(g2
g3
NtRp75
(dp76
S'doi'
p77
Nsg43
VU MICH J L REFORM
p78
sg45
V34
p79
sg70
(lp80
(VANDERSON
VWILLIAM L
tp81
asg49
I2001
sg41
V619
p82
sbag1
(g2
g3
NtRp83
(dp84
g77
Nsg43
VNATURAL RESOURCE DAM
p85
sg45
Nsg70
(lp86
(VANN
VL E E VALERIE
tp87
asg49
I2002
sg41
V402
p88
sbag1
(g2
g3
NtRp89
(dp90
g77
Nsg43
VICES J MAR SCI
p91
sg45
V65
p92
sg70
(lp93
(V[ANONYMOUS]
S''
tp94
asg49
I2008
sg41
V48
p95
sbag1
(g2
g3
NtRp96
(dp97
g77
Nsg43
VBIBL EXX SPONS EXX V
p98
sg45
Nsg70
(lp99
(V[ANONYMOUS]
S''
tp100
asg49
I2013
sg41
Nsbag1
(g2
g3
NtRp101
(dp102
g77
Nsg43
VNRDA WORKPL DAT
p103
sg45
Nsg70
(lp104
(V[ANONYMOUS]
S''
tp105
asg49
Nsg41
Nsbag1
(g2
g3
NtRp106
(dp107
g77
Nsg43
VBENZ AC LYMPH LEUK
p108
sg45
Nsg70
(lp109
(V[ANONYMOUS]
S''
tp110
asg49
Nsg41
Nsbag1
(g2
g3
NtRp111
(dp112
g77
Nsg43
VGULF SCI DAT
p113
sg45
Nsg70
(lp114
(V[ANONYMOUS]
S''
tp115
asg49
Nsg41
Nsbag1
(g2
g3
NtRp116
(dp117
g77
Nsg43
VCNN             1026
p118
sg45
Nsg70
(lp119
(V[ANONYMOUS]
S''
tp120
asg49
I2010
sg41
Nsbag1
(g2
g3
NtRp121
(dp122
g77
Nsg43
VNAT RES DAM ASS NRDA
p123
sg45
Nsg70
(lp124
(V[ANONYMOUS]
S''
tp125
asg49
Nsg41
Nsbag1
(g2
g3
NtRp126
(dp127
g77
Nsg43
VDEEP WAT GULF OIL DI
p128
sg45
Nsg70
(lp129
(V[ANONYMOUS]
S''
tp130
asg49
I2011
sg41
V184
p131
sbag1
(g2
g3
NtRp132
(dp133
g77
Nsg43
VICES J MAR SCI
p134
sg45
V65
p135
sg70
(lp136
(V[ANONYMOUS]
S''
tp137
asg49
I2008
sg41
V44
p138
sbag1
(g2
g3
NtRp139
(dp140
g77
Nsg43
VREST ENV
p141
sg45
Nsg70
(lp142
(V[ANONYMOUS]
S''
tp143
asg49
Nsg41
Nsbag1
(g2
g3
NtRp144
(dp145
g77
Nsg43
VADM REC IND
p146
sg45
Nsg70
(lp147
(V[ANONYMOUS]
S''
tp148
asg49
Nsg41
Nsbag1
(g2
g3
NtRp149
(dp150
g77
Nsg43
VFED REG
p151
sg45
V78
p152
sg70
(lp153
(V[ANONYMOUS]
S''
tp154
asg49
I2013
sg41
V45
p155
sbag1
(g2
g3
NtRp156
(dp157
g77
Nsg43
VNEW YORKER
p158
sg45
Nsg70
(lp159
(VAVIV
VRACHEL
tp160
asg49
I2014
sg41
Nsbag1
(g2
g3
NtRp161
(dp162
g77
V10.2307/1123343
p163
sg43
VCOLUMBIA LAW REV
p164
sg45
V97
p165
sg70
(lp166
(VBERGER
VM A
tp167
asg49
I1997
sg41
V2117
p168
sbag1
(g2
g3
NtRp169
(dp170
g77
Nsg43
VBROOK L REV
p171
sg45
V74
p172
sg70
(lp173
(VBERNSTEIN
VDAVID E
tp174
asg49
I2008
sg41
V51
p175
sbag1
(g2
g3
NtRp176
(dp177
g77
Nsg43
VNOTRE DAME LAW REV
p178
sg45
V89
p179
sg70
(lp180
(VBERNSTEIN
VD E
tp181
asg49
I2013
sg41
V27
p182
sbag1
(g2
g3
NtRp183
(dp184
g77
Nsg43
VU CHICAGO LAW REV
p185
sg45
V79
p186
sg70
(lp187
(VBIBER
VE
tp188
asg49
I2012
sg41
V471
p189
sbag1
(g2
g3
NtRp190
(dp191
g77
Nsg43
VU CHICAGO LAW REV
p192
sg45
V79
p193
sg70
(lp194
(VBIBER
VERIC
tp195
asg49
I2012
sg41
V476
p196
sbag1
(g2
g3
NtRp197
(dp198
g77
V10.1289/ehp.9987
p199
sg43
VENVIRON HEALTH PERSP
p200
sg45
V116
p201
sg70
(lp202
(VBODEN
VL I
tp203
asg49
I2008
sg41
V117
p204
sbag1
(g2
g3
NtRp205
(dp206
g77
Nsg43
VMARINE ECOLOGY PROGR
p207
sg45
V241
p208
sg70
(lp209
(VBODKIN
VJAMES L
tp210
asg49
I2002
sg41
V242
p211
sbag1
(g2
g3
NtRp212
(dp213
g77
Nsg43
VMARINE ECOLOGY PROGR
p214
sg45
V447
p215
sg70
(lp216
(VBODKIN
VJAMES L
tp217
asg49
I2012
sg41
V284
p218
sbag1
(g2
g3
NtRp219
(dp220
g77
V10.3354/meps241237
p221
sg43
VMAR ECOL PROG SER
p222
sg45
V241
p223
sg70
(lp224
(VBODKIN
VJ L
tp225
asg49
I2002
sg41
V237
p226
sbag1
(g2
g3
NtRp227
(dp228
g77
V10.3354/meps09523
p229
sg43
VMAR ECOL PROG SER
p230
sg45
V447
p231
sg70
(lp232
(VBODKIN
VJ L
tp233
asg49
I2012
sg41
V273
p234
sbag1
(g2
g3
NtRp235
(dp236
g77
V10.1021/es8022623
p237
sg43
VENVIRON SCI TECHNOL
p238
sg45
V42
p239
sg70
(lp240
(VBOEHM
VP D
tp241
asg49
I2008
sg41
V9210
p242
sbag1
(g2
g3
NtRp243
(dp244
g77
Nsg43
VNAT RES DAM ASS GULF
p245
sg45
Nsg70
(lp246
(VBP
S''
tp247
asg49
I2012
sg41
Nsbag1
(g2
g3
NtRp248
(dp249
g77
Nsg43
VFED REG
p250
sg45
V75
p251
sg70
(lp252
(VBP EXPLORATION AND PRODUCTION INC TRANSOCEAN HOLDINGS INC TRITON ASSET LEASING GMBH TRANSOCEAN OFFSHORE DEEPWATER DRILLING INC TRANSOCEAN DEEPWATER INC ANADARKO PETROLEUM ANADARKO E COMPANY LP AND MOEX OFFSHORE
S''
tp253
asg49
I2010
sg41
Nsbag1
(g2
g3
NtRp254
(dp255
g77
V10.1080/10641262.2011.643697
p256
sg43
VREV FISH SCI
p257
sg45
V20
p258
sg70
(lp259
(VBRANNON
VE L
tp260
asg49
I2012
sg41
V20
p261
sbag1
(g2
g3
NtRp262
(dp263
g77
Nsg43
VISSUES SCI TECH
p264
sg45
V21
p265
sg70
(lp266
(VBRANSCOMB
VLEWIS M
tp267
asg49
I2004
sg41
V1
sbag1
(g2
g3
NtRp268
(dp269
g77
Nsg43
VGOLD GATE U ENV LAW
p270
sg45
V5
sg70
(lp271
(VBRATSPIES
VREBECCA M
tp272
asg49
I2011
sg41
V7
sbag1
(g2
g3
NtRp273
(dp274
g77
Nsg43
VGOLDEN GATE U ENV L
p275
sg45
V5
sg70
(lp276
(VBRATSPIES
VREBECCA M
tp277
asg49
I2011
sg41
V28
p278
sbag1
(g2
g3
NtRp279
(dp280
g77
Nsg43
VUS DEP INT NAT RES D
p281
sg45
Nsg70
(lp282
(VBUREAU OF RECLAMATION US DEPT OF INTERIOR NATURAL RESOURCE DAMAGE ASSESSMENT AND RESTORATION FEDERAL ADVISORY COMMITTEE
S''
tp283
asg49
I2007
sg41
V11
p284
sbag1
(g2
g3
NtRp285
(dp286
g77
Nsg43
VBP WASTED NO TIME PR
p287
sg45
Nsg70
(lp288
(VCAPUTO
VMARC
tp289
asg49
I2010
sg41
Nsbag1
(g2
g3
NtRp290
(dp291
g77
Nsg43
VENVIRON RESOUR ECON
p292
sg45
V25
p293
sg70
(lp294
(VCARSON
VRICHARD T
tp295
asg49
I2003
sg41
V258
p296
sbag1
(g2
g3
NtRp297
(dp298
g77
V10.1023/A:1024486702104
p299
sg43
VENVIRON RESOUR ECON
p300
sg45
V25
p301
sg70
(lp302
(VCARSON
VR T
tp303
asg49
I2003
sg41
V257
p304
sbag1
(g2
g3
NtRp305
(dp306
g77
Nsg43
VNEB L REV
p307
sg45
V85
p308
sg70
(lp309
(VCHILDS
VWILLIAM G
tp310
asg49
I2007
sg41
V643
p311
sbag1
(g2
g3
NtRp312
(dp313
g77
Nsg43
VNEB L REV
p314
sg45
V85
p315
sg70
(lp316
(VCHILDS
VWILLIAM G
tp317
asg49
I2007
sg41
V654
p318
sbag1
(g2
g3
NtRp319
(dp320
g77
V10.2307/3313043
p321
sg43
VU PENN LAW REV
p322
sg45
V152
p323
sg70
(lp324
(VCOGLIANESE
VC
tp325
asg49
I2004
sg41
V1255
p326
sbag1
(g2
g3
NtRp327
(dp328
g77
Nsg43
VU PENN LAW REV
p329
sg45
V152
p330
sg70
(lp331
(VCOGLIANESE
VCARY
tp332
asg49
I2004
sg41
V1257
p333
sbag1
(g2
g3
NtRp334
(dp335
g77
Nsg43
VTOXIC ENV TORTS CASE
p336
sg45
Nsg70
(lp337
(VCRAIG
VROBIN KUNDIS
tp338
asg49
I2011
sg41
V159
p339
sbag1
(g2
g3
NtRp340
(dp341
g77
Nsg43
VWHAT YOU NEED KNOW E
p342
sg45
Nsg70
(lp343
(VCURTIS
VCOLLEEN
tp344
asg49
I2013
sg41
Nsbag1
(g2
g3
NtRp345
(dp346
g77
Nsg43
VSMOKE LEGISLATION LI
p347
sg45
Nsg70
(lp348
(VDERTHICK
VMARTHA A
tp349
asg49
I2012
sg41
Nsbag1
(g2
g3
NtRp350
(dp351
g77
V10.2307/1372778
p352
sg43
VDUKE LAW J
p353
sg45
V43
p354
sg70
(lp355
(VDOBBINS
VJ C
tp356
asg49
I1994
sg41
V879
p357
sbag1
(g2
g3
NtRp358
(dp359
g77
Nsg43
VECOL LAW QUART
p360
sg45
V32
p361
sg70
(lp362
(VDOREMUS
VH
tp363
asg49
I2005
sg41
V249
p364
sbag1
(g2
g3
NtRp365
(dp366
g77
Nsg43
VTEX LAW REV
p367
sg45
V86
p368
sg70
(lp369
(VDOREMUS
VH
tp370
asg49
I2008
sg41
V1601
p371
sbag1
(g2
g3
NtRp372
(dp373
g77
Nsg43
VWASH LAW REV
p374
sg45
V82
p375
sg70
(lp376
(VDOREMUS
VH
tp377
asg49
I2007
sg41
V547
p378
sbag1
(g2
g3
NtRp379
(dp380
g77
Nsg43
VECOLOGY L Q
p381
sg45
V32
p382
sg70
(lp383
(VDOREMUS
VHOLLY
tp384
asg49
I2005
sg41
V258
p385
sbag1
(g2
g3
NtRp386
(dp387
g77
Nsg43
VTEX LAW REV
p388
sg45
V86
p389
sg70
(lp390
(VDOREMUS
VHOLLY
tp391
asg49
I2008
sg41
V1652
p392
sbag1
(g2
g3
NtRp393
(dp394
g77
Nsg43
VWASH L REV
p395
sg45
V82
p396
sg70
(lp397
(VDOREMUS
VHOLLY
tp398
asg49
I2007
sg41
V548
p399
sbag1
(g2
g3
NtRp400
(dp401
g77
Nsg43
VSTAN TECH L REV
p402
sg45
V1998
p403
sg70
(lp404
(VEDMOND
VGARY
tp405
asg49
I1998
sg41
V3
sbag1
(g2
g3
NtRp406
(dp407
g77
Nsg43
VVILLANOVA LAW REV
p408
sg45
VILLANOVA
p409
sg70
(lp410
(VEDMOND
VGARY
tp411
asg49
I2007
sg41
V857
p412
sbag1
(g2
g3
NtRp413
(dp414
g77
Nsg43
VDIS AQUAT ORGAN
p415
sg45
V83
p416
sg70
(lp417
(VELSTON
VRALPH A
tp418
asg49
I2009
sg41
V224
p419
sbag1
(g2
g3
NtRp420
(dp421
g77
Nsg43
VDIS AQUAT ORGAN
p422
sg45
V83
p423
sg70
(lp424
(VELSTON
VRALPH A
tp425
asg49
I2009
sg41
V223
p426
sbag1
(g2
g3
NtRp427
(dp428
g77
Nsg43
VRESTORATION PROJECT
p429
sg45
Nsg70
(lp430
(VESLER
VD A N
tp431
asg49
I2008
sg41
V2
sbag1
(g2
g3
NtRp432
(dp433
g77
V10.1016/j.marpolbul.2010.11.015
p434
sg43
VMAR POLLUT BULL
p435
sg45
V62
p436
sg70
(lp437
(VESLER
VD
tp438
asg49
I2011
sg41
V609
p439
sbag1
(g2
g3
NtRp440
(dp441
g77
Nsg43
VJ WILDLIFE MGMT
p442
sg45
V74
p443
sg70
(lp444
(VESLER
VDANIEL
tp445
asg49
I2010
sg41
V471
p446
sbag1
(g2
g3
NtRp447
(dp448
g77
V10.1002/etc.129
p449
sg43
VENVIRON TOXICOL CHEM
p450
sg45
V29
p451
sg70
(lp452
(VESLER
VD
tp453
asg49
I2010
sg41
V1138
p454
sbag1
(g2
g3
NtRp455
(dp456
g77
Nsg43
VMARINE POLLUTION B
p457
sg45
V62
p458
sg70
(lp459
(VESLER
VDANIEL
tp460
asg49
I2011
sg41
V610
p461
sbag1
(g2
g3
NtRp462
(dp463
g77
Nsg43
VMINN LAW REV
p464
sg45
V71
p465
sg70
(lp466
(VFARBER
VD A
tp467
asg49
I1987
sg41
V1219
p468
sbag1
(g2
g3
NtRp469
(dp470
g77
Nsg43
VCALIF LAW REV
p471
sg45
V99
p472
sg70
(lp473
(VFEIN
VI
tp474
asg49
I2011
sg41
V465
p475
sbag1
(g2
g3
NtRp476
(dp477
g77
Nsg43
VTEX LAW REV
p478
sg45
V74
p479
sg70
(lp480
(VFELDMAN
VH L
tp481
asg49
I1995
sg41
V1
sbag1
(g2
g3
NtRp482
(dp483
g77
Nsg43
VTEX LAW REV
p484
sg45
V74
p485
sg70
(lp486
(VFELDMAN
VHEIDI L I
tp487
asg49
I1995
sg41
V41
p488
sbag1
(g2
g3
NtRp489
(dp490
g77
Nsg43
VPUBLIC ACCESS DATA F
p491
sg45
Nsg70
(lp492
(VFISCHER
VERIC A
tp493
asg49
I2013
sg41
VUBLIC
p494
sbag1
(g2
g3
NtRp495
(dp496
g77
Nsg43
VMD L REV
p497
sg45
V64
p498
sg70
(lp499
(VGIFFORD
VDONALD G
tp500
asg49
I2005
sg41
V613
p501
sbag1
(g2
g3
NtRp502
(dp503
g77
V10.2307/796423
p504
sg43
VYALE LAW J
p505
sg45
V96
p506
sg70
(lp507
(VGOLD
VS
tp508
asg49
I1986
sg41
V376
p509
sbag1
(g2
g3
NtRp510
(dp511
g77
Nsg43
VWRITING SCI
p512
sg45
Nsg70
(lp513
(VGOLDBORT
VROBERT
tp514
asg49
I2006
sg41
V271
p515
sbag1
(g2
g3
NtRp516
(dp517
g77
Nsg43
VREFERENCE MANUAL SCI
p518
sg45
Nsg70
(lp519
(VGOODSTEIN
VDAVID
tp520
asg49
I2011
sg41
V37
p521
sbag1
(g2
g3
NtRp522
(dp523
g77
Nsg43
VSETON HALL L REV
p524
sg45
V38
p525
sg70
(lp526
(VHAACK
VSUSAN
tp527
asg49
I2008
sg41
V1053
p528
sbag1
(g2
g3
NtRp529
(dp530
g77
V10.1080/10807039.2010.501011
p531
sg43
VHUM ECOL RISK ASSESS
p532
sg45
V16
p533
sg70
(lp534
(VHARWELL
VM A
tp535
asg49
I2010
sg41
V672
p536
sbag1
(g2
g3
NtRp537
(dp538
g77
V10.1002/ieam.1277
p539
sg43
VINTEGR ENVIRON ASSES
p540
sg45
V8
sg70
(lp541
(VHARWELL
VM A
tp542
asg49
I2012
sg41
V503
p543
sbag1
(g2
g3
NtRp544
(dp545
g77
V10.1080/10807039.2010.501230
p546
sg43
VHUM ECOL RISK ASSESS
p547
sg45
V16
p548
sg70
(lp549
(VHARWELL
VM A
tp550
asg49
I2010
sg41
V727
p551
sbag1
(g2
g3
NtRp552
(dp553
g77
Nsg43
VINTEGR ENVIRON ASSES
p554
sg45
V8
sg70
(lp555
(VHARWELL
VMARK A
tp556
asg49
I2012
sg41
V504
p557
sbag1
(g2
g3
NtRp558
(dp559
g77
V10.1897/1551-3793(2006)2[204:ESOREA]2.0.CO;2
p560
sg43
VIntegr Environ Assess Manag
p561
sg45
V2
sg70
(lp562
(VHARWELL
VMARK A
tp563
asg49
I2006
sg41
V204
p564
sbag1
(g2
g3
NtRp565
(dp566
g77
Nsg43
VINTEGR ENVIRON ASSES
p567
sg45
V2
sg70
(lp568
(VHARWELL
VMARK A
tp569
asg49
I2006
sg41
V220
p570
sbag1
(g2
g3
NtRp571
(dp572
g77
Nsg43
VUS TODAY
p573
sg45
Nsg70
(lp574
(VHEATH
VBRAD
tp575
asg49
I2009
sg41
Nsbag1
(g2
g3
NtRp576
(dp577
g77
V10.1126/science.1093758
p578
sg43
VSCIENCE
p579
sg45
V302
p580
sg70
(lp581
(VHOUCK
VO
tp582
asg49
I2003
sg41
V1926
p583
sbag1
(g2
g3
NtRp584
(dp585
g77
Nsg43
VP57
p586
sg45
Nsg70
(lp587
(VHUNT JOE COUNCIL MISSION MAP
S''
tp588
asg49
Nsg41
V57
p589
sbag1
(g2
g3
NtRp590
(dp591
g77
Nsg43
VSCI AM
p592
sg45
Nsg70
(lp593
(VHUNT
VPATRICIA
tp594
asg49
I2011
sg41
Nsbag1
(g2
g3
NtRp595
(dp596
g77
Nsg43
VOIL POLL RES TECHN P
p597
sg45
Nsg70
(lp598
(VINTERAGENCY COORDINATING COMM ON OIL POLLUTION RESEARCH
S''
tp599
asg49
I1997
sg41
Viii
p600
sbag1
(g2
g3
NtRp601
(dp602
g77
Nsg43
VOIL POLL RES TECHN P
p603
sg45
Nsg70
(lp604
(VINTERAGENCY COORDINATING COMM ON OIL POLLUTION RESEARCH
S''
tp605
asg49
Nsg41
Nsbag1
(g2
g3
NtRp606
(dp607
g77
V10.1890/09-1398.1
p608
sg43
VECOL APPL
p609
sg45
V20
p610
sg70
(lp611
(VIVERSON
VS A
tp612
asg49
I2010
sg41
V1993
p613
sbag1
(g2
g3
NtRp614
(dp615
g77
Nsg43
VECOLOGICAL APPL
p616
sg45
V20
p617
sg70
(lp618
(VIVERSON
VSAMUEL A
tp619
asg49
I2010
sg41
V2004
p620
sbag1
(g2
g3
NtRp621
(dp622
g77
V10.1111/j.1748-720X.2006.00038.x
p623
sg43
VJ LAW MED ETHICS
p624
sg45
V34
p625
sg70
(lp626
(VJASANOFF
VS
tp627
asg49
I2006
sg41
V328
p628
sbag1
(g2
g3
NtRp629
(dp630
g77
V10.1289/ehp.9976
p631
sg43
VENVIRON HEALTH PERSP
p632
sg45
V116
p633
sg70
(lp634
(VJASANOFF
VS
tp635
asg49
I2008
sg41
V123
p636
sbag1
(g2
g3
NtRp637
(dp638
g77
Nsg43
VJ LAW MED ETHICS
p639
sg45
V34
p640
sg70
(lp641
(VJASANOFF
VSHEILA
tp642
asg49
I2006
sg41
V329
p643
sbag1
(g2
g3
NtRp644
(dp645
g77
Nsg43
VLAW CONTEMP PROBL
p646
sg45
V68
p647
sg70
(lp648
(VJASANOFF
VSHEILA
tp649
asg49
I2006
sg41
V44
p650
sbag1
(g2
g3
NtRp651
(dp652
g77
Nsg43
VENV HLTH PERSP
p653
sg45
V116
p654
sg70
(lp655
(VJASANOFF
VSHEILA
tp656
asg49
I2008
sg41
V129
p657
sbag1
(g2
g3
NtRp658
(dp659
g77
Nsg43
VLAW CONTEMP PROBL
p660
sg45
V68
p661
sg70
(lp662
(VJASANOFF
VSHEILA
tp663
asg49
I2006
sg41
V21
p664
sbag1
(g2
g3
NtRp665
(dp666
g77
V10.1177/030631287017002001
p667
sg43
VSOC STUD SCI
p668
sg45
V17
p669
sg70
(lp670
(VJASANOFF
VS S
tp671
asg49
I1987
sg41
V195
p672
sbag1
(g2
g3
NtRp673
(dp674
g77
Nsg43
VENERGY COLLECTIVE
p675
sg45
Nsg70
(lp676
(VJENKINS
VJESSE
tp677
asg49
I2013
sg41
Nsbag1
(g2
g3
NtRp678
(dp679
g77
Nsg43
VNYU ENV LJ
p680
sg45
V17
p681
sg70
(lp682
(VKARKKAINEN
VBRADLEY C
tp683
asg49
I2008
sg41
V75
p684
sbag1
(g2
g3
NtRp685
(dp686
g77
Nsg43
VNYU ENV LJ
p687
sg45
V15
p688
sg70
(lp689
(VKIM
VCHRISTINE H
tp690
asg49
I2007
sg41
V548
p691
sbag1
(g2
g3
NtRp692
(dp693
g77
Nsg43
VN Y U ENV L J
p694
sg45
V15
p695
sg70
(lp696
(VKIM
VCHRISTINE H
tp697
asg49
I2007
sg41
V540
p698
sbag1
(g2
g3
NtRp699
(dp700
g77
Nsg43
VMINN JL SCI TECH
p701
sg45
V7
sg70
(lp702
(VKLASS
VALEXANDRA B
tp703
asg49
I2005
sg41
V92
p704
sbag1
(g2
g3
NtRp705
(dp706
g77
Nsg43
VMINN JL SCI TECH
p707
sg45
V7
sg70
(lp708
(VKLASS
VALEXANDRA B
tp709
asg49
I2005
sg41
V89
p710
sbag1
(g2
g3
NtRp711
(dp712
g77
Nsg43
VMINN JL SCI TECH
p713
sg45
V7
sg70
(lp714
(VKLASS
VALEXANDRA B
tp715
asg49
I2005
sg41
V136
p716
sbag1
(g2
g3
NtRp717
(dp718
g77
Nsg43
VWASH LEE L REV
p719
sg45
V56
p720
sg70
(lp721
(VKLEIN
VANDREW R
tp722
asg49
I1999
sg41
V1173
p723
sbag1
(g2
g3
NtRp724
(dp725
g77
Nsg43
VWASH LEE L REV
p726
sg45
V56
p727
sg70
(lp728
(VKLEIN
VANDREW R
tp729
asg49
I1999
sg41
V1174
p730
sbag1
(g2
g3
NtRp731
(dp732
g77
Nsg43
VU ST THOMAS LAW J
p733
sg45
V7
sg70
(lp734
(VKNUDSEN
VSANNE
tp735
asg49
I2009
sg41
V95
p736
sbag1
(g2
g3
NtRp737
(dp738
g77
Nsg43
VUTAH L REV
p739
sg45
V141
p740
sg70
(lp741
(VKNUDSEN
VSANNE H
tp742
asg49
I2012
sg41
V192
p743
sbag1
(g2
g3
NtRp744
(dp745
g77
Nsg43
VNORTHWEST U LAW REV
p746
sg45
V108
p747
sg70
(lp748
(VKNUDSEN
VS H
tp749
asg49
I2014
sg41
V475
p750
sbag1
(g2
g3
NtRp751
(dp752
g77
V10.1177/0162243912456271
p753
sg43
VSCI TECHNOL HUM VAL
p754
sg45
V38
p755
sg70
(lp756
(VKRIMSKY
VS
tp757
asg49
I2013
sg41
V566
p758
sbag1
(g2
g3
NtRp759
(dp760
g77
V10.1017/CBO9780511751776.006
p761
sg43
VRESCUING SCIENCE FROM POLITICS
p762
sg45
Nsg70
(lp763
(VKRIMSKY
VS
tp764
asg49
I2006
sg41
V61
p765
sbag1
(g2
g3
NtRp766
(dp767
g77
Nsg43
VSCI TECHNOL
p768
sg45
V38
p769
sg70
(lp770
(VKRIMSKY
VSHELDON
tp771
asg49
I2013
sg41
V569
p772
sbag1
(g2
g3
NtRp773
(dp774
g77
Nsg43
VJ LAW POLICY
p775
sg45
V13
p776
sg70
(lp777
(VKRIMSKY
VSHELDON
tp778
asg49
I2005
sg41
V43
p779
sbag1
(g2
g3
NtRp780
(dp781
g77
Nsg43
VJ L POLY
p782
sg45
V13
p783
sg70
(lp784
(VKRIMSKY
VSHELDON
tp785
asg49
I2005
sg41
V61
p786
sbag1
(g2
g3
NtRp787
(dp788
g77
V10.1111/j.1523-1739.2006.00639.x
p789
sg43
VCONSERV BIOL
p790
sg45
V21
p791
sg70
(lp792
(VLACKEY
VR T
tp793
asg49
I2007
sg41
V12
p794
sbag1
(g2
g3
NtRp795
(dp796
g77
V10.1016/j.cbi.2009.08.010
p797
sg43
VCHEM
p798
sg45
V182
p799
sg70
(lp800
(VLAMM
VS H
tp801
asg49
I2009
sg41
V93
p802
sbag1
(g2
g3
NtRp803
(dp804
g77
Nsg43
VCHEMICOBIOLOGICAL IN
p805
sg45
V182
p806
sg70
(lp807
(VLAMM
VSTEVEN H
tp808
asg49
I2009
sg41
V94
p809
sbag1
(g2
g3
NtRp810
(dp811
g77
V10.1897/IEAM_2006-042
p812
sg43
VIntegr Environ Assess Manag
p813
sg45
V3
sg70
(lp814
(VLANDIS
VWAYNE G
tp815
asg49
I2007
sg41
V439
p816
sbag1
(g2
g3
NtRp817
(dp818
g77
Nsg43
VIOWA LAW REV
p819
sg45
V98
p820
sg70
(lp821
(VLAPOSATA
VE
tp822
asg49
I2012
sg41
V1
sbag1
(g2
g3
NtRp823
(dp824
g77
Nsg43
V2010 UPD INJ RES SER
p825
sg45
Nsg70
(lp826
(VEXXON VALDEZOIL SPILL TR COUNCIL
S''
tp827
asg49
I2010
sg41
V6
sbag1
(g2
g3
NtRp828
(dp829
g77
V10.2307/1289204
p830
sg43
VMICH LAW REV
p831
sg45
V87
p832
sg70
(lp833
(VLYNDON
VM L
tp834
asg49
I1989
sg41
V1795
p835
sbag1
(g2
g3
NtRp836
(dp837
g77
Nsg43
VMICH LAW REV
p838
sg45
V87
p839
sg70
(lp840
(VLYNDON
VMARY L
tp841
asg49
I1989
sg41
V1813
p842
sbag1
(g2
g3
NtRp843
(dp844
g77
Nsg43
VNEW YORK U ENV LAW J
p845
sg45
V17
p846
sg70
(lp847
(VMACBETH
VANGUS
tp848
asg49
I2008
sg41
V134
p849
sbag1
(g2
g3
NtRp850
(dp851
g77
Nsg43
VIOWA LAW REV
p852
sg45
V100
p853
sg70
(lp854
(VMANDEL
VG N
tp855
asg49
I2014
sg41
V155
p856
sbag1
(g2
g3
NtRp857
(dp858
g77
Nsg43
VJ LAW POLICY
p859
sg45
V14
p860
sg70
(lp861
(VMARCHANT
VGARY E
tp862
asg49
I2006
sg41
V7
sbag1
(g2
g3
NtRp863
(dp864
g77
Nsg43
VBENDING SCI SPECIAL
p865
sg45
Nsg70
(lp866
(VMCGARITY
VTHOMAS O
tp867
asg49
I2008
sg41
V68
p868
sbag1
(g2
g3
NtRp869
(dp870
g77
Nsg43
VLAW CONTEMP PROBL
p871
sg45
V66
p872
sg70
(lp873
(VMCGARITY
VTHOMAS O
tp874
asg49
I2003
sg41
V155
p875
sbag1
(g2
g3
NtRp876
(dp877
g77
V10.2105/AJPH.2004.043059
p878
sg43
VAM J PUBLIC HEALTH
p879
sg45
V95
p880
sg70
(lp881
(VMICHAELS
VD
tp882
asg49
I2005
sg41
VS39
p883
sbag1
(g2
g3
NtRp884
(dp885
g77
Nsg43
VJ L POLY
p886
sg45
V13
p887
sg70
(lp888
(VMICHAELS
VDAVID
tp889
asg49
I2005
sg41
V31
p890
sbag1
(g2
g3
NtRp891
(dp892
g77
Nsg43
VJ LAW POLICY
p893
sg45
V15
p894
sg70
(lp895
(VMICHAELS
VDAVID
tp896
asg49
I2007
sg41
V1137
p897
sbag1
(g2
g3
NtRp898
(dp899
g77
Nsg43
VAM J PUBLIC HEALTH
p900
sg45
V95
p901
sg70
(lp902
(VMICHAELS
VDAVID
tp903
asg49
I2005
sg41
VS43
p904
sbag1
(g2
g3
NtRp905
(dp906
g77
Nsg43
VJ LAW POLICY
p907
sg45
V13
p908
sg70
(lp909
(VMICHAELS
VDAVID
tp910
asg49
I2005
sg41
V17
p911
sbag1
(g2
g3
NtRp912
(dp913
g77
Nsg43
VINT J ENV RES PUB HE
p914
sg45
V8
sg70
(lp915
(VMINF
VWISSEM
tp916
asg49
I2011
sg41
V2265
p917
sbag1
(g2
g3
NtRp918
(dp919
g77
Nsg43
VINT J ENV RES PUB HE
p920
sg45
V8
sg70
(lp921
(VMINF
VWISSEM
tp922
asg49
I2011
sg41
V2291
p923
sbag1
(g2
g3
NtRp924
(dp925
g77
V10.1890/11-0152.1
p926
sg43
VECOL APPL
p927
sg45
V21
p928
sg70
(lp929
(VMONSON
VD H
tp930
asg49
I2011
sg41
V2917
p931
sbag1
(g2
g3
NtRp932
(dp933
g77
Nsg43
VPEER REV GRANTS COOP
p934
sg45
Nsg70
(lp935
(VNATL INST OF HEALTH US DEPT OF HEALTH & HUMAN SERVS
S''
tp936
asg49
I2014
sg41
VEER
p937
sbag1
(g2
g3
NtRp938
(dp939
g77
Nsg43
VNAT RES DAM ASS APR
p940
sg45
Nsg70
(lp941
(VNATL OCEANIC & ATMOSPHERIC ADMIN
S''
tp942
asg49
I2012
sg41
Nsbag1
(g2
g3
NtRp943
(dp944
g77
Nsg43
VNAT REP SER VIOL SCH
p945
sg45
Nsg70
(lp946
(VOFFICE
VO F INSPECTOR G E N
tp947
asg49
I1999
sg41
V2
sbag1
(g2
g3
NtRp948
(dp949
g77
Nsg43
VFORDHAM ENV LJ
p950
sg45
V7
sg70
(lp951
(VPARK
VKEUM J
tp952
asg49
I1996
sg41
V483
p953
sbag1
(g2
g3
NtRp954
(dp955
g77
Nsg43
VWM MARY L REV
p956
sg45
V40
p957
sg70
(lp958
(VPATTERSON
VMARK R
tp959
asg49
I1999
sg41
V1322
p960
sbag1
(g2
g3
NtRp961
(dp962
g77
Nsg43
VWM MARY L REV
p963
sg45
V40
p964
sg70
(lp965
(VPATTERSON
VMARK R
tp966
asg49
I1999
sg41
V1313
p967
sbag1
(g2
g3
NtRp968
(dp969
g77
V10.1126/science.1084282
p970
sg43
VSCIENCE
p971
sg45
V302
p972
sg70
(lp973
(VPETERSON
VC H
tp974
asg49
I2003
sg41
V2082
p975
sbag1
(g2
g3
NtRp976
(dp977
g77
V10.2307/1342009
p978
sg43
VHARVARD LAW REV
p979
sg45
V111
p980
sg70
(lp981
(VPOLINSKY
VA M
tp982
asg49
I1998
sg41
V869
p983
sbag1
(g2
g3
NtRp984
(dp985
g77
Nsg43
VROCKY MTN MIN L I
p986
sg45
V40
p987
sg70
(lp988
(VPOULTER
VSUSAN R
tp989
asg49
I1994
sg41
V7
sbag1
(g2
g3
NtRp990
(dp991
g77
Nsg43
VHIGH TECH LJ
p992
sg45
V7
sg70
(lp993
(VPOULTER
VSUSAN R
tp994
asg49
I1992
sg41
V189
p995
sbag1
(g2
g3
NtRp996
(dp997
g77
Nsg43
VHIGH TECH LJ
p998
sg45
V7
sg70
(lp999
(VPOULTER
VSUSAN R
tp1000
asg49
I1992
sg41
V234
p1001
sbag1
(g2
g3
NtRp1002
(dp1003
g77
Nsg43
VHOUS L REV
p1004
sg45
V24
p1005
sg70
(lp1006
(VRABIN
VROBERT L
tp1007
asg49
I1987
sg41
V27
p1008
sbag1
(g2
g3
NtRp1009
(dp1010
g77
Nsg43
VSCI NEWS
p1011
sg45
V173
p1012
sg70
(lp1013
(VRALOFF
VJANET
tp1014
asg49
I2008
sg41
V42
p1015
sbag1
(g2
g3
NtRp1016
(dp1017
g77
Nsg43
VNY TIMES
p1018
sg45
Nsg70
(lp1019
(VREVKIN
VANDREW C
tp1020
asg49
I2013
sg41
Nsbag1
(g2
g3
NtRp1021
(dp1022
g77
Nsg43
VICES J MAR SCI
p1023
sg45
V68
p1024
sg70
(lp1025
(VRICE
VJAKE C
tp1026
asg49
I2011
sg41
V13
p1027
sbag1
(g2
g3
NtRp1028
(dp1029
g77
Nsg43
VICES J MAR SCI
p1030
sg45
V68
p1031
sg70
(lp1032
(VRICE
VJAKE C
tp1033
asg49
I2011
sg41
V10
p1034
sbag1
(g2
g3
NtRp1035
(dp1036
g77
Nsg43
VRESTORATION PROJECT
p1037
sg45
Nsg70
(lp1038
(VRICE
VS D
tp1039
asg49
I2007
sg41
V15
p1040
sbag1
(g2
g3
NtRp1041
(dp1042
g77
V10.1080/20016491101744
p1043
sg43
VReviews in Fisheries Science
p1044
sg45
V9
sg70
(lp1045
(VRICE
VSTANLEY D
tp1046
asg49
I2001
sg41
V165
p1047
sbag1
(g2
g3
NtRp1048
(dp1049
g77
V10.1542/peds.2012-2758
p1050
sg43
VPEDIATRICS
p1051
sg45
V130
p1052
sg70
(lp1053
(VROBERTS
VJ R
tp1054
asg49
I2012
sg41
VEDIATRICS
p1055
sbag1
(g2
g3
NtRp1056
(dp1057
g77
Nsg43
VALASKA L REV
p1058
sg45
V22
p1059
sg70
(lp1060
(VRODGERS
VJ R WILLIAM H
tp1061
asg49
I2005
sg41
V135
p1062
sbag1
(g2
g3
NtRp1063
(dp1064
g77
Nsg43
VUCLA LAW REV
p1065
sg45
V52
p1066
sg70
(lp1067
(VROSTRON
VA
tp1068
asg49
I2004
sg41
V151
p1069
sbag1
(g2
g3
NtRp1070
(dp1071
g77
Nsg43
VWASH U L REV
p1072
sg45
V84
p1073
sg70
(lp1074
(VRUHL
VJ B
tp1075
asg49
I2006
sg41
V1
sbag1
(g2
g3
NtRp1076
(dp1077
g77
Nsg43
VBENDECTION TRIAL STU
p1078
sg45
Nsg70
(lp1079
(VSANDERS
VJOSEPH
tp1080
asg49
I1998
sg41
Nsbag1
(g2
g3
NtRp1081
(dp1082
g77
Nsg43
VISSUES SCI TECHNOL
p1083
sg45
V25
p1084
sg70
(lp1085
(VSAREWITZ
VD
tp1086
asg49
I2009
sg41
V89
p1087
sbag1
(g2
g3
NtRp1088
(dp1089
g77
Nsg43
VISSUES SCI TECH
p1090
sg45
V25
p1091
sg70
(lp1092
(VSAREWITZ
VDANIEL
tp1093
asg49
I2009
sg41
V4
sbag1
(g2
g3
NtRp1094
(dp1095
g77
Nsg43
VCHEMICOBIOLOGICAL IN
p1096
sg45
V153
p1097
sg70
(lp1098
(VSCHNATTER
VA ROBERT
tp1099
asg49
I2005
sg41
V9
sbag1
(g2
g3
NtRp1100
(dp1101
g77
Nsg43
VCHEM
p1102
sg45
V153
p1103
sg70
(lp1104
(VSCHNATTER
VA ROBERT
tp1105
asg49
I2005
sg41
V12
p1106
sbag1
(g2
g3
NtRp1107
(dp1108
g77
Nsg43
VAGENT ORANGE TRIAL M
p1109
sg45
Nsg70
(lp1110
(VSCHUCK
VPETER H
tp1111
asg49
I1986
sg41
Nsbag1
(g2
g3
NtRp1112
(dp1113
g77
Nsg43
VMD L REV
p1114
sg45
V64
p1115
sg70
(lp1116
(VSEBOK
VANTHONY J
tp1117
asg49
I2005
sg41
V541
p1118
sbag1
(g2
g3
NtRp1119
(dp1120
g77
V10.2307/3657525
p1121
sg43
VYALE LAW J
p1122
sg45
V113
p1123
sg70
(lp1124
(VSHARKEY
VC M
tp1125
asg49
I2003
sg41
V347
p1126
sbag1
(g2
g3
NtRp1127
(dp1128
g77
Nsg43
VHARVARD LAW REV
p1129
sg45
V111
p1130
sg70
(lp1131
(VSHAVELL
VSTEVEN
tp1132
asg49
I1998
sg41
V874
p1133
sbag1
(g2
g3
NtRp1134
(dp1135
g77
Nsg43
VHARVARD J LEGIS
p1136
sg45
V37
p1137
sg70
(lp1138
(VSHELBY
VR
tp1139
asg49
I2000
sg41
V369
p1140
sbag1
(g2
g3
NtRp1141
(dp1142
g77
V10.1021/es0348694
p1143
sg43
VENVIRON SCI TECHNOL
p1144
sg45
V38
p1145
sg70
(lp1146
(VSHORT
VJ W
tp1147
asg49
I2004
sg41
V19
p1148
sbag1
(g2
g3
NtRp1149
(dp1150
g77
Nsg43
VUC DAVIS L REV
p1151
sg45
V41
p1152
sg70
(lp1153
(VSMITH
VDOUGLAS G
tp1154
asg49
I2008
sg41
V1613
p1155
sbag1
(g2
g3
NtRp1156
(dp1157
g77
Nsg43
VUC DAVIS L REV
p1158
sg45
V41
p1159
sg70
(lp1160
(VSMITH
VDOUGLAS G
tp1161
asg49
I2008
sg41
V1622
p1162
sbag1
(g2
g3
NtRp1163
(dp1164
g77
Nsg43
VU RICH L REV
p1165
sg45
V29
p1166
sg70
(lp1167
(VSTAGER
VDANIELLE MARIE
tp1168
asg49
I1995
sg41
V753
p1169
sbag1
(g2
g3
NtRp1170
(dp1171
g77
Nsg43
VU RICH L REV
p1172
sg45
V29
p1173
sg70
(lp1174
(VSTAGER
VDANIELLE MARIE
tp1175
asg49
I1995
sg41
V751
p1176
sbag1
(g2
g3
NtRp1177
(dp1178
g77
Nsg43
VWISC LAW REV
p1179
sg45
Nsg70
(lp1180
(VTAI
VS
tp1181
asg49
I2010
sg41
V627
p1182
sbag1
(g2
g3
NtRp1183
(dp1184
g77
Nsg43
VWIS INT L J
p1185
sg45
V27
p1186
sg70
(lp1187
(VTAI
VSTEPHANIE
tp1188
asg49
I2010
sg41
V462
p1189
sbag1
(g2
g3
NtRp1190
(dp1191
g77
Nsg43
VAM J TRIAL ADVOC
p1192
sg45
V33
p1193
sg70
(lp1194
(VTARRY
VJ R SAMUEL L
tp1195
asg49
I2009
sg41
V315
p1196
sbag1
(g2
g3
NtRp1197
(dp1198
g77
V10.1016/j.marpolbul.2007.01.009
p1199
sg43
VMAR POLLUT BULL
p1200
sg45
V54
p1201
sg70
(lp1202
(VTHOMAS
VR E
tp1203
asg49
I2007
sg41
V726
p1204
sbag1
(g2
g3
NtRp1205
(dp1206
g77
Nsg43
VNM L REV
p1207
sg45
V38
p1208
sg70
(lp1209
(VTOLAN
VJ R PATRICK E
tp1210
asg49
I2008
sg41
V447
p1211
sbag1
(g2
g3
NtRp1212
(dp1213
g77
Nsg43
VNEW MEXICO LAW REV
p1214
sg45
V38
p1215
sg70
(lp1216
(VTOLAN
VJ R PATRICK E
tp1217
asg49
I2008
sg41
V409
p1218
sbag1
(g2
g3
NtRp1219
(dp1220
g77
Nsg43
VGUARDIAN
p1221
sg45
Nsg70
(lp1222
(VTRAN
VMARK
tp1223
asg49
I2010
sg41
Nsbag1
(g2
g3
NtRp1224
(dp1225
g77
Nsg43
VREP SECR INT REV SHE
p1226
sg45
Nsg70
(lp1227
(VUS DEPT OF THE INTERIOR
S''
tp1228
asg49
I2013
sg41
V27
p1229
sbag1
(g2
g3
NtRp1230
(dp1231
g77
Nsg43
VGAO1286
p1232
sg45
Nsg70
(lp1233
(VUS
VGOVT ACCOUNTABILITY OFFICE
tp1234
asg49
I2011
sg41
Nsbag1
(g2
g3
NtRp1235
(dp1236
g77
Nsg43
VWASH J ENV L POLY
p1237
sg45
V3
sg70
(lp1238
(VVARANASI
VUSHA
tp1239
asg49
I2013
sg41
V238
p1240
sbag1
(g2
g3
NtRp1241
(dp1242
g77
Nsg43
VFISHERIES
p1243
sg45
V37
p1244
sg70
(lp1245
(VVARANASI
VUSHA
tp1246
asg49
I2012
sg41
V234
p1247
sbag1
(g2
g3
NtRp1248
(dp1249
g77
V10.1080/03632415.2012.676837
p1250
sg43
VFISHERIES
p1251
sg45
V37
p1252
sg70
(lp1253
(VVARANASI
VU
tp1254
asg49
I2012
sg41
V233
p1255
sbag1
(g2
g3
NtRp1256
(dp1257
g77
Nsg43
VWASH J ENV L POLY
p1258
sg45
V3
sg70
(lp1259
(VVARANASI
VUSHA
tp1260
asg49
I2013
sg41
V256
p1261
sbag1
(g2
g3
NtRp1262
(dp1263
g77
V10.1289/ehp.1002318
p1264
sg43
VENVIRON HEALTH PERSP
p1265
sg45
V119
p1266
sg70
(lp1267
(VVLAANDEREN
VJ
tp1268
asg49
I2011
sg41
V159
p1269
sbag1
(g2
g3
NtRp1270
(dp1271
g77
Nsg43
VDUKE LAW J
p1272
sg45
V53
p1273
sg70
(lp1274
(VWAGNER
VW E
tp1275
asg49
I2004
sg41
V1619
p1276
sbag1
(g2
g3
NtRp1277
(dp1278
g77
Nsg43
VAM J LAW MED
p1279
sg45
V30
p1280
sg70
(lp1281
(VWAGNER
VW
tp1282
asg49
I2004
sg41
V119
p1283
sbag1
(g2
g3
NtRp1284
(dp1285
g77
Nsg43
VAM JL MED
p1286
sg45
V30
p1287
sg70
(lp1288
(VWAGNER
VWENDY
tp1289
asg49
I2004
sg41
V122
p1290
sbag1
(g2
g3
NtRp1291
(dp1292
g77
Nsg43
VSOC STUD SCI
p1293
sg45
V95
p1294
sg70
(lp1295
(VWAGNER
VWENDY E
tp1296
asg49
I1995
sg41
V1617
p1297
sbag1
(g2
g3
NtRp1298
(dp1299
g77
V10.2307/1123193
p1300
sg43
VCOLUMBIA LAW REV
p1301
sg45
V95
p1302
sg70
(lp1303
(VWAGNER
VW E
tp1304
asg49
I1995
sg41
V1613
p1305
sbag1
(g2
g3
NtRp1306
(dp1307
g77
Nsg43
VFRD
p1308
sg45
V138
p1309
sg70
(lp1310
(VWEINSTEIN
VJACK B
tp1311
asg49
I1991
sg41
V632
p1312
sbag1
(g2
g3
NtRp1313
(dp1314
g77
Nsg43
VFRD
p1315
sg45
V138
p1316
sg70
(lp1317
(VWEINSTEIN
VJACK B
tp1318
asg49
I1991
sg41
V631
p1319
sbag1
(g2
g3
NtRp1320
(dp1321
g77
Nsg43
V10308 NAT BUR EC RES
p1322
sg45
Nsg70
(lp1323
(VWHITE
VMICHELLE J
tp1324
asg49
I2004
sg41
Nsbag1
(g2
g3
NtRp1325
(dp1326
g77
V10.2307/1312988
p1327
sg43
VBIOSCIENCE
p1328
sg45
V46
p1329
sg70
(lp1330
(VWIENS
VJ A
tp1331
asg49
I1996
sg41
V587
p1332
sbag1
(g2
g3
NtRp1333
(dp1334
g77
V10.1641/B570909
p1335
sg43
VBIOSCIENCE
p1336
sg45
V57
p1337
sg70
(lp1338
(VWIENS
VJ A
tp1339
asg49
I2007
sg41
V769
p1340
sbag1
(g2
g3
NtRp1341
(dp1342
g77
V10.1007/978-1-4419-6421-2_4
p1343
sg43
VCURR ORNITHOL
p1344
sg45
V17
p1345
sg70
(lp1346
(VWIENS
VJ A
tp1347
asg49
I2010
sg41
V131
p1348
sbag1
(g2
g3
NtRp1349
(dp1350
g77
Nsg43
VBIOSCIENCE
p1351
sg45
V46
p1352
sg70
(lp1353
(VWIENS
VJOHN A
tp1354
asg49
I1996
sg41
V588
p1355
sbag1
(g2
g3
NtRp1356
(dp1357
g77
Nsg43
VCURRENT ORNITHOLOGY
p1358
sg45
V17
p1359
sg70
(lp1360
(VWIENS
VJOHN A
tp1361
asg49
I2010
sg41
V151
p1362
sbag1
(g2
g3
NtRp1363
(dp1364
g77
Nsg43
VFOOD DRUG LAW J
p1365
sg45
V60
p1366
sg70
(lp1367
(VWOOD
VJ M
tp1368
asg49
I2005
sg41
V547
p1369
sbag1
(g2
g3
NtRp1370
(dp1371
g77
Nsg43
VEXP BENZ MAJ PUBL HL
p1372
sg45
Nsg70
(lp1373
(VWORLD
VHEALTH O R G
tp1374
asg49
Nsg41
Nsbasb.