ccopy_reg
_reconstructor
p1
(ctethne.classes.paper
Paper
p2
c__builtin__
object
p3
NtRp4
(dp5
S'publisherCity'
p6
VROCKVILLE
p7
sS'reprintAddress'
p8
VJeannette, E (reprint author), Univ Paris 06, Unite Nixte Rech 7632, CNRS, Case 156,4 Pl Jussieu, F-75252 Paris 05, France.
p9
sS'WC'
p10
VPlant Sciences
p11
sS'GA'
p12
V595BV
p13
sS'abstract'
p14
VAbscisic acid (ABA) plays a key role in the control of stomatal aperture by regulating ion channel activities and water exchanges across the plasma membrane of guard cells. Changes in cytoplasmic calcium content and activation of anion and outward-rectifying K+ channels are among the earliest cellular responses to ABA in guard cells. In Arabidopsis suspension cells, we have demonstrated that outer plasmalemma perception of ABA triggered similar early events. Furthermore, a Ca2+ influx and the activation of anion channels are part of the ABA-signaling pathway leading to the specific expression of RAB18. Here, we determine whether phospholipases are involved in ABA-induced RAB18 expression. Phospholipase C is not implicated in this ABA pathway. Using a transphosphatidylation reaction, we show that ABA plasmalemma perception results in a transient stimulation of phospholipase D (PLD) activity, which is necessary for RAB18 expression. Further experiments showed that PLD activation was unlikely to be regulated by heterotrimeric G proteins. We also observed that ABA-dependent stimulation of PLD was necessary for the activation of plasma anion current. However, when ABA activation of plasma anion channels was inhibited, the ABA-dependent activation of PLD was unchanged. Thus, we conclude that in Arabidopsis suspension cells, ABA stimulation of PLD acts upstream from anion channels in the transduction pathway leading to RAB18 expression.
p15
sS'pageEnd'
p16
I272
sS'publisherAddress'
p17
V15501 MONONA DRIVE, ROCKVILLE, MD 20855 USA
p18
sS'documentType'
p19
VArticle
p20
sS'subject'
p21
VPlant Sciences
p22
sS'isoSource'
p23
VPlant Physiol.
p24
sS'timesCited'
p25
(lp26
I26
aVZ9 29
p27
asS'PT'
p28
VJ
sS'title'
p29
VPlasmalemma Abscisic Acid Perception Leads To Rab18 Expression Via Phospholipase D Activation In Arabidopsis Suspension Cells
p30
sS'ISSN'
p31
(lp32
V0032-0889
p33
aVJ9 PLANT PHYSIOL
p34
asS'authors_full'
p35
(lp36
(VHALLOUIN
VM
tp37
a(VGHELIS
VT
tp38
a(VBRAULT
VM
tp39
a(VBARDAT
VF
tp40
a(VCORNEL
VD
tp41
a(VMIGINIAC
VE
tp42
a(VRONA
VJP
tp43
a(VSOTTA
VB
tp44
a(VJEANNETTE
VE
tp45
asS'PG'
p46
I8
sS'PD'
p47
VSEP
p48
sS'pageStart'
p49
I265
sS'issue'
p50
I1
sS'journal'
p51
VPLANT PHYSIOLOGY
p52
sS'volume'
p53
V130
p54
sS'doi'
p55
V10.1104/pp.004168
p56
sS'authorAddress'
p57
(lp58
VUniv Paris 06, Unite Nixte Rech 7632, CNRS, F-75252 Paris 05, France.
p59
aVUniv Paris 07, Equipe Associee 3514, F-75221 Paris, France.
p60
asS'date'
p61
I2002
sS'ER'
p62
V
sS'publisher'
p63
VAMER SOC PLANT BIOLOGISTS
p64
sS'authorKeywords'
p65
(lp66
VSIGNAL-TRANSDUCTION
p67
aVGENE-EXPRESSION
p68
aVGUARD-CELLS
p69
aVG-PROTEINS
p70
aVBARLEY ALEURONE
p71
aVPLD-ALPHA
p72
aVTHALIANA
p73
aVMEMBRANE
p74
aVCALCIUM
p75
aVCLONING
p76
asS'language'
p77
VEnglish
p78
sS'wosid'
p79
VWOS:000178087700027
p80
sS'citationCount'
p81
I49
sS'authors_init'
p82
(lp83
(VHALLOUIN
VM
tp84
a(VGHELIS
VT
tp85
a(VBRAULT
VM
tp86
a(VBARDAT
VF
tp87
a(VCORNEL
VD
tp88
a(VMIGINIAC
VE
tp89
a(VRONA
VJ P
tp90
a(VSOTTA
VB
tp91
a(VJEANNETTE
VE
tp92
asS'citedReferences'
p93
(lp94
g1
(g2
g3
NtRp95
(dp96
g55
V10.1016/S1360-1385(96)89035-2
p97
sg51
VTRENDS PLANT SCI
p98
sg53
V1
sg82
(lp99
(VASSMANN
VS M
tp100
asg61
I1996
sg49
V73
p101
sbag1
(g2
g3
NtRp102
(dp103
g55
V10.1007/s000180050287
p104
sg51
VCELL MOL LIFE SCI
p105
sg53
V55
p106
sg82
(lp107
(VBISCHOFF
VF
tp108
asg61
I1999
sg49
V233
p109
sbag1
(g2
g3
NtRp110
(dp111
g55
Nsg51
VPHYSIOL PLANTARUM
p112
sg53
V98
p113
sg82
(lp114
(VBOUTEAU
VF
tp115
asg61
I1996
sg49
VHYSIOL
p116
sbag1
(g2
g3
NtRp117
(dp118
g55
V10.1016/S1360-1385(98)01326-0
p119
sg51
VTRENDS PLANT SCI
p120
sg53
V3
sg82
(lp121
(VCHAPMAN
VK D
tp122
asg61
I1998
sg49
V419
p123
sbag1
(g2
g3
NtRp124
(dp125
g55
V10.1126/science.273.5279.1239
p126
sg51
VSCIENCE
p127
sg53
V273
p128
sg82
(lp129
(VCUTLER
VS
tp130
asg61
I1996
sg49
V1239
p131
sbag1
(g2
g3
NtRp132
(dp133
g55
V10.1093/jexbot/48.314.1631
p134
sg51
VJ EXP BOT
p135
sg53
V48
p136
sg82
(lp137
(VDEVRIJE
VT
tp138
asg61
I1997
sg49
V1631
p139
sbag1
(g2
g3
NtRp140
(dp141
g55
V10.1105/tpc.9.12.2183
p142
sg51
VPLANT CELL
p143
sg53
V9
sg82
(lp144
(VFAN
VL
tp145
asg61
I1997
sg49
VLANT
p146
sbag1
(g2
g3
NtRp147
(dp148
g55
Nsg51
VPLANT CELL
p149
sg53
V10
p150
sg82
(lp151
(VFINKELSTEIN
VR R
tp152
asg61
I1998
sg49
VLANT
p153
sbag1
(g2
g3
NtRp154
(dp155
g55
V10.1105/tpc.12.4.599
p156
sg51
VPLANT CELL
p157
sg53
V12
p158
sg82
(lp159
(VFINKELSTEIN
VR R
tp160
asg61
I2000
sg49
VLANT
p161
sbag1
(g2
g3
NtRp162
(dp163
g55
V10.1074/jbc.M009168200
p164
sg51
VJ BIOL CHEM
p165
sg53
V276
p166
sg82
(lp167
(VGAMPALA
VS S L
tp168
asg61
I2001
sg49
V9855
p169
sbag1
(g2
g3
NtRp170
(dp171
g55
V10.1105/tpc.13.9.2143
p172
sg51
VPLANT CELL
p173
sg53
V13
p174
sg82
(lp175
(VGARDINER
VJ C
tp176
asg61
I2001
sg49
VLANT
p177
sbag1
(g2
g3
NtRp178
(dp179
g55
V10.1016/S0014-5793(00)01574-X
p180
sg51
VFEBS LETT
p181
sg53
V474
p182
sg82
(lp183
(VGHELIS
VT
tp184
asg61
I2000
sg49
V43
p185
sbag1
(g2
g3
NtRp186
(dp187
g55
V10.1016/S0014-5793(00)02088-3
p188
sg51
VFEBS LETT
p189
sg53
V483
p190
sg82
(lp191
(VGHELIS
VT
tp192
asg61
I2000
sg49
V67
p193
sbag1
(g2
g3
NtRp194
(dp195
g55
V10.1105/tpc.4.10.1251
p196
sg51
VPLANT CELL
p197
sg53
V4
sg82
(lp198
(VGIRAUDAT
VJ
tp199
asg61
I1992
sg49
VLANT
p200
sbag1
(g2
g3
NtRp201
(dp202
g55
V10.1073/pnas.92.9.3903
p203
sg51
VP NATL ACAD SCI USA
p204
sg53
V92
p205
sg82
(lp206
(VHIRAYAMA
VT
tp207
asg61
I1995
sg49
V3903
p208
sbag1
(g2
g3
NtRp209
(dp210
g55
V10.1016/S0981-9428(99)80045-X
p211
sg51
VPLANT PHYSIOL BIOCH
p212
sg53
V37
p213
sg82
(lp214
(VHOOLEY
VR
tp215
asg61
I1999
sg49
VLANT
p216
sbag1
(g2
g3
NtRp217
(dp218
g55
V10.1073/pnas.96.21.12192
p219
sg51
VP NATL ACAD SCI USA
p220
sg53
V96
p221
sg82
(lp222
(VJACOB
VT
tp223
asg61
I1999
sg49
V12192
p224
sbag1
(g2
g3
NtRp225
(dp226
g55
V10.1046/j.1365-313X.1999.00423.x
p227
sg51
VPLANT J
p228
sg53
V18
p229
sg82
(lp230
(VJEANNETTE
VE
tp231
asg61
I1999
sg49
VLANT
p232
sbag1
(g2
g3
NtRp233
(dp234
g55
V10.1111/j.1399-3054.1967.tb08371.x
p235
sg51
VPHYSIOL PLANTARUM
p236
sg53
V20
p237
sg82
(lp238
(VJOUANNEAJP
S''
tp239
asg61
I1967
sg49
VHYSIOL
p240
sbag1
(g2
g3
NtRp241
(dp242
g55
V10.1007/BF00027165
p243
sg51
VPLANT MOL BIOL
p244
sg53
V20
p245
sg82
(lp246
(VLANG
VV
tp247
asg61
I1992
sg49
VLANT
p248
sbag1
(g2
g3
NtRp249
(dp250
g55
V10.1093/jexbot/49.suppl_1.339
p251
sg51
VJ EXP BOT
p252
sg53
V49
p253
sg82
(lp254
(VLECKIE
VC P
tp255
asg61
I1998
sg49
V339
p256
sbag1
(g2
g3
NtRp257
(dp258
g55
V10.1016/S1388-1981(00)00182-7
p259
sg51
VBBA
p260
sg53
V1530
p261
sg82
(lp262
(VLEIN
VW
tp263
asg61
I2001
sg49
V172
p264
sbag1
(g2
g3
NtRp265
(dp266
g55
V10.1101/gad.900401
p267
sg51
VGENE DEV
p268
sg53
V15
p269
sg82
(lp270
(VLEMICHEZ
VE
tp271
asg61
I2001
sg49
V1808
p272
sbag1
(g2
g3
NtRp273
(dp274
g55
V10.1105/tpc.9.5.759
p275
sg51
VPLANT CELL
p276
sg53
V9
sg82
(lp277
(VLEUNG
VJ
tp278
asg61
I1997
sg49
VLANT
p279
sbag1
(g2
g3
NtRp280
(dp281
g55
V10.1146/annurev.arplant.49.1.199
p282
sg51
VANNU REV PLANT PHYS
p283
sg53
V49
p284
sg82
(lp285
(VLEUNG
VJ
tp286
asg61
I1998
sg49
V199
p287
sbag1
(g2
g3
NtRp288
(dp289
g55
Nsg51
VJ BIOL CHEM
p290
sg53
V264
p291
sg82
(lp292
(VLISCOVITCH
VM
tp293
asg61
I1989
sg49
V11762
p294
sbag1
(g2
g3
NtRp295
(dp296
g55
V10.1016/S0960-9822(01)00519-X
p297
sg51
VCURR BIOL
p298
sg53
V11
p299
sg82
(lp300
(VMA
VH
tp301
asg61
I2001
sg49
VR869
p302
sbag1
(g2
g3
NtRp303
(dp304
g55
V10.1073/pnas.220417197
p305
sg51
VP NATL ACAD SCI USA
p306
sg53
V97
p307
sg82
(lp308
(VMACROBBIE
VE A C
tp309
asg61
I2000
sg49
V12361
p310
sbag1
(g2
g3
NtRp311
(dp312
g55
V10.1104/pp.114.3.751
p313
sg51
VPLANT PHYSIOL
p314
sg53
V114
p315
sg82
(lp316
(VMERLOT
VS
tp317
asg61
I1997
sg49
VLANT
p318
sbag1
(g2
g3
NtRp319
(dp320
g55
V10.1016/S1360-1385(00)01566-1
p321
sg51
VTRENDS PLANT SCI
p322
sg53
V5
sg82
(lp323
(VMILLAR
VA A
tp324
asg61
I2000
sg49
V95
p325
sbag1
(g2
g3
NtRp326
(dp327
g55
V10.1016/S1360-1385(01)01918-5
p328
sg51
VTRENDS PLANT SCI
p329
sg53
V6
sg82
(lp330
(VMUNNIK
VT
tp331
asg61
I2001
sg49
V227
p332
sbag1
(g2
g3
NtRp333
(dp334
g55
V10.1105/tpc.7.12.2197
p335
sg51
VPLANT CELL
p336
sg53
V7
sg82
(lp337
(VMUNNIK
VT
tp338
asg61
I1995
sg49
VLANT
p339
sbag1
(g2
g3
NtRp340
(dp341
g55
V10.1016/S0005-2760(97)00158-6
p342
sg51
VBBA
p343
sg53
V1389
p344
sg82
(lp345
(VMUNNIK
VT
tp346
asg61
I1998
sg49
V222
p347
sbag1
(g2
g3
NtRp348
(dp349
g55
V10.1016/0092-8674(95)90407-7
p350
sg51
VCELL
p351
sg53
V80
p352
sg82
(lp353
(VNEER
VE J
tp354
asg61
I1995
sg49
V249
p355
sbag1
(g2
g3
NtRp356
(dp357
g55
Nsg51
VJ BIOL CHEM
p358
sg53
V272
p359
sg82
(lp360
(VPAPPAN
VK
tp361
asg61
I1997
sg49
V7048
p362
sbag1
(g2
g3
NtRp363
(dp364
g55
Nsg51
VPLANT CELL
p365
sg53
V6
sg82
(lp366
(VPARCY
VF
tp367
asg61
I1994
sg49
VLANT
p368
sbag1
(g2
g3
NtRp369
(dp370
g55
V10.1074/jbc.272.45.28267
p371
sg51
VJ BIOL CHEM
p372
sg53
V272
p373
sg82
(lp374
(VQIN
VW S
tp375
asg61
I1997
sg49
V28267
p376
sbag1
(g2
g3
NtRp377
(dp378
g55
V10.1104/pp.124.2.693
p379
sg51
VPLANT PHYSIOL
p380
sg53
V124
p381
sg82
(lp382
(VRITCHIE
VS
tp383
asg61
I2000
sg49
VLANT
p384
sbag1
(g2
g3
NtRp385
(dp386
g55
V10.1073/pnas.95.5.2697
p387
sg51
VP NATL ACAD SCI USA
p388
sg53
V95
p389
sg82
(lp390
(VRITCHIE
VS
tp391
asg61
I1998
sg49
V2697
p392
sbag1
(g2
g3
NtRp393
(dp394
g55
V10.1016/S0005-2760(98)00048-4
p395
sg51
VBBA
p396
sg53
V1393
p397
sg82
(lp398
(VRYU
VS B
tp399
asg61
I1998
sg49
V193
p400
sbag1
(g2
g3
NtRp401
(dp402
g55
V10.1105/tpc.13.5.1143
p403
sg51
VPLANT CELL
p404
sg53
V13
p405
sg82
(lp406
(VSANCHEZ
VJ P
tp407
asg61
I2001
sg49
VLANT
p408
sbag1
(g2
g3
NtRp409
(dp410
g55
V10.1046/j.1365-313X.2001.01138.x
p411
sg51
VPLANT J
p412
sg53
V28
p413
sg82
(lp414
(VSANG
VY M
tp415
asg61
I2001
sg49
VLANT
p416
sbag1
(g2
g3
NtRp417
(dp418
g55
V10.1146/annurev.arplant.52.1.627
p419
sg51
VANNU REV PLANT PHYS
p420
sg53
V52
p421
sg82
(lp422
(VSCHROEDER
VJ I
tp423
asg61
I2001
sg49
V627
p424
sbag1
(g2
g3
NtRp425
(dp426
g55
V10.1073/pnas.96.4.1779
p427
sg51
VP NATL ACAD SCI USA
p428
sg53
V96
p429
sg82
(lp430
(VSTAXEN
VI
tp431
asg61
I1999
sg49
V1779
p432
sbag1
(g2
g3
NtRp433
(dp434
g55
V10.1093/pcp/pce028
p435
sg51
VPLANT CELL PHYSIOL
p436
sg53
V42
p437
sg82
(lp438
(VTAKAHASHI
VS
tp439
asg61
I2001
sg49
VLANT
p440
sbag1
(g2
g3
NtRp441
(dp442
g55
V10.1146/annurev.arplant.52.1.211
p443
sg51
VANNU REV PLANT PHYS
p444
sg53
V52
p445
sg82
(lp446
(VWANG
VX M
tp447
asg61
I2001
sg49
V211
p448
sbag1
(g2
g3
NtRp449
(dp450
g55
V10.1104/pp.120.3.645
p451
sg51
VPLANT PHYSIOL
p452
sg53
V120
p453
sg82
(lp454
(VWANG
VX M
tp455
asg61
I1999
sg49
VLANT
p456
sbag1
(g2
g3
NtRp457
(dp458
g55
Nsg51
VPLANT CELL
p459
sg53
V8
sg82
(lp460
(VYOUNG
VS A
tp461
asg61
I1996
sg49
VLANT
p462
sbag1
(g2
g3
NtRp463
(dp464
g55
V10.1016/S1388-1981(01)00091-9
p465
sg51
VBBA
p466
sg53
V1530
p467
sg82
(lp468
(VZIEN
VC A
tp469
asg61
I2001
sg49
V236
p470
sbasb.