ccopy_reg
_reconstructor
p1
(ctethne.classes.paper
Paper
p2
c__builtin__
object
p3
NtRp4
(dp5
S'publisherCity'
p6
VROCKVILLE
p7
sS'reprintAddress'
p8
VHallmann, A (reprint author), Univ Bielefeld, Dept Cellular & Dev Biol Plants, D-33615 Bielefeld, Germany.
p9
sS'WC'
p10
VPlant Sciences
p11
sS'GA'
p12
V490RS
p13
sS'abstract'
p14
VChannelrhodopsins are light-gated ion channels involved in the photoresponses of microalgae. Here, we describe the characterization of two channelrhodopsins, Volvox channelrhodopsin-1 (VChR1) and VChR2, from the multicellular green alga Volvox carteri. Both are encoded by nuclear single copy genes and are highly expressed in the small biflagellated somatic cells but not in the asexual reproductive cells (gonidia). Expression of both VChRs increases after cell cleavage and peaks after completion of embryogenesis, when the biosynthesis of the extracellular matrix begins. Likewise, expression of both transcripts increases after addition of the sex-inducer protein, but VChR2 is induced much more than VChR1. The expression of VChR1 is specifically promoted by extended dark periods, and heat stress reduces predominantly VChR1 expression. Expression of both VChRs increased under low light conditions, whereas cold stress and wounding reduced expression. Both VChRs were spectroscopically studied in their purified recombinant forms. VChR2 is similar to the ChR2 counterpart from Chlamydomonas reinhardtii with respect to its absorption maximum ( 460 nm) and photocycle dynamics. In contrast, VChR1 absorbs maximally at 540 nm at low pH (D540), shifting to 500 nm at high pH (D500). Flash photolysis experiments showed that after light excitation, the D540 dark state bleaches and at least two photoproducts, P600 and P500, are sequentially populated during the photocycle. We hypothesize that VChR2 is a general photoreceptor that is responsible for the avoidance of blue light and might play a key role in sexual development, whereas VChR1 is the main phototaxis photoreceptor under vegetative conditions, as it is more specifically adapted to environmental conditions and the developmental stages of Volvox.
p15
sS'pageEnd'
p16
I366
sS'date'
p17
I2009
sS'documentType'
p18
VArticle
p19
sS'subject'
p20
VPlant Sciences
p21
sS'isoSource'
p22
VPlant Physiol.
p23
sS'timesCited'
p24
(lp25
I12
aVZ9 12
p26
asS'PT'
p27
VJ
sS'title'
p28
VChannelrhodopsins Of Volvox Carteri Are Photochromic Proteins That Are Specifically Expressed In Somatic Cells Under Control Of Light, Temperature, And The Sex Inducer
p29
sS'ISSN'
p30
(lp31
V0032-0889
p32
aVJ9 PLANT PHYSIOL
p33
asS'authors_full'
p34
(lp35
(VKIANIANMOMENI
VARASH
tp36
a(VSTEHFEST
VKATJA
tp37
a(VNEMATOLLAHI
VGHAZALEH
tp38
a(VHEGEMANN
VPETER
tp39
a(VHALLMANN
VARMIN
tp40
asS'PG'
p41
I20
sS'PD'
p42
VSEP
p43
sS'pageStart'
p44
I347
sS'issue'
p45
I1
sS'RI'
p46
VHallmann, Armin/G-5823-2011
p47
sS'journal'
p48
VPLANT PHYSIOLOGY
p49
sS'volume'
p50
V151
p51
sS'doi'
p52
V10.1104/pp.109.143297
p53
sS'emailAddress'
p54
Varmin.hallmann@gmx.de
p55
sS'authorAddress'
p56
(lp57
V[Kianianmomeni, Arash; Nematollahi, Ghazaleh; Hallmann, Armin] Univ Bielefeld, Dept Cellular & Dev Biol Plants, D-33615 Bielefeld, Germany.
p58
aV[Stehfest, Katja; Hegemann, Peter] Humboldt Univ, Inst Biol, D-10115 Berlin, Germany.
p59
asS'publisherAddress'
p60
V15501 MONONA DRIVE, ROCKVILLE, MD 20855 USA
p61
sS'ER'
p62
V
sS'publisher'
p63
VAMER SOC PLANT BIOLOGISTS
p64
sS'authorKeywords'
p65
(lp66
VGREEN-ALGA VOLVOX
p67
aVMICROBIAL SENSORY RHODOPSINS
p68
aVCHLAMYDOMONAS-REINHARDTII
p69
aVPHOTOPHOBIC RESPONSES
p70
aVHALOBACTERIUM-HALOBIUM
p71
aVPHOTOTAXIS
p72
aVPHOTORECEPTOR
p73
aVBACTERIORHODOPSIN
p74
aVEYESPOT
p75
aVIDENTIFICATION
p76
asS'language'
p77
VEnglish
p78
sS'wosid'
p79
VWOS:000269522200028
p80
sS'citationCount'
p81
I97
sS'authors_init'
p82
(lp83
(VKIANIANMOMENI
VA
tp84
a(VSTEHFEST
VK
tp85
a(VNEMATOLLAHI
VG
tp86
a(VHEGEMANN
VP
tp87
a(VHALLMANN
VA
tp88
asS'citedReferences'
p89
(lp90
g1
(g2
g3
NtRp91
(dp92
g52
V10.1007/BF00312602
p93
sg48
VCURR GENET
p94
sg50
V18
p95
sg82
(lp96
(VADAMS
VC R
tp97
asg17
I1990
sg44
V141
p98
sbag1
(g2
g3
NtRp99
(dp100
g52
V10.1006/jmbi.1990.9999
p101
sg48
VJ MOL BIOL
p102
sg50
V215
p103
sg82
(lp104
(VALTSCHUL
VS F
tp105
asg17
I1990
sg44
V403
p106
sbag1
(g2
g3
NtRp107
(dp108
g52
Nsg48
VPLANT CELL
p109
sg50
V10
p110
sg82
(lp111
(VAMON
VP
tp112
asg17
I1998
sg44
VLANT
p113
sbag1
(g2
g3
NtRp114
(dp115
g52
V10.1021/bi00229a014
p116
sg48
VBIOCHEMISTRY
p117
sg50
V30
p118
sg82
(lp119
(VBECKMANN
VM
tp120
asg17
I1991
sg44
V3692
p121
sbag1
(g2
g3
NtRp122
(dp123
g52
V10.1105/tpc.108.057919
p124
sg48
VPLANT CELL
p125
sg50
V20
p126
sg82
(lp127
(VBERTHOLD
VP
tp128
asg17
I2008
sg44
VLANT
p129
sbag1
(g2
g3
NtRp130
(dp131
g52
V10.1038/322659a0
p132
sg48
VNATURE
p133
sg50
V322
p134
sg82
(lp135
(VBINDER
VB J
tp136
asg17
I1986
sg44
V659
p137
sbag1
(g2
g3
NtRp138
(dp139
g52
V10.1073/pnas.79.20.6250
p140
sg48
VP NATL ACAD SCI
p141
sg50
V79
p142
sg82
(lp143
(VBOGOMOLNI
VR A
tp144
asg17
I1982
sg44
V6250
p145
sbag1
(g2
g3
NtRp146
(dp147
g52
Nsg48
VBIOPHYS J
p148
sg50
V76
p149
sg82
(lp150
(VBRAUN
VF J
tp151
asg17
I1999
sg44
V1668
p152
sbag1
(g2
g3
NtRp153
(dp154
g52
V10.1039/b315527g
p155
sg48
VPHOTOCH PHOTOBIO SCI
p156
sg50
V3
sg82
(lp157
(VBROWN
VL S
tp158
asg17
I2004
sg44
VHOTOCH
p159
sbag1
(g2
g3
NtRp160
(dp161
g52
V10.1677/jme.0.0250169
p162
sg48
VJ MOL ENDOCRINOL
p163
sg50
V25
p164
sg82
(lp165
(VBUSTIN
VS A
tp166
asg17
I2000
sg44
V169
p167
sbag1
(g2
g3
NtRp168
(dp169
g52
V10.1007/BF00318215
p170
sg48
VCURR GENET
p171
sg50
V18
p172
sg82
(lp173
(VCRESNAR
VB
tp174
asg17
I1990
sg44
V337
p175
sbag1
(g2
g3
NtRp176
(dp177
g52
Nsg48
VEMBO J
p178
sg50
V14
p179
sg82
(lp180
(VDEININGER
VW
tp181
asg17
I1995
sg44
V5849
p182
sbag1
(g2
g3
NtRp183
(dp184
g52
V10.1002/bies.10259
p185
sg48
VBIOESSAYS
p186
sg50
V25
p187
sg82
(lp188
(VDIECKMANN
VC L
tp189
asg17
I2003
sg44
V410
p190
sbag1
(g2
g3
NtRp191
(dp192
g52
Nsg48
VPLANT CELL
p193
sg50
V11
p194
sg82
(lp195
(VEBNET
VE
tp196
asg17
I1999
sg44
VLANT
p197
sbag1
(g2
g3
NtRp198
(dp199
g52
V10.1093/nar/gkh340
p200
sg48
VNUCLEIC ACIDS RES
p201
sg50
V32
p202
sg82
(lp203
(VEDGAR
VR C
tp204
asg17
I2004
sg44
V1792
p205
sbag1
(g2
g3
NtRp206
(dp207
g52
V10.1074/jbc.274.49.35023
p208
sg48
VJ BIOL CHEM
p209
sg50
V274
p210
sg82
(lp211
(VENDER
VF
tp212
asg17
I1999
sg44
V35023
p213
sbag1
(g2
g3
NtRp214
(dp215
g52
V10.1074/jbc.M708039200
p216
sg48
VJ BIOL CHEM
p217
sg50
V283
p218
sg82
(lp219
(VERNST
VO P
tp220
asg17
I2008
sg44
V1637
p221
sbag1
(g2
g3
NtRp222
(dp223
g52
Nsg48
VCLADISTICS
p224
sg50
V5
sg82
(lp225
(VFELSENSTEIN
VJ
tp226
asg17
I1989
sg44
V164
p227
sbag1
(g2
g3
NtRp228
(dp229
g52
Nsg48
VMICROBIOL REV
p230
sg50
V44
p231
sg82
(lp232
(VFOSTER
VK W
tp233
asg17
I1980
sg44
V572
p234
sbag1
(g2
g3
NtRp235
(dp236
g52
Nsg48
VPHOTORECEPTORS LIGHT
p237
sg50
Nsg82
(lp238
(VFUHRMANN
VM
tp239
asg17
I2003
sg44
VHOTORECEPTORS
p240
sbag1
(g2
g3
NtRp241
(dp242
g52
Nsg48
VJ CELL SCI
p243
sg50
V114
p244
sg82
(lp245
(VFUHRMANN
VM
tp246
asg17
I2001
sg44
V3857
p247
sbag1
(g2
g3
NtRp248
(dp249
g52
Nsg48
VZ NATURFORSCH C
p250
sg50
V39
p251
sg82
(lp252
(VGILLES
VR
tp253
asg17
I1984
sg44
V584
p254
sbag1
(g2
g3
NtRp255
(dp256
g52
Nsg48
VGENETICS
p257
sg50
V141
p258
sg82
(lp259
(VGLOECKNER
VG
tp260
asg17
I1995
sg44
V937
p261
sbag1
(g2
g3
NtRp262
(dp263
g52
Nsg48
VBIOPHYS J
p264
sg50
V86
p265
sg82
(lp266
(VGOVORUNOVA
VE G
tp267
asg17
I2004
sg44
V2342
p268
sbag1
(g2
g3
NtRp269
(dp270
g52
V10.1146/annurev.genet.38.072902.092328
p271
sg48
VANNU REV GENET
p272
sg50
V38
p273
sg82
(lp274
(VGROSSMAN
VA R
tp275
asg17
I2004
sg44
V119
p276
sbag1
(g2
g3
NtRp277
(dp278
g52
V10.1016/j.plipres.2006.01.001
p279
sg48
VPROG LIPID RES
p280
sg50
V45
p281
sg82
(lp282
(VGUSCHINA
VI A
tp283
asg17
I2006
sg44
VROG
p284
sbag1
(g2
g3
NtRp285
(dp286
g52
VDOI 10.1111/J.1469-8137.2009.02874.X
p287
sg48
VNUCL ACIDS S SER
p288
sg50
V41
p289
sg82
(lp290
(VHALL
VT A
tp291
asg17
I1999
sg44
V95
p292
sbag1
(g2
g3
NtRp293
(dp294
g52
V10.1046/j.1365-313x.2001.01059.x
p295
sg48
VPLANT J
p296
sg50
V26
p297
sg82
(lp298
(VHALLMANN
VA
tp299
asg17
I2001
sg44
VLANT
p300
sbag1
(g2
g3
NtRp301
(dp302
g52
V10.1111/j.1365-313X.2005.02627.x
p303
sg48
VPLANT J
p304
sg50
V45
p305
sg82
(lp306
(VHALLMANN
VA
tp307
asg17
I2006
sg44
VLANT
p308
sbag1
(g2
g3
NtRp309
(dp310
g52
V10.1007/s00425-007-0519-x
p311
sg48
VPLANTA
p312
sg50
V226
p313
sg82
(lp314
(VHALLMANN
VA
tp315
asg17
I2007
sg44
VLANTA
p316
sbag1
(g2
g3
NtRp317
(dp318
g52
V10.1111/j.1550-7408.1971.tb03333.x
p319
sg48
VJ PROTOZOOL
p320
sg50
V18
p321
sg82
(lp322
(VHAND
VW G
tp323
asg17
I1971
sg44
V361
p324
sbag1
(g2
g3
NtRp325
(dp326
g52
V10.1098/rstb.1992.0127
p327
sg48
VPHILOS T ROY SOC B
p328
sg50
V338
p329
sg82
(lp330
(VHARZ
VH
tp331
asg17
I1992
sg44
VHILOS
p332
sbag1
(g2
g3
NtRp333
(dp334
g52
V10.1038/351489a0
p335
sg48
VNATURE
p336
sg50
V351
p337
sg82
(lp338
(VHARZ
VH
tp339
asg17
I1991
sg44
V489
p340
sbag1
(g2
g3
NtRp341
(dp342
g52
V10.1529/biophysj.105.069716
p343
sg48
VBIOPHYS J
p344
sg50
V89
p345
sg82
(lp346
(VHEGEMANN
VP
tp347
asg17
I2005
sg44
V3911
p348
sbag1
(g2
g3
NtRp349
(dp350
g52
V10.1046/j.1529-8817.2001.01095.x
p351
sg48
VJ PHYCOL
p352
sg50
V37
p353
sg82
(lp354
(VHEGEMANN
VP
tp355
asg17
I2001
sg44
V668
p356
sbag1
(g2
g3
NtRp357
(dp358
g52
V10.1146/annurev.arplant.59.032607.092847
p359
sg48
VANNU REV PLANT BIOL
p360
sg50
V59
p361
sg82
(lp362
(VHEGEMANN
VP
tp363
asg17
I2008
sg44
V167
p364
sbag1
(g2
g3
NtRp365
(dp366
g52
V10.1016/S0022-2836(05)80271-2
p367
sg48
VJ MOL BIOL
p368
sg50
V213
p369
sg82
(lp370
(VHENDERSON
VR
tp371
asg17
I1990
sg44
V899
p372
sbag1
(g2
g3
NtRp373
(dp374
g52
Nsg48
VBIOPHYS J
p375
sg50
V73
p376
sg82
(lp377
(VHOLLAND
VE M
tp378
asg17
I1997
sg44
V1395
p379
sbag1
(g2
g3
NtRp380
(dp381
g52
V10.1007/BF01294499
p382
sg48
VPROTOPLASMA
p383
sg50
V199
p384
sg82
(lp385
(VHOOPS
VH J
tp386
asg17
I1997
sg44
VROTOPLASMA
p387
sbag1
(g2
g3
NtRp388
(dp389
g52
V10.1111/j.0022-3646.1984.00020.x
p390
sg48
VJ PHYCOL
p391
sg50
V20
p392
sg82
(lp393
(VHOOPS
VH J
tp394
asg17
I1984
sg44
V20
p395
sbag1
(g2
g3
NtRp396
(dp397
g52
Nsg48
VJ CELL SCI
p398
sg50
V104
p399
sg82
(lp400
(VHOOPS
VH J
tp401
asg17
I1993
sg44
V105
p402
sbag1
(g2
g3
NtRp403
(dp404
g52
V10.1016/j.neures.2005.10.009
p405
sg48
VNEUROSCI RES
p406
sg50
V54
p407
sg82
(lp408
(VISHIZUKA
VT
tp409
asg17
I2006
sg44
V85
p410
sbag1
(g2
g3
NtRp411
(dp412
g52
V10.1562/2006-03-20-IR-853
p413
sg48
VPHOTOCHEM PHOTOBIOL
p414
sg50
V83
p415
sg82
(lp416
(VJUNG
VK H
tp417
asg17
I2007
sg44
VHOTOCHEM
p418
sbag1
(g2
g3
NtRp419
(dp420
g52
V410352207,12,1
p421
sg48
VENTOMOL EXP APPL
p422
sg50
V28
p423
sg82
(lp424
(VKAVALIERS
VM
tp425
asg17
I1980
sg44
V222
p426
sbag1
(g2
g3
NtRp427
(dp428
g52
V10.1126/science.3941891
p429
sg48
VSCIENCE
p430
sg50
V231
p431
sg82
(lp432
(VKIRK
VD L
tp433
asg17
I1986
sg44
V51
p434
sbag1
(g2
g3
NtRp435
(dp436
g52
V10.1016/S0092-8674(85)80015-5
p437
sg48
VCELL
p438
sg50
V41
p439
sg82
(lp440
(VKIRK
VM M
tp441
asg17
I1985
sg44
V419
p442
sbag1
(g2
g3
NtRp443
(dp444
g52
V10.1007/400_2007_041
p445
sg48
VV45
p446
sg50
V45
p447
sg82
(lp448
(VKLARE
VJOHANN P
tp449
asg17
I2008
sg44
V73
p450
sbag1
(g2
g3
NtRp451
(dp452
g52
Nsg48
VINT REV CYTOL
p453
sg50
V148
p454
sg82
(lp455
(VKREIMER
VG
tp456
asg17
I1994
sg44
V229
p457
sbag1
(g2
g3
NtRp458
(dp459
g52
Nsg48
VEUR J CELL BIOL
p460
sg50
V53
p461
sg82
(lp462
(VKREIMER
VG
tp463
asg17
I1990
sg44
V101
p464
sbag1
(g2
g3
NtRp465
(dp466
g52
V10.1007/s00294-008-0224-8
p467
sg48
VCURR GENET
p468
sg50
V55
p469
sg82
(lp470
(VKREIMER
VG
tp471
asg17
I2009
sg44
V19
p472
sbag1
(g2
g3
NtRp473
(dp474
g52
V10.1038/271476a0
p475
sg48
VNATURE
p476
sg50
V271
p477
sg82
(lp478
(VLITVIN
VF F
tp479
asg17
I1978
sg44
V476
p480
sbag1
(g2
g3
NtRp481
(dp482
g52
V10.1006/jmbi.1999.3027
p483
sg48
VJ MOL BIOL
p484
sg50
V291
p485
sg82
(lp486
(VLUECKE
VH
tp487
asg17
I1999
sg44
V899
p488
sbag1
(g2
g3
NtRp489
(dp490
g52
V10.1016/0014-5793(88)80126-1
p491
sg48
VFEBS LETT
p492
sg50
V234
p493
sg82
(lp494
(VMAGES
VH W
tp495
asg17
I1988
sg44
V407
p496
sbag1
(g2
g3
NtRp497
(dp498
g52
V10.1016/0006-291X(77)91245-1
p499
sg48
VBIOCHEM BIOPH RES CO
p500
sg50
V78
p501
sg82
(lp502
(VMATSUNOYAGI
VA
tp503
asg17
I1977
sg44
V237
p504
sbag1
(g2
g3
NtRp505
(dp506
g52
Nsg48
VProgress phycol
p507
sg50
V3
sg82
(lp508
(VMELKONIAN
VM
tp509
asg17
I1984
sg44
Vrogress
p510
sbag1
(g2
g3
NtRp511
(dp512
g52
V10.1074/jbc.M000603200
p513
sg48
VJ BIOL CHEM
p514
sg50
V275
p515
sg82
(lp516
(VMEYER
VC K
tp517
asg17
I2000
sg44
V19713
p518
sbag1
(g2
g3
NtRp519
(dp520
g52
V10.1126/science.314.5806.1674
p521
sg48
VSCIENCE
p522
sg50
V314
p523
sg82
(lp524
(VMILLER
VG
tp525
asg17
I2006
sg44
V1674
p526
sbag1
(g2
g3
NtRp527
(dp528
g52
V10.1021/bi00272a020
p529
sg48
VBIOCHEMISTRY
p530
sg50
V22
p531
sg82
(lp532
(VMOLDAY
VR S
tp533
asg17
I1983
sg44
V653
p534
sbag1
(g2
g3
NtRp535
(dp536
g52
V10.1073/pnas.1936192100
p537
sg48
VP NATL ACAD SCI USA
p538
sg50
V100
p539
sg82
(lp540
(VNAGEL
VG
tp541
asg17
I2003
sg44
V13940
p542
sbag1
(g2
g3
NtRp543
(dp544
g52
V10.1126/science.1072068
p545
sg48
VSCIENCE
p546
sg50
V296
p547
sg82
(lp548
(VNAGEL
VG
tp549
asg17
I2002
sg44
V2395
p550
sbag1
(g2
g3
NtRp551
(dp552
g52
Nsg48
VCAN J BOT
p553
sg50
V51
p554
sg82
(lp555
(VNAKAMURA
VK
tp556
asg17
I1973
sg44
V817
p557
sbag1
(g2
g3
NtRp558
(dp559
g52
V10.1186/1471-2164-7-321
p560
sg48
VBMC GENOMICS
p561
sg50
V7
sg82
(lp562
(VNEMATOLLAHI
VG
tp563
asg17
I2006
sg44
Nsbag1
(g2
g3
NtRp564
(dp565
g52
Nsg48
VEMBNEW NEWS
p566
sg50
V4
sg82
(lp567
(VNICHOLAS
VK B
tp568
asg17
I1997
sg44
V14
p569
sbag1
(g2
g3
NtRp570
(dp571
g52
V10.1073/pnas.70.10.2853
p572
sg48
VP NATL ACAD SCI USA
p573
sg50
V70
p574
sg82
(lp575
(VOESTERHED
S''
tp576
asg17
I1973
sg44
V2853
p577
sbag1
(g2
g3
NtRp578
(dp579
g52
V10.1016/j.gene.2003.07.003
p580
sg48
VGENE
p581
sg50
V321
p582
sg82
(lp583
(VOKAMOTO
VO K
tp584
asg17
I2003
sg44
V73
p585
sbag1
(g2
g3
NtRp586
(dp587
g52
Nsg48
VCOMPUT APPL BIOSCI
p588
sg50
V12
p589
sg82
(lp590
(VPAGE
VR D M
tp591
asg17
I1996
sg44
V357
p592
sbag1
(g2
g3
NtRp593
(dp594
g52
Nsg48
VPLANT PHYSIOL
p595
sg50
V115
p596
sg82
(lp597
(VPAN
VJ M
tp598
asg17
I1997
sg44
VLANT
p599
sbag1
(g2
g3
NtRp600
(dp601
g52
V10.1093/bioinformatics/bti761
p602
sg48
VBIOINFORMATICS
p603
sg50
V22
p604
sg82
(lp605
(VPEREZ-BERCOFF
VA
tp606
asg17
I2006
sg44
V112
p607
sbag1
(g2
g3
NtRp608
(dp609
g52
V10.1093/nar/29.9.e45
p610
sg48
VNUCLEIC ACIDS RES
p611
sg50
V29
p612
sg82
(lp613
(VPFAFFL
VM W
tp614
asg17
I2001
sg44
Nsbag1
(g2
g3
NtRp615
(dp616
g52
Nsg48
VECOLOGY ALGAE
p617
sg50
Nsg82
(lp618
(VPROVASOLI
VL
tp619
asg17
I1959
sg44
V84
p620
sbag1
(g2
g3
NtRp621
(dp622
g52
V10.1074/jbc.M806353200
p623
sg48
VJ BIOL CHEM
p624
sg50
V283
p625
sg82
(lp626
(VRITTER
VE
tp627
asg17
I2008
sg44
V35033
p628
sbag1
(g2
g3
NtRp629
(dp630
g52
Nsg48
VMOL BIOL EVOL
p631
sg50
V4
sg82
(lp632
(VSAITOU
VN
tp633
asg17
I1987
sg44
V406
p634
sbag1
(g2
g3
NtRp635
(dp636
g52
V10.1111/j.1550-7408.1977.tb00978.x
p637
sg48
VJ PROTOZOOL
p638
sg50
V24
p639
sg82
(lp640
(VSAKAGUCHI
VH
tp641
asg17
I1977
sg44
V284
p642
sbag1
(g2
g3
NtRp643
(dp644
g52
Nsg48
VPLANT CELL PHYSIOL
p645
sg50
V20
p646
sg82
(lp647
(VSAKAGUCHI
VH
tp648
asg17
I1979
sg44
VLANT
p649
sbag1
(g2
g3
NtRp650
(dp651
g52
Nsg48
VMOL CLONING LAB MANU
p652
sg50
Nsg82
(lp653
(VSAMBROOK
VJ
tp654
asg17
I2001
sg44
Nsbag1
(g2
g3
NtRp655
(dp656
g52
Nsg48
VBIOPHYS J
p657
sg50
V73
p658
sg82
(lp659
(VSCHALLER
VK
tp660
asg17
I1997
sg44
V1573
p661
sbag1
(g2
g3
NtRp662
(dp663
g52
Nsg48
VZ PFLANZENPHYSIOL
p664
sg50
V77
p665
sg82
(lp666
(VSCHLETZ
VK
tp667
asg17
I1976
sg44
V189
p668
sbag1
(g2
g3
NtRp669
(dp670
g52
V10.1038/262713a0
p671
sg48
VNATURE
p672
sg50
V262
p673
sg82
(lp674
(VSCHMIDT
VJ A
tp675
asg17
I1976
sg44
V713
p676
sbag1
(g2
g3
NtRp677
(dp678
g52
V10.1105/tpc.106.041749
p679
sg48
VPLANT CELL
p680
sg50
V18
p681
sg82
(lp682
(VSCHMIDT
VM
tp683
asg17
I2006
sg44
VLANT
p684
sbag1
(g2
g3
NtRp685
(dp686
g52
Nsg48
VJ BIOL CHEM
p687
sg50
V257
p688
sg82
(lp689
(VSCHOBERT
VB
tp690
asg17
I1982
sg44
V306
p691
sbag1
(g2
g3
NtRp692
(dp693
g52
V10.1016/j.tim.2006.09.006
p694
sg48
VTRENDS MICROBIOL
p695
sg50
V14
p696
sg82
(lp697
(VSHARMA
VA K
tp698
asg17
I2006
sg44
V463
p699
sbag1
(g2
g3
NtRp700
(dp701
g52
V10.1021/bi025636c
p702
sg48
VBIOCHEMISTRY
p703
sg50
V41
p704
sg82
(lp705
(VSHIMONO
VK
tp706
asg17
I2002
sg44
V6504
p707
sbag1
(g2
g3
NtRp708
(dp709
g52
Nsg48
VP NATL ACAD SCI USA
p710
sg50
V99
p711
sg82
(lp712
(VSINESHCHEKOV
VO A
tp713
asg17
I2002
sg44
V8689
p714
sbag1
(g2
g3
NtRp715
(dp716
g52
V10.1529/biophysj.105.070920
p717
sg48
VBIOPHYS J
p718
sg50
V89
p719
sg82
(lp720
(VSINESHCHEKOV
VO A
tp721
asg17
I2005
sg44
V4310
p722
sbag1
(g2
g3
NtRp723
(dp724
g52
V10.1016/j.tim.2006.09.005
p725
sg48
VTRENDS MICROBIOL
p726
sg50
V14
p727
sg82
(lp728
(VSPUDICH
VJ L
tp729
asg17
I2006
sg44
V480
p730
sbag1
(g2
g3
NtRp731
(dp732
g52
Nsg48
VDEVELOP BIOL       S
p733
sg50
V4
sg82
(lp734
(VSTARR
VR
tp735
asg17
I1970
sg44
V59
p736
sbag1
(g2
g3
NtRp737
(dp738
g52
Nsg48
VArchiv fuer Protistenkunde
p739
sg50
V111
p740
sg82
(lp741
(VSTARR
VR C
tp742
asg17
I1969
sg44
V204
p743
sbag1
(g2
g3
NtRp744
(dp745
g52
V10.1073/pnas.77.2.1025
p746
sg48
VP NATL ACAD SCI
p747
sg50
V77
p748
sg82
(lp749
(VSTARR
VR C
tp750
asg17
I1980
sg44
V1025
p751
sbag1
(g2
g3
NtRp752
(dp753
g52
V10.1073/pnas.71.4.1050
p754
sg48
VP NATL ACAD SCI USA
p755
sg50
V71
p756
sg82
(lp757
(VSTARR
VR C
tp758
asg17
I1974
sg44
V1050
p759
sbag1
(g2
g3
NtRp760
(dp761
g52
V10.1016/S0006-291X(02)03079-6
p762
sg48
VBIOCHEM BIOPH RES CO
p763
sg50
V301
p764
sg82
(lp765
(VSUZUKI
VT
tp766
asg17
I2003
sg44
V711
p767
sbag1
(g2
g3
NtRp768
(dp769
g52
V10.1016/S0006-291X(85)80131-5
p770
sg48
VBIOCHEM BIOPH RES CO
p771
sg50
V127
p772
sg82
(lp773
(VTAKAHASHI
VT
tp774
asg17
I1985
sg44
V99
p775
sbag1
(g2
g3
NtRp776
(dp777
g52
V10.1016/0012-1606(91)90212-L
p778
sg48
VDEV BIOL
p779
sg50
V145
p780
sg82
(lp781
(VTAM
VL W
tp782
asg17
I1991
sg44
V51
p783
sbag1
(g2
g3
NtRp784
(dp785
g52
Nsg48
VEMBO J
p786
sg50
V6
sg82
(lp787
(VTSCHOCHNER
VH
tp788
asg17
I1987
sg44
V2203
p789
sbag1
(g2
g3
NtRp790
(dp791
g52
V10.1111/j.1751-1097.2008.00519.x
p792
sg48
VPHOTOCHEM PHOTOBIOL
p793
sg50
V85
p794
sg82
(lp795
(VTSUNODA
VS P
tp796
asg17
I2009
sg44
VHOTOCHEM
p797
sbag1
(g2
g3
NtRp798
(dp799
g52
V10.1529/biophysj.106.086421
p800
sg48
VBIOPHYS J
p801
sg50
V91
p802
sg82
(lp803
(VTSUNODA
VS P
tp804
asg17
I2006
sg44
V1471
p805
sbag1
(g2
g3
NtRp806
(dp807
g52
V10.1093/plankt/12.5.1089
p808
sg48
VJ PLANKTON RES
p809
sg50
V12
p810
sg82
(lp811
(VVANUYTVANCK
VJ
tp812
asg17
I1990
sg44
V1089
p813
sbag1
(g2
g3
NtRp814
(dp815
g52
V10.1038/nn.2120
p816
sg48
VNAT NEUROSCI
p817
sg50
V11
p818
sg82
(lp819
(VZHANG
VF
tp820
asg17
I2008
sg44
V631
p821
sbasb.