ccopy_reg
_reconstructor
p1
(ctethne.classes.paper
Paper
p2
c__builtin__
object
p3
NtRp4
(dp5
S'publisherCity'
p6
VROCKVILLE
p7
sS'reprintAddress'
p8
VGelvin, SB (reprint author), Purdue Univ, Dept Biol Sci, W Lafayette, IN 47907 USA.
p9
sS'WC'
p10
VPlant Sciences
p11
sS'GA'
p12
V479WJ
p13
sS'FX'
p14
(lp15
VI thank Drs. Erh-Min Lai and Walt Ream for critical reading of this
p16
aVmanuscript and for helpful suggestions. Research in the author's
p17
aVlaboratory is funded by the National Science Foundation, the Department
p18
aVof Energy through the Corporation for Plant Biotechnology Research, the
p19
aVBiotechnology Research and Development Corporation, and Dow
p20
aVAgrosciences.
p21
asS'pageEnd'
p22
I1676
sS'date'
p23
I2009
sS'documentType'
p24
VReview
p25
sS'subject'
p26
VPlant Sciences
p27
sS'isoSource'
p28
VPlant Physiol.
p29
sS'timesCited'
p30
(lp31
I37
aVZ9 38
p32
asS'funding'
p33
(lp34
(VNational Science Foundation
Ntp35
a(VDepartment of Energy
Ntp36
a(VBiotechnology Research and Development Corporation
Ntp37
a(VDow Agrosciences
Ntp38
asS'PT'
p39
VJ
sS'title'
p40
VAgrobacterium In The Genomics Age
p41
sS'ISSN'
p42
(lp43
V0032-0889
p44
aVJ9 PLANT PHYSIOL
p45
asS'authors_full'
p46
(lp47
(VGELVIN
VSTANTON B
tp48
asS'PG'
p49
I12
sS'PD'
p50
VAUG
p51
sS'pageStart'
p52
I1665
sS'issue'
p53
I4
sS'journal'
p54
VPLANT PHYSIOLOGY
p55
sS'volume'
p56
V150
p57
sS'doi'
p58
V10.1104/pp.109.139873
p59
sS'emailAddress'
p60
Vgelvin@bilbo.bio.purdue.edu
p61
sS'authorAddress'
p62
VPurdue Univ, Dept Biol Sci, W Lafayette, IN 47907 USA.
p63
sS'publisherAddress'
p64
V15501 MONONA DRIVE, ROCKVILLE, MD 20855 USA
p65
sS'ER'
p66
V
sS'publisher'
p67
VAMER SOC PLANT BIOLOGISTS
p68
sS'authorKeywords'
p69
(lp70
VT-DNA INTEGRATION
p71
aVCOMPLETE NUCLEOTIDE-SEQUENCE
p72
aVMEDIATED PLANT TRANSFORMATION
p73
aVCROWN-GALL DISEASE
p74
aVVITRONECTIN-LIKE PROTEIN
p75
aVSIGNAL SALICYLIC-ACID
p76
aVVIR GENE-EXPRESSION
p77
aVTUMOR-INDUCING TI
p78
aVNUCLEAR IMPORT
p79
aVSACCHAROMYCES-CEREVISIAE
p80
asS'language'
p81
VEnglish
p82
sS'wosid'
p83
VWOS:000268692200007
p84
sS'citationCount'
p85
I163
sS'authors_init'
p86
(lp87
(VGELVIN
VS B
tp88
asS'citedReferences'
p89
(lp90
g1
(g2
g3
NtRp91
(dp92
g58
V10.1086/315525
p93
sg54
VJ INFECT DIS
p94
sg56
V181
p95
sg86
(lp96
(VABUODEH
VR O
tp97
asg23
I2000
sg52
V2106
p98
sbag1
(g2
g3
NtRp99
(dp100
g58
V10.1073/pnas.81.19.5994
p101
sg54
VP NATL ACAD SCI
p102
sg56
V81
p103
sg86
(lp104
(VAKIYOSHI
VD E
tp105
asg23
I1984
sg52
V5994
p106
sbag1
(g2
g3
NtRp107
(dp108
g58
V10.1104/pp.107.111302
p109
sg54
VPLANT PHYSIOL
p110
sg56
V146
p111
sg86
(lp112
(VANAND
VA
tp113
asg23
I2008
sg52
VLANT
p114
sbag1
(g2
g3
NtRp115
(dp116
g58
V10.1105/tpc.106.042903
p117
sg54
VPLANT CELL
p118
sg56
V19
p119
sg86
(lp120
(VANAND
VA
tp121
asg23
I2007
sg52
VLANT
p122
sbag1
(g2
g3
NtRp123
(dp124
g58
V10.1094/MPMI-20-0041
p125
sg54
VMOL PLANT MICROBE IN
p126
sg56
V20
p127
sg86
(lp128
(VANAND
VA
tp129
asg23
I2007
sg52
V41
p130
sbag1
(g2
g3
NtRp131
(dp132
g58
V10.1094/Phyto-69-320
p133
sg54
VPHYTOPATHOLOGY
p134
sg56
V69
p135
sg86
(lp136
(VANDERSON
VA R
tp137
asg23
I1979
sg52
VHYTOPATHOLOGY
p138
sbag1
(g2
g3
NtRp139
(dp140
g58
V10.1016/j.tim.2008.07.001
p141
sg54
VTRENDS MICROBIOL
p142
sg56
V16
p143
sg86
(lp144
(VBACKERT
VS
tp145
asg23
I2008
sg52
V409
p146
sbag1
(g2
g3
NtRp147
(dp148
g58
Nsg54
VCROP SCI
p149
sg56
V34
p150
sg86
(lp151
(VBAILEY
VM A
tp152
asg23
I1994
sg52
V514
p153
sbag1
(g2
g3
NtRp154
(dp155
g58
V10.1073/pnas.1733208100
p156
sg54
VP NATL ACAD SCI USA
p157
sg56
V100
p158
sg86
(lp159
(VBAKO
VL
tp160
asg23
I2003
sg52
V10108
p161
sbag1
(g2
g3
NtRp162
(dp163
g58
V10.1073/pnas.94.20.10723
p164
sg54
VP NATL ACAD SCI USA
p165
sg56
V94
p166
sg86
(lp167
(VBALLAS
VN
tp168
asg23
I1997
sg52
V10723
p169
sbag1
(g2
g3
NtRp170
(dp171
g58
V10.1007/BF01578595
p172
sg54
VPLANT MOL BIOL
p173
sg56
V2
sg86
(lp174
(VBARKER
VR F
tp175
asg23
I1983
sg52
VLANT
p176
sbag1
(g2
g3
NtRp177
(dp178
g58
V10.1038/304184a0
p179
sg54
VNATURE
p180
sg56
V304
p181
sg86
(lp182
(VBEVAN
VM W
tp183
asg23
I1983
sg52
V184
p184
sbag1
(g2
g3
NtRp185
(dp186
g58
V10.1105/tpc.108.060467
p187
sg54
VPLANT CELL
p188
sg56
V20
p189
sg86
(lp190
(VBHATTACHARJEE
VS
tp191
asg23
I2008
sg52
VLANT
p192
sbag1
(g2
g3
NtRp193
(dp194
g58
Nsg54
VHORTSCIENCE
p195
sg56
V34
p196
sg86
(lp197
(VBLISS
VF A
tp198
asg23
I1999
sg52
V326
p199
sbag1
(g2
g3
NtRp200
(dp201
g58
V10.1002/biot.200500045
p202
sg54
VBiotechnology Journal
p203
sg56
V1
sg86
(lp204
(VBULGAKOV
VVICTOR P
tp205
asg23
I2006
sg52
V454
p206
sbag1
(g2
g3
NtRp207
(dp208
g58
V10.1002/yea.858
p209
sg54
VYEAST
p210
sg56
V19
p211
sg86
(lp212
(VBUNDOCK
VP
tp213
asg23
I2002
sg52
V529
p214
sbag1
(g2
g3
NtRp215
(dp216
g58
Nsg54
VEMBO J
p217
sg56
V14
p218
sg86
(lp219
(VBUNDOCK
VP
tp220
asg23
I1995
sg52
V3206
p221
sbag1
(g2
g3
NtRp222
(dp223
g58
V10.1126/science.222.4625.815
p224
sg54
VSCIENCE
p225
sg56
V222
p226
sg86
(lp227
(VCAPLAN
VA
tp228
asg23
I1983
sg52
V815
p229
sbag1
(g2
g3
NtRp230
(dp231
g58
Nsg54
VJ BACTERIOL
p232
sg56
V178
p233
sg86
(lp234
(VCHANG
VC H
tp235
asg23
I1996
sg52
V4717
p236
sbag1
(g2
g3
NtRp237
(dp238
g58
Nsg54
VJ BACTERIOL
p239
sg56
V175
p240
sg86
(lp241
(VCHARLES
VT C
tp242
asg23
I1993
sg52
V6614
p243
sbag1
(g2
g3
NtRp244
(dp245
g58
V10.1073/pnas.0600313103
p246
sg54
VP NATL ACAD SCI USA
p247
sg56
V103
p248
sg86
(lp249
(VCHEVROT
VR
tp250
asg23
I2006
sg52
V7460
p251
sbag1
(g2
g3
NtRp252
(dp253
g58
V10.1073/pnas.0503458102
p254
sg54
VP NATL ACAD SCI USA
p255
sg56
V102
p256
sg86
(lp257
(VCHO
VH B
tp258
asg23
I2005
sg52
V14843
p259
sbag1
(g2
g3
NtRp260
(dp261
g58
V10.1111/j.1462-5822.2006.00830.x
p262
sg54
VCELL MICROBIOL
p263
sg56
V9
sg86
(lp264
(VCITOVSKY
VV
tp265
asg23
I2007
sg52
V9
sbag1
(g2
g3
NtRp266
(dp267
g58
Nsg54
VAGROBACTERIUM BIOL B
p268
sg56
Nsg86
(lp269
(VCITOVSKY
VV
tp270
asg23
I2008
sg52
Nsbag1
(g2
g3
NtRp271
(dp272
g58
V10.1126/science.1615325
p273
sg54
VSCIENCE
p274
sg56
V256
p275
sg86
(lp276
(VCITOVSKY
VV
tp277
asg23
I1992
sg52
V1802
p278
sbag1
(g2
g3
NtRp279
(dp280
g58
V10.1074/jbc.M403159200
p281
sg54
VJ BIOL CHEM
p282
sg56
V279
p283
sg86
(lp284
(VCITOVSKY
VV
tp285
asg23
I2004
sg52
V29528
p286
sbag1
(g2
g3
NtRp287
(dp288
g58
V10.1007/s00709-008-0022-7
p289
sg54
VPROTOPLASMA
p290
sg56
V234
p291
sg86
(lp292
(VCLAUCE-COUPEL
VH
tp293
asg23
I2008
sg52
VROTOPLASMA
p294
sbag1
(g2
g3
NtRp295
(dp296
g58
V10.1086/297078
p297
sg54
VINT J PLANT SCI
p298
sg56
V153
p299
sg86
(lp300
(VCONNER
VA J
tp301
asg23
I1992
sg52
V550
p302
sbag1
(g2
g3
NtRp303
(dp304
g58
V10.1073/pnas.0706986104
p305
sg54
VP NATL ACAD SCI USA
p306
sg56
V104
p307
sg86
(lp308
(VCRANE
VY M
tp309
asg23
I2007
sg52
V15156
p310
sbag1
(g2
g3
NtRp311
(dp312
g58
V10.1093/nar/14.3.1355
p313
sg54
VNUCLEIC ACIDS RES
p314
sg56
V14
p315
sg86
(lp316
(VDAS
VA
tp317
asg23
I1986
sg52
V1355
p318
sbag1
(g2
g3
NtRp319
(dp320
g58
Nsg54
VBOT REV
p321
sg56
V42
p322
sg86
(lp323
(VDECLEENE
VM
tp324
asg23
I1976
sg52
V389
p325
sbag1
(g2
g3
NtRp326
(dp327
g58
V10.1105/tpc.106.044743
p328
sg54
VPLANT CELL
p329
sg56
V18
p330
sg86
(lp331
(VDEEKEN
VR
tp332
asg23
I2006
sg52
VLANT
p333
sbag1
(g2
g3
NtRp334
(dp335
g58
V10.1038/nbt0583-262
p336
sg54
VBIO
p337
sg56
V1
sg86
(lp338
(VDEFRAMOND
VA J
tp339
asg23
I1983
sg52
V262
p340
sbag1
(g2
g3
NtRp341
(dp342
g58
V10.1016/0147-619X(81)90069-X
p343
sg54
VPLASMID
p344
sg56
V6
sg86
(lp345
(VDEGREVE
VH
tp346
asg23
I1981
sg52
VLASMID
p347
sbag1
(g2
g3
NtRp348
(dp349
g58
V10.1038/nbt0998-839
p350
sg54
VNAT BIOTECHNOL
p351
sg56
V16
p352
sg86
(lp353
(VDE
VGROOT M J A
tp354
asg23
I1998
sg52
V839
p355
sbag1
(g2
g3
NtRp356
(dp357
g58
V10.1073/pnas.95.12.7040
p358
sg54
VP NATL ACAD SCI USA
p359
sg56
V95
p360
sg86
(lp361
(VDENG
VW Y
tp362
asg23
I1998
sg52
V7040
p363
sbag1
(g2
g3
NtRp364
(dp365
g58
V10.1073/pnas.191383498
p366
sg54
VP NATL ACAD SCI USA
p367
sg56
V98
p368
sg86
(lp369
(VDITT
VR F
tp370
asg23
I2001
sg52
V10954
p371
sbag1
(g2
g3
NtRp372
(dp373
g58
V10.1094/MPMI-19-0665
p374
sg54
VMOL PLANT MICROBE IN
p375
sg56
V19
p376
sg86
(lp377
(VDITT
VR F
tp378
asg23
I2006
sg52
V665
p379
sbag1
(g2
g3
NtRp380
(dp381
g58
V10.1016/0022-2836(87)90470-0
p382
sg54
VJ MOL BIOL
p383
sg56
V197
p384
sg86
(lp385
(VENGSTROM
VP
tp386
asg23
I1987
sg52
V635
p387
sbag1
(g2
g3
NtRp388
(dp389
g58
V10.1073/pnas.0507535103
p390
sg54
VP NATL ACAD SCI USA
p391
sg56
V103
p392
sg86
(lp393
(VFIERER
VN
tp394
asg23
I2006
sg52
V626
p395
sbag1
(g2
g3
NtRp396
(dp397
g58
V10.1038/nbt0785-629
p398
sg54
VBIO
p399
sg56
V3
sg86
(lp400
(VFRALEY
VR T
tp401
asg23
I1985
sg52
V629
p402
sbag1
(g2
g3
NtRp403
(dp404
g58
V10.1073/pnas.80.15.4803
p405
sg54
VP NATL ACAD SCI
p406
sg56
V80
p407
sg86
(lp408
(VFRALEY
VR T
tp409
asg23
I1983
sg52
V4803
p410
sbag1
(g2
g3
NtRp411
(dp412
g58
V10.1046/j.1365-313X.2003.01738.x
p413
sg54
VPLANT J
p414
sg56
V34
p415
sg86
(lp416
(VFRIESNER
VJ
tp417
asg23
I2003
sg52
VLANT
p418
sbag1
(g2
g3
NtRp419
(dp420
g58
V10.1093/nar/gkl877
p421
sg54
VNUCLEIC ACIDS RES
p422
sg56
V34
p423
sg86
(lp424
(VGARCIA-RODRIGUEZ
VF M
tp425
asg23
I2006
sg52
V6496
p426
sbag1
(g2
g3
NtRp427
(dp428
g58
Nsg54
VJ BACTERIOL
p429
sg56
V144
p430
sg86
(lp431
(VGARFINKEL
VD J
tp432
asg23
I1980
sg52
V732
p433
sbag1
(g2
g3
NtRp434
(dp435
g58
V10.1016/0092-8674(81)90368-8
p436
sg54
VCELL
p437
sg56
V27
p438
sg86
(lp439
(VGARFINKEL
VD J
tp440
asg23
I1981
sg52
V143
p441
sbag1
(g2
g3
NtRp442
(dp443
g58
V10.1104/pp.104.045542
p444
sg54
VPLANT PHYSIOL
p445
sg56
V135
p446
sg86
(lp447
(VGASPAR
VY M
tp448
asg23
I2004
sg52
VLANT
p449
sbag1
(g2
g3
NtRp450
(dp451
g58
V10.1128/MMBR.67.1.16-37.2003
p452
sg54
VMICROBIOL MOL BIOL R
p453
sg56
V67
p454
sg86
(lp455
(VGELVIN
VS B
tp456
asg23
I2003
sg52
V16
p457
sbag1
(g2
g3
NtRp458
(dp459
g58
V10.1146/annurev.arplant.51.1.223
p460
sg54
VANNU REV PLANT PHYS
p461
sg56
V51
p462
sg86
(lp463
(VGELVIN
VS B
tp464
asg23
I2000
sg52
V223
p465
sbag1
(g2
g3
NtRp466
(dp467
g58
V10.1016/j.bbaexp.2007.04.005
p468
sg54
VBBA
p469
sg56
V1769
p470
sg86
(lp471
(VGELVIN
VS B
tp472
asg23
I2007
sg52
V410
p473
sbag1
(g2
g3
NtRp474
(dp475
g58
V10.1038/nbt0908-998
p476
sg54
VNAT BIOTECHNOL
p477
sg56
V26
p478
sg86
(lp479
(VGELVIN
VS B
tp480
asg23
I2008
sg52
V998
p481
sbag1
(g2
g3
NtRp482
(dp483
g58
Nsg54
VEMBO J
p484
sg56
V3
sg86
(lp485
(VGIELEN
VJ
tp486
asg23
I1984
sg52
V835
p487
sbag1
(g2
g3
NtRp488
(dp489
g58
V10.1126/science.1066803
p490
sg54
VSCIENCE
p491
sg56
V294
p492
sg86
(lp493
(VGOODNER
VB
tp494
asg23
I2001
sg52
V2323
p495
sbag1
(g2
g3
NtRp496
(dp497
g58
V10.1104/pp.83.3.564
p498
sg54
VPLANT PHYSIOL
p499
sg56
V83
p500
sg86
(lp501
(VGURLITZ
VR H G
tp502
asg23
I1987
sg52
VLANT
p503
sbag1
(g2
g3
NtRp504
(dp505
g58
Nsg54
VEMBO J
p506
sg56
V2
sg86
(lp507
(VHERRERAESTRELLA
VL
tp508
asg23
I1983
sg52
V987
p509
sbag1
(g2
g3
NtRp510
(dp511
g58
V10.1128/JB.186.10.3065-3077.2004
p512
sg54
VJ BACTERIOL
p513
sg56
V186
p514
sg86
(lp515
(VHODGES
VL D
tp516
asg23
I2004
sg52
V3065
p517
sbag1
(g2
g3
NtRp518
(dp519
g58
V10.1128/JB.00747-06
p520
sg54
VJ BACTERIOL
p521
sg56
V188
p522
sg86
(lp523
(VHODGES
VL D
tp524
asg23
I2006
sg52
V8222
p525
sbag1
(g2
g3
NtRp526
(dp527
g58
V10.1128/JB.01018-08
p528
sg54
VJ BACTERIOL
p529
sg56
V191
p530
sg86
(lp531
(VHODGES
VL D
tp532
asg23
I2009
sg52
V355
p533
sbag1
(g2
g3
NtRp534
(dp535
g58
V10.1038/303179a0
p536
sg54
VNATURE
p537
sg56
V303
p538
sg86
(lp539
(VHOEKEMA
VA
tp540
asg23
I1983
sg52
V179
p541
sbag1
(g2
g3
NtRp542
(dp543
g58
V10.1016/0147-619X(80)90110-9
p544
sg54
VPLASMID
p545
sg56
V3
sg86
(lp546
(VHOLSTERS
VM
tp547
asg23
I1980
sg52
VLASMID
p548
sbag1
(g2
g3
NtRp549
(dp550
g58
V10.1128/AEM.70.5.2806-2815.2004
p551
sg54
VAPPL ENVIRON MICROB
p552
sg56
V70
p553
sg86
(lp554
(VHOUSE
VB L
tp555
asg23
I2004
sg52
V2806
p556
sbag1
(g2
g3
NtRp557
(dp558
g58
V10.1105/tpc.104.026476
p559
sg54
VPLANT CELL
p560
sg56
V16
p561
sg86
(lp562
(VHWANG
VH H
tp563
asg23
I2004
sg52
VLANT
p564
sbag1
(g2
g3
NtRp565
(dp566
g58
V10.1007/BF00383526
p567
sg54
VMOL GEN GENET
p568
sg56
V194
p569
sg86
(lp570
(VINZE
VD
tp571
asg23
I1984
sg52
V265
p572
sbag1
(g2
g3
NtRp573
(dp574
g58
V10.1007/BF00334686
p575
sg54
VMOL GEN GENET
p576
sg56
V212
p577
sg86
(lp578
(VJONES
VD A
tp579
asg23
I1988
sg52
V207
p580
sbag1
(g2
g3
NtRp581
(dp582
g58
V10.1046/j.1364-3703.2002.00104.x
p583
sg54
VMOL PLANT PATHOL
p584
sg56
V3
sg86
(lp585
(VKELLY
VB A
tp586
asg23
I2002
sg52
V125
p587
sbag1
(g2
g3
NtRp588
(dp589
g58
Nsg54
VPHYTOPATHOL Z
p590
sg56
V90
p591
sg86
(lp592
(VKERR
VA
tp593
asg23
I1977
sg52
VHYTOPATHOL
p594
sbag1
(g2
g3
NtRp595
(dp596
g58
V10.1111/j.1365-313X.2007.03183.x
p597
sg54
VPLANT J
p598
sg56
V51
p599
sg86
(lp600
(VKIM
VS I
tp601
asg23
I2007
sg52
VLANT
p602
sbag1
(g2
g3
NtRp603
(dp604
g58
Nsg54
VEMBO J
p605
sg56
V10
p606
sg86
(lp607
(VKORBER
VH
tp608
asg23
I1991
sg52
V3983
p609
sbag1
(g2
g3
NtRp610
(dp611
g58
V10.1073/pnas.041327598
p612
sg54
VP NATL ACAD SCI USA
p613
sg56
V98
p614
sg86
(lp615
(VKUNIK
VT
tp616
asg23
I2001
sg52
V1871
p617
sbag1
(g2
g3
NtRp618
(dp619
g58
V10.1038/sj.emboj.7600524
p620
sg54
VEMBO J
p621
sg56
V24
p622
sg86
(lp623
(VLACROIX
VB
tp624
asg23
I2005
sg52
V428
p625
sbag1
(g2
g3
NtRp626
(dp627
g58
V10.1073/pnas.0805641105
p628
sg54
VP NATL ACAD SCI USA
p629
sg56
V105
p630
sg86
(lp631
(VLACROIX
VB
tp632
asg23
I2008
sg52
V15429
p633
sbag1
(g2
g3
NtRp634
(dp635
g58
Nsg54
VJ BACTERIOL
p636
sg56
V180
p637
sg86
(lp638
(VLAI
VE M
tp639
asg23
I1998
sg52
V2711
p640
sbag1
(g2
g3
NtRp641
(dp642
g58
V10.1002/pmic.200600254
p643
sg54
VPROTEOMICS
p644
sg56
V6
sg86
(lp645
(VLAI
VE M
tp646
asg23
I2006
sg52
VROTEOMICS
p647
sbag1
(g2
g3
NtRp648
(dp649
g58
V10.1186/1746-4811-4-24
p650
sg54
VPLANT METHODS
p651
sg56
V4
sg86
(lp652
(VLEE
VL Y
tp653
asg23
I2008
sg52
VLANT
p654
sbag1
(g2
g3
NtRp655
(dp656
g58
V10.1104/pp.107.113001
p657
sg54
VPLANT PHYSIOL
p658
sg56
V146
p659
sg86
(lp660
(VLEE
VL Y
tp661
asg23
I2008
sg52
VLANT
p662
sbag1
(g2
g3
NtRp663
(dp664
g58
Nsg54
VJournal of Molecular and Applied Genetics
p665
sg56
V1
sg86
(lp666
(VLEEMANS
VJ
tp667
asg23
I1981
sg52
V149
p668
sbag1
(g2
g3
NtRp669
(dp670
g58
V10.1073/pnas.0404118102
p671
sg54
VP NATL ACAD SCI USA
p672
sg56
V102
p673
sg86
(lp674
(VLI
VJ X
tp675
asg23
I2005
sg52
V5733
p676
sbag1
(g2
g3
NtRp677
(dp678
g58
V10.1073/pnas.192439499
p679
sg54
VP NATL ACAD SCI USA
p680
sg56
V99
p681
sg86
(lp682
(VLI
VL P
tp683
asg23
I2002
sg52
V12369
p684
sbag1
(g2
g3
NtRp685
(dp686
g58
V10.1073/pnas.0600366103
p687
sg54
VP NATL ACAD SCI USA
p688
sg56
V103
p689
sg86
(lp690
(VLIU
VP
tp691
asg23
I2006
sg52
V4658
p692
sbag1
(g2
g3
NtRp693
(dp694
g58
V10.1104/pp.105.062547
p695
sg54
VPLANT PHYSIOL
p696
sg56
V138
p697
sg86
(lp698
(VLOYTER
VA
tp699
asg23
I2005
sg52
VLANT
p700
sbag1
(g2
g3
NtRp701
(dp702
g58
Nsg54
VJ BACTERIOL
p703
sg56
V174
p704
sg86
(lp705
(VMANTIS
VN J
tp706
asg23
I1992
sg52
V1189
p707
sbag1
(g2
g3
NtRp708
(dp709
g58
Nsg54
VCROP SCI
p710
sg56
V35
p711
sg86
(lp712
(VMAURO
VA O
tp713
asg23
I1995
sg52
V1152
p714
sbag1
(g2
g3
NtRp715
(dp716
g58
V10.1146/annurev.cellbio.22.011105.102022
p717
sg54
VANNU REV CELL DEV BI
p718
sg56
V22
p719
sg86
(lp720
(VMCCULLEN
VC A
tp721
asg23
I2006
sg52
V101
p722
sbag1
(g2
g3
NtRp723
(dp724
g58
V10.1007/BF00018565
p725
sg54
VPLANT MOL BIOL
p726
sg56
V14
p727
sg86
(lp728
(VMELCHERS
VL S
tp729
asg23
I1990
sg52
VLANT
p730
sbag1
(g2
g3
NtRp731
(dp732
g58
V10.1128/JB.186.7.2038-2045.2004
p733
sg54
VJ BACTERIOL
p734
sg56
V186
p735
sg86
(lp736
(VMICHIELSE
VC B
tp737
asg23
I2004
sg52
V2038
p738
sbag1
(g2
g3
NtRp739
(dp740
g58
V10.1006/jmbi.2001.4488
p741
sg54
VJ MOL BIOL
p742
sg56
V307
p743
sg86
(lp744
(VMORIGUCHI
VK
tp745
asg23
I2001
sg52
V771
p746
sbag1
(g2
g3
NtRp747
(dp748
g58
V10.1073/pnas.97.2.948
p749
sg54
VP NATL ACAD SCI USA
p750
sg56
V97
p751
sg86
(lp752
(VMYSORE
VK S
tp753
asg23
I2000
sg52
V948
p754
sbag1
(g2
g3
NtRp755
(dp756
g58
V10.1094/MPMI.1998.11.7.668
p757
sg54
VMOL PLANT MICROBE IN
p758
sg56
V11
p759
sg86
(lp760
(VMYSORE
VK S
tp761
asg23
I1998
sg52
V668
p762
sbag1
(g2
g3
NtRp763
(dp764
g58
V10.1105/tpc.9.3.317
p765
sg54
VPLANT CELL
p766
sg56
V9
sg86
(lp767
(VNAM
VJ
tp768
asg23
I1997
sg52
VLANT
p769
sbag1
(g2
g3
NtRp770
(dp771
g58
Nsg54
VMOL GEN GENET
p772
sg56
V261
p773
sg86
(lp774
(VNAM
VJ
tp775
asg23
I1999
sg52
V429
p776
sbag1
(g2
g3
NtRp777
(dp778
g58
V10.1104/pp.77.1.35
p779
sg54
VPLANT PHYSIOL
p780
sg56
V77
p781
sg86
(lp782
(VNEFF
VN T
tp783
asg23
I1985
sg52
VLANT
p784
sbag1
(g2
g3
NtRp785
(dp786
g58
V10.1104/pp.83.3.525
p787
sg54
VPLANT PHYSIOL
p788
sg56
V83
p789
sg86
(lp790
(VNEFF
VN T
tp791
asg23
I1987
sg52
VLANT
p792
sbag1
(g2
g3
NtRp793
(dp794
g58
V10.1016/0378-1119(81)90146-3
p795
sg54
VGENE
p796
sg56
V14
p797
sg86
(lp798
(VOOMS
VG
tp799
asg23
I1981
sg52
V33
p800
sbag1
(g2
g3
NtRp801
(dp802
g58
Nsg54
VJ BACTERIOL
p803
sg56
V144
p804
sg86
(lp805
(VOOMS
VG
tp806
asg23
I1980
sg52
V82
p807
sbag1
(g2
g3
NtRp808
(dp809
g58
V10.1007/BF00332739
p810
sg54
VMOL GEN GENET
p811
sg56
V195
p812
sg86
(lp813
(VOTTEN
VL
tp814
asg23
I1984
sg52
V159
p815
sbag1
(g2
g3
NtRp816
(dp817
g58
V10.1104/pp.77.1.87
p818
sg54
VPLANT PHYSIOL
p819
sg56
V77
p820
sg86
(lp821
(VOWENS
VL D
tp822
asg23
I1985
sg52
VLANT
p823
sbag1
(g2
g3
NtRp824
(dp825
g58
V10.1016/S0167-7799(01)01815-7
p826
sg54
VTRENDS BIOTECHNOL
p827
sg56
V19
p828
sg86
(lp829
(VPENA
VL
tp830
asg23
I2001
sg52
V500
p831
sbag1
(g2
g3
NtRp832
(dp833
g58
V10.1073/pnas.93.4.1613
p834
sg54
VP NATL ACAD SCI USA
p835
sg56
V93
p836
sg86
(lp837
(VPIERS
VK L
tp838
asg23
I1996
sg52
V1613
p839
sbag1
(g2
g3
NtRp840
(dp841
g58
V10.1073/pnas.80.6.1660
p842
sg54
VP NATL ACAD SCI
p843
sg56
V80
p844
sg86
(lp845
(VREAM
VL W
tp846
asg23
I1983
sg52
V1660
p847
sbag1
(g2
g3
NtRp848
(dp849
g58
V10.1038/363069a0
p850
sg54
VNATURE
p851
sg56
V363
p852
sg86
(lp853
(VREGENSBURGTUINK
VA J G
tp854
asg23
I1993
sg52
V69
p855
sbag1
(g2
g3
NtRp856
(dp857
g58
V10.1104/pp.95.1.52
p858
sg54
VPLANT PHYSIOL
p859
sg56
V95
p860
sg86
(lp861
(VROBBS
VS L
tp862
asg23
I1991
sg52
VLANT
p863
sbag1
(g2
g3
NtRp864
(dp865
g58
V10.1073/pnas.1132022100
p866
sg54
VP NATL ACAD SCI USA
p867
sg56
V100
p868
sg86
(lp869
(VROBERTS
VR L
tp870
asg23
I2003
sg52
V6634
p871
sbag1
(g2
g3
NtRp872
(dp873
g58
V10.1016/0147-619X(90)90028-B
p874
sg54
VPLASMID
p875
sg56
V23
p876
sg86
(lp877
(VROGOWSKY
VP M
tp878
asg23
I1990
sg52
VLASMID
p879
sbag1
(g2
g3
NtRp880
(dp881
g58
Nsg54
VJ BACTERIOL
p882
sg56
V172
p883
sg86
(lp884
(VRONG
VL J
tp885
asg23
I1990
sg52
V5828
p886
sbag1
(g2
g3
NtRp887
(dp888
g58
V10.1002/pmic.200300640
p889
sg54
VPROTEOMICS
p890
sg56
V4
sg86
(lp891
(VROSEN
VR
tp892
asg23
I2004
sg52
VROTEOMICS
p893
sbag1
(g2
g3
NtRp894
(dp895
g58
V10.1016/S0168-6496(03)00077-1
p896
sg54
VFEMS MICROBIOL ECOL
p897
sg56
V44
p898
sg86
(lp899
(VROSEN
VR
tp900
asg23
I2003
sg52
V355
p901
sbag1
(g2
g3
NtRp902
(dp903
g58
V10.1128/JB.184.6.1772-1778.2002
p904
sg54
VJ BACTERIOL
p905
sg56
V184
p906
sg86
(lp907
(VROSEN
VR
tp908
asg23
I2002
sg52
V1772
p909
sbag1
(g2
g3
NtRp910
(dp911
g58
V10.1016/S0168-6496(01)00101-5
p912
sg54
VFEMS MICROBIOL ECOL
p913
sg56
V35
p914
sg86
(lp915
(VROSEN
VR
tp916
asg23
I2001
sg52
V277
p917
sbag1
(g2
g3
NtRp918
(dp919
g58
V10.1093/nar/gkg179
p920
sg54
VNUCLEIC ACIDS RES
p921
sg56
V31
p922
sg86
(lp923
(VSCHRAMMEIJER
VB
tp924
asg23
I2003
sg52
V860
p925
sbag1
(g2
g3
NtRp926
(dp927
g58
V10.1016/S0960-9822(01)00069-0
p928
sg54
VCURR BIOL
p929
sg56
V11
p930
sg86
(lp931
(VSCHRAMMEIJER
VB
tp932
asg23
I2001
sg52
V258
p933
sbag1
(g2
g3
NtRp934
(dp935
g58
V10.1111/j.1432-1033.1984.tb07927.x
p936
sg54
VEUR J BIOCHEM
p937
sg56
V138
p938
sg86
(lp939
(VSCHRODER
VG
tp940
asg23
I1984
sg52
V387
p941
sbag1
(g2
g3
NtRp942
(dp943
g58
V10.1073/pnas.85.10.3417
p944
sg54
VP NATL ACAD SCI USA
p945
sg56
V85
p946
sg86
(lp947
(VSHEN
VW H
tp948
asg23
I1988
sg52
V3417
p949
sbag1
(g2
g3
NtRp950
(dp951
g58
V10.1111/j.1467-7652.2006.00209.x
p952
sg54
VPLANT BIOTECHNOL J
p953
sg56
V4
sg86
(lp954
(VSHRAWAT
VA K
tp955
asg23
I2006
sg52
VLANT
p956
sbag1
(g2
g3
NtRp957
(dp958
g58
V10.1128/JB.01779-08
p959
sg54
VJ BACTERIOL
p960
sg56
V191
p961
sg86
(lp962
(VSLATER
VS C
tp963
asg23
I2009
sg52
V2501
p964
sbag1
(g2
g3
NtRp965
(dp966
g58
Nsg54
VJ BIOL CHEM
p967
sg56
V261
p968
sg86
(lp969
(VSLIGHTOM
VJ L
tp970
asg23
I1986
sg52
V108
p971
sbag1
(g2
g3
NtRp972
(dp973
g58
V10.1104/pp.82.2.622
p974
sg54
VPLANT PHYSIOL
p975
sg56
V82
p976
sg86
(lp977
(VSMARRELLI
VJ
tp978
asg23
I1986
sg52
VLANT
p979
sbag1
(g2
g3
NtRp980
(dp981
g58
V10.1126/science.25.643.671
p982
sg54
VSCIENCE
p983
sg56
V25
p984
sg86
(lp985
(VSMITH
VE F
tp986
asg23
I1907
sg52
V671
p987
sbag1
(g2
g3
NtRp988
(dp989
g58
V10.1104/pp.102.017681
p990
sg54
VPLANT PHYSIOL
p991
sg56
V131
p992
sg86
(lp993
(VSOMERS
VD A
tp994
asg23
I2003
sg52
VLANT
p995
sbag1
(g2
g3
NtRp996
(dp997
g58
Nsg54
VMOL GEN GENET
p998
sg56
V219
p999
sg86
(lp1000
(VSPANIER
VK
tp1001
asg23
I1989
sg52
V209
p1002
sbag1
(g2
g3
NtRp1003
(dp1004
g58
V10.1038/318624a0
p1005
sg54
VNATURE
p1006
sg56
V318
p1007
sg86
(lp1008
(VSTACHEL
VS E
tp1009
asg23
I1985
sg52
V624
p1010
sbag1
(g2
g3
NtRp1011
(dp1012
g58
V10.1016/0092-8674(86)90653-7
p1013
sg54
VCELL
p1014
sg56
V46
p1015
sg86
(lp1016
(VSTACHEL
VS E
tp1017
asg23
I1986
sg52
V325
p1018
sbag1
(g2
g3
NtRp1019
(dp1020
g58
V10.1073/pnas.83.2.379
p1021
sg54
VP NATL ACAD SCI USA
p1022
sg56
V83
p1023
sg86
(lp1024
(VSTACHEL
VS E
tp1025
asg23
I1986
sg52
V379
p1026
sbag1
(g2
g3
NtRp1027
(dp1028
g58
Nsg54
VEMBO J
p1029
sg56
V5
sg86
(lp1030
(VSTACHEL
VS E
tp1031
asg23
I1986
sg52
V1445
p1032
sbag1
(g2
g3
NtRp1033
(dp1034
g58
Nsg54
VJ BACTERIOL
p1035
sg56
V180
p1036
sg86
(lp1037
(VSTAHL
VL E
tp1038
asg23
I1998
sg52
V3933
p1039
sbag1
(g2
g3
NtRp1040
(dp1041
g58
V10.1016/S0378-1119(99)00502-8
p1042
sg54
VGENE
p1043
sg56
V242
p1044
sg86
(lp1045
(VSUZUKI
VK
tp1046
asg23
I2000
sg52
V331
p1047
sbag1
(g2
g3
NtRp1048
(dp1049
g58
V10.1007/BF00040583
p1050
sg54
VPLANT MOL BIOL
p1051
sg56
V24
p1052
sg86
(lp1053
(VSWART
VS
tp1054
asg23
I1994
sg52
VLANT
p1055
sbag1
(g2
g3
NtRp1056
(dp1057
g58
Nsg54
VVITIS
p1058
sg56
VITIS
p1059
sg86
(lp1060
(VSZEGEDI
VE
tp1061
asg23
I1984
sg52
V121
p1062
sbag1
(g2
g3
NtRp1063
(dp1064
g58
V10.1073/pnas.0300084101
p1065
sg54
VP NATL ACAD SCI USA
p1066
sg56
V101
p1067
sg86
(lp1068
(VTAO
VY
tp1069
asg23
I2004
sg52
V5164
p1070
sbag1
(g2
g3
NtRp1071
(dp1072
g58
V10.1105/tpc.106.049551
p1073
sg54
VPLANT CELL
p1074
sg56
V19
p1075
sg86
(lp1076
(VTERAKURA
VS
tp1077
asg23
I2007
sg52
VLANT
p1078
sbag1
(g2
g3
NtRp1079
(dp1080
g58
V10.1093/nar/16.10.4621
p1081
sg54
VNUCLEIC ACIDS RES
p1082
sg56
V16
p1083
sg86
(lp1084
(VTHOMPSON
VD V
tp1085
asg23
I1988
sg52
V4621
p1086
sbag1
(g2
g3
NtRp1087
(dp1088
g58
Nsg54
VGENETICS
p1089
sg56
V165
p1090
sg86
(lp1091
(VTIAN
VL
tp1092
asg23
I2003
sg52
V399
p1093
sbag1
(g2
g3
NtRp1094
(dp1095
g58
Nsg54
VEMBO J
p1096
sg56
V14
p1097
sg86
(lp1098
(VTINLAND
VB
tp1099
asg23
I1995
sg52
V3585
p1100
sbag1
(g2
g3
NtRp1101
(dp1102
g58
V10.1007/BF00315790
p1103
sg54
VMOL GEN GENET
p1104
sg56
V223
p1105
sg86
(lp1106
(VTINLAND
VB
tp1107
asg23
I1990
sg52
V1
sbag1
(g2
g3
NtRp1108
(dp1109
g58
V10.1016/S0962-8924(01)02229-2
p1110
sg54
VTRENDS CELL BIOL
p1111
sg56
V12
p1112
sg86
(lp1113
(VTZFIRA
VT
tp1114
asg23
I2002
sg52
V121
p1115
sbag1
(g2
g3
NtRp1116
(dp1117
g58
V10.1104/pp.103.032821
p1118
sg54
VPLANT PHYSIOL
p1119
sg56
V133
p1120
sg86
(lp1121
(VTZFIRA
VT
tp1122
asg23
I2003
sg52
VLANT
p1123
sbag1
(g2
g3
NtRp1124
(dp1125
g58
V10.1093/emboj/20.13.3596
p1126
sg54
VEMBO J
p1127
sg56
V20
p1128
sg86
(lp1129
(VTZFIRA
VT
tp1130
asg23
I2001
sg52
V3596
p1131
sbag1
(g2
g3
NtRp1132
(dp1133
g58
V10.1038/nature02857
p1134
sg54
VNATURE
p1135
sg56
V431
p1136
sg86
(lp1137
(VTZFIRA
VT
tp1138
asg23
I2004
sg52
V87
p1139
sbag1
(g2
g3
NtRp1140
(dp1141
g58
V10.1073/pnas.162304099
p1142
sg54
VP NATL ACAD SCI USA
p1143
sg56
V99
p1144
sg86
(lp1145
(VTZFIRA
VT
tp1146
asg23
I2002
sg52
V10435
p1147
sbag1
(g2
g3
NtRp1148
(dp1149
g58
V10.1038/nbt.1491
p1150
sg54
VNAT BIOTECHNOL
p1151
sg56
V26
p1152
sg86
(lp1153
(VULKER
VB
tp1154
asg23
I2008
sg52
V1015
p1155
sbag1
(g2
g3
NtRp1156
(dp1157
g58
V10.1093/nar/gkg183
p1158
sg54
VNUCLEIC ACIDS RES
p1159
sg56
V31
p1160
sg86
(lp1161
(VVAN
VATTIKUM H
tp1162
asg23
I2003
sg52
V826
p1163
sbag1
(g2
g3
NtRp1164
(dp1165
g58
Nsg54
VPLANT MOL BIOL REP
p1166
sg56
V10
p1167
sg86
(lp1168
(VVAN
VWORDRAGEN M F
tp1169
asg23
I1992
sg52
VLANT
p1170
sbag1
(g2
g3
NtRp1171
(dp1172
g58
V10.1093/nar/gkg458
p1173
sg54
VNUCLEIC ACIDS RES
p1174
sg56
V31
p1175
sg86
(lp1176
(VVAN
VATTIKUM H
tp1177
asg23
I2003
sg52
V4247
p1178
sbag1
(g2
g3
NtRp1179
(dp1180
g58
Nsg54
VPLANT J
p1181
sg56
V35
p1182
sg86
(lp1183
(VVEENA
VJIANG H
tp1184
asg23
I2003
sg52
VLANT
p1185
sbag1
(g2
g3
NtRp1186
(dp1187
g58
Nsg54
VJ BACTERIOL
p1188
sg56
V170
p1189
sg86
(lp1190
(VVELUTHAMBI
VK
tp1191
asg23
I1988
sg52
V1523
p1192
sbag1
(g2
g3
NtRp1193
(dp1194
g58
Nsg54
VJ BACTERIOL
p1195
sg56
V171
p1196
sg86
(lp1197
(VVELUTHAMBI
VK
tp1198
asg23
I1989
sg52
V3696
p1199
sbag1
(g2
g3
NtRp1200
(dp1201
g58
V10.1104/pp.103.029223
p1202
sg54
VPLANT PHYSIOL
p1203
sg56
V133
p1204
sg86
(lp1205
(VVERGUNST
VA C
tp1206
asg23
I2003
sg52
VLANT
p1207
sbag1
(g2
g3
NtRp1208
(dp1209
g58
V10.1126/science.290.5493.979
p1210
sg54
VSCIENCE
p1211
sg56
V290
p1212
sg86
(lp1213
(VVERGUNST
VA C
tp1214
asg23
I2000
sg52
V979
p1215
sbag1
(g2
g3
NtRp1216
(dp1217
g58
V10.1073/pnas.0406241102
p1218
sg54
VP NATL ACAD SCI USA
p1219
sg56
V102
p1220
sg86
(lp1221
(VVERGUNST
VA C
tp1222
asg23
I2005
sg52
V832
p1223
sbag1
(g2
g3
NtRp1224
(dp1225
g58
Nsg54
VJ BACTERIOL
p1226
sg56
V174
p1227
sg86
(lp1228
(VWAGNER
VV T
tp1229
asg23
I1992
sg52
V5999
p1230
sbag1
(g2
g3
NtRp1231
(dp1232
g58
V10.1073/pnas.98.2.385
p1233
sg54
VP NATL ACAD SCI USA
p1234
sg56
V98
p1235
sg86
(lp1236
(VWARD
VD V
tp1237
asg23
I2001
sg52
V385
p1238
sbag1
(g2
g3
NtRp1239
(dp1240
g58
Nsg54
VJ BIOL CHEM
p1241
sg56
V263
p1242
sg86
(lp1243
(VWARD
VJ E
tp1244
asg23
I1988
sg52
V5804
p1245
sbag1
(g2
g3
NtRp1246
(dp1247
g58
V10.1104/pp.122.4.1003
p1248
sg54
VPLANT PHYSIOL
p1249
sg56
V122
p1250
sg86
(lp1251
(VWEIGEL
VD
tp1252
asg23
I2000
sg52
VLANT
p1253
sbag1
(g2
g3
NtRp1254
(dp1255
g58
V10.1046/j.1365-313X.2002.01370.x
p1256
sg54
VPLANT J
p1257
sg56
V31
p1258
sg86
(lp1259
(VWEST
VC E
tp1260
asg23
I2002
sg52
VLANT
p1261
sbag1
(g2
g3
NtRp1262
(dp1263
g58
Nsg54
VJ BACTERIOL
p1264
sg56
V164
p1265
sg86
(lp1266
(VWHITE
VF F
tp1267
asg23
I1985
sg52
V33
p1268
sbag1
(g2
g3
NtRp1269
(dp1270
g58
V10.1126/science.1066804
p1271
sg54
VSCIENCE
p1272
sg56
V294
p1273
sg86
(lp1274
(VWOOD
VD W
tp1275
asg23
I2001
sg52
V2317
p1276
sbag1
(g2
g3
NtRp1277
(dp1278
g58
V10.1128/JB.01775-07
p1279
sg54
VJ BACTERIOL
p1280
sg56
V190
p1281
sg86
(lp1282
(VWU
VH Y
tp1283
asg23
I2008
sg52
V2841
p1284
sbag1
(g2
g3
NtRp1285
(dp1286
g58
V10.1105/tpc.105.039719
p1287
sg54
VPLANT CELL
p1288
sg56
V18
p1289
sg86
(lp1290
(VYI
VH
tp1291
asg23
I2006
sg52
VLANT
p1292
sbag1
(g2
g3
NtRp1293
(dp1294
g58
V10.1046/j.1365-313X.2002.01425.x
p1295
sg54
VPLANT J
p1296
sg56
V32
p1297
sg86
(lp1298
(VYI
VH C
tp1299
asg23
I2002
sg52
VLANT
p1300
sbag1
(g2
g3
NtRp1301
(dp1302
g58
V10.1111/j.1462-5822.2008.01215.x
p1303
sg54
VCELL MICROBIOL
p1304
sg56
V10
p1305
sg86
(lp1306
(VYUAN
VZ C
tp1307
asg23
I2008
sg52
V2339
p1308
sbag1
(g2
g3
NtRp1309
(dp1310
g58
V10.1073/pnas.0704866104
p1311
sg54
VP NATL ACAD SCI USA
p1312
sg56
V104
p1313
sg86
(lp1314
(VYUAN
VZ C
tp1315
asg23
I2007
sg52
V11790
p1316
sbag1
(g2
g3
NtRp1317
(dp1318
g58
V10.1128/JB.01387-07
p1319
sg54
VJ BACTERIOL
p1320
sg56
V190
p1321
sg86
(lp1322
(VYUAN
VZ C
tp1323
asg23
I2008
sg52
V494
p1324
sbag1
(g2
g3
NtRp1325
(dp1326
g58
V10.1104/pp.103.020420
p1327
sg54
VPLANT PHYSIOL
p1328
sg56
V132
p1329
sg86
(lp1330
(VZHU
VY M
tp1331
asg23
I2003
sg52
VLANT
p1332
sbag1
(g2
g3
NtRp1333
(dp1334
g58
V10.1104/pp.103.030726
p1335
sg54
VPLANT PHYSIOL
p1336
sg56
V133
p1337
sg86
(lp1338
(VZHU
VY M
tp1339
asg23
I2003
sg52
VLANT
p1340
sbasb.