ccopy_reg
_reconstructor
p1
(ctethne.classes.paper
Paper
p2
c__builtin__
object
p3
NtRp4
(dp5
S'publisherCity'
p6
VROCKVILLE
p7
sS'reprintAddress'
p8
VLegue, V (reprint author), Nancy Univ, Inst Federatif Rech Genom Ecophysiol & Ecol Fonct, UMR Interact Arbres Microorganismes 1136, INRA,INRA Nancy, F-54280 Champenoux, France.
p9
sS'WC'
p10
VPlant Sciences
p11
sS'GA'
p12
V528KK
p13
sS'FX'
p14
(lp15
VThis work was supported by the European Commission within the Seventh
p16
aVFramework Program for Research, Project Energypoplar (grant no.
p17
aVFP7-211917), the French Space Agency, and the EVOLTREE network of
p18
aVexcellence, by mobility grants from the German-French University and
p19
aVEgide/Procope, the German-French Research Cooperation, which enabled the
p20
aVcooperation between the two research groups, and by the French Ministry
p21
aVfor Higher Education and Research (PhD scholarship to J.F.).
p22
asS'abstract'
p23
VThe early phase of the interaction between tree roots and ectomycorrhizal fungi, prior to symbiosis establishment, is accompanied by a stimulation of lateral root (LR) development. We aimed to identify gene networks that regulate LR development during the early signal exchanges between poplar (Populus tremula x Populus alba) and the ectomycorrhizal fungus Laccaria bicolor with a focus on auxin transport and signaling pathways. Our data demonstrated that increased LR development in poplar and Arabidopsis (Arabidopsis thaliana) interacting with L. bicolor is not dependent on the ability of the plant to form ectomycorrhizae. LR stimulation paralleled an increase in auxin accumulation at root apices. Blocking plant polar auxin transport with 1-naphthylphthalamic acid inhibited LR development and auxin accumulation. An oligoarray-based transcript profile of poplar roots exposed to molecules released by L. bicolor revealed the differential expression of 2,945 genes, including several components of polar auxin transport (PtaPIN and PtaAUX genes), auxin conjugation (PtaGH3 genes), and auxin signaling (PtaIAA genes). Transcripts of PtaPIN9, the homolog of Arabidopsis AtPIN2, and several PtaIAAs accumulated specifically during the early interaction phase. Expression of these rapidly induced genes was repressed by 1-naphthylphthalamic acid. Accordingly, LR stimulation upon contact with L. bicolor in Arabidopsis transgenic plants defective in homologs of these genes was decreased or absent. Furthermore, in Arabidopsis pin2, the root apical auxin increase during contact with the fungus was modified. We propose a model in which fungus-induced auxin accumulation at the root apex stimulates LR formation through a mechanism involving PtaPIN9-dependent auxin redistribution together with PtaIAA-based auxin signaling.
p24
sS'pageEnd'
p25
I2005
sS'date'
p26
I2009
sS'documentType'
p27
VArticle
p28
sS'subject'
p29
VPlant Sciences
p30
sS'isoSource'
p31
VPlant Physiol.
p32
sS'timesCited'
p33
(lp34
I26
aVZ9 27
p35
asS'funding'
p36
(lp37
(VEuropean Commission
VFP7-211917
tp38
a(VFrench Space Agency
Ntp39
a(VEVOLTREE network of excellence
Ntp40
a(VGerman-French University
Ntp41
a(VEgide/Procope
Ntp42
a(VFrench Ministry for Higher Education and Research
Ntp43
asS'PT'
p44
VJ
sS'title'
p45
VThe Ectomycorrhizal Fungus Laccaria Bicolor Stimulates Lateral Root Formation In Poplar And Arabidopsis Through Auxin Transport And Signaling
p46
sS'ISSN'
p47
(lp48
V0032-0889
p49
aVJ9 PLANT PHYSIOL
p50
asS'authors_full'
p51
(lp52
(VFELTEN
VJUDITH
tp53
a(VKOHLER
VANNEGRET
tp54
a(VMORIN
VEMMANUELLE
tp55
a(VBHALERAO
VRISHIKESH P
tp56
a(VPALME
VKLAUS
tp57
a(VMARTIN
VFRANCIS
tp58
a(VDITENGOU
VFRANCK A
tp59
a(VLEGUE
VVALERIE
tp60
asS'PG'
p61
I15
sS'PD'
p62
VDEC
p63
sS'pageStart'
p64
I1991
sS'issue'
p65
I4
sS'RI'
p66
VPalme, Klaus/A-9524-2013
p67
sS'journal'
p68
VPLANT PHYSIOLOGY
p69
sS'volume'
p70
V151
p71
sS'doi'
p72
V10.1104/pp.109.147231
p73
sS'emailAddress'
p74
Vvalerie.legue@scbiol.uhp-nancy.fr
p75
sS'authorAddress'
p76
(lp77
V[Felten, Judith; Kohler, Annegret; Morin, Emmanuelle; Martin, Francis; Legue, Valerie] Nancy Univ, Inst Federatif Rech Genom Ecophysiol & Ecol Fonct, UMR Interact Arbres Microorganismes 1136, INRA,INRA Nancy, F-54280 Champenoux, France.
p78
aV[Bhalerao, Rishikesh P.] Umea Univ, Dept Plant Physiol, Umea Plant Sci Ctr, SE-90187 Umea, Sweden.
p79
aV[Palme, Klaus; Ditengou, Franck A.] Univ Freiburg, Fac Biol, Inst Biol 2, D-79104 Freiburg, Germany.
p80
aV[Palme, Klaus; Ditengou, Franck A.] Univ Freiburg, Fac Biol, Inst Biol 3, D-79104 Freiburg, Germany.
p81
asS'publisherAddress'
p82
V15501 MONONA DRIVE, ROCKVILLE, MD 20855 USA
p83
sS'ER'
p84
V
sS'publisher'
p85
VAMER SOC PLANT BIOLOGISTS
p86
sS'authorKeywords'
p87
(lp88
VOF-FUNCTION MUTATION
p89
aVSTEM-CELL NICHE
p90
aVPISOLITHUS-TINCTORIUS
p91
aVPOPULUS-TRICHOCARPA
p92
aVPLANT DEVELOPMENT
p93
aVHYBRID ASPEN
p94
aVRT-PCR
p95
aVTHALIANA
p96
aVGENE
p97
aVEXPRESSION
p98
asS'language'
p99
VEnglish
p100
sS'wosid'
p101
VWOS:000272443500026
p102
sS'citationCount'
p103
I73
sS'authors_init'
p104
(lp105
(VFELTEN
VJ
tp106
a(VKOHLER
VA
tp107
a(VMORIN
VE
tp108
a(VBHALERAO
VR P
tp109
a(VPALME
VK
tp110
a(VMARTIN
VF
tp111
a(VDITENGOU
VF A
tp112
a(VLEGUE
VV
tp113
asS'citedReferences'
p114
(lp115
g1
(g2
g3
NtRp116
(dp117
g72
V10.1038/ncb1369
p118
sg68
VNAT CELL BIOL
p119
sg70
V8
sg104
(lp120
(VABAS
VL
tp121
asg26
I2006
sg64
V249
p122
sbag1
(g2
g3
NtRp123
(dp124
g72
V10.1016/j.cell.2004.09.018
p125
sg68
VCELL
p126
sg70
V119
p127
sg104
(lp128
(VAIDA
VM
tp129
asg26
I2004
sg64
V109
p130
sbag1
(g2
g3
NtRp131
(dp132
g72
V10.1016/j.tplants.2006.03.001
p133
sg68
VTRENDS PLANT SCI
p134
sg70
V11
p135
sg104
(lp136
(VBADESCU
VG O
tp137
asg26
I2006
sg64
V217
p138
sbag1
(g2
g3
NtRp139
(dp140
g72
V10.1101/gad.462608
p141
sg68
VGENE DEV
p142
sg70
V22
p143
sg104
(lp144
(VBAINBRIDGE
VK
tp145
asg26
I2008
sg64
V810
p146
sbag1
(g2
g3
NtRp147
(dp148
g72
V10.1016/S0092-8674(03)00924-3
p149
sg68
VCELL
p150
sg70
V115
p151
sg104
(lp152
(VBENKOVA
VE
tp153
asg26
I2003
sg64
V591
p154
sbag1
(g2
g3
NtRp155
(dp156
g72
V10.1126/science.273.5277.948
p157
sg68
VSCIENCE
p158
sg70
V273
p159
sg104
(lp160
(VBENNETT
VM J
tp161
asg26
I1996
sg64
V948
p162
sbag1
(g2
g3
NtRp163
(dp164
g72
V10.1111/j.1756-1051.1986.tb00487.x
p165
sg68
VNORD J BOT
p166
sg70
V6
sg104
(lp167
(VBLASIUS
VD
tp168
asg26
I1986
sg64
V837
p169
sbag1
(g2
g3
NtRp170
(dp171
g72
V10.1038/nature03184
p172
sg68
VNATURE
p173
sg70
V433
p174
sg104
(lp175
(VBLILOU
VI
tp176
asg26
I2005
sg64
V39
p177
sbag1
(g2
g3
NtRp178
(dp179
g72
V10.1126/science.1146265
p180
sg68
VSCIENCE
p181
sg70
V318
p182
sg104
(lp183
(VBRADY
VS M
tp184
asg26
I2007
sg64
V801
p185
sbag1
(g2
g3
NtRp186
(dp187
g72
V10.1007/s005720050125
p188
sg68
VMYCORRHIZA
p189
sg70
V6
sg104
(lp190
(VBURGESS
VT
tp191
asg26
I1996
sg64
V189
p192
sbag1
(g2
g3
NtRp193
(dp194
g72
V10.1016/S1360-1385(03)00051-7
p195
sg68
VTRENDS PLANT SCI
p196
sg70
V8
sg104
(lp197
(VCASIMIRO
VI
tp198
asg26
I2003
sg64
V165
p199
sbag1
(g2
g3
NtRp200
(dp201
g72
Nsg68
VTREE PHYSIOL
p202
sg70
V22
p203
sg104
(lp204
(VCHARVET-CANDELA
VV
tp205
asg26
I2002
sg64
V231
p206
sbag1
(g2
g3
NtRp207
(dp208
g72
V10.1111/j.1469-8137.1986.tb00625.x
p209
sg68
VNEW PHYTOL
p210
sg70
V103
p211
sg104
(lp212
(VCHILVERS
VG A
tp213
asg26
I1986
sg64
V397
p214
sbag1
(g2
g3
NtRp215
(dp216
g72
V10.1007/s11103-005-4547-2
p217
sg68
VPLANT MOL BIOL
p218
sg70
V60
p219
sg104
(lp220
(VDE
VSMET I
tp221
asg26
I2006
sg64
VLANT
p222
sbag1
(g2
g3
NtRp223
(dp224
g72
V10.1242/dev.02753
p225
sg68
VDEVELOPMENT
p226
sg70
V134
p227
sg104
(lp228
(VDE
VSMET I
tp229
asg26
I2007
sg64
V681
p230
sbag1
(g2
g3
NtRp231
(dp232
g72
V10.1111/j.1469-8137.2007.02148.x
p233
sg68
VNEW PHYTOL
p234
sg70
V175
p235
sg104
(lp236
(VDEVEAU
VA
tp237
asg26
I2007
sg64
V743
p238
sbag1
(g2
g3
NtRp239
(dp240
g72
V10.1007/BF01972072
p241
sg68
VEXPERIENTIA
p242
sg70
V47
p243
sg104
(lp244
(VDEXHEIMER
VJ
tp245
asg26
I1991
sg64
V312
p246
sbag1
(g2
g3
NtRp247
(dp248
g72
V10.1016/j.devcel.2005.05.014
p249
sg68
VDEV CELL
p250
sg70
V9
sg104
(lp251
(VDHARMASIRI
VN
tp252
asg26
I2005
sg64
V109
p253
sbag1
(g2
g3
NtRp254
(dp255
g72
V10.1094/MPMI.2000.13.2.151
p256
sg68
VMOL PLANT MICROBE IN
p257
sg70
V13
p258
sg104
(lp259
(VDITENGOU
VF A
tp260
asg26
I2000
sg64
V151
p261
sbag1
(g2
g3
NtRp262
(dp263
g72
V10.1073/pnas.0807814105
p264
sg68
VP NATL ACAD SCI USA
p265
sg70
V105
p266
sg104
(lp267
(VDITENGOU
VF A
tp268
asg26
I2008
sg64
V18818
p269
sbag1
(g2
g3
NtRp270
(dp271
g72
V10.1007/s004250000342
p272
sg68
VPLANTA
p273
sg70
V211
p274
sg104
(lp275
(VDITENGOU
VF A
tp276
asg26
I2000
sg64
VLANTA
p277
sbag1
(g2
g3
NtRp278
(dp279
g72
V10.1105/tpc.105.039172
p280
sg68
VPLANT CELL
p281
sg70
V18
p282
sg104
(lp283
(VDREHER
VK A
tp284
asg26
I2006
sg64
VLANT
p285
sbag1
(g2
g3
NtRp286
(dp287
g72
V10.1073/pnas.0712307105
p288
sg68
VP NATL ACAD SCI USA
p289
sg70
V105
p290
sg104
(lp291
(VDUBROVSKY
VJ G
tp292
asg26
I2008
sg64
V8790
p293
sbag1
(g2
g3
NtRp294
(dp295
g72
V10.1111/j.1469-8137.2004.01248.x
p296
sg68
VNEW PHYTOL
p297
sg70
V165
p298
sg104
(lp299
(VDUPLESSIS
VS
tp300
asg26
I2005
sg64
V599
p301
sbag1
(g2
g3
NtRp302
(dp303
g72
V10.1007/s11103-008-9417-2
p304
sg68
VPLANT MOL BIOL
p305
sg70
V69
p306
sg104
(lp307
(VFUKAKI
VH
tp308
asg26
I2009
sg64
VLANT
p309
sbag1
(g2
g3
NtRp310
(dp311
g72
V10.1046/j.0960-7412.2001.01201.x
p312
sg68
VPLANT J
p313
sg70
V29
p314
sg104
(lp315
(VFUKAKI
VH
tp316
asg26
I2002
sg64
VLANT
p317
sbag1
(g2
g3
NtRp318
(dp319
g72
V10.1111/j.1365-313X.2005.02537.x
p320
sg68
VPLANT J
p321
sg70
V44
p322
sg104
(lp323
(VFUKAKI
VH
tp324
asg26
I2005
sg64
VLANT
p325
sbag1
(g2
g3
NtRp326
(dp327
g72
V10.1038/nature06206
p328
sg68
VNATURE
p329
sg70
V449
p330
sg104
(lp331
(VGALINHA
VC
tp332
asg26
I2007
sg64
V1053
p333
sbag1
(g2
g3
NtRp334
(dp335
g72
V10.1101/gad.13.13.1678
p336
sg68
VGENE DEV
p337
sg70
V13
p338
sg104
(lp339
(VGRAY
VW M
tp340
asg26
I1999
sg64
V1678
p341
sbag1
(g2
g3
NtRp342
(dp343
g72
V10.1111/j.1467-7652.2008.00346.x
p344
sg68
VPLANT BIOTECHNOL J
p345
sg70
V6
sg104
(lp346
(VGUTIERREZ
VL
tp347
asg26
I2008
sg64
VLANT
p348
sbag1
(g2
g3
NtRp349
(dp350
g72
Nsg68
VMOL CELL BIOL
p351
sg70
V5
sg104
(lp352
(VHAGEN
VG
tp353
asg26
I1985
sg64
V1197
p354
sbag1
(g2
g3
NtRp355
(dp356
g72
V10.1111/j.1469-8137.1988.tb03720.x
p357
sg68
VNEW PHYTOL
p358
sg70
V109
p359
sg104
(lp360
(VHORAN
VD P
tp361
asg26
I1988
sg64
V451
p362
sbag1
(g2
g3
NtRp363
(dp364
g72
V10.1111/j.1399-3054.00474.x
p365
sg68
VPHYSIOL PLANTARUM
p366
sg70
V123
p367
sg104
(lp368
(VJAMBOIS
VA
tp369
asg26
I2005
sg64
VHYSIOL
p370
sbag1
(g2
g3
NtRp371
(dp372
g72
V10.1186/1471-2229-7-59
p373
sg68
VBMC PLANT BIOL
p374
sg70
V7
sg104
(lp375
(VKALLURI
VU C
tp376
asg26
I2007
sg64
Nsbag1
(g2
g3
NtRp377
(dp378
g72
Nsg68
VTREE PHYSIOL
p379
sg70
V18
p380
sg104
(lp381
(VKARABAGHLI
VC
tp382
asg26
I1998
sg64
V103
p383
sbag1
(g2
g3
NtRp384
(dp385
g72
V10.1007/s00425-006-0462-2
p386
sg68
VPLANTA
p387
sg70
V226
p388
sg104
(lp389
(VKHAN
VS
tp390
asg26
I2007
sg64
VLANTA
p391
sbag1
(g2
g3
NtRp392
(dp393
g72
V10.1111/j.1469-8137.2004.01168.x
p394
sg68
VNEW PHYTOL
p395
sg70
V164
p396
sg104
(lp397
(VKOHLER
VA
tp398
asg26
I2004
sg64
V83
p399
sbag1
(g2
g3
NtRp400
(dp401
g72
V10.1371/journal.pbio.0060307
p402
sg68
VPLOS BIOL
p403
sg70
V6
sg104
(lp404
(VLASKOWSKI
VM
tp405
asg26
I2008
sg64
VLOS
p406
sbag1
(g2
g3
NtRp407
(dp408
g72
V10.1023/A:1015298812300
p409
sg68
VPLANT MOL BIOL
p410
sg70
V49
p411
sg104
(lp412
(VLJUNG
VK
tp413
asg26
I2002
sg64
VLANT
p414
sbag1
(g2
g3
NtRp415
(dp416
g72
Nsg68
VDEVELOPMENT
p417
sg70
V124
p418
sg104
(lp419
(VMALAMY
VJ E
tp420
asg26
I1997
sg64
V33
p421
sbag1
(g2
g3
NtRp422
(dp423
g72
V10.1046/j.1469-8137.2001.00169.x
p424
sg68
VNEW PHYTOL
p425
sg70
V151
p426
sg104
(lp427
(VMARTIN
VF
tp428
asg26
I2001
sg64
V145
p429
sbag1
(g2
g3
NtRp430
(dp431
g72
V10.1016/j.pbi.2009.05.007
p432
sg68
VCURR OPIN PLANT BIOL
p433
sg70
V12
p434
sg104
(lp435
(VMARTIN
VF
tp436
asg26
I2009
sg64
V508
p437
sbag1
(g2
g3
NtRp438
(dp439
g72
V10.1038/nature06556
p440
sg68
VNATURE
p441
sg70
V452
p442
sg104
(lp443
(VMARTIN
VF
tp444
asg26
I2008
sg64
V88
p445
sbag1
(g2
g3
NtRp446
(dp447
g72
V10.1111/j.1365-3059.2006.01385.x
p448
sg68
VPLANT PATHOL
p449
sg70
V55
p450
sg104
(lp451
(VMOLDENHAUER
VJ
tp452
asg26
I2006
sg64
VLANT
p453
sbag1
(g2
g3
NtRp454
(dp455
g72
V10.1046/j.1365-313X.2002.01386.x
p456
sg68
VPLANT J
p457
sg70
V31
p458
sg104
(lp459
(VMOYLE
VR
tp460
asg26
I2002
sg64
VLANT
p461
sbag1
(g2
g3
NtRp462
(dp463
g72
V10.1038/nature08066
p464
sg68
VNATURE
p465
sg70
V459
p466
sg104
(lp467
(VMRAVEC
VJ
tp468
asg26
I2009
sg64
V1136
p469
sbag1
(g2
g3
NtRp470
(dp471
g72
V10.1093/emboj/17.23.6903
p472
sg68
VEMBO J
p473
sg70
V17
p474
sg104
(lp475
(VMULLER
VA
tp476
asg26
I1998
sg64
V6903
p477
sbag1
(g2
g3
NtRp478
(dp479
g72
VDOI 10.1111/J.1399-3054.1962.TB08052.X
p480
sg68
VPHYSIOL PLANTARUM
p481
sg70
Nsg104
(lp482
(VMURASHIGE
VM
tp483
asg26
I1962
sg64
VHYSIOL
p484
sbag1
(g2
g3
NtRp485
(dp486
g72
V10.1104/pp.107.096628
p487
sg68
VPLANT PHYSIOL
p488
sg70
V144
p489
sg104
(lp490
(VMUTO
VH
tp491
asg26
I2007
sg64
VLANT
p492
sbag1
(g2
g3
NtRp493
(dp494
g72
V10.1046/j.1365-313x.2001.00957.x
p495
sg68
VPLANT J
p496
sg70
V25
p497
sg104
(lp498
(VNAKAZAWA
VM
tp499
asg26
I2001
sg64
VLANT
p500
sbag1
(g2
g3
NtRp501
(dp502
g72
V10.1111/j.1469-8137.2008.02472.x
p503
sg68
VNEW PHYTOL
p504
sg70
V179
p505
sg104
(lp506
(VNIBAU
VC
tp507
asg26
I2008
sg64
V595
p508
sbag1
(g2
g3
NtRp509
(dp510
g72
V10.1105/tpc.109.066480
p511
sg68
VPLANT CELL
p512
sg70
V21
p513
sg104
(lp514
(VPETERSSON
VS V
tp515
asg26
I2009
sg64
VLANT
p516
sbag1
(g2
g3
NtRp517
(dp518
g72
V10.1093/nar/29.9.e45
p519
sg68
VNUCLEIC ACIDS RES
p520
sg70
V29
p521
sg104
(lp522
(VPFAFFL
VM W
tp523
asg26
I2001
sg64
Nsbag1
(g2
g3
NtRp524
(dp525
g72
V10.1111/j.1469-8137.2006.01677.x
p526
sg68
VNEW PHYTOL
p527
sg70
V170
p528
sg104
(lp529
(VREDDY
VS M
tp530
asg26
I2006
sg64
V391
p531
sbag1
(g2
g3
NtRp532
(dp533
g72
V10.1105/tpc.13.3.465
p534
sg68
VPLANT CELL
p535
sg70
V13
p536
sg104
(lp537
(VROGG
VL E
tp538
asg26
I2001
sg64
VLANT
p539
sbag1
(g2
g3
NtRp540
(dp541
g72
Nsg68
VGENETICS
p542
sg70
V139
p543
sg104
(lp544
(VROMAN
VG
tp545
asg26
I1995
sg64
V1393
p546
sbag1
(g2
g3
NtRp547
(dp548
g72
V10.1016/S0092-8674(00)81535-4
p549
sg68
VCELL
p550
sg70
V99
p551
sg104
(lp552
(VSABATINI
VS
tp553
asg26
I1999
sg64
V463
p554
sbag1
(g2
g3
NtRp555
(dp556
g72
V10.1101/gad.252503
p557
sg68
VGENE DEV
p558
sg70
V17
p559
sg104
(lp560
(VSABATINI
VS
tp561
asg26
I2003
sg64
V354
p562
sbag1
(g2
g3
NtRp563
(dp564
g72
V10.1242/dev.01182
p565
sg68
VDEVELOPMENT
p566
sg70
V131
p567
sg104
(lp568
(VSCARPELLA
VE
tp569
asg26
I2004
sg64
V3445
p570
sbag1
(g2
g3
NtRp571
(dp572
g72
V10.1073/pnas.1633693100
p573
sg68
VP NATL ACAD SCI USA
p574
sg70
V100
p575
sg104
(lp576
(VSCHRADER
VJ
tp577
asg26
I2003
sg64
V10096
p578
sbag1
(g2
g3
NtRp579
(dp580
g72
V10.1016/S0960-9822(00)00861-7
p581
sg68
VCURR BIOL
p582
sg70
V10
p583
sg104
(lp584
(VSIEBERER
VT
tp585
asg26
I2000
sg64
V1595
p586
sbag1
(g2
g3
NtRp587
(dp588
g72
V10.1104/pp.109.141325
p589
sg68
VPLANT PHYSIOL
p590
sg70
V150
p591
sg104
(lp592
(VSPLIVALLO
VR
tp593
asg26
I2009
sg64
VLANT
p594
sbag1
(g2
g3
NtRp595
(dp596
g72
V10.1105/tpc.104.026690
p597
sg68
VPLANT CELL
p598
sg70
V17
p599
sg104
(lp600
(VSTASWICK
VP E
tp601
asg26
I2005
sg64
VLANT
p602
sbag1
(g2
g3
NtRp603
(dp604
g72
V10.1105/tpc.107.052068
p605
sg68
VPLANT CELL
p606
sg70
V19
p607
sg104
(lp608
(VSTEPANOVA
VA N
tp609
asg26
I2007
sg64
VLANT
p610
sbag1
(g2
g3
NtRp611
(dp612
g72
V10.1016/j.cell.2008.01.047
p613
sg68
VCELL
p614
sg70
V133
p615
sg104
(lp616
(VSTEPANOVA
VA N
tp617
asg26
I2008
sg64
V177
p618
sbag1
(g2
g3
NtRp619
(dp620
g72
V10.1105/tpc.108630
p621
sg68
VPLANT CELL
p622
sg70
V16
p623
sg104
(lp624
(VTATEMATSU
VK
tp625
asg26
I2004
sg64
VLANT
p626
sbag1
(g2
g3
NtRp627
(dp628
g72
Nsg68
VTREE PHYSIOL
p629
sg70
V28
p630
sg104
(lp631
(VTEICHMANN
VT
tp632
asg26
I2008
sg64
V1305
p633
sbag1
(g2
g3
NtRp634
(dp635
g72
Nsg68
VDEVELOPMENT
p636
sg70
V126
p637
sg104
(lp638
(VTIAN
VQ
tp639
asg26
I1999
sg64
V711
p640
sbag1
(g2
g3
NtRp641
(dp642
g72
V10.1126/science.1128691
p643
sg68
VSCIENCE
p644
sg70
V313
p645
sg104
(lp646
(VTUSKAN
VG A
tp647
asg26
I2006
sg64
V1596
p648
sbag1
(g2
g3
NtRp649
(dp650
g72
Nsg68
VPLANT CELL
p651
sg70
V7
sg104
(lp652
(VULMASOV
VT
tp653
asg26
I1995
sg64
VLANT
p654
sbag1
(g2
g3
NtRp655
(dp656
g72
V10.1105/tpc.105.035493
p657
sg68
VPLANT CELL
p658
sg70
V17
p659
sg104
(lp660
(VVANNESTE
VS
tp661
asg26
I2005
sg64
VLANT
p662
sbag1
(g2
g3
NtRp663
(dp664
g72
V10.1242/dev.02027
p665
sg68
VDEVELOPMENT
p666
sg70
V132
p667
sg104
(lp668
(VVIETEN
VA
tp669
asg26
I2005
sg64
V4521
p670
sbag1
(g2
g3
NtRp671
(dp672
g72
V10.1128/MCB.22.4.1049-1059.2002
p673
sg68
VMOL CELL BIOL
p674
sg70
V22
p675
sg104
(lp676
(VXU
VB
tp677
asg26
I2002
sg64
V1049
p678
sbasb.