ccopy_reg
_reconstructor
p1
(ctethne.classes.paper
Paper
p2
c__builtin__
object
p3
NtRp4
(dp5
S'publisherCity'
p6
VROCKVILLE
p7
sS'reprintAddress'
p8
VChourey, PS (reprint author), ARS, USDA, Ctr Med Agr & Vet Entomol, Chem Unit, Gainesville, FL 32608 USA.
p9
sS'WC'
p10
VPlant Sciences
p11
sS'GA'
p12
V590PS
p13
sS'abstract'
p14
VThe maize (Zea mays) Miniature1 (Mn1) locus encodes the cell wall invertase INCW2, which is localized predominantly in the basal endosperm transfer layer of developing kernels and catalyzes the conversion of sucrose into glucose and fructose. Mutations in Mn1 result in pleiotropic changes, including a reduction in kernel mass and a recently reported decrease in indole-3-acetic acid (IAA) levels throughout kernel development. Here, we show that mn1-1 basal kernel regions (pedicels and basal endosperm transfer layer) accumulate higher levels of sucrose and lower levels of glucose and fructose between 8 and 28 d after pollination when compared with the wild type, whereas upper regions of mn1 accumulate similar or increased concentrations of sugars. To determine the cause of the reduction in IAA accumulation, we investigated transcript levels of several potential IAA biosynthetic enzymes. We demonstrate that reduced IAA levels most closely correspond to reduced transcript levels of ZmYUCCA (ZmYUC), a newly identified homolog of the Arabidopsis (Arabidopsis thaliana) gene YUCCA. We further demonstrate that ZmYUC catalyzes the N-hydroxylation of tryptamine and that sugar levels regulate transcript levels of ZmYUC, both in in vitro-cultured kernels and in a promoter-reporter fusion in Arabidopsis. These results indicate that developing seeds may modulate growth by altering auxin biosynthesis in response to sugar concentrations.
p15
sS'pageEnd'
p16
I318
sS'publisherAddress'
p17
V15501 MONONA DRIVE, ROCKVILLE, MD 20855 USA
p18
sS'documentType'
p19
VArticle
p20
sS'subject'
p21
VPlant Sciences
p22
sS'isoSource'
p23
VPlant Physiol.
p24
sS'timesCited'
p25
(lp26
I34
aVZ9 39
p27
asS'PT'
p28
VJ
sS'title'
p29
VSugar Levels Regulate Tryptophan-Dependent Auxin Biosynthesis In Developing Maize Kernels
p30
sS'ISSN'
p31
(lp32
V0032-0889
p33
aVJ9 PLANT PHYSIOL
p34
asS'authors_full'
p35
(lp36
(VLECLERE
VSHERRY
tp37
a(VSCHMELZ
VERIC A
tp38
a(VCHOUREY
VPREM S
tp39
asS'PG'
p40
I13
sS'PD'
p41
VMAY
p42
sS'pageStart'
p43
I306
sS'issue'
p44
I1
sS'journal'
p45
VPLANT PHYSIOLOGY
p46
sS'volume'
p47
V153
p48
sS'doi'
p49
V10.1104/pp.110.155226
p50
sS'emailAddress'
p51
Vprem.chourey@ars.usda.gov
p52
sS'authorAddress'
p53
(lp54
V[LeClere, Sherry; Schmelz, Eric A.; Chourey, Prem S.] ARS, USDA, Ctr Med Agr & Vet Entomol, Chem Unit, Gainesville, FL 32608 USA.
p55
aV[Chourey, Prem S.] Univ Florida, Dept Plant Pathol, Gainesville, FL 32611 USA.
p56
asS'date'
p57
I2010
sS'ER'
p58
V
sS'publisher'
p59
VAMER SOC PLANT BIOLOGISTS
p60
sS'authorKeywords'
p61
(lp62
VCELL-WALL INVERTASE
p63
aVMINIATURE1 SEED LOCUS
p64
aVZEA-MAYS L
p65
aVARABIDOPSIS-THALIANA
p66
aVINDOLE-3-ACETIC-ACID BIOSYNTHESIS
p67
aVEXTRACELLULAR INVERTASE
p68
aVGENE
p69
aVENDOSPERM
p70
aVPATHWAY
p71
aVGLUCOSE
p72
asS'language'
p73
VEnglish
p74
sS'wosid'
p75
VWOS:000277239900024
p76
sS'citationCount'
p77
I54
sS'authors_init'
p78
(lp79
(VLECLERE
VS
tp80
a(VSCHMELZ
VE A
tp81
a(VCHOUREY
VP S
tp82
asS'citedReferences'
p83
(lp84
g1
(g2
g3
NtRp85
(dp86
g49
V10.1104/pp.95.4.1203
p87
sg45
VPLANT PHYSIOL
p88
sg47
V95
p89
sg78
(lp90
(VBALDI
VB G
tp91
asg57
I1991
sg43
VLANT
p92
sbag1
(g2
g3
NtRp93
(dp94
g49
V10.1007/s003440010025
p95
sg45
VJ PLANT GROWTH REGUL
p96
sg47
V20
p97
sg78
(lp98
(VBARTEL
VB
tp99
asg57
I2001
sg43
V198
p100
sbag1
(g2
g3
NtRp101
(dp102
g49
V10.1104/pp.100.1.509
p103
sg45
VPLANT PHYSIOL
p104
sg47
V100
p105
sg78
(lp106
(VBIALEK
VK
tp107
asg57
I1992
sg43
VLANT
p108
sbag1
(g2
g3
NtRp109
(dp110
g49
V10.1007/s004380051180
p111
sg45
VMOL GEN GENET
p112
sg47
V263
p113
sg78
(lp114
(VCARLSON
VS J
tp115
asg57
I2000
sg43
V367
p116
sbag1
(g2
g3
NtRp117
(dp118
g49
V10.1105/tpc.8.6.971
p119
sg45
VPLANT CELL
p120
sg47
V8
sg78
(lp121
(VCHENG
VW H
tp122
asg57
I1996
sg43
VLANT
p123
sbag1
(g2
g3
NtRp124
(dp125
g49
V10.1007/s001220051096
p126
sg45
VTHEOR APPL GENET
p127
sg47
V98
p128
sg78
(lp129
(VCHENG
VW H
tp130
asg57
I1999
sg43
V485
p131
sbag1
(g2
g3
NtRp132
(dp133
g49
V10.1046/j.1365-313x.1998.00343.x
p134
sg45
VPLANT J
p135
sg47
V16
p136
sg78
(lp137
(VCLOUGH
VS J
tp138
asg57
I1998
sg43
VLANT
p139
sbag1
(g2
g3
NtRp140
(dp141
g49
V10.1016/S0021-9673(00)89300-0
p142
sg45
VJ CHROMATOGR
p143
sg47
V132
p144
sg78
(lp145
(VEHMANN
VA
tp146
asg57
I1977
sg43
V267
p147
sbag1
(g2
g3
NtRp148
(dp149
g49
V10.1007/s00344-007-9019-2
p150
sg45
VJ PLANT GROWTH REGUL
p151
sg47
V26
p152
sg78
(lp153
(VEXPOSITO-RODRIGUEZ
VM
tp154
asg57
I2007
sg43
V329
p155
sbag1
(g2
g3
NtRp156
(dp157
g49
V10.1073/pnas.0805596105
p158
sg45
VP NATL ACAD SCI USA
p159
sg47
V105
p160
sg78
(lp161
(VGALLAVOTTI
VA
tp162
asg57
I2008
sg43
V15196
p163
sbag1
(g2
g3
NtRp164
(dp165
g49
Nsg45
VCROP SCI
p166
sg47
V17
p167
sg78
(lp168
(VGENGENBACH
VB G
tp169
asg57
I1977
sg43
V489
p170
sbag1
(g2
g3
NtRp171
(dp172
g49
V10.1104/pp.123.3.1109
p173
sg45
VPLANT PHYSIOL
p174
sg47
V123
p175
sg78
(lp176
(VGLAWISCHNIG
VE
tp177
asg57
I2000
sg43
VLANT
p178
sbag1
(g2
g3
NtRp179
(dp180
g49
Nsg45
VMOL CELL BIOL
p181
sg47
V5
sg78
(lp182
(VHAGEN
VG
tp183
asg57
I1985
sg43
V1197
p184
sbag1
(g2
g3
NtRp185
(dp186
g49
V10.1007/BF00331020
p187
sg45
VMOL GEN GENET
p188
sg47
V204
p189
sg78
(lp190
(VHAUGHN
VG W
tp191
asg57
I1986
sg43
V430
p192
sbag1
(g2
g3
NtRp193
(dp194
g49
Nsg45
VCROP SCI
p195
sg47
V33
p196
sg78
(lp197
(VHENDRIX
VD L
tp198
asg57
I1993
sg43
V1306
p199
sbag1
(g2
g3
NtRp200
(dp201
g49
Nsg45
VPLANT CELL PHYSIOL
p202
sg47
V36
p203
sg78
(lp204
(VKOSHIBA
VT
tp205
asg57
I1995
sg43
VLANT
p206
sbag1
(g2
g3
NtRp207
(dp208
g49
V10.1104/pp.109.142331
p209
sg45
VPLANT PHYSIOL
p210
sg47
V151
p211
sg78
(lp212
(VKANG
VB H
tp213
asg57
I2009
sg43
VLANT
p214
sbag1
(g2
g3
NtRp215
(dp216
g49
V10.1007/BF00020891
p217
sg45
VPLANT MOL BIOL
p218
sg47
V27
p219
sg78
(lp220
(VKRAMER
VV C
tp221
asg57
I1995
sg43
VLANT
p222
sbag1
(g2
g3
NtRp223
(dp224
g49
V10.1105/tpc.018929
p225
sg45
VPLANT CELL
p226
sg47
V16
p227
sg78
(lp228
(VLARA
VM E B
tp229
asg57
I2004
sg43
VLANT
p230
sbag1
(g2
g3
NtRp231
(dp232
g49
V10.1016/j.phytochem.2007.09.011
p233
sg45
VPHYTOCHEMISTRY
p234
sg47
V69
p235
sg78
(lp236
(VLECLERE
VS
tp237
asg57
I2008
sg43
VHYTOCHEMISTRY
p238
sbag1
(g2
g3
NtRp239
(dp240
g49
Nsg45
VTRENDS PLANT SCI
p241
sg47
V8
sg78
(lp242
(VLEON
VP
tp243
asg57
I2003
sg43
V1360
p244
sbag1
(g2
g3
NtRp245
(dp246
g49
Nsg45
VMETHOD MOL BIOL
p247
sg47
V82
p248
sg78
(lp249
(VMARTINEZZAPATER
VJ M
tp250
asg57
I1998
sg43
V397
p251
sbag1
(g2
g3
NtRp252
(dp253
g49
V10.1104/pp.100.3.1346
p254
sg45
VPLANT PHYSIOL
p255
sg47
V100
p256
sg78
(lp257
(VMICHALCZUK
VL
tp258
asg57
I1992
sg43
VLANT
p259
sbag1
(g2
g3
NtRp260
(dp261
g49
Nsg45
VPLANT CELL
p262
sg47
V4
sg78
(lp263
(VMILLER
VM E
tp264
asg57
I1992
sg43
VLANT
p265
sbag1
(g2
g3
NtRp266
(dp267
g49
V10.1371/journal.pone.0004502
p268
sg45
VPLOS ONE
p269
sg47
V4
sg78
(lp270
(VMISHRA
VB S
tp271
asg57
I2009
sg43
VLOS
p272
sbag1
(g2
g3
NtRp273
(dp274
g49
V10.1126/science.1080585
p275
sg45
VSCIENCE
p276
sg47
V300
p277
sg78
(lp278
(VMOORE
VB
tp279
asg57
I2003
sg43
V332
p280
sbag1
(g2
g3
NtRp281
(dp282
g49
Nsg45
VP NATL ACAD SCI USA
p283
sg47
V101
p284
sg78
(lp285
(VNORMANLY
VJ
tp286
asg57
I1993
sg43
V8039
p287
sbag1
(g2
g3
NtRp288
(dp289
g49
V10.1104/pp.109.141507
p290
sg45
VPLANT PHYSIOL
p291
sg47
V151
p292
sg78
(lp293
(VQUITTENDEN
VL J
tp294
asg57
I2009
sg43
VLANT
p295
sbag1
(g2
g3
NtRp296
(dp297
g49
V10.1590/S0100-879X2006000900003
p298
sg45
VBRAZ J MED BIOL RES
p299
sg47
V39
p300
sg78
(lp301
(VREZENDE
VG L
tp302
asg57
I2006
sg43
V1159
p303
sbag1
(g2
g3
NtRp304
(dp305
g49
V10.1016/j.tplants.2004.10.009
p306
sg45
VTRENDS PLANT SCI
p307
sg47
V9
sg78
(lp308
(VROITSCH
VT
tp309
asg57
I2004
sg43
V606
p310
sbag1
(g2
g3
NtRp311
(dp312
g49
V10.1093/jxb/erg050
p313
sg45
VJ EXP BOT
p314
sg47
V54
p315
sg78
(lp316
(VROITSCH
VT
tp317
asg57
I2003
sg43
V513
p318
sbag1
(g2
g3
NtRp319
(dp320
g49
V10.1074/jbc.272.24.15280
p321
sg45
VJ BIOL CHEM
p322
sg47
V272
p323
sg78
(lp324
(VSEKIMOTO
VH
tp325
asg57
I1997
sg43
V15280
p326
sbag1
(g2
g3
NtRp327
(dp328
g49
V10.1104/pp.49.2.198
p329
sg45
VPLANT PHYSIOL
p330
sg47
V49
p331
sg78
(lp332
(VSHANNON
VJ C
tp333
asg57
I1972
sg43
VLANT
p334
sbag1
(g2
g3
NtRp335
(dp336
g49
V10.1016/j.phytochem.2006.05.035
p337
sg45
VPHYTOCHEMISTRY
p338
sg47
V67
p339
sg78
(lp340
(VSPIELBAUER
VG
tp341
asg57
I2006
sg43
VHYTOCHEMISTRY
p342
sbag1
(g2
g3
NtRp343
(dp344
g49
V10.1105/tpc.000885
p345
sg45
VPLANT CELL
p346
sg47
V14
p347
sg78
(lp348
(VSTASWICK
VP E
tp349
asg57
I2002
sg43
VLANT
p350
sbag1
(g2
g3
NtRp351
(dp352
g49
V10.1105/tpc.104.026690
p353
sg45
VPLANT CELL
p354
sg47
V17
p355
sg78
(lp356
(VSTASWICK
VP E
tp357
asg57
I2005
sg43
VLANT
p358
sbag1
(g2
g3
NtRp359
(dp360
g49
V10.1016/j.cell.2008.01.047
p361
sg45
VCELL
p362
sg47
V133
p363
sg78
(lp364
(VSTEPANOVA
VA N
tp365
asg57
I2008
sg43
V177
p366
sbag1
(g2
g3
NtRp367
(dp368
g49
V10.1126/science.8085154
p369
sg45
VSCIENCE
p370
sg47
V265
p371
sg78
(lp372
(VSZERSZEN
VJ B
tp373
asg57
I1994
sg43
V1699
p374
sbag1
(g2
g3
NtRp375
(dp376
g49
V10.1023/A:1016586401506
p377
sg45
VPLANT GROWTH REGUL
p378
sg47
V36
p379
sg78
(lp380
(VSZTEIN
VA E
tp381
asg57
I2002
sg43
VLANT
p382
sbag1
(g2
g3
NtRp383
(dp384
g49
Nsg45
VJ PLANT PHYSIOL
p385
sg47
V155
p386
sg78
(lp387
(VTALIERCIO
VE W
tp388
asg57
I1999
sg43
V197
p389
sbag1
(g2
g3
NtRp390
(dp391
g49
V10.1016/j.cell.2008.01.049
p392
sg45
VCELL
p393
sg47
V133
p394
sg78
(lp395
(VTAO
VY
tp396
asg57
I2008
sg43
V164
p397
sbag1
(g2
g3
NtRp398
(dp399
g49
Nsg45
VCROP SCI
p400
sg47
V33
p401
sg78
(lp402
(VTARPLEY
VL
tp403
asg57
I1993
sg43
V338
p404
sbag1
(g2
g3
NtRp405
(dp406
g49
V10.1104/pp.001826
p407
sg45
VPLANT PHYSIOL
p408
sg47
V129
p409
sg78
(lp410
(VVILHAR
VB
tp411
asg57
I2002
sg43
VLANT
p412
sbag1
(g2
g3
NtRp413
(dp414
g49
V10.1016/S1360-1385(97)85222-3
p415
sg45
VTRENDS PLANT SCI
p416
sg47
V2
sg78
(lp417
(VWEBER
VH
tp418
asg57
I1997
sg43
V169
p419
sbag1
(g2
g3
NtRp420
(dp421
g49
V10.1007/BF00384885
p422
sg45
VPLANTA
p423
sg47
V71
p424
sg78
(lp425
(VWINTER
VA
tp426
asg57
I1966
sg43
VLANTA
p427
sbag1
(g2
g3
NtRp428
(dp429
g49
V10.1093/aob/mci083
p430
sg45
VANN BOT
p431
sg47
V95
p432
sg78
(lp433
(VWOODWARD
VA W
tp434
asg57
I2005
sg43
V707
p435
sbag1
(g2
g3
NtRp436
(dp437
g49
V10.1126/science.254.5034.998
p438
sg45
VSCIENCE
p439
sg47
V254
p440
sg78
(lp441
(VWRIGHT
VA D
tp442
asg57
I1991
sg43
V998
p443
sbag1
(g2
g3
NtRp444
(dp445
g49
V10.1104/pp.106.091561
p446
sg45
VPLANT PHYSIOL
p447
sg47
V143
p448
sg78
(lp449
(VYAMAMOTO
VY
tp450
asg57
I2007
sg43
VLANT
p451
sbag1
(g2
g3
NtRp452
(dp453
g49
V10.1038/nature01984
p454
sg45
VNATURE
p455
sg47
V425
p456
sg78
(lp457
(VYANAGISAWA
VS
tp458
asg57
I2003
sg43
V521
p459
sbag1
(g2
g3
NtRp460
(dp461
g49
V10.1104/pp.121.3.687
p462
sg45
VPLANT PHYSIOL
p463
sg47
V121
p464
sg78
(lp465
(VYU
VS M
tp466
asg57
I1999
sg43
VLANT
p467
sbag1
(g2
g3
NtRp468
(dp469
g49
V10.1104/pp.109.136598
p470
sg45
VPLANT PHYSIOL
p471
sg47
V150
p472
sg78
(lp473
(VZANOR
VM I
tp474
asg57
I2009
sg43
VLANT
p475
sbag1
(g2
g3
NtRp476
(dp477
g49
Nsg45
VPLANT PHYSIOL
p478
sg47
V112
p479
sg78
(lp480
(VZHANG
VL
tp481
asg57
I1996
sg43
VLANT
p482
sbag1
(g2
g3
NtRp483
(dp484
g49
V10.1126/science.291.5502.306
p485
sg45
VSCIENCE
p486
sg47
V291
p487
sg78
(lp488
(VZHAO
VY D
tp489
asg57
I2001
sg43
V306
p490
sbag1
(g2
g3
NtRp491
(dp492
g49
V10.1073/pnas.95.17.10294
p493
sg45
VP NATL ACAD SCI USA
p494
sg47
V95
p495
sg78
(lp496
(VZHOU
VL
tp497
asg57
I1998
sg43
V10294
p498
sbasb.