ccopy_reg
_reconstructor
p1
(ctethne.classes.paper
Paper
p2
c__builtin__
object
p3
NtRp4
(dp5
S'publisherCity'
p6
VROCKVILLE
p7
sS'reprintAddress'
p8
VSmith, SM (reprint author), Univ Western Australia, Crawley, WA 6009, Australia.
p9
sS'WC'
p10
VPlant Sciences
p11
sS'GA'
p12
V404CX
p13
sS'FX'
p14
(lp15
VThis work was supported by the Australian Research Council (grant nos.
p16
aVFF0457721, DP0667197, DP0880484, and DP0559058) and the Centres of
p17
aVExcellence Program of the Government of Western Australia.
p18
asS'abstract'
p19
VDiscovery of the primary seed germination stimulant in smoke, 3-methyl-2H-furo[2,3-c]pyran-2-one (KAR(1)), has resulted in identification of a family of structurally related plant growth regulators, karrikins. KAR(1) acts as a key germination trigger for many species from fire-prone, Mediterranean climates, but a molecular mechanism for this response remains unknown. We demonstrate that Arabidopsis (Arabidopsis thaliana), an ephemeral of the temperate northern hemisphere that has never, to our knowledge, been reported to be responsive to fire or smoke, rapidly and sensitively perceives karrikins. Thus, these signaling molecules may have greater significance among angiosperms than previously realized. Karrikins can trigger germination of primary dormant Arabidopsis seeds far more effectively than known phytohormones or the structurally related strigolactone GR-24. Natural variation and depth of seed dormancy affect the degree of KAR(1) stimulation. Analysis of phytohormone mutant germination reveals suppression of KAR(1) responses by abscisic acid and a requirement for gibberellin (GA) synthesis. The reduced germination of sleepy1 mutants is partially recovered by KAR(1), which suggests that germination enhancement by karrikin is only partly DELLA dependent. While KAR(1) has little effect on sensitivity to exogenous GA, it enhances expression of the GA biosynthetic genes GA3ox1 and GA3ox2 during seed imbibition. Neither abscisic acid nor GA levels in seed are appreciably affected by KAR(1) treatment prior to radicle emergence, despite marked differences in germination outcome. KAR(1) stimulation of Arabidopsis germination is light-dependent and reversible by far-red exposure, although limited induction of GA3ox1 still occurs in the dark. The observed requirements for light and GA biosynthesis provide the first insights into the karrikin mode of action.
p20
sS'pageEnd'
p21
I873
sS'date'
p22
I2009
sS'documentType'
p23
VArticle
p24
sS'subject'
p25
VPlant Sciences
p26
sS'isoSource'
p27
VPlant Physiol.
p28
sS'timesCited'
p29
(lp30
I50
aVZ9 54
p31
asS'funding'
p32
(lp33
(VAustralian Research Council
VFF0457721, DP0667197, DP0880484, DP0559058
tp34
a(VCentres of Excellence Program of the Government of Western Australia
Ntp35
asS'PT'
p36
VJ
sS'title'
p37
VKarrikins Discovered In Smoke Trigger Arabidopsis Seed Germination By A Mechanism Requiring Gibberellic Acid Synthesis And Light
p38
sS'ISSN'
p39
(lp40
V0032-0889
p41
aVJ9 PLANT PHYSIOL
p42
asS'authors_full'
p43
(lp44
(VNELSON
VDAVID C
tp45
a(VRISEBOROUGH
VJULIEANNE
tp46
a(VFLEMATTI
VGAVIN R
tp47
a(VSTEVENS
VJASON
tp48
a(VGHISALBERTI
VEMILIO L
tp49
a(VDIXON
VKINGSLEY W
tp50
a(VSMITH
VSTEVEN M
tp51
asS'PG'
p52
I11
sS'PD'
p53
VFEB
p54
sS'pageStart'
p55
I863
sS'issue'
p56
I2
sS'RI'
p57
(lp58
VStevens, Jason/G-3810-2010; Flematti, Gavin/J-2018-2012; Dixon,
p59
aVKingsley/B-1042-2011
p60
asS'journal'
p61
VPLANT PHYSIOLOGY
p62
sS'volume'
p63
V149
p64
sS'doi'
p65
V10.1104/pp.108.131516
p66
sS'emailAddress'
p67
Vssmith@cyllene.uwa.edu.au
p68
sS'authorAddress'
p69
(lp70
V[Nelson, David C.; Riseborough, Julie-Anne; Flematti, Gavin R.; Ghisalberti, Emilio L.; Dixon, Kingsley W.; Smith, Steven M.] Univ Western Australia, Crawley, WA 6009, Australia.
p71
aV[Stevens, Jason; Dixon, Kingsley W.] Kings Pk & Bot Gardens, Perth, WA 6005, Australia.
p72
asS'publisherAddress'
p73
V15501 MONONA DRIVE, ROCKVILLE, MD 20855 USA
p74
sS'ER'
p75
V
sS'publisher'
p76
VAMER SOC PLANT BIOLOGISTS
p77
sS'authorKeywords'
p78
(lp79
VPLANT-DERIVED SMOKE
p80
aVABSCISIC-ACID
p81
aVINSENSITIVE MUTANTS
p82
aVWESTERN-AUSTRALIA
p83
aVRESPONSE PATHWAYS
p84
aVDORMANCY RELEASE
p85
aVLOW-TEMPERATURE
p86
aVBIOSYNTHESIS
p87
aVBUTENOLIDE
p88
aVEXPRESSION
p89
asS'language'
p90
VEnglish
p91
sS'wosid'
p92
VWOS:000263129400023
p93
sS'citationCount'
p94
I55
sS'authors_init'
p95
(lp96
(VNELSON
VD C
tp97
a(VRISEBOROUGH
VJ A
tp98
a(VFLEMATTI
VG R
tp99
a(VSTEVENS
VJ
tp100
a(VGHISALBERTI
VE L
tp101
a(VDIXON
VK W
tp102
a(VSMITH
VS M
tp103
asS'citedReferences'
p104
(lp105
g1
(g2
g3
NtRp106
(dp107
g65
V10.1111/j.1365-3040.2005.01292.x
p108
sg61
VPLANT CELL ENVIRON
p109
sg63
V28
p110
sg95
(lp111
(VALBORESI
VA
tp112
asg22
I2005
sg55
VLANT
p113
sbag1
(g2
g3
NtRp114
(dp115
g65
V10.1007/s00425-004-1251-4
p116
sg61
VPLANTA
p117
sg63
V219
p118
sg95
(lp119
(VALI-RACHEDI
VS
tp120
asg22
I2004
sg55
VLANTA
p121
sbag1
(g2
g3
NtRp122
(dp123
g65
Nsg61
VGENETICS
p124
sg63
V164
p125
sg95
(lp126
(VALONSO-BLANCO
VC
tp127
asg22
I2003
sg55
V711
p128
sbag1
(g2
g3
NtRp129
(dp130
g65
Nsg61
VGENE DEV
p131
sg63
V14
p132
sg95
(lp133
(VARENAS-HUERTERO
VF
tp134
asg22
I2000
sg55
V2085
p135
sbag1
(g2
g3
NtRp136
(dp137
g65
V10.1560/3F6J-UQ0F-E91U-UNUG
p138
sg61
VISRAEL J PLANT SCI
p139
sg63
V53
p140
sg95
(lp141
(VBAR
VN U N N
tp142
asg22
I2005
sg55
V97
p143
sbag1
(g2
g3
NtRp144
(dp145
g65
V10.1079/SSR2003150
p146
sg61
VSEED SCI RES
p147
sg63
V14
p148
sg95
(lp149
(VBASKIN
VJ M
tp150
asg22
I2004
sg55
V1
sbag1
(g2
g3
NtRp151
(dp152
g65
V10.1007/s00425-005-0057-3
p153
sg61
VPLANTA
p154
sg63
V223
p155
sg95
(lp156
(VCAO
VD N
tp157
asg22
I2005
sg55
VLANTA
p158
sbag1
(g2
g3
NtRp159
(dp160
g65
V10.1111/j.1365-313X.2007.03331.x
p161
sg61
VPLANT J
p162
sg63
V53
p163
sg95
(lp164
(VCARRERA
VE
tp165
asg22
I2008
sg55
VLANT
p166
sbag1
(g2
g3
NtRp167
(dp168
g65
V10.1126/science.273.5279.1239
p169
sg61
VSCIENCE
p170
sg63
V273
p171
sg95
(lp172
(VCUTLER
VS
tp173
asg22
I1996
sg55
V1239
p174
sbag1
(g2
g3
NtRp175
(dp176
g65
V10.1104/pp.105.063743
p177
sg61
VPLANT PHYSIOL
p178
sg63
V139
p179
sg95
(lp180
(VCZECHOWSKI
VT
tp181
asg22
I2005
sg55
VLANT
p182
sbag1
(g2
g3
NtRp183
(dp184
g65
V10.1007/s10725-006-9149-8
p185
sg61
VPLANT GROWTH REGUL
p186
sg63
V51
p187
sg95
(lp188
(VDAWS
VM I
tp189
asg22
I2007
sg55
VLANT
p190
sbag1
(g2
g3
NtRp191
(dp192
g65
Nsg61
VS AFR J BOT
p193
sg63
V10
p194
sg95
(lp195
(VDAWS
VM I
tp196
asg22
I2007
sg55
V73
p197
sbag1
(g2
g3
NtRp198
(dp199
g65
V10.1104/pp.122.2.415
p200
sg61
VPLANT PHYSIOL
p201
sg63
V122
p202
sg95
(lp203
(VDEBEAUJON
VI
tp204
asg22
I2000
sg55
VLANT
p205
sbag1
(g2
g3
NtRp206
(dp207
g65
V10.1105/tpc.020958
p208
sg61
VPLANT CELL
p209
sg63
V16
p210
sg95
(lp211
(VDILL
VA
tp212
asg22
I2004
sg55
VLANT
p213
sbag1
(g2
g3
NtRp214
(dp215
g65
Nsg61
VACTA HORTIC IN PRESS
p216
sg63
Nsg95
(lp217
(VDIXON
VK W
tp218
asg22
I2009
sg55
Nsbag1
(g2
g3
NtRp219
(dp220
g65
V10.1073/pnas.0712174105
p221
sg61
VP NATL ACAD SCI USA
p222
sg63
V105
p223
sg95
(lp224
(VFILIAULT
VD L
tp225
asg22
I2008
sg55
V3157
p226
sbag1
(g2
g3
NtRp227
(dp228
g65
V10.1111/j.1469-8137.2006.01787.x
p229
sg61
VNEW PHYTOL
p230
sg63
V171
p231
sg95
(lp232
(VFINCH-SAVAGE
VW E
tp233
asg22
I2006
sg55
V501
p234
sbag1
(g2
g3
NtRp235
(dp236
g65
V10.1111/j.1365-313X.2007.03118.x
p237
sg61
VPLANT J
p238
sg63
V51
p239
sg95
(lp240
(VFINCH-SAVAGE
VW E
tp241
asg22
I2007
sg55
VLANT
p242
sbag1
(g2
g3
NtRp243
(dp244
g65
V10.1146/annurev.arplant.59.032607.092740
p245
sg61
VANNU REV PLANT BIOL
p246
sg63
V59
p247
sg95
(lp248
(VFINKELSTEIN
VR
tp249
asg22
I2008
sg55
V387
p250
sbag1
(g2
g3
NtRp251
(dp252
g65
Nsg61
VPLANT CELL S
p253
sg63
V45
p254
sg95
(lp255
(VFINKELSTEIN
VR R
tp256
asg22
I2002
sg55
VLANT
p257
sbag1
(g2
g3
NtRp258
(dp259
g65
V10.1105/tpc.12.4.599
p260
sg61
VPLANT CELL
p261
sg63
V10
p262
sg95
(lp263
(VFINKELSTEIN
VR R
tp264
asg22
I1998
sg55
VLANT
p265
sbag1
(g2
g3
NtRp266
(dp267
g65
V10.1126/science.1099944
p268
sg61
VSCIENCE
p269
sg63
V305
p270
sg95
(lp271
(VFLEMATTI
VG R
tp272
asg22
I2004
sg55
V977
p273
sbag1
(g2
g3
NtRp274
(dp275
g65
V10.1021/jf0633241
p276
sg61
VJ AGR FOOD CHEM
p277
sg63
V55
p278
sg95
(lp279
(VFLEMATTI
VG R
tp280
asg22
I2007
sg55
V2189
p281
sbag1
(g2
g3
NtRp282
(dp283
g65
V10.1186/1471-2105-7-179
p284
sg61
VBMC BIOINFORMATICS
p285
sg63
V7
sg95
(lp286
(VHAN
VS J
tp287
asg22
I2006
sg55
Nsbag1
(g2
g3
NtRp288
(dp289
g65
V10.1046/j.1365-313x.2000.00822.x
p290
sg61
VPLANT J
p291
sg63
V23
p292
sg95
(lp293
(VHUIJSER
VC
tp294
asg22
I2000
sg55
VLANT
p295
sbag1
(g2
g3
NtRp296
(dp297
g65
V10.1039/b512776a
p298
sg61
VNAT PROD REP
p299
sg63
V23
p300
sg95
(lp301
(VHUMPHREY
VA J
tp302
asg22
I2006
sg55
V592
p303
sbag1
(g2
g3
NtRp304
(dp305
g65
V10.1007/s10725-006-9110-x
p306
sg61
VPLANT GROWTH REGUL
p307
sg63
V50
p308
sg95
(lp309
(VJAIN
VN
tp310
asg22
I2006
sg55
VLANT
p311
sbag1
(g2
g3
NtRp312
(dp313
g65
Nsg61
VANN BOT
p314
sg63
V63
p315
sg95
(lp316
(VKARSSEN
VC M
tp317
asg22
I1989
sg55
V71
p318
sbag1
(g2
g3
NtRp319
(dp320
g65
V10.1111/j.1439-037X.2006.00213.x
p321
sg61
VJ AGRON CROP SCI
p322
sg63
V192
p323
sg95
(lp324
(VKULKARNI
VM G
tp325
asg22
I2006
sg55
V395
p326
sbag1
(g2
g3
NtRp327
(dp328
g65
V10.1046/j.1365-313x.2000.00833.x
p329
sg61
VPLANT J
p330
sg63
V23
p331
sg95
(lp332
(VLABY
VR J
tp333
asg22
I2000
sg55
VLANT
p334
sbag1
(g2
g3
NtRp335
(dp336
g65
V10.1101/gad.969002
p337
sg61
VGENE DEV
p338
sg63
V16
p339
sg95
(lp340
(VLEE
VS C
tp341
asg22
I2002
sg55
V646
p342
sbag1
(g2
g3
NtRp343
(dp344
g65
V10.1079/SSR2005232
p345
sg61
VSEED SCI RES
p346
sg63
V16
p347
sg95
(lp348
(VMERRITT
VD J
tp349
asg22
I2006
sg55
V29
p350
sbag1
(g2
g3
NtRp351
(dp352
g65
V10.1111/j.1365-313X.2006.02659.x
p353
sg61
VPLANT J
p354
sg63
V45
p355
sg95
(lp356
(VMILLAR
VA A
tp357
asg22
I2006
sg55
VLANT
p358
sbag1
(g2
g3
NtRp359
(dp360
g65
V10.1146/annurev.arplant.56.032604.144046
p361
sg61
VANNU REV PLANT BIOL
p362
sg63
V56
p363
sg95
(lp364
(VNAMBARA
VE
tp365
asg22
I2005
sg55
V165
p366
sbag1
(g2
g3
NtRp367
(dp368
g65
V10.1105/tpc.011650
p369
sg61
VPLANT CELL
p370
sg63
V15
p371
sg95
(lp372
(VOGAWA
VM
tp373
asg22
I2003
sg55
VLANT
p374
sbag1
(g2
g3
NtRp375
(dp376
g65
V10.1104/pp.106.079475
p377
sg61
VPLANT PHYSIOL
p378
sg63
V141
p379
sg95
(lp380
(VOKAMOTO
VM
tp381
asg22
I2006
sg55
VLANT
p382
sbag1
(g2
g3
NtRp383
(dp384
g65
V10.1105/tpc.010476
p385
sg61
VPLANT CELL
p386
sg63
V14
p387
sg95
(lp388
(VOLSZEWSKI
VN
tp389
asg22
I2002
sg55
VLANT
p390
sbag1
(g2
g3
NtRp391
(dp392
g65
V10.1016/j.febslet.2005.06.084
p393
sg61
VFEBS LETT
p394
sg63
V579
p395
sg95
(lp396
(VPRIEST
VD M
tp397
asg22
I2005
sg55
V4454
p398
sbag1
(g2
g3
NtRp399
(dp400
g65
Nsg61
VGENETICS
p401
sg63
V154
p402
sg95
(lp403
(VQUESADA
VV
tp404
asg22
I2000
sg55
V421
p405
sbag1
(g2
g3
NtRp406
(dp407
g65
V10.1046/j.1526-100X.1997.09724.x
p408
sg61
VRESTOR ECOL
p409
sg63
V5
sg95
(lp410
(VROCHE
VS
tp411
asg22
I1997
sg55
V191
p412
sbag1
(g2
g3
NtRp413
(dp414
g65
V10.1046/j.1526-100X.2002.02040.x
p415
sg61
VRESTOR ECOL
p416
sg63
V10
p417
sg95
(lp418
(VROKICH
VD P
tp419
asg22
I2002
sg55
V185
p420
sbag1
(g2
g3
NtRp421
(dp422
g65
V10.1071/BT06108
p423
sg61
VAUST J BOT
p424
sg63
V55
p425
sg95
(lp426
(VROKICH
VD P
tp427
asg22
I2007
sg55
V375
p428
sbag1
(g2
g3
NtRp429
(dp430
g65
V10.1093/pcp/pch198
p431
sg61
VPLANT CELL PHYSIOL
p432
sg63
V45
p433
sg95
(lp434
(VSEO
VM
tp435
asg22
I2004
sg55
VLANT
p436
sbag1
(g2
g3
NtRp437
(dp438
g65
V10.1104/pp.125.2.763
p439
sg61
VPLANT PHYSIOL
p440
sg63
V125
p441
sg95
(lp442
(VSTEBER
VC M
tp443
asg22
I2001
sg55
VLANT
p444
sbag1
(g2
g3
NtRp445
(dp446
g65
V10.1007/s11104-007-9344-z
p447
sg61
VPLANT SOIL
p448
sg63
V298
p449
sg95
(lp450
(VSTEVENS
VJ C
tp451
asg22
I2007
sg55
VLANT
p452
sbag1
(g2
g3
NtRp453
(dp454
g65
V10.1073/pnas.96.8.4698
p455
sg61
VP NATL ACAD SCI USA
p456
sg63
V96
p457
sg95
(lp458
(VTHOMAS
VS G
tp459
asg22
I1999
sg55
V4698
p460
sbag1
(g2
g3
NtRp461
(dp462
g65
V10.1104/pp.104.039578
p463
sg61
VPLANT PHYSIOL
p464
sg63
V135
p465
sg95
(lp466
(VTYLER
VL
tp467
asg22
I2004
sg55
VLANT
p468
sbag1
(g2
g3
NtRp469
(dp470
g65
V10.1046/j.1442-1984.2000.00037.x
p471
sg61
VPlant Species Biology
p472
sg63
V15
p473
sg95
(lp474
(VVAN
VSTADEN JOHANNES
tp475
asg22
I2000
sg55
Vlant
p476
sbag1
(g2
g3
NtRp477
(dp478
g65
V10.1038/hdy.1997.142
p479
sg61
VHEREDITY
p480
sg63
V79
p481
sg95
(lp482
(VVANDERSCHAAR
VW
tp483
asg22
I1997
sg55
V190
p484
sbag1
(g2
g3
NtRp485
(dp486
g65
V10.1016/j.fcr.2005.12.007
p487
sg61
VFIELD CROP RES
p488
sg63
V98
p489
sg95
(lp490
(VVAN
VSTADEN J
tp491
asg22
I2006
sg55
V98
p492
sbag1
(g2
g3
NtRp493
(dp494
g65
Nsg61
VS AFR J BOT
p495
sg63
V70
p496
sg95
(lp497
(VVAN
VSTADEN J
tp498
asg22
I2004
sg55
V654
p499
sbag1
(g2
g3
NtRp500
(dp501
g65
V10.1101/gad.891901
p502
sg61
VGENE DEV
p503
sg63
V15
p504
sg95
(lp505
(VXIONG
VL M
tp506
asg22
I2001
sg55
V1971
p507
sbag1
(g2
g3
NtRp508
(dp509
g65
V10.1105/tpc.10.12.2115
p510
sg61
VPLANT CELL
p511
sg63
V10
p512
sg95
(lp513
(VYAMAGUCHI
VS
tp514
asg22
I1998
sg55
VLANT
p515
sbag1
(g2
g3
NtRp516
(dp517
g65
V10.1046/j.1365-313X.2001.01168.x
p518
sg61
VPLANT J
p519
sg63
V28
p520
sg95
(lp521
(VYAMAGUCHI
VS
tp522
asg22
I2001
sg55
VLANT
p523
sbag1
(g2
g3
NtRp524
(dp525
g65
V10.1105/tpc.018143
p526
sg61
VPLANT CELL
p527
sg63
V16
p528
sg95
(lp529
(VYAMAUCHI
VY
tp530
asg22
I2004
sg55
VLANT
p531
sbasb.