ccopy_reg
_reconstructor
p1
(ctethne.classes.paper
Paper
p2
c__builtin__
object
p3
NtRp4
(dp5
S'publisherCity'
p6
VROCKVILLE
p7
sS'reprintAddress'
p8
VAndreo, CS (reprint author), Univ Nacl Rosario, Ctr Estudios Fotosinteticos & Bioquim, RA-2000 Rosario, Argentina.
p9
sS'WC'
p10
VPlant Sciences
p11
sS'GA'
p12
V962WZ
p13
sS'abstract'
p14
VThe Arabidopsis ( Arabidopsis thaliana) genome contains four genes encoding putative NADP-malic enzymes (MEs; AtNADP-ME1-ME4). NADP-ME4 is localized to plastids, whereas the other three isoforms do not possess any predicted organellar targeting sequence and are therefore expected to be cytosolic. The plant NADP-MEs can be classified into four groups: groups I and II comprising cytosolic and plastidic isoforms from dicots, respectively; group III containing isoforms from monocots; and group IV composed of both monocots and dicots, including AtNADP-ME1. AtNADP-MEs contained all conserved motifs common to plant NADP-MEs and the recombinant isozymes showed different kinetic and structural properties. NADP-ME2 exhibits the highest specific activity, while NADP-ME3 and NADP-ME4 present the highest catalytic efficiency for NADP and malate, respectively. NADP-ME4 exists in equilibrium of active dimers and tetramers, while the cytosolic counterparts are present as hexamers or octamers. Characterization of T-DNA insertion mutant and promoter activity studies indicates that NADP-ME2 is responsible for the major part of NADP-ME activity in mature tissues of Arabidopsis. Whereas NADP-ME2 and -ME4 are constitutively expressed, the expression of NADP-ME1 and NADP-ME3 is restricted by both developmental and cell-specific signals. These isoforms may play specific roles at particular developmental stages of the plant rather than being involved in primary metabolism.
p15
sS'pageEnd'
p16
I51
sS'publisherAddress'
p17
V15501 MONONA DRIVE, ROCKVILLE, MD 20855 USA
p18
sS'documentType'
p19
VArticle
p20
sS'subject'
p21
VPlant Sciences
p22
sS'isoSource'
p23
VPlant Physiol.
p24
sS'timesCited'
p25
(lp26
I55
aVZ9 61
p27
asS'PT'
p28
VJ
sS'title'
p29
VA Comprehensive Analysis Of The Nadp-Malic Enzyme Gene Family Of Arabidopsis
p30
sS'ISSN'
p31
(lp32
V0032-0889
p33
aVJ9 PLANT PHYSIOL
p34
asS'authors_full'
p35
(lp36
(VWHEELER
VMCG
tp37
a(VTRONCONI
VMA
tp38
a(VDRINCOVICH
VMF
tp39
a(VANDREO
VCS
tp40
a(VFLUGGE
VUI
tp41
a(VMAURINO
VVG
tp42
asS'PG'
p43
I13
sS'PD'
p44
VSEP
p45
sS'pageStart'
p46
I39
sS'issue'
p47
I1
sS'journal'
p48
VPLANT PHYSIOLOGY
p49
sS'volume'
p50
V139
p51
sS'doi'
p52
V10.1104/pp.105.065953
p53
sS'emailAddress'
p54
Vcandreo@fbioyf.unr.edu.ar
p55
sS'authorAddress'
p56
(lp57
VUniv Nacl Rosario, Ctr Estudios Fotosinteticos & Bioquim, RA-2000 Rosario, Argentina.
p58
aVUniv Cologne, Inst Bot, D-50931 Cologne, Germany.
p59
asS'date'
p60
I2005
sS'ER'
p61
V
sS'publisher'
p62
VAMER SOC PLANT BIOLOGISTS
p63
sS'authorKeywords'
p64
(lp65
VFATTY-ACID SYNTHESIS
p66
aVPLANT DEFENSE
p67
aVMESEMBRYANTHEMUM-CRYSTALLINUM
p68
aVOXIDATIVE DECARBOXYLASES
p69
aVNUCLEOTIDE-SEQUENCE
p70
aVESCHERICHIA-COLI
p71
aVMETABOLISM PLANT
p72
aVSALT STRESS
p73
aVMAIZE
p74
aVMALATE
p75
asS'language'
p76
VEnglish
p77
sS'wosid'
p78
VWOS:000231765300005
p79
sS'citationCount'
p80
I52
sS'authors_init'
p81
(lp82
(VWHEELER
VM C G
tp83
a(VTRONCONI
VM A
tp84
a(VDRINCOVICH
VM F
tp85
a(VANDREO
VC S
tp86
a(VFLUGGE
VU I
tp87
a(VMAURINO
VV G
tp88
asS'citedReferences'
p89
(lp90
g1
(g2
g3
NtRp91
(dp92
g52
V10.1016/0014-5793(85)80305-7
p93
sg48
VFEBS LETT
p94
sg50
V182
p95
sg81
(lp96
(VARTUS
VN N
tp97
asg60
I1985
sg46
V225
p98
sbag1
(g2
g3
NtRp99
(dp100
g52
Nsg48
VMETH MOL B
p101
sg50
V82
p102
sg81
(lp103
(VBECHTOLD
VN
tp104
asg60
I1998
sg46
V259
p105
sbag1
(g2
g3
NtRp106
(dp107
g52
V10.1016/0014-5793(90)81063-T
p108
sg48
VFEBS LETT
p109
sg50
V273
p110
sg81
(lp111
(VBORSCH
VD
tp112
asg60
I1990
sg46
V111
p113
sbag1
(g2
g3
NtRp114
(dp115
g52
V10.1023/A:1006209003096
p116
sg48
VPHOTOSYNTH RES
p117
sg50
V61
p118
sg81
(lp119
(VCASATI
VP
tp120
asg60
I1999
sg46
VHOTOSYNTH
p121
sbag1
(g2
g3
NtRp122
(dp123
g52
V10.1021/bi035251+
p124
sg48
VBIOCHEMISTRY
p125
sg50
V42
p126
sg81
(lp127
(VCHANG
VG G
tp128
asg60
I2003
sg46
V12721
p129
sbag1
(g2
g3
NtRp130
(dp131
g52
V10.1271/bbb.68.1865
p132
sg48
VBioscience Biotechnology and Biochemistry
p133
sg50
V68
p134
sg81
(lp135
(VCHI
VW E I
tp136
asg60
I2004
sg46
V1865
p137
sbag1
(g2
g3
NtRp138
(dp139
g52
V10.1021/bi0255120
p140
sg48
VBIOCHEMISTRY
p141
sg50
V41
p142
sg81
(lp143
(VCOLEMAN
VD E
tp144
asg60
I2002
sg46
V6928
p145
sbag1
(g2
g3
NtRp146
(dp147
g52
V10.1111/j.1432-1033.1992.tb17181.x
p148
sg48
VEUR J BIOCHEM
p149
sg50
V208
p150
sg81
(lp151
(VCUSHMAN
VJ C
tp152
asg60
I1992
sg46
V259
p153
sbag1
(g2
g3
NtRp154
(dp155
g52
V10.1074/jbc.M212530200
p156
sg48
VJ BIOL CHEM
p157
sg50
V278
p158
sg81
(lp159
(VDETARSIO
VE
tp160
asg60
I2003
sg46
V13757
p161
sbag1
(g2
g3
NtRp162
(dp163
g52
V10.1016/S0014-5793(00)02331-0
p164
sg48
VFEBS LETT
p165
sg50
V490
p166
sg81
(lp167
(VDRINCOVICH
VM F
tp168
asg60
I2001
sg46
V1
sbag1
(g2
g3
NtRp169
(dp170
g52
Nsg48
VPLANT PHYSIOL
p171
sg50
V114
p172
sg81
(lp173
(VEASTMOND
VP J
tp174
asg60
I1997
sg46
VLANT
p175
sbag1
(g2
g3
NtRp176
(dp177
g52
Nsg48
VPHYTOCHEMISTRY
p178
sg50
V31
p179
sg81
(lp180
(VEDWARDS
VG E
tp181
asg60
I1992
sg46
VHYTOCHEMISTRY
p182
sbag1
(g2
g3
NtRp183
(dp184
g52
Nsg48
VPROTEIN SCI
p185
sg50
V8
sg81
(lp186
(VEMANUELSSON
VO
tp187
asg60
I1999
sg46
VROTEIN
p188
sbag1
(g2
g3
NtRp189
(dp190
g52
V10.1104/pp.107.3.1009
p191
sg48
VPLANT PHYSIOL
p192
sg50
V107
p193
sg81
(lp194
(VFRANKE
VK E
tp195
asg60
I1995
sg46
VLANT
p196
sbag1
(g2
g3
NtRp197
(dp198
g52
V10.1006/abbi.1997.0482
p199
sg48
VARCH BIOCHEM BIOPHYS
p200
sg50
V349
p201
sg81
(lp202
(VFRIDLYAND
VL E
tp203
asg60
I1998
sg46
V290
p204
sbag1
(g2
g3
NtRp205
(dp206
g52
V10.1007/BF00014450
p207
sg48
VPLANT MOL BIOL
p208
sg50
V24
p209
sg81
(lp210
(VFUSHIMI
VT
tp211
asg60
I1994
sg46
VLANT
p212
sbag1
(g2
g3
NtRp213
(dp214
g52
V10.1073/pnas.190334497
p215
sg48
VP NATL ACAD SCI USA
p216
sg50
V97
p217
sg81
(lp218
(VGUTIERREZ-ALCALA
VG
tp219
asg60
I2000
sg46
V11108
p220
sbag1
(g2
g3
NtRp221
(dp222
g52
V10.1038/415451a
p223
sg48
VNATURE
p224
sg50
V415
p225
sg81
(lp226
(VHIBBERD
VJ M
tp227
asg60
I2002
sg46
V451
p228
sbag1
(g2
g3
NtRp229
(dp230
g52
V10.1016/S0378-1119(99)00556-9
p231
sg48
VGENE
p232
sg50
V243
p233
sg81
(lp234
(VHONDA
VH
tp235
asg60
I2000
sg46
V85
p236
sbag1
(g2
g3
NtRp237
(dp238
g52
V10.1093/dnares/4.6.397
p239
sg48
VDNA Res
p240
sg50
V4
sg81
(lp241
(VHONDA
VH
tp242
asg60
I1997
sg46
V397
p243
sbag1
(g2
g3
NtRp244
(dp245
g52
V10.1104/pp.103.020925
p246
sg48
VPLANT PHYSIOL
p247
sg50
V132
p248
sg81
(lp249
(VHONYS
VD
tp250
asg60
I2003
sg46
VLANT
p251
sbag1
(g2
g3
NtRp252
(dp253
g52
Nsg48
VJ BIOCHEM
p254
sg50
V85
p255
sg81
(lp256
(VIWAKURA
VM
tp257
asg60
I1979
sg46
V1355
p258
sbag1
(g2
g3
NtRp259
(dp260
g52
Nsg48
VEMBO J
p261
sg50
V6
sg81
(lp262
(VJEFFERSON
VR A
tp263
asg60
I1987
sg46
V3901
p264
sbag1
(g2
g3
NtRp265
(dp266
g52
V10.1038/227680a0
p267
sg48
VNATURE
p268
sg50
V227
p269
sg81
(lp270
(VLAEMMLI
VU K
tp271
asg60
I1970
sg46
V680
p272
sbag1
(g2
g3
NtRp273
(dp274
g52
V10.1104/pp.128.1.125
p275
sg48
VPLANT PHYSIOL
p276
sg50
V128
p277
sg81
(lp278
(VLAI
VL B
tp279
asg60
I2002
sg46
VLANT
p280
sbag1
(g2
g3
NtRp281
(dp282
g52
V10.1104/pp.128.1.140
p283
sg48
VPLANT PHYSIOL
p284
sg50
V128
p285
sg81
(lp286
(VLAI
VL B
tp287
asg60
I2002
sg46
VLANT
p288
sbag1
(g2
g3
NtRp289
(dp290
g52
Nsg48
VPHYSIOL VEG
p291
sg50
V22
p292
sg81
(lp293
(VLANCE
VC
tp294
asg60
I1984
sg46
VHYSIOL
p295
sbag1
(g2
g3
NtRp296
(dp297
g52
V10.1093/jexbot/53.369.699
p298
sg48
VJ EXP BOT
p299
sg50
V53
p300
sg81
(lp301
(VLAPORTE
VM M
tp302
asg60
I2002
sg46
V699
p303
sbag1
(g2
g3
NtRp304
(dp305
g52
V10.1007/BF00019491
p306
sg48
VPLANT MOL BIOL
p307
sg50
V26
p308
sg81
(lp309
(VLIPKA
VB
tp310
asg60
I1994
sg46
VLANT
p311
sbag1
(g2
g3
NtRp312
(dp313
g52
V10.1146/annurev.pp.45.060194.002311
p314
sg48
VANNU REV PLANT PHYS
p315
sg50
V45
p316
sg81
(lp317
(VMARTINOIA
VE
tp318
asg60
I1994
sg46
V447
p319
sbag1
(g2
g3
NtRp320
(dp321
g52
V10.1023/A:1010665910095
p322
sg48
VPLANT MOL BIOL
p323
sg50
V45
p324
sg81
(lp325
(VMAURINO
VV G
tp326
asg60
I2001
sg46
VLANT
p327
sbag1
(g2
g3
NtRp328
(dp329
g52
V10.1093/jxb/48.3.799
p330
sg48
VJ EXP BOT
p331
sg50
V48
p332
sg81
(lp333
(VMAURINO
VV G
tp334
asg60
I1997
sg46
V799
p335
sbag1
(g2
g3
NtRp336
(dp337
g52
V10.1111/j.1399-3054.1962.tb08052.x
p338
sg48
VPHYSIOL PLANTARUM
p339
sg50
V15
p340
sg81
(lp341
(VMURASHIGE
VT
tp342
asg60
I1962
sg46
VHYSIOL
p343
sbag1
(g2
g3
NtRp344
(dp345
g52
V10.1007/BF00015814
p346
sg48
VPLANT MOL BIOL
p347
sg50
V8
sg81
(lp348
(VNEGRUTIU
VI
tp349
asg60
I1987
sg46
VLANT
p350
sbag1
(g2
g3
NtRp351
(dp352
g52
V10.1104/pp.68.5.1047
p353
sg48
VPLANT PHYSIOL
p354
sg50
V68
p355
sg81
(lp356
(VOUTLAW
VW H
tp357
asg60
I1981
sg46
VLANT
p358
sbag1
(g2
g3
NtRp359
(dp360
g52
V10.1007/s004970050122
p361
sg48
VSEX PLANT REPROD
p362
sg50
V11
p363
sg81
(lp364
(VPIFFANELLI
VP
tp365
asg60
I1998
sg46
V65
p366
sbag1
(g2
g3
NtRp367
(dp368
g52
Nsg48
VJ PLANT PHYSIOL
p369
sg50
V143
p370
sg81
(lp371
(VPREISS
VM
tp372
asg60
I1994
sg46
V544
p373
sbag1
(g2
g3
NtRp374
(dp375
g52
Nsg48
VPHYTOCHEMISTRY
p376
sg50
V16
p377
sg81
(lp378
(VPRYKE
VJ A
tp379
asg60
I1977
sg46
VHYTOCHEMISTRY
p380
sbag1
(g2
g3
NtRp381
(dp382
g52
Nsg48
VJ BIOL CHEM
p383
sg50
V264
p384
sg81
(lp385
(VROTHERMEL
VB A
tp386
asg60
I1989
sg46
V19587
p387
sbag1
(g2
g3
NtRp388
(dp389
g52
Nsg48
VPLANT MOL BIOL
p390
sg50
V55
p391
sg81
(lp392
(VSAIGO
VM
tp393
asg60
I2004
sg46
VLANT
p394
sbag1
(g2
g3
NtRp395
(dp396
g52
Nsg48
VPLANT CELL PHYSIOL
p397
sg50
V33
p398
sg81
(lp399
(VSAITOU
VK
tp400
asg60
I1992
sg46
VLANT
p401
sbag1
(g2
g3
NtRp402
(dp403
g52
Nsg48
VPLANT PHYSIOL
p404
sg50
V108
p405
sg81
(lp406
(VSCHAAF
VJ
tp407
asg60
I1995
sg46
VLANT
p408
sbag1
(g2
g3
NtRp409
(dp410
g52
V10.1016/0003-2697(77)90428-6
p411
sg48
VANAL BIOCHEM
p412
sg50
V79
p413
sg81
(lp414
(VSEDMAK
VJ J
tp415
asg60
I1977
sg46
V544
p416
sbag1
(g2
g3
NtRp417
(dp418
g52
V10.1104/pp.103.027615
p419
sg48
VPLANT PHYSIOL
p420
sg50
V134
p421
sg81
(lp422
(VSERGEEVA
VL I
tp423
asg60
I2004
sg46
VLANT
p424
sbag1
(g2
g3
NtRp425
(dp426
g52
V10.1104/pp.98.4.1233
p427
sg48
VPLANT PHYSIOL
p428
sg50
V98
p429
sg81
(lp430
(VSMITH
VR G
tp431
asg60
I1992
sg46
VLANT
p432
sbag1
(g2
g3
NtRp433
(dp434
g52
V10.1016/0269-7491(88)90084-X
p435
sg48
VENVIRON POLLUT
p436
sg50
V52
p437
sg81
(lp438
(VVANASSCHE
VF
tp439
asg60
I1988
sg46
V103
p440
sbag1
(g2
g3
NtRp441
(dp442
g52
V10.1104/pp.96.4.1385
p443
sg48
VPLANT PHYSIOL
p444
sg50
V96
p445
sg81
(lp446
(VVANDOORSSELAERE
VJ
tp447
asg60
I1991
sg46
VLANT
p448
sbag1
(g2
g3
NtRp449
(dp450
g52
V10.1007/BF00019173
p451
sg48
VPLANT MOL BIOL
p452
sg50
V15
p453
sg81
(lp454
(VWALTER
VM H
tp455
asg60
I1990
sg46
VLANT
p456
sbag1
(g2
g3
NtRp457
(dp458
g52
V10.1016/S0969-2126(99)80115-4
p459
sg48
VSTRUCT FOLD DES
p460
sg50
V7
sg81
(lp461
(VXU
VY W
tp462
asg60
I1999
sg46
V877
p463
sbag1
(g2
g3
NtRp464
(dp465
g52
V10.1110/ps.38002
p466
sg48
VPROTEIN SCI
p467
sg50
V11
p468
sg81
(lp469
(VYANG
VZ R
tp470
asg60
I2002
sg46
VROTEIN
p471
sbag1
(g2
g3
NtRp472
(dp473
g52
V10.1104/pp.104.046367
p474
sg48
VPLANT PHYSIOL
p475
sg50
V136
p476
sg81
(lp477
(VZIMMERMANN
VP
tp478
asg60
I2004
sg46
VLANT
p479
sbag1
(g2
g3
NtRp480
(dp481
g60
I2000
sg50
V408
p482
sg48
VP795
p483
sg52
Nsg46
V795
p484
sbasb.