ccopy_reg
_reconstructor
p1
(ctethne.classes.paper
Paper
p2
c__builtin__
object
p3
NtRp4
(dp5
S'publisherCity'
p6
VROCKVILLE
p7
sS'reprintAddress'
p8
VXu, ML (reprint author), China Agr Univ, Natl Maize Improvement Ctr China, Beijing 100193, Peoples R China.
p9
sS'WC'
p10
VPlant Sciences
p11
sS'GA'
p12
V905NY
p13
sS'FX'
p14
(lp15
VThis work was supported by the National High-Tech 863 Program of the
p16
aVPeople's Republic of China (grant no. 2002AA224041) and the National
p17
aVNatural Science Foundation of China (grant no. 30771318).
p18
asS'abstract'
p19
VThe S5 locus regulates spikelet fertility of indica/japonica hybrid rice (Oryza sativa). There are three alleles at the S5 locus, including an indica allele (S5i), a japonica allele (S5j), and a wide-compatibility allele (S5n). This study analyzed the molecular basis for S5-dependent reproductive isolation and compatibility of indica/japonica rice hybrids. Three S5 alleles were expressed at extremely low levels, and only in the ovary. S5n was more similar to S5i in both RNA and protein expression profiles. The S5 locus was not essential for embryo sac development, although deleterious interactions between S5i and S5j resulted in reduced rates of spikelet fertility. The yeast two-hybrid system was used to test direct interactions between S5-encoded proteins. The results indicated that the S5i- and S5j-encoded eukaryotic aspartyl proteases formed both homodimers and heterodimers, whereas the S5n-encoded aspartyl protease was incapable of dimerization. Site-directed mutagenesis revealed that a single amino acid difference between S5i- and S5j-encoded aspartyl proteases (phenylalanine/leucine at residue 273) was primarily responsible for embryo sac abortion. The S5 locus may have promoted the subspeciation of indica and japonica, but it also enables gene flow between them.
p20
sS'pageEnd'
p21
I1328
sS'date'
p22
I2012
sS'documentType'
p23
VArticle
p24
sS'subject'
p25
VPlant Sciences
p26
sS'isoSource'
p27
VPlant Physiol.
p28
sS'timesCited'
p29
(lp30
I0
aVZ9 1
p31
asS'funding'
p32
(lp33
(VNational High-Tech 863 Program of the People's Republic of China
V2002AA224041
tp34
a(VNational Natural Science Foundation of China
V30771318
tp35
asS'PT'
p36
VJ
sS'title'
p37
VMolecular Basis Underlying The S5-Dependent Reproductive Isolation And Compatibility Of Indica/Japonica Rice Hybrids
p38
sS'ISSN'
p39
(lp40
V0032-0889
p41
aVJ9 PLANT PHYSIOL
p42
asS'authors_full'
p43
(lp44
(VJI
VQING
tp45
a(VZHANG
VMEIJING
tp46
a(VLU
VJUFEI
tp47
a(VWANG
VHONGMEI
tp48
a(VLIN
VBING
tp49
a(VLIU
VQIAOQUAN
tp50
a(VCHAO
VQING
tp51
a(VZHANG
VYAN
tp52
a(VLIU
VCHUNXIA
tp53
a(VGU
VMINGHONG
tp54
a(VXU
VMINGLIANG
tp55
asS'PG'
p56
I10
sS'PD'
p57
VMAR
p58
sS'pageStart'
p59
I1319
sS'issue'
p60
I3
sS'journal'
p61
VPLANT PHYSIOLOGY
p62
sS'volume'
p63
V158
p64
sS'doi'
p65
V10.1104/pp.111.189571
p66
sS'emailAddress'
p67
Vmxu@cau.edu.cn
p68
sS'authorAddress'
p69
(lp70
V[Ji, Qing; Chao, Qing; Zhang, Yan; Liu, Chunxia; Xu, Mingliang] China Agr Univ, Natl Maize Improvement Ctr China, Beijing 100193, Peoples R China.
p71
aV[Zhang, Meijing; Lu, Jufei; Wang, Hongmei; Lin, Bing; Liu, Qiaoquan; Gu, Minghong] Yangzhou Univ, Minist Educ China, Key Lab Plant Funct Genom, Yangzhou 225009, Jiangsu, Peoples R China.
p72
aV[Zhang, Meijing; Lu, Jufei; Wang, Hongmei; Lin, Bing; Liu, Qiaoquan; Gu, Minghong] Yangzhou Univ, Jiangsu Key Lab Crop Genet & Physiol, Yangzhou 225009, Jiangsu, Peoples R China.
p73
aV[Xu, Mingliang] Beijing Key Lab Crop Genet Improvement, Beijing 100193, Peoples R China.
p74
asS'publisherAddress'
p75
V15501 MONONA DRIVE, ROCKVILLE, MD 20855 USA
p76
sS'ER'
p77
V
sS'publisher'
p78
VAMER SOC PLANT BIOLOGISTS
p79
sS'authorKeywords'
p80
(lp81
VINDICA-JAPONICA HYBRIDS
p82
aVORYZA-SATIVA L.
p83
aVWIDE-COMPATIBILITY
p84
aVS-5 LOCUS
p85
aVSTERILITY
p86
aVPROTEIN
p87
aVGENE
p88
aVPLANTS
p89
aVLEVEL
p90
aVS5
p91
asS'language'
p92
VEnglish
p93
sS'wosid'
p94
VWOS:000301280500018
p95
sS'citationCount'
p96
I33
sS'authors_init'
p97
(lp98
(VJI
VQ
tp99
a(VZHANG
VM J
tp100
a(VLU
VJ F
tp101
a(VWANG
VH M
tp102
a(VLIN
VB
tp103
a(VLIU
VQ Q
tp104
a(VCHAO
VQ
tp105
a(VZHANG
VY
tp106
a(VLIU
VC X
tp107
a(VGU
VM H
tp108
a(VXU
VM L
tp109
asS'citedReferences'
p110
(lp111
g1
(g2
g3
NtRp112
(dp113
g65
V10.1146/annurev-arplant-042809-112146
p114
sg61
VANNU REV PLANT BIOL
p115
sg63
V61
p116
sg97
(lp117
(VBOMBLIES
VK
tp118
asg22
I2010
sg59
V109
p119
sbag1
(g2
g3
NtRp120
(dp121
g65
V10.1016/0003-2697(81)90281-5
p122
sg61
VANAL BIOCHEM
p123
sg63
V112
p124
sg97
(lp125
(VBURNETTE
VW N
tp126
asg22
I1981
sg59
V195
p127
sbag1
(g2
g3
NtRp128
(dp129
g65
Nsg61
VEUPHYTICA
p130
sg63
V25
p131
sg97
(lp132
(VCHANG
VT T
tp133
asg22
I1976
sg59
V435
p134
sbag1
(g2
g3
NtRp135
(dp136
g65
V10.1073/pnas.0804761105
p137
sg61
VP NATL ACAD SCI USA
p138
sg63
V105
p139
sg97
(lp140
(VCHEN
VJ J
tp141
asg22
I2008
sg59
V11436
p142
sbag1
(g2
g3
NtRp143
(dp144
g65
V10.1016/j.gene.2009.04.021
p145
sg61
VGENE
p146
sg63
V442
p147
sg97
(lp148
(VCHEN
VJ J
tp149
asg22
I2009
sg59
V108
p150
sbag1
(g2
g3
NtRp151
(dp152
g65
V10.1002/elps.1150070108
p153
sg61
VELECTROPHORESIS
p154
sg63
V7
sg97
(lp155
(VDAMERVAL
VC
tp156
asg22
I1986
sg59
V52
p157
sbag1
(g2
g3
NtRp158
(dp159
g65
Nsg61
VACTA AGR SINICA
p160
sg63
V8
sg97
(lp161
(VDING
VY
tp162
asg22
I1957
sg59
V243
p163
sbag1
(g2
g3
NtRp164
(dp165
g65
V10.1007/BF00374056
p166
sg61
VZEITSCHR ZELLJORSCH U MIKROSK ANAT
p167
sg63
V21
p168
sg97
(lp169
(VDOBZHANSKY
VT H
tp170
asg22
I1934
sg59
V169
p171
sbag1
(g2
g3
NtRp172
(dp173
g65
V10.1038/sj.embor.7400357
p174
sg61
VEMBO REP
p175
sg63
V6
sg97
(lp176
(VGE
VX C
tp177
asg22
I2005
sg59
V282
p178
sbag1
(g2
g3
NtRp179
(dp180
g65
V10.1142/9789812814265_0011
p181
sg61
VManila
p182
sg63
Nsg97
(lp183
(VIKEHASHI H 1986 RICE GENETICS PROCEEDINGS OF THE INTERNATIONAL RICE GENETICS SYMPOSIUM 2731 MAY
S''
tp184
asg22
I1985
sg59
Vhilippines
p185
sbag1
(g2
g3
NtRp186
(dp187
g65
V10.1007/s00122-005-0078-0
p188
sg61
VTHEOR APPL GENET
p189
sg63
V111
p190
sg97
(lp191
(VJI
VQ
tp192
asg22
I2005
sg59
V1495
p193
sbag1
(g2
g3
NtRp194
(dp195
g65
V10.1016/S1673-8527(09)60025-4
p196
sg61
VJ GENET GENOMICS
p197
sg63
V37
p198
sg97
(lp199
(VJI
VQ
tp200
asg22
I2010
sg59
V57
p201
sbag1
(g2
g3
NtRp202
(dp203
g65
Nsg61
VBULT SCI FAK TERK KJUSU IMP UNIV
p204
sg63
V3
sg97
(lp205
(VKATO
VSHIGEMOTO
tp206
asg22
I1928
sg59
V132
p207
sbag1
(g2
g3
NtRp208
(dp209
g65
Nsg61
VActa Genetica Sinica
p210
sg63
V28
p211
sg97
(lp212
(VLIANG
VGUOHUA
tp213
asg22
I2001
sg59
V447
p214
sbag1
(g2
g3
NtRp215
(dp216
g65
Nsg61
VRICE GENET NEWSL
p217
sg63
V9
sg97
(lp218
(VLIU
VA
tp219
asg22
I1992
sg59
V134
p220
sbag1
(g2
g3
NtRp221
(dp222
g65
V10.1007/BF00027476
p223
sg61
VEUPHYTICA
p224
sg63
V90
p225
sg97
(lp226
(VLIU
VK D
tp227
asg22
I1996
sg59
V275
p228
sbag1
(g2
g3
NtRp229
(dp230
g65
V10.1007/s001220050629
p231
sg61
VTHEOR APPL GENET
p232
sg63
V95
p233
sg97
(lp234
(VLIU
VK D
tp235
asg22
I1997
sg59
V809
p236
sbag1
(g2
g3
NtRp237
(dp238
g65
V10.1073/pnas.0810108105
p239
sg61
VP NATL ACAD SCI USA
p240
sg63
V105
p241
sg97
(lp242
(VLONG
VY M
tp243
asg22
I2008
sg59
V18871
p244
sbag1
(g2
g3
NtRp245
(dp246
g65
V10.1007/s00122-002-1013-2
p247
sg61
VTHEOR APPL GENET
p248
sg63
V106
p249
sg97
(lp250
(VLU
VB R
tp251
asg22
I2002
sg59
V101
p252
sbag1
(g2
g3
NtRp253
(dp254
g65
V10.1111/j.1745-7270.2006.00188.x
p255
sg61
VACTA BIOCH BIOPH SIN
p256
sg63
V38
p257
sg97
(lp258
(VLU
VQ
tp259
asg22
I2006
sg59
V492
p260
sbag1
(g2
g3
NtRp261
(dp262
g65
Nsg61
VBIOL S
p263
sg63
V6
sg97
(lp264
(VMULLER
VH J
tp265
asg22
I1942
sg59
V71
p266
sbag1
(g2
g3
NtRp267
(dp268
g65
Nsg61
VORIGIN CULTIVATED RI
p269
sg63
Nsg97
(lp270
(VOKA
VH I
tp271
asg22
I1988
sg59
Nsbag1
(g2
g3
NtRp272
(dp273
g65
V10.1007/s11434-009-0371-4
p274
sg61
VCHINESE SCI BULL
p275
sg63
V54
p276
sg97
(lp277
(VOUYANG
VY D
tp278
asg22
I2009
sg59
V2332
p279
sbag1
(g2
g3
NtRp280
(dp281
g65
V10.1016/j.pbi.2010.01.002
p282
sg61
VCURR OPIN PLANT BIOL
p283
sg63
V13
p284
sg97
(lp285
(VOUYANG
VY D
tp286
asg22
I2010
sg59
V186
p287
sbag1
(g2
g3
NtRp288
(dp289
g65
V10.1104/pp.112.3.893
p290
sg61
VPLANT PHYSIOL
p291
sg63
V112
p292
sg97
(lp293
(VPANG
VS Z
tp294
asg22
I1996
sg59
VLANT
p295
sbag1
(g2
g3
NtRp296
(dp297
g65
V10.1007/s00122-005-0033-0
p298
sg61
VTHEOR APPL GENET
p299
sg63
V111
p300
sg97
(lp301
(VQIU
VS Q
tp302
asg22
I2005
sg59
V1080
p303
sbag1
(g2
g3
NtRp304
(dp305
g65
Nsg61
VMOL CLONING LAB MANU
p306
sg63
Nsg97
(lp307
(VSAMBROOK
VJ
tp308
asg22
I2001
sg59
Nsbag1
(g2
g3
NtRp309
(dp310
g65
V10.1074/jbc.M702477200
p311
sg61
VJ BIOL CHEM
p312
sg63
V282
p313
sg97
(lp314
(VSIMOES
VI
tp315
asg22
I2007
sg59
V31358
p316
sbag1
(g2
g3
NtRp317
(dp318
g65
V10.1017/S0016672305007779
p319
sg61
VGENET RES
p320
sg63
V86
p321
sg97
(lp322
(VWANG
VC M
tp323
asg22
I2005
sg59
V97
p324
sbag1
(g2
g3
NtRp325
(dp326
g65
V10.1007/s001220050910
p327
sg61
VTHEOR APPL GENET
p328
sg63
V97
p329
sg97
(lp330
(VWANG
VJ
tp331
asg22
I1998
sg59
V407
p332
sbag1
(g2
g3
NtRp333
(dp334
g65
Nsg61
VActa Genetica Sinica
p335
sg63
V27
p336
sg97
(lp337
(VYAN
VCHANGJIE
tp338
asg22
I2000
sg59
V409
p339
sbag1
(g2
g3
NtRp340
(dp341
g65
Nsg61
VTHEOR APPL GENET
p342
sg63
V90
p343
sg97
(lp344
(VYANAGIHARA
VS
tp345
asg22
I1995
sg59
V182
p346
sbag1
(g2
g3
NtRp347
(dp348
g65
Nsg61
VActa Genetica Sinica
p349
sg63
V28
p350
sg97
(lp351
(VYI
VCHUANDENG
tp352
asg22
I2001
sg59
V540
p353
sbasb.