ccopy_reg
_reconstructor
p1
(ctethne.classes.paper
Paper
p2
c__builtin__
object
p3
NtRp4
(dp5
S'publisherCity'
p6
VROCKVILLE
p7
sS'reprintAddress'
p8
VKater, MM (reprint author), Univ Milan, Dipartimento Sci Biomol & Biotechnol, I-20133 Milan, Italy.
p9
sS'WC'
p10
VPlant Sciences
p11
sS'GA'
p12
V848QO
p13
sS'abstract'
p14
VMADS box transcription factors controlling flower development have been isolated and studied in a wide variety of organisms. These studies have shown that homologous MAIDS box genes from different species often have similar functions. OsMADS18 from rice (Oryza sativa) belongs to the phylogenetically defined AP1/SQUA group. The MADS box genes of this group have functions in plant development, like controlling the transition from vegetative to reproductive growth, determination of floral organ identity, and regulation of fruit maturation. In this paper we report the functional analysis of OsMADS18. This rice MADS box gene is widely expressed in rice with its transcripts accumulated to higher levels in meristems. Overexpression of OsMADS18 in rice induced early flowering, and detailed histological analysis revealed that the formation of axillary shoot meristems was accelerated. Silencing of OsMADS18 using an RNA interference approach did not result in any visible phenotypic alteration, indicating that OsMADS18 is probably redundant with other MADS box transcription factors. Surprisingly, overexpression of OsMADS18 in Arabidopsis caused a phenotype closely resembling the ap1 mutant. We show that the ap1 phenotype is not caused by down-regulation of AP1 expression. Yeast two-hybrid experiments showed that some of the natural partners of AP1 interact with OsMADS18, suggesting that the OsMADS18 overexpression phenotype in Arabidopsis is likely to be due to the subtraction of AP1 partners from active transcription complexes. Thus, when compared to AP1, OsMADS18 during evolution seems to have conserved the mechanistic properties of protein-protein interactions, although it cannot complement the AP1 function.
p15
sS'pageEnd'
p16
I2219
sS'date'
p17
I2004
sS'documentType'
p18
VArticle
p19
sS'subject'
p20
VPlant Sciences
p21
sS'isoSource'
p22
VPlant Physiol.
p23
sS'timesCited'
p24
(lp25
I67
aVZ9 85
p26
asS'PT'
p27
VJ
sS'title'
p28
VFunctional Characterization Of Osmads18, A Member Of The Ap1/Squa Subfamily Of Mads Box Genes
p29
sS'ISSN'
p30
(lp31
V0032-0889
p32
aVJ9 PLANT PHYSIOL
p33
asS'authors_full'
p34
(lp35
(VFORNARA
VF
tp36
a(VPARENICOVA
VL
tp37
a(VFALASCA
VG
tp38
a(VPELUCCHI
VN
tp39
a(VMASIERO
VS
tp40
a(VCIANNAMEA
VS
tp41
a(VLOPEZDEE
VZ
tp42
a(VALTAMURA
VMM
tp43
a(VCOLOMBO
VL
tp44
a(VKATER
VMM
tp45
asS'PG'
p46
I13
sS'PD'
p47
VAUG
p48
sS'pageStart'
p49
I2207
sS'issue'
p50
I4
sS'RI'
p51
VFornara, Fabio/B-9978-2012; Masiero, Simona/J-2898-2013
p52
sS'journal'
p53
VPLANT PHYSIOLOGY
p54
sS'volume'
p55
V135
p56
sS'doi'
p57
V10.1104/pp.104.045039
p58
sS'emailAddress'
p59
Vmartin.kater@unimi.it
p60
sS'authorAddress'
p61
(lp62
VUniv Milan, Dipartimento Sci Biomol & Biotechnol, I-20133 Milan, Italy.
p63
aVUniv Milan, Dipartimento Biol, I-20133 Milan, Italy.
p64
aVUniv Roma La Sapienza, Dipartimento Biol Vegetale, I-00185 Rome, Italy.
p65
asS'publisherAddress'
p66
V15501 MONONA DRIVE, ROCKVILLE, MD 20855 USA
p67
sS'ER'
p68
V
sS'publisher'
p69
VAMER SOC PLANT BIOLOGISTS
p70
sS'authorKeywords'
p71
(lp72
VFLORAL ORGAN IDENTITY
p73
aVCONTROLLING FLOWER DEVELOPMENT
p74
aVPROTEIN-PROTEIN INTERACTIONS
p75
aVTERNARY COMPLEX-FORMATION
p76
aVTRANSGENIC RICE PLANTS
p77
aVECTOPIC EXPRESSION
p78
aVANTIRRHINUM-MAJUS
p79
aVOVULE DEVELOPMENT
p80
aVTRANSCRIPTION FACTORS
p81
aVARABIDOPSIS-THALIANA
p82
asS'language'
p83
VEnglish
p84
sS'wosid'
p85
VWOS:000223482400033
p86
sS'citationCount'
p87
I81
sS'authors_init'
p88
(lp89
(VFORNARA
VF
tp90
a(VPARENICOVA
VL
tp91
a(VFALASCA
VG
tp92
a(VPELUCCHI
VN
tp93
a(VMASIERO
VS
tp94
a(VCIANNAMEA
VS
tp95
a(VLOPEZDEE
VZ
tp96
a(VALTAMURA
VM M
tp97
a(VCOLOMBO
VL
tp98
a(VKATER
VM M
tp99
asS'citedReferences'
p100
(lp101
g1
(g2
g3
NtRp102
(dp103
g57
V10.1016/S1097-2765(00)80450-5
p104
sg53
VMOL CELL
p105
sg55
V5
sg88
(lp106
(VAMBROSE
VB A
tp107
asg17
I2000
sg49
V569
p108
sbag1
(g2
g3
NtRp109
(dp110
g57
Nsg53
VPLANT CELL
p111
sg55
V7
sg88
(lp112
(VANGENENT
VG C
tp113
asg17
I1995
sg49
VLANT
p114
sbag1
(g2
g3
NtRp115
(dp116
g57
V10.1046/j.1365-313x.2001.00974.x
p117
sg53
VPLANT J
p118
sg55
V25
p119
sg88
(lp120
(VBERBEL
VA
tp121
asg17
I2001
sg49
VLANT
p122
sbag1
(g2
g3
NtRp123
(dp124
g57
Nsg53
VDEVELOPMENT
p125
sg55
V112
p126
sg88
(lp127
(VBOWMAN
VJ L
tp128
asg17
I1991
sg49
V1
sbag1
(g2
g3
NtRp129
(dp130
g57
Nsg53
VDEVELOPMENT
p131
sg55
V119
p132
sg88
(lp133
(VBOWMAN
VJ L
tp134
asg17
I1993
sg49
V721
p135
sbag1
(g2
g3
NtRp136
(dp137
g57
V10.1101/gad.4.9.1483
p138
sg53
VGENE DEV
p139
sg55
V4
sg88
(lp140
(VCARPENTER
VR
tp141
asg17
I1990
sg49
V1483
p142
sbag1
(g2
g3
NtRp143
(dp144
g57
V10.1007/BF00013751
p145
sg53
VPLANT MOL BIOL
p146
sg55
V26
p147
sg88
(lp148
(VCHUNG
VY Y
tp149
asg17
I1994
sg49
VLANT
p150
sbag1
(g2
g3
NtRp151
(dp152
g57
V10.1016/0168-9452(95)04153-L
p153
sg53
VPLANT SCI
p154
sg55
V109
p155
sg88
(lp156
(VCHUNG
VY Y
tp157
asg17
I1995
sg49
VLANT
p158
sbag1
(g2
g3
NtRp159
(dp160
g57
Nsg53
VGRAS SYSTEMATICS EVO
p161
sg55
Nsg88
(lp162
(VCLIFFORD
VH T
tp163
asg17
I1987
sg49
Nsbag1
(g2
g3
NtRp164
(dp165
g57
V10.1046/j.1365-313x.1998.00343.x
p166
sg53
VPLANT J
p167
sg55
V16
p168
sg88
(lp169
(VCLOUGH
VS J
tp170
asg17
I1998
sg49
VLANT
p171
sbag1
(g2
g3
NtRp172
(dp173
g57
V10.1038/353031a0
p174
sg53
VNATURE
p175
sg55
V353
p176
sg88
(lp177
(VCOEN
VE S
tp178
asg17
I1991
sg49
V31
p179
sbag1
(g2
g3
NtRp180
(dp181
g57
Nsg53
VPLANT CELL
p182
sg55
V7
sg88
(lp183
(VCOLOMBO
VL
tp184
asg17
I1995
sg49
VLANT
p185
sbag1
(g2
g3
NtRp186
(dp187
g57
V10.1046/j.1365-313x.1998.00300.x
p188
sg53
VPLANT J
p189
sg55
V16
p190
sg88
(lp191
(VCOLOMBO
VL
tp192
asg17
I1998
sg49
VLANT
p193
sbag1
(g2
g3
NtRp194
(dp195
g57
V10.1093/nar/17.1.19
p196
sg53
VNUCLEIC ACIDS RES
p197
sg55
V17
p198
sg88
(lp199
(VCORNELISSEN
VM
tp200
asg17
I1989
sg49
V19
p201
sbag1
(g2
g3
NtRp202
(dp203
g57
Nsg53
VEMBO J
p204
sg55
V15
p205
sg88
(lp206
(VDAVIES
VB
tp207
asg17
I1996
sg49
V4330
p208
sbag1
(g2
g3
NtRp209
(dp210
g57
Nsg53
VMethods in Molecular and Cellular Biology
p211
sg55
V1
sg88
(lp212
(VDENECKE
VJ
tp213
asg17
I1989
sg49
V19
p214
sbag1
(g2
g3
NtRp215
(dp216
g57
V10.1093/emboj/18.19.5370
p217
sg53
VEMBO J
p218
sg55
V18
p219
sg88
(lp220
(VEGEA-CORTINES
VM
tp221
asg17
I1999
sg49
V5370
p222
sbag1
(g2
g3
NtRp223
(dp224
g57
V10.1046/j.1365-313X.1997.12050999.x
p225
sg53
VPLANT J
p226
sg55
V12
p227
sg88
(lp228
(VFAN
VH Y
tp229
asg17
I1997
sg49
VLANT
p230
sbag1
(g2
g3
NtRp231
(dp232
g57
V10.1105/tpc.015123
p233
sg53
VPLANT CELL
p234
sg55
V15
p235
sg88
(lp236
(VFAVARO
VR
tp237
asg17
I2003
sg49
VLANT
p238
sbag1
(g2
g3
NtRp239
(dp240
g57
V10.1007/s00438-002-0746-6
p241
sg53
VMOL GENET GENOMICS
p242
sg55
V268
p243
sg88
(lp244
(VFAVARO
VR
tp245
asg17
I2002
sg49
V152
p246
sbag1
(g2
g3
NtRp247
(dp248
g57
V10.1093/nar/22.8.1502
p249
sg53
VNUCLEIC ACIDS RES
p250
sg55
V22
p251
sg88
(lp252
(VFEILOTTER
VH E
tp253
asg17
I1994
sg49
V1502
p254
sbag1
(g2
g3
NtRp255
(dp256
g57
Nsg53
VDEVELOPMENT
p257
sg55
V127
p258
sg88
(lp259
(VFERRANDIZ
VC
tp260
asg17
I2000
sg49
V725
p261
sbag1
(g2
g3
NtRp262
(dp263
g57
V10.1126/science.289.5478.436
p264
sg53
VSCIENCE
p265
sg55
V289
p266
sg88
(lp267
(VFERRANDIZ
VC
tp268
asg17
I2000
sg49
V436
p269
sbag1
(g2
g3
NtRp270
(dp271
g57
V10.1105/tpc.010280
p272
sg53
VPLANT CELL
p273
sg55
V15
p274
sg88
(lp275
(VFERRARIO
VS
tp276
asg17
I2003
sg49
VLANT
p277
sbag1
(g2
g3
NtRp278
(dp279
g57
V10.1055/s-2003-37975
p280
sg53
VPLANT BIOLOGY
p281
sg55
V5
sg88
(lp282
(VFORNARA
VF
tp283
asg17
I2003
sg49
VLANT
p284
sbag1
(g2
g3
NtRp285
(dp286
g57
V10.1104/pp.125.4.1788
p287
sg53
VPLANT PHYSIOL
p288
sg55
V125
p289
sg88
(lp290
(VGOCAL
VG F W
tp291
asg17
I2001
sg49
VLANT
p292
sbag1
(g2
g3
NtRp293
(dp294
g57
V10.1101/gad.8.13.1548
p295
sg53
VGENE DEV
p296
sg55
V8
sg88
(lp297
(VGOTO
VK
tp298
asg17
I1994
sg49
V1548
p299
sbag1
(g2
g3
NtRp300
(dp301
g57
Nsg53
VMOL GEN GENET
p302
sg55
V253
p303
sg88
(lp304
(VGRECO
VR
tp305
asg17
I1997
sg49
V615
p306
sbag1
(g2
g3
NtRp307
(dp308
g57
V10.1007/BF00322463
p309
sg53
VMOL GEN GENET
p310
sg55
V212
p311
sg88
(lp312
(VHARPSTER
VM H
tp313
asg17
I1988
sg49
V182
p314
sbag1
(g2
g3
NtRp315
(dp316
g57
V10.1046/j.1365-313x.2000.00682.x
p317
sg53
VPLANT J
p318
sg55
V21
p319
sg88
(lp320
(VHARTMANN
VU
tp321
asg17
I2000
sg49
VLANT
p322
sbag1
(g2
g3
NtRp323
(dp324
g57
V10.1038/nature01549
p325
sg53
VNATURE
p326
sg55
V422
p327
sg88
(lp328
(VHAYAMA
VR
tp329
asg17
I2003
sg49
V719
p330
sbag1
(g2
g3
NtRp331
(dp332
g57
V10.1023/A:1005847615493
p333
sg53
VPLANT MOL BIOL
p334
sg55
V35
p335
sg88
(lp336
(VHIEI
VY
tp337
asg17
I1997
sg49
VLANT
p338
sbag1
(g2
g3
NtRp339
(dp340
g57
V10.1038/35054083
p341
sg53
VNATURE
p342
sg55
V409
p343
sg88
(lp344
(VHONMA
VT
tp345
asg17
I2001
sg49
V525
p346
sbag1
(g2
g3
NtRp347
(dp348
g57
Nsg53
VEMBO J
p349
sg55
V11
p350
sg88
(lp351
(VHUIJSER
VP
tp352
asg17
I1992
sg49
V1239
p353
sbag1
(g2
g3
NtRp354
(dp355
g57
V10.1007/s00438-002-0781-3
p356
sg53
VMOL GENET GENOMICS
p357
sg55
V268
p358
sg88
(lp359
(VIMMINK
VR G H
tp360
asg17
I2003
sg49
V598
p361
sbag1
(g2
g3
NtRp362
(dp363
g57
V10.1016/S1360-1385(02)02343-9
p364
sg53
VTRENDS PLANT SCI
p365
sg55
V7
sg88
(lp366
(VIMMINK
VR G H
tp367
asg17
I2002
sg49
V531
p368
sbag1
(g2
g3
NtRp369
(dp370
g57
Nsg53
VPLANT CELL
p371
sg55
V2
sg88
(lp372
(VIRISH
VV F
tp373
asg17
I1990
sg49
VLANT
p374
sbag1
(g2
g3
NtRp375
(dp376
g57
Nsg53
VGENETICS
p377
sg55
V144
p378
sg88
(lp379
(VJAMES
VP
tp380
asg17
I1996
sg49
V1425
p381
sbag1
(g2
g3
NtRp382
(dp383
g57
V10.1093/pcp/pcf015
p384
sg53
VPLANT CELL PHYSIOL
p385
sg55
V43
p386
sg88
(lp387
(VJANG
VS H
tp388
asg17
I2002
sg49
VLANT
p389
sbag1
(g2
g3
NtRp390
(dp391
g57
V10.1105/tpc.12.6.871
p392
sg53
VPLANT CELL
p393
sg55
V12
p394
sg88
(lp395
(VJEON
VJ S
tp396
asg17
I2000
sg49
VLANT
p397
sbag1
(g2
g3
NtRp398
(dp399
g57
V10.1023/A:1011388620872
p400
sg53
VMOL BREEDING
p401
sg55
V6
sg88
(lp402
(VJEON
VJ S
tp403
asg17
I2000
sg49
V581
p404
sbag1
(g2
g3
NtRp405
(dp406
g57
Nsg53
VMOL CELLS
p407
sg55
V7
sg88
(lp408
(VKANG
VH G
tp409
asg17
I1997
sg49
V559
p410
sbag1
(g2
g3
NtRp411
(dp412
g57
V10.1007/BF00019114
p413
sg53
VPLANT MOL BIOL
p414
sg55
V29
p415
sg88
(lp416
(VKANG
VH G
tp417
asg17
I1995
sg49
VLANT
p418
sbag1
(g2
g3
NtRp419
(dp420
g57
V10.1023/A:1006051911291
p421
sg53
VPLANT MOL BIOL
p422
sg55
V38
p423
sg88
(lp424
(VKANG
VH G
tp425
asg17
I1998
sg49
VLANT
p426
sbag1
(g2
g3
NtRp427
(dp428
g57
V10.1105/tpc.13.3.481
p429
sg53
VPLANT CELL
p430
sg55
V13
p431
sg88
(lp432
(VKATER
VM M
tp433
asg17
I2001
sg49
VLANT
p434
sbag1
(g2
g3
NtRp435
(dp436
g57
Nsg53
VPLANT CELL
p437
sg55
V10
p438
sg88
(lp439
(VKATER
VM M
tp440
asg17
I1998
sg49
VLANT
p441
sbag1
(g2
g3
NtRp442
(dp443
g57
V10.1073/pnas.93.9.4063
p444
sg53
VP NATL ACAD SCI USA
p445
sg55
V93
p446
sg88
(lp447
(VKRIZEK
VB A
tp448
asg17
I1996
sg49
V4063
p449
sbag1
(g2
g3
NtRp450
(dp451
g57
V10.1093/pcp/pcf010
p452
sg53
VPLANT CELL PHYSIOL
p453
sg55
V43
p454
sg88
(lp455
(VKYOZUKA
VJ
tp456
asg17
I2002
sg49
VLANT
p457
sbag1
(g2
g3
NtRp458
(dp459
g57
Nsg53
VPLANT CELL PHYSIOL
p460
sg55
V41
p461
sg88
(lp462
(VKYOZUKA
VJ
tp463
asg17
I2000
sg49
VLANT
p464
sbag1
(g2
g3
NtRp465
(dp466
g57
Nsg53
VPLANT CELL PHYSL
p467
sg55
V44
p468
sg88
(lp469
(VLEE
VS
tp470
asg17
I2000
sg49
VLANT
p471
sbag1
(g2
g3
NtRp472
(dp473
g57
V10.1023/A:1026517111843
p474
sg53
VPLANT MOL BIOL
p475
sg55
V44
p476
sg88
(lp477
(VLIM
VJ
tp478
asg17
I2000
sg49
VLANT
p479
sbag1
(g2
g3
NtRp480
(dp481
g57
Nsg53
VGENETICS
p482
sg55
V165
p483
sg88
(lp484
(VLITT
VA
tp485
asg17
I2003
sg49
V821
p486
sbag1
(g2
g3
NtRp487
(dp488
g57
V10.1002/(SICI)1520-6408(1999)25:3<237::AID-DVG6>3.0.CO;2-L
p489
sg53
VDEV GENET
p490
sg55
V25
p491
sg88
(lp492
(VLOPEZ-DEE
VZ P
tp493
asg17
I1999
sg49
V237
p494
sbag1
(g2
g3
NtRp495
(dp496
g57
V10.1101/gad.5.3.484
p497
sg53
VGENE DEV
p498
sg55
V5
sg88
(lp499
(VMA
VH
tp500
asg17
I1991
sg49
V484
p501
sbag1
(g2
g3
NtRp502
(dp503
g57
Nsg53
VNATURE
p504
sg55
V360
p505
sg88
(lp506
(VMANDEL
VM A
tp507
asg17
I1992
sg49
V273
p508
sbag1
(g2
g3
NtRp509
(dp510
g57
V10.1038/377522a0
p511
sg53
VNATURE
p512
sg55
V377
p513
sg88
(lp514
(VMANDEL
VM A
tp515
asg17
I1995
sg49
V522
p516
sbag1
(g2
g3
NtRp517
(dp518
g57
V10.1074/jbc.M202546200
p519
sg53
VJ BIOL CHEM
p520
sg55
V277
p521
sg88
(lp522
(VMASIERO
VS
tp523
asg17
I2002
sg49
V26429
p524
sbag1
(g2
g3
NtRp525
(dp526
g57
Nsg53
VPLANT J
p527
sg55
V8
sg88
(lp528
(VMENA
VM
tp529
asg17
I1995
sg49
VLANT
p530
sbag1
(g2
g3
NtRp531
(dp532
g57
V10.1046/j.1365-313X.1996.09030399.x
p533
sg53
VPLANT J
p534
sg55
V9
sg88
(lp535
(VMENZEL
VG
tp536
asg17
I1996
sg49
VLANT
p537
sbag1
(g2
g3
NtRp538
(dp539
g57
V10.1046/j.1365-313X.2003.01671.x
p540
sg53
VPLANT J
p541
sg55
V33
p542
sg88
(lp543
(VMICHAELS
VS D
tp544
asg17
I2003
sg49
VLANT
p545
sbag1
(g2
g3
NtRp546
(dp547
g57
V10.1023/A:1026429922616
p548
sg53
VPLANT MOL BIOL
p549
sg55
V40
p550
sg88
(lp551
(VMOON
VY H
tp552
asg17
I1999
sg49
VLANT
p553
sbag1
(g2
g3
NtRp554
(dp555
g57
V10.1104/pp.120.4.1193
p556
sg53
VPLANT PHYSIOL
p557
sg55
V120
p558
sg88
(lp559
(VMOON
VY H
tp560
asg17
I1999
sg49
VLANT
p561
sbag1
(g2
g3
NtRp562
(dp563
g57
V10.1038/35012103
p564
sg53
VNATURE
p565
sg55
V405
p566
sg88
(lp567
(VPELAZ
VS
tp568
asg17
I2000
sg49
V200
p569
sbag1
(g2
g3
NtRp570
(dp571
g57
V10.1046/j.1365-313X.2001.2641042.x
p572
sg53
VPLANT J
p573
sg55
V26
p574
sg88
(lp575
(VPELAZ
VS
tp576
asg17
I2001
sg49
VLANT
p577
sbag1
(g2
g3
NtRp578
(dp579
g57
V10.1007/s00497-002-0151-7
p580
sg53
VSEX PLANT REPROD
p581
sg55
V15
p582
sg88
(lp583
(VPELUCCHI
VN
tp584
asg17
I2002
sg49
V113
p585
sbag1
(g2
g3
NtRp586
(dp587
g57
V10.1038/nature01741
p588
sg53
VNATURE
p589
sg55
V424
p590
sg88
(lp591
(VPINYOPICH
VA
tp592
asg17
I2003
sg49
V85
p593
sbag1
(g2
g3
NtRp594
(dp595
g57
Nsg53
VPLANT CELL
p596
sg55
V6
sg88
(lp597
(VPNUELI
VL
tp598
asg17
I1994
sg49
VLANT
p599
sbag1
(g2
g3
NtRp600
(dp601
g57
Nsg53
VGENETICS
p602
sg55
V140
p603
sg88
(lp604
(VPURUGGANAN
VM D
tp605
asg17
I1995
sg49
V345
p606
sbag1
(g2
g3
NtRp607
(dp608
g57
V10.1016/S1369-5266(98)80129-5
p609
sg53
VCURR OPIN PLANT BIOL
p610
sg55
V1
sg88
(lp611
(VSCHMIDT
VR J
tp612
asg17
I1998
sg49
V60
p613
sbag1
(g2
g3
NtRp614
(dp615
g57
V10.1023/A:1006425619953
p616
sg53
VPLANT MOL BIOL
p617
sg55
V42
p618
sg88
(lp619
(VSCHMITZ
VJ
tp620
asg17
I2000
sg49
VLANT
p621
sbag1
(g2
g3
NtRp622
(dp623
g57
Nsg53
VDEVELOPMENT
p624
sg55
V119
p625
sg88
(lp626
(VSCHULTZ
VE A
tp627
asg17
I1993
sg49
V745
p628
sbag1
(g2
g3
NtRp629
(dp630
g57
V10.1126/science.250.4983.931
p631
sg53
VSCIENCE
p632
sg55
V250
p633
sg88
(lp634
(VSCHWARZSOMMER
VZ
tp635
asg17
I1990
sg49
V931
p636
sbag1
(g2
g3
NtRp637
(dp638
g57
Nsg53
VMETHOD ENZYMOL
p639
sg55
V185
p640
sg88
(lp641
(VSTUDIER
VF W
tp642
asg17
I1990
sg49
V60
p643
sbag1
(g2
g3
NtRp644
(dp645
g57
V10.1073/pnas.1635053100
p646
sg53
VP NATL ACAD SCI USA
p647
sg55
V100
p648
sg88
(lp649
(VTREVASKIS
VB
tp650
asg17
I2003
sg49
V13099
p651
sbag1
(g2
g3
NtRp652
(dp653
g57
V10.1093/nar/gkg642
p654
sg53
VNUCLEIC ACIDS RES
p655
sg55
V31
p656
sg88
(lp657
(VVANDENBUSSCHE
VM
tp658
asg17
I2003
sg49
V4401
p659
sbag1
(g2
g3
NtRp660
(dp661
g57
V10.1093/nar/17.6.2362
p662
sg53
VNUCLEIC ACIDS RES
p663
sg55
V17
p664
sg88
(lp665
(VVERWOERD
VT C
tp666
asg17
I1989
sg49
V2362
p667
sbag1
(g2
g3
NtRp668
(dp669
g57
V10.1023/A:1025401611354
p670
sg53
VPLANT MOL BIOL
p671
sg55
V52
p672
sg88
(lp673
(VXIAO
VH
tp674
asg17
I2003
sg49
VLANT
p675
sbag1
(g2
g3
NtRp676
(dp677
g57
V10.1105/tpc.12.8.1257
p678
sg53
VPLANT CELL
p679
sg55
V12
p680
sg88
(lp681
(VYALOVSKY
VS
tp682
asg17
I2000
sg49
VLANT
p683
sbag1
(g2
g3
NtRp684
(dp685
g57
Nsg53
VP NATL ACAD SCI USA
p686
sg55
V100
p687
sg88
(lp688
(VYAN
VL
tp689
asg17
I2000
sg49
V6263
p690
sbag1
(g2
g3
NtRp691
(dp692
g57
V10.1046/j.0960-7412.2003.01473.x
p693
sg53
VPLANT J
p694
sg55
V33
p695
sg88
(lp696
(VYANG
VY Z
tp697
asg17
I2003
sg49
VLANT
p698
sbag1
(g2
g3
NtRp699
(dp700
g57
V10.1073/pnas.212624599
p701
sg53
VP NATL ACAD SCI USA
p702
sg55
V99
p703
sg88
(lp704
(VYU
VH
tp705
asg17
I2002
sg49
V16336
p706
sbasb.