ccopy_reg
_reconstructor
p1
(ctethne.classes.paper
Paper
p2
c__builtin__
object
p3
NtRp4
(dp5
S'publisherCity'
p6
VROCKVILLE
p7
sS'reprintAddress'
p8
VMichaud, D (reprint author), Univ Laval, Ctr Rech Hort, Pavillon Serv, Dept Phytol, Quebec City, PQ G1K 7P4, Canada.
p9
sS'WC'
p10
VPlant Sciences
p11
sS'GA'
p12
V308TF
p13
sS'abstract'
p14
VPlant cystatins, similar to other defense proteins, include hypervariable, positively selected amino acid sites presumably impacting their biological activity. Using 29 single mutants of the eighth domain of tomato (Solanum lycopersicum) multicystatin, SlCYS8, we assessed here the potential of site-directed mutagenesis at positively selected amino acid sites to generate cystatin variants with improved inhibitory potency and specificity toward herbivorous insect digestive cysteine (Cys) proteases. Compared to SlCYS8, several mutants (22 out of 29) exhibited either improved or lowered potency against different model Cys proteases, strongly suggesting the potential of positively selected amino acids as target sites to modulate the inhibitory specificity of the cystatin toward Cys proteases of agronomic significance. Accordingly, mutations at positively selected sites strongly influenced the inhibitory potency of SlCYS8 against digestive Cys proteases of the insect herbivore Colorado potato beetle (Leptinotarsa decemlineata). In particular, several variants exhibited improved potency against both cystatin-sensitive and cystatin-insensitive digestive Cys proteases of this insect. Of these, some variants also showed weaker activity against leaf Cys proteases of the host plant (potato [ Solanum tuberosum]) and against a major digestive Cys protease of the two-spotted stinkbug Perillus bioculatus, an insect predator of Colorado potato beetle showing potential for biological control. Overall, these observations suggest the usefulness of site-directed mutagenesis at positively selected amino acid sites for the engineering of recombinant cystatins with both improved inhibitory potency toward the digestive proteases of target herbivores and weaker potency against nontarget Cys proteases in the host plant or the environment.
p15
sS'pageEnd'
p16
I1019
sS'publisherAddress'
p17
V15501 MONONA DRIVE, ROCKVILLE, MD 20855 USA
p18
sS'documentType'
p19
VArticle
p20
sS'subject'
p21
VPlant Sciences
p22
sS'isoSource'
p23
VPlant Physiol.
p24
sS'timesCited'
p25
(lp26
I23
aVZ9 23
p27
asS'PT'
p28
VJ
sS'title'
p29
VTailoring The Specificity Of A Plant Cystatin Toward Herbivorous Insect Digestive Cysteine Proteases By Single Mutations At Positively Selected Amino Acid Sites
p30
sS'ISSN'
p31
(lp32
V0032-0889
p33
aVJ9 PLANT PHYSIOL
p34
asS'authors_full'
p35
(lp36
(VGOULET
VMARIECLAIRE
tp37
a(VDALLAIRE
VCINDY
tp38
a(VVAILLANCOURT
VLOUISPHILIPPE
tp39
a(VKHALF
VMOUSTAFA
tp40
a(VBADRI
VAMINE M
tp41
a(VPRERADOV
VANDREJA
tp42
a(VDUCEPPE
VMARCOLIVIER
tp43
a(VGOULET
VCHARLES
tp44
a(VCLOUTIER
VCONRAD
tp45
a(VMICHAUD
VDOMINIQUE
tp46
asS'PG'
p47
I10
sS'PD'
p48
VMAR
p49
sS'pageStart'
p50
I1010
sS'issue'
p51
I3
sS'journal'
p52
VPLANT PHYSIOLOGY
p53
sS'volume'
p54
V146
p55
sS'doi'
p56
V10.1104/pp.108.115741
p57
sS'emailAddress'
p58
Vdominique.michaud@plg.ulaval.ca
p59
sS'authorAddress'
p60
(lp61
V[Goulet, Marie-Claire; Dallaire, Cindy; Vaillancourt, Louis-Philippe; Khalf, Moustafa; Badri, Amine M.; Preradov, Andreja; Duceppe, Marc-Olivier; Goulet, Charles; Michaud, Dominique] Univ Laval, Ctr Rech Hort, Pavillon Serv, Dept Phytol, Quebec City, PQ G1K 7P4, Canada.
p62
aV[Cloutier, Conrad] Univ Laval, Ctr Rech Hort, Dept Biol, Quebec City, PQ G1K 7P4, Canada.
p63
asS'date'
p64
I2008
sS'ER'
p65
V
sS'publisher'
p66
VAMER SOC PLANT BIOLOGISTS
p67
sS'authorKeywords'
p68
(lp69
VCOLORADO-POTATO BEETLE
p70
aVTRANSGENIC TOBACCO PLANTS
p71
aVSPODOPTERA-EXIGUA LARVAE
p72
aVPROTEINASE-INHIBITOR
p73
aVORYZACYSTATIN-I
p74
aVLEPTINOTARSA-DECEMLINEATA
p75
aVTRYPSIN-INHIBITOR
p76
aVPHAGE DISPLAY
p77
aVCATHEPSIN-H
p78
aVGEL-ELECTROPHORESIS
p79
asS'language'
p80
VEnglish
p81
sS'wosid'
p82
VWOS:000256412200024
p83
sS'citationCount'
p84
I80
sS'authors_init'
p85
(lp86
(VGOULET
VM C
tp87
a(VDALLAIRE
VC
tp88
a(VVAILLANCOURT
VL P
tp89
a(VKHALF
VM
tp90
a(VBADRI
VA M
tp91
a(VPRERADOV
VA
tp92
a(VDUCEPPE
VM O
tp93
a(VGOULET
VC
tp94
a(VCLOUTIER
VC
tp95
a(VMICHAUD
VD
tp96
asS'citedReferences'
p97
(lp98
g1
(g2
g3
NtRp99
(dp100
g56
V10.1007/s11248-006-9022-6
p101
sg52
VTRANSGENIC RES
p102
sg54
V16
p103
sg85
(lp104
(VALVAREZ-ALFAGEME
VF
tp105
asg64
I2007
sg50
V1
sbag1
(g2
g3
NtRp106
(dp107
g56
V10.1021/jf0201935
p108
sg52
VJ AGR FOOD CHEM
p109
sg54
V50
p110
sg85
(lp111
(VARAI
VS
tp112
asg64
I2002
sg50
V6612
p113
sbag1
(g2
g3
NtRp114
(dp115
g56
Nsg52
VRECOMBINANT PROTEASE
p116
sg54
Nsg85
(lp117
(VARAI
VS
tp118
asg64
I2000
sg50
V27
p119
sbag1
(g2
g3
NtRp120
(dp121
g56
V10.1002/(SICI)1520-6327(1998)38:2<74::AID-ARCH3>3.0.CO;2-V
p122
sg52
VARCH INSECT BIOCHEM
p123
sg54
V38
p124
sg85
(lp125
(VASHOURI
VA
tp126
asg64
I1998
sg50
V74
p127
sbag1
(g2
g3
NtRp128
(dp129
g56
V10.1146/annurev.phyto.41.052002.095737
p130
sg52
VANNU REV PHYTOPATHOL
p131
sg54
V41
p132
sg85
(lp133
(VATKINSON
VH J
tp134
asg64
I2003
sg50
V615
p135
sbag1
(g2
g3
NtRp136
(dp137
g56
Nsg52
VMETHOD ENZYMOL
p138
sg54
V80
p139
sg85
(lp140
(VBARRETT
VA J
tp141
asg64
I1981
sg50
V535
p142
sbag1
(g2
g3
NtRp143
(dp144
g56
V10.1016/j.phytochem.2003.09.005
p145
sg52
VPHYTOCHEMISTRY
p146
sg54
V65
p147
sg85
(lp148
(VBEERS
VE P
tp149
asg64
I2004
sg50
VHYTOCHEMISTRY
p150
sbag1
(g2
g3
NtRp151
(dp152
g56
V10.1046/j.1432-1033.2003.03630.x
p153
sg52
VEUR J BIOCHEM
p154
sg54
V270
p155
sg85
(lp156
(VBELENGHI
VB
tp157
asg64
I2003
sg50
V2593
p158
sbag1
(g2
g3
NtRp159
(dp160
g56
Nsg52
VPLANT CELL REP
p161
sg54
V14
p162
sg85
(lp163
(VBENCHEKROUN
VA
tp164
asg64
I1995
sg50
VLANT
p165
sbag1
(g2
g3
NtRp166
(dp167
g56
V10.1046/j.1570-7458.1997.00184.x
p168
sg52
VENTOMOL EXP APPL
p169
sg54
V83
p170
sg85
(lp171
(VBOLTER
VC J
tp172
asg64
I1997
sg50
V295
p173
sbag1
(g2
g3
NtRp174
(dp175
g56
V10.1046/j.1365-294X.2003.01919.x
p176
sg52
VMOL ECOL
p177
sg54
V12
p178
sg85
(lp179
(VBOUCHARD
VE
tp180
asg64
I2003
sg50
V2439
p181
sbag1
(g2
g3
NtRp182
(dp183
g56
V10.1046/j.1365-294X.2003.01918.x
p184
sg52
VMOL ECOL
p185
sg54
V12
p186
sg85
(lp187
(VBOUCHARD
VE
tp188
asg64
I2003
sg50
V2429
p189
sbag1
(g2
g3
NtRp190
(dp191
g56
V10.1016/S0965-1748(97)00043-X
p192
sg52
VINSECT BIOCHEM MOLEC
p193
sg54
V27
p194
sg85
(lp195
(VBOWN
VD P
tp196
asg64
I1997
sg50
V625
p197
sbag1
(g2
g3
NtRp198
(dp199
g56
Nsg52
VANAL BIOCHEM
p200
sg54
V72
p201
sg85
(lp202
(VBRADFORD
VM M
tp203
asg64
I1976
sg50
V254
p204
sbag1
(g2
g3
NtRp205
(dp206
g56
Nsg52
VRECOMBINANT PROTEASE
p207
sg54
Nsg85
(lp208
(VBROADWAY
VR M
tp209
asg64
I2000
sg50
V80
p210
sbag1
(g2
g3
NtRp211
(dp212
g56
V10.1002/(SICI)1520-6327(199909)42:1<88::AID-ARCH9>3.3.CO;2-9
p213
sg52
VARCH INSECT BIOCHEM
p214
sg54
V42
p215
sg85
(lp216
(VBRUNELLE
VF
tp217
asg64
I1999
sg50
V88
p218
sbag1
(g2
g3
NtRp219
(dp220
g56
V10.1002/arch.10135
p221
sg52
VARCH INSECT BIOCHEM
p222
sg54
V55
p223
sg85
(lp224
(VBRUNELLE
VF
tp225
asg64
I2004
sg50
V103
p226
sbag1
(g2
g3
NtRp227
(dp228
g56
V10.1002/arch.20078
p229
sg52
VARCH INSECT BIOCHEM
p230
sg54
V60
p231
sg85
(lp232
(VBRUNELLE
VF
tp233
asg64
I2005
sg50
V20
p234
sbag1
(g2
g3
NtRp235
(dp236
g56
V10.1046/j.1365-313X.2003.01645.x
p237
sg52
VPLANT J
p238
sg54
V33
p239
sg85
(lp240
(VCECI
VL R
tp241
asg64
I2003
sg50
VLANT
p242
sbag1
(g2
g3
NtRp243
(dp244
g56
V10.1111/j.1742-4658.2005.04975.x
p245
sg52
VFEBS J
p246
sg54
V272
p247
sg85
(lp248
(VCHRISTELLER
VJ T
tp249
asg64
I2005
sg50
V5710
p250
sbag1
(g2
g3
NtRp251
(dp252
g56
V10.1007/s00425-005-0169-9
p253
sg52
VPLANTA
p254
sg54
V223
p255
sg85
(lp256
(VCHRISTOVA
VP K
tp257
asg64
I2006
sg50
VLANTA
p258
sbag1
(g2
g3
NtRp259
(dp260
g56
V10.1002/(SICI)1520-6327(1999)40:2<69::AID-ARCH1>3.3.CO;2-D
p261
sg52
VARCH INSECT BIOCHEM
p262
sg54
V40
p263
sg85
(lp264
(VCLOUTIER
VC
tp265
asg64
I1999
sg50
V69
p266
sbag1
(g2
g3
NtRp267
(dp268
g56
V10.1002/1520-6327(200006)44:2<69::AID-ARCH2>3.0.CO;2-6
p269
sg52
VARCH INSECT BIOCHEM
p270
sg54
V44
p271
sg85
(lp272
(VCLOUTIER
VC
tp273
asg64
I2000
sg50
V69
p274
sbag1
(g2
g3
NtRp275
(dp276
g56
V10.1104/pp.118.3.997
p277
sg52
VPLANT PHYSIOL
p278
sg54
V118
p279
sg85
(lp280
(VDE
VL E O F
tp281
asg64
I1998
sg50
VLANT
p282
sbag1
(g2
g3
NtRp283
(dp284
g56
V10.1046/j.1365-294X.2003.01736.x
p285
sg52
VMOL ECOL
p286
sg54
V12
p287
sg85
(lp288
(VFERRY
VN
tp289
asg64
I2003
sg50
V493
p290
sbag1
(g2
g3
NtRp291
(dp292
g56
V10.1016/S0022-1910(97)00142-X
p293
sg52
VJ INSECT PHYSIOL
p294
sg54
V44
p295
sg85
(lp296
(VGIRARD
VC
tp297
asg64
I1998
sg50
V263
p298
sbag1
(g2
g3
NtRp299
(dp300
g56
V10.1016/S0965-1748(98)00027-7
p301
sg52
VINSECT BIOCHEM MOLEC
p302
sg54
V28
p303
sg85
(lp304
(VGIRARD
VC
tp305
asg64
I1998
sg50
V229
p306
sbag1
(g2
g3
NtRp307
(dp308
g56
V10.1111/j.1469-8137.2007.01968.x
p309
sg52
VNEW PHYTOL
p310
sg54
V173
p311
sg85
(lp312
(VGIRARD
VC
tp313
asg64
I2007
sg50
V841
p314
sbag1
(g2
g3
NtRp315
(dp316
g56
V10.1104/pp.116.1.393
p317
sg52
VPLANT PHYSIOL
p318
sg54
V116
p319
sg85
(lp320
(VGIRI
VA P
tp321
asg64
I1998
sg50
VLANT
p322
sbag1
(g2
g3
NtRp323
(dp324
g56
V10.1046/j.1365-313X.2002.01366.x
p325
sg52
VPLANT J
p326
sg54
V31
p327
sg85
(lp328
(VGROOT
VA T
tp329
asg64
I2002
sg50
VLANT
p330
sbag1
(g2
g3
NtRp331
(dp332
g56
V10.1016/j.ibmb.2004.01.003
p333
sg52
VINSECT BIOCHEM MOLEC
p334
sg54
V34
p335
sg85
(lp336
(VGRUDEN
VK
tp337
asg64
I2004
sg50
V365
p338
sbag1
(g2
g3
NtRp339
(dp340
g56
V10.1515/BC.2003.034
p341
sg52
VBIOL CHEM
p342
sg54
V384
p343
sg85
(lp344
(VGRUDEN
VK
tp345
asg64
I2003
sg50
V305
p346
sbag1
(g2
g3
NtRp347
(dp348
g56
Nsg52
VACTA BIOCHIM POL
p349
sg54
V51
p350
sg85
(lp351
(VGRUDKOWSKA
VM
tp352
asg64
I2004
sg50
V609
p353
sbag1
(g2
g3
NtRp354
(dp355
g56
Nsg52
VHORTSCIENCE
p356
sg54
V36
p357
sg85
(lp358
(VGUTIERREZ-CAMPOS
VR
tp359
asg64
I2001
sg50
V118
p360
sbag1
(g2
g3
NtRp361
(dp362
g56
Nsg52
VNAT BIOTECHNOL
p363
sg54
V17
p364
sg85
(lp365
(VGUTIERREZ-CAMPOS
VR
tp366
asg64
I1999
sg50
V1223
p367
sbag1
(g2
g3
NtRp368
(dp369
g56
V10.1016/j.abb.2004.07.022
p370
sg52
VARCH BIOCHEM BIOPHYS
p371
sg54
V431
p372
sg85
(lp373
(VHAQ
VS K
tp374
asg64
I2004
sg50
V145
p375
sbag1
(g2
g3
NtRp376
(dp377
g56
Nsg52
VBIOCHEM J
p378
sg54
V127
p379
sg85
(lp380
(VHENDERSOPJ
S''
tp381
asg64
I1972
sg50
V321
p382
sbag1
(g2
g3
NtRp383
(dp384
g56
V10.1271/bbb.65.2259
p385
sg52
VBIOSCI BIOTECH BIOCH
p386
sg54
V65
p387
sg85
(lp388
(VINANAGA
VH
tp389
asg64
I2001
sg50
V2259
p390
sbag1
(g2
g3
NtRp391
(dp392
g56
V10.1016/S0022-1910(97)00040-1
p393
sg52
VJ INSECT PHYSIOL
p394
sg54
V43
p395
sg85
(lp396
(VJONGSMA
VM A
tp397
asg64
I1997
sg50
V885
p398
sbag1
(g2
g3
NtRp399
(dp400
g56
V10.1073/pnas.92.17.8041
p401
sg52
VP NATL ACAD SCI USA
p402
sg54
V92
p403
sg85
(lp404
(VJONGSMA
VM A
tp405
asg64
I1995
sg50
V8041
p406
sbag1
(g2
g3
NtRp407
(dp408
g56
V10.1111/j.1365-313X.2006.02878.x
p409
sg52
VPLANT J
p410
sg54
V48
p411
sg85
(lp412
(VKIGGUNDU
VA
tp413
asg64
I2006
sg50
VLANT
p414
sbag1
(g2
g3
NtRp415
(dp416
g56
V10.1046/j.1365-313X.2001.01104.x
p417
sg52
VPLANT J
p418
sg54
V27
p419
sg85
(lp420
(VKOIWA
VH
tp421
asg64
I2001
sg50
VLANT
p422
sbag1
(g2
g3
NtRp423
(dp424
g56
V10.1074/jbc.M203076200
p425
sg52
VJ BIOL CHEM
p426
sg54
V277
p427
sg85
(lp428
(VLABOISSIERE
VM C A
tp429
asg64
I2002
sg50
V26623
p430
sbag1
(g2
g3
NtRp431
(dp432
g56
Nsg52
VPLANT SCI
p433
sg54
V140
p434
sg85
(lp435
(VLECARDONNEL
VA
tp436
asg64
I1999
sg50
VLANT
p437
sbag1
(g2
g3
NtRp438
(dp439
g56
V10.1007/BF01248409
p440
sg52
VMOL BREEDING
p441
sg54
V1
sg85
(lp442
(VLEPLE
VJ C
tp443
asg64
I1995
sg50
V319
p444
sbag1
(g2
g3
NtRp445
(dp446
g56
V10.1002/arch.10134
p447
sg52
VARCH INSECT BIOCHEM
p448
sg54
V55
p449
sg85
(lp450
(VLOPES
VA R
tp451
asg64
I2004
sg50
V140
p452
sbag1
(g2
g3
NtRp453
(dp454
g56
Nsg52
VRECOMBINANT PROTEASE
p455
sg54
Nsg85
(lp456
(VMALONE
VL A
tp457
asg64
I2000
sg50
V89
p458
sbag1
(g2
g3
NtRp459
(dp460
g56
V10.1094/MPMI.2003.16.10.876
p461
sg52
VMOL PLANT MICROBE IN
p462
sg54
V16
p463
sg85
(lp464
(VMARTINEZ
VM
tp465
asg64
I2003
sg50
V876
p466
sbag1
(g2
g3
NtRp467
(dp468
g56
V10.1093/jxb/eri172
p469
sg52
VJ EXP BOT
p470
sg54
V56
p471
sg85
(lp472
(VMARTINEZ
VM
tp473
asg64
I2005
sg50
V1821
p474
sbag1
(g2
g3
NtRp475
(dp476
g56
Nsg52
VBIOCHEM J
p477
sg54
V330
p478
sg85
(lp479
(VMASON
VR W
tp480
asg64
I1998
sg50
V833
p481
sbag1
(g2
g3
NtRp482
(dp483
g56
V10.1007/BF00014548
p484
sg52
VPLANT MOL BIOL
p485
sg54
V21
p486
sg85
(lp487
(VMASOUD
VS A
tp488
asg64
I1993
sg50
VLANT
p489
sbag1
(g2
g3
NtRp490
(dp491
g56
V10.1016/S0965-1748(00)00169-7
p492
sg52
VINSECT BIOCHEM MOLEC
p493
sg54
V31
p494
sg85
(lp495
(VMAZUMDAR-LEIGHTON
VS
tp496
asg64
I2001
sg50
V645
p497
sbag1
(g2
g3
NtRp498
(dp499
g56
V10.1016/S0965-1748(00)00168-5
p500
sg52
VINSECT BIOCHEM MOLEC
p501
sg54
V31
p502
sg85
(lp503
(VMAZUMDAR-LEIGHTON
VS
tp504
asg64
I2001
sg50
V633
p505
sbag1
(g2
g3
NtRp506
(dp507
g56
V10.1016/S1570-9639(03)00264-4
p508
sg52
VBBA
p509
sg54
V1651
p510
sg85
(lp511
(VMELO
VF R
tp512
asg64
I2003
sg50
V146
p513
sbag1
(g2
g3
NtRp514
(dp515
g56
V10.1016/S0003-2670(98)00349-3
p516
sg52
VANAL CHIM ACTA
p517
sg54
V372
p518
sg85
(lp519
(VMICHAUD
VD
tp520
asg64
I1998
sg50
V173
p521
sbag1
(g2
g3
NtRp522
(dp523
g56
V10.1016/0965-1748(95)00044-V
p524
sg52
VINSECT BIOCHEM MOLEC
p525
sg54
V25
p526
sg85
(lp527
(VMICHAUD
VD
tp528
asg64
I1995
sg50
V1041
p529
sbag1
(g2
g3
NtRp530
(dp531
g56
V10.1016/0014-5793(93)80320-T
p532
sg52
VFEBS LETT
p533
sg54
V331
p534
sg85
(lp535
(VMICHAUD
VD
tp536
asg64
I1993
sg50
V173
p537
sbag1
(g2
g3
NtRp538
(dp539
g56
V10.1016/S0167-7799(96)10072-X
p540
sg52
VTRENDS BIOTECHNOL
p541
sg54
V15
p542
sg85
(lp543
(VMICHAUD
VD
tp544
asg64
I1997
sg50
V4
sbag1
(g2
g3
NtRp545
(dp546
g56
V10.1006/abbi.1995.1490
p547
sg52
VARCH BIOCHEM BIOPHYS
p548
sg54
V322
p549
sg85
(lp550
(VMICHAUD
VD
tp551
asg64
I1995
sg50
V469
p552
sbag1
(g2
g3
NtRp553
(dp554
g56
V10.1002/elps.1150170113
p555
sg52
VELECTROPHORESIS
p556
sg54
V17
p557
sg85
(lp558
(VMICHAUD
VD
tp559
asg64
I1996
sg50
V74
p560
sbag1
(g2
g3
NtRp561
(dp562
g56
V10.1016/S1570-9639(02)00411-9
p563
sg52
VBBA
p564
sg54
V1599
p565
sg85
(lp566
(VOGAWA
VM
tp567
asg64
I2002
sg50
V115
p568
sbag1
(g2
g3
NtRp569
(dp570
g56
V10.1111/j.1467-7652.2004.00089.x
p571
sg52
VPLANT BIOTECHNOL J
p572
sg54
V2
sg85
(lp573
(VOUTCHKOUROV
VN S
tp574
asg64
I2004
sg50
VLANT
p575
sbag1
(g2
g3
NtRp576
(dp577
g56
V10.1016/S0305-0491(98)10008-1
p578
sg52
VCOMP BIOCHEM PHYS B
p579
sg54
V120
p580
sg85
(lp581
(VOVERNEY
VS
tp582
asg64
I1998
sg50
V191
p583
sbag1
(g2
g3
NtRp584
(dp585
g56
V10.1021/bi030119v
p586
sg52
VBIOCHEMISTRY
p587
sg54
V42
p588
sg85
(lp589
(VPAVLOVA
VA
tp590
asg64
I2003
sg50
V11326
p591
sbag1
(g2
g3
NtRp592
(dp593
g56
V10.1021/bi9620870
p594
sg52
VBIOCHEMISTRY
p595
sg54
V36
p596
sg85
(lp597
(VQASIM
VM A
tp598
asg64
I1997
sg50
V1598
p599
sbag1
(g2
g3
NtRp600
(dp601
g56
V10.1111/j.1439-0418.2005.01021.x
p602
sg52
VJ APPL ENTOMOL
p603
sg54
V130
p604
sg85
(lp605
(VRIBEIRO
VA P O
tp606
asg64
I2006
sg50
V84
p607
sbag1
(g2
g3
NtRp608
(dp609
g56
V10.1016/j.cub.2004.09.056
p610
sg52
VCURR BIOL
p611
sg54
V14
p612
sg85
(lp613
(VROJO
VE
tp614
asg64
I2004
sg50
V1897
p615
sbag1
(g2
g3
NtRp616
(dp617
g56
Nsg52
VPROTEOLYTIC ENZYMES
p618
sg54
Nsg85
(lp619
(VSALVESEN
VG
tp620
asg64
I1989
sg50
VROTEOLYTIC
p621
sbag1
(g2
g3
NtRp622
(dp623
g56
V10.1007/s00425-004-1407-2
p624
sg52
VPLANTA
p625
sg54
V220
p626
sg85
(lp627
(VSCHALLER
VA
tp628
asg64
I2004
sg50
VLANTA
p629
sbag1
(g2
g3
NtRp630
(dp631
g56
V10.1038/nbt860
p632
sg52
VNAT BIOTECHNOL
p633
sg54
V21
p634
sg85
(lp635
(VSTOOP
VA A
tp636
asg64
I2003
sg50
V1063
p637
sbag1
(g2
g3
NtRp638
(dp639
g56
Nsg52
VEMBO J
p640
sg54
V9
sg85
(lp641
(VSTUBBS
VM T
tp642
asg64
I1990
sg50
V1939
p643
sbag1
(g2
g3
NtRp644
(dp645
g56
V10.1016/0167-4838(91)90232-O
p646
sg52
VBIOCHIM BIOPHYS ACTA
p647
sg54
V1076
p648
sg85
(lp649
(VTCHOUPE
VJ R
tp650
asg64
I1991
sg50
V149
p651
sbag1
(g2
g3
NtRp652
(dp653
g56
V10.1016/0305-0491(94)90141-4
p654
sg52
VCOMP BIOCHEM PHYS B
p655
sg54
V109
p656
sg85
(lp657
(VTERRA
VW R
tp658
asg64
I1994
sg50
V1
sbag1
(g2
g3
NtRp659
(dp660
g56
V10.1046/j.1365-313X.1995.08010121.x
p661
sg52
VPLANT J
p662
sg54
V8
sg85
(lp663
(VURWIN
VP E
tp664
asg64
I1995
sg50
VLANT
p665
sbag1
(g2
g3
NtRp666
(dp667
g56
Nsg52
VTHESIS U LAVAL QUEBE
p668
sg54
Nsg85
(lp669
(VVAILLANCOURT
VL P
tp670
asg64
I2005
sg50
Nsbag1
(g2
g3
NtRp671
(dp672
g56
V10.1007/s10541-005-0015-5
p673
sg52
VBIOCHEMISTRY
p674
sg54
V69
p675
sg85
(lp676
(VVALUEVA
VT A
tp677
asg64
I2004
sg50
V1305
p678
sbag1
(g2
g3
NtRp679
(dp680
g56
V10.1046/j.1467-7652.2003.00010.x
p681
sg52
VPLANT BIOTECHNOL J
p682
sg54
V1
sg85
(lp683
(VVAN
VD E R VYVER C
tp684
asg64
I2003
sg50
VLANT
p685
sbag1
(g2
g3
NtRp686
(dp687
g56
Nsg52
VRECOMBINANT PROTEASE
p688
sg54
Nsg85
(lp689
(VVISALSHAH
VS D
tp690
asg64
I2000
sg50
V107
p691
sbag1
(g2
g3
NtRp692
(dp693
g56
V10.1007/s00425-004-1462-8
p694
sg52
VPLANTA
p695
sg54
V221
p696
sg85
(lp697
(VYANG
VA H
tp698
asg64
I2005
sg50
VLANTA
p699
sbag1
(g2
g3
NtRp700
(dp701
g56
V10.1046/j.1365-2583.2003.00395.x
p702
sg52
VINSECT MOL BIOL
p703
sg54
V12
p704
sg85
(lp705
(VZHU-SALZMAN
VK
tp706
asg64
I2003
sg50
V135
p707
sbasb.