ccopy_reg
_reconstructor
p1
(ctethne.classes.paper
Paper
p2
c__builtin__
object
p3
NtRp4
(dp5
S'publisherCity'
p6
VROCKVILLE
p7
sS'reprintAddress'
p8
VFang, YD (reprint author), Chinese Acad Sci, Shanghai Inst Biol Sci, Shanghai Inst Plant Physiol & Ecol, Natl Key Lab Plant Mol Genet, Shanghai 200032, Peoples R China.
p9
sS'WC'
p10
VPlant Sciences
p11
sS'GA'
p12
V870IL
p13
sS'pageEnd'
p14
I66
sS'publisherAddress'
p15
V15501 MONONA DRIVE, ROCKVILLE, MD 20855 USA
p16
sS'documentType'
p17
VEditorial Material
p18
sS'subject'
p19
VPlant Sciences
p20
sS'isoSource'
p21
VPlant Physiol.
p22
sS'timesCited'
p23
(lp24
I3
aVZ9 4
p25
asS'PT'
p26
VJ
sS'title'
p27
VDicing Bodies
p28
sS'ISSN'
p29
(lp30
V0032-0889
p31
aVJ9 PLANT PHYSIOL
p32
asS'authors_full'
p33
(lp34
(VLIU
VQI
tp35
a(VSHI
VLEILEI
tp36
a(VFANG
VYUDA
tp37
asS'PG'
p38
I6
sS'PD'
p39
VJAN
p40
sS'pageStart'
p41
I61
sS'issue'
p42
I1
sS'journal'
p43
VPLANT PHYSIOLOGY
p44
sS'volume'
p45
V158
p46
sS'doi'
p47
V10.1104/pp.111.186734
p48
sS'emailAddress'
p49
Vyfang@sippe.ac.cn
p50
sS'authorAddress'
p51
(lp52
V[Fang, Yuda] Chinese Acad Sci, Shanghai Inst Biol Sci, Shanghai Inst Plant Physiol & Ecol, Natl Key Lab Plant Mol Genet, Shanghai 200032, Peoples R China.
p53
aVChinese Acad Sci, Shanghai Inst Biol Sci, Shanghai Inst Plant Physiol & Ecol, Natl Ctr Plant Gene Res Shanghai, Shanghai 200032, Peoples R China.
p54
asS'date'
p55
I2012
sS'ER'
p56
V
sS'publisher'
p57
VAMER SOC PLANT BIOLOGISTS
p58
sS'authorKeywords'
p59
(lp60
VALGA CHLAMYDOMONAS-REINHARDTII
p61
aVPLANT MICRORNA BIOGENESIS
p62
aVDSRNA-BINDING-PROTEIN
p63
aVSMALL RNAS
p64
aVARABIDOPSIS-THALIANA
p65
aVNUCLEAR EXPORT
p66
aVCAENORHABDITIS-ELEGANS
p67
aVDROSOPHILA ARGONAUTES
p68
aVDROSHA-DGCR8 COMPLEX
p69
aVPROCESSING CENTER
p70
asS'language'
p71
VEnglish
p72
sS'wosid'
p73
VWOS:000298662500008
p74
sS'citationCount'
p75
I89
sS'authors_init'
p76
(lp77
(VLIU
VQ
tp78
a(VSHI
VL L
tp79
a(VFANG
VY D
tp80
asS'citedReferences'
p81
(lp82
g1
(g2
g3
NtRp83
(dp84
g47
V10.1093/mp/ssq026
p85
sg43
VMOL PLANT
p86
sg45
V3
sg76
(lp87
(VAHMAD
VA
tp88
asg55
I2010
sg41
V719
p89
sbag1
(g2
g3
NtRp90
(dp91
g47
V10.1016/S0092-8674(04)00045-5
p92
sg43
VCELL
p93
sg45
V116
p94
sg76
(lp95
(VBARTEL
VD P
tp96
asg55
I2004
sg41
V281
p97
sbag1
(g2
g3
NtRp98
(dp99
g47
V10.1073/pnas.0505461102
p100
sg43
VP NATL ACAD SCI USA
p101
sg45
V102
p102
sg76
(lp103
(VBAUMBERGER
VN
tp104
asg55
I2005
sg41
V11928
p105
sbag1
(g2
g3
NtRp106
(dp107
g47
V10.1016/j.molcel.2007.09.028
p108
sg43
VMOL CELL
p109
sg45
V28
p110
sg76
(lp111
(VBEREZIKOV
VE
tp112
asg55
I2007
sg41
V328
p113
sbag1
(g2
g3
NtRp114
(dp115
g47
V10.1038/35053110
p116
sg43
VNATURE
p117
sg45
V409
p118
sg76
(lp119
(VBERNSTEIN
VE
tp120
asg55
I2001
sg41
V363
p121
sbag1
(g2
g3
NtRp122
(dp123
g47
V10.1261/rna.5167604
p124
sg43
VRNA
p125
sg45
V10
p126
sg76
(lp127
(VBOHNSACK
VM T
tp128
asg55
I2004
sg41
V185
p129
sbag1
(g2
g3
NtRp130
(dp131
g47
Nsg43
VEMBO J
p132
sg45
V29
p133
sg76
(lp134
(VBUESSING
VI
tp135
asg55
I2010
sg41
V1830
p136
sbag1
(g2
g3
NtRp137
(dp138
g47
V10.1261/rna.7135204
p139
sg43
VRNA
p140
sg45
V10
p141
sg76
(lp142
(VCAI
VX Z
tp143
asg55
I2004
sg41
V1957
p144
sbag1
(g2
g3
NtRp145
(dp146
g47
V10.1126/science.1085242
p147
sg43
VSCIENCE
p148
sg45
V301
p149
sg76
(lp150
(VCARRINGTON
VJ C
tp151
asg55
I2003
sg41
V336
p152
sbag1
(g2
g3
NtRp153
(dp154
g47
V10.1016/j.cell.2010.05.007
p155
sg43
VCELL
p156
sg45
V141
p157
sg76
(lp158
(VCHEN
VM
tp159
asg55
I2010
sg41
V1230
p160
sbag1
(g2
g3
NtRp161
(dp162
g47
V10.1016/j.semcdb.2010.07.005
p163
sg43
VSEMIN CELL DEV BIOL
p164
sg45
V21
p165
sg76
(lp166
(VCHEN
VX M
tp167
asg55
I2010
sg41
V781
p168
sbag1
(g2
g3
NtRp169
(dp170
g47
V10.1111/j.1365-313X.2009.04089.x
p171
sg43
VPLANT J
p172
sg45
V61
p173
sg76
(lp174
(VCHEN
VX M
tp175
asg55
I2010
sg41
VLANT
p176
sbag1
(g2
g3
NtRp177
(dp178
g47
V10.1038/nature03868
p179
sg43
VNATURE
p180
sg45
V436
p181
sg76
(lp182
(VCHENDRIMADA
VT P
tp183
asg55
I2005
sg41
V740
p184
sbag1
(g2
g3
NtRp185
(dp186
g47
V10.1038/nrg2916
p187
sg43
VNAT REV GENET
p188
sg45
V12
p189
sg76
(lp190
(VCZECH
VB
tp191
asg55
I2011
sg41
V19
p192
sbag1
(g2
g3
NtRp193
(dp194
g47
V10.1038/nature03049
p195
sg43
VNATURE
p196
sg45
V432
p197
sg76
(lp198
(VDENLI
VA M
tp199
asg55
I2004
sg41
V231
p200
sbag1
(g2
g3
NtRp201
(dp202
g47
V10.1073/pnas.0803356105
p203
sg43
VP NATL ACAD SCI USA
p204
sg45
V105
p205
sg76
(lp206
(VDONG
VZ
tp207
asg55
I2008
sg41
V9970
p208
sbag1
(g2
g3
NtRp209
(dp210
g47
V10.1101/cshperspect.a000711
p211
sg43
VCSH PERSPECT BIOL
p212
sg45
V2
sg76
(lp213
(VDUNDR
VM
tp214
asg55
I2010
sg41
Nsbag1
(g2
g3
NtRp215
(dp216
g47
V10.1261/rna.1646909
p217
sg43
VRNA
p218
sg45
V15
p219
sg76
(lp220
(VEAMENS
VA L
tp221
asg55
I2009
sg41
V2219
p222
sbag1
(g2
g3
NtRp223
(dp224
g47
V10.1242/jcs.055210
p225
sg43
VJ CELL SCI
p226
sg45
V123
p227
sg76
(lp228
(VENDER
VC
tp229
asg55
I2010
sg41
V1819
p230
sbag1
(g2
g3
NtRp231
(dp232
g47
V10.1146/annurev-biochem-060308-103103
p233
sg43
VANNU REV BIOCHEM
p234
sg45
V79
p235
sg76
(lp236
(VFABIAN
VM R
tp237
asg55
I2010
sg41
V351
p238
sbag1
(g2
g3
NtRp239
(dp240
g47
V10.1091/mbc.E04-02-0100
p241
sg43
VMOL BIOL CELL
p242
sg45
V15
p243
sg76
(lp244
(VFANG
VY D
tp245
asg55
I2004
sg41
V2664
p246
sbag1
(g2
g3
NtRp247
(dp248
g47
V10.1016/j.cub.2007.04.005
p249
sg43
VCURR BIOL
p250
sg45
V17
p251
sg76
(lp252
(VFANG
VY D
tp253
asg55
I2007
sg41
V818
p254
sbag1
(g2
g3
NtRp255
(dp256
g47
V10.1016/j.molcel.2010.06.014
p257
sg43
VMOL CELL
p258
sg45
V38
p259
sg76
(lp260
(VFLYNT
VA S
tp261
asg55
I2010
sg41
V900
p262
sbag1
(g2
g3
NtRp263
(dp264
g47
V10.1038/nature09039
p265
sg43
VNATURE
p266
sg45
V465
p267
sg76
(lp268
(VFRANK
VF
tp269
asg55
I2010
sg41
V818
p270
sbag1
(g2
g3
NtRp271
(dp272
g47
V10.1261/rna.2455411
p273
sg43
VRNA
p274
sg45
V17
p275
sg76
(lp276
(VFUKUDOME
VA
tp277
asg55
I2011
sg41
V750
p278
sbag1
(g2
g3
NtRp279
(dp280
g47
V10.1016/j.cell.2005.10.022
p281
sg43
VCELL
p282
sg45
V123
p283
sg76
(lp284
(VGREGORY
VR I
tp285
asg55
I2005
sg41
V631
p286
sbag1
(g2
g3
NtRp287
(dp288
g47
V10.1016/j.cell.2009.04.046
p289
sg43
VCELL
p290
sg45
V138
p291
sg76
(lp292
(VGRUBER
VJ J
tp293
asg55
I2009
sg41
V328
p294
sbag1
(g2
g3
NtRp295
(dp296
g47
V10.1016/j.febslet.2005.08.079
p297
sg43
VFEBS LETT
p298
sg45
V579
p299
sg76
(lp300
(VHAMMOND
VS M
tp301
asg55
I2005
sg41
V5822
p302
sbag1
(g2
g3
NtRp303
(dp304
g47
V10.1101/gad.1262504
p305
sg43
VGENE DEV
p306
sg45
V18
p307
sg76
(lp308
(VHAN
VJ J
tp309
asg55
I2004
sg41
V3016
p310
sbag1
(g2
g3
NtRp311
(dp312
g47
V10.1016/j.cell.2006.03.043
p313
sg43
VCELL
p314
sg45
V125
p315
sg76
(lp316
(VHAN
VJ J
tp317
asg55
I2006
sg41
V887
p318
sbag1
(g2
g3
NtRp319
(dp320
g47
V10.1073/pnas.0307969100
p321
sg43
VP NATL ACAD SCI USA
p322
sg45
V101
p323
sg76
(lp324
(VHAN
VM H
tp325
asg55
I2004
sg41
V1093
p326
sbag1
(g2
g3
NtRp327
(dp328
g47
V10.1146/annurev.biophys.093008.131348
p329
sg43
VANNU REV BIOPHYS
p330
sg45
V39
p331
sg76
(lp332
(VHUBNER
VM R
tp333
asg55
I2010
sg41
V471
p334
sbag1
(g2
g3
NtRp335
(dp336
g47
V10.1126/science.1062961
p337
sg43
VSCIENCE
p338
sg45
V293
p339
sg76
(lp340
(VHUTVAGNER
VG
tp341
asg55
I2001
sg41
V834
p342
sbag1
(g2
g3
NtRp343
(dp344
g47
V10.1101/gad.1334005
p345
sg43
VGENE DEV
p346
sg45
V19
p347
sg76
(lp348
(VJIANG
VF
tp349
asg55
I2005
sg41
V1674
p350
sbag1
(g2
g3
NtRp351
(dp352
g47
V10.1016/S0092-8674(03)00801-8
p353
sg43
VCELL
p354
sg45
V115
p355
sg76
(lp356
(VKHVOROVA
VA
tp357
asg55
I2003
sg41
V209
p358
sbag1
(g2
g3
NtRp359
(dp360
g47
V10.1016/j.tig.2006.01.003
p361
sg43
VTRENDS GENET
p362
sg45
V22
p363
sg76
(lp364
(VKIM
VV N
tp365
asg55
I2006
sg41
V165
p366
sbag1
(g2
g3
NtRp367
(dp368
g47
V10.1038/emboj.2011.3
p369
sg43
VEMBO J
p370
sg45
V30
p371
sg76
(lp372
(VKIM
VY J
tp373
asg55
I2011
sg41
V814
p374
sbag1
(g2
g3
NtRp375
(dp376
g47
V10.1261/rna.2146906
p377
sg43
VRNA
p378
sg45
V12
p379
sg76
(lp380
(VKURIHARA
VY
tp381
asg55
I2006
sg41
V206
p382
sbag1
(g2
g3
NtRp383
(dp384
g47
V10.1073/pnas.0403115101
p385
sg43
VP NATL ACAD SCI USA
p386
sg45
V101
p387
sg76
(lp388
(VKURIHARA
VY
tp389
asg55
I2004
sg41
V12753
p390
sbag1
(g2
g3
NtRp391
(dp392
g47
V10.1016/j.cub.2004.11.001
p393
sg43
VCURR BIOL
p394
sg45
V14
p395
sg76
(lp396
(VLANDTHALER
VM
tp397
asg55
I2004
sg41
V2162
p398
sbag1
(g2
g3
NtRp399
(dp400
g47
V10.1126/science.1065062
p401
sg43
VSCIENCE
p402
sg45
V294
p403
sg76
(lp404
(VLAU
VN C
tp405
asg55
I2001
sg41
V858
p406
sbag1
(g2
g3
NtRp407
(dp408
g47
V10.1073/pnas.0802493105
p409
sg43
VP NATL ACAD SCI USA
p410
sg45
V105
p411
sg76
(lp412
(VLAUBINGER
VS
tp413
asg55
I2008
sg41
V8795
p414
sbag1
(g2
g3
NtRp415
(dp416
g47
V10.1038/nrg2719
p417
sg43
VNAT REV GENET
p418
sg45
V11
p419
sg76
(lp420
(VLAW
VJ A
tp421
asg55
I2010
sg41
V204
p422
sbag1
(g2
g3
NtRp423
(dp424
g47
V10.1038/sj.emboj.7600385
p425
sg43
VEMBO J
p426
sg45
V23
p427
sg76
(lp428
(VLEE
VY
tp429
asg55
I2004
sg41
V4051
p430
sbag1
(g2
g3
NtRp431
(dp432
g47
V10.1016/j.cell.2006.05.032
p433
sg43
VCELL
p434
sg45
V126
p435
sg76
(lp436
(VLI
VC F
tp437
asg55
I2006
sg41
V93
p438
sbag1
(g2
g3
NtRp439
(dp440
g47
V10.1016/j.cub.2005.07.029
p441
sg43
VCURR BIOL
p442
sg45
V15
p443
sg76
(lp444
(VLI
VJ J
tp445
asg55
I2005
sg41
V1501
p446
sbag1
(g2
g3
NtRp447
(dp448
g47
V10.1105/tpc.003210
p449
sg43
VPLANT CELL
p450
sg45
V14
p451
sg76
(lp452
(VLLAVE
VC
tp453
asg55
I2002
sg41
VLANT
p454
sbag1
(g2
g3
NtRp455
(dp456
g47
V10.1126/science.1090599
p457
sg43
VSCIENCE
p458
sg45
V303
p459
sg76
(lp460
(VLUND
VE
tp461
asg55
I2004
sg41
V95
p462
sbag1
(g2
g3
NtRp463
(dp464
g47
V10.1016/j.tig.2011.05.006
p465
sg43
VTRENDS GENET
p466
sg45
V27
p467
sg76
(lp468
(VMAO
VY T S
tp469
asg55
I2011
sg41
V295
p470
sbag1
(g2
g3
NtRp471
(dp472
g47
V10.1016/j.cell.2008.02.034
p473
sg43
VCELL
p474
sg45
V133
p475
sg76
(lp476
(VMI
VS J
tp477
asg55
I2008
sg41
V116
p478
sbag1
(g2
g3
NtRp479
(dp480
g47
V10.1101/cshperspect.a000794
p481
sg43
VCSH PERSPECT BIOL
p482
sg45
V2
sg76
(lp483
(VMISTELI
VT
tp484
asg55
I2010
sg41
Nsbag1
(g2
g3
NtRp485
(dp486
g47
V10.1101/gad.1370605
p487
sg43
VGENE DEV
p488
sg45
V19
p489
sg76
(lp490
(VMIYOSHI
VK
tp491
asg55
I2005
sg41
V2837
p492
sbag1
(g2
g3
NtRp493
(dp494
g47
V10.1038/nature05903
p495
sg43
VNATURE
p496
sg45
V447
p497
sg76
(lp498
(VMOLNAR
VA
tp499
asg55
I2007
sg41
V1126
p500
sbag1
(g2
g3
NtRp501
(dp502
g47
V10.1073/pnas.0804356105
p503
sg43
VP NATL ACAD SCI USA
p504
sg45
V105
p505
sg76
(lp506
(VMONTGOMERY
VT A
tp507
asg55
I2008
sg41
V8489
p508
sbag1
(g2
g3
NtRp509
(dp510
g47
V10.1101/sqb.2010.75.005
p511
sg43
VCold Spring Harb Symp Quant Biol
p512
sg45
V75
p513
sg76
(lp514
(VNIZAMI
VZ F
tp515
asg55
I2010
sg41
V313
p516
sbag1
(g2
g3
NtRp517
(dp518
g47
V10.1016/j.molcel.2009.09.027
p519
sg43
VMOL CELL
p520
sg45
V36
p521
sg76
(lp522
(VOKAMURA
VK
tp523
asg55
I2009
sg41
V431
p524
sbag1
(g2
g3
NtRp525
(dp526
g47
V10.1016/j.cell.2007.06.028
p527
sg43
VCELL
p528
sg45
V130
p529
sg76
(lp530
(VOKAMURA
VK
tp531
asg55
I2007
sg41
V89
p532
sbag1
(g2
g3
NtRp533
(dp534
g47
V10.1016/j.cub.2007.01.060
p535
sg43
VCURR BIOL
p536
sg45
V17
p537
sg76
(lp538
(VPARK
VJ K
tp539
asg55
I2007
sg41
V533
p540
sbag1
(g2
g3
NtRp541
(dp542
g47
V10.1073/pnas.0405570102
p543
sg43
VP NATL ACAD SCI USA
p544
sg45
V102
p545
sg76
(lp546
(VPARK
VM Y
tp547
asg55
I2005
sg41
V3691
p548
sbag1
(g2
g3
NtRp549
(dp550
g47
V10.1016/S0960-9822(02)01017-5
p551
sg43
VCURR BIOL
p552
sg45
V12
p553
sg76
(lp554
(VPARK
VW
tp555
asg55
I2002
sg41
V1484
p556
sbag1
(g2
g3
NtRp557
(dp558
g47
V10.1016/j.gde.2009.06.001
p559
sg43
VCURR OPIN GENET DEV
p560
sg45
V19
p561
sg76
(lp562
(VPOETHIG
VR S
tp563
asg55
I2009
sg41
V374
p564
sbag1
(g2
g3
NtRp565
(dp566
g47
V10.1016/j.cell.2006.05.031
p567
sg43
VCELL
p568
sg45
V126
p569
sg76
(lp570
(VPONTES
VO
tp571
asg55
I2006
sg41
V79
p572
sbag1
(g2
g3
NtRp573
(dp574
g47
V10.1016/j.molcel.2005.06.014
p575
sg43
VMOL CELL
p576
sg45
V19
p577
sg76
(lp578
(VQI
VY
tp579
asg55
I2005
sg41
V421
p580
sbag1
(g2
g3
NtRp581
(dp582
g47
V10.1126/science.1163728
p583
sg43
VSCIENCE
p584
sg45
V321
p585
sg76
(lp586
(VRAMACHANDRAN
VV
tp587
asg55
I2008
sg41
V1490
p588
sbag1
(g2
g3
NtRp589
(dp590
g47
V10.1016/j.cell.2005.10.020
p591
sg43
VCELL
p592
sg45
V123
p593
sg76
(lp594
(VRAND
VT A
tp595
asg55
I2005
sg41
V621
p596
sbag1
(g2
g3
NtRp597
(dp598
g47
V10.1101/gad.1004402
p599
sg43
VGENE DEV
p600
sg45
V16
p601
sg76
(lp602
(VREINHART
VB J
tp603
asg55
I2002
sg41
V1616
p604
sbag1
(g2
g3
NtRp605
(dp606
g47
V10.1038/35002607
p607
sg43
VNATURE
p608
sg45
V403
p609
sg76
(lp610
(VREINHART
VB J
tp611
asg55
I2000
sg41
V901
p612
sbag1
(g2
g3
NtRp613
(dp614
g47
V10.1038/nature05983
p615
sg43
VNATURE
p616
sg45
V448
p617
sg76
(lp618
(VRUBY
VJ G
tp619
asg55
I2007
sg41
V83
p620
sbag1
(g2
g3
NtRp621
(dp622
g47
V10.1016/j.cell.2009.04.045
p623
sg43
VCELL
p624
sg45
V138
p625
sg76
(lp626
(VSABIN
VL R
tp627
asg55
I2009
sg41
V340
p628
sbag1
(g2
g3
NtRp629
(dp630
g47
V10.1371/journal.pbio.0030235
p631
sg43
VPLOS BIOL
p632
sg45
V3
sg76
(lp633
(VSAITO
VK
tp634
asg55
I2005
sg41
VLOS
p635
sbag1
(g2
g3
NtRp636
(dp637
g47
V10.1016/S1360-1385(02)02355-5
p638
sg43
VTRENDS PLANT SCI
p639
sg45
V7
sg76
(lp640
(VSCHAUER
VS E
tp641
asg55
I2002
sg41
V487
p642
sbag1
(g2
g3
NtRp643
(dp644
g47
V10.1016/S0092-8674(03)00759-1
p645
sg43
VCELL
p646
sg45
V115
p647
sg76
(lp648
(VSCHWARZ
VD S
tp649
asg55
I2003
sg41
V199
p650
sbag1
(g2
g3
NtRp651
(dp652
g47
V10.1016/j.ppi.2004.09.011
p653
sg43
VCURR OPIN PLANT BIOL
p654
sg45
V7
sg76
(lp655
(VSHAW
VP J
tp656
asg55
I2004
sg41
V614
p657
sbag1
(g2
g3
NtRp658
(dp659
g47
V10.1016/j.pbi.2010.11.007
p660
sg43
VCURR OPIN PLANT BIOL
p661
sg45
V14
p662
sg76
(lp663
(VSIMON
VS A
tp664
asg55
I2011
sg41
V148
p665
sbag1
(g2
g3
NtRp666
(dp667
g47
V10.1073/pnas.0701061104
p668
sg43
VP NATL ACAD SCI USA
p669
sg45
V104
p670
sg76
(lp671
(VSONG
VL
tp672
asg55
I2007
sg41
V5437
p673
sbag1
(g2
g3
NtRp674
(dp675
g47
V10.1101/gad.1201404
p676
sg43
VGENE DEV
p677
sg45
V18
p678
sg76
(lp679
(VVAUCHERET
VH
tp680
asg55
I2004
sg41
V1187
p681
sbag1
(g2
g3
NtRp682
(dp683
g47
V[10.1016/j.cub.2004.01.035, 10.1016/S0960-9822(04)00047-8]
p684
sg43
VCURR BIOL
p685
sg45
V14
p686
sg76
(lp687
(VVAZQUEZ
VF
tp688
asg55
I2004
sg41
V346
p689
sbag1
(g2
g3
NtRp690
(dp691
g47
V10.1016/j.cell.2009.01.046
p692
sg43
VCELL
p693
sg45
V136
p694
sg76
(lp695
(VVOINNET
VO
tp696
asg55
I2009
sg41
V669
p697
sbag1
(g2
g3
NtRp698
(dp699
g47
V10.1105/tpc.106.048637
p700
sg43
VPLANT CELL
p701
sg45
V19
p702
sg76
(lp703
(VWU
VF J
tp704
asg55
I2007
sg41
VLANT
p705
sbag1
(g2
g3
NtRp706
(dp707
g47
V10.1104/pp.105.062943
p708
sg43
VPLANT PHYSIOL
p709
sg45
V138
p710
sg76
(lp711
(VXIE
VZ X
tp712
asg55
I2005
sg41
VLANT
p713
sbag1
(g2
g3
NtRp714
(dp715
g47
V10.1111/j.1365-313X.2006.02835.x
p716
sg43
VPLANT J
p717
sg45
V47
p718
sg76
(lp719
(VYANG
VL
tp720
asg55
I2006
sg41
VLANT
p721
sbag1
(g2
g3
NtRp722
(dp723
g47
V10.1016/j.str.2010.02.006
p724
sg43
VSTRUCTURE
p725
sg45
V18
p726
sg76
(lp727
(VYANG
VS W
tp728
asg55
I2010
sg41
V594
p729
sbag1
(g2
g3
NtRp730
(dp731
g47
V10.1093/nar/gkj474
p732
sg43
VNUCLEIC ACIDS RES
p733
sg45
V34
p734
sg76
(lp735
(VYANG
VZ Y
tp736
asg55
I2006
sg41
V667
p737
sbag1
(g2
g3
NtRp738
(dp739
g47
V10.1101/gad.1158803
p740
sg43
VGENE DEV
p741
sg45
V17
p742
sg76
(lp743
(VYI
VR
tp744
asg55
I2003
sg41
V3011
p745
sbag1
(g2
g3
NtRp746
(dp747
g47
V10.1126/science.1107130
p748
sg43
VSCIENCE
p749
sg45
V307
p750
sg76
(lp751
(VYU
VB
tp752
asg55
I2005
sg41
V932
p753
sbag1
(g2
g3
NtRp754
(dp755
g47
V10.1073/pnas.0804218105
p756
sg43
VP NATL ACAD SCI USA
p757
sg45
V105
p758
sg76
(lp759
(VYU
VB
tp760
asg55
I2008
sg41
V10073
p761
sbag1
(g2
g3
NtRp762
(dp763
g47
V10.1038/sj.emboj.7600491
p764
sg43
VEMBO J
p765
sg45
V24
p766
sg76
(lp767
(VZENG
VY
tp768
asg55
I2005
sg41
V138
p769
sbag1
(g2
g3
NtRp770
(dp771
g47
V10.1016/j.pbi.2011.02.003
p772
sg43
VCURR OPIN PLANT BIOL
p773
sg45
V14
p774
sg76
(lp775
(VZHANG
VH M
tp776
asg55
I2011
sg41
V142
p777
sbag1
(g2
g3
NtRp778
(dp779
g47
V10.1101/gad.1543507
p780
sg43
VGENE DEV
p781
sg45
V21
p782
sg76
(lp783
(VZHAO
VT
tp784
asg55
I2007
sg41
V1190
p785
sbasb.