ccopy_reg
_reconstructor
p1
(ctethne.classes.paper
Paper
p2
c__builtin__
object
p3
NtRp4
(dp5
S'publisherCity'
p6
VROCKVILLE
p7
sS'reprintAddress'
p8
VO'Neill, MA (reprint author), Univ Georgia, Complex Carbohydrate Res Ctr, 315 Riverbend Rd, Athens, GA 30602 USA.
p9
sS'WC'
p10
VPlant Sciences
p11
sS'GA'
p12
V767EL
p13
sS'abstract'
p14
VBorate ester cross-linking of the cell wall pectic polysaccharide rhamnogalacturonan II (RG-II) is required for the growth and development of angiosperms and gymnosperms. Here, we report that the amounts of borate cross-linked RG-II present in the sporophyte primary walls of members of the most primitive extant vascular plant groups (Lycopsida, Filicopsida, Equisetopsida, and Psilopsida) are comparable with the amounts of RG-II in the primary walls of angiosperms. By contrast, the gametophyte generation of members of the avascular bryophytes (Bryopsida, Hepaticopsida, and Anthocerotopsida) have primary walls that contain small amounts (approximately 1% of the amounts of RG-II present in angiosperm walls) of an RG-II-like polysaccharide. The glycosyl sequence of RG-II is conserved. in vascular plants, but these RG-IIs are not identical because the non-reducing L-rhamnosyl residue present on the aceric acid-containing side chain of RG-II of all previously studied plants is replaced by a 3-O-methyl rhamnosyl residue in the RG-IIs isolated from Lycopodium tristachyum, Ceratopteris thalictroides, Platycerium bifurcatum, and Psilotum nudum. Our data indicate that the amount of RG-II incorporated into the walls of plants increased during the evolution of vascular plants from their bryophyte-like ancestors. Thus, the acquisition of a boron-dependent growth habit, may be correlated with the ability of vascular plants to maintain upright growth and to form lignified secondary walls. The conserved structures of pteridophyte, lycophyte, and angiosperm RG-IIs suggests that the genes and proteins responsible for the biosynthesis of this polysaccharide appeared early in land plant evolution and that RG-II has a fundamental role in wall structure.
p15
sS'pageEnd'
p16
I351
sS'publisherAddress'
p17
V15501 MONONA DRIVE, ROCKVILLE, MD 20855 USA
p18
sS'documentType'
p19
VArticle
p20
sS'subject'
p21
VPlant Sciences
p22
sS'isoSource'
p23
VPlant Physiol.
p24
sS'timesCited'
p25
(lp26
I63
aVZ9 70
p27
asS'PT'
p28
VJ
sS'title'
p29
VOccurrence Of The Primary Cell Wall Polysaccharide Rhamnogalacturonan Ii In Pteridophytes, Lycophytes, And Bryophytes. Implications For The Evolution Of Vascular Plants
p30
sS'ISSN'
p31
(lp32
V0032-0889
p33
aVJ9 PLANT PHYSIOL
p34
asS'authors_full'
p35
(lp36
(VMATSUNAGA
VT
tp37
a(VISHII
VT
tp38
a(VMATSUMOTO
VS
tp39
a(VHIGUCHI
VM
tp40
a(VDARVILL
VA
tp41
a(VALBERSHEIM
VP
tp42
a(VONEILL
VMA
tp43
asS'PG'
p44
I13
sS'PD'
p45
VJAN
p46
sS'pageStart'
p47
I339
sS'issue'
p48
I1
sS'journal'
p49
VPLANT PHYSIOLOGY
p50
sS'volume'
p51
V134
p52
sS'doi'
p53
V10.1104/pp.103.030072
p54
sS'emailAddress'
p55
Vmao@ccrc.uga.edu
p56
sS'authorAddress'
p57
(lp58
VUniv Georgia, Complex Carbohydrate Res Ctr, Athens, GA 30602 USA.
p59
aVNatl Agr Res Ctr Kyushu Okinawa Reg, Nishigoshi, Kumamoto 8611192, Japan.
p60
aVForestry & Forest Prod Res Inst, Tsukuba, Ibaraki 3058687, Japan.
p61
aVNatl Sci Museum, Tsukuba, Ibaraki 3050005, Japan.
p62
asS'date'
p63
I2004
sS'ER'
p64
V
sS'publisher'
p65
VAMER SOC PLANT BIOLOGISTS
p66
sS'authorKeywords'
p67
(lp68
VPECTIC POLYSACCHARIDE
p69
aVSTRUCTURAL-CHARACTERIZATION
p70
aVCROSS-LINKING
p71
aVBORATE ESTER
p72
aVBORON
p73
aVCOMPLEX
p74
aVREQUIREMENT
p75
aVDIMER
p76
aVBIOLOGY
p77
aVORIGIN
p78
asS'language'
p79
VEnglish
p80
sS'wosid'
p81
VWOS:000188427200035
p82
sS'citationCount'
p83
I44
sS'authors_init'
p84
(lp85
(VMATSUNAGA
VT
tp86
a(VISHII
VT
tp87
a(VMATSUMOTO
VS
tp88
a(VHIGUCHI
VM
tp89
a(VDARVILL
VA
tp90
a(VALBERSHEIM
VP
tp91
a(VONEILL
VM A
tp92
asS'citedReferences'
p93
(lp94
g1
(g2
g3
NtRp95
(dp96
g53
Nsg49
VSTRASBURGERS TXB BOT
p97
sg51
Nsg84
(lp98
(VBELL
VP
tp99
asg63
I1965
sg47
Nsbag1
(g2
g3
NtRp100
(dp101
g53
V10.1016/0003-2697(73)90377-1
p102
sg49
VANAL BIOCHEM
p103
sg51
V54
p104
sg84
(lp105
(VBLUMENKRN
S''
tp106
asg63
I1973
sg47
V484
p107
sbag1
(g2
g3
NtRp108
(dp109
g53
Nsg49
VAM FERN J
p110
sg51
V55
p111
sg84
(lp112
(VBOWEN
VE B
tp113
asg63
I1965
sg47
V67
p114
sbag1
(g2
g3
NtRp115
(dp116
g53
V10.1055/s-2002-25740
p117
sg49
VPLANT BIOLOGY
p118
sg51
V4
sg84
(lp119
(VBROWN
VP H
tp120
asg63
I2002
sg47
VLANT
p121
sbag1
(g2
g3
NtRp122
(dp123
g53
V10.1111/j.1365-313X.1993.tb00007.x
p124
sg49
VPLANT J
p125
sg51
V3
sg84
(lp126
(VCARPITA
VN C
tp127
asg63
I1993
sg47
VLANT
p128
sbag1
(g2
g3
NtRp129
(dp130
g53
V10.1016/0008-6215(84)85242-8
p131
sg49
VCARBOHYD RES
p132
sg51
V131
p133
sg84
(lp134
(VCIUCANU
VI
tp135
asg63
I1984
sg47
V209
p136
sbag1
(g2
g3
NtRp137
(dp138
g53
V10.1023/A:1004264009230
p139
sg49
VPLANT SOIL
p140
sg51
V193
p141
sg84
(lp142
(VDELL
VB
tp143
asg63
I1997
sg47
VLANT
p144
sbag1
(g2
g3
NtRp145
(dp146
g53
V10.1104/pp.121.3.829
p147
sg49
VPLANT PHYSIOL
p148
sg51
V121
p149
sg84
(lp150
(VFLEISCHER
VA
tp151
asg63
I1999
sg47
VLANT
p152
sbag1
(g2
g3
NtRp153
(dp154
g53
V10.1016/S0008-6215(00)83788-X
p155
sg49
VCARBOHYD RES
p156
sg51
V77
p157
sg84
(lp158
(VGERWIG
VG J
tp159
asg63
I1979
sg47
V1
sbag1
(g2
g3
NtRp160
(dp161
g53
V10.1016/0076-6879(90)93445-Q
p162
sg49
VMETHOD ENZYMOL
p163
sg51
V193
p164
sg84
(lp165
(VGILLECECASTRO
VB L
tp166
asg63
I1990
sg47
V689
p167
sbag1
(g2
g3
NtRp168
(dp169
g53
Nsg49
VORIGIN LAND PLANTS
p170
sg51
Nsg84
(lp171
(VGRAHAM
VL E
tp172
asg63
I1993
sg47
Nsbag1
(g2
g3
NtRp173
(dp174
g53
Nsg49
VBRYOLOGIST
p175
sg51
V69
p176
sg84
(lp177
(VHOFFMAN
VG R
tp178
asg63
I1966
sg47
V182
p179
sbag1
(g2
g3
NtRp180
(dp181
g53
V10.1093/jxb/47.2.227
p182
sg49
VJ EXP BOT
p183
sg51
V47
p184
sg84
(lp185
(VHU
VH N
tp186
asg63
I1996
sg47
V227
p187
sbag1
(g2
g3
NtRp188
(dp189
g53
V10.1074/jbc.274.19.13098
p190
sg49
VJ BIOL CHEM
p191
sg51
V274
p192
sg84
(lp193
(VISHII
VT
tp194
asg63
I1999
sg47
V13098
p195
sbag1
(g2
g3
NtRp196
(dp197
g53
V10.1016/S0031-9422(01)00047-4
p198
sg49
VPHYTOCHEMISTRY
p199
sg51
V57
p200
sg84
(lp201
(VISHII
VT
tp202
asg63
I2001
sg47
VHYTOCHEMISTRY
p203
sbag1
(g2
g3
NtRp204
(dp205
g53
V10.1016/0008-6215(96)00010-9
p206
sg49
VCARBOHYD RES
p207
sg51
V284
p208
sg84
(lp209
(VISHII
VT
tp210
asg63
I1996
sg47
V1
sbag1
(g2
g3
NtRp211
(dp212
g53
V10.1104/pp.126.4.1698
p213
sg49
VPLANT PHYSIOL
p214
sg51
V126
p215
sg84
(lp216
(VISHII
VT
tp217
asg63
I2001
sg47
VLANT
p218
sbag1
(g2
g3
NtRp219
(dp220
g53
V10.1073/pnas.252530499
p221
sg49
VP NATL ACAD SCI USA
p222
sg51
V99
p223
sg84
(lp224
(VIWAI
VH
tp225
asg63
I2002
sg47
V16319
p226
sbag1
(g2
g3
NtRp227
(dp228
g53
V10.1016/S0031-9422(96)00539-0
p229
sg49
VPHYTOCHEMISTRY
p230
sg51
V44
p231
sg84
(lp232
(VKANEKO
VS
tp233
asg63
I1997
sg47
VHYTOCHEMISTRY
p234
sbag1
(g2
g3
NtRp235
(dp236
g53
V10.1098/rstb.2000.0619
p237
sg49
VPHILOS T ROY SOC B
p238
sg51
V355
p239
sg84
(lp240
(VKENRICK
VP
tp241
asg63
I2000
sg47
VHILOS
p242
sbag1
(g2
g3
NtRp243
(dp244
g53
V10.1038/37918
p245
sg49
VNATURE
p246
sg51
V389
p247
sg84
(lp248
(VKENRICK
VP
tp249
asg63
I1997
sg47
V33
p250
sbag1
(g2
g3
NtRp251
(dp252
g53
Nsg49
VPLANT PHYSIOL
p253
sg51
V110
p254
sg84
(lp255
(VKOBAYASHI
VM
tp256
asg63
I1996
sg47
VLANT
p257
sbag1
(g2
g3
NtRp258
(dp259
g53
V10.1111/j.1469-8137.1980.tb04423.x
p260
sg49
VNEW PHYTOL
p261
sg51
V84
p262
sg84
(lp263
(VLEWIS
VD H
tp264
asg63
I1980
sg47
V209
p265
sbag1
(g2
g3
NtRp266
(dp267
g53
V10.1046/j.1469-8137.2002.00538.x
p268
sg49
VNEW PHYTOL
p269
sg51
V156
p270
sg84
(lp271
(VLIGRONE
VR
tp272
asg63
I2002
sg47
V491
p273
sbag1
(g2
g3
NtRp274
(dp275
g53
V10.1016/0008-6215(86)85037-6
p276
sg49
VCARBOHYD RES
p277
sg51
V146
p278
sg84
(lp279
(VLIKHOSHERSTOV
VL M
tp280
asg63
I1986
sg47
VC1
p281
sbag1
(g2
g3
NtRp282
(dp283
g53
Nsg49
VBIOFACTORS
p284
sg51
V3
sg84
(lp285
(VLOOMIS
VW D
tp286
asg63
I1992
sg47
V229
p287
sbag1
(g2
g3
NtRp288
(dp289
g53
V10.1111/j.1469-8137.1985.tb03679.x
p290
sg49
VNEW PHYTOL
p291
sg51
V99
p292
sg84
(lp293
(VLOVATT
VC J
tp294
asg63
I1985
sg47
V509
p295
sbag1
(g2
g3
NtRp296
(dp297
g53
Nsg49
VPLANT CELL PHYSIOL
p298
sg51
V37
p299
sg84
(lp300
(VMATOH
VT
tp301
asg63
I1996
sg47
VLANT
p302
sbag1
(g2
g3
NtRp303
(dp304
g53
V10.1007/BF02507164
p305
sg49
VJ PLANT RES
p306
sg51
V111
p307
sg84
(lp308
(VMATOH
VT
tp309
asg63
I1998
sg47
V179
p310
sbag1
(g2
g3
NtRp311
(dp312
g53
Nsg49
VPLANT NUTR SUSTAINAB
p313
sg51
Nsg84
(lp314
(VMATSUNAGA
VT
tp315
asg63
I1997
sg47
VLANT
p316
sbag1
(g2
g3
NtRp317
(dp318
g53
Nsg49
VEVOLUTIONARY BIOL PL
p319
sg51
Nsg84
(lp320
(VNIKLAS
VK J
tp321
asg63
I1997
sg47
Nsbag1
(g2
g3
NtRp322
(dp323
g53
Nsg49
VMETHODS PLANT BIOCH
p324
sg51
V2
sg84
(lp325
(VO'NEILL
VM
tp326
asg63
I1990
sg47
V415
p327
sbag1
(g2
g3
NtRp328
(dp329
g53
Nsg49
VJ BIOL CHEM
p330
sg51
V271
p331
sg84
(lp332
(VONEILL
VM A
tp333
asg63
I1996
sg47
V22923
p334
sbag1
(g2
g3
NtRp335
(dp336
g53
V10.1126/science.1062319
p337
sg49
VSCIENCE
p338
sg51
V294
p339
sg84
(lp340
(VO'NEILL
VM A
tp341
asg63
I2001
sg47
V846
p342
sbag1
(g2
g3
NtRp343
(dp344
g53
V10.1093/aob/mcg013
p345
sg49
VANN BOT
p346
sg51
V91
p347
sg84
(lp348
(VPOPPER
VZ A
tp349
asg63
I2003
sg47
V1
sbag1
(g2
g3
NtRp350
(dp351
g53
Nsg49
VTRENDS PLANT SCI
p352
sg51
V4
sg84
(lp353
(VQIU
VY L
tp354
asg63
I1999
sg47
V6
sbag1
(g2
g3
NtRp355
(dp356
g53
Nsg49
VIN PRESS PLANTA
p357
sg51
Nsg84
(lp358
(VREUHS
VB L
tp359
asg63
I2003
sg47
Nsbag1
(g2
g3
NtRp360
(dp361
g53
V10.1016/S0031-9422(01)00113-3
p362
sg49
VPHYTOCHEMISTRY
p363
sg51
V57
p364
sg84
(lp365
(VRIDLEY
VB L
tp366
asg63
I2001
sg47
VHYTOCHEMISTRY
p367
sbag1
(g2
g3
NtRp368
(dp369
g53
V10.1074/jbc.M905750199
p370
sg49
VJ BIOL CHEM
p371
sg51
V275
p372
sg84
(lp373
(VROYO
VJ
tp374
asg63
I2000
sg47
V24993
p375
sbag1
(g2
g3
NtRp376
(dp377
g53
V10.1016/S0168-9525(00)02102-8
p378
sg49
VTRENDS GENET
p379
sg51
V16
p380
sg84
(lp381
(VROYO
VJ
tp382
asg63
I2000
sg47
V432
p383
sbag1
(g2
g3
NtRp384
(dp385
g53
V10.1007/BF01177918
p386
sg49
VJ WOOD SCI
p387
sg51
V45
p388
sg84
(lp389
(VSHIMOKAWA
VT
tp390
asg63
I1999
sg47
V435
p391
sbag1
(g2
g3
NtRp392
(dp393
g53
V10.1016/0008-6215(83)88413-4
p394
sg49
VCARBOHYD RES
p395
sg51
V122
p396
sg84
(lp397
(VSPELLMAN
VM W
tp398
asg63
I1983
sg47
V131
p399
sbag1
(g2
g3
NtRp400
(dp401
g53
V10.1016/0008-6215(94)00002-W
p402
sg49
VCARBOHYD RES
p403
sg51
V271
p404
sg84
(lp405
(VWHITCOMBE
VA J
tp406
asg63
I1995
sg47
V15
p407
sbag1
(g2
g3
NtRp408
(dp409
g53
Nsg49
VMETHOD ENZYMOL
p410
sg51
V118
p411
sg84
(lp412
(VYORK
VW S
tp413
asg63
I1985
sg47
V3
sbasb.