ccopy_reg
_reconstructor
p1
(ctethne.classes.paper
Paper
p2
c__builtin__
object
p3
NtRp4
(dp5
S'publisherCity'
p6
VROCKVILLE
p7
sS'reprintAddress'
p8
VReid, JB (reprint author), Univ Tasmania, Sch Plant Sci, GPO 252-55, Hobart, Tas 7001, Australia.
p9
sS'WC'
p10
VPlant Sciences
p11
sS'GA'
p12
V638UH
p13
sS'abstract'
p14
VThe gibberellin (GA)-deficient dwarf na mutant in pea (Pisum sativum) has severely reduced internode elongation, reduced root growth, and decreased leaflet size. However, the seeds develop normally. Two genes, PSKAO1 and PsKAO2, encoding cytochrome P450 monooxygenases of the subfamily CYP88A were isolated. Both PsKAO1 and PsKAO2 had ent-kaurenoic acid oxidase (KAO) activity, catalyzing the three steps of the GA biosynthetic pathway from ent-kaurenoic acid to GA(12) when expressed in yeast (Saccharomyces cerevisiae). In addition to the intermediates ent-7alpha-hydroxykaurenoic acid and GA12 aldehyde, some additional products of the pea KAO activity were detected, including ent-6alpha,7alpha-dihydroxykaurenoic acid and 7beta-hydroxykaurenolide. The NA gene encodes PsKAO1, because in two independent mutant alleles, na-1 and na-2, PsKAO1 had altered sequences and the five-base deletion in PSKAO1 associated with the na-1 allele cosegregated with the dwarf na phenotype. PSKAO1 was expressed in the stem, apical bud, leaf, pod, and root, organs in which GA levels have previously been shown to be reduced in na plants. PsKAO2 was expressed only in seeds and this may explain the normal seed development and normal GA biosynthesis in seeds of na plants.
p15
sS'pageEnd'
p16
I344
sS'date'
p17
I2003
sS'documentType'
p18
VArticle
p19
sS'subject'
p20
VPlant Sciences
p21
sS'isoSource'
p22
VPlant Physiol.
p23
sS'timesCited'
p24
(lp25
I37
aVZ9 45
p26
asS'PT'
p27
VJ
sS'title'
p28
VThe Pea Gene Na Encodes Ent-Kaurenoic Acid Oxidase
p29
sS'ISSN'
p30
(lp31
V0032-0889
p32
aVJ9 PLANT PHYSIOL
p33
asS'authors_full'
p34
(lp35
(VDAVIDSON
VSE
tp36
a(VELLIOTT
VRC
tp37
a(VHELLIWELL
VCA
tp38
a(VPOOLE
VAT
tp39
a(VREID
VJB
tp40
asS'PG'
p41
I10
sS'PD'
p42
VJAN
p43
sS'pageStart'
p44
I335
sS'issue'
p45
I1
sS'RI'
p46
VHelliwell, Chris/A-1469-2008; Reid, James/C-9269-2013
p47
sS'journal'
p48
VPLANT PHYSIOLOGY
p49
sS'volume'
p50
V131
p51
sS'doi'
p52
V10.1104/pp.012963
p53
sS'authorAddress'
p54
(lp55
VUniv Tasmania, Sch Plant Sci, Hobart, Tas 7001, Australia.
p56
aVCSIRO, Canberra, ACT 2601, Australia.
p57
asS'publisherAddress'
p58
V15501 MONONA DRIVE, ROCKVILLE, MD 20855 USA
p59
sS'ER'
p60
V
sS'publisher'
p61
VAMER SOC PLANT BIOLOGISTS
p62
sS'authorKeywords'
p63
(lp64
VCELL-FREE SYSTEM
p65
aVPISUM-SATIVUM-L
p66
aVCATALYZES 3 STEPS
p67
aVGIBBERELLIN BIOSYNTHESIS
p68
aVINTERNODE LENGTH
p69
aVARABIDOPSIS-THALIANA
p70
aVSEED DEVELOPMENT
p71
aVBRASSINOSTEROID BIOSYNTHESIS
p72
aVMOLECULAR-CLONING
p73
aVCUCURBITA-MAXIMA
p74
asS'OI'
p75
VHelliwell, Chris/0000-0001-5943-897X; 
p76
sS'language'
p77
VEnglish
p78
sS'wosid'
p79
VWOS:000180589500036
p80
sS'citationCount'
p81
I67
sS'authors_init'
p82
(lp83
(VDAVIDSON
VS E
tp84
a(VELLIOTT
VR C
tp85
a(VHELLIWELL
VC A
tp86
a(VPOOLE
VA T
tp87
a(VREID
VJ B
tp88
asS'citedReferences'
p89
(lp90
g1
(g2
g3
NtRp91
(dp92
g52
V10.1046/j.1365-313X.1997.11030443.x
p93
sg48
VPLANT J
p94
sg50
V11
p95
sg82
(lp96
(VAITALI
VT
tp97
asg17
I1997
sg44
VLANT
p98
sbag1
(g2
g3
NtRp99
(dp100
g52
V10.1093/nar/25.17.3389
p101
sg48
VNUCLEIC ACIDS RES
p102
sg50
V25
p103
sg82
(lp104
(VALTSCHUL
VS F
tp105
asg17
I1997
sg44
V3389
p106
sbag1
(g2
g3
NtRp107
(dp108
g52
Nsg48
VCURRENT PROTOCOLS MO
p109
sg50
V1
sg82
(lp110
(VAUSUBEL
VF M
tp111
asg17
I1994
sg44
Nsbag1
(g2
g3
NtRp112
(dp113
g52
Nsg48
VPHYSIOL PLANTARUM
p114
sg50
V96
p115
sg82
(lp116
(VBEVERIDGE
VC A
tp117
asg17
I1996
sg44
VHYSIOL
p118
sbag1
(g2
g3
NtRp119
(dp120
g52
V10.1073/pnas.96.4.1761
p121
sg48
VP NATL ACAD SCI USA
p122
sg50
V96
p123
sg82
(lp124
(VBISHOP
VG J
tp125
asg17
I1999
sg44
V1761
p126
sbag1
(g2
g3
NtRp127
(dp128
g52
V10.1046/j.1365-313X.1996.10050771.x
p129
sg48
VPLANT J
p130
sg50
V10
p131
sg82
(lp132
(VBROWN
VJ W S
tp133
asg17
I1996
sg44
VLANT
p134
sbag1
(g2
g3
NtRp135
(dp136
g52
V10.1105/tpc.10.2.231
p137
sg48
VPLANT CELL
p138
sg50
V10
p139
sg82
(lp140
(VCHOE
VS W
tp141
asg17
I1998
sg44
VLANT
p142
sbag1
(g2
g3
NtRp143
(dp144
g52
V10.1016/0378-1119(88)90457-X
p145
sg48
VGENE
p146
sg50
V65
p147
sg82
(lp148
(VCULLIN
VC
tp149
asg17
I1988
sg44
V203
p150
sbag1
(g2
g3
NtRp151
(dp152
g52
V10.1073/pnas.85.23.8998
p153
sg48
VP NATL ACAD SCI USA
p154
sg50
V85
p155
sg82
(lp156
(VFROHMAN
VM A
tp157
asg17
I1988
sg44
V8998
p158
sbag1
(g2
g3
NtRp159
(dp160
g52
V10.1007/BF00388388
p161
sg48
VPLANTA
p162
sg50
V118
p163
sg82
(lp164
(VFRYDMAN
VV M
tp165
asg17
I1974
sg44
VLANTA
p166
sbag1
(g2
g3
NtRp167
(dp168
g52
Nsg48
VGC MS GIBBERELLINS R
p169
sg50
Nsg82
(lp170
(VGASKIN
VP
tp171
asg17
I1991
sg44
Nsbag1
(g2
g3
NtRp172
(dp173
g52
V10.1007/BF00216821
p174
sg48
VPLANTA
p175
sg50
V188
p176
sg82
(lp177
(VGROSSELINDEMANN
VE
tp178
asg17
I1992
sg44
VLANTA
p179
sbag1
(g2
g3
NtRp180
(dp181
g52
V10.1016/S1360-1385(99)01484-3
p182
sg48
VTRENDS PLANT SCI
p183
sg50
V4
sg82
(lp184
(VGUTIERREZ
VR A
tp185
asg17
I1999
sg44
V429
p186
sbag1
(g2
g3
NtRp187
(dp188
g52
V10.1146/annurev.arplant.48.1.431
p189
sg48
VANNU REV PLANT PHYS
p190
sg50
V48
p191
sg82
(lp192
(VHEDDEN
VP
tp193
asg17
I1997
sg44
V431
p194
sbag1
(g2
g3
NtRp195
(dp196
g52
V10.1016/S1360-1385(00)01790-8
p197
sg48
VTRENDS PLANT SCI
p198
sg50
V5
sg82
(lp199
(VHEDDEN
VP
tp200
asg17
I2000
sg44
V523
p201
sbag1
(g2
g3
NtRp202
(dp203
g52
V10.1034/j.1399-3054.1997.1010406.x
p204
sg48
VPHYSIOL PLANTARUM
p205
sg50
V101
p206
sg82
(lp207
(VHEDDEN
VP
tp208
asg17
I1997
sg44
VHYSIOL
p209
sbag1
(g2
g3
NtRp210
(dp211
g52
V10.1104/pp.119.2.365
p212
sg48
VPLANT PHYSIOL
p213
sg50
V119
p214
sg82
(lp215
(VHEDDEN
VP
tp216
asg17
I1999
sg44
VLANT
p217
sbag1
(g2
g3
NtRp218
(dp219
g52
Nsg48
VJ PLANT GROWTH REGUL
p220
sg50
V20
p221
sg82
(lp222
(VHEDDEN
VP
tp223
asg17
I2002
sg44
V319
p224
sbag1
(g2
g3
NtRp225
(dp226
g52
V10.1016/S0031-9422(00)80382-9
p227
sg48
VPHYTOCHEMISTRY
p228
sg50
V23
p229
sg82
(lp230
(VHEDDEN
VP
tp231
asg17
I1984
sg44
VHYTOCHEMISTRY
p232
sbag1
(g2
g3
NtRp233
(dp234
g52
V10.1071/PP00079
p235
sg48
VAUST J PLANT PHYSIOL
p236
sg50
V27
p237
sg82
(lp238
(VHELLIWELL
VC A
tp239
asg17
I2000
sg44
V1141
p240
sbag1
(g2
g3
NtRp241
(dp242
g52
V10.1073/pnas.95.15.9019
p243
sg48
VP NATL ACAD SCI USA
p244
sg50
V95
p245
sg82
(lp246
(VHELLIWELL
VC A
tp247
asg17
I1998
sg44
V9019
p248
sbag1
(g2
g3
NtRp249
(dp250
g52
V10.1073/pnas.041588998
p251
sg48
VP NATL ACAD SCI USA
p252
sg50
V98
p253
sg82
(lp254
(VHELLIWELL
VC A
tp255
asg17
I2001
sg44
V2065
p256
sbag1
(g2
g3
NtRp257
(dp258
g52
V10.1104/pp.119.2.507
p259
sg48
VPLANT PHYSIOL
p260
sg50
V119
p261
sg82
(lp262
(VHELLIWELL
VC A
tp263
asg17
I1999
sg44
VLANT
p264
sbag1
(g2
g3
NtRp265
(dp266
g52
V10.1007/BF00016489
p267
sg48
VPLANT MOL BIOL
p268
sg50
V26
p269
sg82
(lp270
(VHOOLEY
VR
tp271
asg17
I1994
sg44
VLANT
p272
sbag1
(g2
g3
NtRp273
(dp274
g52
V10.1073/pnas.86.20.7823
p275
sg48
VP NATL ACAD SCI USA
p276
sg50
V86
p277
sg82
(lp278
(VIMAI
VM
tp279
asg17
I1989
sg44
V7823
p280
sbag1
(g2
g3
NtRp281
(dp282
g52
V10.1007/BF00429763
p283
sg48
VPLANTA
p284
sg50
V160
p285
sg82
(lp286
(VINGRAM
VT J
tp287
asg17
I1984
sg44
VLANTA
p288
sbag1
(g2
g3
NtRp289
(dp290
g52
V10.1104/pp.83.4.1048
p291
sg48
VPLANT PHYSIOL
p292
sg50
V83
p293
sg82
(lp294
(VINGRAM
VT J
tp295
asg17
I1987
sg44
VLANT
p296
sbag1
(g2
g3
NtRp297
(dp298
g52
V10.1007/BF00392370
p299
sg48
VPLANTA
p300
sg50
V168
p301
sg82
(lp302
(VINGRAM
VT J
tp303
asg17
I1986
sg44
VLANTA
p304
sbag1
(g2
g3
NtRp305
(dp306
g52
V10.1073/pnas.85.19.7221
p307
sg48
VP NATL ACAD SCI USA
p308
sg50
V85
p309
sg82
(lp310
(VKALB
VV F
tp311
asg17
I1988
sg44
V7221
p312
sbag1
(g2
g3
NtRp313
(dp314
g52
V10.1016/S0031-9422(00)86962-9
p315
sg48
VPHYTOCHEMISTRY
p316
sg50
V22
p317
sg82
(lp318
(VKAMIYA
VY
tp319
asg17
I1983
sg44
VHYTOCHEMISTRY
p320
sbag1
(g2
g3
NtRp321
(dp322
g52
V10.1073/pnas.94.12.6553
p323
sg48
VP NATL ACAD SCI USA
p324
sg50
V94
p325
sg82
(lp326
(VLANGE
VT
tp327
asg17
I1997
sg44
V6553
p328
sbag1
(g2
g3
NtRp329
(dp330
g52
V10.1046/j.1365-313X.1999.00501.x
p331
sg48
VPLANT J
p332
sg50
V19
p333
sg82
(lp334
(VLESTER
VD R
tp335
asg17
I1999
sg44
VLANT
p336
sbag1
(g2
g3
NtRp337
(dp338
g52
Nsg48
VPLANT CELL
p339
sg50
V9
sg82
(lp340
(VLESTER
VD R
tp341
asg17
I1997
sg44
VLANT
p342
sbag1
(g2
g3
NtRp343
(dp344
g52
V10.1023/A:1006158701016
p345
sg48
VPLANT GROWTH REGUL
p346
sg50
V27
p347
sg82
(lp348
(VLESTER
VD R
tp349
asg17
I1999
sg44
VLANT
p350
sbag1
(g2
g3
NtRp351
(dp352
g52
V10.1039/np9971400221
p353
sg48
VNAT PROD REP
p354
sg50
V14
p355
sg82
(lp356
(VMACMILLAN
VJ
tp357
asg17
I1997
sg44
V221
p358
sbag1
(g2
g3
NtRp359
(dp360
g52
V10.1073/pnas.94.16.8907
p361
sg48
VP NATL ACAD SCI USA
p362
sg50
V94
p363
sg82
(lp364
(VMARTIN
VD N
tp365
asg17
I1997
sg44
V8907
p366
sbag1
(g2
g3
NtRp367
(dp368
g52
V10.1104/pp.121.3.775
p369
sg48
VPLANT PHYSIOL
p370
sg50
V121
p371
sg82
(lp372
(VMARTIN
VD N
tp373
asg17
I1999
sg44
VLANT
p374
sbag1
(g2
g3
NtRp375
(dp376
g52
V10.1104/pp.108.3.1049
p377
sg48
VPLANT PHYSIOL
p378
sg50
V108
p379
sg82
(lp380
(VPHILLIPS
VA L
tp381
asg17
I1995
sg44
VLANT
p382
sbag1
(g2
g3
NtRp383
(dp384
g52
V10.1016/S0076-6879(96)72008-6
p385
sg48
VMETHOD ENZYMOL
p386
sg50
V272
p387
sg82
(lp388
(VPOMPON
VD
tp389
asg17
I1996
sg44
V51
p390
sbag1
(g2
g3
NtRp391
(dp392
g52
V10.1007/BF00024783
p393
sg48
VPLANT GROWTH REGUL
p394
sg50
V16
p395
sg82
(lp396
(VPOOLE
VA T
tp397
asg17
I1995
sg44
VLANT
p398
sbag1
(g2
g3
NtRp399
(dp400
g52
Nsg48
VPLANT CELL PHYSIOL
p401
sg50
V27
p402
sg82
(lp403
(VPOTTS
VW C
tp404
asg17
I1986
sg44
VLANT
p405
sbag1
(g2
g3
NtRp406
(dp407
g52
V10.1111/j.1399-3054.1983.tb02767.x
p408
sg48
VPHYSIOL PLANTARUM
p409
sg50
V57
p410
sg82
(lp411
(VPOTTS
VW C
tp412
asg17
I1983
sg44
VHYSIOL
p413
sbag1
(g2
g3
NtRp414
(dp415
g52
Nsg48
VJ BIOL CHEM
p416
sg50
V260
p417
sg82
(lp418
(VPOULOS
VT L
tp419
asg17
I1985
sg44
V6122
p420
sbag1
(g2
g3
NtRp421
(dp422
g52
V10.1104/pp.100.3.1354
p423
sg48
VPLANT PHYSIOL
p424
sg50
V100
p425
sg82
(lp426
(VPROEBSTING
VW M
tp427
asg17
I1992
sg44
VLANT
p428
sbag1
(g2
g3
NtRp429
(dp430
g52
V10.1093/jxb/34.3.349
p431
sg48
VJ EXP BOT
p432
sg50
V34
p433
sg82
(lp434
(VREID
VJ B
tp435
asg17
I1983
sg44
V349
p436
sbag1
(g2
g3
NtRp437
(dp438
g52
Nsg48
VPLANTA
p439
sg50
V188
p440
sg82
(lp441
(VREID
VJ B
tp442
asg17
I1992
sg44
VLANTA
p443
sbag1
(g2
g3
NtRp444
(dp445
g52
V10.1086/297088
p446
sg48
VINT J PLANT SCI
p447
sg50
V154
p448
sg82
(lp449
(VREID
VJ B
tp450
asg17
I1993
sg44
V22
p451
sbag1
(g2
g3
NtRp452
(dp453
g52
Nsg48
VANN BOT
p454
sg50
V57
p455
sg82
(lp456
(VREID
VJ B
tp457
asg17
I1986
sg44
V577
p458
sbag1
(g2
g3
NtRp459
(dp460
g52
Nsg48
VFOOD ADDIT CONTAM
p461
sg50
V3
sg82
(lp462
(VREID
VW J
tp463
asg17
I1986
sg44
V1
sbag1
(g2
g3
NtRp464
(dp465
g52
V10.1073/pnas.091096298
p466
sg48
VP NATL ACAD SCI USA
p467
sg50
V98
p468
sg82
(lp469
(VROJAS
VM C
tp470
asg17
I2001
sg44
V5838
p471
sbag1
(g2
g3
NtRp472
(dp473
g52
Nsg48
VAUST J PLANT PHYSIOL
p474
sg50
V20
p475
sg82
(lp476
(VROSS
VJ J
tp477
asg17
I1993
sg44
V585
p478
sbag1
(g2
g3
NtRp479
(dp480
g52
V10.1034/j.1399-3054.1997.1000317.x
p481
sg48
VPHYSIOL PLANTARUM
p482
sg50
V100
p483
sg82
(lp484
(VROSS
VJ J
tp485
asg17
I1997
sg44
VHYSIOL
p486
sbag1
(g2
g3
NtRp487
(dp488
g52
V10.1046/j.1365-313X.1995.7030513.x
p489
sg48
VPLANT J
p490
sg50
V7
sg82
(lp491
(VROSS
VJ J
tp492
asg17
I1995
sg44
VLANT
p493
sbag1
(g2
g3
NtRp494
(dp495
g52
V10.1074/jbc.272.24.15280
p496
sg48
VJ BIOL CHEM
p497
sg50
V272
p498
sg82
(lp499
(VSEKIMOTO
VH
tp500
asg17
I1997
sg44
V15280
p501
sbag1
(g2
g3
NtRp502
(dp503
g52
Nsg48
VPLANT CELL PHYSIOL
p504
sg50
V39
p505
sg82
(lp506
(VSEKIMOTO
VH
tp507
asg17
I1998
sg44
VLANT
p508
sbag1
(g2
g3
NtRp509
(dp510
g52
V10.1104/pp.116.2.687
p511
sg48
VPLANT PHYSIOL
p512
sg50
V116
p513
sg82
(lp514
(VSEO
VM
tp515
asg17
I1998
sg44
VLANT
p516
sbag1
(g2
g3
NtRp517
(dp518
g52
V10.1104/pp.115.3.1009
p519
sg48
VPLANT PHYSIOL
p520
sg50
V115
p521
sg82
(lp522
(VSPONSEL
VV M
tp523
asg17
I1997
sg44
VLANT
p524
sbag1
(g2
g3
NtRp525
(dp526
g52
V10.1046/j.1365-313x.1997.12061329.x
p527
sg48
VPLANT J
p528
sg50
V12
p529
sg82
(lp530
(VSWAIN
VS M
tp531
asg17
I1997
sg44
VLANT
p532
sbag1
(g2
g3
NtRp533
(dp534
g52
Nsg48
VPLANTA
p535
sg50
V195
p536
sg82
(lp537
(VSWAIN
VS M
tp538
asg17
I1995
sg44
VLANTA
p539
sbag1
(g2
g3
NtRp540
(dp541
g52
Nsg48
VPLANTA
p542
sg50
V191
p543
sg82
(lp544
(VSWAIN
VS M
tp545
asg17
I1993
sg44
VLANTA
p546
sbag1
(g2
g3
NtRp547
(dp548
g52
Nsg48
VPAUPSTAR PHYLOGENETI
p549
sg50
Nsg82
(lp550
(VSWOFFORD
VD
tp551
asg17
I1999
sg44
VAUPSTAR
p552
sbag1
(g2
g3
NtRp553
(dp554
g52
V10.1016/S0092-8674(00)81094-6
p555
sg48
VCELL
p556
sg50
V85
p557
sg82
(lp558
(VSZEKERES
VM
tp559
asg17
I1996
sg44
V171
p560
sbag1
(g2
g3
NtRp561
(dp562
g52
V10.1073/pnas.87.20.7983
p563
sg48
VP NATL ACAD SCI USA
p564
sg50
V87
p565
sg82
(lp566
(VTALON
VM
tp567
asg17
I1990
sg44
V7983
p568
sbag1
(g2
g3
NtRp569
(dp570
g52
V10.1074/jbc.272.31.19176
p571
sg48
VJ BIOL CHEM
p572
sg50
V272
p573
sg82
(lp574
(VURBAN
VP
tp575
asg17
I1997
sg44
V19176
p576
sbag1
(g2
g3
NtRp577
(dp578
g52
V10.1105/tpc.7.8.1307
p579
sg48
VPLANT CELL
p580
sg50
V7
sg82
(lp581
(VWINKLER
VR G
tp582
asg17
I1995
sg44
VLANT
p583
sbag1
(g2
g3
NtRp584
(dp585
g52
V10.1073/pnas.92.14.6640
p586
sg48
VP NATL ACAD SCI USA
p587
sg50
V92
p588
sg82
(lp589
(VXU
VY L
tp590
asg17
I1995
sg44
V6640
p591
sbag1
(g2
g3
NtRp592
(dp593
g52
V10.1104/pp.125.2.627
p594
sg48
VPLANT PHYSIOL
p595
sg50
V125
p596
sg82
(lp597
(VYAXLEY
VJ R
tp598
asg17
I2001
sg44
VLANT
p599
sbasb.