ccopy_reg
_reconstructor
p1
(ctethne.classes.paper
Paper
p2
c__builtin__
object
p3
NtRp4
(dp5
S'publisherCity'
p6
VPHILADELPHIA
p7
sS'reprintAddress'
p8
VSundaramanickam, A (reprint author), Annamalai Univ, Fac Marine Sci, Ctr Adv Study Marine Biol, Parangipettai 608502, Tamil Nadu, India.
p9
sS'WC'
p10
VEnvironmental Sciences
p11
sS'GA'
p12
VCH1HF
p13
sS'FX'
p14
(lp15
VThis work was supported by the Ministry of Earth Sciences (MoES), India
p16
aV(Grant No. ICMAM-PD/SWQM/CASMB/35/2012).
p17
asS'abstract'
p18
VBiosurfactants are surface-active biomolecules produced by microbes (bacteria, fungi, and yeast) and have several advantages over the chemical surfactants, such as lower toxicity, higher biodegradability, better environmental compatibility, higher foaming, high selectivity, and specific activity under extreme conditions such as temperature, pH, and salinity. Almost all the surfactants now available in the market are chemically synthesized. Recently, attention toward the biosurfactants was doubled, which is mainly due to their wide range of functional properties and the diverse synthetic capabilities of the microbes. Microbial biosurfactants are found to have a wide range of applications in environmental protection, which include enhancing oil recovery, controlling oil spills, biodegradation, and detoxification of oil-contaminated industrial effluents and soils. Biosurfactants produced by microorganisms have potential applications in pharmaceutical/medicine, food, cosmetic, pesticide, oil, and biodegradation industries. In this review article, we concentrated on three important aspects such as various types of biosurfactants, the group of microbes involved in the production of biosurfactants, and application of microbial biosurfactants.
p19
sS'keywordsPlus'
p20
(lp21
VBIODEGRADATION
p22
aVCONTAMINATION
p23
aVBIOSURFACTANT
p24
aVMICROBES
p25
aVBIOEMULSIFIER
p26
asS'pageEnd'
p27
I1554
sS'date'
p28
I2015
sS'documentType'
p29
VReview
p30
sS'subject'
p31
VEnvironmental Sciences & Ecology
p32
sS'isoSource'
p33
VCrit. Rev. Environ. Sci. Technol.
p34
sS'timesCited'
p35
(lp36
I1
aVZ9 1
p37
asS'funding'
p38
(lp39
(VMinistry of Earth Sciences (MoES), India
VICMAM-PD/SWQM/CASMB/35/2012
tp40
asS'PT'
p41
VJ
sS'title'
p42
VBiosurfactant Producing Microbes And Their Potential Applications: A Review
p43
sS'ISSN'
p44
V1064-3389
p45
sS'authors_full'
p46
(lp47
(VSHEKHAR
VSUDHANSHU
tp48
a(VSUNDARAMANICKAM
VARUMUGAM
tp49
a(VBALASUBRAMANIAN
VTANGAVEL
tp50
asS'PG'
p51
I33
sS'PD'
p52
VJUL 18
p53
sS'pageStart'
p54
I1522
sS'issue'
p55
I14
sS'RI'
p56
Vahmed, Jamila/E-8653-2015
p57
sS'EI'
p58
(lp59
V1547-6537
p60
aVJ9 CRIT REV ENV SCI TEC
p61
asS'journal'
p62
VCRITICAL REVIEWS IN ENVIRONMENTAL SCIENCE AND TECHNOLOGY
p63
sS'volume'
p64
V45
p65
sS'doi'
p66
V10.1080/10643389.2014.955631
p67
sS'emailAddress'
p68
Vfish_lar@yahoo.com
p69
sS'authorAddress'
p70
V[Shekhar, Sudhanshu; Sundaramanickam, Arumugam; Balasubramanian, Tangavel] Annamalai Univ, Fac Marine Sci, Ctr Adv Study Marine Biol, Parangipettai 608502, Tamil Nadu, India.
p71
sS'publisherAddress'
p72
V530 WALNUT STREET, STE 850, PHILADELPHIA, PA 19106 USA
p73
sS'ER'
p74
V
sS'publisher'
p75
VTAYLOR & FRANCIS INC
p76
sS'authorKeywords'
p77
(lp78
VENHANCED OIL-RECOVERY
p79
aVACINETOBACTER-CALCOACETICUS A2
p80
aVSTREPTOCOCCUS-THERMOPHILUS-A
p81
aVSURFACE-ACTIVE PROPERTIES
p82
aVBACILLUS-SUBTILIS
p83
aVMANNOSYLERYTHRITOL LIPIDS
p84
aVCRUDE-OIL
p85
aVPSEUDOMONAS-AERUGINOSA
p86
aVMARINE MICROORGANISMS
p87
aVYARROWIA-LIPOLYTICA
p88
asS'language'
p89
VEnglish
p90
sS'wosid'
p91
VWOS:000353771400002
p92
sS'citationCount'
p93
I200
sS'authors_init'
p94
(lp95
(VSHEKHAR
VS
tp96
a(VSUNDARAMANICKAM
VA
tp97
a(VBALASUBRAMANIAN
VT
tp98
asS'citedReferences'
p99
(lp100
g1
(g2
g3
NtRp101
(dp102
g66
V10.1016/S0005-2760(98)00058-7
p103
sg62
VBBA
p104
sg64
V1393
p105
sg94
(lp106
(VABRAHAM
VW R
tp107
asg28
I1998
sg54
V57
p108
sbag1
(g2
g3
NtRp109
(dp110
g66
V10.1002/abio.370110405
p111
sg62
VACTA BIOTECHNOL
p112
sg64
V11
p113
sg94
(lp114
(VABURUWAIDA
VA S
tp115
asg28
I1991
sg54
V315
p116
sbag1
(g2
g3
NtRp117
(dp118
g66
V10.1007/BF02310920
p119
sg62
VWORLD J MICROB BIOT
p120
sg64
V7
sg94
(lp121
(VABURUWAIDA
VA S
tp122
asg28
I1991
sg54
V53
p123
sbag1
(g2
g3
NtRp124
(dp125
g66
V10.1007/BF01642388
p126
sg62
VCURR MICROBIOL
p127
sg64
V6
sg94
(lp128
(VAKIT
VJ
tp129
asg28
I1981
sg54
V145
p130
sbag1
(g2
g3
NtRp131
(dp132
g66
V10.1016/j.procbio.2006.03.029
p133
sg62
VPROCESS BIOCHEM
p134
sg64
V41
p135
sg94
(lp136
(VAMARAL
VP F F
tp137
asg28
I2006
sg54
VROCESS
p138
sbag1
(g2
g3
NtRp139
(dp140
g66
V10.1016/j.biortech.2005.11.025
p141
sg62
VBIORESOURCE TECHNOL
p142
sg64
V98
p143
sg94
(lp144
(VAMEZCUA-VEGA
VC
tp145
asg28
I2007
sg54
V237
p146
sbag1
(g2
g3
NtRp147
(dp148
g66
Nsg62
VJ BIOSCI TECH
p149
sg64
V1
sg94
(lp150
(VANANDARAJ
VB
tp151
asg28
I2010
sg54
V120
p152
sbag1
(g2
g3
NtRp153
(dp154
g66
V10.1186/1475-2859-8-63
p155
sg62
VMICROB CELL FACT
p156
sg64
V8
sg94
(lp157
(VARGUELLES-ARIAS
VA
tp158
asg28
I2009
sg54
Nsbag1
(g2
g3
NtRp159
(dp160
g66
V10.1016/0006-291X(68)90503-2
p161
sg62
VBIOCHEM BIOPH RES CO
p162
sg64
V31
p163
sg94
(lp164
(VARIMA
VK
tp165
asg28
I1968
sg54
V488
p166
sbag1
(g2
g3
NtRp167
(dp168
g66
V10.1016/j.jenvman.2009.09.036
p169
sg62
VJ ENVIRON MANAGE
p170
sg64
V91
p171
sg94
(lp172
(VASCI
VY
tp173
asg28
I2010
sg54
V724
p174
sbag1
(g2
g3
NtRp175
(dp176
g66
V10.1016/S0169-7722(96)00034-4
p177
sg62
VJ CONTAM HYDROL
p178
sg64
V25
p179
sg94
(lp180
(VBAI
VG Y
tp181
asg28
I1997
sg54
V157
p182
sbag1
(g2
g3
NtRp183
(dp184
g66
Nsg62
VDEV PETR SCI
p185
sg64
V39
p186
sg94
(lp187
(VBAN
VT
tp188
asg28
I1993
sg54
V115
p189
sbag1
(g2
g3
NtRp190
(dp191
g66
V10.1016/S0032-9592(03)00065-7
p192
sg62
VPROCESS BIOCHEM
p193
sg64
V39
p194
sg94
(lp195
(VBANAT
VF
tp196
asg28
I2003
sg54
VROCESS
p197
sbag1
(g2
g3
NtRp198
(dp199
g66
V10.1016/0960-8524(94)00101-6
p200
sg62
VBIORESOURCE TECHNOL
p201
sg64
V51
p202
sg94
(lp203
(VBANAT
VI M
tp204
asg28
I1995
sg54
V1
sbag1
(g2
g3
NtRp205
(dp206
g66
V10.1007/s00253-010-2589-0
p207
sg62
VAPPL MICROBIOL BIOT
p208
sg64
V87
p209
sg94
(lp210
(VBANAT
VI M
tp211
asg28
I2010
sg54
V427
p212
sbag1
(g2
g3
NtRp213
(dp214
g66
V10.1007/BF00138546
p215
sg62
VBIOTECHNOL LETT
p216
sg64
V15
p217
sg94
(lp218
(VBANAT
VI M
tp219
asg28
I1993
sg54
V591
p220
sbag1
(g2
g3
NtRp221
(dp222
g66
V10.1002/abio.370150302
p223
sg62
VACTA BIOTECHNOL
p224
sg64
V15
p225
sg94
(lp226
(VBANAT
VI M
tp227
asg28
I1995
sg54
V251
p228
sbag1
(g2
g3
NtRp229
(dp230
g66
Nsg62
VAPPL ENVIRON MICROB
p231
sg64
V65
p232
sg94
(lp233
(VBARKAY
VT
tp234
asg28
I1999
sg54
V2697
p235
sbag1
(g2
g3
NtRp236
(dp237
g66
V10.1016/j.biortech.2005.04.020
p238
sg62
VBIORESOURCE TECHNOL
p239
sg64
V97
p240
sg94
(lp241
(VBATISTA
VS B
tp242
asg28
I2006
sg54
V868
p243
sbag1
(g2
g3
NtRp244
(dp245
g66
V10.1128/AEM.00730-09
p246
sg62
VAPPL ENVIRON MICROB
p247
sg64
V75
p248
sg94
(lp249
(VBEGLEY
VM
tp250
asg28
I2009
sg54
V5451
p251
sbag1
(g2
g3
NtRp252
(dp253
g66
V10.1016/0014-5793(79)81320-4
p254
sg62
VFEBS LETT
p255
sg64
V101
p256
sg94
(lp257
(VBELSKY
VI
tp258
asg28
I1979
sg54
V175
p259
sbag1
(g2
g3
NtRp260
(dp261
g66
V10.1016/j.biotech.2004.09.008
p262
sg62
VBIORESOURCE TECHNOL
p263
sg64
V96
p264
sg94
(lp265
(VBENTO
VF M
tp266
asg28
I2005
sg54
V1049
p267
sbag1
(g2
g3
NtRp268
(dp269
g66
Nsg62
VJ GEN MICROBIOL
p270
sg64
V61
p271
sg94
(lp272
(VBERNHEIMAW
S''
tp273
asg28
I1970
sg54
V361
p274
sbag1
(g2
g3
NtRp275
(dp276
g66
V10.1007/BF01021050
p277
sg62
VBIOTECHNOL LETT
p278
sg64
V14
p279
sg94
(lp280
(VBESSON
VF
tp281
asg28
I1992
sg54
V1013
p282
sbag1
(g2
g3
NtRp283
(dp284
g66
V10.1128/AEM.69.6.3280-3287.2003
p285
sg62
VAPPL ENVIRON MICROB
p286
sg64
V69
p287
sg94
(lp288
(VBODOUR
VA A
tp289
asg28
I2003
sg54
V3280
p290
sbag1
(g2
g3
NtRp291
(dp292
g66
V10.1016/S0927-7757(98)00684-0
p293
sg62
VCOLLOID SURFACE A
p294
sg64
V152
p295
sg94
(lp296
(VBOGNOLO
VG
tp297
asg28
I1999
sg54
V41
p298
sbag1
(g2
g3
NtRp299
(dp300
g66
Nsg62
VUS Patent
p301
sg64
Nsg94
(lp302
(VBORZEIX
VC
tp303
asg28
I2003
sg54
Vatent
p304
sbag1
(g2
g3
NtRp305
(dp306
g66
V10.1016/j.jcis.2011.05.054
p307
sg62
VJ COLLOID INTERF SCI
p308
sg64
V361
p309
sg94
(lp310
(VBURGOS-DIAZ
VC
tp311
asg28
I2011
sg54
V195
p312
sbag1
(g2
g3
NtRp313
(dp314
g66
Nsg62
VAPPL ENVIRON MICROB
p315
sg64
V63
p316
sg94
(lp317
(VBUSSCHER
VH J
tp318
asg28
I1997
sg54
V3810
p319
sbag1
(g2
g3
NtRp320
(dp321
g66
V10.1007/BF01569916
p322
sg62
VJ IND MICROBIOL
p323
sg64
V16
p324
sg94
(lp325
(VBUSSCHER
VH J
tp326
asg28
I1996
sg54
V15
p327
sbag1
(g2
g3
NtRp328
(dp329
g66
V10.1038/sj.jim.2900513
p330
sg62
VJ IND MICROBIOL BIOT
p331
sg64
V20
p332
sg94
(lp333
(VCALVO
VC
tp334
asg28
I1998
sg54
V205
p335
sbag1
(g2
g3
NtRp336
(dp337
g66
Nsg62
VAPPL ENVIRON MICROB
p338
sg64
V54
p339
sg94
(lp340
(VCAMERON
VD R
tp341
asg28
I1988
sg54
V1420
p342
sbag1
(g2
g3
NtRp343
(dp344
g66
V10.1007/BF00327807
p345
sg62
VWORLD J MICROB BIOT
p346
sg64
V12
p347
sg94
(lp348
(VCARRILLO
VP G
tp349
asg28
I1996
sg54
V82
p350
sbag1
(g2
g3
NtRp351
(dp352
g66
V10.1016/S1389-1723(00)87664-1
p353
sg62
VJ BIOSCI BIOENG
p354
sg64
V88
p355
sg94
(lp356
(VCASAS
VJ A
tp357
asg28
I1999
sg54
V488
p358
sbag1
(g2
g3
NtRp359
(dp360
g66
V10.1016/S0168-1656(03)00067-1
p361
sg62
VJ BIOTECHNOL
p362
sg64
V103
p363
sg94
(lp364
(VCAVALERO
VD A
tp365
asg28
I2003
sg54
V31
p366
sbag1
(g2
g3
NtRp367
(dp368
g66
Nsg62
VENV ENG
p369
sg64
V20
p370
sg94
(lp371
(VCHA
VD K
tp372
asg28
I2000
sg54
V1
sbag1
(g2
g3
NtRp373
(dp374
g66
V10.1016/0168-1656(95)00175-1
p375
sg62
VJ BIOTECHNOL
p376
sg64
V45
p377
sg94
(lp378
(VCHOI
VJ W
tp379
asg28
I1996
sg54
V217
p380
sbag1
(g2
g3
NtRp381
(dp382
g66
V10.1046/j.1365-2672.2002.01774.x
p383
sg62
VJ APPL MICROBIOL
p384
sg64
V93
p385
sg94
(lp386
(VCHRISTOFI
VN
tp387
asg28
I2002
sg54
V915
p388
sbag1
(g2
g3
NtRp389
(dp390
g66
Nsg62
VAPPL ENVIRON MICROB
p391
sg64
V48
p392
sg94
(lp393
(VCIRIGLIANO
VM C
tp394
asg28
I1984
sg54
V747
p395
sbag1
(g2
g3
NtRp396
(dp397
g66
Nsg62
VAPPL ENVIRON MICROB
p398
sg64
V50
p399
sg94
(lp400
(VCIRIGLIANO
VM C
tp401
asg28
I1985
sg54
V846
p402
sbag1
(g2
g3
NtRp403
(dp404
g66
Nsg62
VSURFACTANTS AGGREGAT
p405
sg64
Nsg94
(lp406
(VCLINT
VJ
tp407
asg28
I1992
sg54
Nsbag1
(g2
g3
NtRp408
(dp409
g66
V10.1242/jcs.00799
p410
sg62
VJ CELL SCI
p411
sg64
V116
p412
sg94
(lp413
(VCOELHO
VP A
tp414
asg28
I2003
sg54
V4763
p415
sbag1
(g2
g3
NtRp416
(dp417
g66
V10.1016/S0065-2164(08)70335-6
p418
sg62
VADV APPL MICROBIOL
p419
sg64
V26
p420
sg94
(lp421
(VCOOPER
VD G
tp422
asg28
I1980
sg54
V229
p423
sbag1
(g2
g3
NtRp424
(dp425
g66
Nsg62
VAPPL ENVIRON MICROB
p426
sg64
V47
p427
sg94
(lp428
(VCOOPER
VD G
tp429
asg28
I1984
sg54
V173
p430
sbag1
(g2
g3
NtRp431
(dp432
g66
Nsg62
VAPPL ENVIRON MICROB
p433
sg64
V46
p434
sg94
(lp435
(VCOOPER
VD G
tp436
asg28
I1983
sg54
V1426
p437
sbag1
(g2
g3
NtRp438
(dp439
g66
V10.1016/j.colsurfb.2011.01.011
p440
sg62
VCOLLOID SURFACE B
p441
sg64
V84
p442
sg94
(lp443
(VDARVISHI
VP
tp444
asg28
I2011
sg54
V292
p445
sbag1
(g2
g3
NtRp446
(dp447
g66
V10.1016/j.biortech.2006.05.032
p448
sg62
VBIORESOURCE TECHNOL
p449
sg64
V98
p450
sg94
(lp451
(VDAS
VK
tp452
asg28
I2007
sg54
V1339
p453
sbag1
(g2
g3
NtRp454
(dp455
g66
V10.1016/j.chemosphere.2008.05.015
p456
sg62
VCHEMOSPHERE
p457
sg64
V72
p458
sg94
(lp459
(VDAS
VP
tp460
asg28
I2008
sg54
V1229
p461
sbag1
(g2
g3
NtRp462
(dp463
g66
V10.1016/j.colsurfb.2009.02.004
p464
sg62
VCOLLOID SURFACE B
p465
sg64
V71
p466
sg94
(lp467
(VDAS
VP
tp468
asg28
I2009
sg54
V183
p469
sbag1
(g2
g3
NtRp470
(dp471
g66
V10.1111/j.1365-2672.2007.03701.x
p472
sg62
VJ APPL MICROBIOL
p473
sg64
V104
p474
sg94
(lp475
(VDAS
VP
tp476
asg28
I2008
sg54
V1675
p477
sbag1
(g2
g3
NtRp478
(dp479
g66
Nsg62
VCURR SCI INDIA
p480
sg64
V57
p481
sg94
(lp482
(VDESAI
VA J
tp483
asg28
I1988
sg54
V500
p484
sbag1
(g2
g3
NtRp485
(dp486
g66
Nsg62
VMICROBIOL MOL BIOL R
p487
sg64
V61
p488
sg94
(lp489
(VDESAI
VJ D
tp490
asg28
I1997
sg54
V47
p491
sbag1
(g2
g3
NtRp492
(dp493
g66
V10.1002/bit.260400113
p494
sg62
VBIOTECHNOL BIOENG
p495
sg64
V40
p496
sg94
(lp497
(VDROUIN
VC M
tp498
asg28
I1992
sg54
V86
p499
sbag1
(g2
g3
NtRp500
(dp501
g66
Nsg62
VMikrobiologicheskii Zhurnal 
p502
sg64
V53
p503
sg94
(lp504
(VELISEEV
VS A
tp505
asg28
I1991
sg54
V61
p506
sbag1
(g2
g3
NtRp507
(dp508
g66
V10.13005/bbra/1161
p509
sg62
VBiosciences
p510
sg64
V10
p511
sg94
(lp512
(VEL-SHESHTAWY
VH S
tp513
asg28
I2013
sg54
V515
p514
sbag1
(g2
g3
NtRp515
(dp516
g66
V10.1016/j.enzmictec.2006.04.013
p517
sg62
VENZYME MICROB TECH
p518
sg64
V40
p519
sg94
(lp520
(VFELSE
VP A
tp521
asg28
I2007
sg54
V316
p522
sbag1
(g2
g3
NtRp523
(dp524
g66
V10.1021/cr00021a001
p525
sg62
VCHEM REV
p526
sg64
V93
p527
sg94
(lp528
(VFENICAL
VW
tp529
asg28
I1993
sg54
V1673
p530
sbag1
(g2
g3
NtRp531
(dp532
g66
V10.1590/S1517-83822007000400022
p533
sg62
VBRAZ J MICROBIOL
p534
sg64
V38
p535
sg94
(lp536
(VFERNANDES
VP A V
tp537
asg28
I2007
sg54
V704
p538
sbag1
(g2
g3
NtRp539
(dp540
g66
V10.1023/A:1008256110136
p541
sg62
VBIODEGRADATION
p542
sg64
V8
sg94
(lp543
(VFIEBIG
VR
tp544
asg28
I1997
sg54
V67
p545
sbag1
(g2
g3
NtRp546
(dp547
g66
V10.1002/bit.260180709
p548
sg62
VBIOTECHNOL BIOENG
p549
sg64
V18
p550
sg94
(lp551
(VKAEPPELI
VO
tp552
asg28
I1976
sg54
V967
p553
sbag1
(g2
g3
NtRp554
(dp555
g66
V10.1016/0167-7799(92)90215-H
p556
sg62
VTRENDS BIOTECHNOL
p557
sg64
V10
p558
sg94
(lp559
(VFIECHTER
VA
tp560
asg28
I1992
sg54
V208
p561
sbag1
(g2
g3
NtRp562
(dp563
g66
Nsg62
VCHEMOSPHERE
p564
sg64
V75
p565
sg94
(lp566
(VFRAZETTI
VA
tp567
asg28
I2009
sg54
V801
p568
sbag1
(g2
g3
NtRp569
(dp570
g66
V10.1086/340126
p571
sg62
VJ INFECT DIS
p572
sg64
V185
p573
sg94
(lp574
(VGAN
VB S
tp575
asg28
I2002
sg54
V1369
p576
sbag1
(g2
g3
NtRp577
(dp578
g66
V10.1016/j.jhazmat.2010.09.076
p579
sg62
VJ HAZARD MATER
p580
sg64
V185
p581
sg94
(lp582
(VGAO
VY Z
tp583
asg28
I2011
sg54
V703
p584
sbag1
(g2
g3
NtRp585
(dp586
g66
VDOI 10.5650/J0S.55.155
p587
sg62
VJ OLEO SCI
p588
sg64
V55
p589
sg94
(lp590
(VGAUTAM
VK K
tp591
asg28
I2005
sg54
V155
p592
sbag1
(g2
g3
NtRp593
(dp594
g66
V10.1038/nbt0192-60
p595
sg62
VBIO
p596
sg64
V10
p597
sg94
(lp598
(VGEORGIOU
VG
tp599
asg28
I1992
sg54
V60
p600
sbag1
(g2
g3
NtRp601
(dp602
g66
Nsg62
VAPPL MICROBIOL BIOT
p603
sg64
V48
p604
sg94
(lp605
(VGILEWICZ
VM
tp606
asg28
I1997
sg54
V528
p607
sbag1
(g2
g3
NtRp608
(dp609
g66
V10.1007/BF00140041
p610
sg62
VBIOTECHNOL LETT
p611
sg64
V6
sg94
(lp612
(VGOBBERT
VU
tp613
asg28
I1984
sg54
V225
p614
sbag1
(g2
g3
NtRp615
(dp616
g66
V10.1016/j.colsurfb.2009.11.008
p617
sg62
VCOLLOID SURFACE B
p618
sg64
V76
p619
sg94
(lp620
(VGUDINA
VE J
tp621
asg28
I2010
sg54
V298
p622
sbag1
(g2
g3
NtRp623
(dp624
g66
Nsg62
VAPPL MICROBIOL BIOT
p625
sg64
V24
p626
sg94
(lp627
(VGUERRASANTOS
VL H
tp628
asg28
I1986
sg54
V443
p629
sbag1
(g2
g3
NtRp630
(dp631
g66
V10.1007/s00253-007-1091-9
p632
sg62
VAPPL MICROBIOL BIOT
p633
sg64
V76
p634
sg94
(lp635
(VGUTIERREZ
VT
tp636
asg28
I2007
sg54
V1017
p637
sbag1
(g2
g3
NtRp638
(dp639
g66
V10.1111/j.1365-2672.2007.03407.x
p640
sg62
VJ APPL MICROBIOL
p641
sg64
V103
p642
sg94
(lp643
(VGUTIERREZ
VT
tp644
asg28
I2007
sg54
V1716
p645
sbag1
(g2
g3
NtRp646
(dp647
g66
Nsg62
VBIOSURFACTANTS BIOTE
p648
sg64
Nsg94
(lp649
(VGUTNICK
VD L
tp650
asg28
I1987
sg54
V211
p651
sbag1
(g2
g3
NtRp652
(dp653
g66
Nsg62
VADV BIOCHEM ENG BIOT
p654
sg64
V33
p655
sg94
(lp656
(VHAFERBURG
VD
tp657
asg28
I1986
sg54
V53
p658
sbag1
(g2
g3
NtRp659
(dp660
g66
Nsg62
VAGR BIOL CHEM TOKYO
p661
sg64
V35
p662
sg94
(lp663
(VHISATSUKKI
S''
tp664
asg28
I1971
sg54
V686
p665
sbag1
(g2
g3
NtRp666
(dp667
g66
V10.1021/np980341e
p668
sg62
VJ NAT PROD
p669
sg64
V62
p670
sg94
(lp671
(VHOLLER
VU
tp672
asg28
I1999
sg54
V114
p673
sbag1
(g2
g3
NtRp674
(dp675
g66
V10.1016/0168-1656(94)90107-4
p676
sg62
VJ BIOTECHNOL
p677
sg64
V33
p678
sg94
(lp679
(VHOMMEL
VR K
tp680
asg28
I1994
sg54
V147
p681
sbag1
(g2
g3
NtRp682
(dp683
g66
V10.1007/BF01575868
p684
sg62
VJ IND MICROBIOL
p685
sg64
V6
sg94
(lp686
(VHOROWITZ
VS
tp687
asg28
I1990
sg54
V243
p688
sbag1
(g2
g3
NtRp689
(dp690
g66
V10.1023/A:1018581829320
p691
sg62
VWORLD J MICROB BIOT
p692
sg64
V13
p693
sg94
(lp694
(VHUSAIN
VD R
tp695
asg28
I1997
sg54
V587
p696
sbag1
(g2
g3
NtRp697
(dp698
g66
V10.1089/1092875041358467
p699
sg62
VENVIRON ENG SCI
p700
sg64
V21
p701
sg94
(lp702
(VINAKOLLU
VS
tp703
asg28
I2004
sg54
V463
p704
sbag1
(g2
g3
NtRp705
(dp706
g66
Nsg62
VAPPL ENVIRON MICROB
p707
sg64
V43
p708
sg94
(lp709
(VITO
VS
tp710
asg28
I1982
sg54
V1278
p711
sbag1
(g2
g3
NtRp712
(dp713
g66
Nsg62
VAGR BIOL CHEM TOKYO
p714
sg64
V38
p715
sg94
(lp716
(VITOH
VS
tp717
asg28
I1974
sg54
V1443
p718
sbag1
(g2
g3
NtRp719
(dp720
g66
Nsg62
VJ BASIC MICROB
p721
sg64
V51
p722
sg94
(lp723
(VJADHAV
VM
tp724
asg28
I2011
sg54
V1
sbag1
(g2
g3
NtRp725
(dp726
g66
V10.1021/ja01180a073
p727
sg62
VJ AM CHEM SOC
p728
sg64
V71
p729
sg94
(lp730
(VJARVIS
VF G
tp731
asg28
I1949
sg54
V4124
p732
sbag1
(g2
g3
NtRp733
(dp734
g66
Nsg62
VDEV IND MICROBIOL
p735
sg64
V24
p736
sg94
(lp737
(VJENNEMAN
VG E
tp738
asg28
I1983
sg54
V485
p739
sbag1
(g2
g3
NtRp740
(dp741
g66
V10.1146/annurev.mi.48.100194.003015
p742
sg62
VANNU REV MICROBIOL
p743
sg64
V48
p744
sg94
(lp745
(VJENSEN
VP R
tp746
asg28
I1994
sg54
V559
p747
sbag1
(g2
g3
NtRp748
(dp749
g66
V10.1146/annurev.mi.32.100178.002025
p750
sg62
VANNU REV MICROBIOL
p751
sg64
V32
p752
sg94
(lp753
(VJUNI
VE
tp754
asg28
I1978
sg54
V349
p755
sbag1
(g2
g3
NtRp756
(dp757
g66
Nsg62
VBIOSCI BIOTECH BIOCH
p758
sg64
V66
p759
sg94
(lp760
(VKAKUGAWA
VK
tp761
asg28
I2002
sg54
V188
p762
sbag1
(g2
g3
NtRp763
(dp764
g66
V10.1007/s12010-009-8580-5
p765
sg62
VAPPL BIOCHEM BIOTECH
p766
sg64
V160
p767
sg94
(lp768
(VKANG
VS W
tp769
asg28
I2010
sg54
V780
p770
sbag1
(g2
g3
NtRp771
(dp772
g66
Nsg62
VAPPL ENVIRON MICROB
p773
sg64
V53
p774
sg94
(lp775
(VKAPLAN
VD
tp776
asg28
I1987
sg54
V2953
p777
sbag1
(g2
g3
NtRp778
(dp779
g66
Nsg62
VJ BACTERIOL
p780
sg64
V140
p781
sg94
(lp782
(VKAPPELI
VO
tp783
asg28
I1979
sg54
V707
p784
sbag1
(g2
g3
NtRp785
(dp786
g66
V10.1007/s10295-009-0545-8
p787
sg62
VJ IND MICROBIOL BIOT
p788
sg64
V36
p789
sg94
(lp790
(VKEBBOUCHE-GANA
VS
tp791
asg28
I2009
sg54
V727
p792
sbag1
(g2
g3
NtRp793
(dp794
g66
V10.1016/0141-0229(94)90081-7
p795
sg62
VENZYME MICROB TECH
p796
sg64
V16
p797
sg94
(lp798
(VKHIRE
VJ M
tp799
asg28
I1994
sg54
V170
p800
sbag1
(g2
g3
NtRp801
(dp802
g66
V10.1016/0168-1656(93)90042-L
p803
sg62
VJ BIOTECHNOL
p804
sg64
V29
p805
sg94
(lp806
(VKITAMOTO
VD
tp807
asg28
I1993
sg54
V91
p808
sbag1
(g2
g3
NtRp809
(dp810
g66
V10.1007/BF01022329
p811
sg62
VBIOTECHNOL LETT
p812
sg64
V14
p813
sg94
(lp814
(VKITAMOTO
VD
tp815
asg28
I1992
sg54
V305
p816
sbag1
(g2
g3
NtRp817
(dp818
g66
Nsg62
VJ BIOSCI BIOENG
p819
sg64
V94
p820
sg94
(lp821
(VKITAMOTO
VD
tp822
asg28
I2002
sg54
V187
p823
sbag1
(g2
g3
NtRp824
(dp825
g66
Nsg62
VAGR BIOL CHEM TOKYO
p826
sg64
V54
p827
sg94
(lp828
(VKITAMOTO
VD
tp829
asg28
I1990
sg54
V37
p830
sbag1
(g2
g3
NtRp831
(dp832
g66
Nsg62
VBIOSURFACTANTS BIOTE
p833
sg64
Nsg94
(lp834
(VKOSARIC
VN
tp835
asg28
I1987
sg54
Nsbag1
(g2
g3
NtRp836
(dp837
g66
Nsg62
VFOOD TECHNOL BIOTECH
p838
sg64
V39
p839
sg94
(lp840
(VKOSARIC
VN
tp841
asg28
I2001
sg54
V295
p842
sbag1
(g2
g3
NtRp843
(dp844
g66
V10.1021/bi00287a019
p845
sg62
VBIOCHEMISTRY
p846
sg64
V22
p847
sg94
(lp848
(VKRAUSS
VE M
tp849
asg28
I1983
sg54
V4280
p850
sbag1
(g2
g3
NtRp851
(dp852
g66
Nsg62
VAPPL ENVIRON MICROB
p853
sg64
V44
p854
sg94
(lp855
(VKRETSCHMER
VA
tp856
asg28
I1982
sg54
V864
p857
sbag1
(g2
g3
NtRp858
(dp859
g66
V10.1016/j.envint.2004.09.009
p860
sg62
VENVIRON INT
p861
sg64
V31
p862
sg94
(lp863
(VKUYUKINA
VM S
tp864
asg28
I2005
sg54
V155
p865
sbag1
(g2
g3
NtRp866
(dp867
g66
V10.1016/j.jhazmat.2009.01.017
p868
sg62
VJ HAZARD MATER
p869
sg64
V167
p870
sg94
(lp871
(VLAI
VC C
tp872
asg28
I2009
sg54
V609
p873
sbag1
(g2
g3
NtRp874
(dp875
g66
Nsg62
VBIOSURFACTANTS BIOTE
p876
sg64
Nsg94
(lp877
(VLANG
VS
tp878
asg28
I1987
sg54
V21
p879
sbag1
(g2
g3
NtRp880
(dp881
g66
Nsg62
VSURF SCI SER
p882
sg64
V48
p883
sg94
(lp884
(VLANG
VS
tp885
asg28
I1993
sg54
V251
p886
sbag1
(g2
g3
NtRp887
(dp888
g66
Nsg62
VMICROBIOL J
p889
sg64
V53
p890
sg94
(lp891
(VLESIK
VO Y
tp892
asg28
I1991
sg54
V36
p893
sbag1
(g2
g3
NtRp894
(dp895
g66
Nsg62
VMICROBIOL J
p896
sg64
V51
p897
sg94
(lp898
(VLESIK
VO Y
tp899
asg28
I1989
sg54
V56
p900
sbag1
(g2
g3
NtRp901
(dp902
g66
V10.1016/0166-6622(90)80239-Z
p903
sg62
VCOLLOID SURFACE
p904
sg64
V48
p905
sg94
(lp906
(VLEVY
VN
tp907
asg28
I1990
sg54
V337
p908
sbag1
(g2
g3
NtRp909
(dp910
g66
V10.1007/s12010-008-8188-1
p911
sg62
VApplied Biochemistry and Biotechnology
p912
sg64
V152
p913
sg94
(lp914
(VLIMA C J B DE
S''
tp915
asg28
I2009
sg54
V156
p916
sbag1
(g2
g3
NtRp917
(dp918
g66
V10.1007/s002530050144
p919
sg62
VAPPL MICROBIOL BIOT
p920
sg64
V41
p921
sg94
(lp922
(VLIN
VS C
tp923
asg28
I1994
sg54
V281
p924
sbag1
(g2
g3
NtRp925
(dp926
g66
V10.1021/np020196b
p927
sg62
VJ NAT PROD
p928
sg64
V66
p929
sg94
(lp930
(VLIN
VW H
tp931
asg28
I2003
sg54
V57
p932
sbag1
(g2
g3
NtRp933
(dp934
g66
V10.1016/j.colsurfa.2010.03.021
p935
sg62
VCOLLOID SURFACE A
p936
sg64
V361
p937
sg94
(lp938
(VLIU
VJ
tp939
asg28
I2010
sg54
V90
p940
sbag1
(g2
g3
NtRp941
(dp942
g66
V10.1007/s10295-003-0105-6
p943
sg62
VJ IND MICROBIOL BIOT
p944
sg64
V30
p945
sg94
(lp946
(VLUKONDEH
VT
tp947
asg28
I2003
sg54
V715
p948
sbag1
(g2
g3
NtRp949
(dp950
g66
Nsg62
VANTARCT SCI
p951
sg64
V9
sg94
(lp952
(VMACCORMACK
VW P
tp953
asg28
I1997
sg54
V150
p954
sbag1
(g2
g3
NtRp955
(dp956
g66
Nsg62
VAPPL ENVIRON MICROB
p957
sg64
V41
p958
sg94
(lp959
(VMACDONALD
VC R
tp960
asg28
I1981
sg54
V117
p961
sbag1
(g2
g3
NtRp962
(dp963
g66
V10.1007/s11746-997-0233-7
p964
sg62
VJ AM OIL CHEM SOC
p965
sg64
V74
p966
sg94
(lp967
(VMAKKAR
VR S
tp968
asg28
I1997
sg54
V887
p969
sbag1
(g2
g3
NtRp970
(dp971
g66
V10.1038/sj.jim.2900474
p972
sg62
VJ IND MICROBIOL BIOT
p973
sg64
V20
p974
sg94
(lp975
(VMAKKAR
VR S
tp976
asg28
I1998
sg54
V48
p977
sbag1
(g2
g3
NtRp978
(dp979
g66
Nsg62
VSONGKLANAKARIN J SCI
p980
sg64
V29
p981
sg94
(lp982
(VMANEERA
VS
tp983
asg28
I2007
sg54
V769
p984
sbag1
(g2
g3
NtRp985
(dp986
g66
V10.1007/s00253-005-0050-6
p987
sg62
VAPPL MICROBIOL BIOT
p988
sg64
V70
p989
sg94
(lp990
(VMANEERAT
VS
tp991
asg28
I2006
sg54
V254
p992
sbag1
(g2
g3
NtRp993
(dp994
g66
Nsg62
VJ SCI TECHNOL
p995
sg64
V29
p996
sg94
(lp997
(VMANEERAT
VS
tp998
asg28
I2007
sg54
V781
p999
sbag1
(g2
g3
NtRp1000
(dp1001
g66
Nsg62
VSONGKLANAKARIN J SCI
p1002
sg64
V27
p1003
sg94
(lp1004
(VMANEERAT
VS
tp1005
asg28
I2005
sg54
V675
p1006
sbag1
(g2
g3
NtRp1007
(dp1008
g66
Nsg62
VAPPL MICROBIOL BIOT
p1009
sg64
V67
p1010
sg94
(lp1011
(VMANEERAT
VS
tp1012
asg28
I2004
sg54
V683
p1013
sbag1
(g2
g3
NtRp1014
(dp1015
g66
V10.1007/BF01573858
p1016
sg62
VJ IND MICROBIOL
p1017
sg64
V5
sg94
(lp1018
(VMCINERNEY
VM J
tp1019
asg28
I1990
sg54
V95
p1020
sbag1
(g2
g3
NtRp1021
(dp1022
g66
V10.1007/BF02660299
p1023
sg62
VJ AM OIL CHEM SOC
p1024
sg64
V68
p1025
sg94
(lp1026
(VMCNEILL
VG P
tp1027
asg28
I1991
sg54
V6
sbag1
(g2
g3
NtRp1028
(dp1029
g66
V10.1128/JB.183.20.5848-5854.2001
p1030
sg62
VJ BACTERIOL
p1031
sg64
V183
p1032
sg94
(lp1033
(VMIRELES
VJ R
tp1034
asg28
I2001
sg54
V5848
p1035
sbag1
(g2
g3
NtRp1036
(dp1037
g66
Nsg62
VJ BACTERIOL
p1038
sg64
V175
p1039
sg94
(lp1040
(VMORIKAWA
VM
tp1041
asg28
I1993
sg54
V6459
p1042
sbag1
(g2
g3
NtRp1043
(dp1044
g66
V10.1016/0922-338X(92)90055-Y
p1045
sg62
VJ FERMENT BIOENG
p1046
sg64
V74
p1047
sg94
(lp1048
(VMORIKAWA
VM
tp1049
asg28
I1992
sg54
V255
p1050
sbag1
(g2
g3
NtRp1051
(dp1052
g66
V10.1007/s00253-006-0672-3
p1053
sg62
VAPPL MICROBIOL BIOT
p1054
sg64
V74
p1055
sg94
(lp1056
(VMORITA
VT
tp1057
asg28
I2007
sg54
V307
p1058
sbag1
(g2
g3
NtRp1059
(dp1060
g66
V10.1007/s00253-006-0466-7
p1061
sg62
VAPPL MICROBIOL BIOT
p1062
sg64
V73
p1063
sg94
(lp1064
(VMORITA
VT
tp1065
asg28
I2006
sg54
V305
p1066
sbag1
(g2
g3
NtRp1067
(dp1068
g66
V10.1016/j.tibtech.2006.09.005
p1069
sg62
VTRENDS BIOTECHNOL
p1070
sg64
V24
p1071
sg94
(lp1072
(VMUKHERJEE
VS
tp1073
asg28
I2006
sg54
V509
p1074
sbag1
(g2
g3
NtRp1075
(dp1076
g66
Nsg62
VProceedings of the Indian National Science Academy Part B Biological Sciences
p1077
sg64
V70
p1078
sg94
(lp1079
(VMULLIGAN
VCATHERINE N
tp1080
asg28
I2004
sg54
Vroceedings
p1081
sbag1
(g2
g3
NtRp1082
(dp1083
g66
V10.1016/S0013-7952(00)00101-0
p1084
sg62
VENG GEOL
p1085
sg64
V60
p1086
sg94
(lp1087
(VMULLIGAN
VC N
tp1088
asg28
I2001
sg54
V193
p1089
sbag1
(g2
g3
NtRp1090
(dp1091
g66
V10.1016/S0001-8686(03)00106-4
p1092
sg62
VADV COLLOID INTERFAC
p1093
sg64
V106
p1094
sg94
(lp1095
(VMULQUEEN
VP
tp1096
asg28
I2003
sg54
V83
p1097
sbag1
(g2
g3
NtRp1098
(dp1099
g66
Nsg62
VCURR SCI INDIA
p1100
sg64
V94
p1101
sg94
(lp1102
(VMUTHUSAMY
VK
tp1103
asg28
I2008
sg54
V736
p1104
sbag1
(g2
g3
NtRp1105
(dp1106
g66
Nsg62
VAPPL ENVIRON MICROB
p1107
sg64
V61
p1108
sg94
(lp1109
(VNAVONVENEZIA
VS
tp1110
asg28
I1995
sg54
V3240
p1111
sbag1
(g2
g3
NtRp1112
(dp1113
g66
Nsg62
VJ SCI IND RES INDIA
p1114
sg64
V68
p1115
sg94
(lp1116
(VNERURKAR
VA S
tp1117
asg28
I2009
sg54
V273
p1118
sbag1
(g2
g3
NtRp1119
(dp1120
g66
Nsg62
VAPPL MICROBIOL BIOT
p1121
sg64
V32
p1122
sg94
(lp1123
(VNEU
VT R
tp1124
asg28
I1990
sg54
V518
p1125
sbag1
(g2
g3
NtRp1126
(dp1127
g66
Nsg62
VJ GEN MICROBIOL
p1128
sg64
V138
p1129
sg94
(lp1130
(VNEU
VT R
tp1131
asg28
I1992
sg54
V2531
p1132
sbag1
(g2
g3
NtRp1133
(dp1134
g66
V10.1046/j.1365-2672.1999.00798.x
p1135
sg62
VJ APPL MICROBIOL
p1136
sg64
V87
p1137
sg94
(lp1138
(VNIELSEN
VT H
tp1139
asg28
I1999
sg54
V80
p1140
sbag1
(g2
g3
NtRp1141
(dp1142
g66
V10.1271/bbb.66.1792
p1143
sg62
VBIOSCI BIOTECH BIOCH
p1144
sg64
V66
p1145
sg94
(lp1146
(VNISHIO
VE
tp1147
asg28
I2002
sg54
V1792
p1148
sbag1
(g2
g3
NtRp1149
(dp1150
g66
V10.1007/s11274-009-0053-z
p1151
sg62
VWORLD J MICROB BIOT
p1152
sg64
V25
p1153
sg94
(lp1154
(VOBAYORI
VO S
tp1155
asg28
I2009
sg54
V1615
p1156
sbag1
(g2
g3
NtRp1157
(dp1158
g66
V10.1007/s10295-003-0078-5
p1159
sg62
VJ IND MICROBIOL BIOT
p1160
sg64
V30
p1161
sg94
(lp1162
(VOLIVERA
VN L
tp1163
asg28
I2003
sg54
V542
p1164
sbag1
(g2
g3
NtRp1165
(dp1166
g66
Nsg62
VAFR J BIOTECHNOL
p1167
sg64
V4
sg94
(lp1168
(VOLOKE
VJ K
tp1169
asg28
I2005
sg54
V164
p1170
sbag1
(g2
g3
NtRp1171
(dp1172
g66
Nsg62
VAPPL MICROBIOL BIOT
p1173
sg64
V37
p1174
sg94
(lp1175
(VPASSERI
VS
tp1176
asg28
I1992
sg54
V281
p1177
sbag1
(g2
g3
NtRp1178
(dp1179
g66
Nsg62
VUS Patent No
p1180
sg64
Nsg94
(lp1181
(VPATIL
VJ R
tp1182
asg28
I2003
sg54
Vatent
p1183
sbag1
(g2
g3
NtRp1184
(dp1185
g66
V10.1016/S1001-0742(08)62429-8
p1186
sg62
VJ ENVIRON SCI
p1187
sg64
V21
p1188
sg94
(lp1189
(VPEI
VX H
tp1190
asg28
I2009
sg54
V1378
p1191
sbag1
(g2
g3
NtRp1192
(dp1193
g66
V10.1111/j.1365-2672.2006.03267.x
p1194
sg62
VJ APPL MICROBIOL
p1195
sg64
V102
p1196
sg94
(lp1197
(VPENG
VF
tp1198
asg28
I2007
sg54
V1603
p1199
sbag1
(g2
g3
NtRp1200
(dp1201
g66
V10.1016/j.femsec.2004.09.013
p1202
sg62
VFEMS MICROBIOL ECOL
p1203
sg64
V53
p1204
sg94
(lp1205
(VPEPI
VM
tp1206
asg28
I2005
sg54
V157
p1207
sbag1
(g2
g3
NtRp1208
(dp1209
g66
Nsg62
VJ APPL MICROBIOL
p1210
sg64
V75
p1211
sg94
(lp1212
(VPERFUMO
VA
tp1213
asg28
I2006
sg54
V132
p1214
sbag1
(g2
g3
NtRp1215
(dp1216
g66
V10.1002/tox.2530060205
p1217
sg62
VENVIRON TOXIC WATER
p1218
sg64
V6
sg94
(lp1219
(VPOREMBA
VK
tp1220
asg28
I1991
sg54
V157
p1221
sbag1
(g2
g3
NtRp1222
(dp1223
g66
Nsg62
VZ NATURFORSCH C
p1224
sg64
V46
p1225
sg94
(lp1226
(VPOREMBA
VK
tp1227
asg28
I1991
sg54
V210
p1228
sbag1
(g2
g3
NtRp1229
(dp1230
g66
V10.1002/abio.200390043
p1231
sg62
VACTA BIOTECHNOL
p1232
sg64
V23
p1233
sg94
(lp1234
(VRAHMAN
VK S M
tp1235
asg28
I2003
sg54
V335
p1236
sbag1
(g2
g3
NtRp1237
(dp1238
g66
V10.1007/s00253-005-1906-5
p1239
sg62
VAPPL MICROBIOL BIOT
p1240
sg64
V68
p1241
sg94
(lp1242
(VRAU
VU
tp1243
asg28
I2005
sg54
V607
p1244
sbag1
(g2
g3
NtRp1245
(dp1246
g66
Nsg62
VAPPL MICROBIOL
p1247
sg64
V24
p1248
sg94
(lp1249
(VREISFELD
VA
tp1250
asg28
I1972
sg54
V363
p1251
sbag1
(g2
g3
NtRp1252
(dp1253
g66
V10.1007/s00253-009-1987-7
p1254
sg62
VAPPL MICROBIOL BIOT
p1255
sg64
V83
p1256
sg94
(lp1257
(VRIVARDO
VF
tp1258
asg28
I2009
sg54
V541
p1259
sbag1
(g2
g3
NtRp1260
(dp1261
g66
V10.1007/BF01026843
p1262
sg62
VBIOTECHNOL LETT
p1263
sg64
V11
p1264
sg94
(lp1265
(VROBERT
VM
tp1266
asg28
I1989
sg54
V871
p1267
sbag1
(g2
g3
NtRp1268
(dp1269
g66
V10.1128/AEM.70.7.4408-4410.2004
p1270
sg62
VAPPL ENVIRON MICROB
p1271
sg64
V70
p1272
sg94
(lp1273
(VRODRIGUES
VL
tp1274
asg28
I2004
sg54
V4408
p1275
sbag1
(g2
g3
NtRp1276
(dp1277
g66
V10.1111/j.1574-695X.2005.00006.x
p1278
sg62
VFEMS IMMUNOL MED MIC
p1279
sg64
V46
p1280
sg94
(lp1281
(VRODRIGUES
VL
tp1282
asg28
I2006
sg54
V107
p1283
sbag1
(g2
g3
NtRp1284
(dp1285
g66
V10.1016/j.colsurfb.2006.08.009
p1286
sg62
VCOLLOID SURFACE B
p1287
sg64
V53
p1288
sg94
(lp1289
(VRODRIGUES
VL R
tp1290
asg28
I2006
sg54
V105
p1291
sbag1
(g2
g3
NtRp1292
(dp1293
g66
V10.1023/A:1012548513766
p1294
sg62
VRUSSIAN J MARINE BIO
p1295
sg64
V27
p1296
sg94
(lp1297
(VROMANENKO
VL A
tp1298
asg28
I2001
sg54
V291
p1299
sbag1
(g2
g3
NtRp1300
(dp1301
g66
Nsg62
VAPPL ENVIRON MICROB
p1302
sg64
V54
p1303
sg94
(lp1304
(VROSENBERG
VE
tp1305
asg28
I1988
sg54
V323
p1306
sbag1
(g2
g3
NtRp1307
(dp1308
g66
V10.1080/01932698908943173
p1309
sg62
VJ DISPER SCI TECHNOL
p1310
sg64
V10
p1311
sg94
(lp1312
(VROSENBERG
VE
tp1313
asg28
I1989
sg54
V241
p1314
sbag1
(g2
g3
NtRp1315
(dp1316
g66
Nsg62
VAPPL ENVIRON MICROB
p1317
sg64
V37
p1318
sg94
(lp1319
(VROSENBERG
VE
tp1320
asg28
I1979
sg54
V402
p1321
sbag1
(g2
g3
NtRp1322
(dp1323
g66
Nsg62
VBACTERIAL OUTER MEMB
p1324
sg64
Nsg94
(lp1325
(VROSENBERG
VE
tp1326
asg28
I1987
sg54
V311
p1327
sbag1
(g2
g3
NtRp1328
(dp1329
g66
Nsg62
VAPPL ENVIRON MICROB
p1330
sg64
V54
p1331
sg94
(lp1332
(VROSENBERG
VE
tp1333
asg28
I1988
sg54
V317
p1334
sbag1
(g2
g3
NtRp1335
(dp1336
g66
Nsg62
VBIOPOLYMERS RENEWAL
p1337
sg64
Nsg94
(lp1338
(VROSENBERG
VE
tp1339
asg28
I1989
sg54
V281
p1340
sbag1
(g2
g3
NtRp1341
(dp1342
g66
V10.1098/rspb.2008.1281
p1343
sg62
VP R SOC B
p1344
sg64
V276
p1345
sg94
(lp1346
(VROSTAS
VM
tp1347
asg28
I2009
sg54
V633
p1348
sbag1
(g2
g3
NtRp1349
(dp1350
g66
Nsg62
VBIOTECHNOL APPL BIOC
p1351
sg64
V12
p1352
sg94
(lp1353
(VSANDRIN
VC
tp1354
asg28
I1990
sg54
V370
p1355
sbag1
(g2
g3
NtRp1356
(dp1357
g66
V10.1007/s00284-006-0412-z
p1358
sg62
VCURR MICROBIOL
p1359
sg64
V54
p1360
sg94
(lp1361
(VSARUBBO
VL A
tp1362
asg28
I2007
sg54
V68
p1363
sbag1
(g2
g3
NtRp1364
(dp1365
g66
Nsg62
VINDIAN J MAR SCI
p1366
sg64
V37
p1367
sg94
(lp1368
(VSATPUTE
VS K
tp1369
asg28
I2008
sg54
V243
p1370
sbag1
(g2
g3
NtRp1371
(dp1372
g66
Nsg62
VZ NATURFORSCH C
p1373
sg64
V46
p1374
sg94
(lp1375
(VSCHULZ
VD
tp1376
asg28
I1991
sg54
V197
p1377
sbag1
(g2
g3
NtRp1378
(dp1379
g66
VDOI 10.4172/2157-7463.1000133
p1380
sg62
VJ PET ENV BIOTECHNOL
p1381
sg64
V3
sg94
(lp1382
(VSEKHON
VK K
tp1383
asg28
I2012
sg54
V133
p1384
sbag1
(g2
g3
NtRp1385
(dp1386
g66
V10.1016/0168-1656(95)00053-S
p1387
sg62
VJ BIOTECHNOL
p1388
sg64
V40
p1389
sg94
(lp1390
(VSHEPHERD
VR
tp1391
asg28
I1995
sg54
V207
p1392
sbag1
(g2
g3
NtRp1393
(dp1394
g66
V10.1016/0005-2736(91)90406-X
p1395
sg62
VBIOCHIM BIOPHYS ACTA
p1396
sg64
V1064
p1397
sg94
(lp1398
(VSHEPPARD
VJ D
tp1399
asg28
I1991
sg54
V13
p1400
sbag1
(g2
g3
NtRp1401
(dp1402
g66
Nsg62
VMikrobiologiya
p1403
sg64
V59
p1404
sg94
(lp1405
(VSHUL'GA
VA N
tp1406
asg28
I1990
sg54
V443
p1407
sbag1
(g2
g3
NtRp1408
(dp1409
g66
V10.1139/m90-127
p1410
sg62
VCAN J MICROBIOL
p1411
sg64
V36
p1412
sg94
(lp1413
(VSINGER
VM E V
tp1414
asg28
I1990
sg54
V741
p1415
sbag1
(g2
g3
NtRp1416
(dp1417
g66
V10.1016/j.biotechadv.2006.10.004
p1418
sg62
VBIOTECHNOL ADV
p1419
sg64
V25
p1420
sg94
(lp1421
(VSINGH
VA
tp1422
asg28
I2007
sg54
V99
p1423
sbag1
(g2
g3
NtRp1424
(dp1425
g66
Nsg62
VINDIAN J EXP BIOL
p1426
sg64
V27
p1427
sg94
(lp1428
(VSINGH
VM
tp1429
asg28
I1989
sg54
V224
p1430
sbag1
(g2
g3
NtRp1431
(dp1432
g66
V10.1111/j.1365-2672.2007.03626.x
p1433
sg62
VJ APPL MICROBIOL
p1434
sg64
V104
p1435
sg94
(lp1436
(VSUTYAK
VK E
tp1437
asg28
I2008
sg54
V1067
p1438
sbag1
(g2
g3
NtRp1439
(dp1440
g66
Nsg62
VAGR BIOL CHEM TOKYO
p1441
sg64
V38
p1442
sg94
(lp1443
(VSUZUKI
VT
tp1444
asg28
I1974
sg54
V557
p1445
sbag1
(g2
g3
NtRp1446
(dp1447
g66
Nsg62
VJ BIOCHEM
p1448
sg64
V57
p1449
sg94
(lp1450
(VSUZUKI
VT
tp1451
asg28
I1965
sg54
V226
p1452
sbag1
(g2
g3
NtRp1453
(dp1454
g66
V10.1111/j.1365-2958.2007.05941.x
p1455
sg62
VMOL MICROBIOL
p1456
sg64
V66
p1457
sg94
(lp1458
(VTEICHMANN
VB
tp1459
asg28
I2007
sg54
V525
p1460
sbag1
(g2
g3
NtRp1461
(dp1462
g66
V10.1111/j.1574-6968.1995.tb07507.x
p1463
sg62
VFEMS MICROBIOL LETT
p1464
sg64
V128
p1465
sg94
(lp1466
(VTHIMON
VL
tp1467
asg28
I1995
sg54
V101
p1468
sbag1
(g2
g3
NtRp1469
(dp1470
g66
V10.1016/j.colsurfa.2008.04.009
p1471
sg62
VCOLLOID SURFACE A
p1472
sg64
V324
p1473
sg94
(lp1474
(VTRINDADE
VJ R
tp1475
asg28
I2008
sg54
V149
p1476
sbag1
(g2
g3
NtRp1477
(dp1478
g66
V10.1139/v68-551
p1479
sg62
VCAN J CHEMISTRY
p1480
sg64
V46
p1481
sg94
(lp1482
(VTULLOCK
VA P
tp1483
asg28
I1968
sg54
V3337
p1484
sbag1
(g2
g3
NtRp1485
(dp1486
g66
V10.1248/bpb.30.169
p1487
sg62
VBIOL PHARM BULL
p1488
sg64
V30
p1489
sg94
(lp1490
(VUENO
VY
tp1491
asg28
I2007
sg54
V169
p1492
sbag1
(g2
g3
NtRp1493
(dp1494
g66
Nsg62
VJ ANTIBIOT
p1495
sg64
V39
p1496
sg94
(lp1497
(VVANITTANAKOM
VN
tp1498
asg28
I1986
sg54
V888
p1499
sbag1
(g2
g3
NtRp1500
(dp1501
g66
Nsg62
VCAN J MICROBIOL
p1502
sg64
V41
p1503
sg94
(lp1504
(VVENKATESWARAN
VK
tp1505
asg28
I1995
sg54
V767
p1506
sbag1
(g2
g3
NtRp1507
(dp1508
g66
V10.1016/j.biotechadv.2007.06.001
p1509
sg62
VBIOTECHNOL ADV
p1510
sg64
V25
p1511
sg94
(lp1512
(VVILLENEUVE
VP
tp1513
asg28
I2007
sg54
V515
p1514
sbag1
(g2
g3
NtRp1515
(dp1516
g66
Nsg62
VInternational Biodeterioration
p1517
sg64
V27
p1518
sg94
(lp1519
(VWASKO
VM P
tp1520
asg28
I1990
sg54
V265
p1521
sbag1
(g2
g3
NtRp1522
(dp1523
g66
Nsg62
VBIOCATALYSIS
p1524
sg64
V5
sg94
(lp1525
(VWEBER
VL
tp1526
asg28
I1992
sg54
V262
p1527
sbag1
(g2
g3
NtRp1528
(dp1529
g66
Nsg62
VAPPL ENVIRON MICROB
p1530
sg64
V61
p1531
sg94
(lp1532
(VYAKIMOV
VM M
tp1533
asg28
I1995
sg54
V1706
p1534
sbag1
(g2
g3
NtRp1535
(dp1536
g66
V10.1016/S0920-4105(97)00015-6
p1537
sg62
VJ PETROL SCI ENG
p1538
sg64
V18
p1539
sg94
(lp1540
(VYAKIMOV
VM M
tp1541
asg28
I1997
sg54
V147
p1542
sbag1
(g2
g3
NtRp1543
(dp1544
g66
V10.1128/AEM.02264-06
p1545
sg62
VAPPL ENVIRON MICROB
p1546
sg64
V73
p1547
sg94
(lp1548
(VYOUSSEF
VN
tp1549
asg28
I2007
sg54
V1239
p1550
sbag1
(g2
g3
NtRp1551
(dp1552
g66
V10.1002/bit.260190905
p1553
sg62
VBIOTECHNOL BIOENG
p1554
sg64
V19
p1555
sg94
(lp1556
(VZAJIC
VJ E
tp1557
asg28
I1977
sg54
V1303
p1558
sbag1
(g2
g3
NtRp1559
(dp1560
g66
V10.1016/j.ijpharm.2010.01.035
p1561
sg62
VINT J PHARMACEUT
p1562
sg64
V390
p1563
sg94
(lp1564
(VZHANG
VY
tp1565
asg28
I2010
sg54
V198
p1566
sbag1
(g2
g3
NtRp1567
(dp1568
g66
Nsg62
VCANCER RES
p1569
sg64
V59
p1570
sg94
(lp1571
(VZHAO
VX X
tp1572
asg28
I1999
sg54
V482
p1573
sbag1
(g2
g3
NtRp1574
(dp1575
g66
V10.1046/j.1472-765X.1997.00355.x
p1576
sg62
VLETT APPL MICROBIOL
p1577
sg64
V24
p1578
sg94
(lp1579
(VZINJARDE
VS
tp1580
asg28
I1997
sg54
V117
p1581
sbag1
(g2
g3
NtRp1582
(dp1583
g66
V10.1002/1521-4028(200203)42:1<67::AID-JOBM67>3.0.CO;2-M
p1584
sg62
VJ BASIC MICROB
p1585
sg64
V42
p1586
sg94
(lp1587
(VZINJARDE
VS S
tp1588
asg28
I2002
sg54
V67
p1589
sbag1
(g2
g3
NtRp1590
(dp1591
g66
V10.1002/bit.260240203
p1592
sg62
VBIOTECHNOL BIOENG
p1593
sg64
V24
p1594
sg94
(lp1595
(VZOSIM
VZ
tp1596
asg28
I1982
sg54
V281
p1597
sbasb.