ccopy_reg
_reconstructor
p1
(ctethne.classes.paper
Paper
p2
c__builtin__
object
p3
NtRp4
(dp5
S'publisherCity'
p6
VROCKVILLE
p7
sS'reprintAddress'
p8
VWatanabe, M (reprint author), Max Planck Inst Mol Plant Physiol, D-14476 Potsdam, Germany.
p9
sS'WC'
p10
VPlant Sciences
p11
sS'GA'
p12
V176SU
p13
sS'FX'
p14
(lp15
VThis work was supported by the Deutsche Forschungsgemeinschaft (grant
p16
aVnos. FOR 948, MU 1199/14-1, MU 1199/14-2, and BA4769/1-2 to B. M.-R. and
p17
aVS. B.) and the Max Planck Society.
p18
asS'abstract'
p19
VDevelopmental senescence is a coordinated physiological process in plants and is critical for nutrient redistribution from senescing leaves to newly formed sink organs, including young leaves and developing seeds. Progress has been made concerning the genes involved and the regulatory networks controlling senescence. The resulting complex metabolome changes during senescence have not been investigated in detail yet. Therefore, we conducted a comprehensive profiling of metabolites, including pigments, lipids, sugars, amino acids, organic acids, nutrient ions, and secondary metabolites, and determined approximately 260 metabolites at distinct stages in leaves and siliques during senescence in Arabidopsis (Arabidopsis thaliana). This provided an extensive catalog of metabolites and their spatiotemporal cobehavior with progressing senescence. Comparison with silique data provides clues to source-sink relations. Furthermore, we analyzed the metabolite distribution within single leaves along the basipetal sink-source transition trajectory during senescence. Ceramides, lysolipids, aromatic amino acids, branched chain amino acids, and stress-induced amino acids accumulated, and an imbalance of asparagine/aspartate, glutamate/glutamine, and nutrient ions in the tip region of leaves was detected. Furthermore, the spatiotemporal distribution of tricarboxylic acid cycle intermediates was already changed in the presenescent leaves, and glucosinolates, raffinose, and galactinol accumulated in the base region of leaves with preceding senescence. These results are discussed in the context of current models of the metabolic shifts occurring during developmental and environmentally induced senescence. As senescence processes are correlated to crop yield, the metabolome data and the approach provided here can serve as a blueprint for the analysis of traits and conditions linking crop yield and senescence.
p20
sS'pageEnd'
p21
I1310
sS'date'
p22
I2013
sS'documentType'
p23
VArticle
p24
sS'subject'
p25
VPlant Sciences
p26
sS'isoSource'
p27
VPlant Physiol.
p28
sS'timesCited'
p29
(lp30
I0
aVZ9 0
p31
asS'funding'
p32
(lp33
(VDeutsche Forschungsgemeinschaft
VFOR 948, MU 1199/14-1, MU 1199/14-2, BA4769/1-2
tp34
a(VMax Planck Society
Ntp35
asS'PT'
p36
VJ
sS'title'
p37
VComprehensive Dissection Of Spatiotemporal Metabolic Shifts In Primary, Secondary, And Lipid Metabolism During Developmental Senescence In Arabidopsis
p38
sS'ISSN'
p39
(lp40
V0032-0889
p41
aVJ9 PLANT PHYSIOL
p42
asS'authors_full'
p43
(lp44
(VWATANABE
VMUTSUMI
tp45
a(VBALAZADEH
VSALMA
tp46
a(VTOHGE
VTAKAYUKI
tp47
a(VERBAN
VALEXANDER
tp48
a(VGIAVALISCO
VPATRICK
tp49
a(VKOPKA
VJOACHIM
tp50
a(VMUELLERROEBER
VBERND
tp51
a(VFERNIE
VALISDAIR R
tp52
a(VHOEFGEN
VRAINER
tp53
asS'PG'
p54
I21
sS'PD'
p55
VJUL
p56
sS'pageStart'
p57
I1290
sS'issue'
p58
I3
sS'journal'
p59
VPLANT PHYSIOLOGY
p60
sS'volume'
p61
V162
p62
sS'doi'
p63
V10.1104/pp.113.217380
p64
sS'emailAddress'
p65
Vwatanabe@mpimp-golm.mpg.de
p66
sS'authorAddress'
p67
(lp68
V[Watanabe, Mutsumi; Balazadeh, Salma; Tohge, Takayuki; Erban, Alexander; Giavalisco, Patrick; Kopka, Joachim; Mueller-Roeber, Bernd; Fernie, Alisdair R.; Hoefgen, Rainer] Max Planck Inst Mol Plant Physiol, D-14476 Potsdam, Germany.
p69
aV[Balazadeh, Salma; Mueller-Roeber, Bernd] Univ Potsdam, Inst Biochem & Biol, D-14476 Potsdam, Germany.
p70
asS'publisherAddress'
p71
V15501 MONONA DRIVE, ROCKVILLE, MD 20855 USA
p72
sS'ER'
p73
V
sS'publisher'
p74
VAMER SOC PLANT BIOLOGISTS
p75
sS'authorKeywords'
p76
(lp77
VNAC TRANSCRIPTION FACTOR
p78
aVFATTY-ACID COMPOSITION
p79
aVLEAF SENESCENCE
p80
aVGENE-EXPRESSION
p81
aVMASS-SPECTROMETRY
p82
aVGAS-CHROMATOGRAPHY
p83
aVMOLECULAR ANALYSIS
p84
aVDEVELOPING LEAVES
p85
aVOILSEED RAPE
p86
aVCELL-DEATH
p87
asS'language'
p88
VEnglish
p89
sS'wosid'
p90
VWOS:000321325700007
p91
sS'citationCount'
p92
I168
sS'authors_init'
p93
(lp94
(VWATANABE
VM
tp95
a(VBALAZADEH
VS
tp96
a(VTOHGE
VT
tp97
a(VERBAN
VA
tp98
a(VGIAVALISCO
VP
tp99
a(VKOPKA
VJ
tp100
a(VMUELLERROEBER
VB
tp101
a(VFERNIE
VA R
tp102
a(VHOEFGEN
VR
tp103
asS'citedReferences'
p104
(lp105
g1
(g2
g3
NtRp106
(dp107
g63
V10.1111/j.1469-8137.2010.03269.x
p108
sg59
VNEW PHYTOL
p109
sg61
V186
p110
sg93
(lp111
(VAGATI
VG
tp112
asg22
I2010
sg57
V786
p113
sbag1
(g2
g3
NtRp114
(dp115
g63
V10.1016/S0014-5793(01)02694-1
p116
sg59
VFEBS LETT
p117
sg61
V503
p118
sg93
(lp119
(VALLEVA
VR
tp120
asg22
I2001
sg57
V46
p121
sbag1
(g2
g3
NtRp122
(dp123
g63
Nsg59
VMETHOD ENZYMOL
p124
sg61
V113
p125
sg93
(lp126
(VANDERSON
VM E
tp127
asg22
I1985
sg57
V548
p128
sbag1
(g2
g3
NtRp129
(dp130
g63
V10.1105/tpc.110.075630
p131
sg59
VPLANT CELL
p132
sg61
V22
p133
sg93
(lp134
(VARAUJO
VW L
tp135
asg22
I2010
sg57
VLANT
p136
sbag1
(g2
g3
NtRp137
(dp138
g63
V10.1016/j.tplants.2011.05.008
p139
sg59
VTRENDS PLANT SCI
p140
sg61
V16
p141
sg93
(lp142
(VARAUJO
VW L
tp143
asg22
I2011
sg57
V489
p144
sbag1
(g2
g3
NtRp145
(dp146
g63
V10.1111/j.1469-8137.1973.tb02109.x
p147
sg59
VNEW PHYTOL
p148
sg61
V72
p149
sg93
(lp150
(VBAKER
VN R
tp151
asg22
I1973
sg57
V1315
p152
sbag1
(g2
g3
NtRp153
(dp154
g63
V10.1111/j.1438-8677.2008.00088.x
p155
sg59
VPLANT BIOLOGY
p156
sg61
V10
p157
sg93
(lp158
(VBALAZADEH
VS
tp159
asg22
I2008
sg57
VLANT
p160
sbag1
(g2
g3
NtRp161
(dp162
g63
V10.1111/j.1365-313X.2010.04151.x
p163
sg59
VPLANT J
p164
sg61
V62
p165
sg93
(lp166
(VBALAZADEH
VS
tp167
asg22
I2010
sg57
VLANT
p168
sbag1
(g2
g3
NtRp169
(dp170
g63
Nsg59
VPLANT NUTR UTILIZATI
p171
sg61
Nsg93
(lp172
(VBENNETT
VW F
tp173
asg22
I1993
sg57
VLANT
p174
sbag1
(g2
g3
NtRp175
(dp176
g63
V10.1104/pp.012732
p177
sg59
VPLANT PHYSIOL
p178
sg61
V131
p179
sg93
(lp180
(VBHALERAO
VR
tp181
asg22
I2003
sg57
VLANT
p182
sbag1
(g2
g3
NtRp183
(dp184
g63
Nsg59
VCURR SCI INDIA
p185
sg61
V89
p186
sg93
(lp187
(VBHATTACHARJEE
VS
tp188
asg22
I2005
sg57
V1113
p189
sbag1
(g2
g3
NtRp190
(dp191
g63
V10.1007/BF00039491
p192
sg59
VPHOTOSYNTH RES
p193
sg61
V16
p194
sg93
(lp195
(VBLACKWELL
VR D
tp196
asg22
I1988
sg57
VHOTOSYNTH
p197
sbag1
(g2
g3
NtRp198
(dp199
g63
V10.1080/01904168309363129
p200
sg59
VJ PLANT NUTR
p201
sg61
V6
sg93
(lp202
(VBLOMZANDSTRA
VG
tp203
asg22
I1983
sg57
V611
p204
sbag1
(g2
g3
NtRp205
(dp206
g63
V10.1016/S0031-9422(00)94752-6
p207
sg59
VPHYTOCHEMISTRY
p208
sg61
V35
p209
sg93
(lp210
(VBODNARYK
VR P
tp211
asg22
I1994
sg57
VHYTOCHEMISTRY
p212
sbag1
(g2
g3
NtRp213
(dp214
g63
V10.1016/0031-9422(92)83609-3
p215
sg59
VPHYTOCHEMISTRY
p216
sg61
V31
p217
sg93
(lp218
(VBODNARYK
VR P
tp219
asg22
I1992
sg57
VHYTOCHEMISTRY
p220
sbag1
(g2
g3
NtRp221
(dp222
g63
V10.1105/tpc.111.083345
p223
sg59
VPLANT CELL
p224
sg61
V23
p225
sg93
(lp226
(VBREEZE
VE
tp227
asg22
I2011
sg57
VLANT
p228
sbag1
(g2
g3
NtRp229
(dp230
g63
V10.1016/0006-3002(61)90418-8
p231
sg59
VBIOCHIM BIOPHYS ACTA
p232
sg61
V52
p233
sg93
(lp234
(VBRUINSMA
VJ
tp235
asg22
I1961
sg57
V576
p236
sbag1
(g2
g3
NtRp237
(dp238
g63
V10.1111/j.1365-313X.2005.02399.x
p239
sg59
VPLANT J
p240
sg61
V42
p241
sg93
(lp242
(VBUCHANAN-WOLLASTON
VV
tp243
asg22
I2005
sg57
VLANT
p244
sbag1
(g2
g3
NtRp245
(dp246
g63
V10.1046/j.1467-7652.2003.00004.x
p247
sg59
VPLANT BIOTECHNOL J
p248
sg61
V1
sg93
(lp249
(VBUCHANAN-WOLLASTON
VV
tp250
asg22
I2003
sg57
VLANT
p251
sbag1
(g2
g3
NtRp252
(dp253
g63
V10.1104/pp.127.1.194
p254
sg59
VPLANT PHYSIOL
p255
sg61
V127
p256
sg93
(lp257
(VCHEN
VS X
tp258
asg22
I2001
sg57
VLANT
p259
sbag1
(g2
g3
NtRp260
(dp261
g63
V10.1034/j.1399-3054.1998.1020206.x
p262
sg59
VPHYSIOL PLANTARUM
p263
sg61
V102
p264
sg93
(lp265
(VCRAFTS-BRANDNER
VS J
tp266
asg22
I1998
sg57
VHYSIOL
p267
sbag1
(g2
g3
NtRp268
(dp269
g63
V10.1104/pp.105.063743
p270
sg59
VPLANT PHYSIOL
p271
sg61
V139
p272
sg93
(lp273
(VCZECHOWSKI
VT
tp274
asg22
I2005
sg57
VLANT
p275
sbag1
(g2
g3
NtRp276
(dp277
g63
V10.1104/pp.105.060764
p278
sg59
VPLANT PHYSIOL
p279
sg61
V138
p280
sg93
(lp281
(VDIAZ
VC
tp282
asg22
I2005
sg57
VLANT
p283
sbag1
(g2
g3
NtRp284
(dp285
g63
Nsg59
VPLANT CELL REP
p286
sg61
V9
sg93
(lp287
(VDO
VC B
tp288
asg22
I1991
sg57
VLANT
p289
sbag1
(g2
g3
NtRp290
(dp291
g63
V10.1016/0031-9422(94)00653-B
p292
sg59
VPHYTOCHEMISTRY
p293
sg61
V38
p294
sg93
(lp295
(VDOUGHTY
VK J
tp296
asg22
I1995
sg57
VHYTOCHEMISTRY
p297
sbag1
(g2
g3
NtRp298
(dp299
g63
V10.1016/S1369-5266(03)00037-2
p300
sg59
VCURR OPIN PLANT BIOL
p301
sg61
V6
sg93
(lp302
(VEASTMOND
VP J
tp303
asg22
I2003
sg57
V231
p304
sbag1
(g2
g3
NtRp305
(dp306
g63
V10.1007/978-1-59745-244-1_2
p307
sg59
VV358
p308
sg61
V358
p309
sg93
(lp310
(VERBAN
VALEXANDER
tp311
asg22
I2007
sg57
V19
p312
sbag1
(g2
g3
NtRp313
(dp314
g63
Nsg59
VMETHOD ENZYMOL
p315
sg61
V143
p316
sg93
(lp317
(VFAHEY
VR C
tp318
asg22
I1987
sg57
V85
p319
sbag1
(g2
g3
NtRp320
(dp321
g63
V10.1104/pp.107.104455
p322
sg59
VPLANT PHYSIOL
p323
sg61
V145
p324
sg93
(lp325
(VFAHNENSTICH
VH
tp326
asg22
I2007
sg57
VLANT
p327
sbag1
(g2
g3
NtRp328
(dp329
g63
V10.1104/pp.127.2.566
p330
sg59
VPLANT PHYSIOL
p331
sg61
V127
p332
sg93
(lp333
(VFEILD
VT S
tp334
asg22
I2001
sg57
VLANT
p335
sbag1
(g2
g3
NtRp336
(dp337
g63
V10.1104/pp.54.6.877
p338
sg59
VPLANT PHYSIOL
p339
sg61
V54
p340
sg93
(lp341
(VFELLOWS
VR J
tp342
asg22
I1974
sg57
VLANT
p343
sbag1
(g2
g3
NtRp344
(dp345
g63
V10.1093/jxb/24.2.307
p346
sg59
VJ EXP BOT
p347
sg61
V24
p348
sg93
(lp349
(VFERGUSON
VC H
tp350
asg22
I1973
sg57
V307
p351
sbag1
(g2
g3
NtRp352
(dp353
g63
V10.1016/S0031-9422(00)86788-6
p354
sg59
VPHYTOCHEMISTRY
p355
sg61
V16
p356
sg93
(lp357
(VFONG
VF
tp358
asg22
I1977
sg57
VHYTOCHEMISTRY
p359
sbag1
(g2
g3
NtRp360
(dp361
g63
V10.1089/ars.2008.2177
p362
sg59
VANTIOXID REDOX SIGN
p363
sg61
V11
p364
sg93
(lp365
(VFOYER
VC H
tp366
asg22
I2009
sg57
V861
p367
sbag1
(g2
g3
NtRp368
(dp369
g63
V10.1104/pp.124.3.1139
p370
sg59
VPLANT PHYSIOL
p371
sg61
V124
p372
sg93
(lp373
(VFUJIKI
VY
tp374
asg22
I2000
sg57
VLANT
p375
sbag1
(g2
g3
NtRp376
(dp377
g63
V10.1034/j.1399-3054.2001.1110312.x
p378
sg59
VPHYSIOL PLANTARUM
p379
sg61
V111
p380
sg93
(lp381
(VFUJIKI
VY
tp382
asg22
I2001
sg57
VHYSIOL
p383
sbag1
(g2
g3
NtRp384
(dp385
g63
Nsg59
VPLANT PHYSIOL
p386
sg61
V113
p387
sg93
(lp388
(VGAN
VS S
tp389
asg22
I1997
sg57
VLANT
p390
sbag1
(g2
g3
NtRp391
(dp392
g63
V10.1046/j.1365-313X.2003.01908.x
p393
sg59
VPLANT J
p394
sg61
V36
p395
sg93
(lp396
(VGEPSTEIN
VS
tp397
asg22
I2003
sg57
VLANT
p398
sbag1
(g2
g3
NtRp399
(dp400
g63
V10.1111/j.1365-313X.2011.04682.x
p401
sg59
VPLANT J
p402
sg61
V68
p403
sg93
(lp404
(VGIAVALISCO
VP
tp405
asg22
I2011
sg57
VLANT
p406
sbag1
(g2
g3
NtRp407
(dp408
g63
V10.1186/gb-2006-7-8-r76
p409
sg59
VGENOME BIOL
p410
sg61
V7
sg93
(lp411
(VGIBON
VY
tp412
asg22
I2006
sg57
Nsbag1
(g2
g3
NtRp413
(dp414
g63
Nsg59
VMOL PHYSL BASIS NUTR
p415
sg61
Nsg93
(lp416
(VGREGERSEN
VP L
tp417
asg22
I2011
sg57
V83
p418
sbag1
(g2
g3
NtRp419
(dp420
g63
Nsg59
VPLANT MOL B IN PRESS
p421
sg61
Nsg93
(lp422
(VGREGERSEN
VP L
tp423
asg22
I2013
sg57
VLANT
p424
sbag1
(g2
g3
NtRp425
(dp426
g63
V10.1111/j.1365-3040.2003.01158.x
p427
sg59
VPLANT CELL ENVIRON
p428
sg61
V27
p429
sg93
(lp430
(VGUO
VY
tp431
asg22
I2004
sg57
VLANT
p432
sbag1
(g2
g3
NtRp433
(dp434
g63
V10.1111/j.1365-313X.2006.02723.x
p435
sg59
VPLANT J
p436
sg61
V46
p437
sg93
(lp438
(VGUO
VY F
tp439
asg22
I2006
sg57
VLANT
p440
sbag1
(g2
g3
NtRp441
(dp442
g63
Nsg59
VNATURALLY OCCURRING GLYCOSIDES
p443
sg61
Nsg93
(lp444
(VHALKIER
VB A
tp445
asg22
I1999
sg57
V193
p446
sbag1
(g2
g3
NtRp447
(dp448
g63
V10.1146/annurev.arplant.57.032905.105228
p449
sg59
VANNU REV PLANT BIOL
p450
sg61
V57
p451
sg93
(lp452
(VHALKIER
VB A
tp453
asg22
I2006
sg57
V303
p454
sbag1
(g2
g3
NtRp455
(dp456
g63
V10.1016/S0031-9422(00)00235-1
p457
sg59
VPHYTOCHEMISTRY
p458
sg61
V55
p459
sg93
(lp460
(VHARBORNE
VJ B
tp461
asg22
I2000
sg57
VHYTOCHEMISTRY
p462
sbag1
(g2
g3
NtRp463
(dp464
g63
V10.1007/BF00395429
p465
sg59
VPLANTA
p466
sg61
V156
p467
sg93
(lp468
(VHARWOOD
VJ L
tp469
asg22
I1982
sg57
VLANTA
p470
sbag1
(g2
g3
NtRp471
(dp472
g63
V10.1104/pp.103.024513
p473
sg59
VPLANT PHYSIOL
p474
sg61
V133
p475
sg93
(lp476
(VHENDRIKS
VJ H M
tp477
asg22
I2003
sg57
VLANT
p478
sbag1
(g2
g3
NtRp479
(dp480
g63
V10.1080/01904168009362788
p481
sg59
VJ PLANT NUTR
p482
sg61
V2
sg93
(lp483
(VHILL
VJ
tp484
asg22
I1980
sg57
V407
p485
sbag1
(g2
g3
NtRp486
(dp487
g63
V10.1078/0176-1617-00608
p488
sg59
VJ PLANT PHYSIOL
p489
sg61
V158
p490
sg93
(lp491
(VHIMELBLAU
VE
tp492
asg22
I2001
sg57
V1317
p493
sbag1
(g2
g3
NtRp494
(dp495
g63
V10.1074/jbc.274.1.397
p496
sg59
VJ BIOL CHEM
p497
sg61
V274
p498
sg93
(lp499
(VHO
VC L
tp500
asg22
I1999
sg57
V397
p501
sbag1
(g2
g3
NtRp502
(dp503
g63
V10.1074/jbc.274.16.11007
p504
sg59
VJ BIOL CHEM
p505
sg61
V274
p506
sg93
(lp507
(VHO
VC L
tp508
asg22
I1999
sg57
V11007
p509
sbag1
(g2
g3
NtRp510
(dp511
g63
V10.1080/01904169409364807
p512
sg59
VJ PLANT NUTR
p513
sg61
V17
p514
sg93
(lp515
(VHOCKING
VP J
tp516
asg22
I1994
sg57
V1289
p517
sbag1
(g2
g3
NtRp518
(dp519
g63
V10.1073/pnas.91.5.1726
p520
sg59
VP NATL ACAD SCI USA
p521
sg61
V91
p522
sg93
(lp523
(VHOFGEN
VR
tp524
asg22
I1994
sg57
V1726
p525
sbag1
(g2
g3
NtRp526
(dp527
g63
V10.1093/jxb/ern218
p528
sg59
VJ EXP BOT
p529
sg61
V59
p530
sg93
(lp531
(VHOWARTH
VJ R
tp532
asg22
I2008
sg57
V3675
p533
sbag1
(g2
g3
NtRp534
(dp535
g63
V10.1007/s11306-010-0198-7
p536
sg59
VMETABOLOMICS
p537
sg61
V6
sg93
(lp538
(VHUMMEL
VJ
tp539
asg22
I2010
sg57
V322
p540
sbag1
(g2
g3
NtRp541
(dp542
g63
V10.3389/fpls.2011.00054
p543
sg59
VFront Plant Sci
p544
sg61
V2
sg93
(lp545
(VHUMMEL
VJ A N
tp546
asg22
I2011
sg57
V54
p547
sbag1
(g2
g3
NtRp548
(dp549
g63
Nsg59
VPLANT CELL
p550
sg61
V11
p551
sg93
(lp552
(VIMLAU
VA
tp553
asg22
I1999
sg57
VLANT
p554
sbag1
(g2
g3
NtRp555
(dp556
g63
V10.1104/pp.104.044776
p557
sg59
VPLANT PHYSIOL
p558
sg61
V136
p559
sg93
(lp560
(VJEONG
VM L
tp561
asg22
I2004
sg57
VLANT
p562
sbag1
(g2
g3
NtRp563
(dp564
g63
Nsg59
VANN BOT
p565
sg61
V26
p566
sg93
(lp567
(VJONES
VH
tp568
asg22
I1962
sg57
V505
p569
sbag1
(g2
g3
NtRp570
(dp571
g63
V10.1371/journal.pgen.1002021
p572
sg59
VPLOS GENET
p573
sg61
V7
sg93
(lp574
(VKANT
VS
tp575
asg22
I2011
sg57
VLOS
p576
sbag1
(g2
g3
NtRp577
(dp578
g63
V10.1104/pp.104.052142
p579
sg59
VPLANT PHYSIOL
p580
sg61
V136
p581
sg93
(lp582
(VKAPLAN
VF
tp583
asg22
I2004
sg57
VLANT
p584
sbag1
(g2
g3
NtRp585
(dp586
g63
V10.1111/j.1365-313X.2007.03100.x
p587
sg59
VPLANT J
p588
sg61
V50
p589
sg93
(lp590
(VKAPLAN
VF
tp591
asg22
I2007
sg57
VLANT
p592
sbag1
(g2
g3
NtRp593
(dp594
g63
V10.1104/pp.003087
p595
sg59
VPLANT PHYSIOL
p596
sg61
V129
p597
sg93
(lp598
(VKAUP
VM T
tp599
asg22
I2002
sg57
VLANT
p600
sbag1
(g2
g3
NtRp601
(dp602
g63
V10.2307/2265777
p603
sg59
VECOLOGY
p604
sg61
V77
p605
sg93
(lp606
(VKILLINGBECK
VK T
tp607
asg22
I1996
sg57
V1716
p608
sbag1
(g2
g3
NtRp609
(dp610
g63
Nsg59
VP307
p611
sg61
Nsg93
(lp612
(VKIM
VHOYEUN
tp613
asg22
I1997
sg57
V307
p614
sbag1
(g2
g3
NtRp615
(dp616
g63
V10.1126/science.1166386
p617
sg59
VSCIENCE
p618
sg61
V323
p619
sg93
(lp620
(VKIM
VJ H
tp621
asg22
I2009
sg57
V1053
p622
sbag1
(g2
g3
NtRp623
(dp624
g63
Nsg59
VPLANT CELL PHYSIOL
p625
sg61
V22
p626
sg93
(lp627
(VKOIWAI
VA
tp628
asg22
I1981
sg57
VLANT
p629
sbag1
(g2
g3
NtRp630
(dp631
g63
V10.1093/bioinformatics/bti236
p632
sg59
VBIOINFORMATICS
p633
sg61
V21
p634
sg93
(lp635
(VKOPKA
VJ
tp636
asg22
I2005
sg57
V1635
p637
sbag1
(g2
g3
NtRp638
(dp639
g63
V10.1170/T772
p640
sg59
VCELL MOL BIOL
p641
sg61
V53
p642
sg93
(lp643
(VKORKINA
VL G
tp644
asg22
I2007
sg57
V15
p645
sbag1
(g2
g3
NtRp646
(dp647
g63
Nsg59
VBIOCH PLANTS COMPREH
p648
sg61
V5
sg93
(lp649
(VLEA
VP J
tp650
asg22
I1980
sg57
V569
p651
sbag1
(g2
g3
NtRp652
(dp653
g63
V10.2307/2388458
p654
sg59
VBIOTROPICA
p655
sg61
V19
p656
sg93
(lp657
(VLEE
VD W
tp658
asg22
I1987
sg57
V40
p659
sbag1
(g2
g3
NtRp660
(dp661
g63
Nsg59
VJ EXP BOT
p662
sg61
V46
p663
sg93
(lp664
(VLEEGOOD
VR C
tp665
asg22
I1995
sg57
V1397
p666
sbag1
(g2
g3
NtRp667
(dp668
g63
V10.1074/jbc.M104952200
p669
sg59
VJ BIOL CHEM
p670
sg61
V276
p671
sg93
(lp672
(VLEIPELT
VM
tp673
asg22
I2001
sg57
V33621
p674
sbag1
(g2
g3
NtRp675
(dp676
g63
V10.1023/A:1005993024161
p677
sg59
VPLANT MOL BIOL
p678
sg61
V36
p679
sg93
(lp680
(VLERS
VA
tp681
asg22
I1998
sg57
VLANT
p682
sbag1
(g2
g3
NtRp683
(dp684
g63
V10.1101/gad.1140503
p685
sg59
VGENE DEV
p686
sg61
V17
p687
sg93
(lp688
(VLIANG
VH
tp689
asg22
I2003
sg57
V2636
p690
sbag1
(g2
g3
NtRp691
(dp692
g63
V10.1146/annurev.arplant.57.032905.105316
p693
sg59
VANNU REV PLANT BIOL
p694
sg61
V58
p695
sg93
(lp696
(VLIM
VP O
tp697
asg22
I2007
sg57
V115
p698
sbag1
(g2
g3
NtRp699
(dp700
g63
V10.1021/ac50047a019
p701
sg59
VANAL CHEM
p702
sg61
V51
p703
sg93
(lp704
(VLINDROTH
VP
tp705
asg22
I1979
sg57
V1667
p706
sbag1
(g2
g3
NtRp707
(dp708
g63
V10.1038/nprot.2006.59
p709
sg59
VNAT PROTOC
p710
sg61
V1
sg93
(lp711
(VLISEC
VJ
tp712
asg22
I2006
sg57
V387
p713
sbag1
(g2
g3
NtRp714
(dp715
g63
V10.1034/j.1399-3054.1994.920218.x
p716
sg59
VPHYSIOL PLANTARUM
p717
sg61
V92
p718
sg93
(lp719
(VLOHMAN
VK N
tp720
asg22
I1994
sg57
VHYSIOL
p721
sbag1
(g2
g3
NtRp722
(dp723
g63
V10.1016/j.phytochem.2009.12.014
p724
sg59
VPHYTOCHEMISTRY
p725
sg61
V71
p726
sg93
(lp727
(VLOVDAL
VT
tp728
asg22
I2010
sg57
VHYTOCHEMISTRY
p729
sbag1
(g2
g3
NtRp730
(dp731
g63
V10.1093/bioinformatics/btn023
p732
sg59
VBIOINFORMATICS
p733
sg61
V24
p734
sg93
(lp735
(VLUEDEMANN
VA
tp736
asg22
I2008
sg57
V732
p737
sbag1
(g2
g3
NtRp738
(dp739
g63
V10.1021/jf9608635
p740
sg59
VJ AGR FOOD CHEM
p741
sg61
V45
p742
sg93
(lp743
(VMANICI
VL M
tp744
asg22
I1997
sg57
V2768
p745
sbag1
(g2
g3
NtRp746
(dp747
g63
Nsg59
VMINERAL NUTR HIGHER
p748
sg61
Nsg93
(lp749
(VMARSCHNER
VH
tp750
asg22
I1995
sg57
Nsbag1
(g2
g3
NtRp751
(dp752
g63
V10.1093/jxb/47.Special_Issue.1255
p753
sg59
VJ EXP BOT
p754
sg61
V47
p755
sg93
(lp756
(VMARSCHNER
VH
tp757
asg22
I1996
sg57
V1255
p758
sbag1
(g2
g3
NtRp759
(dp760
g63
V10.1007/s004250000310
p761
sg59
VPLANTA
p762
sg61
V211
p763
sg93
(lp764
(VMASCLAUX
VC
tp765
asg22
I2000
sg57
VLANTA
p766
sbag1
(g2
g3
NtRp767
(dp768
g63
V10.1104/pp.106.091355
p769
sg59
VPLANT PHYSIOL
p770
sg61
V143
p771
sg93
(lp772
(VMASCLAUX-DAUBRESSE
VC
tp773
asg22
I2007
sg57
VLANT
p774
sbag1
(g2
g3
NtRp775
(dp776
g63
V10.1007/s00425-004-1468-2
p777
sg59
VPLANTA
p778
sg61
V221
p779
sg93
(lp780
(VMASCLAUX-DAUBRESSE
VC
tp781
asg22
I2005
sg57
VLANTA
p782
sbag1
(g2
g3
NtRp783
(dp784
g63
V10.1104/pp.109.148031
p785
sg59
VPLANT PHYSIOL
p786
sg61
V152
p787
sg93
(lp788
(VMATSUDA
VF
tp789
asg22
I2010
sg57
VLANT
p790
sbag1
(g2
g3
NtRp791
(dp792
g63
V10.1093/jxb/43.11.1429
p793
sg59
VJ EXP BOT
p794
sg61
V43
p795
sg93
(lp796
(VMAUK
VC S
tp797
asg22
I1992
sg57
V1429
p798
sbag1
(g2
g3
NtRp799
(dp800
g63
V10.1007/s11103-004-2142-6
p801
sg59
VPLANT MOL BIOL
p802
sg61
V55
p803
sg93
(lp804
(VMIAO
VY
tp805
asg22
I2004
sg57
VLANT
p806
sbag1
(g2
g3
NtRp807
(dp808
g63
V10.1016/j.crvi.2008.07.020
p809
sg59
VCR BIOL
p810
sg61
V331
p811
sg93
(lp812
(VMUNIER-JOLAIN
VN
tp813
asg22
I2008
sg57
V780
p814
sbag1
(g2
g3
NtRp815
(dp816
g63
Nsg59
VPLANT LIPIDS BIOL UT
p817
sg61
Nsg93
(lp818
(VMURPHY
VD J
tp819
asg22
I2005
sg57
VLANT
p820
sbag1
(g2
g3
NtRp821
(dp822
g63
V10.1016/S0958-1669(97)80103-6
p823
sg59
VCURR OPIN BIOTECH
p824
sg61
V8
sg93
(lp825
(VNAM
VH G
tp826
asg22
I1997
sg57
V200
p827
sbag1
(g2
g3
NtRp828
(dp829
g63
Nsg59
VTREE PHYSIOL
p830
sg61
V16
p831
sg93
(lp832
(VNIEMINEN
VT
tp833
asg22
I1996
sg57
V825
p834
sbag1
(g2
g3
NtRp835
(dp836
g63
V10.1046/j.1365-313X.2003.01657.x
p837
sg59
VPLANT J
p838
sg61
V33
p839
sg93
(lp840
(VNIKIFOROVA
VV
tp841
asg22
I2003
sg57
VLANT
p842
sbag1
(g2
g3
NtRp843
(dp844
g63
V10.1093/jxb/erh177
p845
sg59
VJ EXP BOT
p846
sg61
V55
p847
sg93
(lp848
(VNIKIFOROVA
VV J
tp849
asg22
I2004
sg57
V1861
p850
sbag1
(g2
g3
NtRp851
(dp852
g63
V10.1104/pp.108.122465
p853
sg59
VPLANT PHYSIOL
p854
sg61
V147
p855
sg93
(lp856
(VNISHIZAWA
VA
tp857
asg22
I2008
sg57
VLANT
p858
sbag1
(g2
g3
NtRp859
(dp860
g63
Nsg59
VSenescence in plants
p861
sg61
Nsg93
(lp862
(VNOODEN
VL D
tp863
asg22
I1980
sg57
V219
p864
sbag1
(g2
g3
NtRp865
(dp866
g63
Nsg59
VJ EXP BOT
p867
sg61
V52
p868
sg93
(lp869
(VNOODEN
VL D
tp870
asg22
I2001
sg57
V2151
p871
sbag1
(g2
g3
NtRp872
(dp873
g63
Nsg59
VPHYSIOL PLANTARUM
p874
sg61
V96
p875
sg93
(lp876
(VNOODEN
VL D
tp877
asg22
I1996
sg57
VHYSIOL
p878
sbag1
(g2
g3
NtRp879
(dp880
g63
V10.1038/nature11285
p881
sg59
VNATURE
p882
sg61
V488
p883
sg93
(lp884
(VNOUR-ELDIN
VH H
tp885
asg22
I2012
sg57
V531
p886
sbag1
(g2
g3
NtRp887
(dp888
g63
V10.1007/s00018-012-1091-5
p889
sg59
VCELL MOL LIFE SCI
p890
sg61
V69
p891
sg93
(lp892
(VOBATA
VT
tp893
asg22
I2012
sg57
V3225
p894
sbag1
(g2
g3
NtRp895
(dp896
g63
Nsg59
VPLANT CELL PHYSIOL
p897
sg61
V37
p898
sg93
(lp899
(VONO
VK
tp900
asg22
I1996
sg57
VLANT
p901
sbag1
(g2
g3
NtRp902
(dp903
g63
Nsg59
VJ EXP BOT
p904
sg61
V46
p905
sg93
(lp906
(VOSMOND
VC B
tp907
asg22
I1995
sg57
V1351
p908
sbag1
(g2
g3
NtRp909
(dp910
g63
V10.1007/s00299-006-0255-x
p911
sg59
VPLANT CELL REP
p912
sg61
V26
p913
sg93
(lp914
(VPARK
VJ S
tp915
asg22
I2007
sg57
VLANT
p916
sbag1
(g2
g3
NtRp917
(dp918
g63
V10.1146/annurev.arplant.59.032607.092945
p919
sg59
VANNU REV PLANT BIOL
p920
sg61
V59
p921
sg93
(lp922
(VPAUL
VM J
tp923
asg22
I2008
sg57
V417
p924
sbag1
(g2
g3
NtRp925
(dp926
g63
Nsg59
VPLANT J
p927
sg61
V16
p928
sg93
(lp929
(VPAUL
VR U
tp930
asg22
I1998
sg57
VLANT
p931
sbag1
(g2
g3
NtRp932
(dp933
g63
V10.1046/j.1365-313X.2002.01458.x
p934
sg59
VPLANT J
p935
sg61
V32
p936
sg93
(lp937
(VPETERS
VD J
tp938
asg22
I2002
sg57
VLANT
p939
sbag1
(g2
g3
NtRp940
(dp941
g63
Nsg59
VPLANT PHYSIOL BIOCH
p942
sg61
V33
p943
sg93
(lp944
(VBONGUEBARTELSMAN
VM
tp945
asg22
I1995
sg57
VLANT
p946
sbag1
(g2
g3
NtRp947
(dp948
g63
V10.1126/science.1118510
p949
sg59
VSCIENCE
p950
sg61
V311
p951
sg93
(lp952
(VPICHERSKY
VE
tp953
asg22
I2006
sg57
V808
p954
sbag1
(g2
g3
NtRp955
(dp956
g63
V10.1105/tpc.111.090324
p957
sg59
VPLANT CELL
p958
sg61
V23
p959
sg93
(lp960
(VPICK
VT R
tp961
asg22
I2011
sg57
VLANT
p962
sbag1
(g2
g3
NtRp963
(dp964
g63
Nsg59
VPLANT CELL PHYSIOL
p965
sg61
V32
p966
sg93
(lp967
(VPITCHER
VL H
tp968
asg22
I1991
sg57
VLANT
p969
sbag1
(g2
g3
NtRp970
(dp971
g63
V10.1007/s00425-006-0243-y
p972
sg59
VPLANTA
p973
sg61
V224
p974
sg93
(lp975
(VPOURTAU
VN
tp976
asg22
I2006
sg57
VLANTA
p977
sbag1
(g2
g3
NtRp978
(dp979
g63
V10.1023/A:1010639015959
p980
sg59
VPLANT MOL BIOL
p981
sg61
V46
p982
sg93
(lp983
(VQUIRINO
VB F
tp984
asg22
I2001
sg57
VLANT
p985
sbag1
(g2
g3
NtRp986
(dp987
g63
Nsg59
VPLANT CELL
p988
sg61
V7
sg93
(lp989
(VRADWANSKI
VE R
tp990
asg22
I1995
sg57
VLANT
p991
sbag1
(g2
g3
NtRp992
(dp993
g63
V10.1007/BF01021647
p994
sg59
VBIOTECHNOL LETT
p995
sg61
V14
p996
sg93
(lp997
(VRAJENDRAN
VL
tp998
asg22
I1992
sg57
V707
p999
sbag1
(g2
g3
NtRp1000
(dp1001
g63
V10.1023/A:1006380021658
p1002
sg59
VPLANT MOL BIOL
p1003
sg61
V42
p1004
sg93
(lp1005
(VRASK
VL
tp1006
asg22
I2000
sg57
VLANT
p1007
sbag1
(g2
g3
NtRp1008
(dp1009
g63
Nsg59
VPLANT CELL
p1010
sg61
V9
sg93
(lp1011
(VROBERTS
VA G
tp1012
asg22
I1997
sg57
VLANT
p1013
sbag1
(g2
g3
NtRp1014
(dp1015
g63
V10.1046/j.1365-3040.1999.00368.x
p1016
sg59
VPLANT CELL ENVIRON
p1017
sg61
V22
p1018
sg93
(lp1019
(VROBINSON
VC K
tp1020
asg22
I1999
sg57
VLANT
p1021
sbag1
(g2
g3
NtRp1022
(dp1023
g63
V10.1105/tpc.010455
p1024
sg59
VPLANT CELL
p1025
sg61
V14
p1026
sg93
(lp1027
(VROLLAND
VF
tp1028
asg22
I2002
sg57
VLANT
p1029
sbag1
(g2
g3
NtRp1030
(dp1031
g63
V10.1023/A:1026540524990
p1032
sg59
VPLANT MOL BIOL
p1033
sg61
V44
p1034
sg93
(lp1035
(VRUBINSTEIN
VB
tp1036
asg22
I2000
sg57
VLANT
p1037
sbag1
(g2
g3
NtRp1038
(dp1039
g63
Nsg59
VBIOTECHNIQUES
p1040
sg61
V34
p1041
sg93
(lp1042
(VSAEED
VA I
tp1043
asg22
I2003
sg57
V374
p1044
sbag1
(g2
g3
NtRp1045
(dp1046
g63
V10.1104/pp.106.3.887
p1047
sg59
VPLANT PHYSIOL
p1048
sg61
V106
p1049
sg93
(lp1050
(VSAITO
VK
tp1051
asg22
I1994
sg57
VLANT
p1052
sbag1
(g2
g3
NtRp1053
(dp1054
g63
Nsg59
VINT J PHARM SCI TECH
p1055
sg61
V6
sg93
(lp1056
(VSAMANTA
VA
tp1057
asg22
I2011
sg57
V12
p1058
sbag1
(g2
g3
NtRp1059
(dp1060
g63
V10.1111/j.1399-3054.2007.00993.x
p1061
sg59
VPHYSIOL PLANTARUM
p1062
sg61
V132
p1063
sg93
(lp1064
(VSANCHEZ
VD H
tp1065
asg22
I2008
sg57
VHYSIOL
p1066
sbag1
(g2
g3
NtRp1067
(dp1068
g63
V10.1023/A:1017521218657
p1069
sg59
VEUPHYTICA
p1070
sg61
V119
p1071
sg93
(lp1072
(VSAULESCU
VN N
tp1073
asg22
I2001
sg57
V205
p1074
sbag1
(g2
g3
NtRp1075
(dp1076
g63
V10.1104/pp.104.056713
p1077
sg59
VPLANT PHYSIOL
p1078
sg61
V137
p1079
sg93
(lp1080
(VSCHILTZ
VS
tp1081
asg22
I2005
sg57
VLANT
p1082
sbag1
(g2
g3
NtRp1083
(dp1084
g63
V10.1105/tpc.107.056341
p1085
sg59
VPLANT CELL
p1086
sg61
V20
p1087
sg93
(lp1088
(VSCHIPPERS
VJ H M
tp1089
asg22
I2008
sg57
VLANT
p1090
sbag1
(g2
g3
NtRp1091
(dp1092
g63
V10.1093/jxb/err311
p1093
sg59
VJ EXP BOT
p1094
sg61
V63
p1095
sg93
(lp1096
(VSCHLUEPMANN
VH
tp1097
asg22
I2012
sg57
V3379
p1098
sbag1
(g2
g3
NtRp1099
(dp1100
g63
V10.1199/tab.0122
p1101
sg59
VArabidopsis Book
p1102
sg61
V7
sg93
(lp1103
(VSCHLUEPMANN
VHENRIETTE
tp1104
asg22
I2009
sg57
Ve0122
p1105
sbag1
(g2
g3
NtRp1106
(dp1107
g63
V10.1104/pp.110.153114
p1108
sg59
VPLANT PHYSIOL
p1109
sg61
V152
p1110
sg93
(lp1111
(VSELTMANN
VM A
tp1112
asg22
I2010
sg57
VLANT
p1113
sbag1
(g2
g3
NtRp1114
(dp1115
g63
V10.1104/pp.109.148965
p1116
sg59
VPLANT PHYSIOL
p1117
sg61
V152
p1118
sg93
(lp1119
(VSKIRYCZ
VA
tp1120
asg22
I2010
sg57
VLANT
p1121
sbag1
(g2
g3
NtRp1122
(dp1123
g63
V10.1093/jxb/ers124
p1124
sg59
VJ EXP BOT
p1125
sg61
V63
p1126
sg93
(lp1127
(VSLEWINSKI
VT L
tp1128
asg22
I2012
sg57
V4647
p1129
sbag1
(g2
g3
NtRp1130
(dp1131
g63
V10.1111/j.1469-8137.1994.tb04243.x
p1132
sg59
VNEW PHYTOL
p1133
sg61
V126
p1134
sg93
(lp1135
(VSMART
VC M
tp1136
asg22
I1994
sg57
V419
p1137
sbag1
(g2
g3
NtRp1138
(dp1139
g63
V10.1146/annurev.pp.37.060186.002343
p1140
sg59
VANNU REV PLANT PHYS
p1141
sg61
V37
p1142
sg93
(lp1143
(VSOMERVILLE
VC R
tp1144
asg22
I1986
sg57
V467
p1145
sbag1
(g2
g3
NtRp1146
(dp1147
g63
V10.1023/A:1016043003839
p1148
sg59
VPHOTOSYNTH RES
p1149
sg61
V72
p1150
sg93
(lp1151
(VSTESSMAN
VD
tp1152
asg22
I2002
sg57
VHOTOSYNTH
p1153
sbag1
(g2
g3
NtRp1154
(dp1155
g63
V10.1046/j.1365-3040.2001.00768.x
p1156
sg59
VPLANT CELL ENVIRON
p1157
sg61
V24
p1158
sg93
(lp1159
(VSTEWART
VA J
tp1160
asg22
I2001
sg57
VLANT
p1161
sbag1
(g2
g3
NtRp1162
(dp1163
g63
Nsg59
VMETHOD ENZYMOL
p1164
sg61
V174
p1165
sg93
(lp1166
(VSTITT
VM
tp1167
asg22
I1989
sg57
V518
p1168
sbag1
(g2
g3
NtRp1169
(dp1170
g63
V10.1007/BF00391417
p1171
sg59
VPLANTA
p1172
sg61
V167
p1173
sg93
(lp1174
(VSTRACK
VD
tp1175
asg22
I1986
sg57
VLANTA
p1176
sbag1
(g2
g3
NtRp1177
(dp1178
g63
Nsg59
VBiochemistry of Plants
p1179
sg61
V9
sg93
(lp1180
(VSTYMNE
VS
tp1181
asg22
I1987
sg57
V175
p1182
sbag1
(g2
g3
NtRp1183
(dp1184
g63
V10.1016/j.tplants.2010.05.006
p1185
sg59
VTRENDS PLANT SCI
p1186
sg61
V15
p1187
sg93
(lp1188
(VSWEETLOVE
VL J
tp1189
asg22
I2010
sg57
V462
p1190
sbag1
(g2
g3
NtRp1191
(dp1192
g63
V10.1093/jxb/erm319
p1193
sg59
VJ EXP BOT
p1194
sg61
V59
p1195
sg93
(lp1196
(VSYKOROVA
VB
tp1197
asg22
I2008
sg57
V377
p1198
sbag1
(g2
g3
NtRp1199
(dp1200
g63
V10.1046/j.0960-7412.2001.01227.x
p1201
sg59
VPLANT J
p1202
sg61
V29
p1203
sg93
(lp1204
(VTAJI
VT
tp1205
asg22
I2002
sg57
VLANT
p1206
sbag1
(g2
g3
NtRp1207
(dp1208
g63
V10.1093/jxb/47.12.1845
p1209
sg59
VJ EXP BOT
p1210
sg61
V47
p1211
sg93
(lp1212
(VTHOMAS
VH
tp1213
asg22
I1996
sg57
V1845
p1214
sbag1
(g2
g3
NtRp1215
(dp1216
g63
V10.1016/S0163-7827(98)00006-X
p1217
sg59
VPROG LIPID RES
p1218
sg61
V37
p1219
sg93
(lp1220
(VTHOMPSON
VJ E
tp1221
asg22
I1998
sg57
VROG
p1222
sbag1
(g2
g3
NtRp1223
(dp1224
g63
V10.1111/j.1365-313X.2005.02371.x
p1225
sg59
VPLANT J
p1226
sg61
V42
p1227
sg93
(lp1228
(VTOHGE
VT
tp1229
asg22
I2005
sg57
VLANT
p1230
sbag1
(g2
g3
NtRp1231
(dp1232
g63
V10.1038/nprot.2010.82
p1233
sg59
VNAT PROTOC
p1234
sg61
V5
sg93
(lp1235
(VTOHGE
VT
tp1236
asg22
I2010
sg57
V1210
p1237
sbag1
(g2
g3
NtRp1238
(dp1239
g63
V10.1104/pp.68.3.750
p1240
sg59
VPLANT PHYSIOL
p1241
sg61
V68
p1242
sg93
(lp1243
(VURQUHART
VA A
tp1244
asg22
I1981
sg57
VLANT
p1245
sbag1
(g2
g3
NtRp1246
(dp1247
g63
V[10.1093/jxb/ern076, 10.1093/jxb/em076]
p1248
sg59
VJ EXP BOT
p1249
sg61
V59
p1250
sg93
(lp1251
(VVAN
VDOORN W G
tp1252
asg22
I2008
sg57
V1963
p1253
sbag1
(g2
g3
NtRp1254
(dp1255
g63
V10.1104/pp.103.033084
p1256
sg59
VPLANT PHYSIOL
p1257
sg61
V134
p1258
sg93
(lp1259
(VVAN
VDOORN W G
tp1260
asg22
I2004
sg57
VLANT
p1261
sbag1
(g2
g3
NtRp1262
(dp1263
g63
V10.1111/j.1365-313X.2008.03541.x
p1264
sg59
VPLANT J
p1265
sg61
V55
p1266
sg93
(lp1267
(VVEYRES
VN
tp1268
asg22
I2008
sg57
VLANT
p1269
sbag1
(g2
g3
NtRp1270
(dp1271
g63
V10.1111/j.1365-313X.2008.03722.x
p1272
sg59
VPLANT J
p1273
sg61
V57
p1274
sg93
(lp1275
(VWAGSTAFF
VC
tp1276
asg22
I2009
sg57
VLANT
p1277
sbag1
(g2
g3
NtRp1278
(dp1279
g63
V10.1016/0168-9452(91)90199-I
p1280
sg59
VPLANT SCI
p1281
sg61
V78
p1282
sg93
(lp1283
(VWANNER
VL
tp1284
asg22
I1991
sg57
VLANT
p1285
sbag1
(g2
g3
NtRp1286
(dp1287
g63
V10.1093/mp/ssq009
p1288
sg59
VMOL PLANT
p1289
sg61
V3
sg93
(lp1290
(VWATANABE
VM
tp1291
asg22
I2010
sg57
V438
p1292
sbag1
(g2
g3
NtRp1293
(dp1294
g63
V10.1023/A:1005934428906
p1295
sg59
VPLANT MOL BIOL
p1296
sg61
V37
p1297
sg93
(lp1298
(VWEAVER
VL M
tp1299
asg22
I1998
sg57
VLANT
p1300
sbag1
(g2
g3
NtRp1301
(dp1302
g63
V10.1093/jxb/erp067
p1303
sg59
VJ EXP BOT
p1304
sg61
V60
p1305
sg93
(lp1306
(VWINGLER
VA
tp1307
asg22
I2009
sg57
V1063
p1308
sbag1
(g2
g3
NtRp1309
(dp1310
g63
V10.1093/jxb/eri279
p1311
sg59
VJ EXP BOT
p1312
sg61
V57
p1313
sg93
(lp1314
(VWINGLER
VA
tp1315
asg22
I2006
sg57
V391
p1316
sbag1
(g2
g3
NtRp1317
(dp1318
g63
V10.1093/jexbot/50.334.719
p1319
sg59
VJ EXP BOT
p1320
sg61
V50
p1321
sg93
(lp1322
(VWINGLER
VA
tp1323
asg22
I1999
sg57
V719
p1324
sbag1
(g2
g3
NtRp1325
(dp1326
g63
V10.1104/pp.111.191908
p1327
sg59
VPLANT PHYSIOL
p1328
sg61
V158
p1329
sg93
(lp1330
(VWINGLER
VA
tp1331
asg22
I2012
sg57
VLANT
p1332
sbag1
(g2
g3
NtRp1333
(dp1334
g63
V10.1098/rstb.2000.0712
p1335
sg59
VPHILOS T R SOC B
p1336
sg61
V355
p1337
sg93
(lp1338
(VWINGLER
VA
tp1339
asg22
I2000
sg57
VHILOS
p1340
sbag1
(g2
g3
NtRp1341
(dp1342
g63
V10.1016/S1360-1385(02)02273-2
p1343
sg59
VTRENDS PLANT SCI
p1344
sg61
V7
sg93
(lp1345
(VWITTSTOCK
VU
tp1346
asg22
I2002
sg57
V263
p1347
sbag1
(g2
g3
NtRp1348
(dp1349
g63
V10.1105/tpc.111.090894
p1350
sg59
VPLANT CELL
p1351
sg61
V24
p1352
sg93
(lp1353
(VWU
VA H
tp1354
asg22
I2012
sg57
VLANT
p1355
sbag1
(g2
g3
NtRp1356
(dp1357
g63
Nsg59
VJ JPN SOC HORTIC SCI
p1358
sg61
V55
p1359
sg93
(lp1360
(VYAMAUCHI
VN
tp1361
asg22
I1986
sg57
V355
p1362
sbag1
(g2
g3
NtRp1363
(dp1364
g63
V10.1104/pp.109.140491
p1365
sg59
VPLANT PHYSIOL
p1366
sg61
V150
p1367
sg93
(lp1368
(VYANG
VZ L
tp1369
asg22
I2009
sg57
VLANT
p1370
sbag1
(g2
g3
NtRp1371
(dp1372
g63
V10.1016/S1369526602000092
p1373
sg59
VCURR OPIN PLANT BIOL
p1374
sg61
V6
sg93
(lp1375
(VYOSHIDA
VS
tp1376
asg22
I2003
sg57
V79
p1377
sbag1
(g2
g3
NtRp1378
(dp1379
g63
V10.1007/s10725-009-9373-0
p1380
sg59
VPLANT GROWTH REGUL
p1381
sg61
V58
p1382
sg93
(lp1383
(VZHENG
VY J
tp1384
asg22
I2009
sg57
VLANT
p1385
sbasb.