ccopy_reg
_reconstructor
p1
(ctethne.classes.paper
Paper
p2
c__builtin__
object
p3
NtRp4
(dp5
S'publisherCity'
p6
VROCKVILLE
p7
sS'reprintAddress'
p8
VWeigel, D (reprint author), Max Planck Inst Dev Biol, Dept Mol Biol, D-72076 Tubingen, Germany.
p9
sS'WC'
p10
VPlant Sciences
p11
sS'GA'
p12
V081ZA
p13
sS'FX'
p14
(lp15
VThis work was supported by Human Frontier Science Program Long-Term
p16
aVFellowships (to P. A. M., D. K.), an European Molecular Biology
p17
aVOrganization Long-Term Fellowship (to I. R.-S.), the European Community
p18
aVFP7 Collaborative Project AENEAS (contract no. KBBE-2009-226477), and
p19
aVthe Max Planck Society (to D.W.).
p20
asS'abstract'
p21
VMicroRNAs (miRNAs) are produced from double-stranded precursors, from which a short duplex is excised. The strand of the duplex that remains more abundant is usually the active form, the miRNA, while steady-state levels of the other strand, the miRNA(star), are generally lower. The executive engines of miRNA-directed gene silencing are RNA-induced silencing complexes (RISCs). During RISC maturation, the miRNA/miRNA(star) duplex associates with the catalytic subunit, an ARGONAUTE (AGO) protein. Subsequently, the guide strand, which directs gene silencing, is retained, while the passenger strand is degraded. Under certain circumstances, the miRNA(star)s can be retained as guide strands. miR170 and miR171 are prototypical miRNAs in Arabidopsis (Arabidopsis thaliana) with well-defined targets. We found that the corresponding star molecules, the sequence-identical miR170(star) and miR171a(star), have several features of active miRNAs, such as sequence conservation and AGO1 association. We confirmed that active AGO1-miR171a(star) complexes are common in Arabidopsis and that they trigger silencing of SU(VAR)3-9 HOMOLOG8, a new miR171a(star) target that was acquired very recently in the Arabidopsis lineage. Our study demonstrates that each miR171a strand can be loaded onto RISC with separate regulatory outcomes.
p22
sS'pageEnd'
p23
I812
sS'date'
p24
I2013
sS'documentType'
p25
VArticle
p26
sS'subject'
p27
VPlant Sciences
p28
sS'isoSource'
p29
VPlant Physiol.
p30
sS'timesCited'
p31
(lp32
I2
aVZ9 2
p33
asS'funding'
p34
(lp35
(VHuman Frontier Science Program Long-Term Fellowships
Ntp36
a(VEuropean Molecular Biology Organization Long-Term Fellowship
Ntp37
a(VEuropean Community FP7 Collaborative Project AENEAS
VKBBE-2009-226477
tp38
a(VMax Planck Society
Ntp39
asS'PT'
p40
VJ
sS'title'
p41
VTissue-Specific Silencing Of Arabidopsis Su(Var)3-9 Homolog8 By Mir171A
p42
sS'ISSN'
p43
(lp44
V0032-0889
p45
aVJ9 PLANT PHYSIOL
p46
asS'authors_full'
p47
(lp48
(VMANAVELLA
VPABLO A
tp49
a(VKOENIG
VDANIEL
tp50
a(VRUBIOSOMOZA
VIGNACIO
tp51
a(VBURBANO
VHERNAN A
tp52
a(VBECKER
VCLAUDE
tp53
a(VWEIGEL
VDETLEF
tp54
asS'PG'
p55
I8
sS'PD'
p56
VFEB
p57
sS'pageStart'
p58
I805
sS'issue'
p59
I2
sS'RI'
p60
VWeigel, Detlef/C-1418-2008
p61
sS'journal'
p62
VPLANT PHYSIOLOGY
p63
sS'volume'
p64
V161
p65
sS'doi'
p66
V10.1104/pp.112.207068
p67
sS'emailAddress'
p68
Vweigel@weigelworld.org
p69
sS'authorAddress'
p70
V[Manavella, Pablo A.; Koenig, Daniel; Rubio-Somoza, Ignacio; Burbano, Hernan A.; Becker, Claude; Weigel, Detlef] Max Planck Inst Dev Biol, Dept Mol Biol, D-72076 Tubingen, Germany.
p71
sS'publisherAddress'
p72
V15501 MONONA DRIVE, ROCKVILLE, MD 20855 USA
p73
sS'ER'
p74
V
sS'publisher'
p75
VAMER SOC PLANT BIOLOGISTS
p76
sS'authorKeywords'
p77
(lp78
VSMALL RNAS
p79
aVMICRORNAS
p80
aVGENE
p81
aVTHALIANA
p82
aVTARGETS
p83
aVTRANSFORMATION
p84
aVFUNCTIONALITY
p85
aVMETHYLATION
p86
aVBIOGENESIS
p87
aVPROTEINS
p88
asS'OI'
p89
VWeigel, Detlef/0000-0002-2114-7963
p90
sS'language'
p91
VEnglish
p92
sS'wosid'
p93
VWOS:000314360100017
p94
sS'citationCount'
p95
I40
sS'authors_init'
p96
(lp97
(VMANAVELLA
VP A
tp98
a(VKOENIG
VD
tp99
a(VRUBIOSOMOZA
VI
tp100
a(VBURBANO
VH A
tp101
a(VBECKER
VC
tp102
a(VWEIGEL
VD
tp103
asS'citedReferences'
p104
(lp105
g1
(g2
g3
NtRp106
(dp107
g66
V10.1093/nar/29.21.4319
p108
sg62
VNUCLEIC ACIDS RES
p109
sg64
V29
p110
sg96
(lp111
(VBAUMBUSCH
VL O
tp112
asg24
I2001
sg58
V4319
p113
sbag1
(g2
g3
NtRp114
(dp115
g66
Nsg62
VDEVELOPMENT
p116
sg64
V124
p117
sg96
(lp118
(VBLAZQUEZ
VM A
tp119
asg24
I1997
sg58
V3835
p120
sbag1
(g2
g3
NtRp121
(dp122
g66
V10.1126/science.1159151
p123
sg62
VSCIENCE
p124
sg64
V320
p125
sg96
(lp126
(VBRODERSEN
VP
tp127
asg24
I2008
sg58
V1185
p128
sbag1
(g2
g3
NtRp129
(dp130
g66
V10.1038/ng.911
p131
sg62
VNAT GENET
p132
sg64
V43
p133
sg96
(lp134
(VCAO
VJ
tp135
asg24
I2011
sg58
V956
p136
sbag1
(g2
g3
NtRp137
(dp138
g66
V10.1126/science.1088060
p139
sg62
VSCIENCE
p140
sg64
V303
p141
sg96
(lp142
(VCHEN
VX M
tp143
asg24
I2004
sg58
V2022
p144
sbag1
(g2
g3
NtRp145
(dp146
g66
V10.1046/j.1365-313x.1998.00343.x
p147
sg62
VPLANT J
p148
sg64
V16
p149
sg96
(lp150
(VCLOUGH
VS J
tp151
asg24
I1998
sg58
VLANT
p152
sbag1
(g2
g3
NtRp153
(dp154
g66
V10.1101/gr.849004
p155
sg62
VGENOME RES
p156
sg64
V14
p157
sg96
(lp158
(VCROOKS
VG E
tp159
asg24
I2004
sg58
V1188
p160
sbag1
(g2
g3
NtRp161
(dp162
g66
V10.1038/nsmb.1866
p163
sg62
VNAT STRUCT MOL BIOL
p164
sg64
V17
p165
sg96
(lp166
(VCUPERUS
VJ T
tp167
asg24
I2010
sg58
V997
p168
sbag1
(g2
g3
NtRp169
(dp170
g66
V10.1016/j.molcel.2009.09.028
p171
sg62
VMOL CELL
p172
sg64
V36
p173
sg96
(lp174
(VCZECH
VB
tp175
asg24
I2009
sg58
V445
p176
sbag1
(g2
g3
NtRp177
(dp178
g66
V10.1104/pp.111.172627
p179
sg62
VPLANT PHYSIOL
p180
sg64
V156
p181
sg96
(lp182
(VDEVERS
VE A
tp183
asg24
I2011
sg58
VLANT
p184
sbag1
(g2
g3
NtRp185
(dp186
g66
V10.1105/tpc.106.041400
p187
sg62
VPLANT CELL
p188
sg64
V18
p189
sg96
(lp190
(VEBBS
VM L
tp191
asg24
I2006
sg58
VLANT
p192
sbag1
(g2
g3
NtRp193
(dp194
g66
V10.1016/j.jplph.2005.10.015
p195
sg62
VJ PLANT PHYSIOL
p196
sg64
V163
p197
sg96
(lp198
(VFISCHER
VA
tp199
asg24
I2006
sg58
V358
p200
sbag1
(g2
g3
NtRp201
(dp202
g66
V10.1038/ng2079
p203
sg62
VNAT GENET
p204
sg64
V39
p205
sg96
(lp206
(VFRANCO-ZORRILLA
VJ M
tp207
asg24
I2007
sg58
V1033
p208
sbag1
(g2
g3
NtRp209
(dp210
g66
V10.1093/nar/gkq313
p211
sg62
VNUCLEIC ACIDS RES
p212
sg64
V38
p213
sg96
(lp214
(VGOUJON
VM
tp215
asg24
I2010
sg58
VW695
p216
sbag1
(g2
g3
NtRp217
(dp218
g66
V10.1093/nar/gkj112
p219
sg62
VNUCLEIC ACIDS RES
p220
sg64
V34
p221
sg96
(lp222
(VGRIFFITHS-JONES
VS
tp223
asg24
I2006
sg58
VD140
p224
sbag1
(g2
g3
NtRp225
(dp226
g66
V10.1023/A:1006496308160
p227
sg62
VPLANT MOL BIOL
p228
sg64
V42
p229
sg96
(lp230
(VHELLENS
VR P
tp231
asg24
I2000
sg58
VLANT
p232
sbag1
(g2
g3
NtRp233
(dp234
g66
V10.1093/molbev/msj030
p235
sg62
VMOL BIOL EVOL
p236
sg64
V23
p237
sg96
(lp238
(VHUSON
VD H
tp239
asg24
I2006
sg58
V254
p240
sbag1
(g2
g3
NtRp241
(dp242
g66
V10.1371/journal.ppat.1002035
p243
sg62
VPLOS PATHOG
p244
sg64
V7
sg96
(lp245
(VJAY
VF
tp246
asg24
I2011
sg58
VLOS
p247
sbag1
(g2
g3
NtRp248
(dp249
g66
V10.1073/pnas.0812591106
p250
sg62
VP NATL ACAD SCI USA
p251
sg64
V106
p252
sg96
(lp253
(VJAZDZEWSKI
VK
tp254
asg24
I2009
sg58
V1502
p255
sbag1
(g2
g3
NtRp256
(dp257
g66
V10.1093/bioinformatics/btm404
p258
sg62
VBIOINFORMATICS
p259
sg64
V23
p260
sg96
(lp261
(VLARKIN
VM A
tp262
asg24
I2007
sg58
V2947
p263
sbag1
(g2
g3
NtRp264
(dp265
g66
V10.1093/nar/gkr201
p266
sg62
VNUCLEIC ACIDS RES
p267
sg64
V39
p268
sg96
(lp269
(VLETUNIC
VI
tp270
asg24
I2011
sg58
VW475
p271
sbag1
(g2
g3
NtRp272
(dp273
g66
V10.1126/science.1076311
p274
sg62
VSCIENCE
p275
sg64
V297
p276
sg96
(lp277
(VLLAVE
VC
tp278
asg24
I2002
sg58
V2053
p279
sbag1
(g2
g3
NtRp280
(dp281
g66
V10.1111/j.1365-313X.2006.02865.x
p282
sg62
VPLANT J
p283
sg64
V48
p284
sg96
(lp285
(VMANAVELLA
VP A
tp286
asg24
I2006
sg58
VLANT
p287
sbag1
(g2
g3
NtRp288
(dp289
g66
V10.1073/pnas.1200169109
p290
sg62
VP NATL ACAD SCI USA
p291
sg64
V109
p292
sg96
(lp293
(VMANAVELLA
VP A
tp294
asg24
I2012
sg58
V2461
p295
sbag1
(g2
g3
NtRp296
(dp297
g66
V10.1016/j.cell.2008.02.034
p298
sg62
VCELL
p299
sg64
V133
p300
sg96
(lp301
(VMI
VS J
tp302
asg24
I2008
sg58
V116
p303
sbag1
(g2
g3
NtRp304
(dp305
g66
V10.1016/j.cell.2008.02.033
p306
sg62
VCELL
p307
sg64
V133
p308
sg96
(lp309
(VMONTGOMERY
VT A
tp310
asg24
I2008
sg58
V128
p311
sbag1
(g2
g3
NtRp312
(dp313
g66
V10.1271/bbb.70216
p314
sg62
VBIOSCI BIOTECH BIOCH
p315
sg64
V71
p316
sg96
(lp317
(VNAKAGAWA
VT
tp318
asg24
I2007
sg58
V2095
p319
sbag1
(g2
g3
NtRp320
(dp321
g66
V10.1038/sj.emboj.7600604
p322
sg62
VEMBO J
p323
sg64
V24
p324
sg96
(lp325
(VNAUMANN
VK
tp326
asg24
I2005
sg58
V1418
p327
sbag1
(g2
g3
NtRp328
(dp329
g66
V10.1038/nsmb.1409
p330
sg62
VNAT STRUCT MOL BIOL
p331
sg64
V15
p332
sg96
(lp333
(VOKAMURA
VK
tp334
asg24
I2008
sg58
V354
p335
sbag1
(g2
g3
NtRp336
(dp337
g66
V10.1111/j.1365-313X.2007.03328.x
p338
sg62
VPLANT J
p339
sg64
V53
p340
sg96
(lp341
(VOSSOWSKI
VS
tp342
asg24
I2008
sg58
VLANT
p343
sbag1
(g2
g3
NtRp344
(dp345
g66
V10.1038/nature01958
p346
sg62
VNATURE
p347
sg64
V425
p348
sg96
(lp349
(VPALATNIK
VJ F
tp350
asg24
I2003
sg58
V257
p351
sbag1
(g2
g3
NtRp352
(dp353
g66
V10.1104/pp.109.139139
p354
sg62
VPLANT PHYSIOL
p355
sg64
V150
p356
sg96
(lp357
(VPANT
VB D
tp358
asg24
I2009
sg58
VLANT
p359
sbag1
(g2
g3
NtRp360
(dp361
g66
V10.1016/j.devcel.2005.01.018
p362
sg62
VDEV CELL
p363
sg64
V8
sg96
(lp364
(VSCHWAB
VR
tp365
asg24
I2005
sg58
V517
p366
sbag1
(g2
g3
NtRp367
(dp368
g66
V10.1016/j.cub.2009.10.076
p369
sg62
VCURR BIOL
p370
sg64
V20
p371
sg96
(lp372
(VSONG
VL
tp373
asg24
I2010
sg58
V37
p374
sbag1
(g2
g3
NtRp375
(dp376
g66
V10.1371/journal.pgen.1001031
p377
sg62
VPLOS GENET
p378
sg64
V6
sg96
(lp379
(VTODESCO
VM
tp380
asg24
I2010
sg58
VLOS
p381
sbag1
(g2
g3
NtRp382
(dp383
g66
V10.1093/nar/gkr1161
p384
sg62
VNUCLEIC ACIDS RES
p385
sg64
V40
p386
sg96
(lp387
(VVERGOULIS
VT
tp388
asg24
I2012
sg58
VD222
p389
sbag1
(g2
g3
NtRp390
(dp391
g66
V10.1016/j.cell.2009.01.046
p392
sg62
VCELL
p393
sg64
V136
p394
sg96
(lp395
(VVOINNET
VO
tp396
asg24
I2009
sg58
V669
p397
sbag1
(g2
g3
NtRp398
(dp399
g66
V10.1111/j.1365-313X.2011.04594.x
p400
sg62
VPLANT J
p401
sg64
V67
p402
sg96
(lp403
(VWANG
VH
tp404
asg24
I2011
sg58
VLANT
p405
sbag1
(g2
g3
NtRp406
(dp407
g66
V10.1016/j.molcel.2011.04.010
p408
sg62
VMOL CELL
p409
sg64
V42
p410
sg96
(lp411
(VZHANG
VX M
tp412
asg24
I2011
sg58
V356
p413
sbag1
(g2
g3
NtRp414
(dp415
g66
V10.1016/j.cell.2011.03.024
p416
sg62
VCELL
p417
sg64
V145
p418
sg96
(lp419
(VZHU
VH L
tp420
asg24
I2011
sg58
V242
p421
sbasb.