ccopy_reg
_reconstructor
p1
(ctethne.classes.paper
Paper
p2
c__builtin__
object
p3
NtRp4
(dp5
S'publisherCity'
p6
VROCKVILLE
p7
sS'reprintAddress'
p8
VSmirnova, A (reprint author), Univ Wurzburg, Julius von Sachs Inst Biowissensch, D-97082 Wurzburg, Germany.
p9
sS'WC'
p10
VPlant Sciences
p11
sS'GA'
p12
V062ZP
p13
sS'FX'
p14
(lp15
VThis work was supported by the Deutsche Forschungsgemeinschaft
p16
aV(Sonderforschungsbereich 567).
p17
asS'abstract'
p18
VPreviously, it was shown that beta-ketoacyl-coenzyme A synthase ECERIFERUM6 (CER6) is necessary for the biosynthesis of very-long-chain fatty acids with chain lengths beyond C-28 in tomato (Solanum lycopersicum) fruits and C-26 in Arabidopsis (Arabidopsis thaliana) leaves and the pollen coat. CER6 loss of function in Arabidopsis resulted in conditional male sterility, since pollen coat lipids are responsible for contact-mediated pollen hydration. In tomato, on the contrary, pollen hydration does not rely on pollen coat lipids. Nevertheless, mutation in SlCER6 impairs fertility and floral morphology. Here, the contribution of SlCER6 to the sexual reproduction and flower development of tomato was addressed. Cytological analysis and cross-pollination experiments revealed that the slcer6 mutant has male sterility caused by (1) hampered pollen dispersal and (2) abnormal tapetum development. SlCER6 loss of function provokes a decrease of n- and iso-alkanes with chain lengths of C-27 or greater and of anteiso-alkanes with chain lengths of C-28 or greater in flower cuticular waxes, but it has no impact on flower cuticle ultrastructure and cutin content. Expression analysis confirmed high transcription levels of SlCER6 in the anther and the petal, preferentially in sites subject to epidermal fusion. Hence, wax deficiency was proposed to be the primary reason for the flower fusion phenomenon in tomato. The SlCER6 substrate specificity was revisited. It might be involved in elongation of not only linear but also branched very-long-chain fatty acids, leading to production of the corresponding alkanes. SlCER6 implements a function in the sexual reproduction of tomato that is different from the one in Arabidopsis: SlCER6 is essential for the regulation of timely tapetum degradation and, consequently, microgametogenesis.
p19
sS'pageEnd'
p20
I209
sS'date'
p21
I2013
sS'documentType'
p22
VArticle
p23
sS'subject'
p24
VPlant Sciences
p25
sS'isoSource'
p26
VPlant Physiol.
p27
sS'timesCited'
p28
(lp29
I1
aVZ9 1
p30
asS'funding'
p31
(lp32
(VDeutsche Forschungsgemeinschaft
VSonderforschungsbereich 567
tp33
asS'PT'
p34
VJ
sS'title'
p35
VDeficiency In A Very-Long-Chain Fatty Acid Beta-Ketoacyl-Coenzyme A Synthase Of Tomato Impairs Microgametogenesis And Causes Floral Organ Fusion
p36
sS'ISSN'
p37
(lp38
V0032-0889
p39
aVJ9 PLANT PHYSIOL
p40
asS'authors_full'
p41
(lp42
(VSMIRNOVA
VANNA
tp43
a(VLEIDE
VJANA
tp44
a(VRIEDERER
VMARKUS
tp45
asS'PG'
p46
I14
sS'PD'
p47
VJAN
p48
sS'pageStart'
p49
I196
sS'issue'
p50
I1
sS'RI'
p51
VRiederer, Markus/B-5540-2008
p52
sS'journal'
p53
VPLANT PHYSIOLOGY
p54
sS'volume'
p55
V161
p56
sS'doi'
p57
V10.1104/pp.112.206656
p58
sS'emailAddress'
p59
Vanna.smirnova@uni-wuerzburg.de
p60
sS'authorAddress'
p61
V[Smirnova, Anna; Leide, Jana; Riederer, Markus] Univ Wurzburg, Julius von Sachs Inst Biowissensch, D-97082 Wurzburg, Germany.
p62
sS'publisherAddress'
p63
V15501 MONONA DRIVE, ROCKVILLE, MD 20855 USA
p64
sS'ER'
p65
V
sS'publisher'
p66
VAMER SOC PLANT BIOLOGISTS
p67
sS'authorKeywords'
p68
(lp69
VTRANSPIRATION BARRIER PROPERTIES
p70
aVEPIDERMAL-CELL INTERACTIONS
p71
aVARABIDOPSIS-THALIANA
p72
aVWAX BIOSYNTHESIS
p73
aVPOLLEN DEVELOPMENT
p74
aVCONDENSING ENZYME
p75
aVANTHER DEHISCENCE
p76
aVCUTICULAR WAXES
p77
aVLYCOPERSICON-ESCULENTUM
p78
aVALKANE BIOSYNTHESIS
p79
asS'OI'
p80
VRiederer, Markus/0000-0001-7081-1456
p81
sS'language'
p82
VEnglish
p83
sS'wosid'
p84
VWOS:000312964000017
p85
sS'citationCount'
p86
I66
sS'authors_init'
p87
(lp88
(VSMIRNOVA
VA
tp89
a(VLEIDE
VJ
tp90
a(VRIEDERER
VM
tp91
asS'citedReferences'
p92
(lp93
g1
(g2
g3
NtRp94
(dp95
g57
Nsg53
VPLANT CELL
p96
sg55
V7
sg87
(lp97
(VAARTS
VM G M
tp98
asg21
I1995
sg49
VLANT
p99
sbag1
(g2
g3
NtRp100
(dp101
g57
V10.1105/tpc.104.022897
p102
sg53
VPLANT CELL
p103
sg55
V16
p104
sg87
(lp105
(VAHARONI
VA
tp106
asg21
I2004
sg49
VLANT
p107
sbag1
(g2
g3
NtRp108
(dp109
g57
V10.1023/B:PLAN.0000009269.97773.70
p110
sg53
VPLANT MOL BIOL
p111
sg55
V53
p112
sg87
(lp113
(VARIIZUMI
VT
tp114
asg21
I2003
sg49
VLANT
p115
sbag1
(g2
g3
NtRp116
(dp117
g57
V10.1146/annurev-arplant-042809-112312
p118
sg53
VANNU REV PLANT BIOL
p119
sg55
V62
p120
sg87
(lp121
(VARIIZUMI
VT
tp122
asg21
I2011
sg49
V437
p123
sbag1
(g2
g3
NtRp124
(dp125
g57
V10.1105/tpc.112.099796
p126
sg53
VPLANT CELL
p127
sg55
V24
p128
sg87
(lp129
(VBERNARD
VA
tp130
asg21
I2012
sg49
VLANT
p131
sbag1
(g2
g3
NtRp132
(dp133
g57
V10.1111/j.1365-313X.2004.02258.x
p134
sg53
VPLANT J
p135
sg55
V40
p136
sg87
(lp137
(VBONAVENTURE
VG
tp138
asg21
I2004
sg49
VLANT
p139
sbag1
(g2
g3
NtRp140
(dp141
g57
V10.1111/j.1469-8137.1989.tb02399.x
p142
sg53
VNEW PHYTOL
p143
sg55
V113
p144
sg87
(lp145
(VBONNER
VL J
tp146
asg21
I1989
sg49
V97
p147
sbag1
(g2
g3
NtRp148
(dp149
g57
V10.1104/pp.111.172320
p150
sg53
VPLANT PHYSIOL
p151
sg55
V156
p152
sg87
(lp153
(VBOURDENX
VB
tp154
asg21
I2011
sg49
VLANT
p155
sbag1
(g2
g3
NtRp156
(dp157
g57
V10.1105/tpc.010926
p158
sg53
VPLANT CELL
p159
sg55
V15
p160
sg87
(lp161
(VCHEN
VX B
tp162
asg21
I2003
sg49
VLANT
p163
sbag1
(g2
g3
NtRp164
(dp165
g57
V10.1046/j.1469-8137.1999.00507.x
p166
sg53
VNEW PHYTOL
p167
sg55
V144
p168
sg87
(lp169
(VDAWSON
VJ
tp170
asg21
I1999
sg49
V213
p171
sbag1
(g2
g3
NtRp172
(dp173
g57
Nsg53
VNEW PHYTOL
p174
sg55
V189
p175
sg87
(lp176
(VDOMINGUEZ
VE
tp177
asg21
I2011
sg49
V938
p178
sbag1
(g2
g3
NtRp179
(dp180
g57
V10.1007/s11103-004-5576-y
p181
sg53
VPLANT MOL BIOL
p182
sg55
V56
p183
sg87
(lp184
(VEFREMOVA
VN
tp185
asg21
I2004
sg49
VLANT
p186
sbag1
(g2
g3
NtRp187
(dp188
g57
V10.1105/tpc.12.10.2001
p189
sg53
VPLANT CELL
p190
sg55
V12
p191
sg87
(lp192
(VFIEBIG
VA
tp193
asg21
I2000
sg49
VLANT
p194
sbag1
(g2
g3
NtRp195
(dp196
g57
V10.1016/j.phytochem.2008.08.024
p197
sg53
VPHYTOCHEMISTRY
p198
sg55
V69
p199
sg87
(lp200
(VGRICE
VK
tp201
asg21
I2008
sg49
VHYTOCHEMISTRY
p202
sbag1
(g2
g3
NtRp203
(dp204
g57
V10.1556/AChrom.21.2009.1.11
p205
sg53
VACTA CHROMATOGR
p206
sg55
V21
p207
sg87
(lp208
(VHALINSKI
VL P
tp209
asg21
I2009
sg49
V127
p210
sbag1
(g2
g3
NtRp211
(dp212
g57
Nsg53
VANN ROT
p213
sg55
V41
p214
sg87
(lp215
(VHESLOP-HARRISON
VJ
tp216
asg21
I1977
sg49
V1233
p217
sbag1
(g2
g3
NtRp218
(dp219
g57
Nsg53
VPOLLEN TERMINOLOGY
p220
sg55
Nsg87
(lp221
(VHESSE
VM
tp222
asg21
I2009
sg49
VOLLEN
p223
sbag1
(g2
g3
NtRp224
(dp225
g57
V10.1104/pp.003707
p226
sg53
VPLANT PHYSIOL
p227
sg55
V129
p228
sg87
(lp229
(VHOOKER
VT S
tp230
asg21
I2002
sg49
VLANT
p231
sbag1
(g2
g3
NtRp232
(dp233
g57
V10.1046/j.1365-313X.1995.08050703.x
p234
sg53
VPLANT J
p235
sg55
V8
sg87
(lp236
(VHULSKAMP
VM
tp237
asg21
I1995
sg49
VLANT
p238
sbag1
(g2
g3
NtRp239
(dp240
g57
V10.1111/j.1469-8137.2010.03514.x
p241
sg53
VNEW PHYTOL
p242
sg55
V189
p243
sg87
(lp244
(VJAVELLE
VM
tp245
asg21
I2011
sg49
V17
p246
sbag1
(g2
g3
NtRp247
(dp248
g57
Nsg53
VPLANT PHYSIOL
p249
sg55
V108
p250
sg87
(lp251
(VJENKS
VM A
tp252
asg21
I1995
sg49
VLANT
p253
sbag1
(g2
g3
NtRp254
(dp255
g57
Nsg53
VPLANT PHYSIOL
p256
sg55
V110
p257
sg87
(lp258
(VJENKS
VM A
tp259
asg21
I1996
sg49
VLANT
p260
sbag1
(g2
g3
NtRp261
(dp262
g57
V10.1111/j.1365-313X.2011.04722.x
p263
sg53
VPLANT J
p264
sg55
V68
p265
sg87
(lp266
(VJESSEN
VD
tp267
asg21
I2011
sg49
VLANT
p268
sbag1
(g2
g3
NtRp269
(dp270
g57
V10.1111/j.1365-313X.2004.02147.x
p271
sg53
VPLANT J
p272
sg55
V39
p273
sg87
(lp274
(VJOHNSON-BROUSSEAU
VS A
tp275
asg21
I2004
sg49
VLANT
p276
sbag1
(g2
g3
NtRp277
(dp278
g57
V10.1007/s11103-008-9339-z
p279
sg53
VPLANT MOL BIOL
p280
sg55
V67
p281
sg87
(lp282
(VJOUBES
VJ
tp283
asg21
I2008
sg49
VLANT
p284
sbag1
(g2
g3
NtRp285
(dp286
g57
V10.1105/tpc.106.042044
p287
sg53
VPLANT CELL
p288
sg55
V18
p289
sg87
(lp290
(VJUNG
VK H
tp291
asg21
I2006
sg49
VLANT
p292
sbag1
(g2
g3
NtRp293
(dp294
g57
V10.1146/annurev.pp.21.060170.001115
p295
sg53
VANN REV PLANT PHYSIO
p296
sg55
V21
p297
sg87
(lp298
(VKOLATTUKPE
S''
tp299
asg21
I1970
sg49
V163
p300
sbag1
(g2
g3
NtRp301
(dp302
g57
V10.1093/jxb/eri018
p303
sg53
VJ EXP BOT
p304
sg55
V56
p305
sg87
(lp306
(VKOONJUL
VP K
tp307
asg21
I2005
sg49
V179
p308
sbag1
(g2
g3
NtRp309
(dp310
g57
Nsg53
VANNU PLANT REV
p311
sg55
V23
p312
sg87
(lp313
(VKUNST
VL
tp314
asg21
I2006
sg49
V182
p315
sbag1
(g2
g3
NtRp316
(dp317
g57
V10.1007/s00425-005-0215-7
p318
sg53
VPLANTA
p319
sg55
V224
p320
sg87
(lp321
(VKURDYUKOV
VS
tp322
asg21
I2006
sg49
VLANTA
p323
sbag1
(g2
g3
NtRp324
(dp325
g57
V10.1105/tpc.105.036079
p326
sg53
VPLANT CELL
p327
sg55
V18
p328
sg87
(lp329
(VKURDYUKOV
VS
tp330
asg21
I2006
sg49
VLANT
p331
sbag1
(g2
g3
NtRp332
(dp333
g57
V10.1023/A:1005882118506
p334
sg53
VPLANT MOL BIOL
p335
sg55
V34
p336
sg87
(lp337
(VLALONDE
VS
tp338
asg21
I1997
sg49
VLANT
p339
sbag1
(g2
g3
NtRp340
(dp341
g57
Nsg53
VP AM SOC HORTIC SCI
p342
sg55
V52
p343
sg87
(lp344
(VLARSON
VR E
tp345
asg21
I1948
sg49
V355
p346
sbag1
(g2
g3
NtRp347
(dp348
g57
V10.1111/j.1365-313X.2009.03973.x
p349
sg53
VPLANT J
p350
sg55
V60
p351
sg87
(lp352
(VLEE
VS B
tp353
asg21
I2009
sg49
VLANT
p354
sbag1
(g2
g3
NtRp355
(dp356
g57
V10.1016/j.jplph.2010.11.014
p357
sg53
VJ PLANT PHYSIOL
p358
sg55
V168
p359
sg87
(lp360
(VLEIDE
VJ
tp361
asg21
I2011
sg49
V871
p362
sbag1
(g2
g3
NtRp363
(dp364
g57
V10.1111/j.1469-8137.2011.04047.x
p365
sg53
VNEW PHYTOL
p366
sg55
V194
p367
sg87
(lp368
(VLEIDE
VJ
tp369
asg21
I2012
sg49
V402
p370
sbag1
(g2
g3
NtRp371
(dp372
g57
V10.1104/pp.107.099481
p373
sg53
VPLANT PHYSIOL
p374
sg55
V144
p375
sg87
(lp376
(VLEIDE
VJ
tp377
asg21
I2007
sg49
VLANT
p378
sbag1
(g2
g3
NtRp379
(dp380
g57
Nsg53
VCURRENT PROTOCOLS FO
p381
sg55
Nsg87
(lp382
(VLICHTENTHALER
VH K
tp383
asg21
I2001
sg49
VF431
p384
sbag1
(g2
g3
NtRp385
(dp386
g57
V10.1016/S1360-1385(98)01353-3
p387
sg53
VTRENDS PLANT SCI
p388
sg55
V4
sg87
(lp389
(VLOLLE
VS J
tp390
asg21
I1999
sg49
V14
p391
sbag1
(g2
g3
NtRp392
(dp393
g57
V10.1016/0012-1606(92)90145-7
p394
sg53
VDEV BIOL
p395
sg55
V152
p396
sg87
(lp397
(VLOLLE
VS J
tp398
asg21
I1992
sg49
V383
p399
sbag1
(g2
g3
NtRp400
(dp401
g57
Nsg53
VGENETICS
p402
sg55
V149
p403
sg87
(lp404
(VLOLLE
VS J
tp405
asg21
I1998
sg49
V607
p406
sbag1
(g2
g3
NtRp407
(dp408
g57
V10.1093/pcp/pcm152
p409
sg53
VPLANT CELL PHYSIOL
p410
sg55
V48
p411
sg87
(lp412
(VLUO
VB
tp413
asg21
I2007
sg49
VLANT
p414
sbag1
(g2
g3
NtRp415
(dp416
g57
V10.1046/j.1365-313X.1997.12010121.x
p417
sg53
VPLANT J
p418
sg55
V12
p419
sg87
(lp420
(VMILLAR
VA A
tp421
asg21
I1997
sg49
VLANT
p422
sbag1
(g2
g3
NtRp423
(dp424
g57
V10.1105/tpc.11.5.825
p425
sg53
VPLANT CELL
p426
sg55
V11
p427
sg87
(lp428
(VMILLAR
VA A
tp429
asg21
I1999
sg49
VLANT
p430
sbag1
(g2
g3
NtRp431
(dp432
g57
V10.1104/pp.108.116004
p433
sg53
VPLANT PHYSIOL
p434
sg55
V147
p435
sg87
(lp436
(VMINTZ-ORON
VS
tp437
asg21
I2008
sg49
VLANT
p438
sbag1
(g2
g3
NtRp439
(dp440
g57
V10.1038/ncb1345
p441
sg53
VNAT CELL BIOL
p442
sg55
V8
sg87
(lp443
(VMORI
VT
tp444
asg21
I2006
sg49
V64
p445
sbag1
(g2
g3
NtRp446
(dp447
g57
Nsg53
VPLANT SCI
p448
sg55
V178
p449
sg87
(lp450
(VPARISH
VW R
tp451
asg21
I2010
sg49
VLANT
p452
sbag1
(g2
g3
NtRp453
(dp454
g57
V10.1007/s004970050122
p455
sg53
VSEX PLANT REPROD
p456
sg55
V11
p457
sg87
(lp458
(VPIFFANELLI
VP
tp459
asg21
I1998
sg49
V65
p460
sbag1
(g2
g3
NtRp461
(dp462
g57
V10.1016/j.tplants.2008.03.003
p463
sg53
VTRENDS PLANT SCI
p464
sg55
V13
p465
sg87
(lp466
(VPOLLARD
VM
tp467
asg21
I2008
sg49
V236
p468
sbag1
(g2
g3
NtRp469
(dp470
g57
V10.1101/gad.7.6.974
p471
sg53
VGENE DEV
p472
sg55
V7
sg87
(lp473
(VPREUSS
VD
tp474
asg21
I1993
sg49
V974
p475
sbag1
(g2
g3
NtRp476
(dp477
g57
V10.1073/pnas.97.3.1311
p478
sg53
VP NATL ACAD SCI USA
p479
sg55
V97
p480
sg87
(lp481
(VPRUITT
VR E
tp482
asg21
I2000
sg49
V1311
p483
sbag1
(g2
g3
NtRp484
(dp485
g57
V10.1105/tpc.109.065565
p486
sg53
VPLANT CELL
p487
sg55
V21
p488
sg87
(lp489
(VREINA-PINTO
VJ J
tp490
asg21
I2009
sg49
VLANT
p491
sbag1
(g2
g3
NtRp492
(dp493
g57
Nsg53
VANNU PLANT REV
p494
sg55
V23
p495
sg87
(lp496
(VRIEDERER
VM
tp497
asg21
I2006
sg49
V1
sbag1
(g2
g3
NtRp498
(dp499
g57
V10.1146/annurev.arplant.59.103006.093219
p500
sg53
VANNU REV PLANT BIOL
p501
sg55
V59
p502
sg87
(lp503
(VSAMUELS
VL
tp504
asg21
I2008
sg49
V683
p505
sbag1
(g2
g3
NtRp506
(dp507
g57
Nsg53
VCAN J BOT
p508
sg55
V62
p509
sg87
(lp510
(VSEKHAR
VK N C
tp511
asg21
I1984
sg49
V2403
p512
sbag1
(g2
g3
NtRp513
(dp514
g57
V10.1105/tpc.111.087528
p515
sg53
VPLANT CELL
p516
sg55
V23
p517
sg87
(lp518
(VSHI
VJ
tp519
asg21
I2011
sg49
VLANT
p520
sbag1
(g2
g3
NtRp521
(dp522
g57
V10.1105/tpc.12.5.721
p523
sg53
VPLANT CELL
p524
sg55
V12
p525
sg87
(lp526
(VSIEBER
VP
tp527
asg21
I2000
sg49
VLANT
p528
sbag1
(g2
g3
NtRp529
(dp530
g57
Nsg53
VOntogenez
p531
sg55
V40
p532
sg87
(lp533
(VSMIRNOVA
VA V
tp534
asg21
I2009
sg49
V425
p535
sbag1
(g2
g3
NtRp536
(dp537
g57
Nsg53
VANNU PLANT REV
p538
sg55
V23
p539
sg87
(lp540
(VTANAKA
VH
tp541
asg21
I2006
sg49
V312
p542
sbag1
(g2
g3
NtRp543
(dp544
g57
V10.1046/j.1365-313X.1999.00352.x
p545
sg53
VPLANT J
p546
sg55
V17
p547
sg87
(lp548
(VTODD
VJ
tp549
asg21
I1999
sg49
VLANT
p550
sbag1
(g2
g3
NtRp551
(dp552
g57
V10.1093/jxb/erh149
p553
sg53
VJ EXP BOT
p554
sg55
V55
p555
sg87
(lp556
(VVOGG
VG
tp557
asg21
I2004
sg49
V1401
p558
sbag1
(g2
g3
NtRp559
(dp560
g57
V10.1371/journal.pgen.1000703
p561
sg53
VPLOS GENET
p562
sg55
V5
sg87
(lp563
(VVOISIN
VD
tp564
asg21
I2009
sg49
VLOS
p565
sbag1
(g2
g3
NtRp566
(dp567
g57
V10.1093/jxb/err014
p568
sg53
VJ EXP BOT
p569
sg55
V62
p570
sg87
(lp571
(VWILSON
VZ A
tp572
asg21
I2011
sg49
V1633
p573
sbag1
(g2
g3
NtRp574
(dp575
g57
V10.1105/tpc.11.11.2187
p576
sg53
VPLANT CELL
p577
sg55
V11
p578
sg87
(lp579
(VYEPHREMOV
VA
tp580
asg21
I1999
sg49
VLANT
p581
sbag1
(g2
g3
NtRp582
(dp583
g57
V10.1093/mp/ssn028
p584
sg53
VMOL PLANT
p585
sg55
V1
sg87
(lp586
(VZHANG
VD S
tp587
asg21
I2008
sg49
V599
p588
sbag1
(g2
g3
NtRp589
(dp590
g57
V10.1105/tpc.104.030155
p591
sg53
VPLANT CELL
p592
sg55
V17
p593
sg87
(lp594
(VZHENG
VH Q
tp595
asg21
I2005
sg49
VLANT
p596
sbasb.