ccopy_reg
_reconstructor
p1
(ctethne.classes.paper
Paper
p2
c__builtin__
object
p3
NtRp4
(dp5
S'publisherCity'
p6
VROCKVILLE
p7
sS'reprintAddress'
p8
VKretsch, T (reprint author), Univ Freiburg, Inst Biol Bot 2, D-79104 Freiburg, Germany.
p9
sS'WC'
p10
VPlant Sciences
p11
sS'GA'
p12
V479XZ
p13
sS'FX'
p14
(lp15
VThis work was supported by the Deutsch Forschungsgemeinschaft (grant no.
p16
aVKR2020/2-3, "Analysis of Phytochrome A-Dependent Light Signalling in
p17
aVArabidopsis thaliana") and the Human Frontier Science Program
p18
aV(postdoctoral fellowship no. LT 0063/2003-6 to A. H.).
p19
asS'abstract'
p20
VPhytochrome A (phyA) is the primary photoreceptor for sensing extremely low amounts of light and for mediating various far-red light-induced responses in higher plants. Translocation from the cytosol to the nucleus is an essential step in phyA signal transduction. EID1 (for EMPFINDLICHER IM DUNKELROTEN LICHT1) is an F-box protein that functions as a negative regulator in far-red light signaling downstream of the phyA in Arabidopsis (Arabidopsis thaliana). To identify factors involved in EID1-dependent light signal transduction, pools of ethylmethylsulfonate-treated eid1-3 seeds were screened for seedlings that suppress the hypersensitive phenotype of the mutant. The phenotype of the suppressor mutant presented here is caused by a missense mutation in the PHYA gene that leads to an amino acid transition in its histidine kinase-related domain. The novel phyA-402 allele alters the spectral sensitivity and the persistence of far-red light-induced high-irradiance responses. The strong eid1-3 suppressor phenotype of phyA-402 contrasts with the moderate phenotype observed when phyA-402 is introgressed into the wild-type background, which indicates that the mutation mainly alters functions in an EID1-dependent signaling cascade. The mutation specifically inhibits nuclear accumulation of the photoreceptor molecule upon red light irradiation, even though it still interacts with FHY1 (for far-red long hypocotyl 1) and FHL (for FHY1-like protein), two factors that are essential for nuclear accumulation of phyA. Degradation of the mutated phyA is unaltered even under light conditions that inhibit its nuclear accumulation, indicating that phyA degradation may occur mostly in the cytoplasm.
p21
sS'pageEnd'
p22
I1309
sS'date'
p23
I2009
sS'documentType'
p24
VArticle
p25
sS'subject'
p26
VPlant Sciences
p27
sS'isoSource'
p28
VPlant Physiol.
p29
sS'timesCited'
p30
(lp31
I7
aVZ9 9
p32
asS'funding'
p33
(lp34
(VDeutsch Forschungsgemeinschaft
VKR2020/2-3
tp35
a(VHuman Frontier Science Program
VLT 0063/2003-6
tp36
asS'PT'
p37
VJ
sS'title'
p38
VThe Histidine Kinase-Related Domain Of Arabidopsis Phytochrome A Controls The Spectral Sensitivity And The Subcellular Distribution Of The Photoreceptor
p39
sS'ISSN'
p40
(lp41
V0032-0889
p42
aVJ9 PLANT PHYSIOL
p43
asS'authors_full'
p44
(lp45
(VMUELLER
VREBECCA
tp46
a(VFERNANDEZ
VAURORA PINAS
tp47
a(VHILTBRUNNER
VANDREAS
tp48
a(VSCHAEFER
VEBERHARD
tp49
a(VKRETSCH
VTHOMAS
tp50
asS'PG'
p51
I13
sS'PD'
p52
VJUL
p53
sS'pageStart'
p54
I1297
sS'issue'
p55
I3
sS'journal'
p56
VPLANT PHYSIOLOGY
p57
sS'volume'
p58
V150
p59
sS'doi'
p60
V10.1104/pp.109.135988
p61
sS'emailAddress'
p62
Vthomas.kretsch@biologie.uni-freiburg.de
p63
sS'authorAddress'
p64
V[Mueller, Rebecca; Fernandez, Aurora Pinas; Hiltbrunner, Andreas; Schaefer, Eberhard; Kretsch, Thomas] Univ Freiburg, Inst Biol Bot 2, D-79104 Freiburg, Germany.
p65
sS'publisherAddress'
p66
V15501 MONONA DRIVE, ROCKVILLE, MD 20855 USA
p67
sS'ER'
p68
V
sS'publisher'
p69
VAMER SOC PLANT BIOLOGISTS
p70
sS'authorKeywords'
p71
(lp72
VHIGH-IRRADIANCE RESPONSES
p73
aVSIGNAL-TRANSDUCTION
p74
aVFUNCTIONAL-ANALYSIS
p75
aVTERMINAL-DOMAIN
p76
aVNUCLEAR ACCUMULATION
p77
aVELECTRON-MICROSCOPY
p78
aVREGULATORY ACTIVITY
p79
aVPROTEIN-KINASES
p80
aVA PHOTORECEPTOR
p81
aVLIGHT
p82
asS'language'
p83
VEnglish
p84
sS'wosid'
p85
VWOS:000268696800016
p86
sS'citationCount'
p87
I60
sS'authors_init'
p88
(lp89
(VMULLER
VR
tp90
a(VFERNANDEZ
VA P
tp91
a(VHILTBRUNNER
VA
tp92
a(VSCHAFER
VE
tp93
a(VKRETSCH
VT
tp94
asS'citedReferences'
p95
(lp96
g1
(g2
g3
NtRp97
(dp98
g60
V10.1105/tpc.021568
p99
sg56
VPLANT CELL
p100
sg58
V16
p101
sg88
(lp102
(VBAUER
VD
tp103
asg23
I2004
sg54
VLANT
p104
sbag1
(g2
g3
NtRp105
(dp106
g60
V10.1006/geno.1994.1023
p107
sg56
VGENOMICS
p108
sg58
V19
p109
sg88
(lp110
(VBELL
VC J
tp111
asg23
I1994
sg54
V137
p112
sbag1
(g2
g3
NtRp113
(dp114
g60
V10.1016/S0092-8674(00)80966-6
p115
sg56
VCELL
p116
sg58
V96
p117
sg88
(lp118
(VBILWES
VA M
tp119
asg23
I1999
sg54
V131
p120
sbag1
(g2
g3
NtRp121
(dp122
g60
V10.1007/BF01279182
p123
sg56
VPROTOPLASMA
p124
sg58
V195
p125
sg88
(lp126
(VBOYLAN
VM T
tp127
asg23
I1996
sg54
VROTOPLASMA
p128
sbag1
(g2
g3
NtRp129
(dp130
g60
V10.1105/tpc.12.4.547
p131
sg56
VPLANT CELL
p132
sg58
V12
p133
sg88
(lp134
(VBUCHE
VC
tp135
asg23
I2000
sg54
VLANT
p136
sbag1
(g2
g3
NtRp137
(dp138
g60
Nsg56
VPHOTOCHEM PHOTOBIOL
p139
sg58
V2
sg88
(lp140
(VCASAL
VJ J
tp141
asg23
I2003
sg54
VHOTOCHEM
p142
sbag1
(g2
g3
NtRp143
(dp144
g60
Nsg56
VANNU REV GENET
p145
sg58
V38
p146
sg88
(lp147
(VCHEN
VM
tp148
asg23
I2004
sg54
V81
p149
sbag1
(g2
g3
NtRp150
(dp151
g60
V10.1073/pnas.1935989100
p152
sg56
VP NATL ACAD SCI USA
p153
sg58
V100
p154
sg88
(lp155
(VCHEN
VM
tp156
asg23
I2003
sg54
V14493
p157
sbag1
(g2
g3
NtRp158
(dp159
g60
Nsg56
VPLANT CELL
p160
sg58
V5
sg88
(lp161
(VCHERRY
VJ R
tp162
asg23
I1993
sg54
VLANT
p163
sbag1
(g2
g3
NtRp164
(dp165
g60
V10.1046/j.1365-313x.1998.00343.x
p166
sg56
VPLANT J
p167
sg58
V16
p168
sg88
(lp169
(VCLOUGH
VS J
tp170
asg23
I1998
sg54
VLANT
p171
sbag1
(g2
g3
NtRp172
(dp173
g60
V10.1101/gad.197201
p174
sg56
VGENE DEV
p175
sg58
V15
p176
sg88
(lp177
(VDIETERLE
VM
tp178
asg23
I2001
sg54
V939
p179
sbag1
(g2
g3
NtRp180
(dp181
g60
V10.1111/j.1365-313X.2004.02286.x
p182
sg56
VPLANT J
p183
sg58
V41
p184
sg88
(lp185
(VDIETERLE
VM
tp186
asg23
I2005
sg54
VLANT
p187
sbag1
(g2
g3
NtRp188
(dp189
g60
V10.1046/j.1365-3040.2000.00550.x
p190
sg56
VPLANT CELL ENVIRON
p191
sg58
V23
p192
sg88
(lp193
(VEICHENBERG
VK
tp194
asg23
I2000
sg54
VLANT
p195
sbag1
(g2
g3
NtRp196
(dp197
g60
V10.1126/science.284.5419.1539
p198
sg56
VSCIENCE
p199
sg58
V284
p200
sg88
(lp201
(VFANKHAUSER
VC
tp202
asg23
I1999
sg54
V1539
p203
sbag1
(g2
g3
NtRp204
(dp205
g60
V10.1387/ijdb.051989kf
p206
sg56
VINT J DEV BIOL
p207
sg58
V49
p208
sg88
(lp209
(VFRANKLIN
VK A
tp210
asg23
I2005
sg54
V653
p211
sbag1
(g2
g3
NtRp212
(dp213
g60
V10.1007/BF00387909
p214
sg56
VPLANTA
p215
sg58
V154
p216
sg88
(lp217
(VHEIM
VB
tp218
asg23
I1982
sg54
VLANTA
p219
sbag1
(g2
g3
NtRp220
(dp221
g60
V10.1104/pp.121.2.571
p222
sg56
VPLANT PHYSIOL
p223
sg58
V121
p224
sg88
(lp225
(VHENNIG
VL
tp226
asg23
I1999
sg54
VLANT
p227
sbag1
(g2
g3
NtRp228
(dp229
g60
V10.1093/pcp/pcj087
p230
sg56
VPLANT CELL PHYSIOL
p231
sg58
V47
p232
sg88
(lp233
(VHILTBRUNNER
VA
tp234
asg23
I2006
sg54
VLANT
p235
sbag1
(g2
g3
NtRp236
(dp237
g60
V10.1016/j.cub.2005.10.042
p238
sg56
VCURR BIOL
p239
sg58
V15
p240
sg88
(lp241
(VHILTBRUNNER
VA
tp242
asg23
I2005
sg54
V2125
p243
sbag1
(g2
g3
NtRp244
(dp245
g60
V10.1105/tpc.12.7.1063
p246
sg56
VPLANT CELL
p247
sg58
V12
p248
sg88
(lp249
(VHISADA
VA
tp250
asg23
I2000
sg54
VLANT
p251
sbag1
(g2
g3
NtRp252
(dp253
g60
V10.1126/science.284.5413.496
p254
sg56
VSCIENCE
p255
sg58
V284
p256
sg88
(lp257
(VHOECKER
VU
tp258
asg23
I1999
sg54
V496
p259
sbag1
(g2
g3
NtRp260
(dp261
g60
Nsg56
VPLANT CELL
p262
sg58
V10
p263
sg88
(lp264
(VHOECKER
VU
tp265
asg23
I1998
sg54
VLANT
p266
sbag1
(g2
g3
NtRp267
(dp268
g60
Nsg56
VJ BACTERIOL
p269
sg58
V180
p270
sg88
(lp271
(VHSING
VW H
tp272
asg23
I1998
sg54
V4538
p273
sbag1
(g2
g3
NtRp274
(dp275
g60
V10.1046/j.1365-313x.2000.00729.x
p276
sg56
VPLANT J
p277
sg58
V22
p278
sg88
(lp279
(VKIM
VL
tp280
asg23
I2000
sg54
VLANT
p281
sbag1
(g2
g3
NtRp282
(dp283
g60
Nsg56
VPLANT CELL
p284
sg58
V11
p285
sg88
(lp286
(VKIRCHER
VS
tp287
asg23
I1999
sg54
VLANT
p288
sbag1
(g2
g3
NtRp289
(dp290
g60
V10.1105/tpc.001156
p291
sg56
VPLANT CELL
p292
sg58
V14
p293
sg88
(lp294
(VKIRCHER
VS
tp295
asg23
I2002
sg54
VLANT
p296
sbag1
(g2
g3
NtRp297
(dp298
g60
V10.1046/j.1365-313X.1993.04020403.x
p299
sg56
VPLANT J
p300
sg58
V4
sg88
(lp301
(VKONIECZNY
VA
tp302
asg23
I1993
sg54
VLANT
p303
sbag1
(g2
g3
NtRp304
(dp305
g60
V10.1073/pnas.140520097
p306
sg56
VP NATL ACAD SCI USA
p307
sg58
V97
p308
sg88
(lp309
(VKRALL
VL
tp310
asg23
I2000
sg54
V8169
p311
sbag1
(g2
g3
NtRp312
(dp313
g60
V10.1046/j.1365-313X.1996.10040625.x
p314
sg56
VPLANT J
p315
sg58
V10
p316
sg88
(lp317
(VKUNKEL
VT
tp318
asg23
I1996
sg54
VLANT
p319
sbag1
(g2
g3
NtRp320
(dp321
g60
Nsg56
VPHOTOMORPHOGENESIS P
p322
sg58
Nsg88
(lp323
(VMANCINELLI
VA L
tp324
asg23
I1994
sg54
VHOTOMORPHOGENESIS
p325
sbag1
(g2
g3
NtRp326
(dp327
g60
V10.1111/j.1365-313X.2005.02635.x
p328
sg56
VPLANT J
p329
sg58
V45
p330
sg88
(lp331
(VMARROCCO
VK
tp332
asg23
I2006
sg54
VLANT
p333
sbag1
(g2
g3
NtRp334
(dp335
g60
V10.1046/j.1365-3040.1997.d01-117.x
p336
sg56
VPLANT CELL ENVIRON
p337
sg58
V20
p338
sg88
(lp339
(VMATHEWS
VS
tp340
asg23
I1997
sg54
VLANT
p341
sbag1
(g2
g3
NtRp342
(dp343
g60
V10.1038/nature01837
p344
sg56
VNATURE
p345
sg58
V424
p346
sg88
(lp347
(VMATSUSHITA
VT
tp348
asg23
I2003
sg54
V571
p349
sbag1
(g2
g3
NtRp350
(dp351
g60
V10.1007/BF00391335
p352
sg56
VPLANTA
p353
sg58
V167
p354
sg88
(lp355
(VMCCURDY
VD W
tp356
asg23
I1986
sg54
VLANTA
p357
sbag1
(g2
g3
NtRp358
(dp359
g60
V10.1083/jcb.103.6.2541
p360
sg56
VJ CELL BIOL
p361
sg58
V103
p362
sg88
(lp363
(VMCCURDY
VD W
tp364
asg23
I1986
sg54
V2541
p365
sbag1
(g2
g3
NtRp366
(dp367
g60
V10.1046/j.1469-8137.2002.00419.x
p368
sg56
VNEW PHYTOL
p369
sg58
V154
p370
sg88
(lp371
(VMOLLER
VS G
tp372
asg23
I2002
sg54
V553
p373
sbag1
(g2
g3
NtRp374
(dp375
g60
Nsg56
VPLANT PHYSIOL
p376
sg58
V102
p377
sg88
(lp378
(VNAGATANI
VA
tp379
asg23
I1993
sg54
VLANT
p380
sbag1
(g2
g3
NtRp381
(dp382
g60
V10.1046/j.1365-313X.1998.00124.x
p383
sg56
VPLANT J
p384
sg58
V14
p385
sg88
(lp386
(VNEFF
VM M
tp387
asg23
I1998
sg54
VLANT
p388
sbag1
(g2
g3
NtRp389
(dp390
g60
V10.1016/S0092-8674(00)81636-0
p391
sg56
VCELL
p392
sg58
V95
p393
sg88
(lp394
(VNI
VM
tp395
asg23
I1998
sg54
V657
p396
sbag1
(g2
g3
NtRp397
(dp398
g60
Nsg56
VMETHOD ENZYMOL
p399
sg58
Nsg88
(lp400
(VNOACK
VS
tp401
asg23
I2007
sg54
V203
p402
sbag1
(g2
g3
NtRp403
(dp404
g60
V10.1105/tpc.104.022350
p405
sg56
VPLANT CELL
p406
sg58
V16
p407
sg88
(lp408
(VOKA
VY
tp409
asg23
I2004
sg54
VLANT
p410
sbag1
(g2
g3
NtRp411
(dp412
g60
V10.1016/0092-8674(93)90267-T
p413
sg56
VCELL
p414
sg58
V73
p415
sg88
(lp416
(VPARKINSON
VJ S
tp417
asg23
I1993
sg54
V857
p418
sbag1
(g2
g3
NtRp419
(dp420
g60
Nsg56
VPLANT CELL
p421
sg58
V6
sg88
(lp422
(VQUAIL
VP H
tp423
asg23
I1994
sg54
VLANT
p424
sbag1
(g2
g3
NtRp425
(dp426
g60
V10.1146/annurev.arplant.56.032604.144208
p427
sg56
VANNU REV PLANT BIOL
p428
sg58
V57
p429
sg88
(lp430
(VROCKWELL
VN C
tp431
asg23
I2006
sg54
V837
p432
sbag1
(g2
g3
NtRp433
(dp434
g60
V10.1073/pnas.0703855104
p435
sg56
VP NATL ACAD SCI USA
p436
sg58
V104
p437
sg88
(lp438
(VROSLER
VJ
tp439
asg23
I2007
sg54
V10737
p440
sbag1
(g2
g3
NtRp441
(dp442
g60
V10.1016/j.cell.2004.12.019
p443
sg56
VCELL
p444
sg58
V120
p445
sg88
(lp446
(VRYU
VJ S
tp447
asg23
I2005
sg54
V395
p448
sbag1
(g2
g3
NtRp449
(dp450
g60
V10.1046/j.1365-313X.1996.10050859.x
p451
sg56
VPLANT J
p452
sg58
V10
p453
sg88
(lp454
(VSAKAMOTO
VK
tp455
asg23
I1996
sg54
VLANT
p456
sbag1
(g2
g3
NtRp457
(dp458
g60
V10.1016/0014-5793(91)80403-P
p459
sg56
VFEBS LETT
p460
sg58
V281
p461
sg88
(lp462
(VSCHNEIDERPOETSCH
VH A W
tp463
asg23
I1991
sg54
V245
p464
sbag1
(g2
g3
NtRp465
(dp466
g60
V10.1007/BF00398678
p467
sg56
VPLANTA
p468
sg58
V171
p469
sg88
(lp470
(VSPETH
VV
tp471
asg23
I1987
sg54
VLANTA
p472
sbag1
(g2
g3
NtRp473
(dp474
g60
Nsg56
VNAT STRUCT BIOL
p475
sg58
V6
sg88
(lp476
(VTOMOMORI
VC
tp477
asg23
I1999
sg54
V729
p478
sbag1
(g2
g3
NtRp479
(dp480
g60
V10.1073/pnas.92.19.8596
p481
sg56
VP NATL ACAD SCI USA
p482
sg58
V92
p483
sg88
(lp484
(VWAGNER
VD
tp485
asg23
I1995
sg54
V8596
p486
sbag1
(g2
g3
NtRp487
(dp488
g60
V10.1016/S0968-0004(01)01852-7
p489
sg56
VTRENDS BIOCHEM SCI
p490
sg58
V26
p491
sg88
(lp492
(VWEST
VA H
tp493
asg23
I2001
sg54
V369
p494
sbag1
(g2
g3
NtRp495
(dp496
g60
Nsg56
VPLANT CELL
p497
sg58
V7
sg88
(lp498
(VXU
VY
tp499
asg23
I1995
sg54
VLANT
p500
sbag1
(g2
g3
NtRp501
(dp502
g60
V10.1083/jcb.145.3.437
p503
sg56
VJ CELL BIOL
p504
sg58
V145
p505
sg88
(lp506
(VYAMAGUCHI
VR
tp507
asg23
I1999
sg54
V437
p508
sbag1
(g2
g3
NtRp509
(dp510
g60
V10.1046/j.1365-313X.1997.00659.x
p511
sg56
VPLANT J
p512
sg58
V12
p513
sg88
(lp514
(VYANOVSKY
VM J
tp515
asg23
I1997
sg54
VLANT
p516
sbag1
(g2
g3
NtRp517
(dp518
g60
V10.1105/tpc.000521
p519
sg56
VPLANT CELL
p520
sg58
V14
p521
sg88
(lp522
(VYANOVSKY
VM J
tp523
asg23
I2002
sg54
VLANT
p524
sbag1
(g2
g3
NtRp525
(dp526
g60
V10.1126/science.277.5331.1505
p527
sg56
VSCIENCE
p528
sg58
V277
p529
sg88
(lp530
(VYEH
VK C
tp531
asg23
I1997
sg54
V1505
p532
sbag1
(g2
g3
NtRp533
(dp534
g60
V10.1073/pnas.95.23.13976
p535
sg56
VP NATL ACAD SCI USA
p536
sg58
V95
p537
sg88
(lp538
(VYEH
VK C
tp539
asg23
I1998
sg54
V13976
p540
sbag1
(g2
g3
NtRp541
(dp542
g60
V10.1104/pp.010811
p543
sg56
VPLANT PHYSIOL
p544
sg58
V128
p545
sg88
(lp546
(VZHOU
VY C
tp547
asg23
I2002
sg54
VLANT
p548
sbag1
(g2
g3
NtRp549
(dp550
g60
V10.1105/tpc.107.056580
p551
sg56
VPLANT CELL
p552
sg58
V20
p553
sg88
(lp554
(VZHU
VD M
tp555
asg23
I2008
sg54
VLANT
p556
sbasb.