ccopy_reg
_reconstructor
p1
(ctethne.classes.paper
Paper
p2
c__builtin__
object
p3
NtRp4
(dp5
S'publisherCity'
p6
VROCKVILLE
p7
sS'reprintAddress'
p8
VSakamoto, AN (reprint author), Japan Atom Energy Agcy, Radiat Appl Biol Div, Gunma 3701292, Japan.
p9
sS'WC'
p10
VPlant Sciences
p11
sS'GA'
p12
V228FK
p13
sS'abstract'
p14
VTo clarify the functions of the Arabidopsis thaliana REV1 (AtREV1) protein, we expressed it in Escherichia coli and purified it to near homogeneity. The deoxynucleotidyl transferase activity of the recombinant AtREV1 was examined in vitro using a primer extension assay. The recombinant AtREV1 transferred one or two nucleotides to the primer end. It efficiently inserted dCMP regardless of the opposite base. AtREV1 also inserted a dCMP opposite an apurinic/apyrimidinic site, which is physiologically generated or induced by various DNA-damaging agents. In contrast, AtREV1 had no insertion activities against UV-inducible DNA lesions as reported in yeast or mammalian system. Although the substrate specificity of AtREV1 was rather narrow in the presence of magnesium ion, it widened in the presence of manganese ion. These results suggest that AtREV1 serves as a deoxycytidyl transferase in plant cells.
p15
sS'pageEnd'
p16
I1060
sS'publisherAddress'
p17
V15501 MONONA DRIVE, ROCKVILLE, MD 20855 USA
p18
sS'documentType'
p19
VArticle
p20
sS'subject'
p21
VPlant Sciences
p22
sS'isoSource'
p23
VPlant Physiol.
p24
sS'timesCited'
p25
(lp26
I4
aVZ9 4
p27
asS'PT'
p28
VJ
sS'title'
p29
VAtrev1, A Y-Family Dna Polymerase In Arabidopsis, Has Deoxynucleotidyl Transferase Activity In Vitro
p30
sS'ISSN'
p31
(lp32
V0032-0889
p33
aVJ9 PLANT PHYSIOL
p34
asS'authors_full'
p35
(lp36
(VTAKAHASHI
VSHINYA
tp37
a(VSAKAMOTO
VAYAKO N
tp38
a(VTANAKA
VATSUSHI
tp39
a(VSHIMIZU
VKIKUO
tp40
asS'PG'
p41
I9
sS'PD'
p42
VNOV
p43
sS'pageStart'
p44
I1052
sS'issue'
p45
I3
sS'journal'
p46
VPLANT PHYSIOLOGY
p47
sS'volume'
p48
V145
p49
sS'doi'
p50
V10.1104/pp.107.101980
p51
sS'emailAddress'
p52
Vsakamoto.ayako@jaea.go.jp
p53
sS'authorAddress'
p54
(lp55
VJapan Atom Energy Agcy, Radiat Appl Biol Div, Gunma 3701292, Japan.
p56
aVOsaka Univ, Radioisotope Res Ctr, Suita, Osaka 5650871, Japan.
p57
asS'date'
p58
I2007
sS'ER'
p59
V
sS'publisher'
p60
VAMER SOC PLANT BIOLOGISTS
p61
sS'authorKeywords'
p62
(lp63
VYEAST REV1 PROTEIN
p64
aVCELL NUCLEAR ANTIGEN
p65
aVTRANSLESION SYNTHESIS
p66
aVSACCHAROMYCES-CEREVISIAE
p67
aVUBIQUITIN-BINDING
p68
aVPOSTREPLICATION REPAIR
p69
aVDCMP TRANSFERASE
p70
aVABASIC SITES
p71
aVTHALIANA
p72
aVDAMAGE
p73
asS'language'
p74
VEnglish
p75
sS'wosid'
p76
VWOS:000250712800041
p77
sS'citationCount'
p78
I53
sS'authors_init'
p79
(lp80
(VTAKAHASHI
VS
tp81
a(VSAKAMOTO
VA N
tp82
a(VTANAKA
VA
tp83
a(VSHIMIZU
VK
tp84
asS'citedReferences'
p85
(lp86
g1
(g2
g3
NtRp87
(dp88
g50
V10.1128/MCB.01671-06
p89
sg46
VMOL CELL BIOL
p90
sg48
V26
p91
sg79
(lp92
(VACHARYA
VN
tp93
asg58
I2006
sg44
V9555
p94
sbag1
(g2
g3
NtRp95
(dp96
g50
V10.1126/science.1120615
p97
sg46
VSCIENCE
p98
sg48
V310
p99
sg79
(lp100
(VBIENKO
VM
tp101
asg58
I2005
sg44
V1821
p102
sbag1
(g2
g3
NtRp103
(dp104
g50
V10.1016/j.dnarep.2003.10.002
p105
sg46
VDNA REPAIR
p106
sg48
V3
sg79
(lp107
(VBOITEUX
VS
tp108
asg58
I2004
sg44
V1
sbag1
(g2
g3
NtRp109
(dp110
g50
V10.1016/S1360-1385(98)01355-7
p111
sg46
VTRENDS PLANT SCI
p112
sg48
V4
sg79
(lp113
(VBRITT
VA B
tp114
asg58
I1999
sg44
V20
p115
sbag1
(g2
g3
NtRp116
(dp117
g50
V10.1016/S0921-8777(01)00091-X
p118
sg46
VMUTAT RES
p119
sg48
V486
p120
sg79
(lp121
(VBROOMFIELD
VS
tp122
asg58
I2001
sg44
V167
p123
sbag1
(g2
g3
NtRp124
(dp125
g50
Nsg46
VDNA PHOTOLESIONS MUT
p126
sg48
Nsg79
(lp127
(VCADET
VJ
tp128
asg58
I2005
sg44
V1
sbag1
(g2
g3
NtRp129
(dp130
g50
Nsg46
VNATURE
p131
sg48
V391
p132
sg79
(lp133
(VDOUBLIE
VS
tp134
asg58
I1998
sg44
V251
p135
sbag1
(g2
g3
NtRp136
(dp137
g50
Nsg46
VDNA REPAIR MUTAGENES
p138
sg48
Nsg79
(lp139
(VFRIEDBERG
VE
tp140
asg58
I2006
sg44
Nsbag1
(g2
g3
NtRp141
(dp142
g50
V10.1016/j.molcel.2005.03.032
p143
sg46
VMOL CELL
p144
sg48
V18
p145
sg79
(lp146
(VFRIEDBERG
VE C
tp147
asg58
I2005
sg44
V499
p148
sbag1
(g2
g3
NtRp149
(dp150
g50
V10.1073/pnas.120152397
p151
sg46
VP NATL ACAD SCI USA
p152
sg48
V97
p153
sg79
(lp154
(VFRIEDBERG
VE C
tp155
asg58
I2000
sg44
V5681
p156
sbag1
(g2
g3
NtRp157
(dp158
g50
V10.1046/j.1365-313x.2000.00694.x
p159
sg46
VPLANT J
p160
sg48
V21
p161
sg79
(lp162
(VGALLEGO
VF
tp163
asg58
I2000
sg44
VLANT
p164
sbag1
(g2
g3
NtRp165
(dp166
g50
V10.1562/0031-8655(2001)073<0128:AFOFDG>2.0.CO;2
p167
sg46
VPHOTOCHEM PHOTOBIOL
p168
sg48
V73
p169
sg79
(lp170
(VGAO
VM J
tp171
asg58
I2001
sg44
VHOTOCHEM
p172
sbag1
(g2
g3
NtRp173
(dp174
g50
V10.1023/A:1013644026132
p175
sg46
VPLANT MOL BIOL
p176
sg48
V47
p177
sg79
(lp178
(VGARCIA-ORTIZ
VM V
tp179
asg58
I2001
sg44
VLANT
p180
sbag1
(g2
g3
NtRp181
(dp182
g50
V10.1111/j.1365-313X.2004.02112.x
p183
sg46
VPLANT J
p184
sg48
V39
p185
sg79
(lp186
(VGARCIA-ORTIZ
VM V
tp187
asg58
I2004
sg44
VLANT
p188
sbag1
(g2
g3
NtRp189
(dp190
g50
V10.1073/pnas.0505949102
p191
sg46
VP NATL ACAD SCI USA
p192
sg48
V102
p193
sg79
(lp194
(VGARG
VP
tp195
asg58
I2005
sg44
V18361
p196
sbag1
(g2
g3
NtRp197
(dp198
g50
V10.1093/emboj/cdg626
p199
sg46
VEMBO J
p200
sg48
V22
p201
sg79
(lp202
(VGUO
VC X
tp203
asg58
I2003
sg44
V6621
p204
sbag1
(g2
g3
NtRp205
(dp206
g50
V10.1128/MCB.01118-06
p207
sg46
VMOL CELL BIOL
p208
sg48
V26
p209
sg79
(lp210
(VGUO
VC X
tp211
asg58
I2006
sg44
V8892
p212
sbag1
(g2
g3
NtRp213
(dp214
g50
V10.1093/nar/gkh279
p215
sg46
VNUCLEIC ACIDS RES
p216
sg48
V32
p217
sg79
(lp218
(VGUO
VD Y
tp219
asg58
I2004
sg44
V1122
p220
sbag1
(g2
g3
NtRp221
(dp222
g50
V10.1101/gad.882301
p223
sg46
VGENE DEV
p224
sg48
V15
p225
sg79
(lp226
(VHARACSKA
VL
tp227
asg58
I2001
sg44
V945
p228
sbag1
(g2
g3
NtRp229
(dp230
g50
V10.1074/jbc.M112146200
p231
sg46
VJ BIOL CHEM
p232
sg48
V277
p233
sg79
(lp234
(VHARACSKA
VL
tp235
asg58
I2002
sg44
V15546
p236
sbag1
(g2
g3
NtRp237
(dp238
g50
V10.1093/emboj/19.17.4431
p239
sg46
VEMBO J
p240
sg48
V19
p241
sg79
(lp242
(VKOVALCHUK
VI
tp243
asg58
I2000
sg44
V4431
p244
sbag1
(g2
g3
NtRp245
(dp246
g50
V10.1073/pnas.94.1.328
p247
sg46
VP NATL ACAD SCI USA
p248
sg48
V94
p249
sg79
(lp250
(VLANDRY
VL G
tp251
asg58
I1997
sg44
V328
p252
sbag1
(g2
g3
NtRp253
(dp254
g50
V10.1016/j.dnarep.2007.02.003
p255
sg46
VDNA REPAIR
p256
sg48
V6
sg79
(lp257
(VLEHMANN
VA R
tp258
asg58
I2007
sg44
V891
p259
sbag1
(g2
g3
NtRp260
(dp261
g50
Nsg46
VGENETICS
p262
sg48
V68
p263
sg79
(lp264
(VLEMONTT
VJ F
tp265
asg58
I1971
sg44
V21
p266
sbag1
(g2
g3
NtRp267
(dp268
g50
V10.1093/nar/27.22.4468
p269
sg46
VNUCLEIC ACIDS RES
p270
sg48
V27
p271
sg79
(lp272
(VLIN
VW S
tp273
asg58
I1999
sg44
V4468
p274
sbag1
(g2
g3
NtRp275
(dp276
g50
V10.1002/dc.10102
p277
sg46
VDIAGN CYTOPATHOL
p278
sg48
V26
p279
sg79
(lp280
(VLIU
VY L
tp281
asg58
I2002
sg44
V329
p282
sbag1
(g2
g3
NtRp283
(dp284
g50
V10.1104/pp.103.021808
p285
sg46
VPLANT PHYSIOL
p286
sg48
V132
p287
sg79
(lp288
(VLIU
VZ R
tp289
asg58
I2003
sg44
VLANT
p290
sbag1
(g2
g3
NtRp291
(dp292
g50
V10.1074/jbc.M110149200
p293
sg46
VJ BIOL CHEM
p294
sg48
V277
p295
sg79
(lp296
(VMASUDA
VY
tp297
asg58
I2002
sg44
V3040
p298
sbag1
(g2
g3
NtRp299
(dp300
g50
V10.1074/jbc.M008082200
p301
sg46
VJ BIOL CHEM
p302
sg48
V276
p303
sg79
(lp304
(VMASUDA
VY
tp305
asg58
I2001
sg44
V15051
p306
sbag1
(g2
g3
NtRp307
(dp308
g50
V10.1016/S0014-5793(02)02773-4
p309
sg46
VFEBS LETT
p310
sg48
V520
p311
sg79
(lp312
(VMASUDA
VY
tp313
asg58
I2002
sg44
V88
p314
sbag1
(g2
g3
NtRp315
(dp316
g50
Nsg46
VCRC HDB ORGANIC PHOT
p317
sg48
Nsg79
(lp318
(VMITCHELL
VD L
tp319
asg58
I1995
sg44
V1326
p320
sbag1
(g2
g3
NtRp321
(dp322
g50
V10.1074/jbc.M102051200
p323
sg46
VJ BIOL CHEM
p324
sg48
V276
p325
sg79
(lp326
(VMURAKUMO
VY
tp327
asg58
I2001
sg44
V35644
p328
sbag1
(g2
g3
NtRp329
(dp330
g50
V10.1126/science.1116336
p331
sg46
VSCIENCE
p332
sg48
V309
p333
sg79
(lp334
(VNAIR
VD T
tp335
asg58
I2005
sg44
V2219
p336
sbag1
(g2
g3
NtRp337
(dp338
g50
V10.1093/nar/26.2.638
p339
sg46
VNUCLEIC ACIDS RES
p340
sg48
V26
p341
sg79
(lp342
(VNAKAJIMA
VS
tp343
asg58
I1998
sg44
V638
p344
sbag1
(g2
g3
NtRp345
(dp346
g50
Nsg46
VCANCER RES
p347
sg48
V58
p348
sg79
(lp349
(VNAKAMURA
VJ
tp350
asg58
I1998
sg44
V222
p351
sbag1
(g2
g3
NtRp352
(dp353
g50
V10.1126/science.272.5268.1646
p354
sg46
VSCIENCE
p355
sg48
V272
p356
sg79
(lp357
(VNELSON
VJ R
tp358
asg58
I1996
sg44
V1646
p359
sbag1
(g2
g3
NtRp360
(dp361
g50
V10.1038/382729a0
p362
sg46
VNATURE
p363
sg48
V382
p364
sg79
(lp365
(VNELSON
VJ R
tp366
asg58
I1996
sg44
V729
p367
sbag1
(g2
g3
NtRp368
(dp369
g50
V10.1046/j.1365-2958.2000.01997.x
p370
sg46
VMOL MICROBIOL
p371
sg48
V37
p372
sg79
(lp373
(VNELSON
VJ R
tp374
asg58
I2000
sg44
V549
p375
sbag1
(g2
g3
NtRp376
(dp377
g50
V10.1016/S1097-2765(01)00278-7
p378
sg46
VMOL CELL
p379
sg48
V8
sg79
(lp380
(VOHMORI
VH
tp381
asg58
I2001
sg44
V7
sbag1
(g2
g3
NtRp382
(dp383
g50
V10.1111/j.1365-313X.2006.02927.x
p384
sg46
VPLANT J
p385
sg48
V48
p386
sg79
(lp387
(VOSAKABE
VK
tp388
asg58
I2006
sg44
VLANT
p389
sbag1
(g2
g3
NtRp390
(dp391
g50
V10.1093/nar/gkl1102
p392
sg46
VNUCLEIC ACIDS RES
p393
sg48
V35
p394
sg79
(lp395
(VPARKER
VJ L
tp396
asg58
I2007
sg44
V881
p397
sbag1
(g2
g3
NtRp398
(dp399
g50
V10.1146/annurev.biochem.74.082803.133250
p400
sg46
VANNU REV BIOCHEM
p401
sg48
V74
p402
sg79
(lp403
(VPRAKASH
VS
tp404
asg58
I2005
sg44
V317
p405
sbag1
(g2
g3
NtRp406
(dp407
g50
V10.1093/nar/gki279
p408
sg46
VNUCLEIC ACIDS RES
p409
sg48
V33
p410
sg79
(lp411
(VROSS
VA L
tp412
asg58
I2005
sg44
V1280
p413
sbag1
(g2
g3
NtRp414
(dp415
g50
V10.1105/tpc.012369
p416
sg46
VPLANT CELL
p417
sg48
V15
p418
sg79
(lp419
(VSAKAMOTO
VA
tp420
asg58
I2003
sg44
VLANT
p421
sbag1
(g2
g3
NtRp422
(dp423
g50
V10.1016/j.mrfmmm.2006.05.036
p424
sg46
VMUTAT RES
p425
sg48
V601
p426
sg79
(lp427
(VSANTIAGO
VM J
tp428
asg58
I2006
sg44
V51
p429
sbag1
(g2
g3
NtRp430
(dp431
g50
V10.1021/bi020137x
p432
sg46
VBIOCHEMISTRY
p433
sg48
V41
p434
sg79
(lp435
(VSONG
VJ M
tp436
asg58
I2002
sg44
V8683
p437
sbag1
(g2
g3
NtRp438
(dp439
g50
V10.1074/jbc.274.25.17395
p440
sg46
VJ BIOL CHEM
p441
sg48
V274
p442
sg79
(lp443
(VSTEITZ
VT A
tp444
asg58
I1999
sg44
V17395
p445
sbag1
(g2
g3
NtRp446
(dp447
g50
V10.1038/nature01965
p448
sg46
VNATURE
p449
sg48
V425
p450
sg79
(lp451
(VSTELTER
VP
tp452
asg58
I2003
sg44
V188
p453
sbag1
(g2
g3
NtRp454
(dp455
g50
V10.1104/pp.105.060236
p456
sg46
VPLANT PHYSIOL
p457
sg48
V138
p458
sg79
(lp459
(VTAKAHASHI
VS
tp460
asg58
I2005
sg44
VLANT
p461
sbag1
(g2
g3
NtRp462
(dp463
g50
V10.1016/j.dnarep.2004.06.015
p464
sg46
VDNA REPAIR
p465
sg48
V3
sg79
(lp466
(VTISSIER
VA
tp467
asg58
I2004
sg44
V1503
p468
sbag1
(g2
g3
NtRp469
(dp470
g50
V10.1038/sj.emboj.7600786
p471
sg46
VEMBO J
p472
sg48
V24
p473
sg79
(lp474
(VVAISMAN
VA
tp475
asg58
I2005
sg44
V2957
p476
sbag1
(g2
g3
NtRp477
(dp478
g50
V10.1074/jbc.M702366200
p479
sg46
VJ BIOL CHEM
p480
sg48
V282
p481
sg79
(lp482
(VWOOD
VA
tp483
asg58
I2007
sg44
V20256
p484
sbag1
(g2
g3
NtRp485
(dp486
g50
V10.1093/nar/30.7.1630
p487
sg46
VNUCLEIC ACIDS RES
p488
sg48
V30
p489
sg79
(lp490
(VZHANG
VY B
tp491
asg58
I2002
sg44
V1630
p492
sbasb.