ccopy_reg
_reconstructor
p1
(ctethne.classes.paper
Paper
p2
c__builtin__
object
p3
NtRp4
(dp5
S'publisherCity'
p6
VROCKVILLE
p7
sS'reprintAddress'
p8
VChapman, KD (reprint author), Univ N Texas, Dept Sci Biol, Div Biochem & Mol Biol, Denton, TX 76203 USA.
p9
sS'WC'
p10
VPlant Sciences
p11
sS'GA'
p12
V585AZ
p13
sS'abstract'
p14
VN-Acylethanolamines (NAEs) are endogenous lipids in plants produced from the phospholipid precursor, N-acylphosphatidylethanolamine, by phospholipase D (PLD). Here, we show that seven types of plant NAEs differing in acyl chain length and degree of unsaturation were potent inhibitors of the well-characterized, plant-specific isoform of PLD-PLDalpha. It is notable that PLDalpha, unlike other PLD isoforms, has been shown not to catalyze the formation of NAEs from N-acylphosphatidylethanolamine. In general, inhibition of PLDalpha activity by NAEs increased with decreasing acyl chain length and decreasing degree of unsaturation, such that N-lauroylethanolamine and N-myristoylethanolamine were most potent with IC(50)s at submicromolar concentrations for the recombinant castor bean (Ricinus communis) PLDalpha expressed in Escherichia coli and for partially purified cabbage (Brassica oleracea) PLDalpha. NAEs did not inhibit PLD from Streptomyces chromofuscus, and exhibited only moderate, mixed effects for two other recombinant plant PLD isoforms. Consistent with the inhibitory biochemical effects on PLDalpha in vitro, N-lauroylethanolamine, but not lauric acid, selectively inhibited abscisic acid-induced closure of stomata in epidermal peels of tobacco (Nicotiana tabacum cv Xanthi) and Commelina communis at low micromolar concentrations. Together, these results provide a new class of biochemical inhibitors to assist in the evaluation of PLDalpha physiological function(s), and they suggest a novel, lipid mediator role for endogenously produced NAEs in plant cells.
p15
sS'pageEnd'
p16
I1898
sS'publisherAddress'
p17
V15501 MONONA DRIVE, ROCKVILLE, MD 20855 USA
p18
sS'documentType'
p19
VArticle
p20
sS'subject'
p21
VPlant Sciences
p22
sS'isoSource'
p23
VPlant Physiol.
p24
sS'timesCited'
p25
(lp26
I40
aVZ9 45
p27
asS'PT'
p28
VJ
sS'title'
p29
VInhibition Of Phospholipase D Alpha By N-Acylethanolamines
p30
sS'ISSN'
p31
(lp32
V0032-0889
p33
aVJ9 PLANT PHYSIOL
p34
asS'authors_full'
p35
(lp36
(VAUSTINBROWN
VSL
tp37
a(VCHAPMAN
VKD
tp38
asS'PG'
p39
I7
sS'PD'
p40
VAUG
p41
sS'pageStart'
p42
I1892
sS'issue'
p43
I4
sS'journal'
p44
VPLANT PHYSIOLOGY
p45
sS'volume'
p46
V129
p47
sS'doi'
p48
V10.1104/pp.001974
p49
sS'authorAddress'
p50
VUniv N Texas, Dept Sci Biol, Div Biochem & Mol Biol, Denton, TX 76203 USA.
p51
sS'date'
p52
I2002
sS'ER'
p53
V
sS'publisher'
p54
VAMER SOC PLANT BIOLOGISTS
p55
sS'authorKeywords'
p56
(lp57
VACID SIGNAL-TRANSDUCTION
p58
aVGENE-EXPRESSION
p59
aVIDENTIFICATION
p60
aVARABIDOPSIS
p61
aVSENESCENCE
p62
aVMEMBRANE
p63
asS'language'
p64
VEnglish
p65
sS'wosid'
p66
VWOS:000177502100050
p67
sS'citationCount'
p68
I32
sS'authors_init'
p69
(lp70
(VAUSTINBROWN
VS L
tp71
a(VCHAPMAN
VK D
tp72
asS'citedReferences'
p73
(lp74
g1
(g2
g3
NtRp75
(dp76
g48
V10.1006/abio.1976.9999
p77
sg44
VANAL BIOCHEM
p78
sg46
V72
p79
sg69
(lp80
(VBRADFORD
VM M
tp81
asg52
I1976
sg42
V248
p82
sbag1
(g2
g3
NtRp83
(dp84
g48
Nsg44
VJ BIOL CHEM
p85
sg46
V270
p86
sg69
(lp87
(VCARMAN
VG M
tp88
asg52
I1995
sg42
V18711
p89
sbag1
(g2
g3
NtRp90
(dp91
g48
V10.1104/pp.116.3.1163
p92
sg44
VPLANT PHYSIOL
p93
sg46
V116
p94
sg69
(lp95
(VCHAPMAN
VK D
tp96
asg52
I1998
sg42
VLANT
p97
sbag1
(g2
g3
NtRp98
(dp99
g48
V10.1104/pp.120.4.1157
p100
sg44
VPLANT PHYSIOL
p101
sg46
V120
p102
sg69
(lp103
(VCHAPMAN
VK D
tp104
asg52
I1999
sg42
VLANT
p105
sbag1
(g2
g3
NtRp106
(dp107
g48
V10.1016/S0009-3084(00)00198-5
p108
sg44
VCHEM PHYS LIPIDS
p109
sg46
V108
p110
sg69
(lp111
(VCHAPMAN
VK D
tp112
asg52
I2000
sg42
V221
p113
sbag1
(g2
g3
NtRp114
(dp115
g48
V10.1126/science.1470919
p116
sg44
VSCIENCE
p117
sg46
V258
p118
sg69
(lp119
(VDEVANE
VW A
tp120
asg52
I1992
sg42
V1946
p121
sbag1
(g2
g3
NtRp122
(dp123
g48
V10.1016/S0005-2760(98)00042-3
p124
sg44
VBBA
p125
sg46
V1392
p126
sg69
(lp127
(VDI
VMARZO V
tp128
asg52
I1998
sg42
V153
p129
sbag1
(g2
g3
NtRp130
(dp131
g48
V10.3109/14756369609038223
p132
sg44
VJ ENZYM INHIB
p133
sg46
V11
p134
sg69
(lp135
(VDITTRICH
VN
tp136
asg52
I1996
sg42
V67
p137
sbag1
(g2
g3
NtRp138
(dp139
g48
V10.1023/A:1006165919928
p140
sg44
VPLANT MOL BIOL
p141
sg46
V39
p142
sg69
(lp143
(VEL
VMAAROUF H
tp144
asg52
I1999
sg42
VLANT
p145
sbag1
(g2
g3
NtRp146
(dp147
g48
V10.1105/tpc.9.12.2183
p148
sg44
VPLANT CELL
p149
sg46
V9
sg69
(lp150
(VFAN
VL
tp151
asg52
I1997
sg42
VLANT
p152
sbag1
(g2
g3
NtRp153
(dp154
g48
V10.1105/tpc.12.1.111
p155
sg44
VPLANT CELL
p156
sg46
V12
p157
sg69
(lp158
(VFRANK
VW
tp159
asg52
I2000
sg42
VLANT
p160
sbag1
(g2
g3
NtRp161
(dp162
g48
Nsg44
VJ BIOL CHEM
p163
sg46
V270
p164
sg69
(lp165
(VHAMMOND
VS M
tp166
asg52
I1995
sg42
V29640
p167
sbag1
(g2
g3
NtRp168
(dp169
g48
Nsg44
VJ BIOL CHEM
p170
sg46
V169
p171
sg69
(lp172
(VHANAHAN
VD J
tp173
asg52
I1947
sg42
V699
p174
sbag1
(g2
g3
NtRp175
(dp176
g48
V10.1073/pnas.96.21.12192
p177
sg44
VP NATL ACAD SCI USA
p178
sg46
V96
p179
sg69
(lp180
(VJACOB
VT
tp181
asg52
I1999
sg42
V12192
p182
sbag1
(g2
g3
NtRp183
(dp184
g48
V10.1016/0014-5793(96)00205-0
p185
sg44
VFEBS LETT
p186
sg46
V383
p187
sg69
(lp188
(VKANFER
VJ N
tp189
asg52
I1996
sg42
V6
sbag1
(g2
g3
NtRp190
(dp191
g48
Nsg44
VJ BIOCHEM
p192
sg46
V123
p193
sg69
(lp194
(VKAWABE
VK
tp195
asg52
I1998
sg42
V870
p196
sbag1
(g2
g3
NtRp197
(dp198
g48
Nsg44
VJ BIOL CHEM
p199
sg46
V271
p200
sg69
(lp201
(VKIM
VJ H
tp202
asg52
I1996
sg42
V25213
p203
sbag1
(g2
g3
NtRp204
(dp205
g48
Nsg44
VMET MATER
p206
sg46
V3
sg69
(lp207
(VLEE
VT
tp208
asg52
I1997
sg42
V272
p209
sbag1
(g2
g3
NtRp210
(dp211
g48
Nsg44
VJ BIOL CHEM
p212
sg46
V271
p213
sg69
(lp214
(VLUKOWSKI
VS
tp215
asg52
I1996
sg42
V36
p216
sbag1
(g2
g3
NtRp217
(dp218
g48
V10.1016/S0005-2760(97)00158-6
p219
sg44
VBBA
p220
sg46
V1389
p221
sg69
(lp222
(VMUNNIK
VT
tp223
asg52
I1998
sg42
V222
p224
sbag1
(g2
g3
NtRp225
(dp226
g48
Nsg44
VJ BIOL CHEM
p227
sg46
V272
p228
sg69
(lp229
(VPAPPAN
VK
tp230
asg52
I1997
sg42
V7048
p231
sbag1
(g2
g3
NtRp232
(dp233
g48
V10.1006/abbi.1998.0640
p234
sg44
VARCH BIOCHEM BIOPHYS
p235
sg46
V353
p236
sg69
(lp237
(VPAPPAN
VK
tp238
asg52
I1998
sg42
V131
p239
sbag1
(g2
g3
NtRp240
(dp241
g48
V10.1073/pnas.95.5.2697
p242
sg44
VP NATL ACAD SCI USA
p243
sg46
V95
p244
sg69
(lp245
(VRITCHIE
VS
tp246
asg52
I1998
sg42
V2697
p247
sbag1
(g2
g3
NtRp248
(dp249
g48
V10.1073/pnas.94.23.12717
p250
sg44
VP NATL ACAD SCI USA
p251
sg46
V94
p252
sg69
(lp253
(VRYU
VS B
tp254
asg52
I1997
sg42
V12717
p255
sbag1
(g2
g3
NtRp256
(dp257
g48
Nsg44
VPLANT J
p258
sg46
V28
p259
sg69
(lp260
(VSANG
VY
tp261
asg52
I2001
sg42
VLANT
p262
sbag1
(g2
g3
NtRp263
(dp264
g48
V10.1016/0009-3084(86)90022-8
p265
sg44
VCHEM PHYS LIPIDS
p266
sg46
V41
p267
sg69
(lp268
(VSCHMID
VP C
tp269
asg52
I1986
sg42
V195
p270
sbag1
(g2
g3
NtRp271
(dp272
g48
Nsg44
VSENESCENCE AGING PLA
p273
sg46
Nsg69
(lp274
(VTHOMPSON
VJ E
tp275
asg52
I1988
sg42
V51
p276
sbag1
(g2
g3
NtRp277
(dp278
g48
V10.1104/pp.121.4.1299
p279
sg44
VPLANT PHYSIOL
p280
sg46
V121
p281
sg69
(lp282
(VTRIPATHY
VS
tp283
asg52
I1999
sg42
VLANT
p284
sbag1
(g2
g3
NtRp285
(dp286
g48
Nsg44
VJ BIOL CHEM
p287
sg46
V271
p288
sg69
(lp289
(VVENABLE
VM E
tp290
asg52
I1996
sg42
V24800
p291
sbag1
(g2
g3
NtRp292
(dp293
g48
V10.1104/pp.127.3.1102
p294
sg44
VPLANT PHYSIOL
p295
sg46
V127
p296
sg69
(lp297
(VWANG
VC X
tp298
asg52
I2001
sg42
VLANT
p299
sbag1
(g2
g3
NtRp300
(dp301
g48
V10.1146/annurev.arplant.52.1.211
p302
sg44
VANNU REV PLANT PHYS
p303
sg46
V52
p304
sg69
(lp305
(VWANG
VX M
tp306
asg52
I2001
sg42
V211
p307
sbag1
(g2
g3
NtRp308
(dp309
g48
V10.1016/S0163-7827(00)00002-3
p310
sg44
VPROG LIPID RES
p311
sg46
V39
p312
sg69
(lp313
(VWANG
VX M
tp314
asg52
I2000
sg42
VROG
p315
sbasb.