ccopy_reg
_reconstructor
p1
(ctethne.classes.paper
Paper
p2
c__builtin__
object
p3
NtRp4
(dp5
S'publisherCity'
p6
VROCKVILLE
p7
sS'reprintAddress'
p8
VO'Neill, MA (reprint author), Univ Georgia, Complex Carbohydrate Res Ctr, 220 Riverbend Rd, Athens, GA 30602 USA.
p9
sS'WC'
p10
VPlant Sciences
p11
sS'GA'
p12
V256UX
p13
sS'abstract'
p14
VThe walls of suspension-cultured Chenopodium album L. cells grown continually for more than 1 year on B-deficient medium contained monomeric rhamnogalacturonan II (mRG-II) but not the borate ester cross-linked RG II dimer (dRG-II-B). The walls of these cells had an increased size limit for dextran permeation, which is a measure of wall pore size. Adding boric acid to growing B-deficient cells resulted in B binding to the wall, the formation of dRG-II-B from mRG-II, and a reduction in wall pore size within an min. The wall pore size of denatured B-grown cells was increased by treatment at pH less than or equal to 2.0 or by treatment with Ca2+-chelating agents. The acid-mediated increase in wall pore size was prevented by boric acid alone at pH 2.0 and by boric acid together with Ca2+, but not by Na+ or Mg2+ ions at pH 1.5. The Ca2+-chelator-mediated increase in pore size was partially reduced by boric acid. Our results suggest that B-mediated cross-linking of RG-II in the walls of living plant cells generates a pectin network with a decreased size exclusion limit for polymers. The formation, stability, and possible functions of a borate ester cross-linked pectic network in the primary walls of nongraminaceous plant cells are discussed.
p15
sS'pageEnd'
p16
I838
sS'publisherAddress'
p17
V15501 MONONA DRIVE, ROCKVILLE, MD 20855 USA
p18
sS'documentType'
p19
VArticle
p20
sS'subject'
p21
VPlant Sciences
p22
sS'isoSource'
p23
VPlant Physiol.
p24
sS'timesCited'
p25
(lp26
I126
aVZ9 133
p27
asS'PT'
p28
VJ
sS'title'
p29
VThe Pore Size Of Non-Graminaceous Plant Cell Walls Is Rapidly Decreased By Borate Ester Cross-Linking Of The Pectic Polysaccharide Rhamnogalacturonan Ii
p30
sS'ISSN'
p31
(lp32
V0032-0889
p33
aVJ9 PLANT PHYSIOL
p34
asS'authors_full'
p35
(lp36
(VFLEISCHER
VA
tp37
a(VONEILL
VMA
tp38
a(VEHWALD
VR
tp39
asS'PG'
p40
I10
sS'PD'
p41
VNOV
p42
sS'pageStart'
p43
I829
sS'issue'
p44
I3
sS'journal'
p45
VPLANT PHYSIOLOGY
p46
sS'volume'
p47
V121
p48
sS'doi'
p49
V10.1104/pp.121.3.829
p50
sS'authorAddress'
p51
(lp52
VUniv Georgia, Complex Carbohydrate Res Ctr, Athens, GA 30602 USA.
p53
aVHumboldt Univ, Inst Biol, D-10115 Berlin, Germany.
p54
asS'date'
p55
I1999
sS'ER'
p56
V
sS'publisher'
p57
VAMER SOC PLANT PHYSIOLOGISTS
p58
sS'authorKeywords'
p59
(lp60
VCULTURED CHENOPODIUM-ALBUM
p61
aVSTRUCTURAL CHARACTERIZATION
p62
aVBORON REQUIREMENT
p63
aVDAUCUS-CAROTA
p64
aVCOMPLEX
p65
aVPOROSITY
p66
aVCHROMATOGRAPHY
p67
aVSEPARATION
p68
aVNUTRITION
p69
aVTISSUES
p70
asS'language'
p71
VEnglish
p72
sS'wosid'
p73
VWOS:000083745800016
p74
sS'citationCount'
p75
I46
sS'authors_init'
p76
(lp77
(VFLEISCHER
VA
tp78
a(VONEILL
VM A
tp79
a(VEHWALD
VR
tp80
asS'citedReferences'
p81
(lp82
g1
(g2
g3
NtRp83
(dp84
g49
V10.1007/BF00396345
p85
sg45
VPLANTA
p86
sg47
V175
p87
sg76
(lp88
(VBARONEPEL
VO
tp89
asg55
I1988
sg43
VLANTA
p90
sbag1
(g2
g3
NtRp91
(dp92
g49
V10.1034/j.1399-3054.1996.970215.x
p93
sg45
VPHYSIOL PLANTARUM
p94
sg47
V97
p95
sg76
(lp96
(VBEHRENDT
VU
tp97
asg55
I1996
sg43
VHYSIOL
p98
sbag1
(g2
g3
NtRp99
(dp100
g49
V10.1104/pp.54.6.931
p101
sg45
VPLANT PHYSIOL
p102
sg47
V54
p103
sg76
(lp104
(VBIRNBAUM
VE H
tp105
asg55
I1974
sg43
VLANT
p106
sbag1
(g2
g3
NtRp107
(dp108
g49
V10.1016/0003-2697(73)90377-1
p109
sg45
VANAL BIOCHEM
p110
sg47
V54
p111
sg76
(lp112
(VBLUMENKRN
S''
tp113
asg55
I1973
sg43
V484
p114
sbag1
(g2
g3
NtRp115
(dp116
g49
V10.1104/pp.115.4.1329
p117
sg45
VPLANT PHYSIOL
p118
sg47
V115
p119
sg76
(lp120
(VBONILLA
VI
tp121
asg55
I1997
sg43
VLANT
p122
sbag1
(g2
g3
NtRp123
(dp124
g49
V10.1023/A:1004245823080
p125
sg45
VPLANT SOIL
p126
sg47
V196
p127
sg76
(lp128
(VBROWN
VP H
tp129
asg55
I1997
sg43
VLANT
p130
sbag1
(g2
g3
NtRp131
(dp132
g49
V10.1126/science.205.4411.1144
p133
sg45
VSCIENCE
p134
sg47
V205
p135
sg76
(lp136
(VCARPITA
VN
tp137
asg55
I1979
sg43
V1144
p138
sbag1
(g2
g3
NtRp139
(dp140
g49
V10.1111/j.1365-313X.1993.tb00007.x
p141
sg45
VPLANT J
p142
sg47
V3
sg76
(lp143
(VCARPITA
VN C
tp144
asg55
I1993
sg43
VLANT
p145
sbag1
(g2
g3
NtRp146
(dp147
g49
V10.1126/science.218.4574.813
p148
sg45
VSCIENCE
p149
sg47
V218
p150
sg76
(lp151
(VCARPITA
VN C
tp152
asg55
I1982
sg43
V813
p153
sbag1
(g2
g3
NtRp154
(dp155
g49
V10.1146/annurev.cellbio.13.1.171
p156
sg45
VANNU REV CELL DEV BI
p157
sg47
V13
p158
sg76
(lp159
(VCOSGROVE
VD J
tp160
asg55
I1997
sg43
V171
p161
sbag1
(g2
g3
NtRp162
(dp163
g49
Nsg45
VIN PRESS J MEMBR SCI
p164
sg47
Nsg76
(lp165
(VDAUTZENBERG
VH
tp166
asg55
I1999
sg43
Nsbag1
(g2
g3
NtRp167
(dp168
g49
V10.1023/A:1004264009230
p169
sg45
VPLANT SOIL
p170
sg47
V193
p171
sg76
(lp172
(VDELL
VB
tp173
asg55
I1997
sg43
VLANT
p174
sbag1
(g2
g3
NtRp175
(dp176
g49
V10.1016/S0021-9673(01)88764-1
p177
sg45
VJ CHROMATOGR
p178
sg47
V542
p179
sg76
(lp180
(VEHWALD
VR
tp181
asg55
I1991
sg43
V239
p182
sbag1
(g2
g3
NtRp183
(dp184
g49
V10.1016/0031-9422(92)83441-Z
p185
sg45
VPHYTOCHEMISTRY
p186
sg47
V31
p187
sg76
(lp188
(VEHWALD
VR
tp189
asg55
I1992
sg43
VHYTOCHEMISTRY
p190
sbag1
(g2
g3
NtRp191
(dp192
g49
Nsg45
VBOT ACTA
p193
sg47
V109
p194
sg76
(lp195
(VFINDEKLEE
VP
tp196
asg55
I1996
sg43
V1
sbag1
(g2
g3
NtRp197
(dp198
g49
V10.1104/pp.117.4.1401
p199
sg45
VPLANT PHYSIOL
p200
sg47
V117
p201
sg76
(lp202
(VFLEISCHER
VA
tp203
asg55
I1998
sg43
VLANT
p204
sbag1
(g2
g3
NtRp205
(dp206
g49
Nsg45
VJ PLANT PHYSIOL
p207
sg47
V123
p208
sg76
(lp209
(VGOLDBACH
VH
tp210
asg55
I1986
sg43
V263
p211
sbag1
(g2
g3
NtRp212
(dp213
g49
Nsg45
VCAN J BOT
p214
sg47
V58
p215
sg76
(lp216
(VHIRSCH
VA M
tp217
asg55
I1980
sg43
V856
p218
sbag1
(g2
g3
NtRp219
(dp220
g49
Nsg45
VPLANT PHYSIOL
p221
sg47
V105
p222
sg76
(lp223
(VHU
VH I
tp224
asg55
I1994
sg43
VLANT
p225
sbag1
(g2
g3
NtRp226
(dp227
g49
V10.1093/jxb/47.2.227
p228
sg45
VJ EXP BOT
p229
sg47
V47
p230
sg76
(lp231
(VHU
VH N
tp232
asg55
I1996
sg43
V227
p233
sbag1
(g2
g3
NtRp234
(dp235
g49
V10.1016/0008-6215(96)00010-9
p236
sg45
VCARBOHYD RES
p237
sg47
V284
p238
sg76
(lp239
(VISHII
VT
tp240
asg55
I1996
sg43
V1
sbag1
(g2
g3
NtRp241
(dp242
g49
V10.1016/S0031-9422(96)00539-0
p243
sg45
VPHYTOCHEMISTRY
p244
sg47
V44
p245
sg76
(lp246
(VKANEKO
VS
tp247
asg55
I1997
sg43
VHYTOCHEMISTRY
p248
sbag1
(g2
g3
NtRp249
(dp250
g49
Nsg45
VBIOL ZBL
p251
sg47
V107
p252
sg76
(lp253
(VKNOSCHE
VR
tp254
asg55
I1988
sg43
V653
p255
sbag1
(g2
g3
NtRp256
(dp257
g49
Nsg45
VPLANT CELL PHYSIOL
p258
sg47
V38
p259
sg76
(lp260
(VKOBAYASHI
VM
tp261
asg55
I1997
sg43
VLANT
p262
sbag1
(g2
g3
NtRp263
(dp264
g49
Nsg45
VPLANT PHYSIOL
p265
sg47
V110
p266
sg76
(lp267
(VKOBAYASHI
VM
tp268
asg55
I1996
sg43
VLANT
p269
sbag1
(g2
g3
NtRp270
(dp271
g49
V10.1104/pp.119.1.199
p272
sg45
VPLANT PHYSIOL
p273
sg47
V119
p274
sg76
(lp275
(VKOBAYASHI
VM
tp276
asg55
I1999
sg43
VLANT
p277
sbag1
(g2
g3
NtRp278
(dp279
g49
V10.1016/S0031-9422(00)94822-2
p280
sg45
VPHYTOCHEMISTRY
p281
sg47
V35
p282
sg76
(lp283
(VKOPPITZ
VH
tp284
asg55
I1994
sg43
VHYTOCHEMISTRY
p285
sbag1
(g2
g3
NtRp286
(dp287
g49
Nsg45
VSoil Science and Plant Nutrition
p288
sg47
V22
p289
sg76
(lp290
(VKOUCHI
VH
tp291
asg55
I1976
sg43
V53
p292
sbag1
(g2
g3
NtRp293
(dp294
g49
Nsg45
VBIOFACTORS
p295
sg47
V3
sg76
(lp296
(VLOOMIS
VW D
tp297
asg55
I1992
sg43
V229
p298
sbag1
(g2
g3
NtRp299
(dp300
g49
V10.1021/ac60320a022
p301
sg45
VANAL CHEM
p302
sg47
V44
p303
sg76
(lp304
(VMAIR
VJ W
tp305
asg55
I1972
sg43
V2015
p306
sbag1
(g2
g3
NtRp307
(dp308
g49
V10.1023/A:1004207824251
p309
sg45
VPLANT SOIL
p310
sg47
V193
p311
sg76
(lp312
(VMATOH
VT
tp313
asg55
I1997
sg43
VLANT
p314
sbag1
(g2
g3
NtRp315
(dp316
g49
Nsg45
VPLANT CELL PHYSIOL
p317
sg47
V37
p318
sg76
(lp319
(VMATOH
VT
tp320
asg55
I1996
sg43
VLANT
p321
sbag1
(g2
g3
NtRp322
(dp323
g49
V10.1007/BF02507164
p324
sg45
VJ PLANT RES
p325
sg47
V111
p326
sg76
(lp327
(VMATOH
VT
tp328
asg55
I1998
sg43
V179
p329
sbag1
(g2
g3
NtRp330
(dp331
g49
Nsg45
VJ EXP BOT
p332
sg47
V45
p333
sg76
(lp334
(VMCCANN
VM C
tp335
asg55
I1994
sg43
V1683
p336
sbag1
(g2
g3
NtRp337
(dp338
g49
V10.1111/j.1399-3054.1962.tb08052.x
p339
sg45
VPHYSIOL PLANTARUM
p340
sg47
V15
p341
sg76
(lp342
(VMURASHIGE
VT
tp343
asg55
I1962
sg43
VHYSIOL
p344
sbag1
(g2
g3
NtRp345
(dp346
g49
V10.1016/S0031-9422(97)00663-8
p347
sg45
VPHYTOCHEMISTRY
p348
sg47
V48
p349
sg76
(lp350
(VNEEDS
VP W
tp351
asg55
I1998
sg43
VHYTOCHEMISTRY
p352
sbag1
(g2
g3
NtRp353
(dp354
g49
Nsg45
VMETHODS PLANT BIOCH
p355
sg47
V2
sg76
(lp356
(VO'NEILL
VM
tp357
asg55
I1990
sg43
V415
p358
sbag1
(g2
g3
NtRp359
(dp360
g49
Nsg45
VJ BIOL CHEM
p361
sg47
V271
p362
sg76
(lp363
(VONEILL
VM A
tp364
asg55
I1996
sg43
V22923
p365
sbag1
(g2
g3
NtRp366
(dp367
g49
V10.1016/0008-6215(96)00139-5
p368
sg45
VCARBOHYD RES
p369
sg47
V290
p370
sg76
(lp371
(VPELLERIN
VP
tp372
asg55
I1996
sg43
V183
p373
sbag1
(g2
g3
NtRp374
(dp375
g49
Nsg45
VMOD METHOD PLANT
p376
sg47
V17
p377
sg76
(lp378
(VREAD
VS H
tp379
asg55
I1996
sg43
V63
p380
sbag1
(g2
g3
NtRp381
(dp382
g49
V10.1093/jxb/15.3.495
p383
sg45
VJ EXP BOT
p384
sg47
V15
p385
sg76
(lp386
(VSLACK
VC R
tp387
asg55
I1964
sg43
V495
p388
sbag1
(g2
g3
NtRp389
(dp390
g49
V10.1007/s004250050197
p391
sg45
VPLANTA
p392
sg47
V203
p393
sg76
(lp394
(VTITEL
VC
tp395
asg55
I1997
sg43
VLANTA
p396
sbag1
(g2
g3
NtRp397
(dp398
g49
V10.1111/j.1399-3054.1956.tb07827.x
p399
sg45
VPHYSIOL PLANTARUM
p400
sg47
V9
sg76
(lp401
(VTORSSELL
VK
tp402
asg55
I1956
sg43
VHYSIOL
p403
sbag1
(g2
g3
NtRp404
(dp405
g49
V10.1016/0008-6215(94)00002-W
p406
sg45
VCARBOHYD RES
p407
sg47
V271
p408
sg76
(lp409
(VWHITCOMBE
VA J
tp410
asg55
I1995
sg43
V15
p411
sbag1
(g2
g3
NtRp412
(dp413
g49
V10.1016/0021-9673(95)00407-E
p414
sg45
VJ CHROMATOGR A
p415
sg47
V708
p416
sg76
(lp417
(VWOEHLECKE
VH
tp418
asg55
I1995
sg43
V263
p419
sbag1
(g2
g3
NtRp420
(dp421
g49
Nsg45
VMETHOD ENZYMOL
p422
sg47
V118
p423
sg76
(lp424
(VYORK
VW S
tp425
asg55
I1985
sg43
V3
sbasb.