ccopy_reg
_reconstructor
p1
(ctethne.classes.paper
Paper
p2
c__builtin__
object
p3
NtRp4
(dp5
S'publisherCity'
p6
VROCKVILLE
p7
sS'reprintAddress'
p8
VChrispeels, MJ (reprint author), Univ Calif San Diego, San Diego, CA 92103 USA.
p9
sS'WC'
p10
VPlant Sciences
p11
sS'GA'
p12
V275VF
p13
sS'pageEnd'
p14
I2
sS'publisherAddress'
p15
V15501 MONONA DRIVE, ROCKVILLE, MD 20855 USA
p16
sS'documentType'
p17
VEditorial Material
p18
sS'subject'
p19
VPlant Sciences
p20
sS'isoSource'
p21
VPlant Physiol.
p22
sS'timesCited'
p23
(lp24
I1
aVZ9 1
p25
asS'PT'
p26
VJ
sS'title'
p27
VNew Initiatives To Sustain Our Forward Momentum
p28
sS'ISSN'
p29
(lp30
V0032-0889
p31
aVJ9 PLANT PHYSIOL
p32
asS'authors_full'
p33
(lp34
(VCHRISPEELS
VMJ
tp35
a(VRAIKHEL
VNV
tp36
asS'PG'
p37
I2
sS'PD'
p38
VJAN
p39
sS'pageStart'
p40
I1
sS'issue'
p41
I1
sS'journal'
p42
VPLANT PHYSIOLOGY
p43
sS'volume'
p44
V122
p45
sS'authorAddress'
p46
(lp47
VUniv Calif San Diego, San Diego, CA 92103 USA.
p48
aVMichigan State Univ, E Lansing, MI 48824 USA.
p49
asS'date'
p50
I2000
sS'ER'
p51
V
sS'publisher'
p52
VAMER SOC PLANT PHYSIOLOGISTS
p53
sS'doi'
p54
V10.1104/pp.122.1.1
p55
sS'language'
p56
VEnglish
p57
sS'wosid'
p58
VWOS:000084840300001
p59
sS'citationCount'
p60
I0
sS'authors_init'
p61
(lp62
(VCHRISPEELS
VM J
tp63
a(VRAIKHEL
VN V
tp64
asb.