ccopy_reg
_reconstructor
p1
(ctethne.classes.paper
Paper
p2
c__builtin__
object
p3
NtRp4
(dp5
S'publisherCity'
p6
VROCKVILLE
p7
sS'reprintAddress'
p8
VTobe, SS (reprint author), Univ Toronto, Dept Zool, 25 Harbord St, Toronto, ON M5S 3G5, Canada.
p9
sS'WC'
p10
VPlant Sciences
p11
sS'GA'
p12
V492AY
p13
sS'abstract'
p14
VIn most insect species, juvenile hormones regulate critical physiological processes such as metamorphosis and reproduction. In insects, these sesquiterpenoids are synthesized by retrocerebral endocrine organs, the corpora allata, via the classical mevalonate (MVA) pathway. One of these compounds, juvenile hormone III (JH 111), has also been identified in the sedge Cyperus iria. In higher plants, biosynthesis of the sesquiterpenoid backbone may proceed through two distinct pathways: the MVA pathway or the 2C-methyl erythritol 4-phosphate pathway or through a combination of both pathways. Cell suspension cultures of C. iria were used to elucidate the biosynthetic pathway of JH III in the plant. Enzyme inhibition and labeling studies conclusively demonstrated that the biosynthesis Of the sesquiterpenoid backbone of JH III proceeds via the MVA pathway. Inhibitor and precursor feeding studies also suggest that later steps of JH III biosynthesis in C. iria are similar to the insect pathway and that the final enzymatic reaction in JH III biosynthesis is catalyzed by a cytochrome P(450) monooxygenase.
p15
sS'pageEnd'
p16
I593
sS'publisherAddress'
p17
V15501 MONONA DRIVE, ROCKVILLE, MD 20855 USA
p18
sS'documentType'
p19
VArticle
p20
sS'subject'
p21
VPlant Sciences
p22
sS'isoSource'
p23
VPlant Physiol.
p24
sS'timesCited'
p25
(lp26
I7
aVZ9 9
p27
asS'PT'
p28
VJ
sS'title'
p29
VBiosynthetic Pathway Of Insect Juvenile Hormone Iii In Cell Suspension Cultures Of The Sedge Cyperus Iria
p30
sS'ISSN'
p31
(lp32
V0032-0889
p33
aVJ9 PLANT PHYSIOL
p34
asS'authors_full'
p35
(lp36
(VBEDE
VJC
tp37
a(VTEAL
VPEA
tp38
a(VGOODMAN
VWG
tp39
a(VTOBE
VSS
tp40
asS'PG'
p41
I10
sS'PD'
p42
VOCT
p43
sS'pageStart'
p44
I584
sS'issue'
p45
I2
sS'journal'
p46
VPLANT PHYSIOLOGY
p47
sS'volume'
p48
V127
p49
sS'emailAddress'
p50
Vstephen.tobe@utoronto.ca
p51
sS'authorAddress'
p52
(lp53
VUniv Toronto, Dept Zool, Toronto, ON M5S 3G5, Canada.
p54
aVARS, Ctr Med Agr & Vet Entomol, USDA, Gainesville, FL 32604 USA.
p55
aVUniv Wisconsin, Dept Entomol, Russell Labs, Madison, WI 53706 USA.
p56
asS'date'
p57
I2001
sS'ER'
p58
V
sS'publisher'
p59
VAMER SOC PLANT BIOLOGISTS
p60
sS'authorKeywords'
p61
(lp62
VMEVALONATE-INDEPENDENT PATHWAY
p63
aVCOA REDUCTASE-ACTIVITY
p64
aVISOPRENOID BIOSYNTHESIS
p65
aVCORPORA ALLATA
p66
aVMETHYL FARNESOATE
p67
aV1-DEOXY-D-XYLULOSE-5-PHOSPHATE PATHWAY
p68
aVCORPUS ALLATUM
p69
aVMANDUCA-SEXTA
p70
aVESSENTIAL OIL
p71
aVPLANTS
p72
asS'language'
p73
VEnglish
p74
sS'wosid'
p75
VWOS:000172144500023
p76
sS'citationCount'
p77
I64
sS'authors_init'
p78
(lp79
(VBEDE
VJ C
tp80
a(VTEAL
VP E A
tp81
a(VGOODMAN
VW G
tp82
a(VTOBE
VS S
tp83
asS'citedReferences'
p84
(lp85
g1
(g2
g3
NtRp86
(dp87
S'doi'
p88
V10.1016/S0031-9422(97)00992-8
p89
sg46
VPHYTOCHEMISTRY
p90
sg48
V48
p91
sg78
(lp92
(VADAM
VK P
tp93
asg57
I1998
sg44
VHYTOCHEMISTRY
p94
sbag1
(g2
g3
NtRp95
(dp96
g88
Nsg46
VRECENT ADV PHYTOCHEM
p97
sg48
V24
p98
sg78
(lp99
(VBACH
VT J
tp100
asg57
I1990
sg44
V1
sbag1
(g2
g3
NtRp101
(dp102
g88
V10.1007/BF02537822
p103
sg46
VLIPIDS
p104
sg48
V30
p105
sg78
(lp106
(VBACH
VT J
tp107
asg57
I1995
sg44
V191
p108
sbag1
(g2
g3
NtRp109
(dp110
g88
Nsg46
VJ LIPID RES
p111
sg48
V24
p112
sg78
(lp113
(VBAKER
VF C
tp114
asg57
I1983
sg44
V1586
p115
sbag1
(g2
g3
NtRp116
(dp117
g88
V10.1039/np9941100303
p118
sg46
VNAT PROD REP
p119
sg48
V11
p120
sg78
(lp121
(VBANTHORPE
VD V
tp122
asg57
I1994
sg44
V303
p123
sbag1
(g2
g3
NtRp124
(dp125
g88
V10.1002/(SICI)1099-1565(200001/02)11:1<21::AID-PCA485>3.3.CO;2-1
p126
sg46
VPHYTOCHEM ANALYSIS
p127
sg48
V11
p128
sg78
(lp129
(VBEDE
VJ C
tp130
asg57
I2000
sg44
VHYTOCHEM
p131
sbag1
(g2
g3
NtRp132
(dp133
g88
V10.1007/s000490050012
p134
sg46
VCHEMOECOLOGY
p135
sg48
V10
p136
sg78
(lp137
(VBEDE
VJ C
tp138
asg57
I2000
sg44
V89
p139
sbag1
(g2
g3
NtRp140
(dp141
g88
V10.1016/S0031-9422(99)00438-0
p142
sg46
VPHYTOCHEMISTRY
p143
sg48
V52
p144
sg78
(lp145
(VBEDE
VJ C
tp146
asg57
I1999
sg44
VHYTOCHEMISTRY
p147
sbag1
(g2
g3
NtRp148
(dp149
g88
V10.1007/s002990050704
p150
sg46
VPLANT CELL REP
p151
sg48
V19
p152
sg78
(lp153
(VBEDE
VJ C
tp154
asg57
I1999
sg44
VLANT
p155
sbag1
(g2
g3
NtRp156
(dp157
g88
V10.1002/arch.940190102
p158
sg46
VARCH INSECT BIOCHEM
p159
sg48
V19
p160
sg78
(lp161
(VBRINDLE
VP A
tp162
asg57
I1992
sg44
V1
sbag1
(g2
g3
NtRp163
(dp164
g88
V10.1073/pnas.84.22.7906
p165
sg46
VP NATL ACAD SCI USA
p166
sg48
V84
p167
sg78
(lp168
(VBRINDLE
VP A
tp169
asg57
I1987
sg44
V7906
p170
sbag1
(g2
g3
NtRp171
(dp172
g88
Nsg46
VRICE DEEP WATER
p173
sg48
Nsg78
(lp174
(VCATLING
VK
tp175
asg57
I1992
sg44
Nsbag1
(g2
g3
NtRp176
(dp177
g88
Nsg46
VPLANT PHYSIOL
p178
sg48
V109
p179
sg78
(lp180
(VCHAPPELL
VJ
tp181
asg57
I1995
sg44
VLANT
p182
sbag1
(g2
g3
NtRp183
(dp184
g88
Nsg46
VECOLOGICAL CHEM BIOC
p185
sg48
Nsg78
(lp186
(VCHARLWOOD
VB V
tp187
asg57
I1991
sg44
V95
p188
sbag1
(g2
g3
NtRp189
(dp190
g88
V10.1021/ja01022a059
p191
sg46
VJ AM CHEM SOC
p192
sg48
V90
p193
sg78
(lp194
(VCOREY
VE J
tp195
asg57
I1968
sg44
V5616
p196
sbag1
(g2
g3
NtRp197
(dp198
g88
V10.1016/0020-1790(91)90058-M
p199
sg46
VINSECT BIOCHEM
p200
sg48
V21
p201
sg78
(lp202
(VCUSSON
VM
tp203
asg57
I1991
sg44
V1
sbag1
(g2
g3
NtRp204
(dp205
g88
Nsg46
VCAN ENTOMOL
p206
sg48
V132
p207
sg78
(lp208
(VCUSSON
VM
tp209
asg57
I2000
sg44
V263
p210
sbag1
(g2
g3
NtRp211
(dp212
g88
V10.1016/S1360-1385(99)01497-1
p213
sg46
VTRENDS PLANT SCI
p214
sg48
V4
sg78
(lp215
(VCUTLER
VA J
tp216
asg57
I1999
sg44
V472
p217
sbag1
(g2
g3
NtRp218
(dp219
g88
Nsg46
VFRONTIERS BIOTRANSFO
p220
sg48
V4
sg78
(lp221
(VDURST
VF
tp222
asg57
I1991
sg44
V191
p223
sbag1
(g2
g3
NtRp224
(dp225
g88
V10.1073/pnas.93.13.6431
p226
sg46
VP NATL ACAD SCI USA
p227
sg48
V93
p228
sg78
(lp229
(VEISENREICH
VW
tp230
asg57
I1996
sg44
V6431
p231
sbag1
(g2
g3
NtRp232
(dp233
g88
Nsg46
VEUR J BIOCHEM
p234
sg48
V118
p235
sg78
(lp236
(VFEYEREISEN
VR
tp237
asg57
I1981
sg44
V231
p238
sbag1
(g2
g3
NtRp239
(dp240
g88
Nsg46
VP59
p241
sg48
Nsg78
(lp242
(VGILBERT
VLAWRENCE I
tp243
asg57
I1996
sg44
V59
p244
sbag1
(g2
g3
NtRp245
(dp246
g88
V10.1016/S0021-9673(01)96161-8
p247
sg46
VJ CHROMATOGR
p248
sg48
V294
p249
sg78
(lp250
(VGOODMAN
VW G
tp251
asg57
I1984
sg44
V447
p252
sbag1
(g2
g3
NtRp253
(dp254
g88
V10.1016/0020-1790(90)90055-Y
p255
sg46
VINSECT BIOCHEM
p256
sg48
V20
p257
sg78
(lp258
(VGOODMAN
VW G
tp259
asg57
I1990
sg44
V357
p260
sbag1
(g2
g3
NtRp261
(dp262
g88
Nsg46
VJ LIPID RES
p263
sg48
V31
p264
sg78
(lp265
(VGUPTA
VA K
tp266
asg57
I1990
sg44
V203
p267
sbag1
(g2
g3
NtRp268
(dp269
g88
V10.1016/0048-3575(78)90062-7
p270
sg46
VPESTIC BIOCHEM PHYS
p271
sg48
V9
sg78
(lp272
(VHAMMOCK
VB D
tp273
asg57
I1978
sg44
VESTIC
p274
sbag1
(g2
g3
NtRp275
(dp276
g88
V10.1016/0024-3205(75)90479-8
p277
sg46
VLIFE SCI
p278
sg48
V17
p279
sg78
(lp280
(VHAMMOCK
VB D
tp281
asg57
I1975
sg44
V323
p282
sbag1
(g2
g3
NtRp283
(dp284
g88
V10.1104/pp.123.4.1257
p285
sg46
VPLANT PHYSIOL
p286
sg48
V123
p287
sg78
(lp288
(VHEMMERLIN
VA
tp289
asg57
I2000
sg44
VLANT
p290
sbag1
(g2
g3
NtRp291
(dp292
g88
Nsg46
VWORLDS WORST WEEDS
p293
sg48
Nsg78
(lp294
(VHOLM
VL G
tp295
asg57
I1977
sg44
V240
p296
sbag1
(g2
g3
NtRp297
(dp298
g88
Nsg46
VNIPPON NOGEI KAGAKU
p299
sg48
V52
p300
sg78
(lp301
(VIWAMURA
VJ
tp302
asg57
I1978
sg44
V379
p303
sbag1
(g2
g3
NtRp304
(dp305
g88
Nsg46
VNIPPON NOGEI KAGAKU
p306
sg48
V52
p307
sg78
(lp308
(VIWAMURA
VJ
tp309
asg57
I1978
sg44
V561
p310
sbag1
(g2
g3
NtRp311
(dp312
g88
Nsg46
VNIPPON NOGEI KAGAKU
p313
sg48
V53
p314
sg78
(lp315
(VIWAMURA
VJ
tp316
asg57
I1979
sg44
V343
p317
sbag1
(g2
g3
NtRp318
(dp319
g88
Nsg46
VNIPPON KAGAKU KAISHI
p320
sg48
Nsg78
(lp321
(VIWAMURA
VJ I
tp322
asg57
I1979
sg44
V255
p323
sbag1
(g2
g3
NtRp324
(dp325
g88
Nsg46
VNIPPON KAGAKU KAISHI
p326
sg48
Nsg78
(lp327
(VIWAMURA
VJ
tp328
asg57
I1978
sg44
V1552
p329
sbag1
(g2
g3
NtRp330
(dp331
g88
Nsg46
VMEM FACULTY AGR KINK
p332
sg48
V14
p333
sg78
(lp334
(VKAMAI
VK
tp335
asg57
I1981
sg44
V57
p336
sbag1
(g2
g3
NtRp337
(dp338
g88
V10.1016/0031-9422(90)85137-5
p339
sg46
VPHYTOCHEMISTRY
p340
sg48
V29
p341
sg78
(lp342
(VKIJJOA
VA
tp343
asg57
I1990
sg44
VHYTOCHEMISTRY
p344
sbag1
(g2
g3
NtRp345
(dp346
g88
V10.1016/S0040-4039(98)01755-9
p347
sg46
VTETRAHEDRON LETT
p348
sg48
V39
p349
sg78
(lp350
(VKUZUYAMA
VT
tp351
asg57
I1998
sg44
V7913
p352
sbag1
(g2
g3
NtRp353
(dp354
g88
V10.1006/abbi.1999.1168
p355
sg46
VARCH BIOCHEM BIOPHYS
p356
sg48
V365
p357
sg78
(lp358
(VLANGE
VB M
tp359
asg57
I1999
sg44
V170
p360
sbag1
(g2
g3
NtRp361
(dp362
g88
Nsg46
VJ LABELLED COMPD RAD
p363
sg48
V29
p364
sg78
(lp365
(VLATLI
VB
tp366
asg57
I1991
sg44
V1168
p367
sbag1
(g2
g3
NtRp368
(dp369
g88
Nsg46
VBIOSYNTHESIS ISOPREN
p370
sg48
V2
sg78
(lp371
(VLAW
VJ H
tp372
asg57
I1981
sg44
V507
p373
sbag1
(g2
g3
NtRp374
(dp375
g88
V10.1016/S0014-5793(96)01404-4
p376
sg46
VFEBS LETT
p377
sg48
V400
p378
sg78
(lp379
(VLICHTENTHALER
VH K
tp380
asg57
I1997
sg44
V271
p381
sbag1
(g2
g3
NtRp382
(dp383
g88
V10.1146/annurev.arplant.50.1.47
p384
sg46
VANNU REV PLANT PHYS
p385
sg48
V50
p386
sg78
(lp387
(VLICHTENTHALER
VH K
tp388
asg57
I1999
sg44
V47
p389
sbag1
(g2
g3
NtRp390
(dp391
g88
Nsg46
VMETHOD ENZYMOL
p392
sg48
V148
p393
sg78
(lp394
(VLICHTENTHALER
VH K
tp395
asg57
I1987
sg44
V350
p396
sbag1
(g2
g3
NtRp397
(dp398
g88
Nsg46
VMETHOD ENZYMOL
p399
sg48
V110
p400
sg78
(lp401
(VMONGER
VD J
tp402
asg57
I1985
sg44
V51
p403
sbag1
(g2
g3
NtRp404
(dp405
g88
Nsg46
VZ NATURFORSCH C
p406
sg48
V36
p407
sg78
(lp408
(VPETER
VM G
tp409
asg57
I1981
sg44
V579
p410
sbag1
(g2
g3
NtRp411
(dp412
g88
V10.1002/(SICI)1521-3773(19981002)37:18<2478::AID-ANIE2478>3.0.CO;2-Q
p413
sg46
VANGEW CHEM INT EDIT
p414
sg48
V37
p415
sg78
(lp416
(VPIEL
VJ
tp417
asg57
I1998
sg44
V2478
p418
sbag1
(g2
g3
NtRp419
(dp420
g88
Nsg46
VBIOCHEM J
p421
sg48
V295
p422
sg78
(lp423
(VROHMER
VM
tp424
asg57
I1993
sg44
V517
p425
sbag1
(g2
g3
NtRp426
(dp427
g88
V10.1039/a709175c
p428
sg46
VNAT PROD REP
p429
sg48
V16
p430
sg78
(lp431
(VROHMER
VM
tp432
asg57
I1999
sg44
V565
p433
sbag1
(g2
g3
NtRp434
(dp435
g88
Nsg46
VCAN J BOTANY
p436
sg48
V50
p437
sg78
(lp438
(VSCHENK
VR U
tp439
asg57
I1972
sg44
V199
p440
sbag1
(g2
g3
NtRp441
(dp442
g88
Nsg46
VCOMPREHENSIVE INSECT
p443
sg48
V7
sg78
(lp444
(VSCHOOLEY
VD A
tp445
asg57
I1985
sg44
V363
p446
sbag1
(g2
g3
NtRp447
(dp448
g88
Nsg46
VJ AM MOSQUITO CONTR
p449
sg48
V14
p450
sg78
(lp451
(VSCHWARTZ
VA M
tp452
asg57
I1998
sg44
V78
p453
sbag1
(g2
g3
NtRp454
(dp455
g88
V10.1002/arch.940020207
p456
sg46
VARCH INSECT BIOCHEM
p457
sg48
V2
sg78
(lp458
(VSPARAGANA
VS P
tp459
asg57
I1985
sg44
V191
p460
sbag1
(g2
g3
NtRp461
(dp462
g88
Nsg46
VJ LIPID RES
p463
sg48
V35
p464
sg78
(lp465
(VSTERMER
VB A
tp466
asg57
I1994
sg44
V1133
p467
sbag1
(g2
g3
NtRp468
(dp469
g88
V10.1016/0303-7207(96)03825-7
p470
sg46
VMOL CELL ENDOCRINOL
p471
sg48
V120
p472
sg78
(lp473
(VSUTHERLAND
VT D
tp474
asg57
I1996
sg44
V115
p475
sbag1
(g2
g3
NtRp476
(dp477
g88
V10.1146/annurev.en.20.010175.001225
p478
sg46
VANNU REV ENTOMOL
p479
sg48
V20
p480
sg78
(lp481
(VSVOBODA
VJ A
tp482
asg57
I1975
sg44
V205
p483
sbag1
(g2
g3
NtRp484
(dp485
g88
V10.1006/abio.1999.4377
p486
sg46
VANAL BIOCHEM
p487
sg48
V277
p488
sg78
(lp489
(VTEAL
VP E A
tp490
asg57
I2000
sg44
V206
p491
sbag1
(g2
g3
NtRp492
(dp493
g88
Nsg46
VADV INSECT PHYSIOL
p494
sg48
V18
p495
sg78
(lp496
(VTOBE
VS S
tp497
asg57
I1985
sg44
V305
p498
sbag1
(g2
g3
NtRp499
(dp500
g88
V10.1038/333170a0
p501
sg46
VNATURE
p502
sg48
V333
p503
sg78
(lp504
(VTOONG
VY C
tp505
asg57
I1988
sg44
V170
p506
sbag1
(g2
g3
NtRp507
(dp508
g88
Nsg46
VVITIS
p509
sg48
VITIS
p510
sg78
(lp511
(VVERSINI
VG
tp512
asg57
I1994
sg44
V139
p513
sbag1
(g2
g3
NtRp514
(dp515
g88
V10.1016/0003-9861(91)90178-L
p516
sg46
VARCH BIOCHEM BIOPHYS
p517
sg48
V288
p518
sg78
(lp519
(VVOGELI
VU
tp520
asg57
I1991
sg44
V157
p521
sbag1
(g2
g3
NtRp522
(dp523
g88
V10.1016/0022-1910(94)90045-0
p524
sg46
VJ INSECT PHYSIOL
p525
sg48
V40
p526
sg78
(lp527
(VWANG
VZ W
tp528
asg57
I1994
sg44
V217
p529
sbag1
(g2
g3
NtRp530
(dp531
g88
Nsg46
VBIOCH PLANT SECONDAR
p532
sg48
V2
sg78
(lp533
(VWINK
VM
tp534
asg57
I1999
sg44
V1
sbag1
(g2
g3
NtRp535
(dp536
g88
V10.1080/00397919008051535
p537
sg46
VSYNTHETIC COMMUN
p538
sg48
V20
p539
sg78
(lp540
(VXIAO
VX Y
tp541
asg57
I1990
sg44
V3125
p542
sbag1
(g2
g3
NtRp543
(dp544
g88
Nsg46
VZ NATURFORSCH C
p545
sg48
V53
p546
sg78
(lp547
(VZEIDLER
VJ
tp548
asg57
I1998
sg44
V980
p549
sbasb.