ccopy_reg
_reconstructor
p1
(ctethne.classes.paper
Paper
p2
c__builtin__
object
p3
NtRp4
(dp5
S'publisherCity'
p6
VROCKVILLE
p7
sS'reprintAddress'
p8
VJackson, PAP (reprint author), Inst Tecnol Quim & Biol, Apartado 127, P-2781901 Oeiras, Portugal.
p9
sS'WC'
p10
VPlant Sciences
p11
sS'GA'
p12
V493YN
p13
sS'abstract'
p14
VElicitation or peroxide stimulation of grape (Vitis vinifera L. cv Touriga) vine callus cultures results in the rapid and selective in situ insolubilization of an abundant and ionically bound cell wall protein-denominated GvP1. Surface-enhanced laser desorption/ionization/time of flight-mass spectrometry analysis, the amino acid composition, and the N-terminal sequence of purified GvP1 identified it as an 89.9-kD extensin. Analysis of cell walls following the in situ insolubilization of GvP1 indicates large and specific increases in the major amino acids of GvP1 as compared with the amino acids present in salt-eluted cell walls. We calculate that following deposition, covalently bound GvP1 contributes up to 4% to 5% of the cell wall dry weight. The deposition of GvP1 in situ requires peroxide and endogenous peroxidase activity. Isoelectric focusing of saline eluates of callus revealed only a few basic peroxidases that were all isolated or purified to electrophoretic homogeneity. In vitro and in situ assays of extensin cross-linking activity using GvP1 and peroxidases showed that a 40-kD peroxidase cross-linked GvP1 within minutes, whereas other grapevine peroxidases had no significant activity with GvP1. Internal peptide sequences indicated this extensin peroxidase (EP) is a member of the class III peroxidases. We conclude that we have identified and purified an EP from grapevine callus that is responsible for the catalysis of GvP1 deposition in situ during elicitation. Our results suggest that GvP1 and this EP play an important combined role in grapevine cell wall defense.
p15
sS'pageEnd'
p16
I1076
sS'publisherAddress'
p17
V15501 MONONA DRIVE, ROCKVILLE, MD 20855 USA
p18
sS'documentType'
p19
VArticle
p20
sS'subject'
p21
VPlant Sciences
p22
sS'isoSource'
p23
VPlant Physiol.
p24
sS'timesCited'
p25
(lp26
I38
aVZ9 41
p27
asS'PT'
p28
VJ
sS'title'
p29
VRapid Deposition Of Extensin During The Elicitation Of Grapevine Callus Cultures Is Specifically Catalyzed By A 40-Kilodalton Peroxidase
p30
sS'ISSN'
p31
(lp32
V0032-0889
p33
aVJ9 PLANT PHYSIOL
p34
asS'authors_full'
p35
(lp36
(VJACKSON
VPAP
tp37
a(VGALINHA
VCIR
tp38
a(VPEREIRA
VCS
tp39
a(VFORTUNATO
VA
tp40
a(VSOARES
VNC
tp41
a(VAMANCIO
VSBQ
tp42
a(VRICARDO
VCPP
tp43
asS'PG'
p44
I12
sS'PD'
p45
VNOV
p46
sS'pageStart'
p47
I1065
sS'issue'
p48
I3
sS'RI'
p49
VRicardo, Candido/B-7891-2008; Silva Pereira, Cristina/F-3150-2011
p50
sS'journal'
p51
VPLANT PHYSIOLOGY
p52
sS'volume'
p53
V127
p54
sS'doi'
p55
V10.1104/pp.010192
p56
sS'authorAddress'
p57
(lp58
VInst Tecnol Quim & Biol, P-2781901 Oeiras, Portugal.
p59
aVInst Super Agron, Tapada Ajuda, P-1349017 Lisbon, Portugal.
p60
asS'date'
p61
I2001
sS'ER'
p62
V
sS'publisher'
p63
VAMER SOC PLANT BIOLOGISTS
p64
sS'authorKeywords'
p65
(lp66
VOXIDATIVE CROSS-LINKING
p67
aVHYDROXYPROLINE-RICH GLYCOPROTEIN
p68
aVCELL WALL PROTEINS
p69
aVHORSERADISH-PEROXIDASE
p70
aVDISEASE RESISTANCE
p71
aVTOMATO EXTENSIN
p72
aVIN-VITRO
p73
aVSUSPENSION-CULTURES
p74
aVCRYSTAL-STRUCTURE
p75
aVTOBACCO EXTENSIN
p76
asS'language'
p77
VEnglish
p78
sS'wosid'
p79
VWOS:000172251200037
p80
sS'citationCount'
p81
I42
sS'authors_init'
p82
(lp83
(VJACKSON
VP A P
tp84
a(VGALINHA
VC I R
tp85
a(VPEREIRA
VC S
tp86
a(VFORTUNATO
VA
tp87
a(VSOARES
VN C
tp88
a(VAMANCIO
VS B Q
tp89
a(VRICARDO
VC P P
tp90
asS'citedReferences'
p91
(lp92
g1
(g2
g3
NtRp93
(dp94
g55
Nsg51
VPLANT J
p95
sg53
V2
sg82
(lp96
(VBALDWIN
VT C
tp97
asg61
I1992
sg47
VLANT
p98
sbag1
(g2
g3
NtRp99
(dp100
g55
V10.3109/10715769509065273
p101
sg51
VFREE RADICAL RES
p102
sg53
V23
p103
sg82
(lp104
(VBOLWELL
VG P
tp105
asg61
I1995
sg47
V517
p106
sbag1
(g2
g3
NtRp107
(dp108
g55
V10.1104/pp.116.4.1379
p109
sg51
VPLANT PHYSIOL
p110
sg53
V116
p111
sg82
(lp112
(VBOLWELL
VG P
tp113
asg61
I1998
sg47
VLANT
p114
sbag1
(g2
g3
NtRp115
(dp116
g55
V10.1016/0092-8674(92)90530-P
p117
sg51
VCELL
p118
sg53
V70
p119
sg82
(lp120
(VBRADLEY
VD J
tp121
asg61
I1992
sg47
V21
p122
sbag1
(g2
g3
NtRp123
(dp124
g55
Nsg51
VPLANT CELL
p125
sg53
V6
sg82
(lp126
(VBRISSON
VL F
tp127
asg61
I1994
sg47
VLANT
p128
sbag1
(g2
g3
NtRp129
(dp130
g55
Nsg51
VBIOCHEM J
p131
sg53
V320
p132
sg82
(lp133
(VBROWNLEADER
VM D
tp134
asg61
I1996
sg47
V577
p135
sbag1
(g2
g3
NtRp136
(dp137
g55
Nsg51
VPLANT PHYSIOL
p138
sg53
V109
p139
sg82
(lp140
(VBROWNLEADER
VM D
tp141
asg61
I1995
sg47
VLANT
p142
sbag1
(g2
g3
NtRp143
(dp144
g55
Nsg51
VPLANTA
p145
sg53
V191
p146
sg82
(lp147
(VBROWNLEADER
VM D
tp148
asg61
I1993
sg47
VLANTA
p149
sbag1
(g2
g3
NtRp150
(dp151
g55
V10.1104/pp.115.3.1039
p152
sg51
VPLANT PHYSIOL
p153
sg53
V115
p154
sg82
(lp155
(VBUSAM
VG
tp156
asg61
I1997
sg47
VLANT
p157
sbag1
(g2
g3
NtRp158
(dp159
g55
V10.1146/annurev.arplant.49.1.281
p160
sg51
VANNU REV PLANT PHYS
p161
sg53
V49
p162
sg82
(lp163
(VCASSAB
VG I
tp164
asg61
I1998
sg47
V281
p165
sbag1
(g2
g3
NtRp166
(dp167
g55
V10.1104/pp.116.2.659
p168
sg51
VPLANT PHYSIOL
p169
sg53
V116
p170
sg82
(lp171
(VCAZALE
VA C
tp172
asg61
I1998
sg47
VLANT
p173
sbag1
(g2
g3
NtRp174
(dp175
g55
V10.1016/0968-0004(87)90012-0
p176
sg51
VTRENDS BIOCHEM SCI
p177
sg53
V12
p178
sg82
(lp179
(VCOOPER
VJ B
tp180
asg61
I1987
sg47
V24
p181
sbag1
(g2
g3
NtRp182
(dp183
g55
V10.1104/pp.76.2.414
p184
sg51
VPLANT PHYSIOL
p185
sg53
V76
p186
sg82
(lp187
(VCOOPER
VJ B
tp188
asg61
I1984
sg47
VLANT
p189
sbag1
(g2
g3
NtRp190
(dp191
g55
V10.1007/s004250050117
p192
sg51
VPLANTA
p193
sg53
V202
p194
sg82
(lp195
(VDEY
VP M
tp196
asg61
I1997
sg47
VLANTA
p197
sbag1
(g2
g3
NtRp198
(dp199
g55
Nsg51
VPLANT PHYSIOL
p200
sg53
V64
p201
sg82
(lp202
(VESQERRETUGAYE
VM
tp203
asg61
I1979
sg47
VLANT
p204
sbag1
(g2
g3
NtRp205
(dp206
g55
V10.1104/pp.87.3.616
p207
sg51
VPLANT PHYSIOL
p208
sg53
V87
p209
sg82
(lp210
(VEVERDEEN
VD S
tp211
asg61
I1988
sg47
VLANT
p212
sbag1
(g2
g3
NtRp213
(dp214
g55
V10.1016/S0031-9422(98)00004-1
p215
sg51
VPHYTOCHEMISTRY
p216
sg53
V48
p217
sg82
(lp218
(VFRAHRY
VG
tp219
asg61
I1998
sg47
VHYTOCHEMISTRY
p220
sbag1
(g2
g3
NtRp221
(dp222
g55
V10.1038/nsb1297-1032
p223
sg51
VNAT STRUCT BIOL
p224
sg53
V4
sg82
(lp225
(VGAJHEDE
VM
tp226
asg61
I1997
sg47
V1032
p227
sbag1
(g2
g3
NtRp228
(dp229
g55
Nsg51
VZ PFLANZENPHYSIOL
p230
sg53
V110
p231
sg82
(lp232
(VGOLDBERG
VR
tp233
asg61
I1983
sg47
V267
p234
sbag1
(g2
g3
NtRp235
(dp236
g55
Nsg51
VMOL PLANT PATHOL
p237
sg53
V2
sg82
(lp238
(VHAHN
VM G
tp239
asg61
I1992
sg47
V103
p240
sbag1
(g2
g3
NtRp241
(dp242
g55
V10.1038/361153a0
p243
sg51
VNATURE
p244
sg53
V361
p245
sg82
(lp246
(VHAIN
VR
tp247
asg61
I1993
sg47
V153
p248
sbag1
(g2
g3
NtRp249
(dp250
g55
V10.1023/A:1005738815383
p251
sg51
VPLANT MOL BIOL
p252
sg53
V33
p253
sg82
(lp254
(VHIRSINGER
VC
tp255
asg61
I1997
sg47
VLANT
p256
sbag1
(g2
g3
NtRp257
(dp258
g55
Nsg51
VPLANTA
p259
sg53
V194
p260
sg82
(lp261
(VJACKSON
VP
tp262
asg61
I1994
sg47
VLANTA
p263
sbag1
(g2
g3
NtRp264
(dp265
g55
Nsg51
VAUST J PLANT PHYSL
p266
sg53
V26
p267
sg82
(lp268
(VJACKSON
VP
tp269
asg61
I1999
sg47
V313
p270
sbag1
(g2
g3
NtRp271
(dp272
g55
V10.1007/BF00293146
p273
sg51
VMOL GEN GENET
p274
sg53
V247
p275
sg82
(lp276
(VKAWALLECK
VP
tp277
asg61
I1995
sg47
V444
p278
sbag1
(g2
g3
NtRp279
(dp280
g55
V10.1046/j.1365-313X.1994.05020157.x
p281
sg51
VPLANT J
p282
sg53
V5
sg82
(lp283
(VKIELISZEWSKI
VM J
tp284
asg61
I1994
sg47
VLANT
p285
sbag1
(g2
g3
NtRp286
(dp287
g55
Nsg51
VNATURE
p288
sg53
V227
p289
sg82
(lp290
(VLAEMMLI
VU K
tp291
asg61
I1970
sg47
V670
p292
sbag1
(g2
g3
NtRp293
(dp294
g55
V10.1016/0092-8674(94)90544-4
p295
sg51
VCELL
p296
sg53
V79
p297
sg82
(lp298
(VLEVINE
VA
tp299
asg61
I1994
sg47
V583
p300
sbag1
(g2
g3
NtRp301
(dp302
g55
V10.1093/jexbot/49.326.1491
p303
sg51
VJ EXP BOT
p304
sg53
V49
p305
sg82
(lp306
(VMAGLIANO
VT M A
tp307
asg61
I1998
sg47
V1491
p308
sbag1
(g2
g3
NtRp309
(dp310
g55
V10.1046/j.1365-313X.1993.04061011.x
p311
sg51
VPLANT J
p312
sg53
V4
sg82
(lp313
(VMEMELINK
VJ
tp314
asg61
I1993
sg47
VLANT
p315
sbag1
(g2
g3
NtRp316
(dp317
g55
V10.1107/S0907444999016340
p318
sg51
VACTA CRYSTALLOGR D
p319
sg53
V56
p320
sg82
(lp321
(VMIRZA
VO
tp322
asg61
I2000
sg47
V372
p323
sbag1
(g2
g3
NtRp324
(dp325
g55
V10.1016/S0031-9422(99)00463-X
p326
sg51
VPHYTOCHEMISTRY
p327
sg53
V53
p328
sg82
(lp329
(VOTTE
VO
tp330
asg61
I2000
sg47
VHYTOCHEMISTRY
p331
sbag1
(g2
g3
NtRp332
(dp333
g55
V10.1104/pp.121.1.197
p334
sg51
VPLANT PHYSIOL
p335
sg53
V121
p336
sg82
(lp337
(VPAPADAKIS
VA K
tp338
asg61
I1999
sg47
VLANT
p339
sbag1
(g2
g3
NtRp340
(dp341
g55
V10.1007/BF00043652
p342
sg51
VPLANT MOL BIOL
p343
sg53
V29
p344
sg82
(lp345
(VPARMENTIER
VY
tp346
asg61
I1995
sg47
VLANT
p347
sbag1
(g2
g3
NtRp348
(dp349
g55
V10.1104/pp.108.4.1691
p350
sg51
VPLANT PHYSIOL
p351
sg53
V108
p352
sg82
(lp353
(VQI
VX Y
tp354
asg61
I1995
sg47
VLANT
p355
sbag1
(g2
g3
NtRp356
(dp357
g55
V10.1046/j.1365-313X.1996.09040477.x
p358
sg51
VPLANT J
p359
sg53
V9
sg82
(lp360
(VSCHNABELRAUCH
VL S
tp361
asg61
I1996
sg47
VLANT
p362
sbag1
(g2
g3
NtRp363
(dp364
g55
V10.1016/S0969-2126(96)00035-4
p365
sg51
VSTRUCTURE
p366
sg53
V4
sg82
(lp367
(VSCHULLER
VD J
tp368
asg61
I1996
sg47
V311
p369
sbag1
(g2
g3
NtRp370
(dp371
g55
V10.1007/BF00019559
p372
sg51
VPLANT MOL BIOL
p373
sg53
V30
p374
sg82
(lp375
(VSHIRSAT
VA H
tp376
asg61
I1996
sg47
VLANT
p377
sbag1
(g2
g3
NtRp378
(dp379
g55
Nsg51
VPLANT CELL
p380
sg53
V5
sg82
(lp381
(VSHOWALTER
VA M
tp382
asg61
I1993
sg47
VLANT
p383
sbag1
(g2
g3
NtRp384
(dp385
g55
V10.1007/BF00023421
p386
sg51
VPLANT MOL BIOL
p387
sg53
V16
p388
sg82
(lp389
(VSHOWALTER
VA M
tp390
asg61
I1991
sg47
VLANT
p391
sbag1
(g2
g3
NtRp392
(dp393
g55
V10.1111/j.1432-1033.1979.tb13061.x
p394
sg51
VEUR J BIOCHEM
p395
sg53
V96
p396
sg82
(lp397
(VWELINDER
VK G
tp398
asg61
I1979
sg47
V483
p399
sbag1
(g2
g3
NtRp400
(dp401
g55
V10.1016/S0014-5793(97)00166-X
p402
sg51
VFEBS LETT
p403
sg53
V405
p404
sg82
(lp405
(VWOJTASZEK
VP
tp406
asg61
I1997
sg47
V95
p407
sbasb.