ccopy_reg
_reconstructor
p1
(ctethne.classes.paper
Paper
p2
c__builtin__
object
p3
NtRp4
(dp5
S'publisherCity'
p6
VROCKVILLE
p7
sS'reprintAddress'
p8
VSagi, M (reprint author), Ben Gurion Univ Negev, Plant Stress Lab, French Associates Inst Agr & Biotechnol Drylands, Blaustein Inst Desert Res, IL-84990 Sede Boqer Campus, Israel.
p9
sS'WC'
p10
VPlant Sciences
p11
sS'GA'
p12
V062ZP
p13
sS'FX'
p14
(lp15
VThis work was supported by the Chief Scientist, Ministry of Agriculture
p16
aVand Rural Development, Israel (grant no. 857-0549-08).
p17
asS'abstract'
p18
VLittle is known about the homeostasis of sulfite levels, a cytotoxic by-product of plant sulfur turnover. By employing extended dark to induce catabolic pathways, we followed key elements of the sulfite network enzymes that include adenosine-5'-phosphosulfate reductase and the sulfite scavengers sulfite oxidase (SO), sulfite reductase, UDP-sulfoquinovose synthase, and beta-mercaptopyruvate sulfurtransferases. During extended dark, SO was enhanced in tomato (Solanum lycopersicum) wild-type leaves, while the other sulfite network components were down-regulated. SO RNA interference plants lacking SO activity accumulated sulfite, resulting in leaf damage and mortality. Exogenous sulfite application induced up-regulation of the sulfite scavenger activities in dark-stressed or unstressed wild-type plants, while expression of the sulfite producer, adenosine-5'-phosphosulfate reductase, was down-regulated. Unstressed or dark-stressed wild-type plants were resistant to sulfite applications, but SO RNA interference plants showed sensitivity and overaccumulation of sulfite. Hence, under extended dark stress, SO activity is necessary to cope with rising endogenous sulfite levels. However, under nonstressed conditions, the sulfite network can control sulfite levels in the absence of SO activity. The novel evidence provided by the synchronous dark-induced turnover of sulfur-containing compounds, augmented by exogenous sulfite applications, underlines the role of SO and other sulfite network components in maintaining sulfite homeostasis, where sulfite appears to act as an orchestrating signal molecule.
p19
sS'pageEnd'
p20
I164
sS'date'
p21
I2013
sS'documentType'
p22
VArticle
p23
sS'subject'
p24
VPlant Sciences
p25
sS'isoSource'
p26
VPlant Physiol.
p27
sS'timesCited'
p28
(lp29
I0
aVZ9 0
p30
asS'funding'
p31
(lp32
(VMinistry of Agriculture and Rural Development, Israel
V857-0549-08
tp33
asS'PT'
p34
VJ
sS'title'
p35
VAn Essential Role For Tomato Sulfite Oxidase And Enzymes Of The Sulfite Network In Maintaining Leaf Sulfite Homeostasis
p36
sS'ISSN'
p37
(lp38
V0032-0889
p39
aVJ9 PLANT PHYSIOL
p40
asS'authors_full'
p41
(lp42
(VBRYCHKOVA
VGALINA
tp43
a(VGRISHKEVICH
VVLADISLAV
tp44
a(VFLUHR
VROBERT
tp45
a(VSAGI
VMOSHE
tp46
asS'PG'
p47
I17
sS'PD'
p48
VJAN
p49
sS'pageStart'
p50
I148
sS'issue'
p51
I1
sS'RI'
p52
VSAGI, MOSHE/F-1777-2012
p53
sS'journal'
p54
VPLANT PHYSIOLOGY
p55
sS'volume'
p56
V161
p57
sS'doi'
p58
V10.1104/pp.112.208660
p59
sS'emailAddress'
p60
Vgizi@bgu.ac.il
p61
sS'authorAddress'
p62
(lp63
V[Brychkova, Galina; Grishkevich, Vladislav; Sagi, Moshe] Ben Gurion Univ Negev, Plant Stress Lab, French Associates Inst Agr & Biotechnol Drylands, Blaustein Inst Desert Res, IL-84990 Sede Boqer Campus, Israel.
p64
aV[Fluhr, Robert] Weizmann Inst Sci, Dept Plant Sci, IL-76100 Rehovot, Israel.
p65
asS'publisherAddress'
p66
V15501 MONONA DRIVE, ROCKVILLE, MD 20855 USA
p67
sS'ER'
p68
V
sS'publisher'
p69
VAMER SOC PLANT BIOLOGISTS
p70
sS'authorKeywords'
p71
(lp72
VASSIMILATORY SULFATE REDUCTION
p73
aVCYTOSOLIC GLUTAMINE-SYNTHETASE
p74
aVTRANSGENIC TOBACCO PLANTS
p75
aVARABIDOPSIS-THALIANA
p76
aVSULFUR METABOLISM
p77
aVIN-VITRO
p78
aV5'-ADENYLYLSULFATE REDUCTASE
p79
aVION CHROMATOGRAPHY
p80
aVAMINO-ACIDS
p81
aVSENESCENCE
p82
asS'language'
p83
VEnglish
p84
sS'wosid'
p85
VWOS:000312964000014
p86
sS'citationCount'
p87
I79
sS'authors_init'
p88
(lp89
(VBRYCHKOVA
VG
tp90
a(VGRISHKEVICH
VV
tp91
a(VFLUHR
VR
tp92
a(VSAGI
VM
tp93
asS'citedReferences'
p94
(lp95
g1
(g2
g3
NtRp96
(dp97
g58
Nsg54
VJ NUTR
p98
sg56
V118
p99
sg88
(lp100
(VAMY
VN K
tp101
asg21
I1988
sg50
V941
p102
sbag1
(g2
g3
NtRp103
(dp104
g58
Nsg54
VCAN J BIOCHEM PHYS
p105
sg56
V37
p106
sg88
(lp107
(VBLIGH
VE G
tp108
asg21
I1959
sg50
V911
p109
sbag1
(g2
g3
NtRp110
(dp111
g58
Nsg54
VPLANT PHYSIOL BIOCH
p112
sg56
V29
p113
sg88
(lp114
(VBOSMA
VW
tp115
asg21
I1991
sg50
VLANT
p116
sbag1
(g2
g3
NtRp117
(dp118
g58
V10.1006/abio.1976.9999
p119
sg54
VANAL BIOCHEM
p120
sg56
V72
p121
sg88
(lp122
(VBRADFORD
VM M
tp123
asg21
I1976
sg50
V248
p124
sbag1
(g2
g3
NtRp125
(dp126
g58
V10.1016/j.plantsci.2012.04.004
p127
sg54
VPLANT SCI
p128
sg56
V190
p129
sg88
(lp130
(VBRYCHKOVA
VG
tp131
asg21
I2012
sg50
VLANT
p132
sbag1
(g2
g3
NtRp133
(dp134
g58
V10.1093/pcp/pcs084
p135
sg54
VPLANT CELL PHYSIOL
p136
sg56
V53
p137
sg88
(lp138
(VBRYCHKOVA
VG
tp139
asg21
I2012
sg50
VLANT
p140
sbag1
(g2
g3
NtRp141
(dp142
g58
V10.1111/j.1365-313X.2008.03440.x
p143
sg54
VPLANT J
p144
sg56
V54
p145
sg88
(lp146
(VBRYCHKOVA
VG
tp147
asg21
I2008
sg50
VLANT
p148
sbag1
(g2
g3
NtRp149
(dp150
g58
V10.1111/j.1365-313X.2007.03080.x
p151
sg54
VPLANT J
p152
sg56
V50
p153
sg88
(lp154
(VBRYCHKOVA
VG
tp155
asg21
I2007
sg50
VLANT
p156
sbag1
(g2
g3
NtRp157
(dp158
g58
Nsg54
VPlant Signal Behav
p159
sg56
V3
sg88
(lp160
(VBRYCHKOVA
VGALINA
tp161
asg21
I2008
sg50
Vlant
p162
sbag1
(g2
g3
NtRp163
(dp164
g58
V10.1093/pcp/pcs091
p165
sg54
VPLANT CELL PHYSIOL
p166
sg56
V53
p167
sg88
(lp168
(VBRYCHKOVA
VG
tp169
asg21
I2012
sg50
VLANT
p170
sbag1
(g2
g3
NtRp171
(dp172
g58
V10.1016/S0981-9428(01)01305-5
p173
sg54
VPLANT PHYSIOL BIOCH
p174
sg56
V39
p175
sg88
(lp176
(VBURANDT
VP
tp177
asg21
I2001
sg50
VLANT
p178
sbag1
(g2
g3
NtRp179
(dp180
g58
Nsg54
VSOIL SCI SOC AM J
p181
sg56
V47
p182
sg88
(lp183
(VBUSMAN
VL M
tp184
asg21
I1983
sg50
V1167
p185
sbag1
(g2
g3
NtRp186
(dp187
g58
V10.1034/j.1399-3054.1995.940308.x
p188
sg54
VPHYSIOL PLANTARUM
p189
sg56
V94
p190
sg88
(lp191
(VCRAMER
VM D
tp192
asg21
I1995
sg50
VHYSIOL
p193
sbag1
(g2
g3
NtRp194
(dp195
g58
V10.1093/mp/ssq001
p196
sg54
VMOL PLANT
p197
sg56
V3
sg88
(lp198
(VDAVIDIAN
VJ C
tp199
asg21
I2010
sg50
V314
p200
sbag1
(g2
g3
NtRp201
(dp202
g58
V10.1061/(ASCE)EE.1943-7870.0000489
p203
sg54
VJ ENVIRON ENG
p204
sg56
V138
p205
sg88
(lp206
(VDOTSON
VA
tp207
asg21
I2012
sg50
V393
p208
sbag1
(g2
g3
NtRp209
(dp210
g58
V10.1074/jbc.M108078200
p211
sg54
VJ BIOL CHEM
p212
sg56
V276
p213
sg88
(lp214
(VEILERS
VT
tp215
asg21
I2001
sg50
V46989
p216
sbag1
(g2
g3
NtRp217
(dp218
g58
V10.1186/1471-2229-8-131
p219
sg54
VBMC PLANT BIOL
p220
sg56
V8
sg88
(lp221
(VEXPOSITO-RODRIGUEZ
VM
tp222
asg21
I2008
sg50
Nsbag1
(g2
g3
NtRp223
(dp224
g58
V10.1007/s10545-011-9279-7
p225
sg54
VJ INHERIT METAB DIS
p226
sg56
V34
p227
sg88
(lp228
(VFOOTITT
VE J
tp229
asg21
I2011
sg50
V529
p230
sbag1
(g2
g3
NtRp231
(dp232
g58
Nsg54
VBIOCHEM J
p233
sg56
V104
p234
sg88
(lp235
(VGAITONDE
VM K
tp236
asg21
I1967
sg50
V627
p237
sbag1
(g2
g3
NtRp238
(dp239
g58
V10.1016/0003-2697(80)90139-6
p240
sg54
VANAL BIOCHEM
p241
sg56
V106
p242
sg88
(lp243
(VGRIFFITH
VO W
tp244
asg21
I1980
sg50
V207
p245
sbag1
(g2
g3
NtRp246
(dp247
g58
V10.1105/tpc.105.037770
p248
sg54
VPLANT CELL
p249
sg56
V17
p250
sg88
(lp251
(VGUO
VF Q
tp252
asg21
I2005
sg50
VLANT
p253
sbag1
(g2
g3
NtRp254
(dp255
g58
V10.1111/j.1365-313X.2008.03415.x
p256
sg54
VPLANT J
p257
sg56
V54
p258
sg88
(lp259
(VHACHAM
VY
tp260
asg21
I2008
sg50
VLANT
p261
sbag1
(g2
g3
NtRp262
(dp263
g58
V10.1046/j.0960-7412.2001.01209.x
p264
sg54
VPLANT J
p265
sg56
V29
p266
sg88
(lp267
(VHAJIREZAEI
VM R
tp268
asg21
I2002
sg50
VLANT
p269
sbag1
(g2
g3
NtRp270
(dp271
g58
V10.1074/jbc.M513054200
p272
sg54
VJ BIOL CHEM
p273
sg56
V281
p274
sg88
(lp275
(VHANSCH
VR
tp276
asg21
I2006
sg50
V6884
p277
sbag1
(g2
g3
NtRp278
(dp279
g58
V10.1007/s11120-005-5221-x
p280
sg54
VPHOTOSYNTH RES
p281
sg56
V86
p282
sg88
(lp283
(VHANSCH
VR
tp284
asg21
I2005
sg50
VHOTOSYNTH
p285
sbag1
(g2
g3
NtRp286
(dp287
g58
Nsg54
VSULFUR METABOLISM PH
p288
sg56
Nsg88
(lp289
(VHANSCH
VR
tp290
asg21
I2008
sg50
V539
p291
sbag1
(g2
g3
NtRp292
(dp293
g58
V10.1093/jexbot/49.suppl_1.361
p294
sg54
VJ EXP BOT
p295
sg56
V49
p296
sg88
(lp297
(VHARTUNG
VW
tp298
asg21
I1998
sg50
V361
p299
sbag1
(g2
g3
NtRp300
(dp301
g58
V10.1074/mcp.M700340-MCP200
p302
sg54
VMOL CELL PROTEOMICS
p303
sg56
V7
sg88
(lp304
(VHEBELER
VR
tp305
asg21
I2008
sg50
V108
p306
sbag1
(g2
g3
NtRp307
(dp308
g58
Nsg54
VINT REV CYTOL
p309
sg56
V177
p310
sg88
(lp311
(VHEBER
VU
tp312
asg21
I1998
sg50
V255
p313
sbag1
(g2
g3
NtRp314
(dp315
g58
V10.1093/jexbot/53.370.927
p316
sg54
VJ EXP BOT
p317
sg56
V53
p318
sg88
(lp319
(VHORTENSTEINER
VS
tp320
asg21
I2002
sg50
V927
p321
sbag1
(g2
g3
NtRp322
(dp323
g58
V10.4161/psb.5.2.10410
p324
sg54
VPlant Signal Behav
p325
sg56
V5
sg88
(lp326
(VISLAM
VM D SAYEEDUL
tp327
asg21
I2010
sg50
Vlant
p328
sbag1
(g2
g3
NtRp329
(dp330
g58
V10.1104/pp.96.2.411
p331
sg54
VPLANT PHYSIOL
p332
sg56
V96
p333
sg88
(lp334
(VKAMACHI
VK
tp335
asg21
I1991
sg50
VLANT
p336
sbag1
(g2
g3
NtRp337
(dp338
g58
V10.1104/pp.88.4.1430
p339
sg54
VPLANT PHYSIOL
p340
sg56
V88
p341
sg88
(lp342
(VKAWAKAMI
VN
tp343
asg21
I1988
sg50
VLANT
p344
sbag1
(g2
g3
NtRp345
(dp346
g58
V10.1104/pp.105.066845
p347
sg54
VPLANT PHYSIOL
p348
sg56
V139
p349
sg88
(lp350
(VKESKITALO
VJ
tp351
asg21
I2005
sg50
VLANT
p352
sbag1
(g2
g3
NtRp353
(dp354
g58
V10.1105/tpc.110.074088
p355
sg54
VPLANT CELL
p356
sg56
V22
p357
sg88
(lp358
(VKHAN
VM S
tp359
asg21
I2010
sg50
VLANT
p360
sbag1
(g2
g3
NtRp361
(dp362
g58
Nsg54
VPLANT PHYSIOL
p363
sg56
V114
p364
sg88
(lp365
(VKHOZIN
VI
tp366
asg21
I1997
sg50
VLANT
p367
sbag1
(g2
g3
NtRp368
(dp369
g58
V10.1021/ja00812a025
p370
sg54
VJ AM CHEM SOC
p371
sg56
V96
p372
sg88
(lp373
(VKING
VL H
tp374
asg21
I1974
sg50
V1410
p375
sbag1
(g2
g3
NtRp376
(dp377
g58
V10.1093/aob/mc1006
p378
sg54
VANN BOT
p379
sg56
V97
p380
sg88
(lp381
(VKOPRIVA
VS
tp382
asg21
I2006
sg50
V479
p383
sbag1
(g2
g3
NtRp384
(dp385
g58
V10.1046/j.1365-313X.1999.00573.x
p386
sg54
VPLANT J
p387
sg56
V20
p388
sg88
(lp389
(VKOPRIVA
VS
tp390
asg21
I1999
sg50
VLANT
p391
sbag1
(g2
g3
NtRp392
(dp393
g58
V10.1007/s00299-009-0793-0
p394
sg54
VPLANT CELL REP
p395
sg56
V28
p396
sg88
(lp397
(VKOPRIVA
VS
tp398
asg21
I2009
sg50
VLANT
p399
sbag1
(g2
g3
NtRp400
(dp401
g58
V10.1111/j.1365-3040.2006.01632.x
p402
sg54
VPLANT CELL ENVIRON
p403
sg56
V30
p404
sg88
(lp405
(VLANG
VC
tp406
asg21
I2007
sg50
VLANT
p407
sbag1
(g2
g3
NtRp408
(dp409
g58
V10.1146/annurev.arplant.51.1.141
p410
sg54
VANNU REV PLANT PHYS
p411
sg56
V51
p412
sg88
(lp413
(VLEUSTEK
VT
tp414
asg21
I2000
sg50
V141
p415
sbag1
(g2
g3
NtRp416
(dp417
g58
V10.1199/tab.0017
p418
sg54
VArabidopsis Book
p419
sg56
V1
sg88
(lp420
(VLEUSTEK
VTHOMAS
tp421
asg21
I2002
sg50
Ve0017
p422
sbag1
(g2
g3
NtRp423
(dp424
g58
V10.1016/S0003-2670(01)95332-2
p425
sg54
VANAL CHIM ACTA
p426
sg56
V141
p427
sg88
(lp428
(VLINDGREN
VM
tp429
asg21
I1982
sg50
V279
p430
sbag1
(g2
g3
NtRp431
(dp432
g58
V10.1007/s11120-005-9006-z
p433
sg54
VPHOTOSYNTH RES
p434
sg56
V86
p435
sg88
(lp436
(VMARTIN
VM N
tp437
asg21
I2005
sg50
VHOTOSYNTH
p438
sbag1
(g2
g3
NtRp439
(dp440
g58
V10.1007/s00726-005-0250-5
p441
sg54
VAMINO ACIDS
p442
sg56
V30
p443
sg88
(lp444
(VMATITYAHU
VI
tp445
asg21
I2006
sg50
V185
p446
sbag1
(g2
g3
NtRp447
(dp448
g58
Nsg54
VMETHOD ENZYMOL
p449
sg56
V69
p450
sg88
(lp451
(VMATSUMURA
VH
tp452
asg21
I1980
sg50
V465
p453
sbag1
(g2
g3
NtRp454
(dp455
g58
V10.1016/S0014-4827(03)00068-5
p456
sg54
VEXP CELL RES
p457
sg56
V287
p458
sg88
(lp459
(VMURRAY
VD B
tp460
asg21
I2003
sg50
V10
p461
sbag1
(g2
g3
NtRp462
(dp463
g58
V10.1002/9783527619658.ch33
p464
sg54
VGLOBAL ENV SCI TECHN
p465
sg56
Nsg88
(lp466
(VMURRAY
VF
tp467
asg21
I1997
sg50
V585
p468
sbag1
(g2
g3
NtRp469
(dp470
g58
V10.1046/j.1432-1327.2000.01633.x
p471
sg54
VEUR J BIOCHEM
p472
sg56
V267
p473
sg88
(lp474
(VNAKAMURA
VT
tp475
asg21
I2000
sg50
V5621
p476
sbag1
(g2
g3
NtRp477
(dp478
g58
V10.1186/1746-4811-8-11
p479
sg54
VPLANT METHODS
p480
sg56
V8
sg88
(lp481
(VNETTING
VA G
tp482
asg21
I2012
sg50
VLANT
p483
sbag1
(g2
g3
NtRp484
(dp485
g58
V10.1074/jbc.M109.081356
p486
sg54
VJ BIOL CHEM
p487
sg56
V285
p488
sg88
(lp489
(VOHTSU
VI
tp490
asg21
I2010
sg50
V17479
p491
sbag1
(g2
g3
NtRp492
(dp493
g58
V10.1105/tpc.016428
p494
sg54
VPLANT CELL
p495
sg56
V15
p496
sg88
(lp497
(VOIKAWA
VK
tp498
asg21
I2003
sg50
VLANT
p499
sbag1
(g2
g3
NtRp500
(dp501
g58
Nsg54
VTHESIS U MUNICH MUNI
p502
sg56
Nsg88
(lp503
(VPACHMAYR
VF
tp504
asg21
I1960
sg50
Nsbag1
(g2
g3
NtRp505
(dp506
g58
V10.1093/jxb/erj035
p507
sg54
VJ EXP BOT
p508
sg56
V57
p509
sg88
(lp510
(VPAGEAU
VK
tp511
asg21
I2006
sg50
V547
p512
sbag1
(g2
g3
NtRp513
(dp514
g58
V10.1007/s00726-010-0478-6
p515
sg54
VAMINO ACIDS
p516
sg56
V41
p517
sg88
(lp518
(VPAPENBROCK
VJ
tp519
asg21
I2011
sg50
V43
p520
sbag1
(g2
g3
NtRp521
(dp522
g58
V10.1046/j.1432-1327.2000.00980.x
p523
sg54
VEUR J BIOCHEM
p524
sg56
V267
p525
sg88
(lp526
(VPAPENBROCK
VJ
tp527
asg21
I2000
sg50
V145
p528
sbag1
(g2
g3
NtRp529
(dp530
g58
V10.1046/j.1432-1327.2000.01623.x
p531
sg54
VEUR J BIOCHEM
p532
sg56
V267
p533
sg88
(lp534
(VPAPENBROCK
VJ
tp535
asg21
I2000
sg50
V5571
p536
sbag1
(g2
g3
NtRp537
(dp538
g58
V10.1104/pp.70.4.994
p539
sg54
VPLANT PHYSIOL
p540
sg56
V70
p541
sg88
(lp542
(VPEISER
VG D
tp543
asg21
I1982
sg50
VLANT
p544
sbag1
(g2
g3
NtRp545
(dp546
g58
V10.1104/pp.105.065870
p547
sg54
VPLANT PHYSIOL
p548
sg56
V139
p549
sg88
(lp550
(VPRUZINSKA
VA
tp551
asg21
I2005
sg50
VLANT
p552
sbag1
(g2
g3
NtRp553
(dp554
g58
V10.1111/j.1365-3040.2011.02420.x
p555
sg54
VPLANT CELL ENVIRON
p556
sg56
V35
p557
sg88
(lp558
(VRANDEWIG
VD
tp559
asg21
I2012
sg50
VLANT
p560
sbag1
(g2
g3
NtRp561
(dp562
g58
V10.1016/S1369-5266(00)00063-7
p563
sg54
VCURR OPIN PLANT BIOL
p564
sg56
V3
sg88
(lp565
(VSAITO
VK
tp566
asg21
I2000
sg50
V188
p567
sbag1
(g2
g3
NtRp568
(dp569
g58
V10.1074/jbc.M008200200
p570
sg54
VJ BIOL CHEM
p571
sg56
V276
p572
sg88
(lp573
(VSANDA
VS
tp574
asg21
I2001
sg50
V3941
p575
sbag1
(g2
g3
NtRp576
(dp577
g58
V10.1016/j.plipres.2011.02.003
p578
sg54
VPROG LIPID RES
p579
sg56
V50
p580
sg88
(lp581
(VSHIMOJIMA
VM
tp582
asg21
I2011
sg50
VROG
p583
sbag1
(g2
g3
NtRp584
(dp585
g58
V10.1016/S0003-9861(03)00112-7
p586
sg54
VARCH BIOCHEM BIOPHYS
p587
sg56
V413
p588
sg88
(lp589
(VSHIMOJIMA
VM
tp590
asg21
I2003
sg50
V123
p591
sbag1
(g2
g3
NtRp592
(dp593
g58
V10.1016/j.abb.2005.02.005
p594
sg54
VARCH BIOCHEM BIOPHYS
p595
sg56
V436
p596
sg88
(lp597
(VSHIMOJIMA
VM
tp598
asg21
I2005
sg50
V206
p599
sbag1
(g2
g3
NtRp600
(dp601
g58
V10.1016/0003-2697(65)90051-5
p602
sg54
VANAL BIOCHEM
p603
sg56
V11
p604
sg88
(lp605
(VSIEGEL
VL M
tp606
asg21
I1965
sg50
V126
p607
sbag1
(g2
g3
NtRp608
(dp609
g58
V10.1093/jxb/ern244
p610
sg54
VJ EXP BOT
p611
sg56
V59
p612
sg88
(lp613
(VSLAVIKOVA
VS
tp614
asg21
I2008
sg50
V4029
p615
sbag1
(g2
g3
NtRp616
(dp617
g58
V10.1146/annurev-arplant-042110-103921
p618
sg54
VANNU REV PLANT BIOL
p619
sg56
V62
p620
sg88
(lp621
(VTAKAHASHI
VH
tp622
asg21
I2011
sg50
V157
p623
sbag1
(g2
g3
NtRp624
(dp625
g58
V10.1105/tpc.109.068478
p626
sg54
VPLANT CELL
p627
sg56
V22
p628
sg88
(lp629
(VTESCHNER
VJ
tp630
asg21
I2010
sg50
VLANT
p631
sbag1
(g2
g3
NtRp632
(dp633
g58
V10.1046/j.1365-313X.2002.01477.x
p634
sg54
VPLANT J
p635
sg56
V32
p636
sg88
(lp637
(VTSAKRAKLIDES
VG
tp638
asg21
I2002
sg50
VLANT
p639
sbag1
(g2
g3
NtRp640
(dp641
g58
V10.1046/j.1365-313X.2002.01391.x
p642
sg54
VPLANT J
p643
sg56
V31
p644
sg88
(lp645
(VVAUCLARE
VP
tp646
asg21
I2002
sg50
VLANT
p647
sbag1
(g2
g3
NtRp648
(dp649
g58
V10.1002/elps.200500722
p650
sg54
VELECTROPHORESIS
p651
sg56
V27
p652
sg88
(lp653
(VWANG
VW
tp654
asg21
I2006
sg50
V2782
p655
sbag1
(g2
g3
NtRp656
(dp657
g58
Nsg54
VPEARSON CORRELATION
p658
sg56
Nsg88
(lp659
(VWESSA
VP
tp660
asg21
I2012
sg50
VEARSON
p661
sbag1
(g2
g3
NtRp662
(dp663
g58
V10.1093/pcp/pcr109
p664
sg54
VPLANT CELL PHYSIOL
p665
sg56
V52
p666
sg88
(lp667
(VWU
VY X
tp668
asg21
I2011
sg50
VLANT
p669
sbag1
(g2
g3
NtRp670
(dp671
g58
V10.1093/jxb/err268
p672
sg54
VJ EXP BOT
p673
sg56
V63
p674
sg88
(lp675
(VXIONG
VJ
tp676
asg21
I2012
sg50
V33
p677
sbag1
(g2
g3
NtRp678
(dp679
g58
V10.1186/1471-2229-9-68
p680
sg54
VBMC PLANT BIOL
p681
sg56
V9
sg88
(lp682
(VYANG
VB
tp683
asg21
I2009
sg50
Nsbag1
(g2
g3
NtRp684
(dp685
g58
V10.1104/pp.122.3.887
p686
sg54
VPLANT PHYSIOL
p687
sg56
V122
p688
sg88
(lp689
(VYONEKURA-SAKAKIBARA
VK
tp690
asg21
I2000
sg50
VLANT
p691
sbag1
(g2
g3
NtRp692
(dp693
g58
V10.1046/j.1365-313X.1997.12010169.x
p694
sg54
VPLANT J
p695
sg56
V12
p696
sg88
(lp697
(VZAVGORODNYAYA
VA
tp698
asg21
I1997
sg50
VLANT
p699
sbasb.