ccopy_reg
_reconstructor
p1
(ctethne.classes.paper
Paper
p2
c__builtin__
object
p3
NtRp4
(dp5
S'publisherCity'
p6
VROCKVILLE
p7
sS'reprintAddress'
p8
VDeshpande, VV (reprint author), Natl Chem Lab, Div Biochem Sci, Plant Mol Biol Unit, Pune 411008, Maharashtra, India.
p9
sS'WC'
p10
VPlant Sciences
p11
sS'GA'
p12
V245XW
p13
sS'abstract'
p14
VWe report on the efficacy of proteinase inhibitors (Pls) from three host plants (chickpea [Cicer arietinum], pigeonpea [Cajanus cajan], and cotton [Gossypium arboreum]) and three non-host (groundnut [Arachis hypogea], winged bean [Psophocarpus tetragonolobus], and potato [Solanum tuberosum]) in retarding the growth of Helicoverpa armigera larvae, a devastating pest of important crop plants. Enzyme assays and electrophoretic analysis of interaction of H. armigera gut proteinases (HGPs) with Pls revealed that non-host Pls inhibited HCP activity efficiently whereas host Pls were ineffective. in the electrophoretic assay, trypsin inhibitor activity bands were detected in all of the host and non-host plants, but HGP inhibitor activity bands were present only in non-host plants (except cotton in the host plant group). H. armigera larvae reared on a diet containing non-host Pls showed growth retardation, a reduction in total and trypsin-like proteinase activity, and the production of inhibitor-insensitive proteinases. Electrophoretic analysis of PI-induced HCP showed differential regulation of proteinase isoforms. Interestingly, HCP activity induced in response to dietary potato PI-II was inhibited by winged bean Pls. The optimized combination of potato PI-II and winged bean Pls identified in the present study and their proposed successive use has potential in developing H. armigera-resistant transgenic plants.
p15
sS'pageEnd'
p16
I506
sS'publisherAddress'
p17
V15501 MONONA DRIVE, ROCKVILLE, MD 20855 USA
p18
sS'documentType'
p19
VArticle
p20
sS'subject'
p21
VPlant Sciences
p22
sS'isoSource'
p23
VPlant Physiol.
p24
sS'timesCited'
p25
(lp26
I75
aVZ9 80
p27
asS'PT'
p28
VJ
sS'title'
p29
VSuccessive Use Of Non-Host Plant Proteinase Inhibitors Required For Effective Inhibition Of Helicoverpa Armigera Gut Proteinases And Larval Growth
p30
sS'ISSN'
p31
(lp32
V0032-0889
p33
aVJ9 PLANT PHYSIOL
p34
asS'authors_full'
p35
(lp36
(VHARSULKAR
VAM
tp37
a(VGIRI
VAP
tp38
a(VPATANKAR
VAG
tp39
a(VGUPTA
VVS
tp40
a(VSAINANI
VMN
tp41
a(VRANJEKAR
VPK
tp42
a(VDESHPANDE
VVV
tp43
asS'PG'
p44
I10
sS'PD'
p45
VOCT
p46
sS'pageStart'
p47
I497
sS'issue'
p48
I2
sS'RI'
p49
VGiri, Ashok/E-5196-2012
p50
sS'journal'
p51
VPLANT PHYSIOLOGY
p52
sS'volume'
p53
V121
p54
sS'doi'
p55
V10.1104/pp.121.2.497
p56
sS'authorAddress'
p57
VNatl Chem Lab, Div Biochem Sci, Plant Mol Biol Unit, Pune 411008, Maharashtra, India.
p58
sS'date'
p59
I1999
sS'ER'
p60
V
sS'publisher'
p61
VAMER SOC PLANT PHYSIOLOGISTS
p62
sS'authorKeywords'
p63
(lp64
VX-RAY-FILM
p65
aVPROTEASE INHIBITORS
p66
aVTRANSGENIC PLANTS
p67
aVLEPTINOTARSA-DECEMLINEATA
p68
aVPLODIA-INTERPUNCTELLA
p69
aVINSECT RESISTANCE
p70
aVBEETLE LARVAE
p71
aVTRYPSIN
p72
aVADAPTATION
p73
aVMECHANISM
p74
asS'language'
p75
VEnglish
p76
sS'wosid'
p77
VWOS:000083134700020
p78
sS'citationCount'
p79
I49
sS'authors_init'
p80
(lp81
(VHARSULKAR
VA M
tp82
a(VGIRI
VA P
tp83
a(VPATANKAR
VA G
tp84
a(VGUPTA
VV S
tp85
a(VSAINANI
VM N
tp86
a(VRANJEKAR
VP K
tp87
a(VDESHPANDE
VV V
tp88
asS'citedReferences'
p89
(lp90
g1
(g2
g3
NtRp91
(dp92
g55
Nsg51
VB ENTOMOL RES
p93
sg53
V86
p94
sg80
(lp95
(VARMES
VN J
tp96
asg59
I1996
sg47
V499
p97
sbag1
(g2
g3
NtRp98
(dp99
g55
Nsg51
VMETHOD ENZYMOL
p100
sg53
V19
p101
sg80
(lp102
(VBELEW
VM
tp103
asg59
I1970
sg47
V576
p104
sbag1
(g2
g3
NtRp105
(dp106
g55
V10.1016/0022-1910(95)00073-4
p107
sg51
VJ INSECT PHYSIOL
p108
sg53
V41
p109
sg80
(lp110
(VBOLTER
VC J
tp111
asg59
I1995
sg47
V1071
p112
sbag1
(g2
g3
NtRp113
(dp114
g55
V10.1016/S0031-9422(00)90828-8
p115
sg51
VPHYTOCHEMISTRY
p116
sg53
V34
p117
sg80
(lp118
(VBOULTER
VD
tp119
asg59
I1993
sg47
VHYTOCHEMISTRY
p120
sbag1
(g2
g3
NtRp121
(dp122
g55
V10.1016/S0965-1748(97)00043-X
p123
sg51
VINSECT BIOCHEM MOLEC
p124
sg53
V27
p125
sg80
(lp126
(VBOWN
VD P
tp127
asg59
I1997
sg47
V625
p128
sbag1
(g2
g3
NtRp129
(dp130
g55
V10.1006/abio.1976.9999
p131
sg51
VANAL BIOCHEM
p132
sg53
V72
p133
sg80
(lp134
(VBRADFORD
VM M
tp135
asg59
I1976
sg47
V248
p136
sbag1
(g2
g3
NtRp137
(dp138
g55
V10.1016/S0022-1910(97)00028-0
p139
sg51
VJ INSECT PHYSIOL
p140
sg53
V43
p141
sg80
(lp142
(VBROADWAY
VR M
tp143
asg59
I1997
sg47
V855
p144
sbag1
(g2
g3
NtRp145
(dp146
g55
Nsg51
VARCH INSECT BIOCHEM
p147
sg53
V32
p148
sg80
(lp149
(VBROADWAY
VR M
tp150
asg59
I1996
sg47
V39
p151
sbag1
(g2
g3
NtRp152
(dp153
g55
V10.1016/0022-1910(86)90097-1
p154
sg51
VJ INSECT PHYSIOL
p155
sg53
V32
p156
sg80
(lp157
(VBROADWAY
VR M
tp158
asg59
I1986
sg47
V827
p159
sbag1
(g2
g3
NtRp160
(dp161
g55
V10.1016/0022-1910(94)00101-L
p162
sg51
VJ INSECT PHYSIOL
p163
sg53
V41
p164
sg80
(lp165
(VBROADWAY
VR M
tp166
asg59
I1995
sg47
V107
p167
sbag1
(g2
g3
NtRp168
(dp169
g55
Nsg51
VAPPL ENVIRON MICROB
p170
sg53
V44
p171
sg80
(lp172
(VBROCK
VF M
tp173
asg59
I1982
sg47
V561
p174
sbag1
(g2
g3
NtRp175
(dp176
g55
V10.1016/0020-1790(89)90067-X
p177
sg51
VINSECT BIOCHEM
p178
sg53
V19
p179
sg80
(lp180
(VCHRISTELLER
VJ T
tp181
asg59
I1989
sg47
V233
p182
sbag1
(g2
g3
NtRp183
(dp184
g55
V10.1104/pp.118.3.997
p185
sg51
VPLANT PHYSIOL
p186
sg53
V118
p187
sg80
(lp188
(VDE
VL E O F
tp189
asg59
I1998
sg47
VLANT
p190
sbag1
(g2
g3
NtRp191
(dp192
g55
V10.2307/2406212
p193
sg51
VEVOLUTION
p194
sg53
V18
p195
sg80
(lp196
(VEHRLICH
VP R
tp197
asg59
I1964
sg47
V586
p198
sbag1
(g2
g3
NtRp199
(dp200
g55
V10.1016/0003-9861(61)90145-X
p201
sg51
VARCH BIOCHEM BIOPHYS
p202
sg53
V95
p203
sg80
(lp204
(VERLANGER
VB F
tp205
asg59
I1961
sg47
V271
p206
sbag1
(g2
g3
NtRp207
(dp208
g55
V10.1006/abio.1996.9917
p209
sg51
VANAL BIOCHEM
p210
sg53
V244
p211
sg80
(lp212
(VFELICIOLI
VR
tp213
asg59
I1997
sg47
V176
p214
sbag1
(g2
g3
NtRp215
(dp216
g55
V10.1016/S0022-1910(97)00142-X
p217
sg51
VJ INSECT PHYSIOL
p218
sg53
V44
p219
sg80
(lp220
(VGIRARD
VC
tp221
asg59
I1998
sg47
V263
p222
sbag1
(g2
g3
NtRp223
(dp224
g55
V10.1016/S0965-1748(98)00027-7
p225
sg51
VINSECT BIOCHEM MOLEC
p226
sg53
V28
p227
sg80
(lp228
(VGIRARD
VC
tp229
asg59
I1998
sg47
V229
p230
sbag1
(g2
g3
NtRp231
(dp232
g55
V10.1104/pp.116.1.393
p233
sg51
VPLANT PHYSIOL
p234
sg53
V116
p235
sg80
(lp236
(VGIRI
VA P
tp237
asg59
I1998
sg47
VLANT
p238
sbag1
(g2
g3
NtRp239
(dp240
g55
V10.1016/S0031-9422(97)00570-0
p241
sg51
VPHYTOCHEMISTRY
p242
sg53
V47
p243
sg80
(lp244
(VGIRI
VA P
tp245
asg59
I1998
sg47
VHYTOCHEMISTRY
p246
sbag1
(g2
g3
NtRp247
(dp248
g55
V10.1126/science.175.4023.776
p249
sg51
VSCIENCE
p250
sg53
V175
p251
sg80
(lp252
(VGREEN
VT R
tp253
asg59
I1972
sg47
V776
p254
sbag1
(g2
g3
NtRp255
(dp256
g55
V10.1002/elps.1150190834
p257
sg51
VELECTROPHORESIS
p258
sg53
V19
p259
sg80
(lp260
(VHARSULKAR
VA M
tp261
asg59
I1998
sg47
V1397
p262
sbag1
(g2
g3
NtRp263
(dp264
g55
Nsg51
VTRANSGENIC PLANTS
p265
sg53
V1
sg80
(lp266
(VHILDER
VV A
tp267
asg59
I1993
sg47
V317
p268
sbag1
(g2
g3
NtRp269
(dp270
g55
Nsg51
VPLANT CELL
p271
sg53
V8
sg80
(lp272
(VHOWE
VG A
tp273
asg59
I1996
sg47
VLANT
p274
sbag1
(g2
g3
NtRp275
(dp276
g55
V10.1104/pp.111.2.393
p277
sg51
VPLANT PHYSIOL
p278
sg53
V111
p279
sg80
(lp280
(VISHIMOTO
VM
tp281
asg59
I1996
sg47
VLANT
p282
sbag1
(g2
g3
NtRp283
(dp284
g55
V10.2307/2408229
p285
sg51
VEVOLUTION
p286
sg53
V34
p287
sg80
(lp288
(VJANZEN
VD H
tp289
asg59
I1980
sg47
V611
p290
sbag1
(g2
g3
NtRp291
(dp292
g55
V10.1016/S0022-1910(97)00040-1
p293
sg51
VJ INSECT PHYSIOL
p294
sg53
V43
p295
sg80
(lp296
(VJONGSMA
VM A
tp297
asg59
I1997
sg47
V885
p298
sbag1
(g2
g3
NtRp299
(dp300
g55
V10.1016/0167-7799(96)30019-X
p301
sg51
VTRENDS BIOTECHNOL
p302
sg53
V14
p303
sg80
(lp304
(VJONGSMA
VM A
tp305
asg59
I1996
sg47
V331
p306
sbag1
(g2
g3
NtRp307
(dp308
g55
V10.1073/pnas.92.17.8041
p309
sg51
VP NATL ACAD SCI USA
p310
sg53
V92
p311
sg80
(lp312
(VJONGSMA
VM A
tp313
asg59
I1995
sg47
V8041
p314
sbag1
(g2
g3
NtRp315
(dp316
g55
V10.1016/S0168-9452(97)00239-2
p317
sg51
VPLANT SCI
p318
sg53
V131
p319
sg80
(lp320
(VJOUANIN
VL
tp321
asg59
I1998
sg47
VLANT
p322
sbag1
(g2
g3
NtRp323
(dp324
g55
V10.1002/(SICI)1097-0010(199605)71:1<137::AID-JSFA563>3.0.CO;2-Y
p325
sg51
VJ SCI FOOD AGR
p326
sg53
V71
p327
sg80
(lp328
(VKOTHEKAR
VV S
tp329
asg59
I1996
sg47
V137
p330
sbag1
(g2
g3
NtRp331
(dp332
g55
Nsg51
VCOLD SPRING HARB SYM
p333
sg53
V52
p334
sg80
(lp335
(VLASKOWSKI
VM
tp336
asg59
I1987
sg47
V545
p337
sbag1
(g2
g3
NtRp338
(dp339
g55
V10.1073/pnas.94.23.12243
p340
sg51
VP NATL ACAD SCI USA
p341
sg53
V94
p342
sg80
(lp343
(VLEWIS
VW J
tp344
asg59
I1997
sg47
V12243
p345
sbag1
(g2
g3
NtRp346
(dp347
g55
Nsg51
VP197
p348
sg53
Nsg80
(lp349
(VMANJUNATH
VT M
tp350
asg59
I1989
sg47
V197
p351
sbag1
(g2
g3
NtRp352
(dp353
g55
V10.1002/(SICI)1520-6327(1996)31:4<451::AID-ARCH7>3.0.CO;2-Y
p354
sg51
VARCH INSECT BIOCHEM
p355
sg53
V31
p356
sg80
(lp357
(VMICHAUD
VD
tp358
asg59
I1996
sg47
V451
p359
sbag1
(g2
g3
NtRp360
(dp361
g55
V10.1016/S0167-7799(96)10072-X
p362
sg51
VTRENDS BIOTECHNOL
p363
sg53
V15
p364
sg80
(lp365
(VMICHAUD
VD
tp366
asg59
I1997
sg47
V4
sbag1
(g2
g3
NtRp367
(dp368
g55
V10.1006/abbi.1995.1490
p369
sg51
VARCH BIOCHEM BIOPHYS
p370
sg53
V322
p371
sg80
(lp372
(VMICHAUD
VD
tp373
asg59
I1995
sg47
V469
p374
sbag1
(g2
g3
NtRp375
(dp376
g55
V10.1111/j.1745-4514.1989.tb00384.x
p377
sg51
VJ FOOD BIOCHEM
p378
sg53
V13
p379
sg80
(lp380
(VMUELLER
VR
tp381
asg59
I1989
sg47
V39
p382
sbag1
(g2
g3
NtRp383
(dp384
g55
V10.1074/jbc.272.38.23473
p385
sg51
VJ BIOL CHEM
p386
sg53
V272
p387
sg80
(lp388
(VOPPERT
VB
tp389
asg59
I1997
sg47
V23473
p390
sbag1
(g2
g3
NtRp391
(dp392
g55
V10.1016/S0965-1748(96)00013-6
p393
sg51
VINSECT BIOCHEM MOLEC
p394
sg53
V26
p395
sg80
(lp396
(VOPPERT
VB
tp397
asg59
I1996
sg47
V571
p398
sbag1
(g2
g3
NtRp399
(dp400
g55
V10.1016/0022-1910(94)90023-X
p401
sg51
VJ INSECT PHYSIOL
p402
sg53
V40
p403
sg80
(lp404
(VORR
VG L
tp405
asg59
I1994
sg47
V893
p406
sbag1
(g2
g3
NtRp407
(dp408
g55
V10.1007/s001220051289
p409
sg51
VTHEOR APPL GENET
p410
sg53
V99
p411
sg80
(lp412
(VPATANKAR
VA G
tp413
asg59
I1999
sg47
V719
p414
sbag1
(g2
g3
NtRp415
(dp416
g55
V10.1016/0165-022X(94)90018-3
p417
sg51
VJ BIOCHEM BIOPH METH
p418
sg53
V28
p419
sg80
(lp420
(VPICHARE
VM M
tp421
asg59
I1994
sg47
V215
p422
sbag1
(g2
g3
NtRp423
(dp424
g55
Nsg51
VProceedings of the International Workshop on Heliothis Management
p425
sg53
Nsg80
(lp426
(VREED
VW
tp427
asg59
I1982
sg47
Vroceedings
p428
sbag1
(g2
g3
NtRp429
(dp430
g55
V10.1146/annurev.py.28.090190.002233
p431
sg51
VANNU REV PHYTOPATHOL
p432
sg53
V28
p433
sg80
(lp434
(VRYAN
VC A
tp435
asg59
I1990
sg47
V425
p436
sbag1
(g2
g3
NtRp437
(dp438
g55
V10.1016/S0167-7799(97)01171-2
p439
sg51
VTRENDS BIOTECHNOL
p440
sg53
V16
p441
sg80
(lp442
(VSCHULER
VT H
tp443
asg59
I1998
sg47
V168
p444
sbag1
(g2
g3
NtRp445
(dp446
g55
V10.1074/jbc.273.23.14430
p447
sg51
VJ BIOL CHEM
p448
sg53
V273
p449
sg80
(lp450
(VWHITWORTH
VS T
tp451
asg59
I1998
sg47
V14430
p452
sbag1
(g2
g3
NtRp453
(dp454
g55
V10.1023/A:1009681323131
p455
sg51
VMOL BREEDING
p456
sg53
V3
sg80
(lp457
(VWU
VY R
tp458
asg59
I1997
sg47
V371
p459
sbag1
(g2
g3
NtRp460
(dp461
g55
V10.1016/S0965-1748(97)00089-1
p462
sg51
VINSECT BIOCHEM MOLEC
p463
sg53
V27
p464
sg80
(lp465
(VZHU
VY C
tp466
asg59
I1997
sg47
V1027
p467
sbasb.