ccopy_reg
_reconstructor
p1
(ctethne.classes.paper
Paper
p2
c__builtin__
object
p3
NtRp4
(dp5
S'publisherCity'
p6
VROCKVILLE
p7
sS'reprintAddress'
p8
VGalis, I (reprint author), Okayama Univ, Inst Plant Sci & Resources, Kurashiki, Okayama 7100046, Japan.
p9
sS'WC'
p10
VPlant Sciences
p11
sS'GA'
p12
V870IL
p13
sS'abstract'
p14
VA large number of plants accumulate N-acylated polyamines (phenolamides [PAs]) in response to biotic and/or abiotic stress conditions. In the native tobacco (Nicotiana attenuata), the accumulation of two major PAs, caffeoylputrescine and dicaffeoylspermidine (DCS), after herbivore attack is known to be controlled by a key transcription factor, MYB8. Using a broadly targeted metabolomics approach, we show that a much larger spectrum of PAs composed of hydroxycinnamic acids and two polyamines, putrescine and spermidine, is regulated by this transcription factor. We cloned several novel MYB8-regulated genes, annotated as putative acyltransferases, and analyzed their function. One of the novel acyltransferases (AT1) is shown to encode a hydroxycinnamoyl-coenzyme A: putrescine acyltransferase responsible for caffeoylputrescine biosynthesis in tobacco. Another gene (acyltransferase DH29), specific for spermidine conjugation, mediates the initial acylation step in DCS formation. Although this enzyme was not able to perform the second acylation toward DCS biosynthesis, another acyltransferase gene, CV86, proposed to act on monoacylated spermidines, was isolated and partially characterized. The activation of MYB8 in response to herbivore attack and associated signals required the activity of LIPOXYGENASE3, a gene involved in jasmonic acid (JA) biosynthesis in N. attenuata. These new results allow us to reconstruct a complete branch in JA signaling that defends N. attenuata plants against herbivores: JA via MYB8's transcriptional control of AT1 and DH29 genes controls the entire branch of PA biosynthesis, which allows N. attenuata to mount a chemically diverse (and likely efficient) defense shield against herbivores.
p15
sS'pageEnd'
p16
I407
sS'date'
p17
I2012
sS'documentType'
p18
VArticle
p19
sS'subject'
p20
VPlant Sciences
p21
sS'isoSource'
p22
VPlant Physiol.
p23
sS'timesCited'
p24
(lp25
I12
aVZ9 12
p26
asS'PT'
p27
VJ
sS'title'
p28
VMyb8 Controls Inducible Phenolamide Levels By Activating Three Novel Hydroxycinnamoyl-Coenzyme A:Polyamine Transferases In Nicotiana Attenuata
p29
sS'ISSN'
p30
(lp31
V0032-0889
p32
aVJ9 PLANT PHYSIOL
p33
asS'authors_full'
p34
(lp35
(VONKOKESUNG
VNAWAPORN
tp36
a(VGAQUEREL
VEMMANUEL
tp37
a(VKOTKAR
VHEMLATA
tp38
a(VKAUR
VHARLEEN
tp39
a(VBALDWIN
VIAN T
tp40
a(VGALIS
VIVAN
tp41
asS'PG'
p42
I19
sS'PD'
p43
VJAN
p44
sS'pageStart'
p45
I389
sS'issue'
p46
I1
sS'RI'
p47
VGalis, Ivan/F-5734-2011; Baldwin, Ian /K-1809-2013
p48
sS'journal'
p49
VPLANT PHYSIOLOGY
p50
sS'volume'
p51
V158
p52
sS'doi'
p53
V10.1104/pp.111.187229
p54
sS'emailAddress'
p55
Vigalis@ice.mpg.de
p56
sS'authorAddress'
p57
(lp58
V[Onkokesung, Nawaporn; Gaquerel, Emmanuel; Kotkar, Hemlata; Kaur, Harleen; Baldwin, Ian T.; Galis, Ivan] Max Planck Inst Chem Ecol, Dept Mol Ecol, D-07745 Jena, Germany.
p59
aV[Kotkar, Hemlata] Natl Chem Lab, Plant Mol Biol Unit, Div Biochem Sci, Pune 411008, Maharashtra, India.
p60
asS'publisherAddress'
p61
V15501 MONONA DRIVE, ROCKVILLE, MD 20855 USA
p62
sS'ER'
p63
V
sS'publisher'
p64
VAMER SOC PLANT BIOLOGISTS
p65
sS'authorKeywords'
p66
(lp67
VULTRAVIOLET-B RADIATION
p68
aVTRANSCRIPTION FACTOR
p69
aVPLANT DEFENSE
p70
aVACID-AMIDES
p71
aVCONVERGENT EVOLUTION
p72
aVSIMULATED HERBIVORY
p73
aVINSECT HERBIVORES
p74
aVRESPONSES
p75
aVTOBACCO
p76
aVMETABOLISM
p77
asS'language'
p78
VEnglish
p79
sS'wosid'
p80
VWOS:000298662500033
p81
sS'citationCount'
p82
I56
sS'authors_init'
p83
(lp84
(VONKOKESUNG
VN
tp85
a(VGAQUEREL
VE
tp86
a(VKOTKAR
VH
tp87
a(VKAUR
VH
tp88
a(VBALDWIN
VI T
tp89
a(VGALIS
VI
tp90
asS'citedReferences'
p91
(lp92
g1
(g2
g3
NtRp93
(dp94
g53
V10.1093/pcp/pce060
p95
sg49
VPLANT CELL PHYSIOL
p96
sg51
V42
p97
sg83
(lp98
(VBACK
VK
tp99
asg17
I2001
sg45
VLANT
p100
sbag1
(g2
g3
NtRp101
(dp102
g53
Nsg49
VENTOMOL EXP APPL
p103
sg51
V80
p104
sg83
(lp105
(VBALDWIN
VI T
tp106
asg17
I1996
sg45
V213
p107
sbag1
(g2
g3
NtRp108
(dp109
g53
V10.1007/s11103-008-9435-0
p110
sg49
VPLANT MOL BIOL
p111
sg51
V69
p112
sg83
(lp113
(VBARI
VR
tp114
asg17
I2009
sg45
VLANT
p115
sbag1
(g2
g3
NtRp116
(dp117
g53
V10.1016/j.phytochem.2010.08.003
p118
sg49
VPHYTOCHEMISTRY
p119
sg51
V71
p120
sg83
(lp121
(VBASSARD
VJ E
tp122
asg17
I2010
sg45
VHYTOCHEMISTRY
p123
sbag1
(g2
g3
NtRp124
(dp125
g53
V10.1007/978-1-4020-8182-8_9
p126
sg49
VP189
p127
sg51
Nsg83
(lp128
(VBERNARDS
VMARK A
tp129
asg17
I2008
sg45
V189
p130
sbag1
(g2
g3
NtRp131
(dp132
g53
V10.1006/abio.2001.5574
p133
sg49
VANAL BIOCHEM
p134
sg51
V302
p135
sg83
(lp136
(VBEUERLE
VT
tp137
asg17
I2002
sg45
V305
p138
sbag1
(g2
g3
NtRp139
(dp140
g53
V10.1074/jbc.M213041200
p141
sg49
VJ BIOL CHEM
p142
sg51
V278
p143
sg83
(lp144
(VBURHENNE
VK
tp145
asg17
I2003
sg45
V13919
p146
sbag1
(g2
g3
NtRp147
(dp148
g53
V10.1111/j.1399-3054.1981.tb02721.x
p149
sg49
VPHYSIOL PLANTARUM
p150
sg51
V53
p151
sg83
(lp152
(VCABANNE
VF
tp153
asg17
I1981
sg45
VHYSIOL
p154
sbag1
(g2
g3
NtRp155
(dp156
g53
V10.1016/j.jplph.2004.09.016
p157
sg49
VJ PLANT PHYSIOL
p158
sg51
V162
p159
sg83
(lp160
(VCAMACHO-CRISTOBAL
VJ J
tp161
asg17
I2005
sg45
V921
p162
sbag1
(g2
g3
NtRp163
(dp164
g53
V10.1016/j.pbi.2006.03.016
p165
sg49
VCURR OPIN PLANT BIOL
p166
sg51
V9
sg83
(lp167
(VD'AURIA
VJ C
tp168
asg17
I2006
sg45
V331
p169
sbag1
(g2
g3
NtRp170
(dp171
g53
V10.1104/pp.109.148999
p172
sg49
VPLANT PHYSIOL
p173
sg51
V152
p174
sg83
(lp175
(VDEMKURA
VP V
tp176
asg17
I2010
sg45
VLANT
p177
sbag1
(g2
g3
NtRp178
(dp179
g53
V10.1046/j.1365-313X.1998.00121.x
p180
sg49
VPLANT J
p181
sg51
V14
p182
sg83
(lp183
(VDUDAREVA
VN
tp184
asg17
I1998
sg45
VLANT
p185
sbag1
(g2
g3
NtRp186
(dp187
g53
V10.1134/S1021443707030016
p188
sg49
VRUSS J PLANT PHYSL
p189
sg51
V54
p190
sg83
(lp191
(VEDREVA
VA M
tp192
asg17
I2007
sg45
V287
p193
sbag1
(g2
g3
NtRp194
(dp195
g53
V10.1016/S1360-1385(00)01600-9
p196
sg49
VTRENDS PLANT SCI
p197
sg51
V5
sg83
(lp198
(VEULGEM
VT
tp199
asg17
I2000
sg45
V199
p200
sbag1
(g2
g3
NtRp201
(dp202
g53
V[10.1139/B02-065, 10.1139/b02-065]
p203
sg49
VCAN J BOT
p204
sg51
V80
p205
sg83
(lp206
(VFACCHINI
VP J
tp207
asg17
I2002
sg45
V577
p208
sbag1
(g2
g3
NtRp209
(dp210
g53
V10.1080/11263509909381549
p211
sg49
VPlant Biosystems
p212
sg51
V133
p213
sg83
(lp214
(VFATTORUSSO
VE
tp215
asg17
I1999
sg45
Vlant
p216
sbag1
(g2
g3
NtRp217
(dp218
g53
V10.1111/j.1365-313X.2006.02719.x
p219
sg49
VPLANT J
p220
sg51
V46
p221
sg83
(lp222
(VGALIS
VI
tp223
asg17
I2006
sg45
VLANT
p224
sbag1
(g2
g3
NtRp225
(dp226
g53
V10.1021/jf1017737
p227
sg49
VJ AGR FOOD CHEM
p228
sg51
V58
p229
sg83
(lp230
(VGAQUEREL
VE
tp231
asg17
I2010
sg45
V9418
p232
sbag1
(g2
g3
NtRp233
(dp234
g53
V10.1105/tpc.111.088229
p235
sg49
VPLANT CELL
p236
sg51
V23
p237
sg83
(lp238
(VGILARDONI
VP A
tp239
asg17
I2011
sg45
VLANT
p240
sbag1
(g2
g3
NtRp241
(dp242
g53
V10.1073/pnas.1032967100
p243
sg49
VP NATL ACAD SCI USA
p244
sg51
V100
p245
sg83
(lp246
(VGOOSSENS
VA
tp247
asg17
I2003
sg45
V8595
p248
sbag1
(g2
g3
NtRp249
(dp250
g53
V10.1111/j.1365-313X.2008.03773.x
p251
sg49
VPLANT J
p252
sg51
V58
p253
sg83
(lp254
(VGRIENENBERGER
VE
tp255
asg17
I2009
sg45
VLANT
p256
sbag1
(g2
g3
NtRp257
(dp258
g53
V10.1046/j.1365-313X.2003.01921.x
p259
sg49
VPLANT J
p260
sg51
V36
p261
sg83
(lp262
(VHALITSCHKE
VR
tp263
asg17
I2003
sg45
VLANT
p264
sbag1
(g2
g3
NtRp265
(dp266
g53
V10.1146/annurev.arplant.59.032607.092825
p267
sg49
VANNU REV PLANT BIOL
p268
sg51
V59
p269
sg83
(lp270
(VHOWE
VG A
tp271
asg17
I2008
sg45
V41
p272
sbag1
(g2
g3
NtRp273
(dp274
g53
V10.1104/pp.102.018176
p275
sg49
VPLANT PHYSIOL
p276
sg51
V131
p277
sg83
(lp278
(VHUI
VD Q
tp279
asg17
I2003
sg45
VLANT
p280
sbag1
(g2
g3
NtRp281
(dp282
g53
V10.1093/aob/mcl226
p283
sg49
VANN BOT
p284
sg51
V99
p285
sg83
(lp286
(VIZAGUIRRE
VM M
tp287
asg17
I2007
sg45
V103
p288
sbag1
(g2
g3
NtRp289
(dp290
g53
V10.1104/pp.109.151738
p291
sg49
VPLANT PHYSIOL
p292
sg51
V152
p293
sg83
(lp294
(VKAUR
VH
tp295
asg17
I2010
sg45
VLANT
p296
sbag1
(g2
g3
NtRp297
(dp298
g53
V10.1021/jf010200+
p299
sg49
VJ AGR FOOD CHEM
p300
sg51
V49
p301
sg83
(lp302
(VKEINANEN
VM
tp303
asg17
I2001
sg45
V3553
p304
sbag1
(g2
g3
NtRp305
(dp306
g53
V10.1007/PL00012666
p307
sg49
VCHEMOECOLOGY
p308
sg51
V12
p309
sg83
(lp310
(VKRUGEL
VT
tp311
asg17
I2002
sg45
V177
p312
sbag1
(g2
g3
NtRp313
(dp314
g53
V10.1111/j.1365-313X.2007.03079.x
p315
sg49
VPLANT J
p316
sg51
V50
p317
sg83
(lp318
(VLUO
VJ
tp319
asg17
I2007
sg45
VLANT
p320
sbag1
(g2
g3
NtRp321
(dp322
g53
V10.1105/tpc.108.063511
p323
sg49
VPLANT CELL
p324
sg51
V21
p325
sg83
(lp326
(VLUO
VJ
tp327
asg17
I2009
sg45
VLANT
p328
sbag1
(g2
g3
NtRp329
(dp330
g53
V10.1034/j.1399-3054.1997.1000331.x
p331
sg49
VPHYSIOL PLANTARUM
p332
sg51
V100
p333
sg83
(lp334
(VMARTINTANGUY
VJ
tp335
asg17
I1997
sg45
VHYSIOL
p336
sbag1
(g2
g3
NtRp337
(dp338
g53
V10.1016/S0031-9422(00)88735-X
p339
sg49
VPHYTOCHEMISTRY
p340
sg51
V17
p341
sg83
(lp342
(VMARTINTANGUY
VJ
tp343
asg17
I1978
sg45
VHYTOCHEMISTRY
p344
sbag1
(g2
g3
NtRp345
(dp346
g53
V10.1007/BF00117595
p347
sg49
VPLANT GROWTH REGUL
p348
sg51
V3
sg83
(lp349
(VMARTINTANGUY
VJ
tp350
asg17
I1985
sg45
VLANT
p351
sbag1
(g2
g3
NtRp352
(dp353
g53
V10.1111/j.1365-313X.2008.03705.x
p354
sg49
VPLANT J
p355
sg51
V57
p356
sg83
(lp357
(VMATSUDA
VF
tp358
asg17
I2009
sg45
VLANT
p359
sbag1
(g2
g3
NtRp360
(dp361
g53
V10.1104/pp.109.148031
p362
sg49
VPLANT PHYSIOL
p363
sg51
V152
p364
sg83
(lp365
(VMATSUDA
VF
tp366
asg17
I2010
sg45
VLANT
p367
sbag1
(g2
g3
NtRp368
(dp369
g53
V10.1007/s00425-009-0960-0
p370
sg49
VPLANTA
p371
sg51
V230
p372
sg83
(lp373
(VMUROI
VA
tp374
asg17
I2009
sg45
VLANTA
p375
sbag1
(g2
g3
NtRp376
(dp377
g53
V10.1104/pp.98.4.1264
p378
sg49
VPLANT PHYSIOL
p379
sg51
V98
p380
sg83
(lp381
(VNEGREL
VJ
tp382
asg17
I1992
sg45
VLANT
p383
sbag1
(g2
g3
NtRp384
(dp385
g53
V10.1016/S0031-9422(00)95177-X
p386
sg49
VPHYTOCHEMISTRY
p387
sg51
V30
p388
sg83
(lp389
(VNEGREL
VJ
tp390
asg17
I1991
sg45
VHYTOCHEMISTRY
p391
sbag1
(g2
g3
NtRp392
(dp393
g53
V10.1016/0031-9422(89)80035-4
p394
sg49
VPHYTOCHEMISTRY
p395
sg51
V28
p396
sg83
(lp397
(VNEGREL
VJ
tp398
asg17
I1989
sg45
VHYTOCHEMISTRY
p399
sbag1
(g2
g3
NtRp400
(dp401
g53
V10.1094/MPMI.2001.14.6.785
p402
sg49
VMOL PLANT MICROBE IN
p403
sg51
V14
p404
sg83
(lp405
(VNEWMAN
VM A
tp406
asg17
I2001
sg45
V785
p407
sbag1
(g2
g3
NtRp408
(dp409
g53
V10.1104/pp.110.156232
p410
sg49
VPLANT PHYSIOL
p411
sg51
V153
p412
sg83
(lp413
(VONKOKESUNG
VN
tp414
asg17
I2010
sg45
VLANT
p415
sbag1
(g2
g3
NtRp416
(dp417
g53
V10.1111/j.1365-313X.2008.03450.x
p418
sg49
VPLANT J
p419
sg51
V54
p420
sg83
(lp421
(VPANDEY
VS P
tp422
asg17
I2008
sg45
VLANT
p423
sbag1
(g2
g3
NtRp424
(dp425
g53
V10.1093/pcp/pcn091
p426
sg49
VPLANT CELL PHYSIOL
p427
sg51
V49
p428
sg83
(lp429
(VPASCHOLD
VA
tp430
asg17
I2008
sg45
VLANT
p431
sbag1
(g2
g3
NtRp432
(dp433
g53
V10.1146/annurev-arplant-042110-103814
p434
sg49
VANNU REV PLANT BIOL
p435
sg51
V62
p436
sg83
(lp437
(VPICHERSKY
VE
tp438
asg17
I2011
sg45
V549
p439
sbag1
(g2
g3
NtRp440
(dp441
g53
V10.1093/jxb/erh004
p442
sg49
VJ EXP BOT
p443
sg51
V55
p444
sg83
(lp445
(VSAEDLER
VR
tp446
asg17
I2004
sg45
V151
p447
sbag1
(g2
g3
NtRp448
(dp449
g53
V10.1093/pcp/pcd001
p450
sg49
VPLANT CELL PHYSIOL
p451
sg51
V41
p452
sg83
(lp453
(VSHOJI
VT
tp454
asg17
I2000
sg45
VLANT
p455
sbag1
(g2
g3
NtRp456
(dp457
g53
V10.1016/S1369-5266(02)00289-3
p458
sg49
VCURR OPIN PLANT BIOL
p459
sg51
V5
sg83
(lp460
(VSINGH
VK B
tp461
asg17
I2002
sg45
V430
p462
sbag1
(g2
g3
NtRp463
(dp464
g53
V10.1139/b70-066
p465
sg49
VCAN J BOTANY
p466
sg51
V48
p467
sg83
(lp468
(VSTOESSL
VA
tp469
asg17
I1970
sg45
V465
p470
sbag1
(g2
g3
NtRp471
(dp472
g53
V10.1105/tpc.12.12.2511
p473
sg49
VPLANT CELL
p474
sg51
V12
p475
sg83
(lp476
(VSUGIMOTO
VK
tp477
asg17
I2000
sg45
VLANT
p478
sbag1
(g2
g3
NtRp479
(dp480
g53
V10.1007/s11306-007-0082-2
p481
sg49
VMETABOLOMICS
p482
sg51
V3
sg83
(lp483
(VSUMNER
VL W
tp484
asg17
I2007
sg45
V211
p485
sbag1
(g2
g3
NtRp486
(dp487
g53
V10.1016/S0031-9422(03)00429-1
p488
sg49
VPHYTOCHEMISTRY
p489
sg51
V64
p490
sg83
(lp491
(VTANAKA
VE
tp492
asg17
I2003
sg45
VHYTOCHEMISTRY
p493
sbag1
(g2
g3
NtRp494
(dp495
g53
V10.1186/1471-2164-7-142
p496
sg49
VBMC GENOMICS
p497
sg51
V7
sg83
(lp498
(VVAN
VD E N BERG R A
tp499
asg17
I2006
sg45
Nsbag1
(g2
g3
NtRp500
(dp501
g53
V10.1034/j.1399-3054.2003.00105.x
p502
sg49
VPHYSIOL PLANTARUM
p503
sg51
V118
p504
sg83
(lp505
(VVOELCKEL
VC
tp506
asg17
I2003
sg45
VHYSIOL
p507
sbag1
(g2
g3
NtRp508
(dp509
g53
Nsg49
VPHYTOCHEMISTRY
p510
sg51
V61
p511
sg83
(lp512
(VVOMENDT
S''
tp513
asg17
I2002
sg45
VHYTOCHEMISTRY
p514
sbag1
(g2
g3
NtRp515
(dp516
g53
V10.1080/17429145.2010.544779
p517
sg49
VJ PLANT INTERACT
p518
sg51
V6
sg83
(lp519
(VWOLDEMARIAM
VM G
tp520
asg17
I2011
sg45
V113
p521
sbag1
(g2
g3
NtRp522
(dp523
g53
V10.1186/1171-2229-7-2
p524
sg49
VBMC PLANT BIOL
p525
sg51
V7
sg83
(lp526
(VZHENG
VZ Y
tp527
asg17
I2007
sg45
Nsbasb.