ccopy_reg
_reconstructor
p1
(ctethne.classes.paper
Paper
p2
c__builtin__
object
p3
NtRp4
(dp5
S'publisherCity'
p6
VROCKVILLE
p7
sS'reprintAddress'
p8
VZhao, FG (reprint author), Nanjing Univ, Sch Life Sci, Nanjing 210039, Peoples R China.
p9
sS'WC'
p10
VPlant Sciences
p11
sS'GA'
p12
V228FK
p13
sS'abstract'
p14
VPolyamines are known to increase in plant cells in response to a variety of stress conditions. However, the physiological roles of elevated polyamines are not understood well. Here we investigated the effects of polyamines on ion channel activities by applying patch-clamp techniques to protoplasts derived from barley (Hordeum vulgare) seedling root cells. Extracellular application of polyamines significantly blocked the inward Na+ and K+ currents (especially Na+ currents) in root epidermal and cortical cells. These blocking effects of polyamines were increased with increasing polycation charge. In root xylem parenchyma, the inward K+ currents were blocked by extracellular spermidine, while the outward K+ currents were enhanced. At the whole-plant level, the root K+ content, as well as the root and shoot Na+ levels, was decreased significantly by exogenous spermidine. Together, by restricting Na+ influx into roots and by preventing K+ loss from shoots, polyamines were shown to improve K+/Na+ homeostasis in barley seedlings. It is reasonable to propose that, therefore, elevated polyamines under salt stress should be a self-protecting response for plants to combat detrimental consequences resulted from imbalance of Na+ and K+.
p15
sS'pageEnd'
p16
I1072
sS'publisherAddress'
p17
V15501 MONONA DRIVE, ROCKVILLE, MD 20855 USA
p18
sS'documentType'
p19
VArticle
p20
sS'subject'
p21
VPlant Sciences
p22
sS'isoSource'
p23
VPlant Physiol.
p24
sS'timesCited'
p25
(lp26
I29
aVZ9 38
p27
asS'PT'
p28
VJ
sS'title'
p29
VPolyamines Improve K+/Na+ Homeostasis In Barley Seedlings By Regulating Root Ion Channel Activities
p30
sS'ISSN'
p31
(lp32
V0032-0889
p33
aVJ9 PLANT PHYSIOL
p34
asS'authors_full'
p35
(lp36
(VZHAO
VFUGENG
tp37
a(VSONG
VCHUNPENG
tp38
a(VHE
VJIAQIAN
tp39
a(VZHU
VHUI
tp40
asS'PG'
p41
I12
sS'PD'
p42
VNOV
p43
sS'pageStart'
p44
I1061
sS'issue'
p45
I3
sS'journal'
p46
VPLANT PHYSIOLOGY
p47
sS'volume'
p48
V145
p49
sS'doi'
p50
V10.1104/pp.107.105882
p51
sS'emailAddress'
p52
Vfgzhao@nju.edu.cn
p53
sS'authorAddress'
p54
(lp55
VNanjing Univ, Sch Life Sci, Nanjing 210039, Peoples R China.
p56
aVHenan Univ, Dept Biol, Henan Key Lab Plant Stress Biol, Kaifeng 475001, Peoples R China.
p57
asS'date'
p58
I2007
sS'ER'
p59
V
sS'publisher'
p60
VAMER SOC PLANT BIOLOGISTS
p61
sS'authorKeywords'
p62
(lp63
VNONSELECTIVE CATION CHANNELS
p64
aVTRANSGENIC TOBACCO PLANTS
p65
aVSALT STRESS
p66
aVARGININE DECARBOXYLASE
p67
aVPLASMA-MEMBRANE
p68
aVCELL DIVISION/EXPANSION
p69
aVEXOGENOUS POLYAMINES
p70
aVARABIDOPSIS-THALIANA
p71
aVSPERMIDINE-BINDING
p72
aVTONOPLAST FUNCTION
p73
asS'language'
p74
VEnglish
p75
sS'wosid'
p76
VWOS:000250712800042
p77
sS'citationCount'
p78
I63
sS'authors_init'
p79
(lp80
(VZHAO
VF G
tp81
a(VSONG
VC P
tp82
a(VHE
VJ Q
tp83
a(VZHU
VH
tp84
asS'citedReferences'
p85
(lp86
g1
(g2
g3
NtRp87
(dp88
g50
V10.1046/j.1365-313X.1997.11061227.x
p89
sg46
VPLANT J
p90
sg48
V11
p91
sg79
(lp92
(VBETHKE
VP C
tp93
asg58
I1997
sg44
VLANT
p94
sbag1
(g2
g3
NtRp95
(dp96
g50
V10.1046/j.1365-313x.1998.00274.x
p97
sg46
VPLANT J
p98
sg48
V16
p99
sg79
(lp100
(VBRUGGEMANN
VL I
tp101
asg58
I1998
sg44
VLANT
p102
sbag1
(g2
g3
NtRp103
(dp104
g50
V10.1104/pp.122.4.1387
p105
sg46
VPLANT PHYSIOL
p106
sg48
V122
p107
sg79
(lp108
(VBUSCHMANN
VP H
tp109
asg58
I2000
sg44
VLANT
p110
sbag1
(g2
g3
NtRp111
(dp112
g50
V10.1104/pp.011445
p113
sg46
VPLANT PHYSIOL
p114
sg48
V131
p115
sg79
(lp116
(VCARDEN
VD E
tp117
asg58
I2003
sg44
VLANT
p118
sbag1
(g2
g3
NtRp119
(dp120
g50
V10.1034/j.1399-3054.2002.1160208.x
p121
sg46
VPHYSIOL PLANTARUM
p122
sg48
V116
p123
sg79
(lp124
(VCHATTOPADHAYAY
VM K
tp125
asg58
I2002
sg44
VHYSIOL
p126
sbag1
(g2
g3
NtRp127
(dp128
g50
V10.1111/j.1365-3040.2005.01364.x
p129
sg46
VPLANT CELL ENVIRON
p130
sg48
V28
p131
sg79
(lp132
(VCHEN
VZ
tp133
asg58
I2005
sg44
VLANT
p134
sbag1
(g2
g3
NtRp135
(dp136
g50
V10.1104/pp.122.3.823
p137
sg46
VPLANT PHYSIOL
p138
sg48
V122
p139
sg79
(lp140
(VDAVENPORT
VR J
tp141
asg58
I2000
sg44
VLANT
p142
sbag1
(g2
g3
NtRp143
(dp144
g50
Nsg46
VEMBO J
p145
sg48
V14
p146
sg79
(lp147
(VDELAVEGA
VA L
tp148
asg58
I1995
sg44
V6058
p149
sbag1
(g2
g3
NtRp150
(dp151
g50
V10.1104/pp.128.2.379
p152
sg46
VPLANT PHYSIOL
p153
sg48
V128
p154
sg79
(lp155
(VDEMIDCHIK
VV
tp156
asg58
I2002
sg44
VLANT
p157
sbag1
(g2
g3
NtRp158
(dp159
g50
V10.1146/annurev.arplant.53.091901.161540
p160
sg46
VANNU REV PLANT BIOL
p161
sg48
V53
p162
sg79
(lp163
(VDEMIDCHIK
VV
tp164
asg58
I2002
sg44
V67
p165
sbag1
(g2
g3
NtRp166
(dp167
g50
V10.1007/s002329900477
p168
sg46
VJ MEMBRANE BIOL
p169
sg48
V167
p170
sg79
(lp171
(VDOBROVINSKAYA
VO R
tp172
asg58
I1999
sg44
V127
p173
sbag1
(g2
g3
NtRp174
(dp175
g50
VDOI 10.1007/S00344-003-0002-2
p176
sg46
VJ PLANT GROWTH REGUL
p177
sg48
V21
p178
sg79
(lp179
(VENSTONE
VD E
tp180
asg58
I2003
sg44
V335
p181
sbag1
(g2
g3
NtRp182
(dp183
g50
Nsg46
VJ PLANT PHYSIOL
p184
sg48
V147
p185
sg79
(lp186
(VERDEI
VL
tp187
asg58
I1996
sg44
V599
p188
sbag1
(g2
g3
NtRp189
(dp190
g50
V10.1104/pp.103.022178
p191
sg46
VPLANT PHYSIOL
p192
sg48
V133
p193
sg79
(lp194
(VESSAH
VP A
tp195
asg58
I2003
sg44
VLANT
p196
sbag1
(g2
g3
NtRp197
(dp198
g50
Nsg46
VANNU REV PLANT PHYS
p199
sg48
V40
p200
sg79
(lp201
(VEVANS
VP T
tp202
asg58
I1989
sg44
V235
p203
sbag1
(g2
g3
NtRp204
(dp205
g50
Nsg46
VSTRESS RESPONSES PLA
p206
sg48
Nsg79
(lp207
(VFLORES
VH E
tp208
asg58
I1990
sg44
V217
p209
sbag1
(g2
g3
NtRp210
(dp211
g50
Nsg46
VPHYSIOL PLANTARUM
p212
sg48
V76
p213
sg79
(lp214
(VFRIEDMAN
VR
tp215
asg58
I1989
sg44
VHYSIOL
p216
sbag1
(g2
g3
NtRp217
(dp218
g50
Nsg46
VP158
p219
sg48
Nsg79
(lp220
(VGALSTON
VARTHUR W
tp221
asg58
I1995
sg44
V158
p222
sbag1
(g2
g3
NtRp223
(dp224
g50
Nsg46
VPLANT PHYSIOL
p225
sg48
V105
p226
sg79
(lp227
(VGASSMANN
VW
tp228
asg58
I1994
sg44
VLANT
p229
sbag1
(g2
g3
NtRp230
(dp231
g50
V10.1146/annurev.pp.31.060180.001053
p232
sg46
VANNU REV PLANT PHYS
p233
sg48
V31
p234
sg79
(lp235
(VGREENWAY
VH
tp236
asg58
I1980
sg44
V149
p237
sbag1
(g2
g3
NtRp238
(dp239
g50
V10.1146/annurev.arplant.51.1.463
p240
sg46
VANNU REV PLANT PHYS
p241
sg48
V51
p242
sg79
(lp243
(VHASEGAWA
VP M
tp244
asg58
I2000
sg44
V463
p245
sbag1
(g2
g3
NtRp246
(dp247
g50
V10.1016/0165-6147(96)81566-5
p248
sg46
VTRENDS PHARMACOL SCI
p249
sg48
V17
p250
sg79
(lp251
(VJOHNSON
VT D
tp252
asg58
I1996
sg44
V22
p253
sbag1
(g2
g3
NtRp254
(dp255
g50
V10.1055/s-2003-44687
p256
sg46
VPLANT BIOLOGY
p257
sg48
V6
sg79
(lp258
(VJOUVE
VL
tp259
asg58
I2004
sg44
VLANT
p260
sbag1
(g2
g3
NtRp261
(dp262
g50
V10.1104/pp.91.2.500
p263
sg46
VPLANT PHYSIOL
p264
sg48
V91
p265
sg79
(lp266
(VKRISHNAMURTHY
VR
tp267
asg58
I1989
sg44
VLANT
p268
sbag1
(g2
g3
NtRp269
(dp270
g50
Nsg46
VJ ENVIRON BIOL
p271
sg48
V27
p272
sg79
(lp273
(VLAKRA
VN
tp274
asg58
I2006
sg44
V263
p275
sbag1
(g2
g3
NtRp276
(dp277
g50
V10.1093/jxb/erl018
p278
sg46
VJ EXP BOT
p279
sg48
V57
p280
sg79
(lp281
(VLIU
VJ H
tp282
asg58
I2006
sg44
V2589
p283
sbag1
(g2
g3
NtRp284
(dp285
g50
V10.1104/pp.124.3.1315
p286
sg46
VPLANT PHYSIOL
p287
sg48
V124
p288
sg79
(lp289
(VLIU
VK
tp290
asg58
I2000
sg44
VLANT
p291
sbag1
(g2
g3
NtRp292
(dp293
g50
Nsg46
VCYTOBIOS
p294
sg48
V100
p295
sg79
(lp296
(VMANSOUR
VM M F
tp297
asg58
I1999
sg44
V7
sbag1
(g2
g3
NtRp298
(dp299
g50
V10.1046/j.1365-313X.1997.11030465.x
p300
sg46
VPLANT J
p301
sg48
V11
p302
sg79
(lp303
(VMASGRAU
VC
tp304
asg58
I1997
sg44
VLANT
p305
sbag1
(g2
g3
NtRp306
(dp307
g50
Nsg46
VCANCER RES
p308
sg48
V38
p309
sg79
(lp310
(VMELVIN
VM A L
tp311
asg58
I1978
sg44
V3055
p312
sbag1
(g2
g3
NtRp313
(dp314
g50
V10.1111/j.1365-313X.2005.02566.x
p315
sg46
VPLANT J
p316
sg48
V44
p317
sg79
(lp318
(VMICHARD
VE
tp319
asg58
I2005
sg44
VLANT
p320
sbag1
(g2
g3
NtRp321
(dp322
g50
V10.1007/s11104-006-9188-y
p323
sg46
VPLANT SOIL
p324
sg48
V291
p325
sg79
(lp326
(VNDAYIRAGIJE
VA
tp327
asg58
I2007
sg44
VLANT
p328
sbag1
(g2
g3
NtRp329
(dp330
g50
Nsg46
VPLANT PHYSIOL
p331
sg48
V109
p332
sg79
(lp333
(VNIU
VX M
tp334
asg58
I1995
sg44
VLANT
p335
sbag1
(g2
g3
NtRp336
(dp337
g50
V10.1104/pp.104.055483
p338
sg46
VPLANT PHYSIOL
p339
sg48
V138
p340
sg79
(lp341
(VPASCHALIDIS
VK A
tp342
asg58
I2005
sg44
VLANT
p343
sbag1
(g2
g3
NtRp344
(dp345
g50
V10.1104/pp.105.063941
p346
sg46
VPLANT PHYSIOL
p347
sg48
V138
p348
sg79
(lp349
(VPASCHALIDIS
VK A
tp350
asg58
I2005
sg44
VLANT
p351
sbag1
(g2
g3
NtRp352
(dp353
g50
V10.1104/pp.84.2.374
p354
sg46
VPLANT PHYSIOL
p355
sg48
V84
p356
sg79
(lp357
(VPISTOCCHI
VR
tp358
asg58
I1987
sg44
VLANT
p359
sbag1
(g2
g3
NtRp360
(dp361
g50
V10.1038/170460a0
p362
sg46
VNATURE
p363
sg48
V170
p364
sg79
(lp365
(VRICHARDS
VF J
tp366
asg58
I1952
sg44
V460
p367
sbag1
(g2
g3
NtRp368
(dp369
g50
V10.1093/jxb/48.Special_Issue.431
p370
sg46
VJ EXP BOT
p371
sg48
V48
p372
sg79
(lp373
(VROBERTS
VS K
tp374
asg58
I1997
sg44
V431
p375
sbag1
(g2
g3
NtRp376
(dp377
g50
Nsg46
VPLANT J
p378
sg48
V8
sg79
(lp379
(VROBERTS
VS K
tp380
asg58
I1995
sg44
VLANT
p381
sbag1
(g2
g3
NtRp382
(dp383
g50
V10.1007/s10725-005-5990-4
p384
sg46
VPLANT GROWTH REGUL
p385
sg48
V48
p386
sg79
(lp387
(VRODRIGUEZ-KESSLER
VM
tp388
asg58
I2006
sg44
VLANT
p389
sbag1
(g2
g3
NtRp390
(dp391
g50
V10.1016/S0304-4157(99)00013-1
p392
sg46
VBBA
p393
sg48
V1469
p394
sg79
(lp395
(VRODRIGUEZ-NAVARRO
VA
tp396
asg58
I2000
sg44
V1
sbag1
(g2
g3
NtRp397
(dp398
g50
V10.1104/pp.124.1.431
p399
sg46
VPLANT PHYSIOL
p400
sg48
V124
p401
sg79
(lp402
(VSHEN
VW Y
tp403
asg58
I2000
sg44
VLANT
p404
sbag1
(g2
g3
NtRp405
(dp406
g50
V10.1085/jgp.200409242
p407
sg46
VJ GEN PHYSIOL
p408
sg48
V125
p409
sg79
(lp410
(VSHIN
VH G
tp411
asg58
I2005
sg44
V413
p412
sbag1
(g2
g3
NtRp413
(dp414
g50
Nsg46
VBIOCH PHYSL POLYAMIN
p415
sg48
Nsg79
(lp416
(VSLOCUM
VR D
tp417
asg58
I1991
sg44
Nsbag1
(g2
g3
NtRp418
(dp419
g50
V10.1146/annurev.bi.53.070184.003533
p420
sg46
VANNU REV BIOCHEM
p421
sg48
V53
p422
sg79
(lp423
(VTABOR
VC W
tp424
asg58
I1984
sg44
V749
p425
sbag1
(g2
g3
NtRp426
(dp427
g50
V10.1104/pp.010951
p428
sg46
VPLANT PHYSIOL
p429
sg48
V128
p430
sg79
(lp431
(VTASSONI
VA
tp432
asg58
I2002
sg44
VLANT
p433
sbag1
(g2
g3
NtRp434
(dp435
g50
V10.1104/pp.117.3.971
p436
sg46
VPLANT PHYSIOL
p437
sg48
V117
p438
sg79
(lp439
(VTASSONI
VA
tp440
asg58
I1998
sg44
VLANT
p441
sbag1
(g2
g3
NtRp442
(dp443
g50
V10.1104/pp.010896
p444
sg46
VPLANT PHYSIOL
p445
sg48
V128
p446
sg79
(lp447
(VTHEISS
VC
tp448
asg58
I2002
sg44
VLANT
p449
sbag1
(g2
g3
NtRp450
(dp451
g50
V10.1104/pp.82.2.369
p452
sg46
VPLANT PHYSIOL
p453
sg48
V82
p454
sg79
(lp455
(VTIBURCIO
VA F
tp456
asg58
I1986
sg44
VLANT
p457
sbag1
(g2
g3
NtRp458
(dp459
g50
V10.1093/jxb/48.Special_Issue.459
p460
sg46
VJ EXP BOT
p461
sg48
V48
p462
sg79
(lp463
(VTYERMAN
VS D
tp464
asg58
I1997
sg44
V459
p465
sbag1
(g2
g3
NtRp466
(dp467
g50
V10.1016/j.jplph.2004.08.008
p468
sg46
VJ PLANT PHYSIOL
p469
sg48
V162
p470
sg79
(lp471
(VVERMA
VS
tp472
asg58
I2005
sg44
V669
p473
sbag1
(g2
g3
NtRp474
(dp475
g50
V10.1104/pp.106.083030
p476
sg46
VPLANT PHYSIOL
p477
sg48
V142
p478
sg79
(lp479
(VVUOSKU
VJ
tp480
asg58
I2006
sg44
VLANT
p481
sbag1
(g2
g3
NtRp482
(dp483
g50
V10.1016/0304-4165(81)90005-2
p484
sg46
VBIOCHIM BIOPHYS ACTA
p485
sg48
V676
p486
sg79
(lp487
(VWALLACE
VH M
tp488
asg58
I1981
sg44
V25
p489
sbag1
(g2
g3
NtRp490
(dp491
g50
Nsg46
VBIOCHEM SOC T
p492
sg48
V26
p493
sg79
(lp494
(VWALLACE
VH M
tp495
asg58
I1998
sg44
V571
p496
sbag1
(g2
g3
NtRp497
(dp498
g50
V10.1104/pp.111.4.1077
p499
sg46
VPLANT PHYSIOL
p500
sg48
V111
p501
sg79
(lp502
(VWATSON
VM B
tp503
asg58
I1996
sg44
VLANT
p504
sbag1
(g2
g3
NtRp505
(dp506
g50
Nsg46
VPLANT PHYSIOL
p507
sg48
V105
p508
sg79
(lp509
(VWEGNER
VL H
tp510
asg58
I1994
sg44
VLANT
p511
sbag1
(g2
g3
NtRp512
(dp513
g50
V10.1111/j.1365-3040.1996.tb00411.x
p514
sg46
VPLANT CELL ENVIRON
p515
sg48
V19
p516
sg79
(lp517
(VWELLBURN
VF A M
tp518
asg58
I1996
sg44
VLANT
p519
sbag1
(g2
g3
NtRp520
(dp521
g50
V10.1007/s00299-006-0160-3
p522
sg46
VPLANT CELL REP
p523
sg48
V25
p524
sg79
(lp525
(VWI
VS J
tp526
asg58
I2006
sg44
VLANT
p527
sbag1
(g2
g3
NtRp528
(dp529
g50
V10.1016/j.febslet.2006.10.078
p530
sg46
VFEBS LETT
p531
sg48
V580
p532
sg79
(lp533
(VYAMAGUCHI
VK
tp534
asg58
I2006
sg44
V6783
p535
sbag1
(g2
g3
NtRp536
(dp537
g50
V10.1016/j.envexpbot.2004.04.001
p538
sg46
VENVIRON EXP BOT
p539
sg48
V53
p540
sg79
(lp541
(VZHAO
VF G
tp542
asg58
I2005
sg44
V215
p543
sbag1
(g2
g3
NtRp544
(dp545
g50
Nsg46
VACTA BOT SIN
p546
sg48
V45
p547
sg79
(lp548
(VZHAO
VF G
tp549
asg58
I2003
sg44
V295
p550
sbag1
(g2
g3
NtRp551
(dp552
g50
V10.1023/B:GROW.0000017478.40445.bc
p553
sg46
VPLANT GROWTH REGUL
p554
sg48
V42
p555
sg79
(lp556
(VZHAO
VF G
tp557
asg58
I2004
sg44
VLANT
p558
sbag1
(g2
g3
NtRp559
(dp560
g50
V10.1007/s10725-006-9004-y
p561
sg46
VPLANT GROWTH REGUL
p562
sg48
V49
p563
sg79
(lp564
(VZHU
VH
tp565
asg58
I2006
sg44
VLANT
p566
sbasb.