ccopy_reg
_reconstructor
p1
(ctethne.classes.paper
Paper
p2
c__builtin__
object
p3
NtRp4
(dp5
S'publisherCity'
p6
VROCKVILLE
p7
sS'reprintAddress'
p8
VCournac, L (reprint author), Univ Mediterranee, CEA Cadarache, Direct Sci Vivant,UMR 163 CNRS,CEA 10, Dept Ecophysiol Vegetal & Microbiol,Lab Ecophysio, F-13108 St Paul Les Durance, France.
p9
sS'WC'
p10
VPlant Sciences
p11
sS'GA'
p12
V585AZ
p13
sS'abstract'
p14
VInteractions between photosynthesis, mitochondrial respiration (mitorespiration), and chlororespiration have been investigated in the green alga Chlamydomonas reinhardtii using flash illumination and a bare platinum electrode. Depending on the physiological status of algae, flash illumination was found to induce either a fast (t(1/2) approximate to 300 ms) or slow (t(1/2) approximate to 3 s) transient inhibition of oxygen uptake. Based on the effects of the mitorespiratory inhibitors myxothiazol and salicyl hydroxamic acid (SHAM), and of propyl gallate, an inhibitor of the chlororespiratory oxidase, we conclude that the fast transient is due to the flash-induced inhibition of chlororespiration and that the slow transient is due to the flash-induced inhibition of mitorespiration. By measuring blue-green fluorescence changes, related to the redox status of the pyridine nucleotide pool, and chlorophyll fluorescence, related to the redox status of plastoquinones (PQs) in C. reinhardtii wild type and in a photosystem I-deficient mutant, we show that interactions between photosynthesis and chlororespiration are favored when PQ and pyridine nucleotide pools are reduced, whereas interactions between photosynthesis and mitorespiration are favored at more oxidized states. We conclude that the plastid oxidase, similar to the mitochondrial alternative oxidase, becomes significantly engaged when the PQ pool becomes highly reduced, and thereby prevents its over-reduction.
p15
sS'pageEnd'
p16
I1928
sS'publisherAddress'
p17
V15501 MONONA DRIVE, ROCKVILLE, MD 20855 USA
p18
sS'documentType'
p19
VArticle
p20
sS'subject'
p21
VPlant Sciences
p22
sS'isoSource'
p23
VPlant Physiol.
p24
sS'timesCited'
p25
(lp26
I43
aVZ9 49
p27
asS'PT'
p28
VJ
sS'title'
p29
VIn Vivo Interactions Between Photosynthesis, Mitorespiration, And Chlororespiration In Chlamydomonas Reinhardtii
p30
sS'ISSN'
p31
(lp32
V0032-0889
p33
aVJ9 PLANT PHYSIOL
p34
asS'authors_full'
p35
(lp36
(VCOURNAC
VL
tp37
a(VLATOUCHE
VG
tp38
a(VCEROVIC
VZ
tp39
a(VREDDING
VK
tp40
a(VRAVENEL
VJ
tp41
a(VPELTIER
VG
tp42
asS'PG'
p43
I8
sS'PD'
p44
VAUG
p45
sS'pageStart'
p46
I1921
sS'issue'
p47
I4
sS'RI'
p48
VCournac, Laurent/G-2564-2010
p49
sS'journal'
p50
VPLANT PHYSIOLOGY
p51
sS'volume'
p52
V129
p53
sS'doi'
p54
V10.1104/pp.001636
p55
sS'authorAddress'
p56
(lp57
VUniv Mediterranee, CEA Cadarache, Direct Sci Vivant,UMR 163 CNRS,CEA 10, Dept Ecophysiol Vegetal & Microbiol,Lab Ecophysio, F-13108 St Paul Les Durance, France.
p58
aVCtr Univ Paris Sud, Utilisat Rayonnement Electromagnet Lab, CNRS, Equipe Photosynthese & Teledetect, F-91898 Orsay, France.
p59
aVUniv Alabama, Dept Chem, Tuscaloosa, AL 35487 USA.
p60
asS'date'
p61
I2002
sS'ER'
p62
V
sS'publisher'
p63
VAMER SOC PLANT BIOLOGISTS
p64
sS'authorKeywords'
p65
(lp66
VNADH-SPECIFIC DEHYDROGENASE
p67
aVHIGHER-PLANT CHLOROPLASTS
p68
aVPLASTID TERMINAL OXIDASE
p69
aVALTERNATIVE OXIDASE
p70
aVELECTRON-TRANSPORT
p71
aVPHOTOSYSTEM-I
p72
aVNDH GENES
p73
aVFLUORESCENCE
p74
aVCOMPLEX
p75
aVTOBACCO
p76
asS'language'
p77
VEnglish
p78
sS'wosid'
p79
VWOS:000177502100053
p80
sS'citationCount'
p81
I42
sS'authors_init'
p82
(lp83
(VCOURNAC
VL
tp84
a(VLATOUCHE
VG
tp85
a(VCEROVIC
VZ
tp86
a(VREDDING
VK
tp87
a(VRAVENEL
VJ
tp88
a(VPELTIER
VG
tp89
asS'citedReferences'
p90
(lp91
g1
(g2
g3
NtRp92
(dp93
g54
Nsg50
VMOL BIOL CHLOROPLAST
p94
sg52
Nsg82
(lp95
(VBENNOUN
VP
tp96
asg61
I1998
sg46
V675
p97
sbag1
(g2
g3
NtRp98
(dp99
g54
V10.1016/0005-2728(94)90135-X
p100
sg50
VBBA
p101
sg52
V1186
p102
sg82
(lp103
(VBENNOUN
VP
tp104
asg61
I1994
sg46
V59
p105
sbag1
(g2
g3
NtRp106
(dp107
g54
V10.1073/pnas.79.14.4352
p108
sg50
VP NATL ACAD SCI
p109
sg52
V79
p110
sg82
(lp111
(VBENNOUN
VP
tp112
asg61
I1982
sg46
V4352
p113
sbag1
(g2
g3
NtRp114
(dp115
g54
Nsg50
VPLANTA
p116
sg52
V190
p117
sg82
(lp118
(VBERGER
VS
tp119
asg61
I1993
sg46
VLANTA
p120
sbag1
(g2
g3
NtRp121
(dp122
g54
V10.1016/S0005-2728(98)00015-2
p123
sg50
VBBA
p124
sg52
V1364
p125
sg82
(lp126
(VBERTHOLD
VD A
tp127
asg61
I1998
sg46
V73
p128
sbag1
(g2
g3
NtRp129
(dp130
g54
V10.1093/emboj/17.4.868
p131
sg50
VEMBO J
p132
sg52
V17
p133
sg82
(lp134
(VBURROWS
VP A
tp135
asg61
I1998
sg46
V868
p136
sbag1
(g2
g3
NtRp137
(dp138
g54
V10.1016/S1360-1385(00)01811-2
p139
sg50
VTRENDS PLANT SCI
p140
sg52
V6
sg82
(lp141
(VCAROL
VP
tp142
asg61
I2001
sg46
V31
p143
sbag1
(g2
g3
NtRp144
(dp145
g54
V10.1105/tpc.11.1.57
p146
sg50
VPLANT CELL
p147
sg52
V11
p148
sg82
(lp149
(VCAROL
VP
tp150
asg61
I1999
sg46
VLANT
p151
sbag1
(g2
g3
NtRp152
(dp153
g54
V10.1007/BF00033038
p154
sg50
VPHOTOSYNTH RES
p155
sg52
V36
p156
sg82
(lp157
(VCEROVIC
VZ G
tp158
asg61
I1993
sg46
VHOTOSYNTH
p159
sbag1
(g2
g3
NtRp160
(dp161
g54
V10.1016/S0005-2728(97)00074-1
p162
sg50
VBBA
p163
sg52
V1363
p164
sg82
(lp165
(VCORNEILLE
VS
tp166
asg61
I1998
sg46
V59
p167
sbag1
(g2
g3
NtRp168
(dp169
g54
Nsg50
VPHILOS T ROY SOC B
p170
sg52
V355
p171
sg82
(lp172
(VCOURNAC
VL
tp173
asg61
I2000
sg46
VHILOS
p174
sbag1
(g2
g3
NtRp175
(dp176
g54
Nsg50
VPHOTOSYNTHESIS
p177
sg52
VOLS
p178
sg82
(lp179
(VCOURNAC
VL
tp180
asg61
I1998
sg46
VHOTOSYNTHESIS
p181
sbag1
(g2
g3
NtRp182
(dp183
g54
V10.1074/jbc.M908732199
p184
sg50
VJ BIOL CHEM
p185
sg52
V275
p186
sg82
(lp187
(VCOURNAC
VL
tp188
asg61
I2000
sg46
V17256
p189
sbag1
(g2
g3
NtRp190
(dp191
g54
V10.1007/BF02172529
p192
sg50
VMOL GEN GENET
p193
sg52
V251
p194
sg82
(lp195
(VFISCHER
VN
tp196
asg61
I1996
sg46
V373
p197
sbag1
(g2
g3
NtRp198
(dp199
g54
V10.1016/0005-2728(90)90226-T
p200
sg50
VBIOCHIM BIOPHYS ACTA
p201
sg52
V1015
p202
sg82
(lp203
(VGANS
VP
tp204
asg61
I1990
sg46
V150
p205
sbag1
(g2
g3
NtRp206
(dp207
g54
Nsg50
VBIOCHIM BIOPHYS ACTA
p208
sg52
V990
p209
sg82
(lp210
(VGENTY
VB
tp211
asg61
I1989
sg46
V87
p212
sbag1
(g2
g3
NtRp213
(dp214
g54
V10.1016/0014-5793(95)01473-X
p215
sg50
VFEBS LETT
p216
sg52
V378
p217
sg82
(lp218
(VGUEDENEY
VG
tp219
asg61
I1996
sg46
V277
p220
sbag1
(g2
g3
NtRp221
(dp222
g54
Nsg50
VCHLAMYDOMONAS SOURCE
p223
sg52
Nsg82
(lp224
(VHARRIS
VE
tp225
asg61
I1989
sg46
Nsbag1
(g2
g3
NtRp226
(dp227
g54
V10.1016/S0005-2728(98)00126-1
p228
sg50
VBBA
p229
sg52
V1366
p230
sg82
(lp231
(VHOEFNAGEL
VM H N
tp232
asg61
I1998
sg46
V235
p233
sbag1
(g2
g3
NtRp234
(dp235
g54
V10.1104/pp.123.4.1337
p236
sg50
VPLANT PHYSIOL
p237
sg52
V123
p238
sg82
(lp239
(VHORVATH
VE M
tp240
asg61
I2000
sg46
VLANT
p241
sbag1
(g2
g3
NtRp242
(dp243
g54
Nsg50
VIN PRESS J BIOL CHEM
p244
sg52
Nsg82
(lp245
(VJOET
VT
tp246
asg61
I2002
sg46
Nsbag1
(g2
g3
NtRp247
(dp248
g54
V10.1016/0167-4838(92)90460-U
p249
sg50
VBIOCHIM BIOPHYS ACTA
p250
sg52
V1101
p251
sg82
(lp252
(VJOLIOT
VP
tp253
asg61
I1992
sg46
V1
sbag1
(g2
g3
NtRp254
(dp255
g54
V10.1104/pp.123.4.1427
p256
sg50
VPLANT PHYSIOL
p257
sg52
V123
p258
sg82
(lp259
(VJOSSE
VE M
tp260
asg61
I2000
sg46
VLANT
p261
sbag1
(g2
g3
NtRp262
(dp263
g54
V10.1007/s004380050719
p264
sg50
VMOL GEN GENET
p265
sg52
V258
p266
sg82
(lp267
(VKOFER
VW
tp268
asg61
I1998
sg46
V166
p269
sbag1
(g2
g3
NtRp270
(dp271
g54
V10.1016/S0005-2728(00)00198-5
p272
sg50
VBBA
p273
sg52
V1460
p274
sg82
(lp275
(VLATOUCHE
VG
tp276
asg61
I2000
sg46
V311
p277
sbag1
(g2
g3
NtRp278
(dp279
g54
Nsg50
VPHOTOSYNTHESIS LIGHT
p280
sg52
V2
sg82
(lp281
(VPELTIER
VG
tp282
asg61
I1995
sg46
VHOTOSYNTHESIS
p283
sbag1
(g2
g3
NtRp284
(dp285
g54
V10.1146/annurev.arplant.53.100301.135242
p286
sg50
VANNU REV PLANT BIOL
p287
sg52
V53
p288
sg82
(lp289
(VPELTIER
VG
tp290
asg61
I2002
sg46
V523
p291
sbag1
(g2
g3
NtRp292
(dp293
g54
V10.1016/0005-2728(88)90007-2
p294
sg50
VBIOCHIM BIOPHYS ACTA
p295
sg52
V936
p296
sg82
(lp297
(VPELTIER
VG
tp298
asg61
I1988
sg46
V319
p299
sbag1
(g2
g3
NtRp300
(dp301
g54
V10.1073/pnas.88.11.4791
p302
sg50
VP NATL ACAD SCI USA
p303
sg52
V88
p304
sg82
(lp305
(VPELTIER
VG
tp306
asg61
I1991
sg46
V4791
p307
sbag1
(g2
g3
NtRp308
(dp309
g54
V10.1016/0005-2728(87)90151-4
p310
sg50
VBIOCHIM BIOPHYS ACTA
p311
sg52
V893
p312
sg82
(lp313
(VPELTIER
VG
tp314
asg61
I1987
sg46
V83
p315
sbag1
(g2
g3
NtRp316
(dp317
g54
V10.1016/0167-4838(92)90466-Q
p318
sg50
VBIOCHIM BIOPHYS ACTA
p319
sg52
V1101
p320
sg82
(lp321
(VRAVENEL
VJ
tp322
asg61
I1992
sg46
V57
p323
sbag1
(g2
g3
NtRp324
(dp325
g54
V10.1074/jbc.274.15.10466
p326
sg50
VJ BIOL CHEM
p327
sg52
V274
p328
sg82
(lp329
(VREDDING
VK
tp330
asg61
I1999
sg46
V10466
p331
sbag1
(g2
g3
NtRp332
(dp333
g54
Nsg50
VBIOCHEM SOC T
p334
sg52
V24
p335
sg82
(lp336
(VSAZANOV
VL A
tp337
asg61
I1996
sg46
V739
p338
sbag1
(g2
g3
NtRp339
(dp340
g54
V10.1073/pnas.95.3.1319
p341
sg50
VP NATL ACAD SCI USA
p342
sg52
V95
p343
sg82
(lp344
(VSAZANOV
VL A
tp345
asg61
I1998
sg46
V1319
p346
sbag1
(g2
g3
NtRp347
(dp348
g54
V10.1016/0968-0004(90)90296-N
p349
sg50
VTRENDS BIOCHEM SCI
p350
sg52
V15
p351
sg82
(lp352
(VSCHERER
VS
tp353
asg61
I1990
sg46
V458
p354
sbag1
(g2
g3
NtRp355
(dp356
g54
Nsg50
VZ NATURFORSCH C
p357
sg52
V34
p358
sg82
(lp359
(VSCHMID
VG H
tp360
asg61
I1979
sg46
V570
p361
sbag1
(g2
g3
NtRp362
(dp363
g54
Nsg50
VPLANT BIOTECHNOL
p364
sg52
V17
p365
sg82
(lp366
(VSHIKANAI
VT
tp367
asg61
I2000
sg46
VLANT
p368
sbag1
(g2
g3
NtRp369
(dp370
g54
V10.1073/pnas.95.16.9705
p371
sg50
VP NATL ACAD SCI USA
p372
sg52
V95
p373
sg82
(lp374
(VSHIKANAI
VT
tp375
asg61
I1998
sg46
V9705
p376
sbag1
(g2
g3
NtRp377
(dp378
g54
V10.1104/pp.65.4.669
p379
sg50
VPLANT PHYSIOL
p380
sg52
V65
p381
sg82
(lp382
(VSIEDOW
VJ N
tp383
asg61
I1980
sg46
VLANT
p384
sbag1
(g2
g3
NtRp385
(dp386
g54
V10.1146/annurev.arplant.48.1.703
p387
sg50
VANNU REV PLANT PHYS
p388
sg52
V48
p389
sg82
(lp390
(VVANLERBERGHE
VG C
tp391
asg61
I1997
sg46
V703
p392
sbag1
(g2
g3
NtRp393
(dp394
g54
V10.1105/tpc.11.1.43
p395
sg50
VPLANT CELL
p396
sg52
V11
p397
sg82
(lp398
(VWU
VD Y
tp399
asg61
I1999
sg46
VLANT
p400
sbag1
(g2
g3
NtRp401
(dp402
g54
V10.1023/A:1006350706802
p403
sg50
VPHOTOSYNTH RES
p404
sg52
V63
p405
sg82
(lp406
(VYAMANE
VY
tp407
asg61
I2000
sg46
VHOTOSYNTH
p408
sbasb.