ccopy_reg
_reconstructor
p1
(ctethne.classes.paper
Paper
p2
c__builtin__
object
p3
NtRp4
(dp5
S'publisherCity'
p6
VROCKVILLE
p7
sS'reprintAddress'
p8
VPont-Lezica, RP (reprint author), Univ Toulouse 3, CNRS, UMR 5546, F-31326 Castanet Tolosan, France.
p9
sS'WC'
p10
VPlant Sciences
p11
sS'GA'
p12
V000WC
p13
sS'abstract'
p14
VInteractions between plant cell walls and plasma membranes are essential for cells to function properly, but the molecules that mediate the structural continuity between wall and membrane are unknown. Some of these interactions, which are visualized upon tissue plasmolysis in Arabidopsis (Arabidopsis thaliana), are disrupted by the RGD (arginine-glycine-aspartic acid) tripeptide sequence, a characteristic cell adhesion motif in mammals. In planta induced-O (IPI-O) is an RGD-containing protein from the plant pathogen Phytophthora infestans that can disrupt cell wall-plasma membrane adhesions through its RGD motif. To identify peptide sequences that specifically bind the RGD motif of the IPI-O protein and potentially play a role in receptor recognition, we screened a heptamer peptide library displayed in a filamentous phage and selected two peptides acting as inhibitors of the plasma membrane RGD-binding activity of Arabidopsis. Moreover, the two peptides also disrupted cell wall-plasma membrane adhesions. Sequence comparison of the RGD-binding peptides with the Arabidopsis proteome revealed 12 proteins containing amino acid sequences in their extracellular domains common with the two RGD-binding peptides. Eight belong to the receptor-like kinase family, four of which have a lectin-like extracellular domain. The lectin domain of one of these, At5g60300, recognized the RGD motif both in peptides and proteins. These results imply that lectin receptor kinases are involved in protein-protein interactions with RGD-containing proteins as potential ligands, and play a structural and signaling role at the plant cell surfaces.
p15
sS'pageEnd'
p16
I90
sS'date'
p17
I2006
sS'documentType'
p18
VArticle
p19
sS'subject'
p20
VPlant Sciences
p21
sS'isoSource'
p22
VPlant Physiol.
p23
sS'timesCited'
p24
(lp25
I55
aVZ9 59
p26
asS'PT'
p27
VJ
sS'title'
p28
VLectin Receptor Kinases Participate In Protein-Protein Interactions To Mediate Plasma Membrane-Cell Wall Adhesions In Arabidopsis
p29
sS'ISSN'
p30
(lp31
V0032-0889
p32
aVJ9 PLANT PHYSIOL
p33
asS'authors_full'
p34
(lp35
(VGOUGET
VA
tp36
a(VSENCHOU
VV
tp37
a(VGOVERS
VF
tp38
a(VSANSON
VA
tp39
a(VBARRE
VA
tp40
a(VROUGE
VP
tp41
a(VPONTLEZICA
VRP
tp42
a(VCANUT
VH
tp43
asS'PG'
p44
I10
sS'PD'
p45
VJAN
p46
sS'pageStart'
p47
I81
sS'issue'
p48
I1
sS'RI'
p49
VGovers, Francine/A-5616-2009
p50
sS'journal'
p51
VPLANT PHYSIOLOGY
p52
sS'volume'
p53
V140
p54
sS'doi'
p55
V10.1104/pp.105.066464
p56
sS'emailAddress'
p57
Vlezica@scsv.ups-tlse.fr
p58
sS'authorAddress'
p59
(lp60
VUniv Toulouse 3, CNRS, UMR 5546, F-31326 Castanet Tolosan, France.
p61
aVUniv Wageningen & Res Ctr, Plant Sci Grp, Phytopathol Lab, NL-6700 EE Wageningen, Netherlands.
p62
asS'publisherAddress'
p63
V15501 MONONA DRIVE, ROCKVILLE, MD 20855 USA
p64
sS'ER'
p65
V
sS'publisher'
p66
VAMER SOC PLANT BIOLOGISTS
p67
sS'authorKeywords'
p68
(lp69
VSIGNAL-TRANSDUCTION
p70
aVLATHYRUS-OCHRUS
p71
aVISOLECTIN-I
p72
aVSEQUENCES
p73
aVBINDING
p74
aVPLANTS
p75
aVEXPRESSION
p76
aVALIGNMENT
p77
aVFAMILIES
p78
aVDATABASE
p79
asS'OI'
p80
VGovers, Francine/0000-0001-5311-929X
p81
sS'language'
p82
VEnglish
p83
sS'wosid'
p84
VWOS:000234492100008
p85
sS'citationCount'
p86
I39
sS'authors_init'
p87
(lp88
(VGOUGET
VA
tp89
a(VSENCHOU
VV
tp90
a(VGOVERS
VF
tp91
a(VSANSON
VA
tp92
a(VBARRE
VA
tp93
a(VROUGE
VP
tp94
a(VPONTLEZICA
VR P
tp95
a(VCANUT
VH
tp96
asS'citedReferences'
p97
(lp98
g1
(g2
g3
NtRp99
(dp100
g55
V10.1002/elps.1150190715
p101
sg51
VELECTROPHORESIS
p102
sg53
V19
p103
sg87
(lp104
(VBARDY
VN
tp105
asg17
I1998
sg47
V1145
p106
sbag1
(g2
g3
NtRp107
(dp108
g55
V10.1080/0735-260291044287
p109
sg51
VCRIT REV PLANT SCI
p110
sg53
V21
p111
sg87
(lp112
(VBARRE
VA
tp113
asg17
I2002
sg47
V379
p114
sbag1
(g2
g3
NtRp115
(dp116
g55
V10.1093/nar/gkh121
p117
sg51
VNUCLEIC ACIDS RES
p118
sg53
V32
p119
sg87
(lp120
(VBATEMAN
VA
tp121
asg17
I2004
sg47
VD138
p122
sbag1
(g2
g3
NtRp123
(dp124
g55
V10.1126/science.263.5152.1421
p125
sg51
VSCIENCE
p126
sg53
V263
p127
sg87
(lp128
(VBERGER
VF
tp129
asg17
I1994
sg47
V1421
p130
sbag1
(g2
g3
NtRp131
(dp132
g55
V10.1093/nar/28.1.235
p133
sg51
VNUCLEIC ACIDS RES
p134
sg53
V28
p135
sg87
(lp136
(VBERMAN
VH M
tp137
asg17
I2000
sg47
V235
p138
sbag1
(g2
g3
NtRp139
(dp140
g55
V10.1016/j.tplants.2004.08.004
p141
sg51
VTRENDS PLANT SCI
p142
sg53
V9
sg87
(lp143
(VBERNAL
VA J
tp144
asg17
I2004
sg47
V465
p145
sbag1
(g2
g3
NtRp146
(dp147
g55
V10.1016/0022-2836(90)90199-V
p148
sg51
VJ MOL BIOL
p149
sg53
V214
p150
sg87
(lp151
(VBOURNE
VY
tp152
asg17
I1990
sg47
V571
p153
sbag1
(g2
g3
NtRp154
(dp155
g55
V10.1002/prot.340080410
p156
sg51
VPROTEINS
p157
sg53
V8
sg87
(lp158
(VBOURNE
VY
tp159
asg17
I1990
sg47
VROTEINS
p160
sbag1
(g2
g3
NtRp161
(dp162
g55
V10.1046/j.1365-313x.1998.00276.x
p163
sg51
VPLANT J
p164
sg53
V16
p165
sg87
(lp166
(VCANUT
VH
tp167
asg17
I1998
sg47
VLANT
p168
sbag1
(g2
g3
NtRp169
(dp170
g55
V10.1083/jcb.153.3.491
p171
sg51
VJ CELL BIOL
p172
sg53
V153
p173
sg87
(lp174
(VERB
VL
tp175
asg17
I2001
sg47
V491
p176
sbag1
(g2
g3
NtRp177
(dp178
g55
V10.1126/science.276.5317.1415
p179
sg51
VSCIENCE
p180
sg53
V276
p181
sg87
(lp182
(VFLEMING
VA J
tp183
asg17
I1997
sg47
V1415
p184
sbag1
(g2
g3
NtRp185
(dp186
g55
V10.1016/0014-5793(87)80439-8
p187
sg51
VFEBS LETT
p188
sg53
V224
p189
sg87
(lp190
(VGABORIAUD
VC
tp191
asg17
I1987
sg47
V149
p192
sbag1
(g2
g3
NtRp193
(dp194
g55
V10.1007/BF01281193
p195
sg51
VPROTOPLASMA
p196
sg53
V190
p197
sg87
(lp198
(VHENRY
VC A
tp199
asg17
I1996
sg47
VROTOPLASMA
p200
sbag1
(g2
g3
NtRp201
(dp202
g55
V10.1023/A:1006136701595
p203
sg51
VPLANT MOL BIOL
p204
sg53
V39
p205
sg87
(lp206
(VHERVE
VC
tp207
asg17
I1999
sg47
VLANT
p208
sbag1
(g2
g3
NtRp209
(dp210
g55
V10.1016/S0955-0674(00)00247-7
p211
sg51
VCURR OPIN CELL BIOL
p212
sg53
V13
p213
sg87
(lp214
(VKOHORN
VB D
tp215
asg17
I2001
sg47
V529
p216
sbag1
(g2
g3
NtRp217
(dp218
g55
V10.1104/pp.124.1.31
p219
sg51
VPLANT PHYSIOL
p220
sg53
V124
p221
sg87
(lp222
(VKOHORN
VB D
tp223
asg17
I2000
sg47
VLANT
p224
sbag1
(g2
g3
NtRp225
(dp226
g55
Nsg51
VJ BIOL CHEM
p227
sg53
V268
p228
sg87
(lp229
(VKOIVUNEN
VE
tp230
asg17
I1993
sg47
V20205
p231
sbag1
(g2
g3
NtRp232
(dp233
g55
V10.1107/S0021889892009944
p234
sg51
VJ APPL CRYSTALLOGR
p235
sg53
V26
p236
sg87
(lp237
(VLASKOWSKI
VR A
tp238
asg17
I1993
sg47
V283
p239
sbag1
(g2
g3
NtRp240
(dp241
g55
Nsg51
VCAN J BOT
p242
sg53
V62
p243
sg87
(lp244
(VLEESTADELMANN
VO Y
tp245
asg17
I1984
sg47
V1714
p246
sbag1
(g2
g3
NtRp247
(dp248
g55
V10.1111/1365-3040.ep11588112
p249
sg51
VPLANT CELL ENVIRON
p250
sg53
V6
sg87
(lp251
(VLEVITT
VJ
tp252
asg17
I1983
sg47
VLANT
p253
sbag1
(g2
g3
NtRp254
(dp255
g55
V10.1038/307363a0
p256
sg51
VNATURE
p257
sg53
V307
p258
sg87
(lp259
(VLINTILHAC
VP M
tp260
asg17
I1984
sg47
V363
p261
sbag1
(g2
g3
NtRp262
(dp263
g55
V10.1002/prot.340140409
p264
sg51
VPROTEINS
p265
sg53
V14
p266
sg87
(lp267
(VMAS
VM T
tp268
asg17
I1992
sg47
VROTEINS
p269
sbag1
(g2
g3
NtRp270
(dp271
g55
Nsg51
VPLANT CELL
p272
sg53
V9
sg87
(lp273
(VMCCABE
VP F
tp274
asg17
I1997
sg47
VLANT
p275
sbag1
(g2
g3
NtRp276
(dp277
g55
V10.1105/tpc.13.2.413
p278
sg51
VPLANT CELL
p279
sg53
V13
p280
sg87
(lp281
(VMELLERSH
VD G
tp282
asg17
I2001
sg47
VLANT
p283
sbag1
(g2
g3
NtRp284
(dp285
g55
V10.1093/nar/gkg046
p286
sg51
VNUCLEIC ACIDS RES
p287
sg53
V31
p288
sg87
(lp289
(VMULDER
VN J
tp290
asg17
I2003
sg47
V315
p291
sbag1
(g2
g3
NtRp292
(dp293
g55
V10.1104/pp.103.027680
p294
sg51
VPLANT PHYSIOL
p295
sg53
V133
p296
sg87
(lp297
(VNAVARRO-GOCHICOA
VM T
tp298
asg17
I2003
sg47
VLANT
p299
sbag1
(g2
g3
NtRp300
(dp301
g55
V10.1016/S0141-8130(97)00087-1
p302
sg51
VINT J BIOL MACROMOL
p303
sg53
V22
p304
sg87
(lp305
(VPAPADOPOULOS
VG K
tp306
asg17
I1998
sg47
V51
p307
sbag1
(g2
g3
NtRp308
(dp309
g55
V10.1016/0022-2836(87)90358-5
p310
sg51
VJ MOL BIOL
p311
sg53
V193
p312
sg87
(lp313
(VPONDER
VJ W
tp314
asg17
I1987
sg47
V775
p315
sbag1
(g2
g3
NtRp316
(dp317
g55
V10.1007/BF01354238
p318
sg51
VPROTOPLASMA
p319
sg53
V152
p320
sg87
(lp321
(VROBERTS
VA W
tp322
asg17
I1989
sg47
VROTOPLASMA
p323
sbag1
(g2
g3
NtRp324
(dp325
g55
Nsg51
VTURBO FRODO SILICON
p326
sg53
Nsg87
(lp327
(VROUSSEL
VA
tp328
asg17
I1989
sg47
Nsbag1
(g2
g3
NtRp329
(dp330
g55
V10.1083/jcb.108.5.1955
p331
sg51
VJ CELL BIOL
p332
sg53
V108
p333
sg87
(lp334
(VSCHINDLER
VM
tp335
asg17
I1989
sg47
V1955
p336
sbag1
(g2
g3
NtRp337
(dp338
g55
V10.1007/s00018-003-3394-z
p339
sg51
VCELL MOL LIFE SCI
p340
sg53
V61
p341
sg87
(lp342
(VSENCHOU
VV
tp343
asg17
I2004
sg47
V502
p344
sbag1
(g2
g3
NtRp345
(dp346
g55
V10.1073/pnas.181141598
p347
sg51
VP NATL ACAD SCI USA
p348
sg53
V98
p349
sg87
(lp350
(VSHIU
VS H
tp351
asg17
I2001
sg47
V10763
p352
sbag1
(g2
g3
NtRp353
(dp354
g55
Nsg51
VNATURE
p355
sg53
V408
p356
sg87
(lp357
(VKAUL
VS
tp358
asg17
I2000
sg47
V796
p359
sbag1
(g2
g3
NtRp360
(dp361
g55
V10.1093/nar/25.24.4876
p362
sg51
VNUCLEIC ACIDS RES
p363
sg53
V25
p364
sg87
(lp365
(VTHOMPSON
VJ D
tp366
asg17
I1997
sg47
V4876
p367
sbag1
(g2
g3
NtRp368
(dp369
g55
V10.1016/S1369-5266(00)00097-2
p370
sg51
VCURR OPIN PLANT BIOL
p371
sg53
V3
sg87
(lp372
(VTORII
VK U
tp373
asg17
I2000
sg47
V361
p374
sbag1
(g2
g3
NtRp375
(dp376
g55
V10.1016/S0735-2689(98)00365-7
p377
sg51
VCRIT REV PLANT SCI
p378
sg53
V17
p379
sg87
(lp380
(VVAN
VDAMME E J M
tp381
asg17
I1998
sg47
V575
p382
sbag1
(g2
g3
NtRp383
(dp384
g55
V10.1016/0962-8924(93)90022-S
p385
sg51
VTrends in Cell Biology
p386
sg53
V3
sg87
(lp387
(VWYATT
VSARAH E
tp388
asg17
I1993
sg47
V413
p389
sbag1
(g2
g3
NtRp390
(dp391
g55
Nsg51
VPLANT J
p392
sg53
V3
sg87
(lp393
(VZHU
VJ K
tp394
asg17
I1993
sg47
VLANT
p395
sbasb.