ccopy_reg
_reconstructor
p1
(ctethne.classes.paper
Paper
p2
c__builtin__
object
p3
NtRp4
(dp5
S'publisherCity'
p6
VROCKVILLE
p7
sS'reprintAddress'
p8
VVierstra, RD (reprint author), Univ Wisconsin, Dept Genet, Madison, WI 53706 USA.
p9
sS'WC'
p10
VPlant Sciences
p11
sS'GA'
p12
V004IN
p13
sS'FX'
p14
(lp15
VThis work was supported by the U.S. National Science Foundation
p16
aVArabidopsis 2010 Program (grant no. MCB-0929100) and Plant Genome
p17
aVProgram (grant no. IOS-1232752), the Department of Energy Basic Energy
p18
aVSciences Program (grant no. DE-FG02-88ER13968), and the U.S. Department
p19
aVof Agriculture National Institute of Food and Agriculture (grant no.
p20
aV2008-02545).
p21
asS'pageEnd'
p22
I14
sS'date'
p23
I2012
sS'documentType'
p24
VArticle
p25
sS'subject'
p26
VPlant Sciences
p27
sS'isoSource'
p28
VPlant Physiol.
p29
sS'timesCited'
p30
(lp31
I2
aVZ9 2
p32
asS'funding'
p33
(lp34
(VU.S. National Science Foundation Arabidopsis Program
VMCB-0929100
tp35
a(VPlant Genome Program
VIOS-1232752
tp36
a(VDepartment of Energy Basic Energy Sciences Program
VDE-FG02-88ER13968
tp37
a(VU.S. Department of Agriculture National Institute of Food and Agriculture
V2008-02545
tp38
asS'PT'
p39
VJ
sS'title'
p40
VThe Expanding Universe Of Ubiquitin And Ubiquitin-Like Modifiers
p41
sS'ISSN'
p42
(lp43
V0032-0889
p44
aVJ9 PLANT PHYSIOL
p45
asS'authors_full'
p46
(lp47
(VVIERSTRA
VRICHARD D
tp48
asS'PG'
p49
I13
sS'PD'
p50
VSEP
p51
sS'pageStart'
p52
I2
sS'issue'
p53
I1
sS'journal'
p54
VPLANT PHYSIOLOGY
p55
sS'volume'
p56
V160
p57
sS'doi'
p58
V10.1104/pp.112.200667
p59
sS'emailAddress'
p60
Vvierstra@wisc.edu
p61
sS'authorAddress'
p62
VUniv Wisconsin, Dept Genet, Madison, WI 53706 USA.
p63
sS'publisherAddress'
p64
V15501 MONONA DRIVE, ROCKVILLE, MD 20855 USA
p65
sS'ER'
p66
V
sS'publisher'
p67
VAMER SOC PLANT BIOLOGISTS
p68
sS'authorKeywords'
p69
(lp70
VARABIDOPSIS CULLIN ATCUL1
p71
aVKAPPA-B ACTIVATION
p72
aVSELECTIVE AUTOPHAGY
p73
aV26S PROTEASOME
p74
aVUBIQUITYLATED PROTEINS
p75
aVAFFINITY PURIFICATION
p76
aVFUNCTIONAL-ANALYSIS
p77
aVRIBOSOMAL-PROTEINS
p78
aVCONJUGATION SYSTEM
p79
aVEMBRYO DEVELOPMENT
p80
asS'language'
p81
VEnglish
p82
sS'wosid'
p83
VWOS:000308675100002
p84
sS'citationCount'
p85
I146
sS'authors_init'
p86
(lp87
(VVIERSTRA
VR D
tp88
asS'citedReferences'
p89
(lp90
g1
(g2
g3
NtRp91
(dp92
g58
V10.1016/j.bbamcr.2009.01.001
p93
sg54
VBBA
p94
sg56
V1793
p95
sg86
(lp96
(VBASSHAM
VD C
tp97
asg23
I2009
sg52
V1397
p98
sbag1
(g2
g3
NtRp99
(dp100
g58
V10.1006/jmbi.1998.1839
p101
sg54
VJ MOL BIOL
p102
sg56
V280
p103
sg86
(lp104
(VBAYER
VP
tp105
asg23
I1998
sg52
V275
p106
sbag1
(g2
g3
NtRp107
(dp108
g58
V10.1038/nature09204
p109
sg54
VNATURE
p110
sg56
V466
p111
sg86
(lp112
(VBEHRENDS
VC
tp113
asg23
I2010
sg52
V68
p114
sbag1
(g2
g3
NtRp115
(dp116
g58
V10.1074/jbc.M110.136622
p117
sg54
VJ BIOL CHEM
p118
sg56
V285
p119
sg86
(lp120
(VBOOK
VA J
tp121
asg23
I2010
sg52
V25554
p122
sbag1
(g2
g3
NtRp123
(dp124
g58
V10.1016/j.molcel.2010.07.019
p125
sg54
VMOL CELL
p126
sg56
V39
p127
sg86
(lp128
(VBURNS
VK E
tp129
asg23
I2010
sg52
V821
p130
sbag1
(g2
g3
NtRp131
(dp132
g58
V10.2741/3996
p133
sg54
VFRONT BIOSCI
p134
sg56
V17
p135
sg86
(lp136
(VBURROUGHS
VA M
tp137
asg23
I2012
sg52
V1433
p138
sbag1
(g2
g3
NtRp139
(dp140
g58
Nsg54
VGENETICS
p141
sg56
V139
p142
sg86
(lp143
(VCALLIS
VJ
tp144
asg23
I1995
sg52
V921
p145
sbag1
(g2
g3
NtRp146
(dp147
g58
Nsg54
VJ BIOL CHEM
p148
sg56
V265
p149
sg86
(lp150
(VCALLIS
VJ
tp151
asg23
I1990
sg52
V12486
p152
sbag1
(g2
g3
NtRp153
(dp154
g58
V10.1111/j.1365-313X.2010.04166.x
p155
sg54
VPLANT J
p156
sg56
V62
p157
sg86
(lp158
(VCHUNG
VT
tp159
asg23
I2010
sg52
VLANT
p160
sbag1
(g2
g3
NtRp161
(dp162
g58
V10.1104/pp.108.126714
p163
sg54
VPLANT PHYSIOL
p164
sg56
V149
p165
sg86
(lp166
(VCHUNG
VT
tp167
asg23
I2009
sg52
VLANT
p168
sbag1
(g2
g3
NtRp169
(dp170
g58
V10.1104/pp.106.085415
p171
sg54
VPLANT PHYSIOL
p172
sg56
V142
p173
sg86
(lp174
(VCOLBY
VT
tp175
asg23
I2006
sg52
VLANT
p176
sbag1
(g2
g3
NtRp177
(dp178
g58
V10.1105/tpc.108.058669
p179
sg54
VPLANT CELL
p180
sg56
V20
p181
sg86
(lp182
(VCONTI
VL
tp183
asg23
I2008
sg52
VLANT
p184
sbag1
(g2
g3
NtRp185
(dp186
g58
V10.1016/j.tplants.2008.12.001
p187
sg54
VTRENDS PLANT SCI
p188
sg56
V14
p189
sg86
(lp190
(VCROWELL
VD N
tp191
asg23
I2009
sg52
V163
p192
sbag1
(g2
g3
NtRp193
(dp194
g58
V10.1073/pnas.0500185102
p195
sg54
VP NATL ACAD SCI USA
p196
sg56
V102
p197
sg86
(lp198
(VDAI
VX H
tp199
asg23
I2005
sg52
V3129
p200
sbag1
(g2
g3
NtRp201
(dp202
g58
V10.1105/tpc.010282
p203
sg54
VPLANT CELL
p204
sg56
V14
p205
sg86
(lp206
(VDEL
VPOZO J C
tp207
asg23
I2002
sg52
VLANT
p208
sbag1
(g2
g3
NtRp209
(dp210
g58
V10.1073/pnas.96.26.15342
p211
sg54
VP NATL ACAD SCI USA
p212
sg56
V96
p213
sg86
(lp214
(VDEL
VPOZO J C
tp215
asg23
I1999
sg52
V15342
p216
sbag1
(g2
g3
NtRp217
(dp218
g58
V10.1016/S1097-2765(00)80133-1
p219
sg54
VMOL CELL
p220
sg56
V2
sg86
(lp221
(VDESTERRO
VJ M P
tp222
asg23
I1998
sg52
V233
p223
sbag1
(g2
g3
NtRp224
(dp225
g58
V10.1126/science.1069989
p226
sg54
VSCIENCE
p227
sg56
V295
p228
sg86
(lp229
(VDITTMAR
VG A G
tp230
asg23
I2002
sg52
V2442
p231
sbag1
(g2
g3
NtRp232
(dp233
g58
V10.1074/jbc.M204630200
p234
sg54
VJ BIOL CHEM
p235
sg56
V277
p236
sg86
(lp237
(VDOELLING
VJ H
tp238
asg23
I2002
sg52
V33105
p239
sbag1
(g2
g3
NtRp240
(dp241
g58
V10.1046/j.1365-313X.2001.01106.x
p242
sg54
VPLANT J
p243
sg56
V27
p244
sg86
(lp245
(VDOELLING
VJ H
tp246
asg23
I2001
sg52
VLANT
p247
sbag1
(g2
g3
NtRp248
(dp249
g58
V10.1074/jbc.M110.158808
p250
sg54
VJ BIOL CHEM
p251
sg56
V286
p252
sg86
(lp253
(VDOWIL
VR T
tp254
asg23
I2011
sg52
V14913
p255
sbag1
(g2
g3
NtRp256
(dp257
g58
Nsg54
VBIOCHEM SOC T
p258
sg56
V33
p259
sg86
(lp260
(VDOWNES
VB
tp261
asg23
I2005
sg52
V393
p262
sbag1
(g2
g3
NtRp263
(dp264
g58
V10.1046/j.1365-313X.2003.01844.x
p265
sg54
VPLANT J
p266
sg56
V35
p267
sg86
(lp268
(VDOWNES
VB P
tp269
asg23
I2003
sg52
VLANT
p270
sbag1
(g2
g3
NtRp271
(dp272
g58
V10.1074/jbc.M602283200
p273
sg54
VJ BIOL CHEM
p274
sg56
V281
p275
sg86
(lp276
(VDOWNES
VB P
tp277
asg23
I2006
sg52
V27145
p278
sbag1
(g2
g3
NtRp279
(dp280
g58
V10.1093/aob/mcl255
p281
sg54
VANN BOT
p282
sg56
V99
p283
sg86
(lp284
(VDREHER
VK
tp285
asg23
I2007
sg52
V787
p286
sbag1
(g2
g3
NtRp287
(dp288
g58
V10.1186/1471-2229-10-254
p289
sg54
VBMC PLANT BIOL
p290
sg56
V10
p291
sg86
(lp292
(VLIMA
VM D
tp293
asg23
I2010
sg52
Nsbag1
(g2
g3
NtRp294
(dp295
g58
V10.1073/pnas.1005452107
p296
sg54
VP NATL ACAD SCI USA
p297
sg56
V107
p298
sg86
(lp299
(VELROUBY
VN
tp300
asg23
I2010
sg52
V17415
p301
sbag1
(g2
g3
NtRp302
(dp303
g58
V10.1105/tpc.109.072660
p304
sg54
VPLANT CELL
p305
sg56
V22
p306
sg86
(lp307
(VFARMER
VL M
tp308
asg23
I2010
sg52
VLANT
p309
sbag1
(g2
g3
NtRp310
(dp311
g58
V10.1111/j.1742-4658.2009.07531.x
p312
sg54
VFEBS J
p313
sg56
V277
p314
sg86
(lp315
(VFATIMABABY
VA S
tp316
asg23
I2010
sg52
V796
p317
sbag1
(g2
g3
NtRp318
(dp319
g58
V10.1105/tpc.021949
p320
sg54
VPLANT CELL
p321
sg56
V16
p322
sg86
(lp323
(VFENG
VS H
tp324
asg23
I2004
sg52
VLANT
p325
sbag1
(g2
g3
NtRp326
(dp327
g58
V10.1105/tpc.105.031989
p328
sg54
VPLANT CELL
p329
sg56
V17
p330
sg86
(lp331
(VFIGUEROA
VP
tp332
asg23
I2005
sg52
VLANT
p333
sbag1
(g2
g3
NtRp334
(dp335
g58
V10.1146/annurev.biochem.78.081507.101607
p336
sg54
VANNU REV BIOCHEM
p337
sg56
V78
p338
sg86
(lp339
(VFINLEY
VD
tp340
asg23
I2009
sg52
V477
p341
sbag1
(g2
g3
NtRp342
(dp343
g58
V10.1038/338394a0
p344
sg54
VNATURE
p345
sg56
V338
p346
sg86
(lp347
(VFINLEY
VD
tp348
asg23
I1989
sg52
V394
p349
sbag1
(g2
g3
NtRp350
(dp351
g58
V10.1105/tpc.106.041319
p352
sg54
VPLANT CELL
p353
sg56
V19
p354
sg86
(lp355
(VFLEURY
VD
tp356
asg23
I2007
sg52
VLANT
p357
sbag1
(g2
g3
NtRp358
(dp359
g58
V10.1016/j.tplants.2010.03.004
p360
sg54
VTRENDS PLANT SCI
p361
sg56
V15
p362
sg86
(lp363
(VFU
VH Y
tp364
asg23
I2010
sg52
V375
p365
sbag1
(g2
g3
NtRp366
(dp367
g58
V10.1074/jbc.M706214200
p368
sg54
VJ BIOL CHEM
p369
sg56
V283
p370
sg86
(lp371
(VFUJIOKA
VY
tp372
asg23
I2008
sg52
V1921
p373
sbag1
(g2
g3
NtRp374
(dp375
g58
V10.1074/jbc.275.11.7462
p376
sg54
VJ BIOL CHEM
p377
sg56
V275
p378
sg86
(lp379
(VFURUKAWA
VK
tp380
asg23
I2000
sg52
V7462
p381
sbag1
(g2
g3
NtRp382
(dp383
g58
V10.1073/pnas.162339999
p384
sg54
VP NATL ACAD SCI USA
p385
sg56
V99
p386
sg86
(lp387
(VGAGNE
VJ M
tp388
asg23
I2002
sg52
V11519
p389
sbag1
(g2
g3
NtRp390
(dp391
g58
V10.1146/annurev-biochem-052110-120012
p392
sg54
VANNU REV BIOCHEM
p393
sg56
V81
p394
sg86
(lp395
(VGENG
VF Q
tp396
asg23
I2012
sg52
V177
p397
sbag1
(g2
g3
NtRp398
(dp399
g58
V10.1074/jbc.M413247200
p400
sg54
VJ BIOL CHEM
p401
sg56
V280
p402
sg86
(lp403
(VGINGERICH
VD J
tp404
asg23
I2005
sg52
V18810
p405
sbag1
(g2
g3
NtRp406
(dp407
g58
V10.1128/EC.2.5.930-936.2003
p408
sg54
VEUKARYOT CELL
p409
sg56
V2
sg86
(lp410
(VGOEHRING
VA S
tp411
asg23
I2003
sg52
V930
p412
sbag1
(g2
g3
NtRp413
(dp414
g58
V10.1104/pp.111.176677
p415
sg54
VPLANT PHYSIOL
p416
sg56
V156
p417
sg86
(lp418
(VHAKENJOS
VJ P
tp419
asg23
I2011
sg52
VLANT
p420
sbag1
(g2
g3
NtRp421
(dp422
g58
V10.1104/pp.011024
p423
sg54
VPLANT PHYSIOL
p424
sg56
V129
p425
sg86
(lp426
(VHANAOKA
VH
tp427
asg23
I2002
sg52
VLANT
p428
sbag1
(g2
g3
NtRp429
(dp430
g58
V10.1016/j.cell.2006.03.009
p431
sg54
VCELL
p432
sg56
V124
p433
sg86
(lp434
(VHARPER
VJ W
tp435
asg23
I2006
sg52
V1133
p436
sbag1
(g2
g3
NtRp437
(dp438
g58
V10.1146/annurev.biochem.67.1.425
p439
sg54
VANNU REV BIOCHEM
p440
sg56
V67
p441
sg86
(lp442
(VHERSHKO
VA
tp443
asg23
I1998
sg52
V425
p444
sbag1
(g2
g3
NtRp445
(dp446
g58
V10.1073/pnas.1009809108
p447
sg54
VP NATL ACAD SCI USA
p448
sg56
V108
p449
sg86
(lp450
(VHILLWIG
VM S
tp451
asg23
I2011
sg52
V1093
p452
sbag1
(g2
g3
NtRp453
(dp454
g58
V10.1038/nature07958
p455
sg54
VNATURE
p456
sg56
V458
p457
sg86
(lp458
(VHOCHSTRASSER
VM
tp459
asg23
I2009
sg52
V422
p460
sbag1
(g2
g3
NtRp461
(dp462
g58
V10.1016/j.cell.2009.02.036
p463
sg54
VCELL
p464
sg56
V137
p465
sg86
(lp466
(VHOFIUS
VD
tp467
asg23
I2009
sg52
V773
p468
sbag1
(g2
g3
NtRp469
(dp470
g58
V10.1146/annurev.arplant.58.032806.104011
p471
sg54
VANNU REV PLANT BIOL
p472
sg56
V59
p473
sg86
(lp474
(VHOTTON
VS K
tp475
asg23
I2008
sg52
V467
p476
sbag1
(g2
g3
NtRp477
(dp478
g58
V10.1371/journal.pone.0016219
p479
sg54
VPLOS ONE
p480
sg56
V6
sg86
(lp481
(VHUA
VZ H
tp482
asg23
I2011
sg52
VLOS
p483
sbag1
(g2
g3
NtRp484
(dp485
g58
V10.1146/annurev-arplant-042809-112256
p486
sg54
VANNU REV PLANT BIOL
p487
sg56
V62
p488
sg86
(lp489
(VHUA
VZ H
tp490
asg23
I2011
sg52
V299
p491
sbag1
(g2
g3
NtRp492
(dp493
g58
V10.1038/nature08659
p494
sg54
VNATURE
p495
sg56
V463
p496
sg86
(lp497
(VHUMBARD
VM A
tp498
asg23
I2010
sg52
V54
p499
sbag1
(g2
g3
NtRp500
(dp501
g58
V10.1038/embor.2009.144
p502
sg54
VEMBO REP
p503
sg56
V10
p504
sg86
(lp505
(VIWAI
VK
tp506
asg23
I2009
sg52
V706
p507
sbag1
(g2
g3
NtRp508
(dp509
g58
V10.1016/j.bbrc.2011.01.004
p510
sg54
VBIOCHEM BIOPH RES CO
p511
sg56
V405
p512
sg86
(lp513
(VJEONG
VY J
tp514
asg23
I2011
sg52
V112
p515
sbag1
(g2
g3
NtRp516
(dp517
g58
V10.4161/auto.7.3.14487
p518
sg54
VAUTOPHAGY
p519
sg56
V7
sg86
(lp520
(VJOHANSEN
VT
tp521
asg23
I2011
sg52
V279
p522
sbag1
(g2
g3
NtRp523
(dp524
g58
V10.1021/pr700749v
p525
sg54
VJ PROTEOME RES
p526
sg56
V7
sg86
(lp527
(VJONES
VJ
tp528
asg23
I2008
sg52
V1274
p529
sbag1
(g2
g3
NtRp530
(dp531
g58
V10.1105/tpc.111.087254
p532
sg54
VPLANT CELL
p533
sg56
V23
p534
sg86
(lp535
(VKATSIARIMPA
VA
tp536
asg23
I2011
sg52
VLANT
p537
sbag1
(g2
g3
NtRp538
(dp539
g58
V10.1146/annurev.cellbio.22.010605.093503
p540
sg54
VANNU REV CELL DEV BI
p541
sg56
V22
p542
sg86
(lp543
(VKERSCHER
VO
tp544
asg23
I2006
sg52
V159
p545
sbag1
(g2
g3
NtRp546
(dp547
g58
V10.1016/j.molcel.2011.08.025
p548
sg54
VMOL CELL
p549
sg56
V44
p550
sg86
(lp551
(VKIM
VW
tp552
asg23
I2011
sg52
V325
p553
sbag1
(g2
g3
NtRp554
(dp555
g58
V10.1038/nrm2245
p556
sg54
VNAT REV MOL CELL BIO
p557
sg56
V8
sg86
(lp558
(VKLIONSKY
VD J
tp559
asg23
I2007
sg52
V931
p560
sbag1
(g2
g3
NtRp561
(dp562
g58
V10.1146/annurev-biochem-060310-170328
p563
sg54
VANNU REV BIOCHEM
p564
sg56
V81
p565
sg86
(lp566
(VKOMANDER
VD
tp567
asg23
I2012
sg52
V203
p568
sbag1
(g2
g3
NtRp569
(dp570
g58
V10.1038/sj.emboj.7600205
p571
sg54
VEMBO J
p572
sg56
V23
p573
sg86
(lp574
(VKOMATSU
VM
tp575
asg23
I2004
sg52
V1977
p576
sbag1
(g2
g3
NtRp577
(dp578
g58
V10.1104/pp.105.067983
p579
sg54
VPLANT PHYSIOL
p580
sg56
V139
p581
sg86
(lp582
(VKRAFT
VE
tp583
asg23
I2005
sg52
VLANT
p584
sbag1
(g2
g3
NtRp585
(dp586
g58
V10.1007/s10858-010-9420-1
p587
sg54
VJ BIOMOL NMR
p588
sg56
V47
p589
sg86
(lp590
(VKUMETA
VH
tp591
asg23
I2010
sg52
V237
p592
sbag1
(g2
g3
NtRp593
(dp594
g58
V10.1074/jbc.M209694200
p595
sg54
VJ BIOL CHEM
p596
sg56
V278
p597
sg86
(lp598
(VKUREPA
VJ
tp599
asg23
I2003
sg52
V6862
p600
sbag1
(g2
g3
NtRp601
(dp602
g58
V10.1038/35104586
p603
sg54
VNATURE
p604
sg56
V414
p605
sg86
(lp606
(VLAKE
VM W
tp607
asg23
I2001
sg52
V325
p608
sbag1
(g2
g3
NtRp609
(dp610
g58
V10.1111/j.1365-313X.2006.02947.x
p611
sg54
VPLANT J
p612
sg56
V49
p613
sg86
(lp614
(VLEE
VJ
tp615
asg23
I2007
sg52
VLANT
p616
sbag1
(g2
g3
NtRp617
(dp618
g58
V10.1105/tpc.107.055418
p619
sg54
VPLANT CELL
p620
sg56
V20
p621
sg86
(lp622
(VLEE
VJ H
tp623
asg23
I2008
sg52
VLANT
p624
sbag1
(g2
g3
NtRp625
(dp626
g58
V10.1038/nature07643
p627
sg54
VNATURE
p628
sg56
V458
p629
sg86
(lp630
(VLEIDEL
VS
tp631
asg23
I2009
sg52
V228
p632
sbag1
(g2
g3
NtRp633
(dp634
g58
V10.1371/journal.pone.0018517
p635
sg54
VPLOS ONE
p636
sg56
V6
sg86
(lp637
(VLEMAIRE
VK
tp638
asg23
I2011
sg52
VLOS
p639
sbag1
(g2
g3
NtRp640
(dp641
g58
V10.1111/j.1365-313X.2011.04546.x
p642
sg54
VPLANT J
p643
sg56
V66
p644
sg86
(lp645
(VLENZ
VH D
tp646
asg23
I2011
sg52
VLANT
p647
sbag1
(g2
g3
NtRp648
(dp649
g58
Nsg54
VTRENDS PLAN IN PRESS
p650
sg56
Nsg86
(lp651
(VLI
VF
tp652
asg23
I2012
sg52
Nsbag1
(g2
g3
NtRp653
(dp654
g58
V10.1016/j.cell.2005.03.007
p655
sg54
VCELL
p656
sg56
V121
p657
sg86
(lp658
(VLIU
VY
tp659
asg23
I2005
sg52
V567
p660
sbag1
(g2
g3
NtRp661
(dp662
g58
V10.1105/tpc.106.049221
p663
sg54
VPLANT CELL
p664
sg56
V19
p665
sg86
(lp666
(VLIU
VY X
tp667
asg23
I2007
sg52
VLANT
p668
sbag1
(g2
g3
NtRp669
(dp670
g58
V10.1126/science.1059780
p671
sg54
VSCIENCE
p672
sg56
V292
p673
sg86
(lp674
(VLYAPINA
VS
tp675
asg23
I2001
sg52
V1382
p676
sbag1
(g2
g3
NtRp677
(dp678
g58
V10.1074/mcp.M600408-MCP200
p679
sg54
VMOL CELL PROTEOMICS
p680
sg56
V6
sg86
(lp681
(VMAOR
VR
tp682
asg23
I2007
sg52
V601
p683
sbag1
(g2
g3
NtRp684
(dp685
g58
V10.1083/jcb.135.6.1457
p686
sg54
VJ CELL BIOL
p687
sg56
V135
p688
sg86
(lp689
(VMATUNIS
VM J
tp690
asg23
I1996
sg52
V1457
p691
sbag1
(g2
g3
NtRp692
(dp693
g58
V10.1016/j.bbagrm.2012.01.006
p694
sg54
VBBA
p695
sg56
V1819
p696
sg86
(lp697
(VMEIER
VI
tp698
asg23
I2012
sg52
V531
p699
sbag1
(g2
g3
NtRp700
(dp701
g58
Nsg54
VMOL CELL PR IN PRESS
p702
sg56
Nsg86
(lp703
(VMILLER
VM J
tp704
asg23
I2012
sg52
Nsbag1
(g2
g3
NtRp705
(dp706
g58
V10.1073/pnas.1004181107
p707
sg54
VP NATL ACAD SCI USA
p708
sg56
V107
p709
sg86
(lp710
(VMILLER
VM J
tp711
asg23
I2010
sg52
V16512
p712
sbag1
(g2
g3
NtRp713
(dp714
g58
V10.1073/pnas.1018151108
p715
sg54
VP NATL ACAD SCI USA
p716
sg56
V108
p717
sg86
(lp718
(VMIRANDA
VH V
tp719
asg23
I2011
sg52
V4417
p720
sbag1
(g2
g3
NtRp721
(dp722
g58
V10.1038/nature10143
p723
sg54
VNATURE
p724
sg56
V474
p725
sg86
(lp726
(VMISHRA
VS K
tp727
asg23
I2011
sg52
V173
p728
sbag1
(g2
g3
NtRp729
(dp730
g58
V10.1016/j.pbi.2007.07.002
p731
sg54
VCURR OPIN PLANT BIOL
p732
sg56
V10
p733
sg86
(lp734
(VMIURA
VK
tp735
asg23
I2007
sg52
V495
p736
sbag1
(g2
g3
NtRp737
(dp738
g58
V10.1073/pnas.050078102
p739
sg54
VP NATL ACAD SCI USA
p740
sg56
V102
p741
sg86
(lp742
(VMIURA
VK
tp743
asg23
I2005
sg52
V7760
p744
sbag1
(g2
g3
NtRp745
(dp746
g58
V10.1105/tpc.106.048397
p747
sg54
VPLANT CELL
p748
sg56
V19
p749
sg86
(lp750
(VMIURA
VK
tp751
asg23
I2007
sg52
VLANT
p752
sbag1
(g2
g3
NtRp753
(dp754
g58
V10.1073/pnas.0811088106
p755
sg54
VP NATL ACAD SCI USA
p756
sg56
V106
p757
sg86
(lp758
(VMIURA
VK
tp759
asg23
I2009
sg52
V5418
p760
sbag1
(g2
g3
NtRp761
(dp762
g58
V10.1104/pp.103.029553
p763
sg54
VPLANT PHYSIOL
p764
sg56
V134
p765
sg86
(lp766
(VMUDGIL
VY
tp767
asg23
I2004
sg52
VLANT
p768
sbag1
(g2
g3
NtRp769
(dp770
g58
V10.1093/emboj/cdg467
p771
sg54
VEMBO J
p772
sg56
V22
p773
sg86
(lp774
(VMUELLER
VT D
tp775
asg23
I2003
sg52
V4634
p776
sbag1
(g2
g3
NtRp777
(dp778
g58
V10.1126/science.1127085
p779
sg54
VSCIENCE
p780
sg56
V315
p781
sg86
(lp782
(VMUKHOPADHYAY
VD
tp783
asg23
I2007
sg52
V201
p784
sbag1
(g2
g3
NtRp785
(dp786
g58
Nsg54
VJ BIOL CHEM IN PRESS
p787
sg56
Nsg86
(lp788
(VNAKAI
VY
tp789
asg23
I2012
sg52
Nsbag1
(g2
g3
NtRp790
(dp791
g58
V10.1111/j.1365-2443.2008.01238.x
p792
sg54
VGENES CELLS
p793
sg56
V13
p794
sg86
(lp795
(VNODA
VN N
tp796
asg23
I2008
sg52
V1211
p797
sbag1
(g2
g3
NtRp798
(dp799
g58
V10.1016/j.febslet.2010.01.018
p800
sg54
VFEBS LETT
p801
sg56
V584
p802
sg86
(lp803
(VNODA
VN N
tp804
asg23
I2010
sg52
V1379
p805
sbag1
(g2
g3
NtRp806
(dp807
g58
V10.1093/nar/gkq1228
p808
sg54
VNUCLEIC ACIDS RES
p809
sg56
V39
p810
sg86
(lp811
(VNUNOURA
VT
tp812
asg23
I2011
sg52
V3204
p813
sbag1
(g2
g3
NtRp814
(dp815
g58
V10.1038/35056522
p816
sg54
VNAT REV MOL CELL BIO
p817
sg56
V2
sg86
(lp818
(VOHSUMI
VY
tp819
asg23
I2001
sg52
V211
p820
sbag1
(g2
g3
NtRp821
(dp822
g58
V10.1111/j.1600-0854.2011.01217.x
p823
sg54
VTRAFFIC
p824
sg56
V12
p825
sg86
(lp826
(VOKUMOTO
VK
tp827
asg23
I2011
sg52
V1067
p828
sbag1
(g2
g3
NtRp829
(dp830
g58
V10.1038/ncomms1408
p831
sg54
VNAT COMMUN
p832
sg56
V2
sg86
(lp833
(VPARK
VB S
tp834
asg23
I2011
sg52
Nsbag1
(g2
g3
NtRp835
(dp836
g58
V10.1126/science.1163885
p837
sg54
VSCIENCE
p838
sg56
V322
p839
sg86
(lp840
(VPEARCE
VM J
tp841
asg23
I2008
sg52
V1104
p842
sbag1
(g2
g3
NtRp843
(dp844
g58
V10.1073/pnas.1019043108
p845
sg54
VP NATL ACAD SCI USA
p846
sg56
V108
p847
sg86
(lp848
(VPETROSKI
VM D
tp849
asg23
I2011
sg52
V1749
p850
sbag1
(g2
g3
NtRp851
(dp852
g58
V10.1534/genetics.107.086199
p853
sg54
VGENETICS
p854
sg56
V178
p855
sg86
(lp856
(VPHILLIPS
VA R
tp857
asg23
I2008
sg52
V1339
p858
sbag1
(g2
g3
NtRp859
(dp860
g58
V10.1038/msb.2010.39
p861
sg54
VMOL SYST BIOL
p862
sg56
V6
sg86
(lp863
(VPOULSEN
VC
tp864
asg23
I2010
sg52
Nsbag1
(g2
g3
NtRp865
(dp866
g58
V10.1023/A:1024674220425
p867
sg54
VJournal of Structural and Functional Genomics
p868
sg56
V4
sg86
(lp869
(VRAMELOT
VTHERESA A
tp870
asg23
I2003
sg52
V25
p871
sbag1
(g2
g3
NtRp872
(dp873
g58
V10.1074/jbc.273.52.34976
p874
sg54
VJ BIOL CHEM
p875
sg56
V273
p876
sg86
(lp877
(VRAO-NAIK
VC
tp878
asg23
I1998
sg52
V34976
p879
sbag1
(g2
g3
NtRp880
(dp881
g58
V10.1111/j.1365-313X.2010.04112.x
p882
sg54
VPLANT J
p883
sg56
V61
p884
sg86
(lp885
(VSANTNER
VA
tp886
asg23
I2010
sg52
VLANT
p887
sbag1
(g2
g3
NtRp888
(dp889
g58
V10.1104/pp.107.102285
p890
sg54
VPLANT PHYSIOL
p891
sg56
V145
p892
sg86
(lp893
(VSARACCO
VS A
tp894
asg23
I2007
sg52
VLANT
p895
sbag1
(g2
g3
NtRp896
(dp897
g58
V10.1111/j.1365-313X.2009.03862.x
p898
sg54
VPLANT J
p899
sg56
V59
p900
sg86
(lp901
(VSARACCO
VS A
tp902
asg23
I2009
sg52
VLANT
p903
sbag1
(g2
g3
NtRp904
(dp905
g58
V10.1016/j.bbrc.2006.02.107
p906
sg54
VBIOCHEM BIOPH RES CO
p907
sg56
V343
p908
sg86
(lp909
(VSASAKAWA
VH
tp910
asg23
I2006
sg52
V21
p911
sbag1
(g2
g3
NtRp912
(dp913
g58
V10.1105/tpc.003434
p914
sg54
VPLANT CELL
p915
sg56
V14
p916
sg86
(lp917
(VSCHWECHHEIMER
VC
tp918
asg23
I2002
sg52
VLANT
p919
sbag1
(g2
g3
NtRp920
(dp921
g58
Nsg54
VCARBON NANOTUBES LON
p922
sg56
V468
p923
sg86
(lp924
(VSHEARD
VL B
tp925
asg23
I2011
sg52
V400
p926
sbag1
(g2
g3
NtRp927
(dp928
g58
V10.1046/j.1432-1033.2002.02792.x
p929
sg54
VEUR J BIOCHEM
p930
sg56
V269
p931
sg86
(lp932
(VSHIBAHARA
VT
tp933
asg23
I2002
sg52
V1474
p934
sbag1
(g2
g3
NtRp935
(dp936
g58
V10.1016/j.molcel.2010.11.033
p937
sg54
VMOL CELL
p938
sg56
V40
p939
sg86
(lp940
(VSHIMIZU
VY
tp941
asg23
I2010
sg52
V917
p942
sbag1
(g2
g3
NtRp943
(dp944
g58
V10.1146/annurev.arplant.55.031903.141801
p945
sg54
VANNU REV PLANT BIOL
p946
sg56
V55
p947
sg86
(lp948
(VSMALLE
VJ
tp949
asg23
I2004
sg52
V555
p950
sbag1
(g2
g3
NtRp951
(dp952
g58
V10.1038/nature05864
p953
sg54
VNATURE
p954
sg56
V447
p955
sg86
(lp956
(VSRIDHAR
VV V
tp957
asg23
I2007
sg52
V735
p958
sbag1
(g2
g3
NtRp959
(dp960
g58
V10.1104/pp.104.052423
p961
sg54
VPLANT PHYSIOL
p962
sg56
V137
p963
sg86
(lp964
(VSTONE
VS L
tp965
asg23
I2005
sg52
VLANT
p966
sbag1
(g2
g3
NtRp967
(dp968
g58
V10.1038/nsmb.1597
p969
sg54
VNAT STRUCT MOL BIOL
p970
sg56
V16
p971
sg86
(lp972
(VSTRIEBEL
VF
tp973
asg23
I2009
sg52
V647
p974
sbag1
(g2
g3
NtRp975
(dp976
g58
V10.1038/sj.emboj.7601839
p977
sg54
VEMBO J
p978
sg56
V26
p979
sg86
(lp980
(VSUN
VH
tp981
asg23
I2007
sg52
V4102
p982
sbag1
(g2
g3
NtRp983
(dp984
g58
V10.1105/tpc.111.090993
p985
sg54
VPLANT CELL
p986
sg56
V23
p987
sg86
(lp988
(VSUTTANGKAKUL
VA
tp989
asg23
I2011
sg52
VLANT
p990
sbag1
(g2
g3
NtRp991
(dp992
g58
Nsg54
VAUTOPHAGY
p993
sg56
V1
sg86
(lp994
(VSUZUKI
VN N
tp995
asg23
I2005
sg52
V119
p996
sbag1
(g2
g3
NtRp997
(dp998
g58
Nsg54
VAUTOPHAGY
p999
sg56
V7
sg86
(lp1000
(VSVENNING
VS
tp1001
asg23
I2011
sg52
V1
sbag1
(g2
g3
NtRp1002
(dp1003
g58
V10.1038/nature05731
p1004
sg54
VNATURE
p1005
sg56
V446
p1006
sg86
(lp1007
(VTAN
VX
tp1008
asg23
I2007
sg52
V640
p1009
sbag1
(g2
g3
NtRp1010
(dp1011
g58
V10.1126/scisignal.2001484
p1012
sg54
VSCI SIGNAL
p1013
sg56
V4
sg86
(lp1014
(VTATHAM
VM H
tp1015
asg23
I2011
sg52
Nsbag1
(g2
g3
NtRp1016
(dp1017
g58
V10.1038/ncomms1182
p1018
sg54
VNAT COMMUN
p1019
sg56
V2
sg86
(lp1020
(VTATSUMI
VK
tp1021
asg23
I2011
sg52
Nsbag1
(g2
g3
NtRp1022
(dp1023
g58
V10.1074/jbc.M109.036814
p1024
sg54
VJ BIOL CHEM
p1025
sg56
V285
p1026
sg86
(lp1027
(VTATSUMI
VK
tp1028
asg23
I2010
sg52
V5417
p1029
sbag1
(g2
g3
NtRp1030
(dp1031
g58
V10.1016/j.pbi.2005.01.013
p1032
sg54
VCURR OPIN PLANT BIOL
p1033
sg56
V8
sg86
(lp1034
(VTHOMPSON
VA R
tp1035
asg23
I2005
sg52
V165
p1036
sbag1
(g2
g3
NtRp1037
(dp1038
g58
V10.1104/pp.105.060673
p1039
sg54
VPLANT PHYSIOL
p1040
sg56
V138
p1041
sg86
(lp1042
(VTHOMPSON
VA R
tp1043
asg23
I2005
sg52
VLANT
p1044
sbag1
(g2
g3
NtRp1045
(dp1046
g58
Nsg54
VAUTOPHAGY
p1047
sg56
V2
sg86
(lp1048
(VTOYOOKA
VK
tp1049
asg23
I2006
sg52
V96
p1050
sbag1
(g2
g3
NtRp1051
(dp1052
g58
V10.1038/nrm2921
p1053
sg54
VNAT REV MOL CELL BIO
p1054
sg56
V11
p1055
sg86
(lp1056
(VULRICH
VH D
tp1057
asg23
I2010
sg52
V479
p1058
sbag1
(g2
g3
NtRp1059
(dp1060
g58
V10.1074/jbc.M706505200
p1061
sg54
VJ BIOL CHEM
p1062
sg56
V282
p1063
sg86
(lp1064
(VUZUNOVA
VK
tp1065
asg23
I2007
sg52
V34167
p1066
sbag1
(g2
g3
NtRp1067
(dp1068
g58
V10.1105/tpc.109.070961
p1069
sg54
VPLANT CELL
p1070
sg56
V22
p1071
sg86
(lp1072
(VVAN
VD E N BURG H A
tp1073
asg23
I2010
sg52
VLANT
p1074
sbag1
(g2
g3
NtRp1075
(dp1076
g58
V10.1073/pnas.1014402108
p1077
sg54
VP NATL ACAD SCI USA
p1078
sg56
V108
p1079
sg86
(lp1080
(VVAN
VD E R VEEN A G
tp1081
asg23
I2011
sg52
V1763
p1082
sbag1
(g2
g3
NtRp1083
(dp1084
g58
V10.1105/tpc.110.081570
p1085
sg54
VPLANT CELL
p1086
sg56
V23
p1087
sg86
(lp1088
(VVANHEE
VC
tp1089
asg23
I2011
sg52
VLANT
p1090
sbag1
(g2
g3
NtRp1091
(dp1092
g58
V10.1038/nrm2688
p1093
sg54
VNAT REV MOL CELL BIO
p1094
sg56
V10
p1095
sg86
(lp1096
(VVIERSTRA
VR D
tp1097
asg23
I2009
sg52
V385
p1098
sbag1
(g2
g3
NtRp1099
(dp1100
g58
Nsg54
VJ BIOL CHEM
p1101
sg56
V262
p1102
sg86
(lp1103
(VVIJAYKUMAR
VS
tp1104
asg23
I1987
sg52
V6396
p1105
sbag1
(g2
g3
NtRp1106
(dp1107
g58
V10.1104/pp.108.130013
p1108
sg54
VPLANT PHYSIOL
p1109
sg56
V149
p1110
sg86
(lp1111
(VWADA
VS
tp1112
asg23
I2009
sg52
VLANT
p1113
sbag1
(g2
g3
NtRp1114
(dp1115
g58
Nsg54
VNAT STRUCT BIOL
p1116
sg56
V8
sg86
(lp1117
(VWANG
VC Y
tp1118
asg23
I2001
sg52
V47
p1119
sbag1
(g2
g3
NtRp1120
(dp1121
g58
V10.1038/nsmb.1918
p1122
sg54
VNAT STRUCT MOL BIOL
p1123
sg56
V17
p1124
sg86
(lp1125
(VWANG
VT
tp1126
asg23
I2010
sg52
V1352
p1127
sbag1
(g2
g3
NtRp1128
(dp1129
g58
V10.1016/j.molcel.2008.02.014
p1130
sg54
VMOL CELL
p1131
sg56
V29
p1132
sg86
(lp1133
(VWEAKE
VV M
tp1134
asg23
I2008
sg52
V653
p1135
sbag1
(g2
g3
NtRp1136
(dp1137
g58
V10.1016/j.cub.2004.11.058
p1138
sg54
VCURR BIOL
p1139
sg56
V14
p1140
sg86
(lp1141
(VWILKINSON
VC R M
tp1142
asg23
I2004
sg52
V2283
p1143
sbag1
(g2
g3
NtRp1144
(dp1145
g58
V10.1042/BJ20100158
p1146
sg54
VBIOCHEM J
p1147
sg56
V428
p1148
sg86
(lp1149
(VWILKINSON
VK A
tp1150
asg23
I2010
sg52
V133
p1151
sbag1
(g2
g3
NtRp1152
(dp1153
g58
V10.1104/pp.106.092106
p1154
sg54
VPLANT PHYSIOL
p1155
sg56
V143
p1156
sg86
(lp1157
(VXIONG
VY
tp1158
asg23
I2007
sg52
VLANT
p1159
sbag1
(g2
g3
NtRp1160
(dp1161
g58
V10.1038/embor.2008.10
p1162
sg54
VEMBO REP
p1163
sg56
V9
sg86
(lp1164
(VXIRODIMAS
VD P
tp1165
asg23
I2008
sg52
V280
p1166
sbag1
(g2
g3
NtRp1167
(dp1168
g58
V10.1073/pnas.0604876103
p1169
sg54
VP NATL ACAD SCI USA
p1170
sg56
V103
p1171
sg86
(lp1172
(VXU
VJ J
tp1173
asg23
I2006
sg52
V11625
p1174
sbag1
(g2
g3
NtRp1175
(dp1176
g58
V10.1104/pp.124.4.1828
p1177
sg54
VPLANT PHYSIOL
p1178
sg56
V124
p1179
sg86
(lp1180
(VYAN
VN
tp1181
asg23
I2000
sg52
VLANT
p1182
sbag1
(g2
g3
NtRp1183
(dp1184
g58
V10.1105/tpc.104.025395
p1185
sg54
VPLANT CELL
p1186
sg56
V16
p1187
sg86
(lp1188
(VYOSHIMOTO
VK
tp1189
asg23
I2004
sg52
VLANT
p1190
sbag1
(g2
g3
NtRp1191
(dp1192
g58
V10.1016/j.econlet.2007.09.029
p1193
sg54
VECON LETT
p1194
sg56
V99
p1195
sg86
(lp1196
(VZHANG
VW D
tp1197
asg23
I2008
sg52
V1
sbag1
(g2
g3
NtRp1198
(dp1199
g58
V10.1126/science.1084161
p1200
sg54
VSCIENCE
p1201
sg56
V301
p1202
sg86
(lp1203
(VZHAO
VY D
tp1204
asg23
I2003
sg52
V1107
p1205
sbag1
(g2
g3
NtRp1206
(dp1207
g58
V10.4161/auto.7.10.16617
p1208
sg54
VAUTOPHAGY
p1209
sg56
V7
sg86
(lp1210
(VZIENTARA-RYTTER
VK
tp1211
asg23
I2011
sg52
V1145
p1212
sbasb.