ccopy_reg
_reconstructor
p1
(ctethne.classes.paper
Paper
p2
c__builtin__
object
p3
NtRp4
(dp5
S'publisherCity'
p6
VROCKVILLE
p7
sS'reprintAddress'
p8
VHwang, I (reprint author), Pohang Univ Sci & Technol, Div Mol & Life Sci, Ctr Plant Prot Distribut Syst, Pohang 790784, South Korea.
p9
sS'WC'
p10
VPlant Sciences
p11
sS'GA'
p12
V356XH
p13
sS'FX'
p14
(lp15
VThis work was supported by grants from the Creative Research Program of
p16
aVthe Ministry of Education, Science and Technology, by Biogreen21 (grant
p17
aVno. 20070401-034-026-008-03-001) of the Rural Development Administration
p18
aVand Agricultural Research and Planning Center, Ministry of Agriculture,
p19
aVForestry and Foods, and by the Core Research Fund of Pohang University
p20
aVof Science and Technology, Korea.
p21
asS'abstract'
p22
VIn general, the basic principles of trafficking systems in plant cells appear to be similar to those in animal and yeast cells, indicating that trafficking mechanisms are highly conserved throughout all eukaryotes (Jurgens, 2004; Vitale and Hinz, 2005). However, there are still considerable variations at the molecular level as well as in applying these basic principles to situations in plant cells, such as multiple vacuole types in a single cell or cell plate formation during cytokinesis (Jurgens, 2004; Jolliffe et al., 2005; Robinson et al., 2005, 2007; Mo et al., 2006). Additionally, the role of the trans-Golgi network (TGN) as the early endosome in plant cells is drastically different from the function of the TGN in animal cells and yeast (Lam et al., 2007). These differences provide compelling reasons to study protein trafficking in plant cells. Earlier studies have focused primarily on the identification of sorting motifs in cargo proteins. However, recent studies have focused more on identification of the molecular players involved in the various steps of trafficking (Jurgens, 2004; Robinson et al., 2007). Detailed studies of the components of these pathways will provide a deeper understanding of these important aspects of plant biology and may elucidate similarities, as well as differences, in trafficking mechanisms between animal and plant cells.
p23
sS'pageEnd'
p24
I683
sS'date'
p25
I2008
sS'documentType'
p26
VReview
p27
sS'subject'
p28
VPlant Sciences
p29
sS'isoSource'
p30
VPlant Physiol.
p31
sS'timesCited'
p32
(lp33
I15
aVZ9 16
p34
asS'funding'
p35
(lp36
(VMinistry of Education, Science and Technology
Ntp37
a(VRural Development Administration and Agricultural Research and Planning Center
V20070401-034-026-008-03-001
tp38
a(VMinistry of Agriculture, Forestry and Foods
Ntp39
a(VPohang University of Science and Technology, Korea
Ntp40
asS'PT'
p41
VJ
sS'title'
p42
VSorting And Anterograde Trafficking At The Golgi Apparatus
p43
sS'ISSN'
p44
(lp45
V0032-0889
p46
aVJ9 PLANT PHYSIOL
p47
asS'authors_full'
p48
(lp49
(VHWANG
VINHWAN
tp50
asS'PG'
p51
I11
sS'PD'
p52
VOCT
p53
sS'pageStart'
p54
I673
sS'issue'
p55
I2
sS'journal'
p56
VPLANT PHYSIOLOGY
p57
sS'volume'
p58
V148
p59
sS'doi'
p60
V10.1104/pp.108.124925
p61
sS'emailAddress'
p62
Vihhwang@postech.ac.kr
p63
sS'authorAddress'
p64
VPohang Univ Sci & Technol, Div Mol & Life Sci, Ctr Plant Prot Distribut Syst, Pohang 790784, South Korea.
p65
sS'publisherAddress'
p66
V15501 MONONA DRIVE, ROCKVILLE, MD 20855 USA
p67
sS'ER'
p68
V
sS'publisher'
p69
VAMER SOC PLANT BIOLOGISTS
p70
sS'authorKeywords'
p71
(lp72
VPROTEIN STORAGE VACUOLE
p73
aVGREEN FLUORESCENT PROTEIN
p74
aVMANNOSE 6-PHOSPHATE RECEPTOR
p75
aVSOLUBLE CARGO PROTEINS
p76
aVC-TERMINAL PROPEPTIDE
p77
aVPLANT-CELLS
p78
aVPREVACUOLAR COMPARTMENT
p79
aVENDOPLASMIC-RETICULUM
p80
aVARABIDOPSIS-THALIANA
p81
aVMULTIVESICULAR BODIES
p82
asS'language'
p83
VEnglish
p84
sS'wosid'
p85
VWOS:000259810400001
p86
sS'citationCount'
p87
I140
sS'authors_init'
p88
(lp89
(VHWANG
VI
tp90
asS'citedReferences'
p91
(lp92
g1
(g2
g3
NtRp93
(dp94
g60
V10.1083/jcb.149.7.1335
p95
sg56
VJ CELL BIOL
p96
sg58
V149
p97
sg88
(lp98
(VAHMED
VS U
tp99
asg25
I2000
sg54
V1335
p100
sbag1
(g2
g3
NtRp101
(dp102
g60
V10.1104/pp.114.1.325
p103
sg56
VPLANT PHYSIOL
p104
sg58
V114
p105
sg88
(lp106
(VAHMED
VS U
tp107
asg25
I1997
sg54
VLANT
p108
sbag1
(g2
g3
NtRp109
(dp110
g60
V10.1104/pp.117.2.407
p111
sg56
VPLANT PHYSIOL
p112
sg58
V117
p113
sg88
(lp114
(VBASSHAM
VD C
tp115
asg25
I1998
sg54
VLANT
p116
sbag1
(g2
g3
NtRp117
(dp118
g60
Nsg56
VMOL BIOL CELL
p119
sg58
V11
p120
sg88
(lp121
(VBASSHAM
VD C
tp122
asg25
I2000
sg54
V2251
p123
sbag1
(g2
g3
NtRp124
(dp125
g60
V10.1091/mbc.E08-02-0110
p126
sg56
VMOL BIOL CELL
p127
sg58
V19
p128
sg88
(lp129
(VBAUST
VT
tp130
asg25
I2008
sg54
V1942
p131
sbag1
(g2
g3
NtRp132
(dp133
g60
V10.1007/s004250000463
p134
sg56
VPLANTA
p135
sg58
V213
p136
sg88
(lp137
(VBIRD
VD A
tp138
asg25
I2001
sg54
VLANTA
p139
sbag1
(g2
g3
NtRp140
(dp141
g60
V10.1242/jcs.00920
p142
sg56
VJ CELL SCI
p143
sg58
V117
p144
sg88
(lp145
(VBOLTE
VS
tp146
asg25
I2004
sg54
V943
p147
sbag1
(g2
g3
NtRp148
(dp149
g60
V10.1038/nrm1279
p150
sg56
VNAT REV MOL CELL BIO
p151
sg58
V5
sg88
(lp152
(VBONIFACINO
VJ S
tp153
asg25
I2004
sg54
V23
p154
sbag1
(g2
g3
NtRp155
(dp156
g60
V10.1146/annurev.biochem.72.121801.161800
p157
sg56
VANNU REV BIOCHEM
p158
sg58
V72
p159
sg88
(lp160
(VBONIFACINO
VJ S
tp161
asg25
I2003
sg54
V395
p162
sbag1
(g2
g3
NtRp163
(dp164
g60
V10.1016/j.bbamcr.2005.04.004
p165
sg56
VBBA
p166
sg58
V1744
p167
sg88
(lp168
(VBOWERS
VK
tp169
asg25
I2005
sg54
V438
p170
sbag1
(g2
g3
NtRp171
(dp172
g60
V10.1046/j.1365-313X.2003.01913.x
p173
sg56
VPLANT J
p174
sg58
V36
p175
sg88
(lp176
(VBROWN
VJ C
tp177
asg25
I2003
sg54
VLANT
p178
sbag1
(g2
g3
NtRp179
(dp180
g60
V10.1105/tpc.108.058362
p181
sg56
VPLANT CELL
p182
sg58
V20
p183
sg88
(lp184
(VBRUX
VA
tp185
asg25
I2008
sg54
VLANT
p186
sbag1
(g2
g3
NtRp187
(dp188
g60
V10.1105/tpc.12.4.493
p189
sg56
VPLANT CELL
p190
sg58
V12
p191
sg88
(lp192
(VCAO
VX F
tp193
asg25
I2000
sg54
VLANT
p194
sbag1
(g2
g3
NtRp195
(dp196
g60
V10.1105/tpc.104.027078
p197
sg56
VPLANT CELL
p198
sg58
V16
p199
sg88
(lp200
(VCARTER
VC
tp201
asg25
I2004
sg54
VLANT
p202
sbag1
(g2
g3
NtRp203
(dp204
g60
V10.1093/jxb/eri139
p205
sg56
VJ EXP BOT
p206
sg58
V56
p207
sg88
(lp208
(VCASTELLI
VS
tp209
asg25
I2005
sg54
V1379
p210
sbag1
(g2
g3
NtRp211
(dp212
g60
V10.1105/tpc.107.052001
p213
sg56
VPLANT CELL
p214
sg58
V20
p215
sg88
(lp216
(VCHOW
VC M
tp217
asg25
I2008
sg54
VLANT
p218
sbag1
(g2
g3
NtRp219
(dp220
g60
V10.1093/pcp/pci176
p221
sg56
VPLANT CELL PHYSIOL
p222
sg58
V46
p223
sg88
(lp224
(VCLAUDE
VS J D
tp225
asg25
I2005
sg54
VLANT
p226
sbag1
(g2
g3
NtRp227
(dp228
g60
V10.1111/j.1600-0854.2007.00693.x
p229
sg56
VTRAFFIC
p230
sg58
V9
sg88
(lp231
(VCRADDOCK
VC P
tp232
asg25
I2008
sg54
V408
p233
sbag1
(g2
g3
NtRp234
(dp235
g60
V10.1016/0092-8674(94)90424-3
p236
sg56
VCELL
p237
sg58
V78
p238
sg88
(lp239
(VCROWLEY
VK S
tp240
asg25
I1994
sg54
V461
p241
sbag1
(g2
g3
NtRp242
(dp243
g60
V10.1105/tpc.104.026351
p244
sg56
VPLANT CELL
p245
sg58
V17
p246
sg88
(lp247
(VDASILVA
VL L P
tp248
asg25
I2005
sg54
VLANT
p249
sbag1
(g2
g3
NtRp250
(dp251
g60
V10.1105/tpc.105.040394
p252
sg56
VPLANT CELL
p253
sg58
V18
p254
sg88
(lp255
(VDASILVA
VL L P
tp256
asg25
I2006
sg54
VLANT
p257
sbag1
(g2
g3
NtRp258
(dp259
g60
V10.1074/jbc.273.4.2044
p260
sg56
VJ BIOL CHEM
p261
sg58
V273
p262
sg88
(lp263
(VDEMAUREX
VN
tp264
asg25
I1998
sg54
V2044
p265
sbag1
(g2
g3
NtRp266
(dp267
g60
V10.1105/tpc.105.037978
p268
sg56
VPLANT CELL
p269
sg58
V18
p270
sg88
(lp271
(VDETTMER
VJ
tp272
asg25
I2006
sg54
VLANT
p273
sbag1
(g2
g3
NtRp274
(dp275
g60
Nsg56
VJ BIOL CHEM
p276
sg58
V269
p277
sg88
(lp278
(VDINTZIS
VS M
tp279
asg25
I1994
sg54
V12159
p280
sbag1
(g2
g3
NtRp281
(dp282
g60
V10.1104/pp.126.1.78
p283
sg56
VPLANT PHYSIOL
p284
sg58
V126
p285
sg88
(lp286
(VDI
VSANSEBASTIANO G P
tp287
asg25
I2001
sg54
VLANT
p288
sbag1
(g2
g3
NtRp289
(dp290
g60
V10.1046/j.1365-313X.1998.00210.x
p291
sg56
VPLANT J
p292
sg58
V15
p293
sg88
(lp294
(VDI
VSANSEBASTIANO G P
tp295
asg25
I1998
sg54
VLANT
p296
sbag1
(g2
g3
NtRp297
(dp298
g60
Nsg56
VPLANT CELL
p299
sg58
V5
sg88
(lp300
(VDOMBROWSKI
VJ E
tp301
asg25
I1993
sg54
VLANT
p302
sbag1
(g2
g3
NtRp303
(dp304
g60
V10.1105/tpc.105.040279
p305
sg56
VPLANT CELL
p306
sg58
V18
p307
sg88
(lp308
(VFORESTI
VO
tp309
asg25
I2006
sg54
VLANT
p310
sbag1
(g2
g3
NtRp311
(dp312
g60
V10.1104/pp.126.1.167
p313
sg56
VPLANT PHYSIOL
p314
sg58
V126
p315
sg88
(lp316
(VFRIGERIO
VL
tp317
asg25
I2001
sg54
VLANT
p318
sbag1
(g2
g3
NtRp319
(dp320
g60
V10.1105/tpc.10.6.1031
p321
sg56
VPLANT CELL
p322
sg58
V10
p323
sg88
(lp324
(VFRIGERIO
VL
tp325
asg25
I1998
sg54
VLANT
p326
sbag1
(g2
g3
NtRp327
(dp328
g60
V10.1105/tpc.106.045997
p329
sg56
VPLANT CELL
p330
sg58
V19
p331
sg88
(lp332
(VFUJI
VK
tp333
asg25
I2007
sg54
VLANT
p334
sbag1
(g2
g3
NtRp335
(dp336
g60
V10.1007/s00425-004-1302-x
p337
sg56
VPLANTA
p338
sg58
V219
p339
sg88
(lp340
(VGELDNER
VN
tp341
asg25
I2004
sg54
VLANTA
p342
sbag1
(g2
g3
NtRp343
(dp344
g60
V10.1073/pnas.0601617103
p345
sg56
VP NATL ACAD SCI USA
p346
sg58
V103
p347
sg88
(lp348
(VGROSSHANS
VB L
tp349
asg25
I2006
sg54
V11821
p350
sbag1
(g2
g3
NtRp351
(dp352
g60
V10.1007/PL00000922
p353
sg56
VCELL MOL LIFE SCI
p354
sg58
V58
p355
sg88
(lp356
(VGU
VF
tp357
asg25
I2001
sg54
V1067
p358
sbag1
(g2
g3
NtRp359
(dp360
g60
V10.1016/S1369-5266(00)00114-X
p361
sg56
VCURR OPIN PLANT BIOL
p362
sg58
V3
sg88
(lp363
(VHADLINGTON
VJ L
tp364
asg25
I2000
sg54
V461
p365
sbag1
(g2
g3
NtRp366
(dp367
g60
V10.1111/j.1365-313X.2003.01995.x
p368
sg56
VPLANT J
p369
sg58
V37
p370
sg88
(lp371
(VHAPPEL
VN
tp372
asg25
I2004
sg54
VLANT
p373
sbag1
(g2
g3
NtRp374
(dp375
g60
V10.1186/1471-2229-8-63
p376
sg56
VBMC PLANT BIOL
p377
sg58
V8
sg88
(lp378
(VHARDHAM
VA R
tp379
asg25
I2008
sg54
Nsbag1
(g2
g3
NtRp380
(dp381
g60
V10.1093/pcp/pci215
p382
sg56
VPLANT CELL PHYSIOL
p383
sg58
V46
p384
sg88
(lp385
(VHEO
VJ B
tp386
asg25
I2005
sg54
VLANT
p387
sbag1
(g2
g3
NtRp388
(dp389
g60
V10.1083/jcb.152.1.41
p390
sg56
VJ CELL BIOL
p391
sg58
V152
p392
sg88
(lp393
(VHILLMER
VS
tp394
asg25
I2001
sg54
V41
p395
sbag1
(g2
g3
NtRp396
(dp397
g60
V10.1105/tpc.11.8.1509
p398
sg56
VPLANT CELL
p399
sg58
V11
p400
sg88
(lp401
(VHINZ
VG
tp402
asg25
I1999
sg54
VLANT
p403
sbag1
(g2
g3
NtRp404
(dp405
g60
V10.1093/jxb/48.1.139
p406
sg56
VJ EXP BOT
p407
sg58
V48
p408
sg88
(lp409
(VHINZ
VG
tp410
asg25
I1997
sg54
V139
p411
sbag1
(g2
g3
NtRp412
(dp413
g60
V10.1111/j.1600-0854.2007.00625.x
p414
sg56
VTRAFFIC
p415
sg58
V8
sg88
(lp416
(VHINZ
VG
tp417
asg25
I2007
sg54
V1452
p418
sbag1
(g2
g3
NtRp419
(dp420
g60
V10.1007/s00709-005-0105-7
p421
sg56
VPROTOPLASMA
p422
sg58
V226
p423
sg88
(lp424
(VHOLSTEIN
VS E H
tp425
asg25
I2005
sg54
VROTOPLASMA
p426
sbag1
(g2
g3
NtRp427
(dp428
g60
Nsg56
VPLANT CELL
p429
sg58
V2
sg88
(lp430
(VHOLWERDA
VB C
tp431
asg25
I1990
sg54
VLANT
p432
sbag1
(g2
g3
NtRp433
(dp434
g60
V10.1105/tpc.4.3.307
p435
sg56
VPLANT CELL
p436
sg58
V4
sg88
(lp437
(VHOLWERDA
VB C
tp438
asg25
I1992
sg54
VLANT
p439
sbag1
(g2
g3
NtRp440
(dp441
g60
V10.1074/jbc.272.32.19884
p442
sg56
VJ BIOL CHEM
p443
sg58
V272
p444
sg88
(lp445
(VHONING
VS
tp446
asg25
I1997
sg54
V19884
p447
sbag1
(g2
g3
NtRp448
(dp449
g60
V10.1093/emboj/17.5.1304
p450
sg56
VEMBO J
p451
sg58
V17
p452
sg88
(lp453
(VHONING
VS
tp454
asg25
I1998
sg54
V1304
p455
sbag1
(g2
g3
NtRp456
(dp457
g60
V10.1104/pp.107.103945
p458
sg56
VPLANT PHYSIOL
p459
sg58
V145
p460
sg88
(lp461
(VHUNTER
VP R
tp462
asg25
I2007
sg54
VLANT
p463
sbag1
(g2
g3
NtRp464
(dp465
g60
V10.1074/mcp.M600250-MCP200
p466
sg56
VMOL CELL PROTEOMICS
p467
sg58
V6
sg88
(lp468
(VJAQUINOD
VM
tp469
asg25
I2007
sg54
V394
p470
sbag1
(g2
g3
NtRp471
(dp472
g60
V10.1083/jcb.150.4.755
p473
sg56
VJ CELL BIOL
p474
sg58
V150
p475
sg88
(lp476
(VJIANG
VL W
tp477
asg25
I2000
sg54
V755
p478
sbag1
(g2
g3
NtRp479
(dp480
g60
V10.1083/jcb.143.5.1183
p481
sg56
VJ CELL BIOL
p482
sg58
V143
p483
sg88
(lp484
(VJIANG
VL W
tp485
asg25
I1998
sg54
V1183
p486
sbag1
(g2
g3
NtRp487
(dp488
g60
V10.1105/tpc.13.7.1511
p489
sg56
VPLANT CELL
p490
sg58
V13
p491
sg88
(lp492
(VJIN
VJ B
tp493
asg25
I2001
sg54
VLANT
p494
sbag1
(g2
g3
NtRp495
(dp496
g60
Nsg56
VBIOCHEM SOC T
p497
sg58
V33
p498
sg88
(lp499
(VJOLLIFFE
VN A
tp500
asg25
I2005
sg54
V1016
p501
sbag1
(g2
g3
NtRp502
(dp503
g60
V10.1111/j.1365-313X.2004.02167.x
p504
sg56
VPLANT J
p505
sg58
V39
p506
sg88
(lp507
(VJOLLIFFE
VN A
tp508
asg25
I2004
sg54
VLANT
p509
sbag1
(g2
g3
NtRp510
(dp511
g60
Nsg56
VJ BIOCHEM
p512
sg58
V126
p513
sg88
(lp514
(VJUNG
VG M
tp515
asg25
I1999
sg54
V1
sbag1
(g2
g3
NtRp516
(dp517
g60
V10.1146/annurev.cellbio.20.082503.103057
p518
sg56
VANNU REV CELL DEV BI
p519
sg58
V20
p520
sg88
(lp521
(VJURGENS
VG
tp522
asg25
I2004
sg54
V481
p523
sbag1
(g2
g3
NtRp524
(dp525
g60
V10.1091/mbc.E02-03-0171
p526
sg56
VMOL BIOL CELL
p527
sg58
V13
p528
sg88
(lp529
(VKALTHOFF
VC
tp530
asg25
I2002
sg54
V4060
p531
sbag1
(g2
g3
NtRp532
(dp533
g60
V10.1105/tpc.010215
p534
sg56
VPLANT CELL
p535
sg58
V14
p536
sg88
(lp537
(VKATO
VT
tp538
asg25
I2002
sg54
VLANT
p539
sbag1
(g2
g3
NtRp540
(dp541
g60
V10.1105/tpc.13.2.287
p542
sg56
VPLANT CELL
p543
sg58
V13
p544
sg88
(lp545
(VKIM
VD H
tp546
asg25
I2001
sg54
VLANT
p547
sbag1
(g2
g3
NtRp548
(dp549
g60
V10.1105/tpc.104.0288829
p550
sg56
VPLANT CELL
p551
sg58
V17
p552
sg88
(lp553
(VKIM
VH
tp554
asg25
I2005
sg54
VLANT
p555
sbag1
(g2
g3
NtRp556
(dp557
g60
V10.1104/pp.111.2.469
p558
sg56
VPLANT PHYSIOL
p559
sg58
V111
p560
sg88
(lp561
(VKIRSCH
VT
tp562
asg25
I1996
sg54
VLANT
p563
sbag1
(g2
g3
NtRp564
(dp565
g60
V10.1073/pnas.91.8.3403
p566
sg56
VP NATL ACAD SCI USA
p567
sg58
V91
p568
sg88
(lp569
(VKIRSCH
VT
tp570
asg25
I1994
sg54
V3403
p571
sbag1
(g2
g3
NtRp572
(dp573
g60
Nsg56
VPLANT CELL PHYSIOL
p574
sg58
V40
p575
sg88
(lp576
(VKOIDE
VY
tp577
asg25
I1999
sg54
VLANT
p578
sbag1
(g2
g3
NtRp579
(dp580
g60
Nsg56
VPLANT CELL
p581
sg58
V11
p582
sg88
(lp583
(VLAM
VB C
tp584
asg25
I2001
sg54
VLANT
p585
sbag1
(g2
g3
NtRp586
(dp587
g60
V10.1046/j.1365-313X.2002.01377.x
p588
sg56
VPLANT J
p589
sg58
V31
p590
sg88
(lp591
(VLAM
VB C H
tp592
asg25
I2002
sg54
VLANT
p593
sbag1
(g2
g3
NtRp594
(dp595
g60
V10.1016/j.tplants.2007.09.001
p596
sg56
VTRENDS PLANT SCI
p597
sg58
V12
p598
sg88
(lp599
(VLAM
VS K
tp600
asg25
I2007
sg54
V497
p601
sbag1
(g2
g3
NtRp602
(dp603
g60
V10.1104/pp.106.095349
p604
sg56
VPLANT PHYSIOL
p605
sg58
V143
p606
sg88
(lp607
(VLEE
VG J
tp608
asg25
I2007
sg54
VLANT
p609
sbag1
(g2
g3
NtRp610
(dp611
g60
V10.1104/pp.003624
p612
sg56
VPLANT PHYSIOL
p613
sg58
V129
p614
sg88
(lp615
(VLEE
VM H
tp616
asg25
I2002
sg54
VLANT
p617
sbag1
(g2
g3
NtRp618
(dp619
g60
V10.1016/j.febslet.2007.07.023
p620
sg56
VFEBS LETT
p621
sg58
V581
p622
sg88
(lp623
(VLEE
VS M
tp624
asg25
I2007
sg54
V3943
p625
sbag1
(g2
g3
NtRp626
(dp627
g60
V10.1016/j.pbi.2006.09.009
p628
sg56
VCURR OPIN PLANT BIOL
p629
sg58
V9
sg88
(lp630
(VLEROUXEL
VO
tp631
asg25
I2006
sg54
V621
p632
sbag1
(g2
g3
NtRp633
(dp634
g60
V10.1073/pnas.0604421103
p635
sg56
VP NATL ACAD SCI USA
p636
sg58
V103
p637
sg88
(lp638
(VLESHEM
VY
tp639
asg25
I2006
sg54
V18008
p640
sbag1
(g2
g3
NtRp641
(dp642
g60
V10.1093/pcp/pcf085
p643
sg56
VPLANT CELL PHYSIOL
p644
sg58
V43
p645
sg88
(lp646
(VLI
VY B
tp647
asg25
I2002
sg54
VLANT
p648
sbag1
(g2
g3
NtRp649
(dp650
g60
V10.1016/0092-8674(94)90219-4
p651
sg56
VCELL
p652
sg58
V77
p653
sg88
(lp654
(VMARCUSSON
VE G
tp655
asg25
I1994
sg54
V579
p656
sbag1
(g2
g3
NtRp657
(dp658
g60
V10.1105/tpc.105.036376
p659
sg56
VPLANT CELL
p660
sg58
V18
p661
sg88
(lp662
(VMARUYAMA
VN
tp663
asg25
I2006
sg54
VLANT
p664
sbag1
(g2
g3
NtRp665
(dp666
g60
V10.1007/s00709-005-0117-3
p667
sg56
VPROTOPLASMA
p668
sg58
V226
p669
sg88
(lp670
(VMASCLAUX
VF G
tp671
asg25
I2005
sg54
VROTOPLASMA
p672
sbag1
(g2
g3
NtRp673
(dp674
g60
V10.1073/pnas.88.3.834
p675
sg56
VP NATL ACAD SCI USA
p676
sg58
V88
p677
sg88
(lp678
(VMATSUOKA
VK
tp679
asg25
I1991
sg54
V834
p680
sbag1
(g2
g3
NtRp681
(dp682
g60
V10.1007/BF00014542
p683
sg56
VPLANT MOL BIOL
p684
sg58
V21
p685
sg88
(lp686
(VMELCHERS
VL S
tp687
asg25
I1993
sg54
VLANT
p688
sbag1
(g2
g3
NtRp689
(dp690
g60
V10.1016/j.bbamem.2004.04.005
p691
sg56
VBBA
p692
sg58
V1664
p693
sg88
(lp694
(VMEMON
VA R
tp695
asg25
I2004
sg54
V9
sbag1
(g2
g3
NtRp696
(dp697
g60
V10.1104/pp.106.083618
p698
sg56
VPLANT PHYSIOL
p699
sg58
V142
p700
sg88
(lp701
(VMIAO
VY S
tp702
asg25
I2006
sg54
VLANT
p703
sbag1
(g2
g3
NtRp704
(dp705
g60
V10.1016/S0074-7696(06)53003-7
p706
sg56
VINT REV CYTOL
p707
sg58
V253
p708
sg88
(lp709
(VMO
VB X
tp710
asg25
I2006
sg54
V95
p711
sbag1
(g2
g3
NtRp712
(dp713
g60
V10.1247/csf.28.419
p714
sg56
VCELL STRUCT FUNCT
p715
sg58
V28
p716
sg88
(lp717
(VNAKATSU
VF
tp718
asg25
I2003
sg54
V419
p719
sbag1
(g2
g3
NtRp720
(dp721
g60
V10.1023/A:1006032627036
p722
sg56
VPLANT MOL BIOL
p723
sg58
V38
p724
sg88
(lp725
(VNEUHAUS
VJ M
tp726
asg25
I1998
sg54
VLANT
p727
sbag1
(g2
g3
NtRp728
(dp729
g60
V10.1073/pnas.88.22.10362
p730
sg56
VP NATL ACAD SCI USA
p731
sg58
V88
p732
sg88
(lp733
(VNEUHAUS
VJ M
tp734
asg25
I1991
sg54
V10362
p735
sbag1
(g2
g3
NtRp736
(dp737
g60
V10.1046/j.1365-313X.1994.5010045.x
p738
sg56
VPLANT J
p739
sg58
V5
sg88
(lp740
(VNEUHAUS
VJ M
tp741
asg25
I1994
sg54
VLANT
p742
sbag1
(g2
g3
NtRp743
(dp744
g60
V10.1242/jcs.03365
p745
sg56
VJ CELL SCI
p746
sg58
V120
p747
sg88
(lp748
(VNEWELL-LITWA
VK
tp749
asg25
I2007
sg54
V531
p750
sbag1
(g2
g3
NtRp751
(dp752
g60
Nsg56
VHISTOL HISTOPATHOL
p753
sg58
V21
p754
sg88
(lp755
(VNI
VX
tp756
asg25
I2006
sg54
V899
p757
sbag1
(g2
g3
NtRp758
(dp759
g60
V10.1046/j.1365-313X.2003.01754.x
p760
sg56
VPLANT J
p761
sg58
V34
p762
sg88
(lp763
(VNISHIZAWA
VK
tp764
asg25
I2003
sg54
VLANT
p765
sbag1
(g2
g3
NtRp766
(dp767
g60
V10.1016/S0962-8924(98)01295-1
p768
sg56
VTRENDS CELL BIOL
p769
sg58
V8
sg88
(lp770
(VODORIZZI
VG
tp771
asg25
I1998
sg54
V282
p772
sbag1
(g2
g3
NtRp773
(dp774
g60
V10.1105/tpc.105.035907
p775
sg56
VPLANT CELL
p776
sg58
V18
p777
sg88
(lp778
(VOLIVIUSSON
VP
tp779
asg25
I2006
sg54
VLANT
p780
sbag1
(g2
g3
NtRp781
(dp782
g60
V10.1105/tpc.106.040931
p783
sg56
VPLANT CELL
p784
sg58
V18
p785
sg88
(lp786
(VOTEGUI
VM S
tp787
asg25
I2006
sg54
VLANT
p788
sbag1
(g2
g3
NtRp789
(dp790
g60
V10.1105/tpc.105.035212
p791
sg56
VPLANT CELL
p792
sg58
V17
p793
sg88
(lp794
(VOUFATTOLE
VM
tp795
asg25
I2005
sg54
VLANT
p796
sbag1
(g2
g3
NtRp797
(dp798
g60
V10.1104/pp.115.1.29
p799
sg56
VPLANT PHYSIOL
p800
sg58
V115
p801
sg88
(lp802
(VPARIS
VN
tp803
asg25
I1997
sg54
VLANT
p804
sbag1
(g2
g3
NtRp805
(dp806
g60
V10.1023/A:1021205715324
p807
sg56
VPLANT MOL BIOL
p808
sg58
V50
p809
sg88
(lp810
(VPARIS
VN
tp811
asg25
I2002
sg54
VLANT
p812
sbag1
(g2
g3
NtRp813
(dp814
g60
V10.1016/j.plantsci.2006.12.008
p815
sg56
VPLANT SCI
p816
sg58
V172
p817
sg88
(lp818
(VPARK
VJ H
tp819
asg25
I2007
sg54
VLANT
p820
sbag1
(g2
g3
NtRp821
(dp822
g60
V10.1083/jcb.200504112
p823
sg56
VJ CELL BIOL
p824
sg58
V170
p825
sg88
(lp826
(VPARK
VM
tp827
asg25
I2005
sg54
V757
p828
sbag1
(g2
g3
NtRp829
(dp830
g60
V10.1104/pp.103.030635
p831
sg56
VPLANT PHYSIOL
p832
sg58
V134
p833
sg88
(lp834
(VPARK
VM
tp835
asg25
I2004
sg54
VLANT
p836
sbag1
(g2
g3
NtRp837
(dp838
g60
V10.1016/j.plaphy.2007.02.008
p839
sg56
VPLANT PHYSIOL BIOCH
p840
sg58
V45
p841
sg88
(lp842
(VPETRUCCELLI
VS
tp843
asg25
I2007
sg54
VLANT
p844
sbag1
(g2
g3
NtRp845
(dp846
g60
V10.1105/tpc.010140
p847
sg56
VPLANT CELL
p848
sg58
V15
p849
sg88
(lp850
(VPIMPL
VP
tp851
asg25
I2003
sg54
VLANT
p852
sbag1
(g2
g3
NtRp853
(dp854
g60
V10.1083/jcb.138.3.531
p855
sg56
VJ CELL BIOL
p856
sg58
V138
p857
sg88
(lp858
(VPIPER
VR C
tp859
asg25
I1997
sg54
V531
p860
sbag1
(g2
g3
NtRp861
(dp862
g60
V10.1016/j.ceb.2007.07.002
p863
sg56
VCURR OPIN CELL BIOL
p864
sg58
V19
p865
sg88
(lp866
(VPIPER
VR C
tp867
asg25
I2007
sg54
V459
p868
sbag1
(g2
g3
NtRp869
(dp870
g60
V10.1105/tpc.021634
p871
sg56
VPLANT CELL
p872
sg58
V16
p873
sg88
(lp874
(VPREUSS
VM L
tp875
asg25
I2004
sg54
VLANT
p876
sbag1
(g2
g3
NtRp877
(dp878
g60
V10.1016/S0955-0674(96)80027-5
p879
sg56
VCURR OPIN CELL BIOL
p880
sg58
V8
sg88
(lp881
(VRAPOPORT
VT A
tp882
asg25
I1996
sg54
V499
p883
sbag1
(g2
g3
NtRp884
(dp885
g60
V10.1016/j.cell.2007.10.018
p886
sg56
VCELL
p887
sg58
V131
p888
sg88
(lp889
(VRECZEK
VD
tp890
asg25
I2007
sg54
V770
p891
sbag1
(g2
g3
NtRp892
(dp893
g60
V10.1111/j.1462-5822.2006.00829.x
p894
sg56
VCELL MICROBIOL
p895
sg58
V9
sg88
(lp896
(VROBATZEK
VS
tp897
asg25
I2007
sg54
V1
sbag1
(g2
g3
NtRp898
(dp899
g60
V10.1080/07352680701495820
p900
sg56
VCRIT REV PLANT SCI
p901
sg58
V26
p902
sg88
(lp903
(VROBINSON
VD G
tp904
asg25
I2007
sg54
V199
p905
sbag1
(g2
g3
NtRp906
(dp907
g60
V10.1111/j.1600-0854.2005.00303.x
p908
sg56
VTRAFFIC
p909
sg58
V6
sg88
(lp910
(VROBINSON
VD G
tp911
asg25
I2005
sg54
V615
p912
sbag1
(g2
g3
NtRp913
(dp914
g60
V10.1016/j.tcb.2004.02.002
p915
sg56
VTRENDS CELL BIOL
p916
sg58
V14
p917
sg88
(lp918
(VROBINSON
VM S
tp919
asg25
I2004
sg54
V167
p920
sbag1
(g2
g3
NtRp921
(dp922
g60
V10.1016/S0092-8674(00)80723-0
p923
sg56
VCELL
p924
sg58
V97
p925
sg88
(lp926
(VROTH
VM G
tp927
asg25
I1999
sg54
V149
p928
sbag1
(g2
g3
NtRp929
(dp930
g60
V10.1105/tpc.3.7.695
p931
sg56
VPLANT CELL
p932
sg58
V3
sg88
(lp933
(VSAALBACH
VG
tp934
asg25
I1991
sg54
VLANT
p935
sbag1
(g2
g3
NtRp936
(dp937
g60
V10.1073/pnas.95.17.9920
p938
sg56
VP NATL ACAD SCI USA
p939
sg58
V95
p940
sg88
(lp941
(VSANDERFOOT
VA A
tp942
asg25
I1998
sg54
V9920
p943
sbag1
(g2
g3
NtRp944
(dp945
g60
Nsg56
VMOL BIOL CELL
p946
sg58
V12
p947
sg88
(lp948
(VSANDERFOOT
VA A
tp949
asg25
I2001
sg54
V3733
p950
sbag1
(g2
g3
NtRp951
(dp952
g60
V10.1073/pnas.0611147104
p953
sg56
VP NATL ACAD SCI USA
p954
sg58
V104
p955
sg88
(lp956
(VSANMARTIN
VM
tp957
asg25
I2007
sg54
V3645
p958
sbag1
(g2
g3
NtRp959
(dp960
g60
V10.1083/jcb.137.1.79
p961
sg56
VJ CELL BIOL
p962
sg58
V137
p963
sg88
(lp964
(VSEAMAN
VM N J
tp965
asg25
I1997
sg54
V79
p966
sbag1
(g2
g3
NtRp967
(dp968
g60
V10.1038/nsb920
p969
sg56
VNAT STRUCT BIOL
p970
sg58
V10
p971
sg88
(lp972
(VSHIBA
VT
tp973
asg25
I2003
sg54
V386
p974
sbag1
(g2
g3
NtRp975
(dp976
g60
V10.1093/pcp/pcj103
p977
sg56
VPLANT CELL PHYSIOL
p978
sg58
V47
p979
sg88
(lp980
(VSHIMADA
VT
tp981
asg25
I2006
sg54
VLANT
p982
sbag1
(g2
g3
NtRp983
(dp984
g60
V10.1073/pnas.2530568100
p985
sg56
VP NATL ACAD SCI USA
p986
sg58
V100
p987
sg88
(lp988
(VSHIMADA
VT
tp989
asg25
I2003
sg54
V16095
p990
sbag1
(g2
g3
NtRp991
(dp992
g60
V10.1111/j.1432-1033.2004.04136.x
p993
sg56
VEUR J BIOCHEM
p994
sg58
V271
p995
sg88
(lp996
(VSIMOES
VI
tp997
asg25
I2004
sg54
V2067
p998
sbag1
(g2
g3
NtRp999
(dp1000
g60
V10.1002/jcb.1982.240180107
p1001
sg56
VJ CELL BIOCHEM
p1002
sg58
V18
p1003
sg88
(lp1004
(VSLY
VW S
tp1005
asg25
I1982
sg54
V67
p1006
sbag1
(g2
g3
NtRp1007
(dp1008
g60
V10.1073/pnas.0708236104
p1009
sg56
VP NATL ACAD SCI USA
p1010
sg58
V104
p1011
sg88
(lp1012
(VSOHN
VE J
tp1013
asg25
I2007
sg54
V18801
p1014
sbag1
(g2
g3
NtRp1015
(dp1016
g60
V10.1105/tpc.009779
p1017
sg56
VPLANT CELL
p1018
sg58
V15
p1019
sg88
(lp1020
(VSOHN
VE J
tp1021
asg25
I2003
sg54
VLANT
p1022
sbag1
(g2
g3
NtRp1023
(dp1024
g60
V10.1105/tpc.105.039123
p1025
sg56
VPLANT CELL
p1026
sg58
V18
p1027
sg88
(lp1028
(VSONG
VJ
tp1029
asg25
I2006
sg54
VLANT
p1030
sbag1
(g2
g3
NtRp1031
(dp1032
g60
Nsg56
VJ BIOL CHEM
p1033
sg58
V269
p1034
sg88
(lp1035
(VSTAAB
VJ F
tp1036
asg25
I1994
sg54
V23736
p1037
sbag1
(g2
g3
NtRp1038
(dp1039
g60
V10.1126/science.1496378
p1040
sg56
VSCIENCE
p1041
sg58
V257
p1042
sg88
(lp1043
(VSTICHER
VL
tp1044
asg25
I1992
sg54
V655
p1045
sbag1
(g2
g3
NtRp1046
(dp1047
g60
V10.1105/tpc.016121
p1048
sg56
VPLANT CELL
p1049
sg58
V15
p1050
sg88
(lp1051
(VSURPIN
VM
tp1052
asg25
I2003
sg54
VLANT
p1053
sbag1
(g2
g3
NtRp1054
(dp1055
g60
V10.1038/nrm1311
p1056
sg56
VNAT REV MOL CELL BIO
p1057
sg58
V5
sg88
(lp1058
(VSURPIN
VM
tp1059
asg25
I2004
sg54
V100
p1060
sbag1
(g2
g3
NtRp1061
(dp1062
g60
V10.1046/j.1365-313X.2002.01372.x
p1063
sg56
VPLANT J
p1064
sg58
V31
p1065
sg88
(lp1066
(VTAKEUCHI
VM
tp1067
asg25
I2002
sg54
VLANT
p1068
sbag1
(g2
g3
NtRp1069
(dp1070
g60
V10.1016/j.bbamer.2005.02.007
p1071
sg56
VBBA
p1072
sg58
V1744
p1073
sg88
(lp1074
(VTANG
VB L
tp1075
asg25
I2005
sg54
V293
p1076
sbag1
(g2
g3
NtRp1077
(dp1078
g60
V10.1046/j.1365-313X.2003.01760.x
p1079
sg56
VPLANT J
p1080
sg58
V34
p1081
sg88
(lp1082
(VTHOMINE
VS
tp1083
asg25
I2003
sg54
VLANT
p1084
sbag1
(g2
g3
NtRp1085
(dp1086
g60
V10.1105/tpc.13.9.2021
p1087
sg56
VPLANT CELL
p1088
sg58
V13
p1089
sg88
(lp1090
(VTORMAKANGAS
VK
tp1091
asg25
I2001
sg54
VLANT
p1092
sbag1
(g2
g3
NtRp1093
(dp1094
g60
V10.1016/j.bbamcr.2005.04.005
p1095
sg56
VBBA
p1096
sg58
V1744
p1097
sg88
(lp1098
(VTRAUB
VL M
tp1099
asg25
I2005
sg54
V415
p1100
sbag1
(g2
g3
NtRp1101
(dp1102
g60
V10.1105/tpc.019703
p1103
sg56
VPLANT CELL
p1104
sg58
V16
p1105
sg88
(lp1106
(VTSE
VY C
tp1107
asg25
I2004
sg54
VLANT
p1108
sbag1
(g2
g3
NtRp1109
(dp1110
g60
V10.1016/j.ceb.2007.05.003
p1111
sg56
VCURR OPIN CELL BIOL
p1112
sg58
V19
p1113
sg88
(lp1114
(VUNGEWICKELL
VE J
tp1115
asg25
I2007
sg54
V417
p1116
sbag1
(g2
g3
NtRp1117
(dp1118
g60
V10.1016/j.tplants.2005.05.001
p1119
sg56
VTRENDS PLANT SCI
p1120
sg58
V10
p1121
sg88
(lp1122
(VVITALE
VA
tp1123
asg25
I2005
sg54
V316
p1124
sbag1
(g2
g3
NtRp1125
(dp1126
g60
V10.1002/bies.950140303
p1127
sg56
VBIOESSAYS
p1128
sg58
V14
p1129
sg88
(lp1130
(VVITALE
VA
tp1131
asg25
I1992
sg54
V151
p1132
sbag1
(g2
g3
NtRp1133
(dp1134
g60
V10.1111/j.1365-313X.2007.03061.x
p1135
sg56
VPLANT J
p1136
sg58
V50
p1137
sg88
(lp1138
(VVON
VD E R FECHTBARTENBACH J
tp1139
asg25
I2007
sg54
VLANT
p1140
sbag1
(g2
g3
NtRp1141
(dp1142
g60
V10.1104/pp.107.096263
p1143
sg56
VPLANT PHYSIOL
p1144
sg58
V143
p1145
sg88
(lp1146
(VWANG
VJ Q
tp1147
asg25
I2007
sg54
VLANT
p1148
sbag1
(g2
g3
NtRp1149
(dp1150
g60
V10.1016/S0960-9822(01)00273-1
p1151
sg56
VCURR BIOL
p1152
sg58
V11
p1153
sg88
(lp1154
(VWHYTE
VJ R C
tp1155
asg25
I2001
sg54
V1074
p1156
sbag1
(g2
g3
NtRp1157
(dp1158
g60
V10.1093/pcp/pcn006
p1159
sg56
VPLANT CELL PHYSIOL
p1160
sg58
V49
p1161
sg88
(lp1162
(VYAMAZAKI
VM
tp1163
asg25
I2008
sg54
VLANT
p1164
sbag1
(g2
g3
NtRp1165
(dp1166
g60
V10.1105/tpc.105.031112
p1167
sg56
VPLANT CELL
p1168
sg58
V17
p1169
sg88
(lp1170
(VZHENG
VH Q
tp1171
asg25
I2005
sg54
VLANT
p1172
sbag1
(g2
g3
NtRp1173
(dp1174
g60
Nsg56
VMOL BIOL CELL
p1175
sg58
V10
p1176
sg88
(lp1177
(VZHENG
VH Y
tp1178
asg25
I1999
sg54
V2251
p1179
sbasb.