ccopy_reg
_reconstructor
p1
(ctethne.classes.paper
Paper
p2
c__builtin__
object
p3
NtRp4
(dp5
S'publisherCity'
p6
VROCKVILLE
p7
sS'reprintAddress'
p8
VHortensteiner, S (reprint author), Univ Zurich, Inst Plant Biol, Zollikerstr 107, CH-8008 Zurich, Switzerland.
p9
sS'WC'
p10
VPlant Sciences
p11
sS'GA'
p12
V889DS
p13
sS'FX'
p14
(lp15
VThis work was supported by the Swiss National Science Foundation (grant
p16
aVnos. 3100A0-117940 and 31003A-132603) and the National Centre of
p17
aVCompetence in Research Plant Survival, a research program of the Swiss
p18
aVNational Science Foundation (to S. H.) and by the Austrian National
p19
aVScience Foundation (Fonds zur Forderung der wissenschaftlichen Forschung
p20
aVproject no. P 19596 to B.K.).
p21
asS'abstract'
p22
VDuring leaf senescence, chlorophyll (Chl) is broken down to nonfluorescent chlorophyll catabolites (NCCs). These arise from intermediary fluorescent chlorophyll catabolites (FCCs) by an acid-catalyzed isomerization inside the vacuole. The chemical structures of NCCs from Arabidopsis (Arabidopsis thaliana) indicate the presence of an enzyme activity that demethylates the C13(2) -carboxymethyl group present at the isocyclic ring of Chl. Here, we identified this activity as methylesterase family member 16 (MES16; At4g16690). During senescence, mes16 leaves exhibited a strong ultraviolet-excitable fluorescence, which resulted from large amounts of different FCCs accumulating in the mutants. As confirmed by mass spectrometry, these FCCs had an intact carboxymethyl group, which slowed down their isomerization to respective NCCs. Like a homologous protein cloned from radish (Raphanus sativus) and named pheophorbidase, MES16 catalyzed the demethylation of pheophorbide, an early intermediate of Chl breakdown, in vitro, but MES16 also demethylated an FCC. To determine the in vivo substrate of MES16, we analyzed pheophorbide a oxygenase1 (pao1), which is deficient in pheophorbide catabolism and accumulates pheophorbide in the chloroplast, and a mes16pao1 double mutant. In the pao1 background, we additionally mistargeted MES16 to the chloroplast. Normally, MES16 localizes to the cytosol, as shown by analysis of a MES16-green fluorescent protein fusion. Analysis of the accumulating pigments in these lines revealed that pheophorbide is only accessible for demethylation when MES16 is targeted to the chloroplast. Together, these data demonstrate that MES16 is an integral component of Chl breakdown in Arabidopsis and specifically demethylates Chl catabolites at the level of FCCs in the cytosol.
p23
sS'pageEnd'
p24
I641
sS'date'
p25
I2012
sS'documentType'
p26
VArticle
p27
sS'subject'
p28
VPlant Sciences
p29
sS'isoSource'
p30
VPlant Physiol.
p31
sS'timesCited'
p32
(lp33
I4
aVZ9 4
p34
asS'funding'
p35
(lp36
(VSwiss National Science Foundation
V3100A0-117940, 31003A-132603
tp37
a(VNational Centre of Competence in Research Plant Survival
Ntp38
a(VSwiss National Science Foundation
Ntp39
a(VAustrian National Science Foundation
VP 19596
tp40
asS'PT'
p41
VJ
sS'title'
p42
VMes16, A Member Of The Methylesterase Protein Family, Specifically Demethylates Fluorescent Chlorophyll Catabolites During Chlorophyll Breakdown In Arabidopsis
p43
sS'ISSN'
p44
(lp45
V0032-0889
p46
aVJ9 PLANT PHYSIOL
p47
asS'authors_full'
p48
(lp49
(VCHRIST
VBASTIEN
tp50
a(VSCHELBERT
VSILVIA
tp51
a(VAUBRY
VSYLVAIN
tp52
a(VSUESSENBACHER
VIRIS
tp53
a(VMUELLER
VTHOMAS
tp54
a(VKRAEUTLER
VBERNHARD
tp55
a(VHOERTENSTEINER
VSTEFAN
tp56
asS'PG'
p57
I14
sS'PD'
p58
VFEB
p59
sS'pageStart'
p60
I628
sS'issue'
p61
I2
sS'journal'
p62
VPLANT PHYSIOLOGY
p63
sS'volume'
p64
V158
p65
sS'doi'
p66
V10.1104/pp.111.188870
p67
sS'emailAddress'
p68
Vshorten@botinst.uzh.ch
p69
sS'authorAddress'
p70
(lp71
V[Christ, Bastien; Schelbert, Silvia; Aubry, Sylvain; Hoertensteiner, Stefan] Univ Zurich, Inst Plant Biol, CH-8008 Zurich, Switzerland.
p72
aV[Suessenbacher, Iris; Mueller, Thomas; Kraeutler, Bernhard] Univ Innsbruck, Inst Organ Chem, A-6020 Innsbruck, Austria.
p73
aV[Suessenbacher, Iris; Mueller, Thomas; Kraeutler, Bernhard] Univ Innsbruck, Ctr Mol Biosci, A-6020 Innsbruck, Austria.
p74
asS'publisherAddress'
p75
V15501 MONONA DRIVE, ROCKVILLE, MD 20855 USA
p76
sS'ER'
p77
V
sS'publisher'
p78
VAMER SOC PLANT BIOLOGISTS
p79
sS'authorKeywords'
p80
(lp81
VHARVESTING COMPLEX-II
p82
aVSTAY-GREEN PHENOTYPE
p83
aVSENESCENT LEAVES
p84
aVLEAF SENESCENCE
p85
aVHIGHER-PLANTS
p86
aVREGULATES CHLOROPHYLL
p87
aVCHENOPODIUM-ALBUM
p88
aVREVERSE GENETICS
p89
aVMESOPHYLL-CELLS
p90
aVDEGRADATION
p91
asS'language'
p92
VEnglish
p93
sS'wosid'
p94
VWOS:000300054300008
p95
sS'citationCount'
p96
I80
sS'authors_init'
p97
(lp98
(VCHRIST
VB
tp99
a(VSCHELBERT
VS
tp100
a(VAUBRY
VS
tp101
a(VSUSSENBACHER
VI
tp102
a(VMULLER
VT
tp103
a(VKRAUTLER
VB
tp104
a(VHORTENSTEINER
VS
tp105
asS'citedReferences'
p106
(lp107
g1
(g2
g3
NtRp108
(dp109
g66
V10.1126/science.1086391
p110
sg62
VSCIENCE
p111
sg64
V301
p112
sg97
(lp113
(VALONSO
VJ M
tp114
asg25
I2003
sg60
V653
p115
sbag1
(g2
g3
NtRp116
(dp117
g66
V10.1093/nar/25.17.3389
p118
sg62
VNUCLEIC ACIDS RES
p119
sg64
V25
p120
sg97
(lp121
(VALTSCHUL
VS F
tp122
asg25
I1997
sg60
V3389
p123
sbag1
(g2
g3
NtRp124
(dp125
g66
V10.1098/rspb.2004.2728
p126
sg62
VP ROY SOC B
p127
sg64
V271
p128
sg97
(lp129
(VARCHETTI
VM
tp130
asg25
I2004
sg60
V1219
p131
sbag1
(g2
g3
NtRp132
(dp133
g66
V10.1016/0006-3002(59)90551-7
p134
sg62
VBIOCHIM BIOPHYS ACTA
p135
sg64
V32
p136
sg97
(lp137
(VARNON
VD I
tp138
asg25
I1959
sg60
V47
p139
sbag1
(g2
g3
NtRp140
(dp141
g66
Nsg62
VBIOTECHNIQUES
p142
sg64
V30
p143
sg97
(lp144
(VBALZERGUE
VS
tp145
asg25
I2001
sg60
V496
p146
sbag1
(g2
g3
NtRp147
(dp148
g66
V10.1002/anie.201000294
p149
sg62
VANGEW CHEM INT EDIT
p150
sg64
V49
p151
sg97
(lp152
(VBANALA
VS
tp153
asg25
I2010
sg60
V5174
p154
sbag1
(g2
g3
NtRp155
(dp156
g66
V10.1002/cbdv.200490057
p157
sg62
VCHEM BIODIVERS
p158
sg64
V1
sg97
(lp159
(VBERGHOLD
VJ
tp160
asg25
I2004
sg60
V657
p161
sbag1
(g2
g3
NtRp162
(dp163
g66
V10.1023/A:1020991023248
p164
sg62
VPHOTOSYNTH RES
p165
sg64
V74
p166
sg97
(lp167
(VBERGHOLD
VJ
tp168
asg25
I2002
sg60
VHOTOSYNTH
p169
sbag1
(g2
g3
NtRp170
(dp171
g66
V10.1007/s00706-006-0473-5
p172
sg62
VMONATSH CHEM
p173
sg64
V137
p174
sg97
(lp175
(VBERGHOLD
VJ
tp176
asg25
I2006
sg60
V751
p177
sbag1
(g2
g3
NtRp178
(dp179
g66
Nsg62
VCHLOROPHYLLS
p180
sg64
Nsg97
(lp181
(VBROWN
VS B
tp182
asg25
I1991
sg60
V465
p183
sbag1
(g2
g3
NtRp184
(dp185
g66
V10.1046/j.1365-313x.1998.00343.x
p186
sg62
VPLANT J
p187
sg64
V16
p188
sg97
(lp189
(VCLOUGH
VS J
tp190
asg25
I1998
sg60
VLANT
p191
sbag1
(g2
g3
NtRp192
(dp193
g66
V10.1016/0031-9422(96)00155-0
p194
sg62
VPHYTOCHEMISTRY
p195
sg64
V42
p196
sg97
(lp197
(VCURTY
VC
tp198
asg25
I1996
sg60
VHYTOCHEMISTRY
p199
sbag1
(g2
g3
NtRp200
(dp201
g66
V10.1093/nar/gkn180
p202
sg62
VNUCLEIC ACIDS RES
p203
sg64
V36
p204
sg97
(lp205
(VDEREEPER
VA
tp206
asg25
I2008
sg60
VW465
p207
sbag1
(g2
g3
NtRp208
(dp209
g66
V10.1016/S0968-0004(98)01254-7
p210
sg62
VTRENDS BIOCHEM SCI
p211
sg64
V23
p212
sg97
(lp213
(VDODSON
VG
tp214
asg25
I1998
sg60
V347
p215
sbag1
(g2
g3
NtRp216
(dp217
g66
V10.1104/pp.106.079533
p218
sg62
VPLANT PHYSIOL
p219
sg64
V141
p220
sg97
(lp221
(VENDLER
VA
tp222
asg25
I2006
sg60
VLANT
p223
sbag1
(g2
g3
NtRp224
(dp225
g66
V10.1073/pnas.0409227102
p226
sg62
VP NATL ACAD SCI USA
p227
sg64
V102
p228
sg97
(lp229
(VFOROUHAR
VF
tp230
asg25
I2005
sg60
V1773
p231
sbag1
(g2
g3
NtRp232
(dp233
g66
V10.1093/pcp/pcn034
p234
sg62
VPLANT CELL PHYSIOL
p235
sg64
V49
p236
sg97
(lp237
(VFRELET-BARRAND
VA
tp238
asg25
I2008
sg60
VLANT
p239
sbag1
(g2
g3
NtRp240
(dp241
g66
V10.1104/pp.119.3.979
p242
sg62
VPLANT PHYSIOL
p243
sg64
V119
p244
sg97
(lp245
(VGAO
VZ F
tp246
asg25
I1999
sg60
VLANT
p247
sbag1
(g2
g3
NtRp248
(dp249
g66
V10.1023/B:PLAN.0000028766.61559.4c
p250
sg62
VPLANT MOL BIOL
p251
sg64
V54
p252
sg97
(lp253
(VGRAY
VJ
tp254
asg25
I2004
sg60
VLANT
p255
sbag1
(g2
g3
NtRp256
(dp257
g66
V10.1023/A:1006496308160
p258
sg62
VPLANT MOL BIOL
p259
sg64
V42
p260
sg97
(lp261
(VHELLENS
VR P
tp262
asg25
I2000
sg60
VLANT
p263
sbag1
(g2
g3
NtRp264
(dp265
g66
V10.1007/BF00392815
p266
sg62
VPLANTA
p267
sg64
V177
p268
sg97
(lp269
(VHILDITCH
VP I
tp270
asg25
I1989
sg60
VLANTA
p271
sbag1
(g2
g3
NtRp272
(dp273
g66
Nsg62
VJ BIOL CHEM
p274
sg64
V271
p275
sg97
(lp276
(VHINDER
VB
tp277
asg25
I1996
sg60
V27233
p278
sbag1
(g2
g3
NtRp279
(dp280
g66
V10.1074/jbc.M109.008912
p281
sg62
VJ BIOL CHEM
p282
sg64
V284
p283
sg97
(lp284
(VHORIE
VY
tp285
asg25
I2009
sg60
V17449
p286
sbag1
(g2
g3
NtRp287
(dp288
g66
V10.1016/j.bbabio.2010.12.007
p289
sg62
VBBA
p290
sg64
V1807
p291
sg97
(lp292
(VHORTENSTEINER
VS
tp293
asg25
I2011
sg60
V977
p294
sbag1
(g2
g3
NtRp295
(dp296
g66
V10.1074/jbc.273.25.15335
p297
sg62
VJ BIOL CHEM
p298
sg64
V273
p299
sg97
(lp300
(VHORTENSTEINER
VS
tp301
asg25
I1998
sg60
V15335
p302
sbag1
(g2
g3
NtRp303
(dp304
g66
V10.1016/j.tplants.2009.01.002
p305
sg62
VTRENDS PLANT SCI
p306
sg64
V14
p307
sg97
(lp308
(VHORTENSTEINER
VS
tp309
asg25
I2009
sg60
V155
p310
sbag1
(g2
g3
NtRp311
(dp312
g66
V10.1111/j.1469-8137.1995.tb04293.x
p313
sg62
VNEW PHYTOL
p314
sg64
V129
p315
sg97
(lp316
(VHORTENSTEINER
VS
tp317
asg25
I1995
sg60
V237
p318
sbag1
(g2
g3
NtRp319
(dp320
g66
V10.1146/annurev.arplant.57.032905.105212
p321
sg62
VANNU REV PLANT BIOL
p322
sg64
V57
p323
sg97
(lp324
(VHORTENSTEINER
VS
tp325
asg25
I2006
sg60
V55
p326
sbag1
(g2
g3
NtRp327
(dp328
g66
V10.1093/mp/ssp088
p329
sg62
VMOL PLANT
p330
sg64
V2
sg97
(lp331
(VJOYARD
VJ
tp332
asg25
I2009
sg60
V1154
p333
sbag1
(g2
g3
NtRp334
(dp335
g66
Nsg62
VV25
p336
sg64
V25
p337
sg97
(lp338
(VKRAEUTLER
VBERNHARD
tp339
asg25
I2006
sg60
V237
p340
sbag1
(g2
g3
NtRp341
(dp342
g66
V10.1002/anie.199113151
p343
sg62
VANGEW CHEM INT EDIT
p344
sg64
V30
p345
sg97
(lp346
(VKRAUTLER
VB
tp347
asg25
I1991
sg60
V1315
p348
sbag1
(g2
g3
NtRp349
(dp350
g66
V10.1016/j.febslet.2010.09.011
p351
sg62
VFEBS LETT
p352
sg64
V584
p353
sg97
(lp354
(VKRAUTLER
VB
tp355
asg25
I2010
sg60
V4215
p356
sbag1
(g2
g3
NtRp357
(dp358
g66
Nsg62
VV89
p359
sg64
V89
p360
sg97
(lp361
(VKRAEUTLER
VBERNHARD
tp362
asg25
I2008
sg60
V1
sbag1
(g2
g3
NtRp363
(dp364
g66
V10.1007/978-1-60327-210-0_16
p365
sg62
VV425
p366
sg64
V425
p367
sg97
(lp368
(VKUBIS
VSYBILLE E
tp369
asg25
I2008
sg60
V171
p370
sbag1
(g2
g3
NtRp371
(dp372
g66
V10.1105/tpc.106.042911
p373
sg62
VPLANT CELL
p374
sg64
V19
p375
sg97
(lp376
(VKUSABA
VM
tp377
asg25
I2007
sg60
VLANT
p378
sbag1
(g2
g3
NtRp379
(dp380
g66
V10.1074/jbc.M009288200
p381
sg62
VJ BIOL CHEM
p382
sg64
V276
p383
sg97
(lp384
(VLOSEY
VF G
tp385
asg25
I2001
sg60
V8643
p386
sbag1
(g2
g3
NtRp387
(dp388
g66
Nsg62
VPLANT PHYSIOL BIOCH
p389
sg64
V34
p390
sg97
(lp391
(VMATILE
VP
tp392
asg25
I1996
sg60
VLANT
p393
sbag1
(g2
g3
NtRp394
(dp395
g66
V10.1073/pnas.85.24.9529
p396
sg62
VP NATL ACAD SCI USA
p397
sg64
V85
p398
sg97
(lp399
(VMATILE
VP
tp400
asg25
I1988
sg60
V9529
p401
sbag1
(g2
g3
NtRp402
(dp403
g66
Nsg62
VPLANTA
p404
sg64
V187
p405
sg97
(lp406
(VMATILE
VP
tp407
asg25
I1992
sg60
VLANTA
p408
sbag1
(g2
g3
NtRp409
(dp410
g66
V10.1105/tpc.111.089714
p411
sg62
VPLANT CELL
p412
sg64
V23
p413
sg97
(lp414
(VMEGURO
VM
tp415
asg25
I2011
sg60
VLANT
p416
sbag1
(g2
g3
NtRp417
(dp418
g66
V10.1074/jbc.M510766200
p419
sg62
VJ BIOL CHEM
p420
sg64
V281
p421
sg97
(lp422
(VMEYER
VA
tp423
asg25
I2006
sg60
V7197
p424
sbag1
(g2
g3
NtRp425
(dp426
g66
V10.1111/j.1365-313X.2009.03919.x
p427
sg62
VPLANT J
p428
sg64
V59
p429
sg97
(lp430
(VMORITA
VR
tp431
asg25
I2009
sg60
VLANT
p432
sbag1
(g2
g3
NtRp433
(dp434
g66
V10.1039/b813558d
p435
sg62
VPHOTOCH PHOTOBIO SCI
p436
sg64
V7
sg97
(lp437
(VMOSER
VS
tp438
asg25
I2008
sg60
VHOTOCH
p439
sbag1
(g2
g3
NtRp440
(dp441
g66
V10.1073/pnas.0908060106
p442
sg62
VP NATL ACAD SCI USA
p443
sg64
V106
p444
sg97
(lp445
(VMOSER
VS
tp446
asg25
I2009
sg60
V15538
p447
sbag1
(g2
g3
NtRp448
(dp449
g66
V10.1002/anie.199704011
p450
sg62
VANGEW CHEM INT EDIT
p451
sg64
V36
p452
sg97
(lp453
(VMUHLECKER
VW
tp454
asg25
I1997
sg60
V401
p455
sbag1
(g2
g3
NtRp456
(dp457
g66
Nsg62
VPLANT PHYSIOL BIOCH
p458
sg64
V34
p459
sg97
(lp460
(VMUHLECKER
VW
tp461
asg25
I1996
sg60
VLANT
p462
sbag1
(g2
g3
NtRp463
(dp464
g66
V10.1093/nar/gkn807
p465
sg62
VNUCLEIC ACIDS RES
p466
sg64
V37
p467
sg97
(lp468
(VOBAYASHI
VT
tp469
asg25
I2009
sg60
VD987
p470
sbag1
(g2
g3
NtRp471
(dp472
g66
V10.1073/pnas.1232207100
p473
sg62
VP NATL ACAD SCI USA
p474
sg64
V100
p475
sg97
(lp476
(VOBERHUBER
VM
tp477
asg25
I2003
sg60
V6910
p478
sbag1
(g2
g3
NtRp479
(dp480
g66
V10.1002/anie.200705330
p481
sg62
VANGEW CHEM INT EDIT
p482
sg64
V47
p483
sg97
(lp484
(VOBERHUBER
VM
tp485
asg25
I2008
sg60
V3057
p486
sbag1
(g2
g3
NtRp487
(dp488
g66
V10.1105/tpc.106.044891
p489
sg62
VPLANT CELL
p490
sg64
V19
p491
sg97
(lp492
(VPARK
VS Y
tp493
asg25
I2007
sg60
VLANT
p494
sbag1
(g2
g3
NtRp495
(dp496
g66
V10.1073/pnas.2036571100
p497
sg62
VP NATL ACAD SCI USA
p498
sg64
V100
p499
sg97
(lp500
(VPRUZINSKA
VA
tp501
asg25
I2003
sg60
V15259
p502
sbag1
(g2
g3
NtRp503
(dp504
g66
V10.1104/pp.105.065870
p505
sg62
VPLANT PHYSIOL
p506
sg64
V139
p507
sg97
(lp508
(VPRUZINSKA
VA
tp509
asg25
I2005
sg60
VLANT
p510
sbag1
(g2
g3
NtRp511
(dp512
g66
V10.1105/tpc.106.044404
p513
sg62
VPLANT CELL
p514
sg64
V19
p515
sg97
(lp516
(VPRUZINSKA
VA
tp517
asg25
I2007
sg60
VLANT
p518
sbag1
(g2
g3
NtRp519
(dp520
g66
V10.1111/j.1744-7909.2010.00945.x
p521
sg62
VJ INTEGR PLANT BIOL
p522
sg64
V52
p523
sg97
(lp524
(VREN
VG D
tp525
asg25
I2010
sg60
V496
p526
sbag1
(g2
g3
NtRp527
(dp528
g66
V10.1104/pp.115.2.669
p529
sg62
VPLANT PHYSIOL
p530
sg64
V115
p531
sg97
(lp532
(VRODONI
VS
tp533
asg25
I1997
sg60
VLANT
p534
sbag1
(g2
g3
NtRp535
(dp536
g66
V10.1023/B:PLAN.0000009297.37235.4a
p537
sg62
VPLANT MOL BIOL
p538
sg64
V53
p539
sg97
(lp540
(VROSSO
VM G
tp541
asg25
I2003
sg60
VLANT
p542
sbag1
(g2
g3
NtRp543
(dp544
g66
V10.1111/j.1365-313X.2008.03670.x
p545
sg62
VPLANT J
p546
sg64
V57
p547
sg97
(lp548
(VSATO
VY
tp549
asg25
I2009
sg60
VLANT
p550
sbag1
(g2
g3
NtRp551
(dp552
g66
V10.1105/tpc.108.064089
p553
sg62
VPLANT CELL
p554
sg64
V21
p555
sg97
(lp556
(VSCHELBERT
VS
tp557
asg25
I2009
sg60
VLANT
p558
sbag1
(g2
g3
NtRp559
(dp560
g66
V10.1016/j.febslet.2007.10.060
p561
sg62
VFEBS LETT
p562
sg64
V581
p563
sg97
(lp564
(VSCHENK
VN
tp565
asg25
I2007
sg60
V5517
p566
sbag1
(g2
g3
NtRp567
(dp568
g66
Nsg62
VZ PFLANZENPHYSIOL
p569
sg64
V110
p570
sg97
(lp571
(VSCHOCH
VS
tp572
asg25
I1983
sg60
V309
p573
sbag1
(g2
g3
NtRp574
(dp575
g66
V10.1105/tpc.004630
p576
sg62
VPLANT CELL
p577
sg64
V14
p578
sg97
(lp579
(VSESSIONS
VA
tp580
asg25
I2002
sg60
VLANT
p581
sbag1
(g2
g3
NtRp582
(dp583
g66
V10.1016/0031-9422(90)83014-R
p584
sg62
VPHYTOCHEMISTRY
p585
sg64
V29
p586
sg97
(lp587
(VSHIMOKAWA
VK
tp588
asg25
I1990
sg60
VHYTOCHEMISTRY
p589
sbag1
(g2
g3
NtRp590
(dp591
g66
Nsg62
VPLANT CELL PHYSIOL
p592
sg64
V32
p593
sg97
(lp594
(VSHIOI
VY
tp595
asg25
I1991
sg60
VLANT
p596
sbag1
(g2
g3
NtRp597
(dp598
g66
Nsg62
VPLANT CELL PHYSIOL
p599
sg64
V37
p600
sg97
(lp601
(VSHIOI
VY
tp602
asg25
I1996
sg60
VLANT
p603
sbag1
(g2
g3
NtRp604
(dp605
g66
Nsg62
VCURR PROTOC CELL BIO
p606
sg64
V14
p607
sg97
(lp608
(VSMITH
VD
tp609
asg25
I2002
sg60
Nsbag1
(g2
g3
NtRp610
(dp611
g66
Nsg62
VMETHOD ENZYMOL
p612
sg64
V23
p613
sg97
(lp614
(VSTRAIN
VH H
tp615
asg25
I1971
sg60
V452
p616
sbag1
(g2
g3
NtRp617
(dp618
g66
V10.1016/j.plaphy.2005.03.009
p619
sg62
VPLANT PHYSIOL BIOCH
p620
sg64
V43
p621
sg97
(lp622
(VSUZUKI
VT
tp623
asg25
I2005
sg60
VLANT
p624
sbag1
(g2
g3
NtRp625
(dp626
g66
V10.1039/b810271f
p627
sg62
VPHOTOCH PHOTOBIO SCI
p628
sg64
V7
sg97
(lp629
(VSUZUKI
VY
tp630
asg25
I2008
sg60
VHOTOCH
p631
sbag1
(g2
g3
NtRp632
(dp633
g66
Nsg62
VPLANT CELL PHYSIOL
p634
sg64
V40
p635
sg97
(lp636
(VSUZUKI
VY
tp637
asg25
I1999
sg60
VLANT
p638
sbag1
(g2
g3
NtRp639
(dp640
g66
V10.1104/pp.105.071290
p641
sg62
VPLANT PHYSIOL
p642
sg64
V140
p643
sg97
(lp644
(VSUZUKI
VY
tp645
asg25
I2006
sg60
VLANT
p646
sbag1
(g2
g3
NtRp647
(dp648
g66
V10.1023/A:1020919929608
p649
sg62
VPHOTOSYNTH RES
p650
sg64
V74
p651
sg97
(lp652
(VSUZUKI
VY
tp653
asg25
I2002
sg60
VHOTOSYNTH
p654
sbag1
(g2
g3
NtRp655
(dp656
g66
V10.1016/S1360-1385(00)01735-0
p657
sg62
VTRENDS PLANT SCI
p658
sg64
V5
sg97
(lp659
(VTAKAMIYA
VK
tp660
asg25
I2000
sg60
V426
p661
sbag1
(g2
g3
NtRp662
(dp663
g66
V10.1093/pcp/pcg172
p664
sg62
VPLANT CELL PHYSIOL
p665
sg64
V44
p666
sg97
(lp667
(VTANAKA
VR
tp668
asg25
I2003
sg60
VLANT
p669
sbag1
(g2
g3
NtRp670
(dp671
g66
V10.1111/j.1365-313X.2008.03618.x
p672
sg62
VPLANT J
p673
sg64
V56
p674
sg97
(lp675
(VVLOT
VA C
tp676
asg25
I2008
sg60
VLANT
p677
sbag1
(g2
g3
NtRp678
(dp679
g66
V10.1046/j.1365-313X.2001.01105.x
p680
sg62
VPLANT J
p681
sg64
V27
p682
sg97
(lp683
(VWESLEY
VS V
tp684
asg25
I2001
sg60
VLANT
p685
sbag1
(g2
g3
NtRp686
(dp687
g66
V10.1016/0003-2697(84)90782-6
p688
sg62
VANAL BIOCHEM
p689
sg64
V138
p690
sg97
(lp691
(VWESSEL
VD
tp692
asg25
I1984
sg60
V141
p693
sbag1
(g2
g3
NtRp694
(dp695
g66
V10.1046/j.1365-313x.2000.00667.x
p696
sg62
VPLANT J
p697
sg64
V21
p698
sg97
(lp699
(VWUTHRICH
VK L
tp700
asg25
I2000
sg60
VLANT
p701
sbag1
(g2
g3
NtRp702
(dp703
g66
V10.1104/pp.108.118224
p704
sg62
VPLANT PHYSIOL
p705
sg64
V147
p706
sg97
(lp707
(VYANG
VY
tp708
asg25
I2008
sg60
VLANT
p709
sbag1
(g2
g3
NtRp710
(dp711
g66
Nsg62
VJ PLANT PHYSIOL
p712
sg64
V132
p713
sg97
(lp714
(VZIEGLER
VR
tp715
asg25
I1988
sg60
V327
p716
sbag1
(g2
g3
NtRp717
(dp718
g66
V10.1104/pp.104.046367
p719
sg62
VPLANT PHYSIOL
p720
sg64
V136
p721
sg97
(lp722
(VZIMMERMANN
VP
tp723
asg25
I2004
sg60
VLANT
p724
sbasb.