ccopy_reg
_reconstructor
p1
(ctethne.classes.paper
Paper
p2
c__builtin__
object
p3
NtRp4
(dp5
S'publisherCity'
p6
VROCKVILLE
p7
sS'reprintAddress'
p8
VPech, JC (reprint author), Univ Toulouse, Inst Natl Polytech, Ecole Natl Super Agron Toulouse, F-31326 Castanet Tolosan, France.
p9
sS'WC'
p10
VPlant Sciences
p11
sS'GA'
p12
V016MV
p13
sS'FX'
p14
(lp15
VThis work was supported by the Laboratoire d'Excellence (grant no.
p16
aVANR-10-LABX-41; carried out in the Genomique et Biotechnologie des
p17
aVFruits lab). I.E. received a postdoctoral fellowship from Fundacion
p18
aVSeneca (Murcia, Spain), C. B. a bursary from the French Embassy in
p19
aVBucharest (Romania) for a cosupervised PhD, and W. B. a bursary from the
p20
aVUniversity of Chongqing (China) for a PhD. The participation of E. P.
p21
aVwas made possible by a postdoctoral sabbatical fellowship from the
p22
aVgovernment of Brazil (Conselho Nacional de Desenvolvimento Cientifico e
p23
aVTecnolologico). Mass spectrometry analysis was funded, in part, by
p24
aVgrants from the Fondation pour la Recherche Medicale (contract Grands
p25
aVEquipements), the Genopole Toulouse Midi-Pyrenees (program
p26
aVBiologie-Sante), and the Midi-Pyrenees Regional Council.
p27
asS'abstract'
p28
VA comparative proteomic approach was performed to identify differentially expressed proteins in plastids at three stages of tomato (Solanum lycopersicum) fruit ripening (mature-green, breaker, red). Stringent curation and processing of the data from three independent replicates identified 1,932 proteins among which 1,529 were quantified by spectral counting. The quantification procedures have been subsequently validated by immunoblot analysis of six proteins representative of distinct metabolic or regulatory pathways. Among the main features of the chloroplast-to-chromoplast transition revealed by the study, chromoplastogenesis appears to be associated with major metabolic shifts: (1) strong decrease in abundance of proteins of light reactions (photosynthesis, Calvin cycle, photorespiration) and carbohydrate metabolism (starch synthesis/degradation), mostly between breaker and red stages and (2) increase in terpenoid biosynthesis (including carotenoids) and stress-response proteins (ascorbate-glutathione cycle, abiotic stress, redox, heat shock). These metabolic shifts are preceded by the accumulation of plastid-encoded acetyl Coenzyme A carboxylase D proteins accounting for the generation of a storage matrix that will accumulate carotenoids. Of particular note is the high abundance of proteins involved in providing energy and in metabolites import. Structural differentiation of the chromoplast is characterized by a sharp and continuous decrease of thylakoid proteins whereas envelope and stroma proteins remain remarkably stable. This is coincident with the disruption of the machinery for thylakoids and photosystem biogenesis (vesicular trafficking, provision of material for thylakoid biosynthesis, photosystems assembly) and the loss of the plastid division machinery. Altogether, the data provide new insights on the chromoplast differentiation process while enriching our knowledge of the plant plastid proteome.
p29
sS'pageEnd'
p30
I725
sS'date'
p31
I2012
sS'documentType'
p32
VArticle
p33
sS'subject'
p34
VPlant Sciences
p35
sS'isoSource'
p36
VPlant Physiol.
p37
sS'timesCited'
p38
(lp39
I3
aVZ9 3
p40
asS'funding'
p41
(lp42
(VLaboratoire d'Excellence
VANR-10-LABX-41
tp43
a(VFundacion Seneca (Murcia, Spain)
Ntp44
a(VFrench Embassy in Bucharest (Romania)
Ntp45
a(VUniversity of Chongqing (China)
Ntp46
a(Vgovernment of Brazil (Conselho Nacional de Desenvolvimento Cientifico e Tecnolologico)
Ntp47
a(VFondation pour la Recherche Medicale
Ntp48
a(VGenopole Toulouse Midi-Pyrenees
Ntp49
a(VMidi-Pyrenees Regional Council
Ntp50
asS'PT'
p51
VJ
sS'title'
p52
VProteomic Analysis Of Chloroplast-To-Chromoplast Transition In Tomato Reveals Metabolic Shifts Coupled With Disrupted Thylakoid Biogenesis Machinery And Elevated Energy-Production Components
p53
sS'ISSN'
p54
(lp55
V0032-0889
p56
aVJ9 PLANT PHYSIOL
p57
asS'authors_full'
p58
(lp59
(VBARSAN
VCRISTINA
tp60
a(VZOUINE
VMOHAMED
tp61
a(VMAZA
VELIE
tp62
a(VBIAN
VWANPING
tp63
a(VEGEA
VISABEL
tp64
a(VROSSIGNOL
VMICHEL
tp65
a(VBOUYSSIE
VDAVID
tp66
a(VPICHEREAUX
VCAROLE
tp67
a(VPURGATTO
VEDUARDO
tp68
a(VBOUZAYEN
VMONDHER
tp69
a(VLATCHE
VALAIN
tp70
a(VPECH
VJEANCLAUDE
tp71
asS'PG'
p72
I18
sS'PD'
p73
VOCT
p74
sS'pageStart'
p75
I708
sS'issue'
p76
I2
sS'RI'
p77
VPurgatto, Eduardo/C-7707-2009; Maza, Elie/D-4024-2013
p78
sS'journal'
p79
VPLANT PHYSIOLOGY
p80
sS'volume'
p81
V160
p82
sS'doi'
p83
V10.1104/pp.112.203679
p84
sS'emailAddress'
p85
Vpech@ensat.fr
p86
sS'authorAddress'
p87
(lp88
V[Barsan, Cristina; Zouine, Mohamed; Maza, Elie; Bian, Wanping; Egea, Isabel; Rossignol, Michel; Latche, Alain; Pech, Jean-Claude] Univ Toulouse, Inst Natl Polytech, Ecole Natl Super Agron Toulouse, F-31326 Castanet Tolosan, France.
p89
aV[Barsan, Cristina; Zouine, Mohamed; Maza, Elie; Bian, Wanping; Egea, Isabel; Bouzayen, Mondher; Latche, Alain; Pech, Jean-Claude] Inst Natl Rech Agronom Genom & Biotechnol Fruits, F-31326 Castanet Tolosan, France.
p90
aV[Rossignol, Michel; Pichereaux, Carole] CNRS, Inst Pharmacol & Biol Struct, F-31077 Toulouse, France.
p91
aV[Rossignol, Michel; Bouyssie, David; Pichereaux, Carole] Univ Toulouse 3, Inst Pharmacol & Biol Struct, F-31077 Toulouse, France.
p92
aV[Purgatto, Eduardo] Univ Sao Paulo, Fac Ciencias Farmaceut, Dept Alimentos & Nutr Expt, BR-05508000 Sao Paulo, Brazil.
p93
asS'publisherAddress'
p94
V15501 MONONA DRIVE, ROCKVILLE, MD 20855 USA
p95
sS'ER'
p96
V
sS'publisher'
p97
VAMER SOC PLANT BIOLOGISTS
p98
sS'authorKeywords'
p99
(lp100
VGENE-EXPRESSION DATA
p101
aVPLASTID DIVISION
p102
aVPHOTOSYSTEM-II
p103
aVQUANTITATIVE PROTEOMICS
p104
aVFRUIT-DEVELOPMENT
p105
aVHIGHER-PLANTS
p106
aVSUBCELLULAR-LOCALIZATION
p107
aVDIFFERENTIAL ANALYSIS
p108
aVARABIDOPSIS-THALIANA
p109
aVMOLECULAR-BIOLOGY
p110
asS'OI'
p111
VPurgatto, Eduardo/0000-0002-7372-1197; Maza, Elie/0000-0002-7351-6345
p112
sS'language'
p113
VEnglish
p114
sS'wosid'
p115
VWOS:000309523800012
p116
sS'citationCount'
p117
I112
sS'authors_init'
p118
(lp119
(VBARSAN
VC
tp120
a(VZOUINE
VM
tp121
a(VMAZA
VE
tp122
a(VBIAN
VW P
tp123
a(VEGEA
VI
tp124
a(VROSSIGNOL
VM
tp125
a(VBOUYSSIE
VD
tp126
a(VPICHEREAUX
VC
tp127
a(VPURGATTO
VE
tp128
a(VBOUZAYEN
VM
tp129
a(VLATCHE
VA
tp130
a(VPECH
VJ C
tp131
asS'citedReferences'
p132
(lp133
g1
(g2
g3
NtRp134
(dp135
g83
V10.1111/j.1365-313X.2004.02178.x
p136
sg79
VPLANT J
p137
sg81
V39
p138
sg118
(lp139
(VALBA
VR
tp140
asg31
I2004
sg75
VLANT
p141
sbag1
(g2
g3
NtRp142
(dp143
g83
V10.1093/jxb/eri118
p144
sg79
VJ EXP BOT
p145
sg81
V56
p146
sg118
(lp147
(VALDRIDGE
VC
tp148
asg31
I2005
sg75
V1061
p149
sbag1
(g2
g3
NtRp150
(dp151
g83
V10.1006/jmbi.1990.9999
p152
sg79
VJ MOL BIOL
p153
sg81
V215
p154
sg118
(lp155
(VALTSCHUL
VS F
tp156
asg31
I1990
sg75
V403
p157
sbag1
(g2
g3
NtRp158
(dp159
g83
V10.1007/7089_2008_18
p160
sg79
VV13
p161
sg81
V13
p162
sg118
(lp163
(VANDERSSON
VM X
tp164
asg31
I2009
sg75
V125
p165
sbag1
(g2
g3
NtRp166
(dp167
g83
V10.1002/1615-9861(200209)2:9<1156::AID-PROT1156>3.0.CO;2-4
p168
sg79
VPROTEOMICS
p169
sg81
V2
sg118
(lp170
(VANDON
VN L
tp171
asg31
I2002
sg75
VROTEOMICS
p172
sbag1
(g2
g3
NtRp173
(dp174
g83
V10.1093/mp/ssq060
p175
sg79
VMOL PLANT
p176
sg81
V4
sg118
(lp177
(VARMBRUSTER
VU
tp178
asg31
I2011
sg75
V1
sbag1
(g2
g3
NtRp179
(dp180
g83
V10.1111/j.1365-313X.2004.02057.x
p181
sg79
VPLANT J
p182
sg81
V38
p183
sg118
(lp184
(VASANO
VT
tp185
asg31
I2004
sg75
VLANT
p186
sbag1
(g2
g3
NtRp187
(dp188
g83
V10.1021/pr0499186
p189
sg79
VJ PROTEOME RES
p190
sg81
V3
sg118
(lp191
(VBAGINSKY
VS
tp192
asg31
I2004
sg75
V1128
p193
sbag1
(g2
g3
NtRp194
(dp195
g83
V10.1093/jxb/erj156
p196
sg79
VJ EXP BOT
p197
sg81
V57
p198
sg118
(lp199
(VBALMER
VY
tp200
asg31
I2006
sg75
V1591
p201
sbag1
(g2
g3
NtRp202
(dp203
g83
V10.1093/bioinformatics/18.2.298
p204
sg79
VBIOINFORMATICS
p205
sg81
V18
p206
sg118
(lp207
(VBANNAI
VH
tp208
asg31
I2002
sg75
V298
p209
sbag1
(g2
g3
NtRp210
(dp211
g83
V10.1104/pp.112.197483
p212
sg79
VPLANT PHYSIOL
p213
sg81
V159
p214
sg118
(lp215
(VBARRY
VC S
tp216
asg31
I2012
sg75
VLANT
p217
sbag1
(g2
g3
NtRp218
(dp219
g83
V10.1093/jxb/erq070
p220
sg79
VJ EXP BOT
p221
sg81
V61
p222
sg118
(lp223
(VBARSAN
VC
tp224
asg31
I2010
sg75
V2413
p225
sbag1
(g2
g3
NtRp226
(dp227
g83
Nsg79
VJ ROY STAT SOC B MET
p228
sg81
V57
p229
sg118
(lp230
(VBENJAMINI
VY
tp231
asg31
I1995
sg75
V289
p232
sbag1
(g2
g3
NtRp233
(dp234
g83
V10.1146/annurev.cellbio.042308.113414
p235
sg79
VANNU REV CELL DEV BI
p236
sg81
V25
p237
sg118
(lp238
(VBENNING
VC
tp239
asg31
I2009
sg75
V71
p240
sbag1
(g2
g3
NtRp241
(dp242
g83
Nsg79
VJ BOT
p243
sg81
Nsg118
(lp244
(VBIAN
VW
tp245
asg31
I2011
sg75
Nsbag1
(g2
g3
NtRp246
(dp247
g83
V10.1021/jf8023062
p248
sg79
VJ AGR FOOD CHEM
p249
sg81
V57
p250
sg118
(lp251
(VBIRTIC
VS
tp252
asg31
I2009
sg75
V591
p253
sbag1
(g2
g3
NtRp254
(dp255
g83
V10.1111/j.1365-3040.1989.tb01914.x
p256
sg79
VPLANT CELL ENVIRON
p257
sg81
V12
p258
sg118
(lp259
(VBLANKE
VM M
tp260
asg31
I1989
sg75
VLANT
p261
sbag1
(g2
g3
NtRp262
(dp263
g83
Nsg79
VMOL CELL PROTEOMICS
p264
sg81
V10
p265
sg118
(lp266
(VBOOTH
VJ G
tp267
asg31
I2011
sg75
Nsbag1
(g2
g3
NtRp268
(dp269
g83
V10.1111/j.1365-313X.2004.02198.x
p270
sg79
VPLANT J
p271
sg81
V40
p272
sg118
(lp273
(VBOTELLA-PAVIA
VP
tp274
asg31
I2004
sg75
VLANT
p275
sbag1
(g2
g3
NtRp276
(dp277
g83
Nsg79
VSTRUCTURE FUNCTION P
p278
sg81
Nsg118
(lp279
(VBOUVIER
VF
tp280
asg31
I2007
sg75
V419
p281
sbag1
(g2
g3
NtRp282
(dp283
g83
V10.1074/mcp.T600069-MCP200
p284
sg79
VMOL CELL PROTEOMICS
p285
sg81
V6
sg118
(lp286
(VBOUYSSIE
VD
tp287
asg31
I2007
sg75
V1621
p288
sbag1
(g2
g3
NtRp289
(dp290
g83
V[10.1093/jxb/erf059, 10.1093/jxb/erf026]
p291
sg79
VJ EXP BOT
p292
sg81
V53
p293
sg118
(lp294
(VBRAMLEY
VP M
tp295
asg31
I2002
sg75
V2107
p296
sbag1
(g2
g3
NtRp297
(dp298
g83
V10.1104/pp.108.121012
p299
sg79
VPLANT PHYSIOL
p300
sg81
V148
p301
sg118
(lp302
(VBRAUTIGAM
VA
tp303
asg31
I2008
sg75
VLANT
p304
sbag1
(g2
g3
NtRp305
(dp306
g83
V10.1104/pp.110.159558
p307
sg79
VPLANT PHYSIOL
p308
sg81
V154
p309
sg118
(lp310
(VCAI
VW H
tp311
asg31
I2010
sg75
VLANT
p312
sbag1
(g2
g3
NtRp313
(dp314
g83
Nsg79
VINT REV CYTOL
p315
sg81
V163
p316
sg118
(lp317
(VCAMARA
VB
tp318
asg31
I1995
sg75
V175
p319
sbag1
(g2
g3
NtRp320
(dp321
g83
V10.1111/j.1365-313X.2004.02308.x
p322
sg79
VPLANT J
p323
sg81
V41
p324
sg118
(lp325
(VCHEN
VG
tp326
asg31
I2005
sg75
VLANT
p327
sbag1
(g2
g3
NtRp328
(dp329
g83
V10.1104/pp.104.041608
p330
sg79
VPLANT PHYSIOL
p331
sg81
V136
p332
sg118
(lp333
(VCHEN
VG P
tp334
asg31
I2004
sg75
VLANT
p335
sbag1
(g2
g3
NtRp336
(dp337
g83
V10.1007/s11120-012-9720-2
p338
sg79
VPHOTOSYNTH RES
p339
sg81
V111
p340
sg118
(lp341
(VCHO
VM H
tp342
asg31
I2012
sg75
VHOTOSYNTH
p343
sbag1
(g2
g3
NtRp344
(dp345
g83
V10.1007/s11306-008-0134-2
p346
sg79
VMETABOLOMICS
p347
sg81
V5
sg118
(lp348
(VDEBORDE
VC
tp349
asg31
I2009
sg75
V183
p350
sbag1
(g2
g3
NtRp351
(dp352
g83
V10.1111/j.1467-9876.2005.00468.x
p353
sg79
VJ ROY STAT SOC C
p354
sg81
V54
p355
sg118
(lp356
(VDELMAR
VP
tp357
asg31
I2005
sg75
V31
p358
sbag1
(g2
g3
NtRp359
(dp360
g83
V10.1093/bioinformatics/bti023
p361
sg79
VBIOINFORMATICS
p362
sg81
V21
p363
sg118
(lp364
(VDELMAR
VP
tp365
asg31
I2005
sg75
V502
p366
sbag1
(g2
g3
NtRp367
(dp368
g83
V10.1021/pr101047y
p369
sg79
VJ PROTEOME RES
p370
sg81
V10
p371
sg118
(lp372
(VDEMARTINI
VD R
tp373
asg31
I2011
sg75
V2226
p374
sbag1
(g2
g3
NtRp375
(dp376
g83
V10.1021/ac051632c
p377
sg79
VANAL CHEM
p378
sg81
V78
p379
sg118
(lp380
(VDIETERLE
VF
tp381
asg31
I2006
sg75
V4281
p382
sbag1
(g2
g3
NtRp383
(dp384
g83
V10.1093/aob/mcr140
p385
sg79
VANN BOT
p386
sg81
V108
p387
sg118
(lp388
(VEGEA
VI
tp389
asg31
I2011
sg75
V291
p390
sbag1
(g2
g3
NtRp391
(dp392
g83
V10.1093/pcp/pcq136
p393
sg79
VPLANT CELL PHYSIOL
p394
sg81
V51
p395
sg118
(lp396
(VEGEA
VI
tp397
asg31
I2010
sg75
VLANT
p398
sbag1
(g2
g3
NtRp399
(dp400
g83
V10.1006/jmbi.2000.3903
p401
sg79
VJ MOL BIOL
p402
sg81
V300
p403
sg118
(lp404
(VEMANUELSSON
VO
tp405
asg31
I2000
sg75
V1005
p406
sbag1
(g2
g3
NtRp407
(dp408
g83
V10.1093/jexbot/48.317.1995
p409
sg79
VJ EXP BOT
p410
sg81
V48
p411
sg118
(lp412
(VEMES
VM J
tp413
asg31
I1997
sg75
V1995
p414
sbag1
(g2
g3
NtRp415
(dp416
g83
V10.1007/s004250050278
p417
sg79
VPLANTA
p418
sg81
V204
p419
sg118
(lp420
(VFAN
VX T
tp421
asg31
I1998
sg75
VLANTA
p422
sbag1
(g2
g3
NtRp423
(dp424
g83
V10.1104/pp.106.092817
p425
sg79
VPLANT PHYSIOL
p426
sg81
V143
p427
sg118
(lp428
(VFAUROBERT
VM
tp429
asg31
I2007
sg75
VLANT
p430
sbag1
(g2
g3
NtRp431
(dp432
g83
V10.1074/mcp.M900325-MCP200
p433
sg79
VMOL CELL PROTEOMICS
p434
sg81
V9
sg118
(lp435
(VFERRO
VM
tp436
asg31
I2010
sg75
V1063
p437
sbag1
(g2
g3
NtRp438
(dp439
g83
V10.1105/tpc.9.3.453
p440
sg79
VPLANT CELL
p441
sg81
V9
sg118
(lp442
(VFISCHER
VK
tp443
asg31
I1997
sg75
VLANT
p444
sbag1
(g2
g3
NtRp445
(dp446
g83
V10.2307/2440813
p447
sg79
VAM J BOT
p448
sg81
V56
p449
sg118
(lp450
(VHARRIS
VW M
tp451
asg31
I1969
sg75
V380
p452
sbag1
(g2
g3
NtRp453
(dp454
g83
V10.1105/tpc.016055
p455
sg79
VPLANT CELL
p456
sg81
V16
p457
sg118
(lp458
(VHEAZLEWOOD
VJ L
tp459
asg31
I2004
sg75
VLANT
p460
sbag1
(g2
g3
NtRp461
(dp462
g83
V10.1093/nar/gkl863
p463
sg79
VNUCLEIC ACIDS RES
p464
sg81
V35
p465
sg118
(lp466
(VHEAZLEWOOD
VJ L
tp467
asg31
I2007
sg75
VD213
p468
sbag1
(g2
g3
NtRp469
(dp470
g83
V10.1093/jexbot/49.324.1173
p471
sg79
VJ EXP BOT
p472
sg81
V49
p473
sg118
(lp474
(VHETHERINGTON
VS E
tp475
asg31
I1998
sg75
V1173
p476
sbag1
(g2
g3
NtRp477
(dp478
g83
V10.1105/tpc.105.037259
p479
sg79
VPLANT CELL
p480
sg81
V18
p481
sg118
(lp482
(VHUANG
VJ
tp483
asg31
I2006
sg75
VLANT
p484
sbag1
(g2
g3
NtRp485
(dp486
g83
V10.1002/jssc.200900152
p487
sg79
VJ SEP SCI
p488
sg81
V32
p489
sg118
(lp490
(VISSAQ
VH J
tp491
asg31
I2009
sg75
V2183
p492
sbag1
(g2
g3
NtRp493
(dp494
g83
V10.1007/s004250050244
p495
sg79
VPLANTA
p496
sg81
V204
p497
sg118
(lp498
(VJEBANATHIRAJAH
VJ A
tp499
asg31
I1998
sg75
VLANTA
p500
sbag1
(g2
g3
NtRp501
(dp502
g83
V10.1093/nar/gkg693
p503
sg79
VNUCLEIC ACIDS RES
p504
sg81
V31
p505
sg118
(lp506
(VJEONG
VS Y
tp507
asg31
I2003
sg75
V5175
p508
sbag1
(g2
g3
NtRp509
(dp510
g83
V10.1007/s004250100667
p511
sg79
VPLANTA
p512
sg81
V214
p513
sg118
(lp514
(VJIMENEZ
VA
tp515
asg31
I2002
sg75
VLANTA
p516
sbag1
(g2
g3
NtRp517
(dp518
g83
V10.1105/tpc.107.055202
p519
sg79
VPLANT CELL
p520
sg81
V20
p521
sg118
(lp522
(VKAHLAU
VS
tp523
asg31
I2008
sg75
VLANT
p524
sbag1
(g2
g3
NtRp525
(dp526
g83
V10.1186/1477-5956-9-73
p527
sg79
VPROTEOME SCI
p528
sg81
V9
sg118
(lp529
(VKATO
VB S
tp530
asg31
I2011
sg75
VROTEOME
p531
sbag1
(g2
g3
NtRp532
(dp533
g83
V10.1093/pcp/pcr189
p534
sg79
VPLANT CELL PHYSIOL
p535
sg81
V53
p536
sg118
(lp537
(VKATO
VY
tp538
asg31
I2012
sg75
VLANT
p539
sbag1
(g2
g3
NtRp540
(dp541
g83
V10.1093/pcp/pcj005
p542
sg79
VPLANT CELL PHYSIOL
p543
sg81
V47
p544
sg118
(lp545
(VKLEFFMANN
VT
tp546
asg31
I2006
sg75
VLANT
p547
sbag1
(g2
g3
NtRp548
(dp549
g83
V10.1104/pp.112.196642
p550
sg79
VPLANT PHYSIOL
p551
sg81
V159
p552
sg118
(lp553
(VKRECH
VK
tp554
asg31
I2012
sg75
VLANT
p555
sbag1
(g2
g3
NtRp556
(dp557
g83
V10.1111/j.1365-313X.2006.02940.x
p558
sg79
VPLANT J
p559
sg81
V49
p560
sg118
(lp561
(VLEE
VU
tp562
asg31
I2007
sg75
VLANT
p563
sbag1
(g2
g3
NtRp564
(dp565
g83
V10.1007/s11248-007-9111-1
p566
sg79
VTRANSGENIC RES
p567
sg81
V16
p568
sg118
(lp569
(VLI
VL
tp570
asg31
I2007
sg75
V581
p571
sbag1
(g2
g3
NtRp572
(dp573
g83
V10.1073/pnas.92.9.3789
p574
sg79
VP NATL ACAD SCI USA
p575
sg81
V92
p576
sg118
(lp577
(VLI
VX X
tp578
asg31
I1995
sg75
V3789
p579
sbag1
(g2
g3
NtRp580
(dp581
g83
V10.1093/jxb/erq033
p582
sg79
VJ EXP BOT
p583
sg81
V61
p584
sg118
(lp585
(VLIU
VD
tp586
asg31
I2010
sg75
V1655
p587
sbag1
(g2
g3
NtRp588
(dp589
g83
V10.1021/ac0498563
p590
sg79
VANAL CHEM
p591
sg81
V76
p592
sg118
(lp593
(VLIU
VH B
tp594
asg31
I2004
sg75
V4193
p595
sbag1
(g2
g3
NtRp596
(dp597
g83
V10.1111/j.1744-7909.2010.00980.x
p598
sg79
VJ INTEGR PLANT BIOL
p599
sg81
V52
p600
sg118
(lp601
(VLIU
VX Y
tp602
asg31
I2010
sg75
V750
p603
sbag1
(g2
g3
NtRp604
(dp605
g83
Nsg79
VInternational Journal of Developmental Biology
p606
sg81
V35
p607
sg118
(lp608
(VLJUBESIC
VN
tp609
asg31
I1991
sg75
V251
p610
sbag1
(g2
g3
NtRp611
(dp612
g83
V10.1093/jxb/erl196
p613
sg79
VJ EXP BOT
p614
sg81
V58
p615
sg118
(lp616
(VLOPEZ-JUEZ
VE
tp617
asg31
I2007
sg75
V11
p618
sbag1
(g2
g3
NtRp619
(dp620
g83
V10.1104/pp.111.193144
p621
sg79
VPLANT PHYSIOL
p622
sg81
V158
p623
sg118
(lp624
(VLUNDQUIST
VP K
tp625
asg31
I2012
sg75
VLANT
p626
sbag1
(g2
g3
NtRp627
(dp628
g83
V10.1104/pp.111.186874
p629
sg79
VPLANT PHYSIOL
p630
sg81
V157
p631
sg118
(lp632
(VLYTOVCHENKO
VA
tp633
asg31
I2011
sg75
VLANT
p634
sbag1
(g2
g3
NtRp635
(dp636
g83
V10.1242/jcs.010215
p637
sg79
VJ CELL SCI
p638
sg81
V120
p639
sg118
(lp640
(VMAPLE
VJ
tp641
asg31
I2007
sg75
V3446
p642
sbag1
(g2
g3
NtRp643
(dp644
g83
V10.1046/j.1365-313X.2002.01358.x
p645
sg79
VPLANT J
p646
sg81
V31
p647
sg118
(lp648
(VMAPLE
VJ
tp649
asg31
I2002
sg75
VLANT
p650
sbag1
(g2
g3
NtRp651
(dp652
g83
V10.1016/0168-9452(93)90002-H
p653
sg79
VPLANT SCI
p654
sg81
V94
p655
sg118
(lp656
(VMARANO
VM R
tp657
asg31
I1993
sg75
VLANT
p658
sbag1
(g2
g3
NtRp659
(dp660
g83
V10.1042/BJ20071354
p661
sg79
VBIOCHEM J
p662
sg81
V412
p663
sg118
(lp664
(VMCANDREW
VR S
tp665
asg31
I2008
sg75
V367
p666
sbag1
(g2
g3
NtRp667
(dp668
g83
V10.1016/j.pbi.2006.09.002
p669
sg79
VCURR OPIN PLANT BIOL
p670
sg81
V9
sg118
(lp671
(VMILLAR
VA H
tp672
asg31
I2006
sg75
V610
p673
sbag1
(g2
g3
NtRp674
(dp675
g83
V10.1111/j.1469-8137.2010.03626.x
p676
sg79
VNEW PHYTOL
p677
sg81
V190
p678
sg118
(lp679
(VMOING
VA
tp680
asg31
I2011
sg75
V683
p681
sbag1
(g2
g3
NtRp682
(dp683
g83
V10.1105/tpc.105.031914
p684
sg79
VPLANT CELL
p685
sg81
V17
p686
sg118
(lp687
(VNETA-SHARIR
VI
tp688
asg31
I2005
sg75
VLANT
p689
sbag1
(g2
g3
NtRp690
(dp691
g83
V10.1105/tpc.104.029124
p692
sg79
VPLANT CELL
p693
sg81
V17
p694
sg118
(lp695
(VNIEWIADOMSKI
VP
tp696
asg31
I2005
sg75
VLANT
p697
sbag1
(g2
g3
NtRp698
(dp699
g83
V10.1093/pcp/pcp117
p700
sg79
VPLANT CELL PHYSIOL
p701
sg81
V50
p702
sg118
(lp703
(VONISHI
VT
tp704
asg31
I2009
sg75
VLANT
p705
sbag1
(g2
g3
NtRp706
(dp707
g83
V10.1104/pp.111.175463
p708
sg79
VPLANT PHYSIOL
p709
sg81
V157
p710
sg118
(lp711
(VOSORIO
VS
tp712
asg31
I2011
sg75
VLANT
p713
sbag1
(g2
g3
NtRp714
(dp715
g83
V10.1016/j.jprot.2011.04.010
p716
sg79
VJ PROTEOMICS
p717
sg81
V74
p718
sg118
(lp719
(VPALMA
VJ M
tp720
asg31
I2011
sg75
V1230
p721
sbag1
(g2
g3
NtRp722
(dp723
g83
V10.1073/pnas.0606379103
p724
sg79
VP NATL ACAD SCI USA
p725
sg81
V103
p726
sg118
(lp727
(VPAOLETTI
VA C
tp728
asg31
I2006
sg75
V18928
p729
sbag1
(g2
g3
NtRp730
(dp731
g83
Nsg79
VANN PLANT REV
p732
sg81
Nsg118
(lp733
(VPECH
VJ C
tp734
asg31
I2012
sg75
V275
p735
sbag1
(g2
g3
NtRp736
(dp737
g83
V10.1105/tpc.105.037689
p738
sg79
VPLANT CELL
p739
sg81
V18
p740
sg118
(lp741
(VPENG
VL W
tp742
asg31
I2006
sg75
VLANT
p743
sbag1
(g2
g3
NtRp744
(dp745
g83
V10.1093/nar/gkl775
p746
sg79
VNUCLEIC ACIDS RES
p747
sg81
V35
p748
sg118
(lp749
(VPIERLEONI
VA
tp750
asg31
I2007
sg75
VD208
p751
sbag1
(g2
g3
NtRp752
(dp753
g83
Nsg79
VCAB Reviews
p754
sg81
Veterinary
p755
sg118
(lp756
(VPIRRELLO
VJ
tp757
asg31
I2009
sg75
V1
sbag1
(g2
g3
NtRp758
(dp759
g83
V10.1016/S0014-5793(02)03634-7
p760
sg79
VFEBS LETT
p761
sg81
V532
p762
sg118
(lp763
(VPLUCKEN
VH
tp764
asg31
I2002
sg75
V85
p765
sbag1
(g2
g3
NtRp766
(dp767
g83
V10.1104/pp.107.100172
p768
sg79
VPLANT PHYSIOL
p769
sg81
V144
p770
sg118
(lp771
(VREN
VG D
tp772
asg31
I2007
sg75
VLANT
p773
sbag1
(g2
g3
NtRp774
(dp775
g83
V10.1016/j.gene.2004.01.008
p776
sg79
VGENE
p777
sg81
V329
p778
sg118
(lp779
(VRICHLY
VE
tp780
asg31
I2004
sg75
V11
p781
sbag1
(g2
g3
NtRp782
(dp783
g83
V10.1002/pmic.200600128
p784
sg79
VPROTEOMICS
p785
sg81
V6
sg118
(lp786
(VROCCO
VM
tp787
asg31
I2006
sg75
VROTEOMICS
p788
sbag1
(g2
g3
NtRp789
(dp790
g83
V10.1104/pp.108.124545
p791
sg79
VPLANT PHYSIOL
p792
sg81
V148
p793
sg118
(lp794
(VRUTSCHOW
VH
tp795
asg31
I2008
sg75
VLANT
p796
sbag1
(g2
g3
NtRp797
(dp798
g83
V10.1038/nbt1192
p799
sg79
VNAT BIOTECHNOL
p800
sg81
V24
p801
sg118
(lp802
(VSCHAUER
VN
tp803
asg31
I2006
sg75
V447
p804
sbag1
(g2
g3
NtRp805
(dp806
g83
V10.1046/j.1365-313X.1999.00511.x
p807
sg79
VPLANT J
p808
sg81
V19
p809
sg118
(lp810
(VSEIGNEURIN-BERNY
VD
tp811
asg31
I1999
sg75
VLANT
p812
sbag1
(g2
g3
NtRp813
(dp814
g83
V10.1104/pp.109.151977
p815
sg79
VPLANT PHYSIOL
p816
sg81
V152
p817
sg118
(lp818
(VSHIPMAN-ROSTON
VR L
tp819
asg31
I2010
sg75
VLANT
p820
sbag1
(g2
g3
NtRp821
(dp822
g83
V10.1093/pcp/pcl033
p823
sg79
VPLANT CELL PHYSIOL
p824
sg81
V47
p825
sg118
(lp826
(VSIDDIQUE
VM A
tp827
asg31
I2006
sg75
VLANT
p828
sbag1
(g2
g3
NtRp829
(dp830
g83
V10.1016/j.phytochem.2007.03.014
p831
sg79
VPHYTOCHEMISTRY
p832
sg81
V68
p833
sg118
(lp834
(VSIMKIN
VA J
tp835
asg31
I2007
sg75
VHYTOCHEMISTRY
p836
sbag1
(g2
g3
NtRp837
(dp838
g83
V10.1002/pmic.200300776
p839
sg79
VPROTEOMICS
p840
sg81
V4
sg118
(lp841
(VSMALL
VI
tp842
asg31
I2004
sg75
VROTEOMICS
p843
sbag1
(g2
g3
NtRp844
(dp845
g83
V10.1016/0003-2697(85)90442-7
p846
sg79
VANAL BIOCHEM
p847
sg81
V150
p848
sg118
(lp849
(VSMITH
VP K
tp850
asg31
I1985
sg75
V76
p851
sbag1
(g2
g3
NtRp852
(dp853
g83
V10.2307/2440743
p854
sg79
VAM J BOT
p855
sg81
V55
p856
sg118
(lp857
(VSPURR
VA R
tp858
asg31
I1968
sg75
V1210
p859
sbag1
(g2
g3
NtRp860
(dp861
g83
V10.1104/pp.107.114496
p862
sg79
VPLANT PHYSIOL
p863
sg81
V146
p864
sg118
(lp865
(VSU
VP H
tp866
asg31
I2008
sg75
VLANT
p867
sbag1
(g2
g3
NtRp868
(dp869
g83
V10.1093/nar/gkn654
p870
sg79
VNUCLEIC ACIDS RES
p871
sg81
V37
p872
sg118
(lp873
(VSUN
VQ
tp874
asg31
I2009
sg75
VD969
p875
sbag1
(g2
g3
NtRp876
(dp877
g83
V10.1111/j.1365-3040.2011.02336.x
p878
sg79
VPLANT CELL ENVIRON
p879
sg81
V35
p880
sg118
(lp881
(VSUZUKI
VN
tp882
asg31
I2012
sg75
VLANT
p883
sbag1
(g2
g3
NtRp884
(dp885
g83
Nsg79
VNUCLEIC ACIDS RES
p886
sg81
V38
p887
sg118
(lp888
(VTHE
VUNIPROT CONSORTIUM
tp889
asg31
I2010
sg75
VD142
p890
sbag1
(g2
g3
NtRp891
(dp892
g83
V10.1105/tpc.107.053991
p893
sg79
VPLANT CELL
p894
sg81
V19
p895
sg118
(lp896
(VTHELEN
VJ J
tp897
asg31
I2007
sg75
VLANT
p898
sbag1
(g2
g3
NtRp899
(dp900
g83
V10.1111/j.1365-313X.2004.02016.x
p901
sg79
VPLANT J
p902
sg81
V37
p903
sg118
(lp904
(VTHIMM
VO
tp905
asg31
I2004
sg75
VLANT
p906
sbag1
(g2
g3
NtRp907
(dp908
g83
V10.1146/annurev.pp.31.060180.002111
p909
sg79
VANNU REV PLANT PHYS
p910
sg81
V31
p911
sg118
(lp912
(VTHOMSON
VW W
tp913
asg31
I1980
sg75
V375
p914
sbag1
(g2
g3
NtRp915
(dp916
g83
V10.1016/j.plaphy.2011.01.007
p917
sg79
VPLANT PHYSIOL BIOCH
p918
sg81
V49
p919
sg118
(lp920
(VTIWARI
VK
tp921
asg31
I2011
sg75
VLANT
p922
sbag1
(g2
g3
NtRp923
(dp924
g83
V10.1007/s11306-007-0102-2
p925
sg79
VMETABOLOMICS
p926
sg81
V4
sg118
(lp927
(VTORGRIP
VR J O
tp928
asg31
I2008
sg75
V114
p929
sbag1
(g2
g3
NtRp930
(dp931
g83
V10.1104/pp.111.172932
p932
sg79
VPLANT PHYSIOL
p933
sg81
V155
p934
sg118
(lp935
(VVAN
VWIJK K J
tp936
asg31
I2011
sg75
VLANT
p937
sbag1
(g2
g3
NtRp938
(dp939
g83
V10.1105/tpc.013292
p940
sg79
VPLANT CELL
p941
sg81
V15
p942
sg118
(lp943
(VVITHA
VS
tp944
asg31
I2003
sg75
VLANT
p945
sbag1
(g2
g3
NtRp946
(dp947
g83
V10.1074/mcp.M500018-MCP200
p948
sg79
VMOL CELL PROTEOMICS
p949
sg81
V4
sg118
(lp950
(VVON
VZYCHLINSKI A
tp951
asg31
I2005
sg75
V1072
p952
sbag1
(g2
g3
NtRp953
(dp954
g83
Nsg79
VPLASTIDS
p955
sg81
Nsg118
(lp956
(VWATERS
VM T
tp957
asg31
I2004
sg75
VLASTIDS
p958
sbag1
(g2
g3
NtRp959
(dp960
g83
V10.1091/mbc.E08-10-1073
p961
sg79
VMOL BIOL CELL
p962
sg81
V20
p963
sg118
(lp964
(VYAKIR-TAMANG
VL
tp965
asg31
I2009
sg75
V3583
p966
sbag1
(g2
g3
NtRp967
(dp968
g83
V10.1093/jxb/err140
p969
sg79
VJ EXP BOT
p970
sg81
V62
p971
sg118
(lp972
(VZENG
VY L
tp973
asg31
I2011
sg75
V5297
p974
sbag1
(g2
g3
NtRp975
(dp976
g83
V10.1093/jxb/erp026
p977
sg79
VJ EXP BOT
p978
sg81
V60
p979
sg118
(lp980
(VZHANG
VM
tp981
asg31
I2009
sg75
V1579
p982
sbag1
(g2
g3
NtRp983
(dp984
g83
Nsg79
VJ BIOMED BIOTECH
p985
sg81
Nsg118
(lp986
(VZHU
VW
tp987
asg31
I2009
sg75
Nsbag1
(g2
g3
NtRp988
(dp989
g83
V10.1371/journal.pone.0001994
p990
sg79
VPLOS ONE
p991
sg81
V3
sg118
(lp992
(VZYBAILOV
VB
tp993
asg31
I2008
sg75
VLOS
p994
sbasb.