ccopy_reg
_reconstructor
p1
(ctethne.classes.paper
Paper
p2
c__builtin__
object
p3
NtRp4
(dp5
S'publisherCity'
p6
VROCKVILLE
p7
sS'reprintAddress'
p8
VBressan, RA (reprint author), Purdue Univ, Ctr Plant Environm Stress Physiol, 1165 Hort Bldg, W Lafayette, IN 47907 USA.
p9
sS'WC'
p10
VPlant Sciences
p11
sS'GA'
p12
V717FQ
p13
sS'pageEnd'
p14
I1590
sS'publisherAddress'
p15
V15501 MONONA DRIVE, ROCKVILLE, MD 20855 USA
p16
sS'documentType'
p17
VReview
p18
sS'subject'
p19
VPlant Sciences
p20
sS'isoSource'
p21
VPlant Physiol.
p22
sS'timesCited'
p23
(lp24
I58
aVZ9 69
p25
asS'PT'
p26
VJ
sS'title'
p27
VIn Defense Against Pathogens. Both Plant Sentinels And Foot Soldiers Need To Know The Enemy
p28
sS'ISSN'
p29
(lp30
V0032-0889
p31
aVJ9 PLANT PHYSIOL
p32
asS'authors_full'
p33
(lp34
(VVERONESE
VP
tp35
a(VRUIZ
VMT
tp36
a(VCOCA
VMA
tp37
a(VHERNANDEZLOPEZ
VA
tp38
a(VLEE
VH
tp39
a(VIBEAS
VJI
tp40
a(VDAMSZ
VB
tp41
a(VPARDO
VJM
tp42
a(VHASEGAWA
VPM
tp43
a(VBRESSAN
VRA
tp44
a(VNARASIMHAN
VML
tp45
asS'PG'
p46
I11
sS'PD'
p47
VAPR
p48
sS'pageStart'
p49
I1580
sS'issue'
p50
I4
sS'RI'
p51
VPardo, Jose M/B-4652-2009
p52
sS'journal'
p53
VPLANT PHYSIOLOGY
p54
sS'volume'
p55
V131
p56
sS'doi'
p57
V10.1104/pp.102.013417
p58
sS'authorAddress'
p59
VPurdue Univ, Ctr Plant Environm Stress Physiol, W Lafayette, IN 47907 USA.
p60
sS'date'
p61
I2003
sS'ER'
p62
V
sS'publisher'
p63
VAMER SOC PLANT BIOLOGISTS
p64
sS'authorKeywords'
p65
(lp66
VLIPID TRANSFER PROTEINS
p67
aVTHAUMATIN-LIKE PROTEINS
p68
aVRIBOSOME-INACTIVATING PROTEINS
p69
aVSYSTEMIC ACQUIRED-RESISTANCE
p70
aVBACTERIAL SPECK DISEASE
p71
aVWALL-DEGRADING ENZYMES
p72
aVDAHLIA DAHLIA-MERCKII
p73
aVINSECT ALPHA-AMYLASES
p74
aVOSMOTIN-LIKE PROTEIN
p75
aVTOLL-LIKE RECEPTORS
p76
asS'OI'
p77
VPardo, Jose M/0000-0003-4510-8624
p78
sS'language'
p79
VEnglish
p80
sS'wosid'
p81
VWOS:000185076400008
p82
sS'citationCount'
p83
I139
sS'authors_init'
p84
(lp85
(VVERONESE
VP
tp86
a(VRUIZ
VM T
tp87
a(VCOCA
VM A
tp88
a(VHERNANDEZLOPEZ
VA
tp89
a(VLEE
VH
tp90
a(VIBEAS
VJ I
tp91
a(VDAMSZ
VB
tp92
a(VPARDO
VJ M
tp93
a(VHASEGAWA
VP M
tp94
a(VBRESSAN
VR A
tp95
a(VNARASIMHAN
VM L
tp96
asS'citedReferences'
p97
(lp98
g1
(g2
g3
NtRp99
(dp100
g57
V10.1073/pnas.90.15.7327
p101
sg53
VP NATL ACAD SCI USA
p102
sg55
V90
p103
sg84
(lp104
(VALEXANDER
VD
tp105
asg61
I1993
sg49
V7327
p106
sbag1
(g2
g3
NtRp107
(dp108
g57
V10.1038/35099560
p109
sg53
VNATURE
p110
sg55
V413
p111
sg84
(lp112
(VALEXOPOULOU
VL
tp113
asg61
I2001
sg49
V732
p114
sbag1
(g2
g3
NtRp115
(dp116
g57
V10.1002/(SICI)1097-0282(1998)47:6<415::AID-BIP2>3.0.CO;2-D
p117
sg53
VBIOPOLYMERS
p118
sg55
V47
p119
sg84
(lp120
(VANDREU
VD
tp121
asg61
I1998
sg49
V415
p122
sbag1
(g2
g3
NtRp123
(dp124
g57
V10.1034/j.1399-3054.1990.800223.x
p125
sg53
VPHYSIOL PLANTARUM
p126
sg55
V80
p127
sg84
(lp128
(VAPEL
VK
tp129
asg61
I1990
sg49
VHYSIOL
p130
sbag1
(g2
g3
NtRp131
(dp132
g57
V10.1016/S0168-9452(00)00232-6
p133
sg53
VPLANT SCI
p134
sg55
V157
p135
sg84
(lp136
(VARONDEL
VV
tp137
asg61
I2000
sg49
VLANT
p138
sbag1
(g2
g3
NtRp139
(dp140
g57
V10.1016/S1074-5521(00)00136-8
p141
sg53
VCHEM BIOL
p142
sg55
V7
sg84
(lp143
(VASENSIO
VJ L
tp144
asg61
I2000
sg49
V529
p145
sbag1
(g2
g3
NtRp146
(dp147
g57
V10.1073/pnas.90.19.8792
p148
sg53
VP NATL ACAD SCI USA
p149
sg55
V90
p150
sg84
(lp151
(VBEFFA
VR S
tp152
asg61
I1993
sg49
V8792
p153
sbag1
(g2
g3
NtRp154
(dp155
g57
V10.1073/pnas.97.10.5322
p156
sg53
VP NATL ACAD SCI USA
p157
sg55
V97
p158
sg84
(lp159
(VBISHOP
VJ G
tp160
asg61
I2000
sg49
V5322
p161
sbag1
(g2
g3
NtRp162
(dp163
g57
V10.1016/0014-5793(91)80261-Z
p164
sg53
VFEBS LETT
p165
sg55
V279
p166
sg84
(lp167
(VBLOCH
VC
tp168
asg61
I1991
sg49
V101
p169
sbag1
(g2
g3
NtRp170
(dp171
g57
V10.1016/0885-5765(88)90039-2
p172
sg53
VPHYSIOL MOL PLANT P
p173
sg55
V33
p174
sg84
(lp175
(VBOLLER
VT
tp176
asg61
I1988
sg49
VHYSIOL
p177
sbag1
(g2
g3
NtRp178
(dp179
g57
V10.1074/jbc.274.49.34699
p180
sg53
VJ BIOL CHEM
p181
sg55
V274
p182
sg84
(lp183
(VBOURQUE
VS
tp184
asg61
I1999
sg49
V34699
p185
sbag1
(g2
g3
NtRp186
(dp187
g57
V10.1021/bi00132a023
p188
sg53
VBIOCHEMISTRY
p189
sg55
V31
p190
sg84
(lp191
(VBROEKAERT
VW F
tp192
asg61
I1992
sg49
V4308
p193
sbag1
(g2
g3
NtRp194
(dp195
g57
V10.1104/pp.108.4.1353
p196
sg53
VPLANT PHYSIOL
p197
sg55
V108
p198
sg84
(lp199
(VBROEKAERT
VW F
tp200
asg61
I1995
sg49
VLANT
p201
sbag1
(g2
g3
NtRp202
(dp203
g57
V10.1016/S0014-5793(01)03116-7
p204
sg53
VFEBS LETT
p205
sg55
V509
p206
sg84
(lp207
(VBUHOT
VN
tp208
asg61
I2001
sg49
V27
p209
sbag1
(g2
g3
NtRp210
(dp211
g57
V10.1046/j.1365-313X.1993.t01-24-00999.x
p212
sg53
VPLANT J
p213
sg55
V3
sg84
(lp214
(VCARMONA
VM J
tp215
asg61
I1993
sg49
VLANT
p216
sbag1
(g2
g3
NtRp217
(dp218
g57
V10.1046/j.1365-313x.2000.00718.x
p219
sg53
VPLANT J
p220
sg55
V22
p221
sg84
(lp222
(VCOCA
VM A
tp223
asg61
I2000
sg49
VLANT
p224
sbag1
(g2
g3
NtRp225
(dp226
g57
V10.1046/j.1365-313X.1993.t01-1-00999.x
p227
sg53
VPLANT J
p228
sg55
V3
sg84
(lp229
(VCOLLINGE
VD B
tp230
asg61
I1993
sg49
VLANT
p231
sbag1
(g2
g3
NtRp232
(dp233
g57
V10.1038/35081161
p234
sg53
VNATURE
p235
sg55
V411
p236
sg84
(lp237
(VDANGL
VJ L
tp238
asg61
I2001
sg49
V826
p239
sbag1
(g2
g3
NtRp240
(dp241
g57
V10.1023/A:1000102509556
p242
sg53
VANTON LEEUW INT J G
p243
sg55
V71
p244
sg84
(lp245
(VDEWIT
VPJGM
tp246
asg61
I1997
sg49
V137
p247
sbag1
(g2
g3
NtRp248
(dp249
g57
V10.1073/pnas.92.10.4095
p250
sg53
VP NATL ACAD SCI USA
p251
sg55
V92
p252
sg84
(lp253
(VDOARES
VS H
tp254
asg61
I1995
sg49
V4095
p255
sbag1
(g2
g3
NtRp256
(dp257
g57
Nsg53
VPLANT CELL
p258
sg55
V10
p259
sg84
(lp260
(VDOUGHTY
VJ
tp261
asg61
I1998
sg49
VLANT
p262
sbag1
(g2
g3
NtRp263
(dp264
g57
V10.1016/S0168-9452(98)00121-6
p265
sg53
VPLANT SCI
p266
sg55
V138
p267
sg84
(lp268
(VDUBREIL
VL
tp269
asg61
I1998
sg49
VLANT
p270
sbag1
(g2
g3
NtRp271
(dp272
g57
V10.1002/(SICI)1521-1878(199807)20:7<569::AID-BIES8>3.0.CO;2-F
p273
sg53
VBIOESSAYS
p274
sg55
V20
p275
sg84
(lp276
(VEBEL
VJ
tp277
asg61
I1998
sg49
V569
p278
sbag1
(g2
g3
NtRp279
(dp280
g57
V10.1016/1369-5266(88)80048-7
p281
sg53
VCURR OPIN PLANT BIOL
p282
sg55
V1
sg84
(lp283
(VELLIS
VJ
tp284
asg61
I1998
sg49
V288
p285
sbag1
(g2
g3
NtRp286
(dp287
g57
V10.1016/S1369-5266(00)00080-7
p288
sg53
VCURR OPIN PLANT BIOL
p289
sg55
V3
sg84
(lp290
(VELLIS
VJ
tp291
asg61
I2000
sg49
V278
p292
sbag1
(g2
g3
NtRp293
(dp294
g57
V10.1016/S0014-5793(96)01378-6
p295
sg53
VFEBS LETT
p296
sg55
V400
p297
sg84
(lp298
(VEPPLE
VP
tp299
asg61
I1997
sg49
V168
p300
sbag1
(g2
g3
NtRp301
(dp302
g57
V10.1046/j.1365-313X.1999.00265.x
p303
sg53
VPLANT J
p304
sg55
V18
p305
sg84
(lp306
(VFELIX
VG
tp307
asg61
I1999
sg49
VLANT
p308
sbag1
(g2
g3
NtRp309
(dp310
g57
V10.1016/S0065-2660(08)60498-8
p311
sg53
VADV GENET
p312
sg55
V8
sg84
(lp313
(VFLOR
VH H
tp314
asg61
I1956
sg49
V29
p315
sbag1
(g2
g3
NtRp316
(dp317
g57
V10.1007/BF00039517
p318
sg53
VPLANT MOL BIOL
p319
sg55
V26
p320
sg84
(lp321
(VFLORACK
VD E A
tp322
asg61
I1994
sg49
VLANT
p323
sbag1
(g2
g3
NtRp324
(dp325
g57
V10.1104/pp.127.4.1367
p326
sg53
VPLANT PHYSIOL
p327
sg55
V127
p328
sg84
(lp329
(VFLUHR
VR
tp330
asg61
I2001
sg49
VLANT
p331
sbag1
(g2
g3
NtRp332
(dp333
g57
V10.1046/j.0014-2956.2001.02656.x
p334
sg53
VEUR J BIOCHEM
p335
sg55
V269
p336
sg84
(lp337
(VFRANCO
VO L
tp338
asg61
I2002
sg49
V397
p339
sbag1
(g2
g3
NtRp340
(dp341
g57
V10.1038/82436
p342
sg53
VNAT BIOTECHNOL
p343
sg55
V18
p344
sg84
(lp345
(VGAO
VA G
tp346
asg61
I2000
sg49
V1307
p347
sbag1
(g2
g3
NtRp348
(dp349
g57
V10.1093/glycob/8.10.1021
p350
sg53
VGLYCOBIOLOGY
p351
sg55
V8
sg84
(lp352
(VGARCIA-CASADO
VG
tp353
asg61
I1998
sg49
V1021
p354
sbag1
(g2
g3
NtRp355
(dp356
g57
V10.1016/S0966-842X(00)88879-4
p357
sg53
VTrends in Microbiology
p358
sg55
V3
sg84
(lp359
(VGARCIA-OLMEDO
VFRANCISCO
tp360
asg61
I1995
sg49
V72
p361
sbag1
(g2
g3
NtRp362
(dp363
g57
V10.1002/(SICI)1097-0282(1998)47:6<479::AID-BIP6>3.0.CO;2-K
p364
sg53
VBIOPOLYMERS
p365
sg55
V47
p366
sg84
(lp367
(VGARCIA-OLMEDO
VF
tp368
asg61
I1998
sg49
V479
p369
sbag1
(g2
g3
NtRp370
(dp371
g57
V10.1016/S1471-4906(01)02011-7
p372
sg53
VTrends Immunol
p373
sg55
V22
p374
sg84
(lp375
(VGARRED
VP
tp376
asg61
I2001
sg49
V419
p377
sbag1
(g2
g3
NtRp378
(dp379
g57
V10.1016/S1369-5266(00)00177-1
p380
sg53
VCURR OPIN PLANT BIOL
p381
sg55
V4
sg84
(lp382
(VGLAZEBROOK
VJ
tp383
asg61
I2001
sg49
V301
p384
sbag1
(g2
g3
NtRp385
(dp386
g57
V10.1016/S0092-8674(00)81895-4
p387
sg53
VCELL
p388
sg55
V88
p389
sg84
(lp390
(VGOLDMAN
VM J
tp391
asg61
I1997
sg49
V553
p392
sbag1
(g2
g3
NtRp393
(dp394
g57
V10.1046/j.1365-313x.2000.00804.x
p395
sg53
VPLANT J
p396
sg55
V23
p397
sg84
(lp398
(VGRANT
VM
tp399
asg61
I2000
sg49
VLANT
p400
sbag1
(g2
g3
NtRp401
(dp402
g57
V10.1046/j.1365-313X.1999.00551.x
p403
sg53
VPLANT J
p404
sg55
V19
p405
sg84
(lp406
(VGRENIER
VJ
tp407
asg61
I1999
sg49
VLANT
p408
sbag1
(g2
g3
NtRp409
(dp410
g57
V10.1038/nbt0596-643
p411
sg53
VNAT BIOTECHNOL
p412
sg55
V14
p413
sg84
(lp414
(VGRISON
VR
tp415
asg61
I1996
sg49
V643
p416
sbag1
(g2
g3
NtRp417
(dp418
g57
V10.1046/j.1365-313X.1997.11020169.x
p419
sg53
VPLANT J
p420
sg55
V11
p421
sg84
(lp422
(VHAM
VK S
tp423
asg61
I1997
sg49
VLANT
p424
sbag1
(g2
g3
NtRp425
(dp426
g57
V10.1105/tpc.8.10.1773
p427
sg53
VPLANT CELL
p428
sg55
V8
sg84
(lp429
(VHAMMONDKOSACK
VK E
tp430
asg61
I1996
sg49
VLANT
p431
sbag1
(g2
g3
NtRp432
(dp433
g57
V10.1073/pnas.97.16.8856
p434
sg53
VP NATL ACAD SCI USA
p435
sg55
V97
p436
sg84
(lp437
(VHANCOCK
VR E W
tp438
asg61
I2000
sg49
V8856
p439
sbag1
(g2
g3
NtRp440
(dp441
g57
V10.1016/S1369-5266(00)00087-X
p442
sg53
VCURR OPIN PLANT BIOL
p443
sg55
V3
sg84
(lp444
(VHEATH
VM C
tp445
asg61
I2000
sg49
V315
p446
sbag1
(g2
g3
NtRp447
(dp448
g57
V10.1016/0014-5793(92)80720-2
p449
sg53
VFEBS LETT
p450
sg55
V307
p451
sg84
(lp452
(VHEJGAARD
VJ
tp453
asg61
I1992
sg49
V389
p454
sbag1
(g2
g3
NtRp455
(dp456
g57
V10.1126/science.284.5418.1313
p457
sg53
VSCIENCE
p458
sg55
V284
p459
sg84
(lp460
(VHOFFMANN
VJ A
tp461
asg61
I1999
sg49
V1313
p462
sbag1
(g2
g3
NtRp463
(dp464
g57
V10.1046/j.1365-313X.1995.7030367.x
p465
sg53
VPLANT J
p466
sg55
V7
sg84
(lp467
(VHOJ
VP B
tp468
asg61
I1995
sg49
VLANT
p469
sbag1
(g2
g3
NtRp470
(dp471
g57
V10.1104/pp.109.3.879
p472
sg53
VPLANT PHYSIOL
p473
sg55
V109
p474
sg84
(lp475
(VHON
VW C
tp476
asg61
I1995
sg49
VLANT
p477
sbag1
(g2
g3
NtRp478
(dp479
g57
V10.1046/j.1365-313x.2001.00967.x
p480
sg53
VPLANT J
p481
sg55
V25
p482
sg84
(lp483
(VIBEAS
VJ I
tp484
asg61
I2001
sg49
VLANT
p485
sbag1
(g2
g3
NtRp486
(dp487
g57
V10.1046/j.1365-313x.2000.00792.x
p488
sg53
VPLANT J
p489
sg55
V23
p490
sg84
(lp491
(VIBEAS
VJ I
tp492
asg61
I2000
sg49
VLANT
p493
sbag1
(g2
g3
NtRp494
(dp495
g57
V10.1046/j.1365-313X.1995.08010097.x
p496
sg53
VPLANT J
p497
sg55
V8
sg84
(lp498
(VJACH
VG
tp499
asg61
I1995
sg49
VLANT
p500
sbag1
(g2
g3
NtRp501
(dp502
g57
V10.1093/emboj/19.15.4004
p503
sg53
VEMBO J
p504
sg55
V19
p505
sg84
(lp506
(VJIA
VY
tp507
asg61
I2000
sg49
V4004
p508
sbag1
(g2
g3
NtRp509
(dp510
g57
Nsg53
VEUPHYTICA
p511
sg55
V85
p512
sg84
(lp513
(VJONGEDIJK
VE
tp514
asg61
I1995
sg49
V173
p515
sbag1
(g2
g3
NtRp516
(dp517
g57
V10.1105/tpc.12.5.677
p518
sg53
VPLANT CELL
p519
sg55
V12
p520
sg84
(lp521
(VKACHROO
VP
tp522
asg61
I2000
sg49
VLANT
p523
sbag1
(g2
g3
NtRp524
(dp525
g57
V10.1016/S1369-5266(00)00176-X
p526
sg53
VCURR OPIN PLANT BIOL
p527
sg55
V4
sg84
(lp528
(VKAMOUN
VS
tp529
asg61
I2001
sg49
V295
p530
sbag1
(g2
g3
NtRp531
(dp532
g57
V10.1016/S0168-9525(00)02095-3
p533
sg53
VTRENDS GENET
p534
sg55
V16
p535
sg84
(lp536
(VKHUSH
VR S
tp537
asg61
I2000
sg49
V442
p538
sbag1
(g2
g3
NtRp539
(dp540
g57
V10.1078/1438-4221-00128
p541
sg53
VINT J MED MICROBIOL
p542
sg55
V291
p543
sg84
(lp544
(VKIRSCHNING
VC J
tp545
asg61
I2001
sg49
V251
p546
sbag1
(g2
g3
NtRp547
(dp548
g57
Nsg53
VJ BIOCHEM
p549
sg55
V125
p550
sg84
(lp551
(VKITAJIMA
VS
tp552
asg61
I1999
sg49
V1
sbag1
(g2
g3
NtRp553
(dp554
g57
V10.1126/science.290.5495.1311
p555
sg53
VSCIENCE
p556
sg55
V290
p557
sg84
(lp558
(VKLEIN
VB S
tp559
asg61
I2000
sg49
V1311
p560
sbag1
(g2
g3
NtRp561
(dp562
g57
V10.1016/S0014-5793(99)01261-2
p563
sg53
VFEBS LETT
p564
sg55
V459
p565
sg84
(lp566
(VKLUSENER
VB
tp567
asg61
I1999
sg49
V263
p568
sbag1
(g2
g3
NtRp569
(dp570
g57
Nsg53
VNAT REV MOL CELL BIO
p571
sg55
V2
sg84
(lp572
(VKNODLER
VL A
tp573
asg61
I2001
sg49
V478
p574
sbag1
(g2
g3
NtRp575
(dp576
g57
V10.1016/S0167-4838(97)00148-9
p577
sg53
VBBA
p578
sg55
V1382
p579
sg84
(lp580
(VKOO
VJ C
tp581
asg61
I1998
sg49
V80
p582
sbag1
(g2
g3
NtRp583
(dp584
g57
V10.1073/pnas.90.8.3715
p585
sg53
VP NATL ACAD SCI USA
p586
sg55
V90
p587
sg84
(lp588
(VLANCET
VD
tp589
asg61
I1993
sg49
V3715
p590
sbag1
(g2
g3
NtRp591
(dp592
g57
Nsg53
VJ BIOL CHEM
p593
sg55
V266
p594
sg84
(lp595
(VLEAH
VR
tp596
asg61
I1991
sg49
V1564
p597
sbag1
(g2
g3
NtRp598
(dp599
g57
V10.1046/j.1365-313x.2000.00744.x
p600
sg53
VPLANT J
p601
sg55
V22
p602
sg84
(lp603
(VLEISTER
VR T
tp604
asg61
I2000
sg49
VLANT
p605
sbag1
(g2
g3
NtRp606
(dp607
g57
V10.1080/07352689109382309
p608
sg53
VCRIT REV PLANT SCI
p609
sg55
V10
p610
sg84
(lp611
(VLINTHORST
VH J M
tp612
asg61
I1991
sg49
V123
p613
sbag1
(g2
g3
NtRp614
(dp615
g57
V10.1073/pnas.91.5.1888
p616
sg53
VP NATL ACAD SCI USA
p617
sg55
V91
p618
sg84
(lp619
(VLIU
VD
tp620
asg61
I1994
sg49
V1888
p621
sbag1
(g2
g3
NtRp622
(dp623
g57
V10.1038/nbt0392-305
p624
sg53
VBIO
p625
sg55
V10
p626
sg84
(lp627
(VLOGEMANN
VJ
tp628
asg61
I1992
sg49
V305
p629
sbag1
(g2
g3
NtRp630
(dp631
g57
Nsg53
VPLANT CELL
p632
sg55
V10
p633
sg84
(lp634
(VLOPEZ-SOLANILLA
VE
tp635
asg61
I1998
sg49
VLANT
p636
sbag1
(g2
g3
NtRp637
(dp638
g57
V10.1094/MPMI-9-0206
p639
sg53
VMOL PLANT MICROBE IN
p640
sg55
V9
sg84
(lp641
(VLORITO
VM
tp642
asg61
I1996
sg49
V206
p643
sbag1
(g2
g3
NtRp644
(dp645
g57
V10.1038/82521
p646
sg53
VNAT GENET
p647
sg55
V26
p648
sg84
(lp649
(VMALECK
VK
tp650
asg61
I2000
sg49
V403
p651
sbag1
(g2
g3
NtRp652
(dp653
g57
V10.1126/science.7902614
p654
sg53
VSCIENCE
p655
sg55
V262
p656
sg84
(lp657
(VMARTIN
VG B
tp658
asg61
I1993
sg49
V1432
p659
sbag1
(g2
g3
NtRp660
(dp661
g57
V10.1016/S0968-0004(99)01532-7
p662
sg53
VTRENDS BIOCHEM SCI
p663
sg55
V25
p664
sg84
(lp665
(VMCDOWELL
VJ M
tp666
asg61
I2000
sg49
V79
p667
sbag1
(g2
g3
NtRp668
(dp669
g57
V10.1126/science.1068883
p670
sg53
VSCIENCE
p671
sg55
V296
p672
sg84
(lp673
(VMEDZHITOV
VR
tp674
asg61
I2002
sg49
V298
p675
sbag1
(g2
g3
NtRp676
(dp677
g57
V10.1038/35047207
p678
sg53
VNATURE
p679
sg55
V408
p680
sg84
(lp681
(VMODLIN
VR L
tp682
asg61
I2000
sg49
V659
p683
sbag1
(g2
g3
NtRp684
(dp685
g57
V10.1046/j.1365-313X.1997.00669.x
p686
sg53
VPLANT J
p687
sg55
V12
p688
sg84
(lp689
(VMOLINA
VA
tp690
asg61
I1997
sg49
VLANT
p691
sbag1
(g2
g3
NtRp692
(dp693
g57
V10.1016/0014-5793(93)81198-9
p694
sg53
VFEBS LETT
p695
sg55
V316
p696
sg84
(lp697
(VMOLINA
VA
tp698
asg61
I1993
sg49
V119
p699
sbag1
(g2
g3
NtRp700
(dp701
g57
V10.1073/pnas.86.20.7885
p702
sg53
VP NATL ACAD SCI USA
p703
sg55
V86
p704
sg84
(lp705
(VMORENO
VJ
tp706
asg61
I1989
sg49
V7885
p707
sbag1
(g2
g3
NtRp708
(dp709
g57
Nsg53
VMICROBIOL MOL BIOL R
p710
sg55
V63
p711
sg84
(lp712
(VMORRISSEY
VJ P
tp713
asg61
I1999
sg49
V708
p714
sbag1
(g2
g3
NtRp715
(dp716
g57
V10.1093/protein/13.6.385
p717
sg53
VPROTEIN ENG
p718
sg55
V13
p719
sg84
(lp720
(VMURAKI
VM
tp721
asg61
I2000
sg49
VROTEIN
p722
sbag1
(g2
g3
NtRp723
(dp724
g57
V10.1016/S1097-2765(01)00365-3
p725
sg53
VMOL CELL
p726
sg55
V8
sg84
(lp727
(VNARASIMHAN
VM L
tp728
asg61
I2001
sg49
V921
p729
sbag1
(g2
g3
NtRp730
(dp731
g57
V10.1073/pnas.97.16.8841
p732
sg53
VP NATL ACAD SCI USA
p733
sg55
V97
p734
sg84
(lp735
(VNATHAN
VC
tp736
asg61
I2000
sg49
V8841
p737
sbag1
(g2
g3
NtRp738
(dp739
g57
V10.1007/BF00027076
p740
sg53
VPLANT MOL BIOL
p741
sg55
V19
p742
sg84
(lp743
(VNEUHAUS
VJ M
tp744
asg61
I1992
sg49
VLANT
p745
sbag1
(g2
g3
NtRp746
(dp747
g57
V10.1016/S1369-5266(00)00175-8
p748
sg53
VCURR OPIN PLANT BIOL
p749
sg55
V4
sg84
(lp750
(VNIMCHUK
VZ
tp751
asg61
I2001
sg49
V288
p752
sbag1
(g2
g3
NtRp753
(dp754
g57
V10.1094/MPMI.2000.13.4.430
p755
sg53
VMOL PLANT MICROBE IN
p756
sg55
V13
p757
sg84
(lp758
(VNORMAN-SETTERBLAD
VC
tp759
asg61
I2000
sg49
V430
p760
sbag1
(g2
g3
NtRp761
(dp762
g57
V10.1271/bbb.64.958
p763
sg53
VBIOSCI BIOTECH BIOCH
p764
sg55
V64
p765
sg84
(lp766
(VOITA
VS
tp767
asg61
I2000
sg49
V958
p768
sbag1
(g2
g3
NtRp769
(dp770
g57
Nsg53
VPLANT CELL
p771
sg55
V8
sg84
(lp772
(VOSBOURN
VA E
tp773
asg61
I1996
sg49
VLANT
p774
sbag1
(g2
g3
NtRp775
(dp776
g57
V10.1271/bbb.63.1138
p777
sg53
VBIOSCI BIOTECH BIOCH
p778
sg55
V63
p779
sg84
(lp780
(VPAN
VC H
tp781
asg61
I1999
sg49
V1138
p782
sbag1
(g2
g3
NtRp783
(dp784
g57
V10.1073/pnas.96.22.12923
p785
sg53
VP NATL ACAD SCI USA
p786
sg55
V96
p787
sg84
(lp788
(VPAPADOPOULOU
VK
tp789
asg61
I1999
sg49
V12923
p790
sbag1
(g2
g3
NtRp791
(dp792
g57
V10.1105/tpc.8.12.2309
p793
sg53
VPLANT CELL
p794
sg55
V8
sg84
(lp795
(VPENNINCKX
VIAMA
tp796
asg61
I1996
sg49
VLANT
p797
sbag1
(g2
g3
NtRp798
(dp799
g57
V10.1105/tpc.10.12.2103
p800
sg53
VPLANT CELL
p801
sg55
V10
p802
sg84
(lp803
(VPENNINCKX
VIAMA
tp804
asg61
I1998
sg49
VLANT
p805
sbag1
(g2
g3
NtRp806
(dp807
g57
V10.1096/fj.00-0751rev
p808
sg53
VFASEB J
p809
sg55
V15
p810
sg84
(lp811
(VPEUMANS
VW J
tp812
asg61
I2001
sg49
V1493
p813
sbag1
(g2
g3
NtRp814
(dp815
g57
V10.1094/MPMI-6-680
p816
sg53
VMOL PLANT MICROBE IN
p817
sg55
V6
sg84
(lp818
(VPOTTER
VS
tp819
asg61
I1993
sg49
V680
p820
sbag1
(g2
g3
NtRp821
(dp822
g57
V10.1016/S0981-9428(00)01235-3
p823
sg53
VPLANT PHYSIOL BIOCH
p824
sg55
V39
p825
sg84
(lp826
(VREYMOND
VP
tp827
asg61
I2001
sg49
VLANT
p828
sbag1
(g2
g3
NtRp829
(dp830
g57
V10.1016/S1369-5274(99)00052-1
p831
sg53
VCURR OPIN MICROBIOL
p832
sg55
V3
sg84
(lp833
(VRHEN
VM
tp834
asg61
I2000
sg49
V60
p835
sbag1
(g2
g3
NtRp836
(dp837
g57
V10.1105/tpc.8.2.251
p838
sg53
VPLANT CELL
p839
sg55
V8
sg84
(lp840
(VRITTER
VC
tp841
asg61
I1996
sg49
VLANT
p842
sbag1
(g2
g3
NtRp843
(dp844
g57
V10.1016/0304-4165(86)90076-0
p845
sg53
VBIOCHIM BIOPHYS ACTA
p846
sg55
V880
p847
sg84
(lp848
(VROBERTS
VW K
tp849
asg61
I1986
sg49
V161
p850
sbag1
(g2
g3
NtRp851
(dp852
g57
Nsg53
VPLANT CELL
p853
sg55
V9
sg84
(lp854
(VROGERS
VE E
tp855
asg61
I1997
sg49
VLANT
p856
sbag1
(g2
g3
NtRp857
(dp858
g57
V10.1105/tpc.8.10.1809
p859
sg53
VPLANT CELL
p860
sg55
V8
sg84
(lp861
(VRYALS
VJ A
tp862
asg61
I1996
sg49
VLANT
p863
sbag1
(g2
g3
NtRp864
(dp865
g57
V10.1007/BF00029598
p866
sg53
VPLANT MOL BIOL
p867
sg55
V25
p868
sg84
(lp869
(VSAMAC
VD A
tp870
asg61
I1994
sg49
VLANT
p871
sbag1
(g2
g3
NtRp872
(dp873
g57
V10.1073/pnas.97.21.11655
p874
sg53
VP NATL ACAD SCI USA
p875
sg55
V97
p876
sg84
(lp877
(VSCHENK
VP M
tp878
asg61
I2000
sg49
V11655
p879
sbag1
(g2
g3
NtRp880
(dp881
g57
V10.1038/ni712
p882
sg53
VNAT IMMUNOL
p883
sg55
V2
sg84
(lp884
(VSCHNARE
VM
tp885
asg61
I2001
sg49
V947
p886
sbag1
(g2
g3
NtRp887
(dp888
g57
V10.1126/science.274.5295.2063
p889
sg53
VSCIENCE
p890
sg55
V274
p891
sg84
(lp892
(VSCOFIELD
VS R
tp893
asg61
I1996
sg49
V2063
p894
sbag1
(g2
g3
NtRp895
(dp896
g57
V10.1094/MPMI.1999.12.1.16
p897
sg53
VMOL PLANT MICROBE IN
p898
sg55
V12
p899
sg84
(lp900
(VSEGURA
VA
tp901
asg61
I1999
sg49
V16
p902
sbag1
(g2
g3
NtRp903
(dp904
g57
V10.1385/IR:21:2-3:305
p905
sg53
VIMMUNOL RES
p906
sg55
V21
p907
sg84
(lp908
(VSHERMAN
VL A
tp909
asg61
I2000
sg49
V305
p910
sbag1
(g2
g3
NtRp911
(dp912
g57
V10.1073/pnas.181141598
p913
sg53
VP NATL ACAD SCI USA
p914
sg55
V98
p915
sg84
(lp916
(VSHIU
VS H
tp917
asg61
I2001
sg49
V10763
p918
sbag1
(g2
g3
NtRp919
(dp920
g57
V10.1080/07352680490484569
p921
sg53
VCRIT REV PLANT SCI
p922
sg55
V13
p923
sg84
(lp924
(VSIMMONS
VC R
tp925
asg61
I1994
sg49
V325
p926
sbag1
(g2
g3
NtRp927
(dp928
g57
V10.1006/jmbi.1997.1621
p929
sg53
VJ MOL BIOL
p930
sg55
V277
p931
sg84
(lp932
(VSMITH
VG P
tp933
asg61
I1998
sg49
V317
p934
sbag1
(g2
g3
NtRp935
(dp936
g57
V10.1016/S0092-8674(00)81099-5
p937
sg53
VCELL
p938
sg55
V85
p939
sg84
(lp940
(VSMITH
VJ J
tp941
asg61
I1996
sg49
V229
p942
sbag1
(g2
g3
NtRp943
(dp944
g57
V10.1016/S1369-5266(00)00083-2
p945
sg53
VCURR OPIN PLANT BIOL
p946
sg55
V3
sg84
(lp947
(VSTAHL
VE A
tp948
asg61
I2000
sg49
V299
p949
sbag1
(g2
g3
NtRp950
(dp951
g57
V10.1073/pnas.81.19.6024
p952
sg53
VP NATL ACAD SCI
p953
sg55
V81
p954
sg84
(lp955
(VSTASKAWICZ
VB J
tp956
asg61
I1984
sg49
V6024
p957
sbag1
(g2
g3
NtRp958
(dp959
g57
V10.1126/science.1062013
p960
sg53
VSCIENCE
p961
sg55
V292
p962
sg84
(lp963
(VSTASKAWICZ
VB J
tp964
asg61
I2001
sg49
V2285
p965
sbag1
(g2
g3
NtRp966
(dp967
g57
Nsg53
VBIOCHEM J
p968
sg55
V262
p969
sg84
(lp970
(VSTIRPE
VF
tp971
asg61
I1989
sg49
V1001
p972
sbag1
(g2
g3
NtRp973
(dp974
g57
V10.1038/35081200
p975
sg53
VNATURE
p976
sg55
V411
p977
sg84
(lp978
(VSTUIVER
VM H
tp979
asg61
I2001
sg49
V865
p980
sbag1
(g2
g3
NtRp981
(dp982
g57
V10.1128/JVI.75.5.2411-2420.2001
p983
sg53
VJ VIROL
p984
sg55
V75
p985
sg84
(lp986
(VSZITTYA
VG
tp987
asg61
I2001
sg49
V2411
p988
sbag1
(g2
g3
NtRp989
(dp990
g57
Nsg53
VPLANT CELL PHYSIOL
p991
sg55
V38
p992
sg84
(lp993
(VTAKEMOTO
VD
tp994
asg61
I1997
sg49
VLANT
p995
sbag1
(g2
g3
NtRp996
(dp997
g57
V10.1126/science.274.5295.2060
p998
sg53
VSCIENCE
p999
sg55
V274
p1000
sg84
(lp1001
(VTANG
VX Y
tp1002
asg61
I1996
sg49
V2060
p1003
sbag1
(g2
g3
NtRp1004
(dp1005
g57
Nsg53
VPLANT PHYSIOL
p1006
sg55
V103
p1007
sg84
(lp1008
(VTERRAS
VF R G
tp1009
asg61
I1993
sg49
VLANT
p1010
sbag1
(g2
g3
NtRp1011
(dp1012
g57
V10.1073/pnas.160077797
p1013
sg53
VP NATL ACAD SCI USA
p1014
sg55
V97
p1015
sg84
(lp1016
(VTHEVISSEN
VK
tp1017
asg61
I2000
sg49
V9531
p1018
sbag1
(g2
g3
NtRp1019
(dp1020
g57
V10.1074/jbc.272.51.32176
p1021
sg53
VJ BIOL CHEM
p1022
sg55
V272
p1023
sg84
(lp1024
(VTHEVISSEN
VK
tp1025
asg61
I1997
sg49
V32176
p1026
sbag1
(g2
g3
NtRp1027
(dp1028
g57
Nsg53
VAPPL ENVIRON MICROB
p1029
sg55
V65
p1030
sg84
(lp1031
(VTHEVISSEN
VK
tp1032
asg61
I1999
sg49
V5451
p1033
sbag1
(g2
g3
NtRp1034
(dp1035
g57
Nsg53
VJ BIOL CHEM
p1036
sg55
V271
p1037
sg84
(lp1038
(VTHEVISSEN
VK
tp1039
asg61
I1996
sg49
V15018
p1040
sbag1
(g2
g3
NtRp1041
(dp1042
g57
V10.1094/MPMI.2000.13.1.54
p1043
sg53
VMOL PLANT MICROBE IN
p1044
sg55
V13
p1045
sg84
(lp1046
(VTHEVISSEN
VK
tp1047
asg61
I2000
sg49
V54
p1048
sbag1
(g2
g3
NtRp1049
(dp1050
g57
V10.1046/j.1365-313X.1999.00513.x
p1051
sg53
VPLANT J
p1052
sg55
V19
p1053
sg84
(lp1054
(VTHOMMA
VBPHJ
tp1055
asg61
I1999
sg49
VLANT
p1056
sbag1
(g2
g3
NtRp1057
(dp1058
g57
V10.1073/pnas.95.25.15107
p1059
sg53
VP NATL ACAD SCI USA
p1060
sg55
V95
p1061
sg84
(lp1062
(VTHOMMA
VBPHJ
tp1063
asg61
I1998
sg49
V15107
p1064
sbag1
(g2
g3
NtRp1065
(dp1066
g57
Nsg53
VJ BACTERIOL
p1067
sg55
V179
p1068
sg84
(lp1069
(VTITARENKO
VE
tp1070
asg61
I1997
sg49
V6699
p1071
sbag1
(g2
g3
NtRp1072
(dp1073
g57
V10.1104/pp.118.4.1431
p1074
sg53
VPLANT PHYSIOL
p1075
sg55
V118
p1076
sg84
(lp1077
(VTRUDEL
VJ
tp1078
asg61
I1998
sg49
VLANT
p1079
sbag1
(g2
g3
NtRp1080
(dp1081
g57
V10.1016/S0968-0004(98)01311-5
p1082
sg53
VTRENDS BIOCHEM SCI
p1083
sg55
V23
p1084
sg84
(lp1085
(VVAN
VD E R BIEZEN E A
tp1086
asg61
I1998
sg49
V454
p1087
sbag1
(g2
g3
NtRp1088
(dp1089
g57
V10.1104/pp.123.4.1507
p1090
sg53
VPLANT PHYSIOL
p1091
sg55
V123
p1092
sg84
(lp1093
(VVAN
VD E R LUIT A H
tp1094
asg61
I2000
sg49
VLANT
p1095
sbag1
(g2
g3
NtRp1096
(dp1097
g57
V10.1073/pnas.93.6.2598
p1098
sg53
VP NATL ACAD SCI USA
p1099
sg55
V93
p1100
sg84
(lp1101
(VWANG
VX Q
tp1102
asg61
I1996
sg49
V2598
p1103
sbag1
(g2
g3
NtRp1104
(dp1105
g57
V10.1016/S1369-5266(00)00082-0
p1106
sg53
VCURR OPIN PLANT BIOL
p1107
sg55
V3
sg84
(lp1108
(VWHITE
VF F
tp1109
asg61
I2000
sg49
V291
p1110
sbag1
(g2
g3
NtRp1111
(dp1112
g57
Nsg53
VBIOSCI BIOTECH BIOCH
p1113
sg55
V61
p1114
sg84
(lp1115
(VYOSHINARI
VS
tp1116
asg61
I1997
sg49
V324
p1117
sbag1
(g2
g3
NtRp1118
(dp1119
g57
V10.1016/S1097-2765(00)80080-5
p1120
sg53
VMOL CELL
p1121
sg55
V1
sg84
(lp1122
(VYUN
VD J
tp1123
asg61
I1998
sg49
V807
p1124
sbag1
(g2
g3
NtRp1125
(dp1126
g57
V10.1073/pnas.94.13.7082
p1127
sg53
VP NATL ACAD SCI USA
p1128
sg55
V94
p1129
sg84
(lp1130
(VYUN
VD J
tp1131
asg61
I1997
sg49
V7082
p1132
sbag1
(g2
g3
NtRp1133
(dp1134
g57
V10.1038/415389a
p1135
sg53
VNATURE
p1136
sg55
V415
p1137
sg84
(lp1138
(VZASLOFF
VM
tp1139
asg61
I2002
sg49
V389
p1140
sbag1
(g2
g3
NtRp1141
(dp1142
g57
V10.1093/emboj/16.11.3207
p1143
sg53
VEMBO J
p1144
sg55
V16
p1145
sg84
(lp1146
(VZHOU
VJ M
tp1147
asg61
I1997
sg49
V3207
p1148
sbag1
(g2
g3
NtRp1149
(dp1150
g57
Nsg53
VPLANTA
p1151
sg55
V198
p1152
sg84
(lp1153
(VZHU
VB L
tp1154
asg61
I1996
sg49
VLANTA
p1155
sbag1
(g2
g3
NtRp1156
(dp1157
g57
V10.1038/nbt0894-807
p1158
sg53
VBIO
p1159
sg55
V12
p1160
sg84
(lp1161
(VZHU
VQ
tp1162
asg61
I1994
sg49
V807
p1163
sbasb.