ccopy_reg
_reconstructor
p1
(ctethne.classes.paper
Paper
p2
c__builtin__
object
p3
NtRp4
(dp5
S'publisherCity'
p6
VROCKVILLE
p7
sS'reprintAddress'
p8
VFowler, DB (reprint author), Univ Saskatchewan, Ctr Crop Dev, Saskatoon, SK S7N 5A8, Canada.
p9
sS'WC'
p10
VPlant Sciences
p11
sS'GA'
p12
V503WK
p13
sS'abstract'
p14
VVernalization and photoperiod (PP) responses are developmental mechanisms that allow plants to synchronize their growth and reproductive cycles with the seasonal weather changes. Vernalization requirement has been shown to influence the length of time that low-temperature (LT)-induced genes are up-regulated when cereal species are exposed to acclimating temperatures. The objective of the present study was to determine whether expression of LT-induced Wcs and Wcor gene families is also developmentally regulated by PP response. The LT-tolerant, highly short-day (SD)-sensitive barley (Hordeum vulgare L. cv Dicktoo) was subjected to 8-h SD and 20-h long-day PPs at cold-acclimating temperatures over a period of 70 d. A delay in transition from the vegetative to the reproductive stage under SD resulted in an increased level and longer retention of LT tolerance. Similar WCS and WCOR protein homologs were expressed, but levels of expression were much higher in plants acclimated under SD, indicating that the poor LT tolerance of long-day plants was the result of an inability to maintain LT-induced genes in an up-regulated state. These observations indicate that the PP and vernalization genes influence the expression of LT-induced genes in cereals through separate pathways that eventually converge to activate genes controlling plant development. In both instances, the delay in the transition from the vegetative to the reproductive stage produces increased LT tolerance that is sustained for a longer period of time, indicating that the developmental genes determine the duration of expression of LT-induced structural genes.
p15
sS'pageEnd'
p16
I1681
sS'publisherAddress'
p17
V15501 MONONA DRIVE, ROCKVILLE, MD 20855 USA
p18
sS'documentType'
p19
VArticle
p20
sS'subject'
p21
VPlant Sciences
p22
sS'isoSource'
p23
VPlant Physiol.
p24
sS'timesCited'
p25
(lp26
I70
aVZ9 74
p27
asS'PT'
p28
VJ
sS'title'
p29
VPhotoperiod And Temperature Interactions Regulate Low-Temperature-Induced Gene Expression In Barley
p30
sS'ISSN'
p31
(lp32
V0032-0889
p33
aVJ9 PLANT PHYSIOL
p34
asS'authors_full'
p35
(lp36
(VFOWLER
VDB
tp37
a(VBRETON
VG
tp38
a(VLIMIN
VAE
tp39
a(VMAHFOOZI
VS
tp40
a(VSARHAN
VF
tp41
asS'PG'
p42
I6
sS'PD'
p43
VDEC
p44
sS'pageStart'
p45
I1676
sS'issue'
p46
I4
sS'RI'
p47
VBreton, Ghislain/A-8975-2008
p48
sS'journal'
p49
VPLANT PHYSIOLOGY
p50
sS'volume'
p51
V127
p52
sS'doi'
p53
V10.1104/pp.010483
p54
sS'authorAddress'
p55
(lp56
VUniv Saskatchewan, Ctr Crop Dev, Saskatoon, SK S7N 5A8, Canada.
p57
aVUniv Quebec, Dept Sci Biol, Montreal, PQ H3C 3P8, Canada.
p58
asS'date'
p59
I2001
sS'ER'
p60
V
sS'publisher'
p61
VAMER SOC PLANT BIOLOGISTS
p62
sS'authorKeywords'
p63
(lp64
VFREEZING-TOLERANCE
p65
aVCOLD-HARDINESS
p66
aVPLANT DEVELOPMENT
p67
aVFLOWERING TIME
p68
aVWINTER-WHEAT
p69
aVVERNALIZATION
p70
aVMODEL
p71
aVACCLIMATION
p72
aVPROTEINS
p73
aVLIGHT
p74
asS'language'
p75
VEnglish
p76
sS'wosid'
p77
VWOS:000172824500049
p78
sS'citationCount'
p79
I30
sS'authors_init'
p80
(lp81
(VFOWLER
VD B
tp82
a(VBRETON
VG
tp83
a(VLIMIN
VA E
tp84
a(VMAHFOOZI
VS
tp85
a(VSARHAN
VF
tp86
asS'citedReferences'
p87
(lp88
g1
(g2
g3
NtRp89
(dp90
g53
Nsg49
VCROP SCI
p91
sg51
V28
p92
sg80
(lp93
(VBRULEBABEL
VA L
tp94
asg59
I1988
sg45
V879
p95
sbag1
(g2
g3
NtRp96
(dp97
g53
V10.1007/BF00029002
p98
sg49
VPLANT MOL BIOL
p99
sg51
V23
p100
sg80
(lp101
(VCHAUVIN
VL P
tp102
asg59
I1993
sg45
VLANT
p103
sbag1
(g2
g3
NtRp104
(dp105
g53
V10.1104/pp.119.2.671
p106
sg49
VPLANT PHYSIOL
p107
sg51
V119
p108
sg80
(lp109
(VCROSATTI
VC
tp110
asg59
I1999
sg45
VLANT
p111
sbag1
(g2
g3
NtRp112
(dp113
g53
V10.1105/tpc.10.4.623
p114
sg49
VPLANT CELL
p115
sg51
V10
p116
sg80
(lp117
(VDANYLUK
VJ
tp118
asg59
I1998
sg45
VLANT
p119
sbag1
(g2
g3
NtRp120
(dp121
g53
V10.1007/BF00417947
p122
sg49
VTHEOR APPL GENET
p123
sg51
V93
p124
sg80
(lp125
(VFOWLER
VD B
tp126
asg59
I1996
sg45
V554
p127
sbag1
(g2
g3
NtRp128
(dp129
g53
Nsg49
VCAN J PLANT SCI
p130
sg51
V76
p131
sg80
(lp132
(VFOWLER
VD B
tp133
asg59
I1996
sg45
V37
p134
sbag1
(g2
g3
NtRp135
(dp136
g53
Nsg49
VCROP SCI
p137
sg51
V39
p138
sg80
(lp139
(VFOWLER
VD B
tp140
asg59
I1999
sg45
V626
p141
sbag1
(g2
g3
NtRp142
(dp143
g53
Nsg49
VPLANT PHYSIOL
p144
sg51
V114
p145
sg80
(lp146
(VGRAY
VG R
tp147
asg59
I1997
sg45
VLANT
p148
sbag1
(g2
g3
NtRp149
(dp150
g53
Nsg49
VMOL GEN GENET
p151
sg51
V234
p152
sg80
(lp153
(VHOUDE
VM
tp154
asg59
I1992
sg45
V43
p155
sbag1
(g2
g3
NtRp156
(dp157
g53
V10.1046/j.1365-313X.1995.8040583.x
p158
sg49
VPLANT J
p159
sg51
V8
sg80
(lp160
(VHOUDE
VM
tp161
asg59
I1995
sg45
VLANT
p162
sbag1
(g2
g3
NtRp163
(dp164
g53
V10.1104/pp.81.3.802
p165
sg49
VPLANT PHYSIOL
p166
sg51
V81
p167
sg80
(lp168
(VHURKMAN
VW J
tp169
asg59
I1986
sg45
VLANT
p170
sbag1
(g2
g3
NtRp171
(dp172
g53
Nsg49
VCEREAL DEV GUIDE
p173
sg51
Nsg80
(lp174
(VKIRBY
VE J M
tp175
asg59
I1987
sg45
Nsbag1
(g2
g3
NtRp176
(dp177
g53
V10.1038/227680a0
p178
sg49
VNATURE
p179
sg51
V227
p180
sg80
(lp181
(VLAEMMLI
VU K
tp182
asg59
I1970
sg45
V680
p183
sbag1
(g2
g3
NtRp184
(dp185
g53
V10.1023/A:1005726329248
p186
sg49
VPLANT MOL BIOL
p187
sg51
V35
p188
sg80
(lp189
(VLAURIE
VD A
tp190
asg59
I1997
sg45
VLANT
p191
sbag1
(g2
g3
NtRp192
(dp193
g53
V10.1046/j.1469-8137.1997.00814.x
p194
sg49
VNEW PHYTOL
p195
sg51
V137
p196
sg80
(lp197
(VLAW
VC N
tp198
asg59
I1997
sg45
V19
p199
sbag1
(g2
g3
NtRp200
(dp201
g53
Nsg49
VCROP SCI
p202
sg51
V25
p203
sg80
(lp204
(VLIMIN
VA E
tp205
asg59
I1985
sg45
V838
p206
sbag1
(g2
g3
NtRp207
(dp208
g53
Nsg49
VMOL GEN GENET
p209
sg51
V253
p210
sg80
(lp211
(VLIMIN
VA E
tp212
asg59
I1997
sg45
V720
p213
sbag1
(g2
g3
NtRp214
(dp215
g53
Nsg49
VGENOME
p216
sg51
V30
p217
sg80
(lp218
(VLIMIN
VA E
tp219
asg59
I1988
sg45
V361
p220
sbag1
(g2
g3
NtRp221
(dp222
g53
V10.2307/3870648
p223
sg49
VPLANT CELL
p224
sg51
V10
p225
sg80
(lp226
(VLIU
VQ
tp227
asg59
I1998
sg45
VLANT
p228
sbag1
(g2
g3
NtRp229
(dp230
g53
V10.1006/anbo.2001.1403
p231
sg49
VANN BOT
p232
sg51
V87
p233
sg80
(lp234
(VMAHFOOZI
VS
tp235
asg59
I2001
sg45
V751
p236
sbag1
(g2
g3
NtRp237
(dp238
g53
Nsg49
VCAN J PLANT SCI
p239
sg51
V80
p240
sg80
(lp241
(VMAHFOOZI
VS
tp242
asg59
I2000
sg45
V721
p243
sbag1
(g2
g3
NtRp244
(dp245
g53
V10.1016/S0065-2113(08)60053-X
p246
sg49
VADV AGRON
p247
sg51
V59
p248
sg80
(lp249
(VMCMASTER
VG S
tp250
asg59
I1997
sg45
V63
p251
sbag1
(g2
g3
NtRp252
(dp253
g53
Nsg49
VAUSTR J AGR RES
p254
sg51
V29
p255
sg80
(lp256
(VRAHMAN
VM S
tp257
asg59
I1978
sg45
V495
p258
sbag1
(g2
g3
NtRp259
(dp260
g53
V10.1016/S1369-5266(99)00041-2
p261
sg49
VCURR OPIN PLANT BIOL
p262
sg51
V3
sg80
(lp263
(VREEVES
VP H
tp264
asg59
I2000
sg45
V37
p265
sbag1
(g2
g3
NtRp266
(dp267
g53
V10.1034/j.1399-3054.1997.1010226.x
p268
sg49
VPHYSIOL PLANTARUM
p269
sg51
V101
p270
sg80
(lp271
(VSARHAN
VF
tp272
asg59
I1997
sg45
VHYSIOL
p273
sbag1
(g2
g3
NtRp274
(dp275
g53
V10.1016/S1360-1385(98)01285-0
p276
sg49
VTRENDS PLANT SCI
p277
sg51
V3
sg80
(lp278
(VSARHAN
VF
tp279
asg59
I1998
sg45
V289
p280
sbag1
(g2
g3
NtRp281
(dp282
g53
V10.1073/pnas.94.3.1035
p283
sg49
VP NATL ACAD SCI USA
p284
sg51
V94
p285
sg80
(lp286
(VSTOCKINGER
VE J
tp287
asg59
I1997
sg45
V1035
p288
sbag1
(g2
g3
NtRp289
(dp290
g53
V10.1007/s004380051160
p291
sg49
VMOL GEN GENET
p292
sg51
V263
p293
sg80
(lp294
(VVAGUJFALVI
VA
tp295
asg59
I2000
sg45
V194
p296
sbag1
(g2
g3
NtRp297
(dp298
g53
V10.1016/0378-4290(95)00006-C
p299
sg49
VFIELD CROP RES
p300
sg51
V41
p301
sg80
(lp302
(VWANG
VS Y
tp303
asg59
I1995
sg45
V91
p304
sbag1
(g2
g3
NtRp305
(dp306
g53
V10.1080/713608128
p307
sg49
VCRIT REV PLANT SCI
p308
sg51
V15
p309
sg80
(lp310
(VYAN
VW
tp311
asg59
I1996
sg45
V63
p312
sbasb.