ccopy_reg
_reconstructor
p1
(ctethne.classes.paper
Paper
p2
c__builtin__
object
p3
NtRp4
(dp5
S'publisherCity'
p6
VROCKVILLE
p7
sS'reprintAddress'
p8
VFlint-Garcia, SA (reprint author), Univ Missouri, Div Plant Sci, Columbia, MO 65211 USA.
p9
sS'WC'
p10
VPlant Sciences
p11
sS'GA'
p12
V889DS
p13
sS'FX'
p14
(lp15
VThis work was supported by the National Science Foundation (DBI-0321467
p16
aVand IOS-0820619) and U.S. Department of Agriculture National Institute
p17
aVof Food and Agriculture (grant no. 2009-01864).
p18
asS'abstract'
p19
VThe maize (Zea mays) kernel plays a critical role in feeding humans and livestock around the world and in a wide array of industrial applications. An understanding of the regulation of kernel starch, protein, and oil is needed in order to manipulate composition to meet future needs. We conducted joint-linkage quantitative trait locus mapping and genome-wide association studies (GWAS) for kernel starch, protein, and oil in the maize nested association mapping population, composed of 25 recombinant inbred line families derived from diverse inbred lines. Joint-linkage mapping revealed that the genetic architecture of kernel composition traits is controlled by 21-26 quantitative trait loci. Numerous GWAS associations were detected, including several oil and starch associations in acyl-CoA: diacylglycerol acyltransferase1-2, a gene that regulates oil composition and quantity. Results from nested association mapping were verified in a 282 inbred association panel using both GWAS and candidate gene association approaches. We identified many beneficial alleles that will be useful for improving kernel starch, protein, and oil content.
p20
sS'pageEnd'
p21
I834
sS'date'
p22
I2012
sS'documentType'
p23
VArticle
p24
sS'subject'
p25
VPlant Sciences
p26
sS'isoSource'
p27
VPlant Physiol.
p28
sS'timesCited'
p29
(lp30
I19
aVZ9 19
p31
asS'funding'
p32
(lp33
(VNational Science Foundation
VDBI-0321467, IOS-0820619
tp34
a(VU.S. Department of Agriculture National Institute of Food and Agriculture
V2009-01864
tp35
asS'PT'
p36
VJ
sS'title'
p37
VGenetic Architecture Of Maize Kernel Composition In The Nested Association Mapping And Inbred Association Panels
p38
sS'ISSN'
p39
(lp40
V0032-0889
p41
aVJ9 PLANT PHYSIOL
p42
asS'authors_full'
p43
(lp44
(VCOOK
VJASON P
tp45
a(VMCMULLEN
VMICHAEL D
tp46
a(VHOLLAND
VJAMES B
tp47
a(VTIAN
VFENG
tp48
a(VBRADBURY
VPETER
tp49
a(VROSSIBARRA
VJEFFREY
tp50
a(VBUCKLER
VEDWARD S
tp51
a(VFLINTGARCIA
VSHERRY A
tp52
asS'PG'
p53
I11
sS'PD'
p54
VFEB
p55
sS'pageStart'
p56
I824
sS'issue'
p57
I2
sS'RI'
p58
VRoss-Ibarra, Jeffrey/D-7782-2011
p59
sS'journal'
p60
VPLANT PHYSIOLOGY
p61
sS'volume'
p62
V158
p63
sS'doi'
p64
V10.1104/pp.111.185033
p65
sS'emailAddress'
p66
VSherry.Flint-Garcia@ars.usda.gov
p67
sS'authorAddress'
p68
(lp69
V[Cook, Jason P.; McMullen, Michael D.; Flint-Garcia, Sherry A.] Univ Missouri, Div Plant Sci, Columbia, MO 65211 USA.
p70
aV[McMullen, Michael D.; Flint-Garcia, Sherry A.] ARS, USDA, Columbia, MO 65211 USA.
p71
aV[Holland, James B.] ARS, USDA, Raleigh, NC 27695 USA.
p72
aV[Bradbury, Peter; Buckler, Edward S.] ARS, USDA, Ithaca, NY 14853 USA.
p73
aV[Holland, James B.] N Carolina State Univ, Dept Crop Sci, Raleigh, NC 27695 USA.
p74
aV[Tian, Feng; Bradbury, Peter; Buckler, Edward S.] Cornell Univ, Dept Plant Breeding & Genet, Ithaca, NY 14853 USA.
p75
aV[Ross-Ibarra, Jeffrey] Univ Calif Davis, Dept Plant Sci, Davis, CA 95616 USA.
p76
asS'publisherAddress'
p77
V15501 MONONA DRIVE, ROCKVILLE, MD 20855 USA
p78
sS'ER'
p79
V
sS'publisher'
p80
VAMER SOC PLANT BIOLOGISTS
p81
sS'authorKeywords'
p82
(lp83
VHETEROGENEOUS STOCK MICE
p84
aVGENOME-WIDE ASSOCIATION
p85
aVQUANTITATIVE TRAIT LOCI
p86
aVEPISTATIC INTERACTIONS
p87
aVOIL CONCENTRATION
p88
aVCOMPLEX TRAITS
p89
aVTRANSCRIPTIONAL ACTIVATOR
p90
aVARTIFICIAL SELECTION
p91
aVCHEMICAL-COMPOSITION
p92
aVFLOWERING TIME
p93
asS'OI'
p94
VRoss-Ibarra, Jeffrey/0000-0003-1656-4954
p95
sS'language'
p96
VEnglish
p97
sS'wosid'
p98
VWOS:000300054300023
p99
sS'citationCount'
p100
I59
sS'authors_init'
p101
(lp102
(VCOOK
VJ P
tp103
a(VMCMULLEN
VM D
tp104
a(VHOLLAND
VJ B
tp105
a(VTIAN
VF
tp106
a(VBRADBURY
VP
tp107
a(VROSSIBARRA
VJ
tp108
a(VBUCKLER
VE S
tp109
a(VFLINTGARCIA
VS A
tp110
asS'citedReferences'
p111
(lp112
g1
(g2
g3
NtRp113
(dp114
g64
V10.1023/A:1005886011722
p115
sg60
VPLANT MOL BIOL
p116
sg62
V34
p117
sg101
(lp118
(VASCENZI
VR
tp119
asg22
I1997
sg56
VLANT
p120
sbag1
(g2
g3
NtRp121
(dp122
g64
V10.1038/nrg700
p123
sg60
VNAT REV GENET
p124
sg62
V3
sg101
(lp125
(VBARTON
VN H
tp126
asg22
I2002
sg56
V11
p127
sbag1
(g2
g3
NtRp128
(dp129
g64
Nsg60
VJ ROY STAT SOC B MET
p130
sg62
V57
p131
sg101
(lp132
(VBENJAMINI
VY
tp133
asg22
I1995
sg56
V289
p134
sbag1
(g2
g3
NtRp135
(dp136
g64
V10.1093/bioinformatics/btm308
p137
sg60
VBIOINFORMATICS
p138
sg62
V23
p139
sg101
(lp140
(VBRADBURY
VP J
tp141
asg22
I2007
sg56
V2633
p142
sbag1
(g2
g3
NtRp143
(dp144
g64
Nsg60
VBIOCH MOL BIOL PLANT
p145
sg62
Nsg101
(lp146
(VBUCHANAN
VB B
tp147
asg22
I2000
sg56
Nsbag1
(g2
g3
NtRp148
(dp149
g64
V10.1126/science.1174276
p150
sg60
VSCIENCE
p151
sg62
V325
p152
sg101
(lp153
(VBUCKLER
VE S
tp154
asg22
I2009
sg56
V714
p155
sbag1
(g2
g3
NtRp156
(dp157
g64
V10.2135/cropsci2005.06-0153
p158
sg60
VCROP SCI
p159
sg62
V46
p160
sg101
(lp161
(VCLARK
VD
tp162
asg22
I2006
sg56
V807
p163
sbag1
(g2
g3
NtRp164
(dp165
g64
Nsg60
VCROP SCI
p166
sg62
V44
p167
sg101
(lp168
(VDUDLEY
VJ W
tp169
asg22
I2004
sg56
V1419
p170
sbag1
(g2
g3
NtRp171
(dp172
g64
V10.2135/cropsci2006.03.0207
p173
sg60
VCROP SCI
p174
sg62
V47
p175
sg101
(lp176
(VDUDLEY
VJ W
tp177
asg22
I2007
sg56
V45
p178
sbag1
(g2
g3
NtRp179
(dp180
g64
V10.2135/cropsci2007.04.0242
p181
sg60
VCROP SCI
p182
sg62
V48
p183
sg101
(lp184
(VDUDLEY
VJ W
tp185
asg22
I2008
sg56
V59
p186
sbag1
(g2
g3
NtRp187
(dp188
g64
V10.1111/j.1365-313X.2005.02591.x
p189
sg60
VPLANT J
p190
sg62
V44
p191
sg101
(lp192
(VFLINT-GARCIA
VS A
tp193
asg22
I2005
sg56
VLANT
p194
sbag1
(g2
g3
NtRp195
(dp196
g64
V10.1371/journal.pone.0028334
p197
sg60
VPLOS ONE
p198
sg62
V6
sg101
(lp199
(VGANAL
VM W
tp200
asg22
I2011
sg56
VLOS
p201
sbag1
(g2
g3
NtRp202
(dp203
g64
V10.1111/j.1439-0523.2004.01055.x
p204
sg60
VPLANT BREEDING
p205
sg62
V124
p206
sg101
(lp207
(VGE
VX J
tp208
asg22
I2005
sg56
VLANT
p209
sbag1
(g2
g3
NtRp210
(dp211
g64
V10.1016/j.tig.2005.02.009
p212
sg60
VTRENDS GENET
p213
sg62
V21
p214
sg101
(lp215
(VGIBBON
VB C
tp216
asg22
I2005
sg56
V227
p217
sbag1
(g2
g3
NtRp218
(dp219
g64
Nsg60
VASREML USERS GUIDE
p220
sg62
Nsg101
(lp221
(VGILMOR
VA R
tp222
asg22
I2005
sg56
Nsbag1
(g2
g3
NtRp223
(dp224
g64
Nsg60
VTHEOR APPL GENET
p225
sg62
V87
p226
sg101
(lp227
(VGOLDMAN
VI L
tp228
asg22
I1993
sg56
V217
p229
sbag1
(g2
g3
NtRp230
(dp231
g64
Nsg60
VCROP SCI
p232
sg62
V34
p233
sg101
(lp234
(VGOLDMAN
VI L
tp235
asg22
I1994
sg56
V908
p236
sbag1
(g2
g3
NtRp237
(dp238
g64
V10.1126/science.1177837
p239
sg60
VSCIENCE
p240
sg62
V326
p241
sg101
(lp242
(VGORE
VM A
tp243
asg22
I2009
sg56
V1115
p244
sbag1
(g2
g3
NtRp245
(dp246
g64
V10.1126/science.1150255
p247
sg60
VSCIENCE
p248
sg62
V319
p249
sg101
(lp250
(VHARJES
VC E
tp251
asg22
I2008
sg56
V330
p252
sbag1
(g2
g3
NtRp253
(dp254
g64
V10.1104/pp.109.135293
p255
sg60
VPLANT PHYSIOL
p256
sg62
V149
p257
sg101
(lp258
(VHENNEN-BIERWAGEN
VT A
tp259
asg22
I2009
sg56
VLANT
p260
sbag1
(g2
g3
NtRp261
(dp262
g64
V10.1371/journal.pgen.1000008
p263
sg60
VPLOS GENET
p264
sg62
V4
sg101
(lp265
(VHILL
VW G
tp266
asg22
I2008
sg56
VLOS
p267
sbag1
(g2
g3
NtRp268
(dp269
g64
V10.1126/science.1105459
p270
sg60
VSCIENCE
p271
sg62
V307
p272
sg101
(lp273
(VHILL
VW G
tp274
asg22
I2005
sg56
V683
p275
sbag1
(g2
g3
NtRp276
(dp277
g64
V10.1093/jhered/89.4.374
p278
sg60
VJ HERED
p279
sg62
V89
p280
sg101
(lp281
(VHOLLAND
VJ B
tp282
asg22
I1998
sg56
V374
p283
sbag1
(g2
g3
NtRp284
(dp285
g64
V10.1016/j.pbi.2007.01.003
p286
sg60
VCURR OPIN PLANT BIOL
p287
sg62
V10
p288
sg101
(lp289
(VHOLLAND
VJ B
tp290
asg22
I2007
sg56
V156
p291
sbag1
(g2
g3
NtRp292
(dp293
g64
V10.1101/gr.088120.108
p294
sg60
VGENOME RES
p295
sg62
V19
p296
sg101
(lp297
(VHUANG
VG J
tp298
asg22
I2009
sg56
V1133
p299
sbag1
(g2
g3
NtRp300
(dp301
g64
Nsg60
VHEREDITY        1026
p302
sg62
Nsg101
(lp303
(VHUNG
VH Y
tp304
asg22
I2011
sg56
Nsbag1
(g2
g3
NtRp305
(dp306
g64
V10.1371/journal.pone.0009958
p307
sg60
VPLOS ONE
p308
sg62
V5
sg101
(lp309
(VKRILL
VA M
tp310
asg22
I2010
sg56
VLOS
p311
sbag1
(g2
g3
NtRp312
(dp313
g64
V10.1038/ng.747
p314
sg60
VNAT GENET
p315
sg62
V43
p316
sg101
(lp317
(VKUMP
VK L
tp318
asg22
I2011
sg56
V163
p319
sbag1
(g2
g3
NtRp320
(dp321
g64
Nsg60
VSPECIALTY CORNS
p322
sg62
Nsg101
(lp323
(VLAMBERT
VR J
tp324
asg22
I2001
sg56
V131
p325
sbag1
(g2
g3
NtRp326
(dp327
g64
V10.1534/genetics.104.029686
p328
sg60
VGENETICS
p329
sg62
V168
p330
sg101
(lp331
(VLAURIE
VC C
tp332
asg22
I2004
sg56
V2141
p333
sbag1
(g2
g3
NtRp334
(dp335
g64
V10.1105/tpc.109.067256
p336
sg60
VPLANT CELL
p337
sg62
V21
p338
sg101
(lp339
(VLOCATELLI
VS
tp340
asg22
I2009
sg56
VLANT
p341
sbag1
(g2
g3
NtRp342
(dp343
g64
V10.1104/pp.108.131888
p344
sg60
VPLANT PHYSIOL
p345
sg62
V150
p346
sg101
(lp347
(VMANICACCI
VD
tp348
asg22
I2009
sg56
VLANT
p349
sbag1
(g2
g3
NtRp350
(dp351
g64
V10.1126/science.1174320
p352
sg60
VSCIENCE
p353
sg62
V325
p354
sg101
(lp355
(VMCMULLEN
VM D
tp356
asg22
I2009
sg56
V737
p357
sbag1
(g2
g3
NtRp358
(dp359
g64
V10.1126/science.145.3629.279
p360
sg60
VSCIENCE
p361
sg62
V145
p362
sg101
(lp363
(VMERTZ
VE T
tp364
asg22
I1964
sg56
V279
p365
sbag1
(g2
g3
NtRp366
(dp367
g64
V10.1371/journal.pgen.1002131
p368
sg60
VPLOS GENET
p369
sg62
V7
sg101
(lp370
(VMICLAUS
VM
tp371
asg22
I2011
sg56
VLOS
p372
sbag1
(g2
g3
NtRp373
(dp374
g64
V10.1016/j.tplants.2004.05.005
p375
sg60
VTRENDS PLANT SCI
p376
sg62
V9
sg101
(lp377
(VMOOSE
VS P
tp378
asg22
I2004
sg56
V358
p379
sbag1
(g2
g3
NtRp380
(dp381
g64
V10.2135/cropsci2004.0720
p382
sg60
VCROP SCI
p383
sg62
V45
p384
sg101
(lp385
(VPANTHEE
VD R
tp386
asg22
I2005
sg56
V2015
p387
sbag1
(g2
g3
NtRp388
(dp389
g64
V10.1101/gr.5402306
p390
sg60
VGENOME RES
p391
sg62
V16
p392
sg101
(lp393
(VPEIFFER
VD A
tp394
asg22
I2006
sg56
V1136
p395
sbag1
(g2
g3
NtRp396
(dp397
g64
V10.1038/nrg2452
p398
sg60
VNAT REV GENET
p399
sg62
V9
sg101
(lp400
(VPHILLIPS
VP C
tp401
asg22
I2008
sg56
V855
p402
sbag1
(g2
g3
NtRp403
(dp404
g64
V10.1073/pnas.1010894108
p405
sg60
VP NATL ACAD SCI USA
p406
sg62
V108
p407
sg101
(lp408
(VPOLAND
VJ A
tp409
asg22
I2011
sg56
V6893
p410
sbag1
(g2
g3
NtRp411
(dp412
g64
V10.1126/science.147.3665.1585
p413
sg60
VSCIENCE
p414
sg62
V147
p415
sg101
(lp416
(VPONELEIT
VC G
tp417
asg22
I1965
sg56
V1585
p418
sbag1
(g2
g3
NtRp419
(dp420
g64
V10.1104/pp.111.173641
p421
sg60
VPLANT PHYSIOL
p422
sg62
V156
p423
sg101
(lp424
(VPOUVREAU
VB
tp425
asg22
I2011
sg56
VLANT
p426
sbag1
(g2
g3
NtRp427
(dp428
g64
V10.1126/science.1178534
p429
sg60
VSCIENCE
p430
sg62
V326
p431
sg101
(lp432
(VSCHNABLE
VP S
tp433
asg22
I2009
sg56
V1112
p434
sbag1
(g2
g3
NtRp435
(dp436
g64
V10.1016/j.plaphy.2004.05.008
p437
sg60
VPLANT PHYSIOL BIOCH
p438
sg62
V42
p439
sg101
(lp440
(VSCHULTZ
VJ A
tp441
asg22
I2004
sg56
VLANT
p442
sbag1
(g2
g3
NtRp443
(dp444
g64
V10.1007/s001220051685
p445
sg60
VTHEOR APPL GENET
p446
sg62
V102
p447
sg101
(lp448
(VSENE
VM
tp449
asg22
I2001
sg56
V591
p450
sbag1
(g2
g3
NtRp451
(dp452
g64
V10.1002/jsfa.2740670306
p453
sg60
VJ SCI FOOD AGR
p454
sg62
V67
p455
sg101
(lp456
(VSIMMONDS
VN W
tp457
asg22
I1995
sg56
V309
p458
sbag1
(g2
g3
NtRp459
(dp460
g64
V10.1002/bies.950100404
p461
sg60
VBIOESSAYS
p462
sg62
V10
p463
sg101
(lp464
(VTHOMPSON
VG A
tp465
asg22
I1989
sg56
V108
p466
sbag1
(g2
g3
NtRp467
(dp468
g64
V10.1038/90135
p469
sg60
VNAT GENET
p470
sg62
V28
p471
sg101
(lp472
(VTHORNSBERRY
VJ M
tp473
asg22
I2001
sg56
V286
p474
sbag1
(g2
g3
NtRp475
(dp476
g64
V10.1038/ng.746
p477
sg60
VNAT GENET
p478
sg62
V43
p479
sg101
(lp480
(VTIAN
VF
tp481
asg22
I2011
sg56
V159
p482
sbag1
(g2
g3
NtRp483
(dp484
g64
V[10.1534/genetics.109.100727, 10.1534/genetics.108.100727]
p485
sg60
VGENETICS
p486
sg62
V182
p487
sg101
(lp488
(VVALDAR
VW
tp489
asg22
I2009
sg56
V1263
p490
sbag1
(g2
g3
NtRp491
(dp492
g64
V10.1038/ng1840
p493
sg60
VNAT GENET
p494
sg62
V38
p495
sg101
(lp496
(VVALDAR
VW
tp497
asg22
I2006
sg56
V879
p498
sbag1
(g2
g3
NtRp499
(dp500
g64
V10.1073/pnas.94.14.7685
p501
sg60
VP NATL ACAD SCI USA
p502
sg62
V94
p503
sg101
(lp504
(VVICENTECARBAJOSA
VJ
tp505
asg22
I1997
sg56
V7685
p506
sbag1
(g2
g3
NtRp507
(dp508
g64
V10.2135/cropsci2007.04.0205
p509
sg60
VCROP SCI
p510
sg62
V48
p511
sg101
(lp512
(VWASSOM
VJ J
tp513
asg22
I2008
sg56
V243
p514
sbag1
(g2
g3
NtRp515
(dp516
g64
V10.1105/tpc.104.025700
p517
sg60
VPLANT CELL
p518
sg62
V16
p519
sg101
(lp520
(VWILSON
VL M
tp521
asg22
I2004
sg56
VLANT
p522
sbag1
(g2
g3
NtRp523
(dp524
g64
V10.1105/tpc.105.037242
p525
sg60
VPLANT CELL
p526
sg62
V17
p527
sg101
(lp528
(VYAMASAKI
VM
tp529
asg22
I2005
sg56
VLANT
p530
sbag1
(g2
g3
NtRp531
(dp532
g64
V10.1038/ng.551
p533
sg60
VNAT GENET
p534
sg62
V42
p535
sg101
(lp536
(VYAN
VJ B
tp537
asg22
I2010
sg56
V322
p538
sbag1
(g2
g3
NtRp539
(dp540
g64
V10.1038/ng1702
p541
sg60
VNAT GENET
p542
sg62
V38
p543
sg101
(lp544
(VYU
VJ M
tp545
asg22
I2006
sg56
V203
p546
sbag1
(g2
g3
NtRp547
(dp548
g64
V10.1534/genetics.107.074245
p549
sg60
VGENETICS
p550
sg62
V178
p551
sg101
(lp552
(VYU
VJ M
tp553
asg22
I2008
sg56
V539
p554
sbag1
(g2
g3
NtRp555
(dp556
g64
V10.1038/ng.85
p557
sg60
VNAT GENET
p558
sg62
V40
p559
sg101
(lp560
(VZHENG
VP
tp561
asg22
I2008
sg56
V367
p562
sbasb.