ccopy_reg
_reconstructor
p1
(ctethne.classes.paper
Paper
p2
c__builtin__
object
p3
NtRp4
(dp5
S'publisherCity'
p6
VROCKVILLE
p7
sS'reprintAddress'
p8
VRudd, JJ (reprint author), Rothamsted Res, Dept Plant Pathol & Microbiol, Ctr Sustainable Pest & Dis Management, Harpenden AL5 2JQ, Herts, England.
p9
sS'WC'
p10
VPlant Sciences
p11
sS'GA'
p12
V308XI
p13
sS'abstract'
p14
VMany race- or isolate-specific disease resistance responses of plants toward pathogens (incompatible interactions) invoke hypersensitive response (HR)- like programmed cell death ( PCD) and the coordinated activation of mitogen-activated protein kinases homologous with Arabidopsis ( Arabidopsis thaliana) AtMPK6 and AtMPK3 ( or tobacco [Nicotiana tabacum] SIPK and WIPK), respectively. Resistance of wheat ( Triticum aestivum) leaves to the necrotrophic fungal pathogen Mycosphaerella graminicola can also operate at an isolate/cultivar- specific level. We confirm here that resistance is achieved without any sign of HR-like PCD during the incompatible interaction. Instead, PCD is strictly associated with the compatible interaction and is triggered during disease symptom expression. A strong transcriptional activation of TaMPK3, the wheat homolog of Arabidopsis AtMPK3, was observed immediately preceding PCD and symptom development in the compatible interaction. Generation and use of TaMPK3 and TaMPK6-specific antibodies on western blots and in coupled immunoprecipitation- protein kinase assays demonstrated that the TaMPK3 protein also accumulated, and was subsequently posttranslationally activated, during the compatible interaction in parallel to PCD. In contrast, no increase in expression, protein levels, or posttranslational activation of TaMPK6 was observed at any stage of either compatible or incompatible interactions. However, the protein levels of TaMPK6 became markedly reduced during the compatible interaction coincident with the onset of TaMPK3 protein accumulation. These data highlight the emerging similarity between the signaling pathways triggered in a host plant during successful infection by a necrotrophic fungal pathogen and the resistance responses normally effective against biotrophs.
p15
sS'pageEnd'
p16
I815
sS'publisherAddress'
p17
V15501 MONONA DRIVE, ROCKVILLE, MD 20855 USA
p18
sS'documentType'
p19
VArticle
p20
sS'subject'
p21
VPlant Sciences
p22
sS'isoSource'
p23
VPlant Physiol.
p24
sS'timesCited'
p25
(lp26
I29
aVZ9 30
p27
asS'PT'
p28
VJ
sS'title'
p29
VThe Wheat Mitogen-Activated Protein Kinases Tampk3 And Tampk6 Are Differentially Regulated At Multiple Levels During Compatible Disease Interactions With Mycosphaerella Graminicola
p30
sS'ISSN'
p31
(lp32
V0032-0889
p33
aVJ9 PLANT PHYSIOL
p34
asS'authors_full'
p35
(lp36
(VRUDD
VJASON J
tp37
a(VKEON
VJOHN
tp38
a(VHAMMONDKOSACK
VKIM E
tp39
asS'PG'
p40
I14
sS'PD'
p41
VJUN
p42
sS'pageStart'
p43
I802
sS'issue'
p44
I2
sS'journal'
p45
VPLANT PHYSIOLOGY
p46
sS'volume'
p47
V147
p48
sS'doi'
p49
V10.1104/pp.108.119511
p50
sS'emailAddress'
p51
Vjason.rudd@bbsrc.ac.uk
p52
sS'authorAddress'
p53
V[Rudd, Jason J.; Keon, John; Hammond-Kosack, Kim E.] Rothamsted Res, Dept Plant Pathol & Microbiol, Ctr Sustainable Pest & Dis Management, Harpenden AL5 2JQ, Herts, England.
p54
sS'date'
p55
I2008
sS'ER'
p56
V
sS'publisher'
p57
VAMER SOC PLANT BIOLOGISTS
p58
sS'authorKeywords'
p59
(lp60
VPROGRAMMED CELL-DEATH
p61
aVSEPTORIA-TRITICI BLOTCH
p62
aVHYPERSENSITIVE RESPONSE
p63
aVMAP KINASE
p64
aVHYDROGEN-PEROXIDE
p65
aVDEFENSE RESPONSE
p66
aVRESISTANCE GENE
p67
aVINNATE IMMUNITY
p68
aVPLANT-PATHOGEN
p69
aVPTR TOXA
p70
asS'language'
p71
VEnglish
p72
sS'wosid'
p73
VWOS:000256423600032
p74
sS'citationCount'
p75
I72
sS'authors_init'
p76
(lp77
(VRUDD
VJ J
tp78
a(VKEON
VJ
tp79
a(VHAMMONDKOSACK
VK E
tp80
asS'citedReferences'
p81
(lp82
g1
(g2
g3
NtRp83
(dp84
g49
V10.1094/PHYTO.2004.94.11.1198
p85
sg45
VPHYTOPATHOLOGY
p86
sg47
V94
p87
sg76
(lp88
(VADHIKARI
VT B
tp89
asg55
I2004
sg43
VHYTOPATHOLOGY
p90
sbag1
(g2
g3
NtRp91
(dp92
g49
V10.1016/j.pmpp.2007.10.004
p93
sg45
VPHYSIOL MOL PLANT P
p94
sg47
V71
p95
sg76
(lp96
(VADHIKARI
VT B
tp97
asg55
I2007
sg43
VHYSIOL
p98
sbag1
(g2
g3
NtRp99
(dp100
g49
V10.1111/j.1365-313X.2004.02229.x
p101
sg45
VPLANT J
p102
sg47
V40
p103
sg76
(lp104
(VAHLFORS
VR
tp105
asg55
I2004
sg43
VLANT
p106
sbag1
(g2
g3
NtRp107
(dp108
g49
V10.1111/j.1365-3059.2006.01444.x
p109
sg45
VPLANT PATHOL
p110
sg47
V55
p111
sg76
(lp112
(VARRAIANO
VL S
tp113
asg55
I2006
sg43
VLANT
p114
sbag1
(g2
g3
NtRp115
(dp116
g49
V10.1111/j.1365-3059.2006.01499.x
p117
sg45
VPLANT PATHOL
p118
sg47
V56
p119
sg76
(lp120
(VARRAIANO
VL S
tp121
asg55
I2007
sg43
VLANT
p122
sbag1
(g2
g3
NtRp123
(dp124
g49
V10.1038/415977a
p125
sg45
VNATURE
p126
sg47
V415
p127
sg76
(lp128
(VASAI
VT
tp129
asg55
I2002
sg43
V977
p130
sbag1
(g2
g3
NtRp131
(dp132
g49
V10.1016/S1369-5266(00)00216-8
p133
sg45
VCURR OPIN PLANT BIOL
p134
sg47
V4
sg76
(lp135
(VBEERS
VE P
tp136
asg55
I2001
sg43
V561
p137
sbag1
(g2
g3
NtRp138
(dp139
g49
V10.1094/PHYTO.2002.92.4.439
p140
sg45
VPHYTOPATHOLOGY
p141
sg47
V92
p142
sg76
(lp143
(VBRADING
VP A
tp144
asg55
I2002
sg43
VHYTOPATHOLOGY
p145
sbag1
(g2
g3
NtRp146
(dp147
g49
Nsg45
VPLANT CELL
p148
sg47
V9
sg76
(lp149
(VCIUFFETTI
VL M
tp150
asg55
I1997
sg43
VLANT
p151
sbag1
(g2
g3
NtRp152
(dp153
g49
V10.1111/j.1365-3059.1993.tb01560.x
p154
sg45
VPLANT PATHOL
p155
sg47
V42
p156
sg76
(lp157
(VCOHEN
VL
tp158
asg55
I1993
sg43
VLANT
p159
sbag1
(g2
g3
NtRp160
(dp161
g49
V[10.1111/j.1364-3703.2006.00337.x, 10.1111/J.1364-3703.2006.00337.X]
p162
sg45
VMOL PLANT PATHOL
p163
sg47
V7
sg76
(lp164
(VCOUSIN
VA
tp165
asg55
I2006
sg43
V269
p166
sbag1
(g2
g3
NtRp167
(dp168
g49
V10.1146/annurev.phyto.42.040803.140421
p169
sg45
VANNU REV PHYTOPATHOL
p170
sg47
V42
p171
sg76
(lp172
(VDURRANT
VW E
tp173
asg55
I2004
sg43
V185
p174
sbag1
(g2
g3
NtRp175
(dp176
g49
V10.1046/j.1365-313X.2003.01944.x
p177
sg45
VPLANT J
p178
sg47
V36
p179
sg76
(lp180
(VEKENGREN
VS K
tp181
asg55
I2003
sg43
VLANT
p182
sbag1
(g2
g3
NtRp183
(dp184
g49
V10.1146/annurev.py.09.090171.001423
p185
sg45
VANNU REV PHYTOPATHOL
p186
sg47
V9
sg76
(lp187
(VFLOR
VH H
tp188
asg55
I1971
sg43
V275
p189
sbag1
(g2
g3
NtRp190
(dp191
g49
V10.1094/PHYTO-95-0933
p192
sg45
VPHYTOPATHOLOGY
p193
sg47
V95
p194
sg76
(lp195
(VFRAAIJE
VB A
tp196
asg55
I2005
sg43
VHYTOPATHOLOGY
p197
sbag1
(g2
g3
NtRp198
(dp199
g49
V10.1038/ng1839
p200
sg45
VNAT GENET
p201
sg47
V38
p202
sg76
(lp203
(VFRIESEN
VT L
tp204
asg55
I2006
sg43
V953
p205
sbag1
(g2
g3
NtRp206
(dp207
g49
Nsg45
VCAN J PLANT PATHOL
p208
sg47
V20
p209
sg76
(lp210
(VGAMBA
VF M
tp211
asg55
I1998
sg43
V401
p212
sbag1
(g2
g3
NtRp213
(dp214
g49
V10.1094/PHYTO.2004.94.8.800
p215
sg45
VPHYTOPATHOLOGY
p216
sg47
V94
p217
sg76
(lp218
(VGOODWIN
VS B
tp219
asg55
I2004
sg43
VHYTOPATHOLOGY
p220
sbag1
(g2
g3
NtRp221
(dp222
g49
V10.1016/S0960-9822(00)00560-1
p223
sg45
VCURR BIOL
p224
sg47
V10
p225
sg76
(lp226
(VGOVRIN
VE M
tp227
asg55
I2000
sg43
V751
p228
sbag1
(g2
g3
NtRp229
(dp230
g49
V10.1111/j.1462-5822.2004.00361.x
p231
sg45
VCELL MICROBIOL
p232
sg47
V6
sg76
(lp233
(VGREENBERG
VJ T
tp234
asg55
I2004
sg43
V201
p235
sbag1
(g2
g3
NtRp236
(dp237
g49
Nsg45
VTRENDS PLANT SCI
p238
sg47
V7
sg76
(lp239
(VICHIMURA
VK
tp240
asg55
I2002
sg43
V301
p241
sbag1
(g2
g3
NtRp242
(dp243
g49
V10.1146/annurev.arplant.48.1.575
p244
sg45
VANNU REV PLANT PHYS
p245
sg47
V48
p246
sg76
(lp247
(VHAMMONDKOSACK
VK E
tp248
asg55
I1997
sg43
V575
p249
sbag1
(g2
g3
NtRp250
(dp251
g49
V10.1023/A:1026592509060
p252
sg45
VPLANT MOL BIOL
p253
sg47
V44
p254
sg76
(lp255
(VHEATH
VM C
tp256
asg55
I2000
sg43
VLANT
p257
sbag1
(g2
g3
NtRp258
(dp259
g49
V10.1046/j.1365-313X.2003.01664.x
p260
sg45
VPLANT J
p261
sg47
V33
p262
sg76
(lp263
(VJIN
VH L
tp264
asg55
I2003
sg43
VLANT
p265
sbag1
(g2
g3
NtRp266
(dp267
g49
V10.1094/Phyto-86-777
p268
sg45
VPHYTOPATHOLOGY
p269
sg47
V86
p270
sg76
(lp271
(VKEMA
VG H J
tp272
asg55
I1996
sg43
VHYTOPATHOLOGY
p273
sbag1
(g2
g3
NtRp274
(dp275
g49
V10.1094/MPMI.2000.13.12.1375
p276
sg45
VMOL PLANT MICROBE IN
p277
sg47
V13
p278
sg76
(lp279
(VKEMA
VG H J
tp280
asg55
I2000
sg43
V1375
p281
sbag1
(g2
g3
NtRp282
(dp283
g49
V10.1094/MPMI-20-2-0178
p284
sg45
VMOL PLANT MICROBE IN
p285
sg47
V20
p286
sg76
(lp287
(VKEON
VJ
tp288
asg55
I2007
sg43
V178
p289
sbag1
(g2
g3
NtRp290
(dp291
g49
V10.1006/fgbi.2000.1186
p292
sg45
VFUNGAL GENET BIOL
p293
sg47
V29
p294
sg76
(lp295
(VKEON
VJ
tp296
asg55
I2000
sg43
V118
p297
sbag1
(g2
g3
NtRp298
(dp299
g49
V10.1016/j.fgb.2004.12.005
p300
sg45
VFUNGAL GENET BIOL
p301
sg47
V42
p302
sg76
(lp303
(VKEON
VJ
tp304
asg55
I2005
sg43
V376
p305
sbag1
(g2
g3
NtRp306
(dp307
g49
V[10.1111/j.1364-3703.2005.00304.x, 10.1111/J.1364-3703.2005.00304.X]
p308
sg45
VMOL PLANT PATHOL
p309
sg47
V6
sg76
(lp310
(VKEON
VJ
tp311
asg55
I2005
sg43
V527
p312
sbag1
(g2
g3
NtRp313
(dp314
g49
V10.1073/pnas.97.6.2940
p315
sg45
VP NATL ACAD SCI USA
p316
sg47
V97
p317
sg76
(lp318
(VKOVTUN
VY
tp319
asg55
I2000
sg43
V2940
p320
sbag1
(g2
g3
NtRp321
(dp322
g49
V10.1094/MPMI.2004.17.2.131
p323
sg45
VMOL PLANT MICROBE IN
p324
sg47
V17
p325
sg76
(lp326
(VKRAUSE
VM
tp327
asg55
I2004
sg43
V131
p328
sbag1
(g2
g3
NtRp329
(dp330
g49
V10.1074/jbc.M208200200
p331
sg45
VJ BIOL CHEM
p332
sg47
V278
p333
sg76
(lp334
(VKROJ
VT
tp335
asg55
I2003
sg43
V2256
p336
sbag1
(g2
g3
NtRp337
(dp338
g49
V10.1006/pmpp.1998.0151
p339
sg45
VPHYSIOL MOL PLANT P
p340
sg47
V52
p341
sg76
(lp342
(VKWON
VC Y
tp343
asg55
I1998
sg43
VHYSIOL
p344
sbag1
(g2
g3
NtRp345
(dp346
g49
V10.1074/jbc.M401099200
p347
sg45
VJ BIOL CHEM
p348
sg47
V279
p349
sg76
(lp350
(VLEE
VJ
tp351
asg55
I2004
sg43
V22440
p352
sbag1
(g2
g3
NtRp353
(dp354
g49
V10.1105/tpc.13.5.1079
p355
sg45
VPLANT CELL
p356
sg47
V13
p357
sg76
(lp358
(VLEE
VJ
tp359
asg55
I2001
sg43
VLANT
p360
sbag1
(g2
g3
NtRp361
(dp362
g49
V10.1126/science.276.5321.2054
p363
sg45
VSCIENCE
p364
sg47
V276
p365
sg76
(lp366
(VLIGTERINK
VW
tp367
asg55
I1997
sg43
V2054
p368
sbag1
(g2
g3
NtRp369
(dp370
g49
V10.1073/pnas.232579799
p371
sg45
VP NATL ACAD SCI USA
p372
sg47
V99
p373
sg76
(lp374
(VLINCOLN
VJ E
tp375
asg55
I2002
sg43
V15217
p376
sbag1
(g2
g3
NtRp377
(dp378
g49
V10.1111/j.1365-313X.2007.03191.x
p379
sg45
VPLANT J
p380
sg47
V51
p381
sg76
(lp382
(VLIU
VY D
tp383
asg55
I2007
sg43
VLANT
p384
sbag1
(g2
g3
NtRp385
(dp386
g49
V10.1046/j.1365-313X.2003.016016.x
p387
sg45
VPLANT J
p388
sg47
V34
p389
sg76
(lp390
(VLIU
VY D
tp391
asg55
I2003
sg43
VLANT
p392
sbag1
(g2
g3
NtRp393
(dp394
g49
V10.1073/pnas.0702572104
p395
sg45
VP NATL ACAD SCI USA
p396
sg47
V104
p397
sg76
(lp398
(VLORANG
VJ M
tp399
asg55
I2007
sg43
V14861
p400
sbag1
(g2
g3
NtRp401
(dp402
g49
V10.1146/annurev.arplant.54.031902.135035
p403
sg45
VANNU REV PLANT BIOL
p404
sg47
V54
p405
sg76
(lp406
(VMARTIN
VG B
tp407
asg55
I2003
sg43
V23
p408
sbag1
(g2
g3
NtRp409
(dp410
g49
V10.1074/jbc.M313388200
p411
sg45
VJ BIOL CHEM
p412
sg47
V279
p413
sg76
(lp414
(VMAYROSE
VM
tp415
asg55
I2004
sg43
V14819
p416
sbag1
(g2
g3
NtRp417
(dp418
g49
V10.1105/tpc.015552
p419
sg45
VPLANT CELL
p420
sg47
V16
p421
sg76
(lp422
(VMENKE
VF L H
tp423
asg55
I2004
sg43
VLANT
p424
sbag1
(g2
g3
NtRp425
(dp426
g49
V10.1016/S1369-5266(00)00175-8
p427
sg45
VCURR OPIN PLANT BIOL
p428
sg47
V4
sg76
(lp429
(VNIMCHUK
VZ
tp430
asg55
I2001
sg43
V288
p431
sbag1
(g2
g3
NtRp432
(dp433
g49
V10.1146/annurev.genet.37.110801.142628
p434
sg45
VANNU REV GENET
p435
sg47
V37
p436
sg76
(lp437
(VNIMCHUK
VZ
tp438
asg55
I2003
sg43
V579
p439
sbag1
(g2
g3
NtRp440
(dp441
g49
V10.1073/pnas.0703758104
p442
sg45
VP NATL ACAD SCI USA
p443
sg47
V104
p444
sg76
(lp445
(VNIRMALA
VJ
tp446
asg55
I2007
sg43
V10276
p447
sbag1
(g2
g3
NtRp448
(dp449
g49
V10.1111/j.1364-3703.2005.00279.x
p450
sg45
VMOL PLANT PATHOL
p451
sg47
V6
sg76
(lp452
(VNURNBERGER
VT
tp453
asg55
I2005
sg43
V335
p454
sbag1
(g2
g3
NtRp455
(dp456
g49
V10.1074/jbc.M410323200
p457
sg45
VJ BIOL CHEM
p458
sg47
V279
p459
sg76
(lp460
(VPEDLEY
VK F
tp461
asg55
I2004
sg43
V49229
p462
sbag1
(g2
g3
NtRp463
(dp464
g49
V10.1023/B:EJPP.0000019789.49449.a5
p465
sg45
VEUR J PLANT PATHOL
p466
sg47
V110
p467
sg76
(lp468
(VRASMUSSEN
VJ B
tp469
asg55
I2004
sg43
V333
p470
sbag1
(g2
g3
NtRp471
(dp472
g49
V10.1023/B:PLAN.0000019120.74610.52
p473
sg45
VPLANT MOL BIOL
p474
sg47
V53
p475
sg76
(lp476
(VRAY
VS
tp477
asg55
I2003
sg43
VLANT
p478
sbag1
(g2
g3
NtRp479
(dp480
g49
V10.1104/pp.106.080697
p481
sg45
VPLANT PHYSIOL
p482
sg47
V141
p483
sg76
(lp484
(VREN
VD T
tp485
asg55
I2006
sg43
VLANT
p486
sbag1
(g2
g3
NtRp487
(dp488
g49
V10.1074/jbc.M109495200
p489
sg45
VJ BIOL CHEM
p490
sg47
V277
p491
sg76
(lp492
(VREN
VD T
tp493
asg55
I2002
sg43
V559
p494
sbag1
(g2
g3
NtRp495
(dp496
g49
V10.1094/MPMI-19-0530
p497
sg45
VMOL PLANT MICROBE IN
p498
sg47
V19
p499
sg76
(lp500
(VREYNA
VN S
tp501
asg55
I2006
sg43
V530
p502
sbag1
(g2
g3
NtRp503
(dp504
g49
Nsg45
VPLANT CELL
p505
sg47
V11
p506
sg76
(lp507
(VROMEIS
VT
tp508
asg55
I1999
sg43
VLANT
p509
sbag1
(g2
g3
NtRp510
(dp511
g49
V10.1105/tpc.8.3.393
p512
sg45
VPLANT CELL
p513
sg47
V8
sg76
(lp514
(VRYERSON
VD E
tp515
asg55
I1996
sg43
VLANT
p516
sbag1
(g2
g3
NtRp517
(dp518
g49
V10.1016/S0885-5765(03)00079-1
p519
sg45
VPHYSIOL MOL PLANT P
p520
sg47
V62
p521
sg76
(lp522
(VSHETTY
VN P
tp523
asg55
I2003
sg43
VHYSIOL
p524
sbag1
(g2
g3
NtRp525
(dp526
g49
V10.1111/j.1469-8137.2007.02026.x
p527
sg45
VNEW PHYTOL
p528
sg47
V174
p529
sg76
(lp530
(VSHETTY
VN P
tp531
asg55
I2007
sg43
V637
p532
sbag1
(g2
g3
NtRp533
(dp534
g49
Nsg45
VJ AGRIC RES
p535
sg47
V4
sg76
(lp536
(VSTAKMAN
VE C
tp537
asg55
I1915
sg43
V193
p538
sbag1
(g2
g3
NtRp539
(dp540
g49
V10.1104/pp.107.101063
p541
sg45
VPLANT PHYSIOL
p542
sg47
V144
p543
sg76
(lp544
(VSTULEMEIJER
VI J E
tp545
asg55
I2007
sg43
VLANT
p546
sbag1
(g2
g3
NtRp547
(dp548
g49
V10.1094/MPMI.2004.17.3.245
p549
sg45
VMOL PLANT MICROBE IN
p550
sg47
V17
p551
sg76
(lp552
(VTADA
VY
tp553
asg55
I2004
sg43
V245
p554
sbag1
(g2
g3
NtRp555
(dp556
g49
V10.1023/A:1006263607135
p557
sg45
VPLANT MOL BIOL
p558
sg47
V40
p559
sg76
(lp560
(VTAKEZAWA
VD
tp561
asg55
I1999
sg43
VLANT
p562
sbag1
(g2
g3
NtRp563
(dp564
g49
V10.1016/j.molcel.2004.06.023
p565
sg45
VMOL CELL
p566
sg47
V15
p567
sg76
(lp568
(VTEIGE
VM
tp569
asg55
I2004
sg43
V141
p570
sbag1
(g2
g3
NtRp571
(dp572
g49
V[10.1111/j.1364-3703.2004.00253.x, 10.1111/J.1364-3703.2004.00253.X]
p573
sg45
VMOL PLANT PATHOL
p574
sg47
V5
sg76
(lp575
(VVAN
VBAARLEN P
tp576
asg55
I2004
sg43
V559
p577
sbag1
(g2
g3
NtRp578
(dp579
g49
V10.1016/j.tplants.2006.03.005
p580
sg45
VTRENDS PLANT SCI
p581
sg47
V11
p582
sg76
(lp583
(VVAN
VK A N J A L
tp584
asg55
I2006
sg43
V247
p585
sbag1
(g2
g3
NtRp586
(dp587
g49
V10.1146/annurev.phyto.40.011402.114210
p588
sg45
VANNU REV PHYTOPATHOL
p589
sg47
V40
p590
sg76
(lp591
(VWOLPERT
VT J
tp592
asg55
I2002
sg43
V251
p593
sbag1
(g2
g3
NtRp594
(dp595
g49
V10.1105/tpc.008714
p596
sg45
VPLANT CELL
p597
sg47
V15
p598
sg76
(lp599
(VXIONG
VL Z
tp600
asg55
I2003
sg43
VLANT
p601
sbag1
(g2
g3
NtRp602
(dp603
g49
V10.1073/pnas.98.2.741
p604
sg45
VP NATL ACAD SCI USA
p605
sg47
V98
p606
sg76
(lp607
(VYANG
VK Y
tp608
asg55
I2001
sg43
V741
p609
sbag1
(g2
g3
NtRp610
(dp611
g49
V10.1046/j.1365-313X.2001.01109.x
p612
sg45
VPLANT J
p613
sg47
V28
p614
sg76
(lp615
(VYAO
VN
tp616
asg55
I2001
sg43
VLANT
p617
sbag1
(g2
g3
NtRp618
(dp619
g49
Nsg45
VAM REV CHINA STUDIES
p620
sg47
V1
sg76
(lp621
(VZHANG
VJ
tp622
asg55
I2000
sg43
V9
sbag1
(g2
g3
NtRp623
(dp624
g49
V10.1073/pnas.95.12.7225
p625
sg45
VP NATL ACAD SCI USA
p626
sg47
V95
p627
sg76
(lp628
(VZHANG
VS Q
tp629
asg55
I1998
sg43
V7225
p630
sbag1
(g2
g3
NtRp631
(dp632
g49
V10.1073/pnas.95.13.7433
p633
sg45
VP NATL ACAD SCI USA
p634
sg47
V95
p635
sg76
(lp636
(VZHANG
VS Q
tp637
asg55
I1998
sg43
V7433
p638
sbasb.