ccopy_reg
_reconstructor
p1
(ctethne.classes.paper
Paper
p2
c__builtin__
object
p3
NtRp4
(dp5
S'publisherCity'
p6
VROCKVILLE
p7
sS'WC'
p8
VPlant Sciences
p9
sS'pageEnd'
p10
I25
sS'publisherAddress'
p11
V15501 MONONA DRIVE, ROCKVILLE, MD 20855 USA
p12
sS'documentType'
p13
VEditorial Material
p14
sS'subject'
p15
VPlant Sciences
p16
sS'isoSource'
p17
VPlant Physiol.
p18
sS'timesCited'
p19
(lp20
I2
aVZ9 3
p21
asS'PT'
p22
VJ
sS'title'
p23
VNuclear Architecture And Dynamics: Territories, Nuclear Bodies, And Nucleocytoplasmic Trafficking
p24
sS'ISSN'
p25
(lp26
V0032-0889
p27
aVJ9 PLANT PHYSIOL
p28
asS'authors_full'
p29
(lp30
(VCHEUNG
VALICE Y
tp31
a(VREDDY
VANIREDDY S N
tp32
asS'PG'
p33
I3
sS'PD'
p34
VJAN
p35
sS'pageStart'
p36
I23
sS'issue'
p37
I1
sS'journal'
p38
VPLANT PHYSIOLOGY
p39
sS'volume'
p40
V158
p41
sS'GA'
p42
V870IL
p43
sS'date'
p44
I2012
sS'ER'
p45
V
sS'publisher'
p46
VAMER SOC PLANT BIOLOGISTS
p47
sS'doi'
p48
V10.1104/pp.111.900426
p49
sS'language'
p50
VEnglish
p51
sS'wosid'
p52
VWOS:000298662500003
p53
sS'citationCount'
p54
I19
sS'authors_init'
p55
(lp56
(VCHEUNG
VA Y
tp57
a(VREDDY
VA S N
tp58
asS'citedReferences'
p59
(lp60
g1
(g2
g3
NtRp61
(dp62
g48
V10.1104/pp.111.185256
p63
sg38
VPLANT PHYSIOL
p64
sg40
V158
p65
sg55
(lp66
(VBORUC
VJ
tp67
asg44
I2012
sg36
VLANT
p68
sbag1
(g2
g3
NtRp69
(dp70
g48
V10.1016/j.tcb.2011.07.002
p71
sg38
VTRENDS CELL BIOL
p72
sg40
V21
p73
sg55
(lp74
(VCHEN
VM
tp75
asg44
I2011
sg36
V664
p76
sbag1
(g2
g3
NtRp77
(dp78
g48
V10.1038/nrg2916
p79
sg38
VNAT REV GENET
p80
sg40
V12
p81
sg55
(lp82
(VCZECH
VB
tp83
asg44
I2011
sg36
V19
p84
sbag1
(g2
g3
NtRp85
(dp86
g48
V10.1093/jxb/erp304
p87
sg38
VJ EXP BOT
p88
sg40
V61
p89
sg55
(lp90
(VFRANKLIN
VK A
tp91
asg44
I2010
sg36
V11
p92
sbag1
(g2
g3
NtRp93
(dp94
g48
V10.1104/pp.111.186445
p95
sg38
VPLANT PHYSIOL
p96
sg40
V158
p97
sg55
(lp98
(VHOLEC
VS
tp99
asg44
I2012
sg36
VLANT
p100
sbag1
(g2
g3
NtRp101
(dp102
g48
V10.1104/pp.111.186734
p103
sg38
VPLANT PHYSIOL
p104
sg40
V158
p105
sg55
(lp106
(VLIU
VQ
tp107
asg44
I2012
sg36
VLANT
p108
sbag1
(g2
g3
NtRp109
(dp110
g48
V10.1104/pp.111.184275
p111
sg38
VPLANT PHYSIOL
p112
sg40
V158
p113
sg55
(lp114
(VLIU
VX C
tp115
asg44
I2012
sg36
VLANT
p116
sbag1
(g2
g3
NtRp117
(dp118
g48
V10.1016/j.tig.2011.05.006
p119
sg38
VTRENDS GENET
p120
sg40
V27
p121
sg55
(lp122
(VMAO
VY T S
tp123
asg44
I2011
sg36
V295
p124
sbag1
(g2
g3
NtRp125
(dp126
g48
V10.1038/ncb2140
p127
sg38
VNAT CELL BIOL
p128
sg40
V13
p129
sg55
(lp130
(VMAO
VY T S
tp131
asg44
I2011
sg36
V95
p132
sbag1
(g2
g3
NtRp133
(dp134
g48
Nsg38
VNUCLEUS
p135
sg40
Nsg55
(lp136
(VMISTELI
VT
tp137
asg44
I2011
sg36
Nsbag1
(g2
g3
NtRp138
(dp139
g48
V10.1104/pp.111.186700
p140
sg38
VPLANT PHYSIOL
p141
sg40
V158
p142
sg55
(lp143
(VREDDY
VA S N
tp144
asg44
I2012
sg36
VLANT
p145
sbag1
(g2
g3
NtRp146
(dp147
g48
V10.1104/pp.111.186163
p148
sg38
VPLANT PHYSIOL
p149
sg40
V158
p150
sg55
(lp151
(VRIVAS
VS
tp152
asg44
I2012
sg36
VLANT
p153
sbag1
(g2
g3
NtRp154
(dp155
g48
V10.1242/jcs.005801
p156
sg38
VJ CELL SCI
p157
sg40
V120
p158
sg55
(lp159
(VSHANER
VN C
tp160
asg44
I2007
sg36
V4247
p161
sbag1
(g2
g3
NtRp162
(dp163
g48
V10.1091/mbc.E09-02-0126
p164
sg38
VMOL BIOL CELL
p165
sg40
V21
p166
sg55
(lp167
(VSHARMA
VA
tp168
asg44
I2010
sg36
V650
p169
sbag1
(g2
g3
NtRp170
(dp171
g48
V10.1104/pp.111.188052
p172
sg38
VPLANT PHYSIOL
p173
sg40
V158
p174
sg55
(lp175
(VSHAW
VP
tp176
asg44
I2012
sg36
VLANT
p177
sbag1
(g2
g3
NtRp178
(dp179
g48
V10.1104/pp.111.186288
p180
sg38
VPLANT PHYSIOL
p181
sg40
V158
p182
sg55
(lp183
(VSOKOLOVA
VV
tp184
asg44
I2012
sg36
VLANT
p185
sbag1
(g2
g3
NtRp186
(dp187
g48
V10.1104/pp.111.187161
p188
sg38
VPLANT PHYSIOL
p189
sg40
V158
p190
sg55
(lp191
(VTIANG
VC L
tp192
asg44
I2012
sg36
VLANT
p193
sbag1
(g2
g3
NtRp194
(dp195
g48
V10.1104/pp.111.186411
p196
sg38
VPLANT PHYSIOL
p197
sg40
V158
p198
sg55
(lp199
(VVAN
VBUSKIRK E K
tp200
asg44
I2012
sg36
VLANT
p201
sbag1
(g2
g3
NtRp202
(dp203
g48
V10.1104/pp.111.187062
p204
sg38
VPLANT PHYSIOL
p205
sg40
V158
p206
sg55
(lp207
(VWOZNY
VM
tp208
asg44
I2012
sg36
VLANT
p209
sbasb.