ccopy_reg
_reconstructor
p1
(ctethne.classes.paper
Paper
p2
c__builtin__
object
p3
NtRp4
(dp5
S'publisherCity'
p6
VROCKVILLE
p7
sS'reprintAddress'
p8
VLeubner-Metzger, G (reprint author), Univ Freiburg, Inst Biol 2 Pflanzenphysiol, D-79104 Freiburg, Germany.
p9
sS'WC'
p10
VPlant Sciences
p11
sS'GA'
p12
V944GM
p13
sS'abstract'
p14
VThe regulation of water uptake of germinating tobacco (Nicotiana tabacum) seeds was studied spatially and temporally by in vivo H-1-nuclear magnetic resonance (NMR) microimaging and H-1-magic angle spinning NMR spectroscopy. These nondestructive state-of-the- art methods showed that water distribution in the water uptake phases II and III is inhomogeneous. The micropylar seed end is the major entry point of water. The micropylar endosperm and the radicle show the highest hydration. Germination of tobacco follows a distinct pattern of events: rupture of the testa is followed by rupture of the endosperm. Abscisic acid (ABA) specifically inhibits endosperm rupture and phase III water uptake, but does not alter the spatial and temporal pattern of phase I and II water uptake. Testa rupture was associated with an increase in water uptake due to initial embryo elongation, which was not inhibited by ABA. Overexpression of beta-1,3-glucanase in the seed-covering layers of transgenic tobacco seeds did not alter the moisture sorption isotherms or the spatial pattern of water uptake during imbibition, but partially reverted the ABA inhibition of phase III water uptake and of endosperm rupture. In vivo C-13-magic angle spinning NMR spectroscopy showed that seed oil mobilization is not inhibited by ABA. ABA therefore does not inhibit germination by preventing oil mobilization or by decreasing the water-holding capacity of the micropylar endosperm and the radicle. Our results support the proposal that different seed tissues and organs hydrate at different extents and that the micropylar endosperm region of tobacco acts as a water reservoir for the embryo.
p15
sS'pageEnd'
p16
I1551
sS'date'
p17
I2005
sS'documentType'
p18
VArticle
p19
sS'subject'
p20
VPlant Sciences
p21
sS'isoSource'
p22
VPlant Physiol.
p23
sS'timesCited'
p24
(lp25
I60
aVZ9 67
p26
asS'PT'
p27
VJ
sS'title'
p28
VWater Uptake And Distribution In Germinating Tobacco Seeds Investigated In Vivo By Nuclear Magnetic Resonance Imaging
p29
sS'ISSN'
p30
(lp31
V0032-0889
p32
aVJ9 PLANT PHYSIOL
p33
asS'authors_full'
p34
(lp35
(VMANZ
VB
tp36
a(VMULLER
VK
tp37
a(VKUCERA
VB
tp38
a(VVOLKE
VF
tp39
a(VLEUBNERMETZGER
VG
tp40
asS'PG'
p41
I14
sS'PD'
p42
VJUL
p43
sS'pageStart'
p44
I1538
sS'issue'
p45
I3
sS'RI'
p46
VLeubner, Gerhard/A-1999-2013
p47
sS'journal'
p48
VPLANT PHYSIOLOGY
p49
sS'volume'
p50
V138
p51
sS'doi'
p52
V10.1104/pp.105.061663
p53
sS'emailAddress'
p54
Vgerhard.leubner@biologie.uni-freiburg.de
p55
sS'authorAddress'
p56
(lp57
VUniv Freiburg, Inst Biol 2 Pflanzenphysiol, D-79104 Freiburg, Germany.
p58
aVFraunhofer Inst Biomed Tech, Arbeitsgrp Magnet Resonanz, D-66386 St Ingbert, Germany.
p59
asS'publisherAddress'
p60
V15501 MONONA DRIVE, ROCKVILLE, MD 20855 USA
p61
sS'ER'
p62
V
sS'publisher'
p63
VAMER SOC PLANT BIOLOGISTS
p64
sS'authorKeywords'
p65
(lp66
VENDO-BETA-MANNANASE
p67
aVHIGH-RESOLUTION NMR
p68
aVABSCISIC-ACID
p69
aVDORMANCY RELEASE
p70
aVNICOTIANA-PLUMBAGINIFOLIA
p71
aVTRANSCRIPTION FACTOR
p72
aVGENE-EXPRESSION
p73
aVOIL BODIES
p74
aVC-13 NMR
p75
aVARABIDOPSIS
p76
asS'OI'
p77
VLeubner, Gerhard/0000-0002-6045-8713
p78
sS'language'
p79
VEnglish
p80
sS'wosid'
p81
VWOS:000230414800033
p82
sS'citationCount'
p83
I74
sS'authors_init'
p84
(lp85
(VMANZ
VB
tp86
a(VMULLER
VK
tp87
a(VKUCERA
VB
tp88
a(VVOLKE
VF
tp89
a(VLEUBNERMETZGER
VG
tp90
asS'citedReferences'
p91
(lp92
g1
(g2
g3
NtRp93
(dp94
g52
V10.1086/314247
p95
sg48
VINT J PLANT SCI
p96
sg50
V161
p97
sg84
(lp98
(VALLEN
VP S
tp99
asg17
I2000
sg44
V195
p100
sbag1
(g2
g3
NtRp101
(dp102
g52
Nsg48
VASAE STAND
p103
sg50
Nsg84
(lp104
(VAM SOC AGR ENG
S''
tp105
asg17
I2001
sg44
V522
p106
sbag1
(g2
g3
NtRp107
(dp108
g52
V10.2307/2436325
p109
sg48
VAM J BOT
p110
sg50
V20
p111
sg84
(lp112
(VAVERY
VG S
tp113
asg17
I1933
sg44
V309
p114
sbag1
(g2
g3
NtRp115
(dp116
g52
V10.1002/mrc.958
p117
sg48
VMAGN RESON CHEM
p118
sg50
V39
p119
sg84
(lp120
(VBARDET
VM
tp121
asg17
I2001
sg44
V733
p122
sbag1
(g2
g3
NtRp123
(dp124
g52
V10.1016/S1090-7807(02)00175-1
p125
sg48
VJ MAGN RESON
p126
sg50
V160
p127
sg84
(lp128
(VBARDET
VM
tp129
asg17
I2003
sg44
V157
p130
sbag1
(g2
g3
NtRp131
(dp132
g52
V10.1007/BF00392002
p133
sg48
VPLANTA
p134
sg50
V143
p135
sg84
(lp136
(VBERGFELD
VR
tp137
asg17
I1978
sg44
VLANTA
p138
sbag1
(g2
g3
NtRp139
(dp140
g52
V10.1016/S1360-1385(97)01147-3
p141
sg48
VTRENDS PLANT SCI
p142
sg50
V2
sg84
(lp143
(VBEWLEY
VJ D
tp144
asg17
I1997
sg44
V464
p145
sbag1
(g2
g3
NtRp146
(dp147
g52
V10.1105/tpc.9.7.1055
p148
sg48
VPLANT CELL
p149
sg50
V9
sg84
(lp150
(VBEWLEY
VJ D
tp151
asg17
I1997
sg44
VLANT
p152
sbag1
(g2
g3
NtRp153
(dp154
g52
V10.1007/s11103-005-0953-8
p155
sg48
VPLANT MOL BIOL
p156
sg50
V57
p157
sg84
(lp158
(VBOVE
VJ
tp159
asg17
I2005
sg44
VLANT
p160
sbag1
(g2
g3
NtRp161
(dp162
g52
V10.1104/pp.50.1.69
p163
sg48
VPLANT PHYSIOL
p164
sg50
V50
p165
sg84
(lp166
(VBUSH
VP B
tp167
asg17
I1972
sg44
VLANT
p168
sbag1
(g2
g3
NtRp169
(dp170
g52
Nsg48
VPRINCIPLES NUCL MAGN
p171
sg50
Nsg84
(lp172
(VCALLAGHAN
VP T
tp173
asg17
I1991
sg44
VRINCIPLES
p174
sbag1
(g2
g3
NtRp175
(dp176
g52
V10.1093/jexbot/50.337.1359
p177
sg48
VJ EXP BOT
p178
sg50
V50
p179
sg84
(lp180
(VCARRIER
VD J
tp181
asg17
I1999
sg44
V1359
p182
sbag1
(g2
g3
NtRp183
(dp184
g52
V10.1016/0022-474X(87)90025-7
p185
sg48
VJ STORED PROD RES
p186
sg50
V23
p187
sg84
(lp188
(VCHAPMAN
VG W
tp189
asg17
I1987
sg44
V115
p190
sbag1
(g2
g3
NtRp191
(dp192
g52
V10.1016/S0079-6565(97)00005-8
p193
sg48
VPROG NUCL MAG RES SP
p194
sg50
V31
p195
sg84
(lp196
(VCHUDEK
VJ A
tp197
asg17
I1997
sg44
VROG
p198
sbag1
(g2
g3
NtRp199
(dp200
g52
V10.1071/EA01161
p201
sg48
VAUST J EXP AGR
p202
sg50
V42
p203
sg84
(lp204
(VCUNNINGHAM
VD C
tp205
asg17
I2002
sg44
V1081
p206
sbag1
(g2
g3
NtRp207
(dp208
g52
V10.1073/pnas.97.10.5669
p209
sg48
VP NATL ACAD SCI USA
p210
sg50
V97
p211
sg84
(lp212
(VEASTMOND
VP J
tp213
asg17
I2000
sg44
V5669
p214
sbag1
(g2
g3
NtRp215
(dp216
g52
V10.1006/jmra.1996.0185
p217
sg48
VJ MAGN RESON SER A
p218
sg50
V122
p219
sg84
(lp220
(VEIDMANN
VG
tp221
asg17
I1996
sg44
V104
p222
sbag1
(g2
g3
NtRp223
(dp224
g52
V10.1021/jf990724y
p225
sg48
VJ AGR FOOD CHEM
p226
sg50
V48
p227
sg84
(lp228
(VFERNANDEZ-MOYA
VV
tp229
asg17
I2000
sg44
V770
p230
sbag1
(g2
g3
NtRp231
(dp232
g52
V10.1105/tpc.12.4.599
p233
sg48
VPLANT CELL
p234
sg50
V12
p235
sg84
(lp236
(VFINKELSTEIN
VR R
tp237
asg17
I2000
sg44
VLANT
p238
sbag1
(g2
g3
NtRp239
(dp240
g52
Nsg48
VSEED SCI RES
p241
sg50
V8
sg84
(lp242
(VFOUNTAIN
VD W
tp243
asg17
I1998
sg44
V357
p244
sbag1
(g2
g3
NtRp245
(dp246
g52
V10.1007/BF02660305
p247
sg48
VJ AM OIL CHEM SOC
p248
sg50
V68
p249
sg84
(lp250
(VFREGA
VN
tp251
asg17
I1991
sg44
V29
p252
sbag1
(g2
g3
NtRp253
(dp254
g52
V10.1007/PL00008135
p255
sg48
VPLANTA
p256
sg50
V210
p257
sg84
(lp258
(VGRAPPIN
VP
tp259
asg17
I2000
sg44
VLANTA
p260
sbag1
(g2
g3
NtRp261
(dp262
g52
V10.1021/jf0108617
p263
sg48
VJ AGR FOOD CHEM
p264
sg50
V50
p265
sg84
(lp266
(VGRUWEL
VM L H
tp267
asg17
I2002
sg44
V667
p268
sbag1
(g2
g3
NtRp269
(dp270
g52
V10.1093/jxb/erg103
p271
sg48
VJ EXP BOT
p272
sg50
V54
p273
sg84
(lp274
(VHAY
VF R
tp275
asg17
I2003
sg44
V993
p276
sbag1
(g2
g3
NtRp277
(dp278
g52
V10.1111/j.1365-3040.1978.tb00752.x
p279
sg48
VPlant
p280
sg50
V1
sg84
(lp281
(VHEGARTY
VT W
tp282
asg17
I1978
sg44
Vlant
p283
sbag1
(g2
g3
NtRp284
(dp285
g52
V10.1079/SSR2003139
p286
sg48
VSEED SCI RES
p287
sg50
V13
p288
sg84
(lp289
(VHOMRICHHAUSEN
VT M
tp290
asg17
I2003
sg44
V219
p291
sbag1
(g2
g3
NtRp292
(dp293
g52
Nsg48
VJ PLANT PHYSIOL
p294
sg50
V151
p295
sg84
(lp296
(VHOPPE
VA
tp297
asg17
I1997
sg44
V471
p298
sbag1
(g2
g3
NtRp299
(dp300
g52
V10.1093/jxb/48.3.683
p301
sg48
VJ EXP BOT
p302
sg50
V48
p303
sg84
(lp304
(VHOU
VJ Q
tp305
asg17
I1997
sg44
V683
p306
sbag1
(g2
g3
NtRp307
(dp308
g52
V10.1038/336399a0
p309
sg48
VNATURE
p310
sg50
V336
p311
sg84
(lp312
(VJENNER
VC F
tp313
asg17
I1988
sg44
V399
p314
sbag1
(g2
g3
NtRp315
(dp316
g52
V[10.1046/j.1469-8137.2003.00719.x, 10.1046/j.1469-8137.2003.00802.x]
p317
sg48
VNEW PHYTOL
p318
sg50
V158
p319
sg84
(lp320
(VKAMENETSKY
VR
tp321
asg17
I2003
sg44
V109
p322
sbag1
(g2
g3
NtRp323
(dp324
g52
V10.1007/BF02642129
p325
sg48
VJ AM OIL CHEM SOC
p326
sg50
V24
p327
sg84
(lp328
(VKARON
VM L
tp329
asg17
I1947
sg44
V56
p330
sbag1
(g2
g3
NtRp331
(dp332
g52
V10.1111/j.0022-2720.2004.01351.x
p333
sg48
VJ MICROSC
p334
sg50
V214
p335
sg84
(lp336
(VKOCKENBERGER
VW
tp337
asg17
I2004
sg44
V182
p338
sbag1
(g2
g3
NtRp339
(dp340
g52
V10.1016/S1369-5266(01)00219-9
p341
sg48
VCURR OPIN PLANT BIOL
p342
sg50
V5
sg84
(lp343
(VKOORNNEEF
VM
tp344
asg17
I2002
sg44
V33
p345
sbag1
(g2
g3
NtRp346
(dp347
g52
V10.1016/S0730-725X(03)00124-3
p348
sg48
VMAGN RESON IMAGING
p349
sg50
V21
p350
sg84
(lp351
(VKORB
VJ P
tp352
asg17
I2003
sg44
V193
p353
sbag1
(g2
g3
NtRp354
(dp355
g52
V10.1007/s00249-003-0340-9
p356
sg48
VEUR BIOPHYS J BIOPHY
p357
sg50
V33
p358
sg84
(lp359
(VKRISHNAN
VP
tp360
asg17
I2004
sg44
V76
p361
sbag1
(g2
g3
NtRp362
(dp363
g52
V10.1079/SSR2002117
p364
sg48
VSEED SCI RES
p365
sg50
V12
p366
sg84
(lp367
(VKROCK
VB
tp368
asg17
I2002
sg44
V239
p369
sbag1
(g2
g3
NtRp370
(dp371
g52
V10.1016/S0730-725X(98)00030-7
p372
sg48
VMAGN RESON IMAGING
p373
sg50
V16
p374
sg84
(lp375
(VLATORRACA
VG A
tp376
asg17
I1998
sg44
V659
p377
sbag1
(g2
g3
NtRp378
(dp379
g52
V10.1111/j.1365-313X.2004.02284.x
p380
sg48
VPLANT J
p381
sg50
V41
p382
sg84
(lp383
(VLEUBNER-METZGER
VG
tp384
asg17
I2005
sg44
VLANT
p385
sbag1
(g2
g3
NtRp386
(dp387
g52
V10.1007/s00425-002-0837-y
p388
sg48
VPLANTA
p389
sg50
V215
p390
sg84
(lp391
(VLEUBNER-METZGER
VG
tp392
asg17
I2002
sg44
VLANTA
p393
sbag1
(g2
g3
NtRp394
(dp395
g52
V10.1079/SSR2002121
p396
sg48
VSEED SCI RES
p397
sg50
V13
p398
sg84
(lp399
(VLEUBNER-METZGER
VG
tp400
asg17
I2003
sg44
V17
p401
sbag1
(g2
g3
NtRp402
(dp403
g52
Nsg48
VPLANT PHYSIOL
p404
sg50
V109
p405
sg84
(lp406
(VLEUBNER-METZGER
VG
tp407
asg17
I1995
sg44
VLANT
p408
sbag1
(g2
g3
NtRp409
(dp410
g52
V10.1046/j.1365-313x.2000.00773.x
p411
sg48
VPLANT J
p412
sg50
V23
p413
sg84
(lp414
(VLEUBNER-METZGER
VG
tp415
asg17
I2000
sg44
VLANT
p416
sbag1
(g2
g3
NtRp417
(dp418
g52
V10.1073/pnas.081594298
p419
sg48
VP NATL ACAD SCI USA
p420
sg50
V98
p421
sg84
(lp422
(VLOPEZ-MOLINA
VL
tp423
asg17
I2001
sg44
V4782
p424
sbag1
(g2
g3
NtRp425
(dp426
g52
Nsg48
VCURRENT TOPICS PLANT
p427
sg50
V16
p428
sg84
(lp429
(VMACFALL
VJ S
tp430
asg17
I1996
sg44
V33
p431
sbag1
(g2
g3
NtRp432
(dp433
g52
Nsg48
VNMR IMAGING BIOMED
p434
sg50
Nsg84
(lp435
(VMANSFIELD
VP
tp436
asg17
I1982
sg44
Nsbag1
(g2
g3
NtRp437
(dp438
g52
V10.1063/1.869876
p439
sg48
VPHYS FLUIDS
p440
sg50
V11
p441
sg84
(lp442
(VMANZ
VB
tp443
asg17
I1999
sg44
VHYS
p444
sbag1
(g2
g3
NtRp445
(dp446
g52
V10.1002/bit.10782
p447
sg48
VBIOTECHNOL BIOENG
p448
sg50
V84
p449
sg84
(lp450
(VMANZ
VB
tp451
asg17
I2003
sg44
V424
p452
sbag1
(g2
g3
NtRp453
(dp454
g52
Nsg48
VBIOCHEM J
p455
sg50
V148
p456
sg84
(lp457
(VMARRIOTT
VK M
tp458
asg17
I1975
sg44
V139
p459
sbag1
(g2
g3
NtRp460
(dp461
g52
V10.1093/jxb/48.Special_Issue.421
p462
sg48
VJ EXP BOT
p463
sg50
V48
p464
sg84
(lp465
(VMAUREL
VC
tp466
asg17
I1997
sg44
V421
p467
sbag1
(g2
g3
NtRp468
(dp469
g52
Nsg48
VT ASAE
p470
sg50
V34
p471
sg84
(lp472
(VMAZZA
VG
tp473
asg17
I1991
sg44
V534
p474
sbag1
(g2
g3
NtRp475
(dp476
g52
Nsg48
VTobacco Research
p477
sg50
V4
sg84
(lp478
(VMOHAPATRA
VS C
tp479
asg17
I1978
sg44
V41
p480
sbag1
(g2
g3
NtRp481
(dp482
g52
Nsg48
VPRESERVATION STORAGE
p483
sg50
Nsg84
(lp484
(VMULTON
VJ L
tp485
asg17
I1988
sg44
VRESERVATION
p486
sbag1
(g2
g3
NtRp487
(dp488
g52
Nsg48
VRUSS J PLANT PHYSL
p489
sg50
V44
p490
sg84
(lp491
(VOBROUCHEVA
VN V
tp492
asg17
I1997
sg44
V250
p493
sbag1
(g2
g3
NtRp494
(dp495
g52
V10.1016/S0009-2614(98)00169-9
p496
sg48
VCHEM PHYS LETT
p497
sg50
V287
p498
sg84
(lp499
(VPAMPEL
VA
tp500
asg17
I1998
sg44
V468
p501
sbag1
(g2
g3
NtRp502
(dp503
g52
Nsg48
VPLANT CELL
p504
sg50
V16
p505
sg84
(lp506
(VPANFIELD
VS
tp507
asg17
I2004
sg44
VLANT
p508
sbag1
(g2
g3
NtRp509
(dp510
g52
V10.1079/SSR2003132
p511
sg48
VSEED SCI RES
p512
sg50
V13
p513
sg84
(lp514
(VPETRUZZELLI
VL
tp515
asg17
I2003
sg44
V139
p516
sbag1
(g2
g3
NtRp517
(dp518
g52
V10.1016/S0764-4469(97)85004-4
p519
sg48
VCR ACAD SCI III
p520
sg50
V320
p521
sg84
(lp522
(VPOULIQUEN
VD
tp523
asg17
I1997
sg44
V131
p524
sbag1
(g2
g3
NtRp525
(dp526
g52
V10.1016/S0730-725X(01)00279-X
p527
sg48
VMAGN RESON IMAGING
p528
sg50
V19
p529
sg84
(lp530
(VPRADO
VP J
tp531
asg17
I2001
sg44
V505
p532
sbag1
(g2
g3
NtRp533
(dp534
g52
V10.1046/j.1365-313X.2002.01376.x
p535
sg48
VPLANT J
p536
sg50
V31
p537
sg84
(lp538
(VPRITCHARD
VS L
tp539
asg17
I2002
sg44
VLANT
p540
sbag1
(g2
g3
NtRp541
(dp542
g52
Nsg48
VNUCL MAGNETIC RESONA
p543
sg50
V16
p544
sg84
(lp545
(VRATCLIFFE
VR G
tp546
asg17
I1996
sg44
V1
sbag1
(g2
g3
NtRp547
(dp548
g52
V10.1104/pp.102.016840
p549
sg48
VPLANT PHYSIOL
p550
sg50
V131
p551
sg84
(lp552
(VREID
VJ S G
tp553
asg17
I2003
sg44
VLANT
p554
sbag1
(g2
g3
NtRp555
(dp556
g52
Nsg48
VJ HORTIC SCI BIOTECH
p557
sg50
V79
p558
sg84
(lp559
(VROH
VM S
tp560
asg17
I2004
sg44
V645
p561
sbag1
(g2
g3
NtRp562
(dp563
g52
Nsg48
VAdv Exp Med Biol
p564
sg50
V302
p565
sg84
(lp566
(VSCHMIDT
VS J
tp567
asg17
I1991
sg44
V599
p568
sbag1
(g2
g3
NtRp569
(dp570
g52
V10.1046/j.1469-8137.2003.00814.x
p571
sg48
VNEW PHYTOL
p572
sg50
V159
p573
sg84
(lp574
(VSCHNEIDER
VH
tp575
asg17
I2003
sg44
V487
p576
sbag1
(g2
g3
NtRp577
(dp578
g52
V10.1104/pp.125.4.1591
p579
sg48
VPLANT PHYSIOL
p580
sg50
V125
p581
sg84
(lp582
(VSCHOPFER
VP
tp583
asg17
I2001
sg44
VLANT
p584
sbag1
(g2
g3
NtRp585
(dp586
g52
V10.1104/pp.76.1.155
p587
sg48
VPLANT PHYSIOL
p588
sg50
V76
p589
sg84
(lp590
(VSCHOPFER
VP
tp591
asg17
I1984
sg44
VLANT
p592
sbag1
(g2
g3
NtRp593
(dp594
g52
V10.1097/00013414-200403000-00010
p595
sg48
VNEUROSURG QUART
p596
sg50
V14
p597
sg84
(lp598
(VSCHWALB
VJ M
tp599
asg17
I2004
sg44
V60
p600
sbag1
(g2
g3
NtRp601
(dp602
g52
Nsg48
VPostharvest News and Information
p603
sg50
V1
sg84
(lp604
(VSHATADAL
VP
tp605
asg17
I1990
sg44
Vostharvest
p606
sbag1
(g2
g3
NtRp607
(dp608
g52
V10.1104/pp.23.2.201
p609
sg48
VPLANT PHYSIOL
p610
sg50
V23
p611
sg84
(lp612
(VSTILES
VI E
tp613
asg17
I1948
sg44
VLANT
p614
sbag1
(g2
g3
NtRp615
(dp616
g52
V10.1007/s00425-004-1426-z
p617
sg48
VPLANTA
p618
sg50
V221
p619
sg84
(lp620
(VTERSKIKH
VV V
tp621
asg17
I2005
sg44
VLANTA
p622
sbag1
(g2
g3
NtRp623
(dp624
g52
V10.1111/j.1399-3054.1989.tb05994.x
p625
sg48
VPHYSIOL PLANTARUM
p626
sg50
V77
p627
sg84
(lp628
(VVERTUCCI
VC W
tp629
asg17
I1989
sg44
VHYSIOL
p630
sbag1
(g2
g3
NtRp631
(dp632
g52
V10.1016/0009-2614(96)01062-7
p633
sg48
VCHEM PHYS LETT
p634
sg50
V262
p635
sg84
(lp636
(VVOLKE
VF
tp637
asg17
I1996
sg44
V374
p638
sbag1
(g2
g3
NtRp639
(dp640
g52
V10.2307/1931961
p641
sg48
VECOLOGY
p642
sg50
V41
p643
sg84
(lp644
(VWINSTON
VP W
tp645
asg17
I1960
sg44
V232
p646
sbag1
(g2
g3
NtRp647
(dp648
g52
Nsg48
VTHESIS U SAARLANDES
p649
sg50
Nsg84
(lp650
(VWOLTER
VB
tp651
asg17
I2001
sg44
Nsbasb.