ccopy_reg
_reconstructor
p1
(ctethne.classes.paper
Paper
p2
c__builtin__
object
p3
NtRp4
(dp5
S'publisherCity'
p6
VROCKVILLE
p7
sS'reprintAddress'
p8
VHolsters, M (reprint author), State Univ Ghent VIB, Vakgrp Mol Genet, Dept Plantengenet, Karel Lodewijk Ledeganckstr 35, B-9000 Ghent, Belgium.
p9
sS'WC'
p10
VPlant Sciences
p11
sS'GA'
p12
V474TV
p13
sS'abstract'
p14
VThe interaction between the tropical legume Sesbania rostrata and the bacterium Azorhizobium caulinodans results in the formation of nodules on both stem and roots. Stem nodulation was used as a model system to isolate early markers differential display. One of them, Srchi24 is a novel early nodulin whose transcript level increased already 4 h after inoculation. This enhancement depended on Nod factor-producing bacteria. Srchi24 transcript levels were induced also by exogenous cytokinins. In situ hybridization and immunolocalization experiments showed that Srchi24 transcripts and proteins were present in the outermost cortical cell layers of the developing nodules. Sequence analyses revealed that Srchi24 is similar to class III chitinases, but lacks an important catalytic glutamate residue. A fusion between a maltose-binding protein and Srchi24 had no detectable hydrolytic activity. A function in nodulation is proposed for the Srchi24 protein.
p15
sS'pageEnd'
p16
I89
sS'publisherAddress'
p17
V15501 MONONA DRIVE, ROCKVILLE, MD 20855 USA
p18
sS'documentType'
p19
VArticle
p20
sS'subject'
p21
VPlant Sciences
p22
sS'isoSource'
p23
VPlant Physiol.
p24
sS'timesCited'
p25
(lp26
I15
aVZ9 16
p27
asS'PT'
p28
VJ
sS'title'
p29
VSrchi24, A Chitinase Homolog Lacking An Essential Glutamic Acid Residue For Hydrolytic Activity, Is Induced During Nodule Development On Sesbania Rostrata
p30
sS'ISSN'
p31
(lp32
V0032-0889
p33
aVJ9 PLANT PHYSIOL
p34
asS'authors_full'
p35
(lp36
(VGOORMACHTIG
VS
tp37
a(VVAN DE VELDE
VW
tp38
a(VLIEVENS
VS
tp39
a(VVERPLANCKE
VC
tp40
a(VHERMAN
VS
tp41
a(VDE KEYSER
VA
tp42
a(VHOLSTERS
VM
tp43
asS'PG'
p44
I12
sS'PD'
p45
VSEP
p46
sS'pageStart'
p47
I78
sS'issue'
p48
I1
sS'journal'
p49
VPLANT PHYSIOLOGY
p50
sS'volume'
p51
V127
p52
sS'doi'
p53
V10.1104/pp.127.1.78
p54
sS'emailAddress'
p55
Vmahol@gengenp.rug.ac.be
p56
sS'authorAddress'
p57
VState Univ Ghent VIB, Vakgrp Mol Genet, Dept Plantengenet, B-9000 Ghent, Belgium.
p58
sS'date'
p59
I2001
sS'ER'
p60
V
sS'publisher'
p61
VAMER SOC PLANT BIOLOGISTS
p62
sS'authorKeywords'
p63
(lp64
VOLIGOSACCHARIDIC NODRM FACTORS
p65
aVPATHOGENESIS-RELATED PROTEINS
p66
aVCELL-SUSPENSION CULTURES
p67
aVAFFINITY BINDING-SITE
p68
aVMAX L. MERR.
p69
aVAZORHIZOBIUM-CAULINODANS
p70
aVEXPRESSION PATTERNS
p71
aVGLYCOSYL HYDROLASES
p72
aVNODULATION FACTORS
p73
aVPLANT CHITINASES
p74
asS'language'
p75
VEnglish
p76
sS'wosid'
p77
VWOS:000171123700013
p78
sS'citationCount'
p79
I62
sS'authors_init'
p80
(lp81
(VGOORMACHTIG
VS
tp82
a(VVAN DE VELDE
VW
tp83
a(VLIEVENS
VS
tp84
a(VVERPLANCKE
VC
tp85
a(VHERMAN
VS
tp86
a(VDE KEYSER
VA
tp87
a(VHOLSTERS
VM
tp88
asS'citedReferences'
p89
(lp90
g1
(g2
g3
NtRp91
(dp92
g53
Nsg49
VBIOCHEM J
p93
sg51
V322
p94
sg80
(lp95
(VANDERSEN
VM D
tp96
asg59
I1997
sg47
V815
p97
sbag1
(g2
g3
NtRp98
(dp99
g53
V10.1046/j.1365-313X.1996.10010091.x
p100
sg49
VPLANT J
p101
sg51
V10
p102
sg80
(lp103
(VBAUER
VP
tp104
asg59
I1996
sg47
VLANT
p105
sbag1
(g2
g3
NtRp106
(dp107
g53
V10.1016/1369-5266(88)80059-1
p108
sg49
VCURR OPIN PLANT BIOL
p109
sg51
V1
sg80
(lp110
(VBLADERGROEN
VM R
tp111
asg59
I1998
sg47
V353
p112
sbag1
(g2
g3
NtRp113
(dp114
g53
V10.1046/j.1365-313X.1995.7020253.x
p115
sg49
VPLANT J
p116
sg51
V7
sg80
(lp117
(VBONO
VJ J
tp118
asg59
I1995
sg47
VLANT
p119
sbag1
(g2
g3
NtRp120
(dp121
g53
V10.1046/j.1365-313X.1993.t01-1-00999.x
p122
sg49
VPLANT J
p123
sg51
V3
sg80
(lp124
(VCOLLINGE
VD B
tp125
asg59
I1993
sg47
VLANT
p126
sbag1
(g2
g3
NtRp127
(dp128
g53
Nsg49
VPLANT J
p129
sg51
V2
sg80
(lp130
(VDEHIO
VC
tp131
asg59
I1992
sg47
VLANT
p132
sbag1
(g2
g3
NtRp133
(dp134
g53
V10.1046/j.1365-313X.1997.11030407.x
p135
sg49
VPLANT J
p136
sg51
V11
p137
sg80
(lp138
(VDELAPENA
VT C
tp139
asg59
I1997
sg47
VLANT
p140
sbag1
(g2
g3
NtRp141
(dp142
g53
VDOI 10.1007/BF02712670
p143
sg49
VPLANT MOL BIOL REP
p144
sg51
V1
sg80
(lp145
(VDELLAPORTA
VS L
tp146
asg59
I1983
sg47
VLANT
p147
sbag1
(g2
g3
NtRp148
(dp149
g53
Nsg49
VPLANT CELL PHYSIOL
p150
sg51
V39
p151
sg80
(lp152
(VDE
VWILDE C
tp153
asg59
I1998
sg47
VLANT
p154
sbag1
(g2
g3
NtRp155
(dp156
g53
V10.1094/MPMI.1999.12.1.68
p157
sg49
VMOL PLANT MICROBE IN
p158
sg51
V12
p159
sg80
(lp160
(VD'HAEZE
VW
tp161
asg59
I1999
sg47
V68
p162
sbag1
(g2
g3
NtRp163
(dp164
g53
Nsg49
VCAN J BOT
p165
sg51
V62
p166
sg80
(lp167
(VDUHOUX
VE
tp168
asg59
I1984
sg47
V982
p169
sbag1
(g2
g3
NtRp170
(dp171
g53
V10.1073/pnas.96.10.5856
p172
sg49
VP NATL ACAD SCI USA
p173
sg51
V96
p174
sg80
(lp175
(VETZLER
VM E
tp176
asg59
I1999
sg47
V5856
p177
sbag1
(g2
g3
NtRp178
(dp179
g53
V10.1104/pp.116.1.53
p180
sg49
VPLANT PHYSIOL
p181
sg51
V116
p182
sg80
(lp183
(VFANG
VY W
tp184
asg59
I1998
sg47
VLANT
p185
sbag1
(g2
g3
NtRp186
(dp187
g53
V10.1073/pnas.95.21.12724
p188
sg49
VP NATL ACAD SCI USA
p189
sg51
V95
p190
sg80
(lp191
(VFERNANDEZ-LOPEZ
VM
tp192
asg59
I1998
sg47
V12724
p193
sbag1
(g2
g3
NtRp194
(dp195
g53
Nsg49
VMOL GEN GENET
p196
sg51
V219
p197
sg80
(lp198
(VGOETHALS
VK
tp199
asg59
I1989
sg47
V289
p200
sbag1
(g2
g3
NtRp201
(dp202
g53
V10.1094/MPMI.1997.10.3.316
p203
sg49
VMOL PLANT MICROBE IN
p204
sg51
V10
p205
sg80
(lp206
(VGOORMACHTIG
VS
tp207
asg59
I1997
sg47
V316
p208
sbag1
(g2
g3
NtRp209
(dp210
g53
V10.1007/s004250050605
p211
sg49
VPLANTA
p212
sg51
V209
p213
sg80
(lp214
(VGOORMACHTIG
VS
tp215
asg59
I1999
sg47
VLANTA
p216
sbag1
(g2
g3
NtRp217
(dp218
g53
Nsg49
VPLANT CELL
p219
sg51
V10
p220
sg80
(lp221
(VGOORMACHTIG
VS
tp222
asg59
I1998
sg47
VLANT
p223
sbag1
(g2
g3
NtRp224
(dp225
g53
V10.1094/MPMI.1998.11.3.237
p226
sg49
VMOL PLANT MICROBE IN
p227
sg51
V11
p228
sg80
(lp229
(VGOORMACHTIG
VS
tp230
asg59
I1998
sg47
V237
p231
sbag1
(g2
g3
NtRp232
(dp233
g53
V10.1094/MPMI-8-0816
p234
sg49
VMOL PLANT MICROBE IN
p235
sg51
V8
sg80
(lp236
(VGOORMACHTIG
VS
tp237
asg59
I1995
sg47
V816
p238
sbag1
(g2
g3
NtRp239
(dp240
g53
V10.1073/pnas.96.8.4704
p241
sg49
VP NATL ACAD SCI USA
p242
sg51
V96
p243
sg80
(lp244
(VGRESSENT
VF
tp245
asg59
I1999
sg47
V4704
p246
sbag1
(g2
g3
NtRp247
(dp248
g53
Nsg49
VJ BIOL CHEM
p249
sg51
V268
p250
sg80
(lp251
(VHAKALA
VB E
tp252
asg59
I1993
sg47
V25803
p253
sbag1
(g2
g3
NtRp254
(dp255
g53
V10.1007/BF00049334
p256
sg49
VPLANT MOL BIOL
p257
sg51
V30
p258
sg80
(lp259
(VHANFREY
VC
tp260
asg59
I1996
sg47
VLANT
p261
sbag1
(g2
g3
NtRp262
(dp263
g53
Nsg49
VPLANT PHYSIOL
p264
sg51
V105
p265
sg80
(lp266
(VHEIDSTRA
VR
tp267
asg59
I1994
sg47
VLANT
p268
sbag1
(g2
g3
NtRp269
(dp270
g53
Nsg49
VBIOCHEM J
p271
sg51
V316
p272
sg80
(lp273
(VHENRISSAT
VB
tp274
asg59
I1996
sg47
V695
p275
sbag1
(g2
g3
NtRp276
(dp277
g53
Nsg49
VBIOCHEM J
p278
sg51
V280
p279
sg80
(lp280
(VHENRISSAT
VB
tp281
asg59
I1991
sg47
V309
p282
sbag1
(g2
g3
NtRp283
(dp284
g53
V10.1080/713608153
p285
sg49
VCRIT REV PLANT SCI
p286
sg51
V16
p287
sg80
(lp288
(VHIRSCH
VA M
tp289
asg59
I1997
sg47
V361
p290
sbag1
(g2
g3
NtRp291
(dp292
g53
V10.1007/BF00039514
p293
sg49
VPLANT MOL BIOL
p294
sg51
V26
p295
sg80
(lp296
(VHIRSCH
VA M
tp297
asg59
I1994
sg47
VLANT
p298
sbag1
(g2
g3
NtRp299
(dp300
g53
V10.1016/S0168-9452(98)00045-4
p301
sg49
VPLANT SCI
p302
sg51
V134
p303
sg80
(lp304
(VISELI-GAMBONI
VB
tp305
asg59
I1998
sg47
VLANT
p306
sbag1
(g2
g3
NtRp307
(dp308
g53
Nsg49
VDEVELOPMENT
p309
sg51
V126
p310
sg80
(lp311
(VKAWAMURA
VK
tp312
asg59
I1999
sg47
V211
p313
sbag1
(g2
g3
NtRp314
(dp315
g53
V10.1016/0378-1119(94)00756-I
p316
sg49
VGENE
p317
sg51
V153
p318
sg80
(lp319
(VKIRKPATRICK
VR B
tp320
asg59
I1995
sg47
V147
p321
sbag1
(g2
g3
NtRp322
(dp323
g53
V10.1007/BF00042235
p324
sg49
VPLANT MOL BIOL
p325
sg51
V31
p326
sg80
(lp327
(VKRAGH
VK M
tp328
asg59
I1996
sg47
VLANT
p329
sbag1
(g2
g3
NtRp330
(dp331
g53
V10.1038/227680a0
p332
sg49
VNATURE
p333
sg51
V227
p334
sg80
(lp335
(VLAEMMLI
VU K
tp336
asg59
I1970
sg47
V680
p337
sbag1
(g2
g3
NtRp338
(dp339
g53
Nsg49
VPLANT CELL
p340
sg51
V1
sg80
(lp341
(VLOTAN
VT
tp342
asg59
I1989
sg47
VLANT
p343
sbag1
(g2
g3
NtRp344
(dp345
g53
V10.1094/MPMI.1997.10.5.683
p346
sg49
VMOL PLANT MICROBE IN
p347
sg51
V10
p348
sg80
(lp349
(VMERGAERT
VP
tp350
asg59
I1997
sg47
V683
p351
sbag1
(g2
g3
NtRp352
(dp353
g53
V10.1073/pnas.90.4.1551
p354
sg49
VP NATL ACAD SCI USA
p355
sg51
V90
p356
sg80
(lp357
(VMERGAERT
VP
tp358
asg59
I1993
sg47
V1551
p359
sbag1
(g2
g3
NtRp360
(dp361
g53
Nsg49
VINT REV CYTOL
p362
sg51
V132
p363
sg80
(lp364
(VNAGATA
VT
tp365
asg59
I1992
sg47
V1
sbag1
(g2
g3
NtRp366
(dp367
g53
Nsg49
VJ BACTERIOL
p368
sg51
V176
p369
sg80
(lp370
(VNDOYE
VI
tp371
asg59
I1994
sg47
V1060
p372
sbag1
(g2
g3
NtRp373
(dp374
g53
V10.1105/tpc.2.7.673
p375
sg49
VPLANT CELL
p376
sg51
V2
sg80
(lp377
(VNEALE
VA D
tp378
asg59
I1990
sg47
VLANT
p379
sbag1
(g2
g3
NtRp380
(dp381
g53
V10.1073/pnas.88.22.10362
p382
sg49
VP NATL ACAD SCI USA
p383
sg51
V88
p384
sg80
(lp385
(VNEUHAUS
VJ M
tp386
asg59
I1991
sg47
V10362
p387
sbag1
(g2
g3
NtRp388
(dp389
g53
V10.1094/MPMI.1997.10.1.132
p390
sg49
VMOL PLANT MICROBE IN
p391
sg51
V10
p392
sg80
(lp393
(VNIEBEL
VA
tp394
asg59
I1997
sg47
V132
p395
sbag1
(g2
g3
NtRp396
(dp397
g53
V10.1094/MPMI.2000.13.8.799
p398
sg49
VMOL PLANT MICROBE IN
p399
sg51
V13
p400
sg80
(lp401
(VOVTSYNA
VA O
tp402
asg59
I2000
sg47
V799
p403
sbag1
(g2
g3
NtRp404
(dp405
g53
V10.1094/MPMI.2000.13.7.763
p406
sg49
VMOL PLANT MICROBE IN
p407
sg51
V13
p408
sg80
(lp409
(VSALZER
VP
tp410
asg59
I2000
sg47
V763
p411
sbag1
(g2
g3
NtRp412
(dp413
g53
Nsg49
VMOL CLONING LAB MANU
p414
sg51
Nsg80
(lp415
(VSAMBROOK
VJ
tp416
asg59
I1989
sg47
Nsbag1
(g2
g3
NtRp417
(dp418
g53
V10.1073/pnas.74.12.5463
p419
sg49
VP NATL ACAD SCI USA
p420
sg51
V74
p421
sg80
(lp422
(VSANGER
VF
tp423
asg59
I1977
sg47
V5463
p424
sbag1
(g2
g3
NtRp425
(dp426
g53
V10.1038/46058
p427
sg49
VNATURE
p428
sg51
V402
p429
sg80
(lp430
(VSCHAUSER
VL
tp431
asg59
I1999
sg47
V191
p432
sbag1
(g2
g3
NtRp433
(dp434
g53
Nsg49
VJ PLANT PHYSIOL
p435
sg51
V147
p436
sg80
(lp437
(VSCHLESIER
VB
tp438
asg59
I1996
sg47
V665
p439
sbag1
(g2
g3
NtRp440
(dp441
g53
Nsg49
VPLANT PHYSIOL
p442
sg51
V112
p443
sg80
(lp444
(VSILVER
VD L
tp445
asg59
I1996
sg47
VLANT
p446
sbag1
(g2
g3
NtRp447
(dp448
g53
V10.1073/pnas.91.6.2196
p449
sg49
VP NATL ACAD SCI USA
p450
sg51
V91
p451
sg80
(lp452
(VSTAEHELIN
VC
tp453
asg59
I1994
sg47
V2196
p454
sbag1
(g2
g3
NtRp455
(dp456
g53
Nsg49
VPLANT PHYSIOL
p457
sg51
V108
p458
sg80
(lp459
(VSTAEHELIN
VC
tp460
asg59
I1995
sg47
VLANT
p461
sbag1
(g2
g3
NtRp462
(dp463
g53
V10.1111/j.1365-313X.1994.00319.x
p464
sg49
VPLANT J
p465
sg51
V5
sg80
(lp466
(VSTAEHELIN
VC
tp467
asg59
I1994
sg47
VLANT
p468
sbag1
(g2
g3
NtRp469
(dp470
g53
V10.1104/pp.124.2.531
p471
sg49
VPLANT PHYSIOL
p472
sg51
V124
p473
sg80
(lp474
(VSTOUGAARD
VJ
tp475
asg59
I2000
sg47
VLANT
p476
sbag1
(g2
g3
NtRp477
(dp478
g53
Nsg49
VPLANTA
p479
sg51
V196
p480
sg80
(lp481
(VSUBBARAO
VN S
tp482
asg59
I1995
sg47
VLANTA
p483
sbag1
(g2
g3
NtRp484
(dp485
g53
Nsg49
VJ BACTERIOL
p486
sg51
V156
p487
sg80
(lp488
(VTSIEN
VH C
tp489
asg59
I1983
sg47
V888
p490
sbag1
(g2
g3
NtRp491
(dp492
g53
Nsg49
VMOL GEN GENET
p493
sg51
V206
p494
sg80
(lp495
(VVANDENEEDE
VG
tp496
asg59
I1987
sg47
V291
p497
sbag1
(g2
g3
NtRp498
(dp499
g53
Nsg49
VPLANT MOL BIOL REP
p500
sg51
V2
sg80
(lp501
(VVANKAMMEN
VA
tp502
asg59
I1984
sg47
VLANT
p503
sbag1
(g2
g3
NtRp504
(dp505
g53
V10.1073/pnas.94.10.5467
p506
sg49
VP NATL ACAD SCI USA
p507
sg51
V94
p508
sg80
(lp509
(VVANRHIJN
VP
tp510
asg59
I1997
sg47
V5467
p511
sbag1
(g2
g3
NtRp512
(dp513
g53
Nsg49
VIBP HDB
p514
sg51
V15
p515
sg80
(lp516
(VVINCENT
VJ M
tp517
asg59
I1970
sg47
Nsbag1
(g2
g3
NtRp518
(dp519
g53
Nsg49
VEUR J BIOCHEM
p520
sg51
V133
p521
sg80
(lp522
(VVONHEIJNE
VG
tp523
asg59
I1983
sg47
V17
p524
sbag1
(g2
g3
NtRp525
(dp526
g53
Nsg49
VJ BIOL CHEM
p527
sg51
V268
p528
sg80
(lp529
(VWATANABE
VT
tp530
asg59
I1993
sg47
V18567
p531
sbag1
(g2
g3
NtRp532
(dp533
g53
V10.1093/jexbot/50.332.327
p534
sg49
VJ EXP BOT
p535
sg51
V50
p536
sg80
(lp537
(VXIE
VZ P
tp538
asg59
I1999
sg47
V327
p539
sbag1
(g2
g3
NtRp540
(dp541
g53
V10.1023/A:1005921104288
p542
sg49
VPLANT MOL BIOL
p543
sg51
V36
p544
sg80
(lp545
(VYEBOAH
VN A
tp546
asg59
I1998
sg47
VLANT
p547
sbasb.