ccopy_reg
_reconstructor
p1
(ctethne.classes.paper
Paper
p2
c__builtin__
object
p3
NtRp4
(dp5
S'publisherCity'
p6
VROCKVILLE
p7
sS'reprintAddress'
p8
VMoller, BL (reprint author), Univ Copenhagen, Fac Sci, Plant Biochem Lab, DK-1871 Copenhagen C, Denmark.
p9
sS'WC'
p10
VPlant Sciences
p11
sS'GA'
p12
V928RQ
p13
sS'FX'
p14
(lp15
VThis work was supported by the Danish Council for Independent Research,
p16
aVTechnology, and Production Sciences, the Villum Foundation to the
p17
aVresearch center "Pro-Active Plants," and the Center of Synthetic Biology
p18
aVfunded by the UNiversitetsforskningens InvesteringsKapital research
p19
aVinitiative of the Danish Ministry of Science, Technology, and Innovation
p20
aV(to B.L.M. and K.J.), by the Seneca Foundation (project Biologia
p21
aVMolecular de la Cianogenesis en Almendro) and the Spanish Ministry of
p22
aVScience and Innovation (project Mejora Genetica del Almendro; to R.S.-P.
p23
aVand F.D.), and by a postdoctoral fellowship from the Ministry of
p24
aVEducation and Science and a Junta para la Ampliacion de Estudios de
p25
aVDoctores contract from the Consejo Superior de Investigaciones
p26
aVCientificas, Spain (to R.S.-P.).
p27
asS'abstract'
p28
VAmygdalin is a cyanogenic diglucoside and constitutes the bitter component in bitter almond (Prunus dulcis). Amygdalin concentration increases in the course of fruit formation. The monoglucoside prunasin is the precursor of amygdalin. Prunasin may be degraded to hydrogen cyanide, glucose, and benzaldehyde by the action of the beta-glucosidase prunasin hydrolase (PH) and mandelonitirile lyase or be glucosylated to form amygdalin. The tissue and cellular localization of PHs was determined during fruit development in two sweet and two bitter almond cultivars using a specific antibody toward PHs. Confocal studies on sections of tegument, nucellus, endosperm, and embryo showed that the localization of the PH proteins is dependent on the stage of fruit development, shifting between apoplast and symplast in opposite patterns in sweet and bitter cultivars. Two different PH genes, Ph691 and Ph692, have been identified in a sweet and a bitter almond cultivar. Both cDNAs are 86% identical on the nucleotide level, and their encoded proteins are 79% identical to each other. In addition, Ph691 and Ph692 display 92% and 86% nucleotide identity to Ph1 from black cherry (Prunus serotina). Both proteins were predicted to contain an amino-terminal signal peptide, with the size of 26 amino acid residues for PH691 and 22 residues for PH692. The PH activity and the localization of the respective proteins in vivo differ between cultivars. This implies that there might be different concentrations of prunasin available in the seed for amygdalin synthesis and that these differences may determine whether the mature almond develops into bitter or sweet.
p29
sS'pageEnd'
p30
I1932
sS'date'
p31
I2012
sS'documentType'
p32
VArticle
p33
sS'subject'
p34
VPlant Sciences
p35
sS'isoSource'
p36
VPlant Physiol.
p37
sS'timesCited'
p38
(lp39
I1
aVZ9 1
p40
asS'funding'
p41
(lp42
(VDanish Council for Independent Research, Technology, and Production Sciences
Ntp43
a(VVillum Foundation
Ntp44
a(VCenter of Synthetic Biology
Ntp45
a(VUNiversitetsforskningens InvesteringsKapital research initiative of the Danish Ministry of Science, Technology, and Innovation
Ntp46
a(VSeneca Foundation
Ntp47
a(VSpanish Ministry of Science and Innovation
Ntp48
a(VMinistry of Education and Science
Ntp49
a(VJunta para la Ampliacion de Estudios de Doctores
Ntp50
a(VConsejo Superior de Investigaciones Cientificas, Spain
Ntp51
asS'PT'
p52
VJ
sS'title'
p53
VPrunasin Hydrolases During Fruit Development In Sweet And Bitter Almonds
p54
sS'ISSN'
p55
(lp56
V0032-0889
p57
aVJ9 PLANT PHYSIOL
p58
asS'authors_full'
p59
(lp60
(VSANCHEZPEREZ
VRAQUEL
tp61
a(VSAEZ BELMONTE
VFARA
tp62
a(VBORCH
VJONAS
tp63
a(VDICENTA
VFEDERICO
tp64
a(VMOLLER
VBIRGER LINDBERG
tp65
a(VJORGENSEN
VKIRSTEN
tp66
asS'PG'
p67
I17
sS'PD'
p68
VAPR
p69
sS'pageStart'
p70
I1916
sS'issue'
p71
I4
sS'journal'
p72
VPLANT PHYSIOLOGY
p73
sS'volume'
p74
V158
p75
sS'doi'
p76
V10.1104/pp.111.192021
p77
sS'emailAddress'
p78
Vblm@life.ku.dk
p79
sS'authorAddress'
p80
(lp81
V[Sanchez-Perez, Raquel; Moller, Birger Lindberg; Jorgensen, Kirsten] Univ Copenhagen, Fac Sci, Plant Biochem Lab, DK-1871 Copenhagen C, Denmark.
p82
aV[Sanchez-Perez, Raquel; Dicenta, Federico] Consejo Super Invest Cient, Dept Plant Breeding, Ctr Edafol & Biol Aplicada Segura, E-30100 Murcia, Spain.
p83
aV[Saez Belmonte, Fara] Campus Univ Espinardo, Dept Bioimaging, Murcia 30100, Spain.
p84
aV[Borch, Jonas] Univ So Denmark, Dept Biochem & Mol Biol, DK-5230 Odense M, Denmark.
p85
asS'publisherAddress'
p86
V15501 MONONA DRIVE, ROCKVILLE, MD 20855 USA
p87
sS'ER'
p88
V
sS'publisher'
p89
VAMER SOC PLANT BIOLOGISTS
p90
sS'authorKeywords'
p91
(lp92
VCYANOGENIC GLUCOSIDE DHURRIN
p93
aVPRUNUS-SEROTINA
p94
aVSORGHUM-BICOLOR
p95
aVSEEDS
p96
aVBIOSYNTHESIS
p97
aVEXPRESSION
p98
aVKERNELS
p99
aVPLANTS
p100
aVGLUCOSYLTRANSFERASE
p101
aV(R)-AMYGDALIN
p102
asS'language'
p103
VEnglish
p104
sS'wosid'
p105
VWOS:000303001400034
p106
sS'citationCount'
p107
I45
sS'authors_init'
p108
(lp109
(VSANCHEZPEREZ
VR
tp110
a(VBELMONTE
VF S
tp111
a(VBORCH
VJ
tp112
a(VDICENTA
VF
tp113
a(VMOLLER
VB L
tp114
a(VJORGENSEN
VK
tp115
asS'citedReferences'
p116
(lp117
g1
(g2
g3
NtRp118
(dp119
g76
V10.1104/pp.127.4.1750
p120
sg72
VPLANT PHYSIOL
p121
sg74
V127
p122
sg108
(lp123
(VANDREASSON
VE
tp124
asg31
I2001
sg70
VLANT
p125
sbag1
(g2
g3
NtRp126
(dp127
g76
Nsg72
VTHESIS U ALICANTE AL
p128
sg74
Nsg108
(lp129
(VARRAZOLA
VG
tp130
asg31
I2002
sg70
Nsbag1
(g2
g3
NtRp131
(dp132
g76
V10.1104/pp.39.3.331
p133
sg72
VPLANT PHYSIOL
p134
sg74
V39
p135
sg108
(lp136
(VBENYEHOSHUA
VS
tp137
asg31
I1964
sg70
VLANT
p138
sbag1
(g2
g3
NtRp139
(dp140
g76
V10.1146/annurev.pp.31.060180.002245
p141
sg72
VANNU REV PLANT PHYS
p142
sg74
V31
p143
sg108
(lp144
(VCONN
VE E
tp145
asg31
I1980
sg70
V433
p146
sbag1
(g2
g3
NtRp147
(dp148
g76
V10.1021/jf0113070
p149
sg72
VJ AGR FOOD CHEM
p150
sg74
V50
p151
sg108
(lp152
(VDICENTA
VF
tp153
asg31
I2002
sg70
V2149
p154
sbag1
(g2
g3
NtRp155
(dp156
g76
Nsg72
VHORTSCIENCE
p157
sg74
V35
p158
sg108
(lp159
(VDICENTA
VF
tp160
asg31
I2000
sg70
V1153
p161
sbag1
(g2
g3
NtRp162
(dp163
g76
V10.1021/jf030061r
p164
sg72
VJ AGR FOOD CHEM
p165
sg74
V52
p166
sg108
(lp167
(VDOURADO
VF
tp168
asg31
I2004
sg70
V1364
p169
sbag1
(g2
g3
NtRp170
(dp171
g76
V10.1071/FP07275
p172
sg72
VFUNCT PLANT BIOL
p173
sg74
V35
p174
sg108
(lp175
(VFRANKS
VT K
tp176
asg31
I2008
sg70
V236
p177
sbag1
(g2
g3
NtRp178
(dp179
g76
V10.1104/pp.94.1.28
p180
sg72
VPLANT PHYSIOL
p181
sg74
V94
p182
sg108
(lp183
(VFREHNER
VM
tp184
asg31
I1990
sg70
VLANT
p185
sbag1
(g2
g3
NtRp186
(dp187
g76
V10.1016/S0168-9452(00)00423-4
p188
sg72
VPLANT SCI
p189
sg74
V160
p190
sg108
(lp191
(VGERARDI
VC
tp192
asg31
I2001
sg70
VLANT
p193
sbag1
(g2
g3
NtRp194
(dp195
g76
V10.1104/pp.90.4.1552
p196
sg72
VPLANT PHYSIOL
p197
sg74
V90
p198
sg108
(lp199
(VHALKIER
VB A
tp200
asg31
I1989
sg70
VLANT
p201
sbag1
(g2
g3
NtRp202
(dp203
g76
Nsg72
VANN BOT
p204
sg74
V46
p205
sg108
(lp206
(VHAWKER
VJ S
tp207
asg31
I1980
sg70
V313
p208
sbag1
(g2
g3
NtRp209
(dp210
g76
Nsg72
VGENETICS
p211
sg74
V8
sg108
(lp212
(VHEPPNER
VM J
tp213
asg31
I1923
sg70
V390
p214
sbag1
(g2
g3
NtRp215
(dp216
g76
V10.1073/pnas.0709315104
p217
sg72
VP NATL ACAD SCI USA
p218
sg74
V104
p219
sg108
(lp220
(VJENRICH
VR
tp221
asg31
I2007
sg70
V18848
p222
sbag1
(g2
g3
NtRp223
(dp224
g76
V10.1104/pp.110.160754
p225
sg72
VPLANT PHYSIOL
p226
sg74
V155
p227
sg108
(lp228
(VJIN
VS X
tp229
asg31
I2011
sg70
VLANT
p230
sbag1
(g2
g3
NtRp231
(dp232
g76
V10.1074/jbc.274.50.35483
p233
sg72
VJ BIOL CHEM
p234
sg74
V274
p235
sg108
(lp236
(VJONES
VP R
tp237
asg31
I1999
sg70
V35483
p238
sbag1
(g2
g3
NtRp239
(dp240
g76
V10.1007/s001220050988
p241
sg72
VTHEOR APPL GENET
p242
sg74
V97
p243
sg108
(lp244
(VJOOBEUR
VT
tp245
asg31
I1998
sg70
V1034
p246
sbag1
(g2
g3
NtRp247
(dp248
g76
Nsg72
VAdvances in fruit breeding
p249
sg74
Nsg108
(lp250
(VKESTER
VD E
tp251
asg31
I1975
sg70
V387
p252
sbag1
(g2
g3
NtRp253
(dp254
g76
V10.1093/jxb/erm279
p255
sg72
VJ EXP BOT
p256
sg74
V58
p257
sg108
(lp258
(VKRIECHBAUMER
VV
tp259
asg31
I2007
sg70
V4225
p260
sbag1
(g2
g3
NtRp261
(dp262
g76
Nsg72
VJ AM POMOL SOC
p263
sg74
V62
p264
sg108
(lp265
(VMARTINEZ-GOMEZ
VP
tp266
asg31
I2008
sg70
V82
p267
sbag1
(g2
g3
NtRp268
(dp269
g76
Nsg72
VP AM SOC HORTIC SCI
p270
sg74
V59
p271
sg108
(lp272
(VMCCARTY
VC D
tp273
asg31
I1952
sg70
V254
p274
sbag1
(g2
g3
NtRp275
(dp276
g76
V10.1073/pnas.0707368104
p277
sg72
VP NATL ACAD SCI USA
p278
sg74
V104
p279
sg108
(lp280
(VMCCASKILL
VA
tp281
asg31
I2007
sg70
V19619
p282
sbag1
(g2
g3
NtRp283
(dp284
g76
Nsg72
VCR HEBD ACAD SCI
p285
sg74
V253
p286
sg108
(lp287
(VMENTZER
VC
tp288
asg31
I1961
sg70
V1072
p289
sbag1
(g2
g3
NtRp290
(dp291
g76
V10.1007/BF02772805
p292
sg72
VPLANT MOL BIOL REP
p293
sg74
V21
p294
sg108
(lp295
(VMICHIELS
VA
tp296
asg31
I2003
sg70
VLANT
p297
sbag1
(g2
g3
NtRp298
(dp299
g76
Nsg72
VPLANT AMINO ACIDS BI
p300
sg74
Nsg108
(lp301
(VMOLLER
VB L
tp302
asg31
I1991
sg70
VLANT
p303
sbag1
(g2
g3
NtRp304
(dp305
g76
V10.1016/j.phytochem.2007.06.033
p306
sg72
VPHYTOCHEMISTRY
p307
sg74
V69
p308
sg108
(lp309
(VNIELSEN
VK A
tp310
asg31
I2008
sg70
VHYTOCHEMISTRY
p311
sbag1
(g2
g3
NtRp312
(dp313
g76
V10.1007/s11103-005-6217-9
p314
sg72
VPLANT MOL BIOL
p315
sg74
V61
p316
sg108
(lp317
(VPIOTROWSKI
VM
tp318
asg31
I2006
sg70
VLANT
p319
sbag1
(g2
g3
NtRp320
(dp321
g76
V10.1074/jbc.M007890200
p322
sg72
VJ BIOL CHEM
p323
sg74
V276
p324
sg108
(lp325
(VPIOTROWSKI
VM
tp326
asg31
I2001
sg70
V2616
p327
sbag1
(g2
g3
NtRp328
(dp329
g76
Nsg72
VPLANT PHYSIOL
p330
sg74
V104
p331
sg108
(lp332
(VPOULTON
VJ E
tp333
asg31
I1994
sg70
VLANT
p334
sbag1
(g2
g3
NtRp335
(dp336
g76
V10.1104/pp.94.2.401
p337
sg72
VPLANT PHYSIOL
p338
sg74
V94
p339
sg108
(lp340
(VPOULTON
VJ E
tp341
asg31
I1990
sg70
VLANT
p342
sbag1
(g2
g3
NtRp343
(dp344
g76
V10.1021/ac026117i
p345
sg72
VANAL CHEM
p346
sg74
V75
p347
sg108
(lp348
(VRAPPSILBER
VJ
tp349
asg31
I2003
sg70
V663
p350
sbag1
(g2
g3
NtRp351
(dp352
g76
V10.1007/s11295-009-0244-7
p353
sg72
VTREE GENET GENOMES
p354
sg74
V6
sg108
(lp355
(VSANCHEZ-PEREZ
VR
tp356
asg31
I2010
sg70
V237
p357
sbag1
(g2
g3
NtRp358
(dp359
g76
V10.1111/j.1439-0523.2007.01329.x
p360
sg72
VPLANT BREEDING
p361
sg74
V126
p362
sg108
(lp363
(VSANCHEZ-PEREZ
VR
tp364
asg31
I2007
sg70
VLANT
p365
sbag1
(g2
g3
NtRp366
(dp367
g76
V10.1111/j.1365-313X.2009.03997.x
p368
sg72
VPLANT J
p369
sg74
V60
p370
sg108
(lp371
(VSANCHEZ-PEREZ
VR
tp372
asg31
I2009
sg70
VLANT
p373
sbag1
(g2
g3
NtRp374
(dp375
g76
V10.1104/pp.107.112979
p376
sg72
VPLANT PHYSIOL
p377
sg74
V146
p378
sg108
(lp379
(VSANCHEZ-PEREZ
VR
tp380
asg31
I2008
sg70
VLANT
p381
sbag1
(g2
g3
NtRp382
(dp383
g76
Nsg72
VACTA HORTIC
p384
sg74
V375
p385
sg108
(lp386
(VSELMAR
VD
tp387
asg31
I1994
sg70
V61
p388
sbag1
(g2
g3
NtRp389
(dp390
g76
V10.1093/gbe/evq058
p391
sg72
VGENOME BIOL EVOL
p392
sg74
V2
sg108
(lp393
(VSHABALINA
VS A
tp394
asg31
I2010
sg70
V791
p395
sbag1
(g2
g3
NtRp396
(dp397
g76
V10.1038/nprot.2006.468
p398
sg72
VNAT PROTOC
p399
sg74
V1
sg108
(lp400
(VSHEVCHENKO
VA
tp401
asg31
I2006
sg70
V2856
p402
sbag1
(g2
g3
NtRp403
(dp404
g76
V10.1007/s004250050414
p405
sg72
VPLANTA
p406
sg74
V206
p407
sg108
(lp408
(VSUELVES
VM
tp409
asg31
I1998
sg70
VLANTA
p410
sbag1
(g2
g3
NtRp411
(dp412
g76
Nsg72
VPLANT PHYSIOL
p413
sg74
V106
p414
sg108
(lp415
(VSWAIN
VE
tp416
asg31
I1994
sg70
VLANT
p417
sbag1
(g2
g3
NtRp418
(dp419
g76
V10.1104/pp.100.1.291
p420
sg72
VPLANT PHYSIOL
p421
sg74
V100
p422
sg108
(lp423
(VSWAIN
VE
tp424
asg31
I1992
sg70
VLANT
p425
sbag1
(g2
g3
NtRp426
(dp427
g76
Nsg72
VPLANT PHYSIOL
p428
sg74
V106
p429
sg108
(lp430
(VSWAIN
VE
tp431
asg31
I1994
sg70
VLANT
p432
sbag1
(g2
g3
NtRp433
(dp434
g76
Nsg72
VAnales de la Estacion Experimental de Aula Dei 
p435
sg74
V11
p436
sg108
(lp437
(VTABUENCA
VM C
tp438
asg31
I1972
sg70
V325
p439
sbag1
(g2
g3
NtRp440
(dp441
g76
Nsg72
VJ HORTIC SCI BIOTECH
p442
sg74
V83
p443
sg108
(lp444
(VWIRTHENSOHN
VM G
tp445
asg31
I2008
sg70
V462
p446
sbag1
(g2
g3
NtRp447
(dp448
g76
V10.1104/pp.010863
p449
sg72
VPLANT PHYSIOL
p450
sg74
V129
p451
sg108
(lp452
(VZHOU
VJ M
tp453
asg31
I2002
sg70
VLANT
p454
sbasb.