ccopy_reg
_reconstructor
p1
(ctethne.classes.paper
Paper
p2
c__builtin__
object
p3
NtRp4
(dp5
S'publisherCity'
p6
VROCKVILLE
p7
sS'reprintAddress'
p8
VMeir, S (reprint author), Agr Res Org, Volcani Ctr, Dept Postharvest Sci Fresh Produce, IL-50250 Bet Dagan, Israel.
p9
sS'WC'
p10
VPlant Sciences
p11
sS'GA'
p12
V071XI
p13
sS'abstract'
p14
VTo understand how auxin regulates sensitivity of abscission zone (AZ) tissues to ethylene, we used a polymerase chain reaction-based subtractive approach to identify gene transcripts in Mirabilis jalapa AZs that changed in abundance during the time the zones became competent to abscise in response to exogenous ethylene. Transcript expression was then examined in leaf and stem AZs over the period they became ethylene competent following indole-3-acetic acid (IAA) depletion either by leaf deblading, treatment with the IAA transport inhibitor naphthylphthalamic acid, or cutting the stem above a node ( decapitation). Transcripts down-regulated by deblading/decapitation included Mj-Aux/IAA1 and Mj-Aux/IAA2, encoding Aux/IAA proteins, and three other transcripts showing highest identity to a polygalacturonase inhibitor protein, a beta-expansin, and a beta-tubulin. Application of IAA to the cut end of petioles or stumps inhibited abscission, and prevented the decline in the levels of transcripts in both AZs. Transcripts up-regulated in the AZ following deblading/decapitation or treatment with naphthylphthalamic acid were isolated from plants pretreated with 1-methylcyclopropene before deblading to help select against ethylene-induced genes. Some of the up-regulated transcripts showed identity to proteins associated with ethylene or stress responses, while others did not show homology to known sequences. Sucrose infiltration of stem stumps enhanced abscission following ethylene treatment and also enhanced the induction of some of the up-regulated genes. Our results demonstrate a correlation between acquisition of competence to respond to ethylene in both leaf and stem AZs, and decline in abundance of auxin regulatory gene transcripts.
p15
sS'pageEnd'
p16
I1616
sS'date'
p17
I2006
sS'documentType'
p18
VArticle
p19
sS'subject'
p20
VPlant Sciences
p21
sS'isoSource'
p22
VPlant Physiol.
p23
sS'timesCited'
p24
(lp25
I18
aVZ9 20
p26
asS'PT'
p27
VJ
sS'title'
p28
VMolecular Changes Occurring During Acquisition Of Abscission Competence Following Auxin Depletion In Mirabilis Jalapa
p29
sS'ISSN'
p30
(lp31
V0032-0889
p32
aVJ9 PLANT PHYSIOL
p33
asS'authors_full'
p34
(lp35
(VMEIR
VSHIMON
tp36
a(VHUNTER
VDONALD A
tp37
a(VCHEN
VJENCHIH
tp38
a(VHALALY
VVITA
tp39
a(VREID
VMICHAEL S
tp40
asS'PG'
p41
I13
sS'PD'
p42
VAUG
p43
sS'pageStart'
p44
I1604
sS'issue'
p45
I4
sS'RI'
p46
VHunter, Donald/F-8452-2010
p47
sS'journal'
p48
VPLANT PHYSIOLOGY
p49
sS'volume'
p50
V141
p51
sS'doi'
p52
V10.1104/pp.106.079277
p53
sS'emailAddress'
p54
Vshimonm@volcani.agri.gov.il
p55
sS'authorAddress'
p56
(lp57
VAgr Res Org, Volcani Ctr, Dept Postharvest Sci Fresh Produce, IL-50250 Bet Dagan, Israel.
p58
aVNew Zealand Inst Crop & Food Res Ltd, Palmerston North, New Zealand.
p59
aVUniv Calif Davis, Dept Plant Sci, Davis, CA 95616 USA.
p60
asS'publisherAddress'
p61
V15501 MONONA DRIVE, ROCKVILLE, MD 20855 USA
p62
sS'ER'
p63
V
sS'publisher'
p64
VAMER SOC PLANT BIOLOGISTS
p65
sS'authorKeywords'
p66
(lp67
VFLORAL ORGAN ABSCISSION
p68
aVETHYLENE RECEPTOR
p69
aVLEAF ABSCISSION
p70
aVPERIANTH SENESCENCE
p71
aVFLOWER ABSCISSION
p72
aVEXPRESSION
p73
aVTOMATO
p74
aVARABIDOPSIS
p75
aVGENES
p76
aVPLANTS
p77
asS'language'
p78
VEnglish
p79
sS'wosid'
p80
VWOS:000239636800041
p81
sS'citationCount'
p82
I54
sS'authors_init'
p83
(lp84
(VMEIR
VS
tp85
a(VHUNTER
VD A
tp86
a(VCHEN
VJ C
tp87
a(VHALALY
VV
tp88
a(VREID
VM S
tp89
asS'citedReferences'
p90
(lp91
g1
(g2
g3
NtRp92
(dp93
g52
Nsg48
VBIOL PLANT PRAGUE
p94
sg50
V49
p95
sg83
(lp96
(VABEBIE
VB
tp97
asg17
I2005
sg44
VS15
p98
sbag1
(g2
g3
NtRp99
(dp100
g52
Nsg48
VACTA HORTIC
p101
sg50
V682
p102
sg83
(lp103
(VABEBIE
VB
tp104
asg17
I2005
sg44
V789
p105
sbag1
(g2
g3
NtRp106
(dp107
g52
V10.1104/pp.111.1.9
p108
sg48
VPLANT PHYSIOL
p109
sg50
V111
p110
sg83
(lp111
(VABEL
VS
tp112
asg17
I1996
sg44
VLANT
p113
sbag1
(g2
g3
NtRp114
(dp115
g52
V10.1104/pp.39.6.963
p116
sg48
VPLANT PHYSIOL
p117
sg50
V39
p118
sg83
(lp119
(VABELES
VF B
tp120
asg17
I1964
sg44
VLANT
p121
sbag1
(g2
g3
NtRp122
(dp123
g52
Nsg48
VABSCISSION
p124
sg50
Nsg83
(lp125
(VADDICOTT
VF T
tp126
asg17
I1982
sg44
Nsbag1
(g2
g3
NtRp127
(dp128
g52
V10.1006/jmbi.1990.9999
p129
sg48
VJ MOL BIOL
p130
sg50
V215
p131
sg83
(lp132
(VALTSCHUL
VS F
tp133
asg17
I1990
sg44
V403
p134
sbag1
(g2
g3
NtRp135
(dp136
g52
V10.1023/A:1006153502897
p137
sg48
VPLANT GROWTH REGUL
p138
sg50
V27
p139
sg83
(lp140
(VANEJA
VM
tp141
asg17
I1999
sg44
VLANT
p142
sbag1
(g2
g3
NtRp143
(dp144
g52
V10.1104/pp.104.057745
p145
sg48
VPLANT PHYSIOL
p146
sg50
V138
p147
sg83
(lp148
(VBARRY
VC S
tp149
asg17
I2005
sg44
VLANT
p150
sbag1
(g2
g3
NtRp151
(dp152
g52
V10.1086/335314
p153
sg48
VBOT GAZ
p154
sg50
V106
p155
sg83
(lp156
(VBEAL
VJ M
tp157
asg17
I1945
sg44
V420
p158
sbag1
(g2
g3
NtRp159
(dp160
g52
V10.1105/tpc.9.7.1169
p161
sg48
VPLANT CELL
p162
sg50
V9
sg83
(lp163
(VBLEECKER
VA B
tp164
asg17
I1997
sg44
VLANT
p165
sbag1
(g2
g3
NtRp166
(dp167
g52
V10.1023/A:1026598710430
p168
sg48
VTRANSGENIC RES
p169
sg50
V9
sg83
(lp170
(VBREVIARIO
VD
tp171
asg17
I2000
sg44
V383
p172
sbag1
(g2
g3
NtRp173
(dp174
g52
V10.1105/tpc.014365
p175
sg48
VPLANT CELL
p176
sg50
V15
p177
sg83
(lp178
(VBUTENKO
VM A
tp179
asg17
I2003
sg44
VLANT
p180
sbag1
(g2
g3
NtRp181
(dp182
g52
Nsg48
VJ HERED
p183
sg50
V37
p184
sg83
(lp185
(VBUTLER
VL
tp186
asg17
I1936
sg44
V650
p187
sbag1
(g2
g3
NtRp188
(dp189
g52
Nsg48
VJ BIOL CHEM
p190
sg50
V276
p191
sg83
(lp192
(VDAL
VDEGAN F
tp193
asg17
I2001
sg44
V35297
p194
sbag1
(g2
g3
NtRp195
(dp196
g52
V10.1016/j.bbapap.2003.08.012
p197
sg48
VBBA
p198
sg50
V1696
p199
sg83
(lp200
(VD'OVIDIO
VR
tp201
asg17
I2004
sg44
V237
p202
sbag1
(g2
g3
NtRp203
(dp204
g52
V10.1105/tpc.12.2.183
p205
sg48
VPLANT CELL
p206
sg50
V12
p207
sg83
(lp208
(VFERNANDEZ
VD E
tp209
asg17
I2000
sg44
VLANT
p210
sbag1
(g2
g3
NtRp211
(dp212
g52
V10.1016/S0168-9452(03)00063-3
p213
sg48
VPLANT SCI
p214
sg50
V164
p215
sg83
(lp216
(VGOOKIN
VT E
tp217
asg17
I2003
sg44
VLANT
p218
sbag1
(g2
g3
NtRp219
(dp220
g52
Nsg48
VNATURE
p221
sg50
V414
p222
sg83
(lp223
(VGRAY
VW M
tp224
asg17
I2001
sg44
V272
p225
sbag1
(g2
g3
NtRp226
(dp227
g52
V10.1016/S0168-9452(02)00068-7
p228
sg48
VPLANT SCI
p229
sg50
V163
p230
sg83
(lp231
(VHUNTER
VD A
tp232
asg17
I2002
sg44
VLANT
p233
sbag1
(g2
g3
NtRp234
(dp235
g52
Nsg48
VBIOTECHNIQUES
p236
sg50
V25
p237
sg83
(lp238
(VINGELBRECHT
VI L
tp239
asg17
I1998
sg44
V420
p240
sbag1
(g2
g3
NtRp241
(dp242
g52
Nsg48
VGENE DEV
p243
sg50
V14
p244
sg83
(lp245
(VJINN
VT L
tp246
asg17
I2000
sg44
V108
p247
sbag1
(g2
g3
NtRp248
(dp249
g52
V10.1104/pp.104.040998
p250
sg48
VPLANT PHYSIOL
p251
sg50
V135
p252
sg83
(lp253
(VKLEE
VH J
tp254
asg17
I2004
sg44
VLANT
p255
sbag1
(g2
g3
NtRp256
(dp257
g52
V10.1093/jxb/erf062
p258
sg48
VJ EXP BOT
p259
sg50
V53
p260
sg83
(lp261
(VKLEE
VH J
tp262
asg17
I2002
sg44
V2057
p263
sbag1
(g2
g3
NtRp264
(dp265
g52
V10.1016/j.plaphy.2004.07.006
p266
sg48
VPlant Physiology and Biochemistry 
p267
sg50
V42
p268
sg83
(lp269
(VKURODA
VSATOSHI
tp270
asg17
I2004
sg44
Vlant
p271
sbag1
(g2
g3
NtRp272
(dp273
g52
V10.1016/S0981-9428(03)00115-3
p274
sg48
VPLANT PHYSIOL BIOCH
p275
sg50
V41
p276
sg83
(lp277
(VKURODA
VS
tp278
asg17
I2003
sg44
VLANT
p279
sbag1
(g2
g3
NtRp280
(dp281
g52
V10.1093/jexbot/52.354.1
p282
sg48
VJ EXP BOT
p283
sg50
V52
p284
sg83
(lp285
(VLEON
VJ
tp286
asg17
I2001
sg44
V1
sbag1
(g2
g3
NtRp287
(dp288
g52
V10.1016/S1360-1385(03)00011-6
p289
sg48
VTRENDS PLANT SCI
p290
sg50
V8
sg83
(lp291
(VLEON
VP
tp292
asg17
I2003
sg44
V110
p293
sbag1
(g2
g3
NtRp294
(dp295
g52
V10.1146/annurev.arplant.53.100301.135227
p296
sg48
VANNU REV PLANT BIOL
p297
sg50
V53
p298
sg83
(lp299
(VLEYSER
VO
tp300
asg17
I2002
sg44
V377
p301
sbag1
(g2
g3
NtRp302
(dp303
g52
V10.1086/331761
p304
sg48
VBOT GAZ
p305
sg50
V61
p306
sg83
(lp307
(VLLOYD
VF E
tp308
asg17
I1916
sg44
V213
p309
sbag1
(g2
g3
NtRp310
(dp311
g52
V10.1038/35022611
p312
sg48
VNATURE
p313
sg50
V406
p314
sg83
(lp315
(VMAO
VL
tp316
asg17
I2000
sg44
V910
p317
sbag1
(g2
g3
NtRp318
(dp319
g52
V10.1093/jxb/44.4.807
p320
sg48
VJ EXP BOT
p321
sg50
V44
p322
sg83
(lp323
(VMORRIS
VD A
tp324
asg17
I1993
sg44
V807
p325
sbag1
(g2
g3
NtRp326
(dp327
g52
V10.1007/s002990000251
p328
sg48
VPLANT CELL REP
p329
sg50
V19
p330
sg83
(lp331
(VMULLER
VR
tp332
asg17
I2000
sg44
VLANT
p333
sbag1
(g2
g3
NtRp334
(dp335
g52
Nsg48
VJ HORTIC SCI BIOTECH
p336
sg50
V75
p337
sg83
(lp338
(VMULLER
VR
tp339
asg17
I2000
sg44
V12
p340
sbag1
(g2
g3
NtRp341
(dp342
g52
V10.1111/j.1365-313X.2005.02426.x
p343
sg48
VPLANT J
p344
sg50
V43
p345
sg83
(lp346
(VOKUSHIMA
VY
tp347
asg17
I2005
sg44
VLANT
p348
sbag1
(g2
g3
NtRp349
(dp350
g52
V10.1080/07352688909382272
p351
sg48
VCRIT REV PLANT SCI
p352
sg50
V8
sg83
(lp353
(VOSBORNE
VD J
tp354
asg17
I1989
sg44
V103
p355
sbag1
(g2
g3
NtRp356
(dp357
g52
V10.1104/pp.103.028027
p358
sg48
VPLANT PHYSIOL
p359
sg50
V134
p360
sg83
(lp361
(VPATTERSON
VS E
tp362
asg17
I2004
sg44
VLANT
p363
sbag1
(g2
g3
NtRp364
(dp365
g52
V10.1007/BF00040839
p366
sg48
VPLANT MOL BIOL
p367
sg50
V31
p368
sg83
(lp369
(VPAYTON
VS
tp370
asg17
I1996
sg44
VLANT
p371
sbag1
(g2
g3
NtRp372
(dp373
g52
V10.1007/s00425-003-0976-9
p374
sg48
VPLANTA
p375
sg50
V217
p376
sg83
(lp377
(VRIEU
VI
tp378
asg17
I2003
sg44
VLANTA
p379
sbag1
(g2
g3
NtRp380
(dp381
g52
V10.1146/annurev.arplant.53.092701.180236
p382
sg48
VANNU REV PLANT BIOL
p383
sg50
V53
p384
sg83
(lp385
(VROBERTS
VJ A
tp386
asg17
I2002
sg44
V131
p387
sbag1
(g2
g3
NtRp388
(dp389
g52
V10.1104/pp.38.3.262
p390
sg48
VPLANT PHYSIOL
p391
sg50
V38
p392
sg83
(lp393
(VRUBINSTEIN
VB
tp394
asg17
I1963
sg44
VLANT
p395
sbag1
(g2
g3
NtRp396
(dp397
g52
V10.1016/j.pbi.2005.05.008
p398
sg48
VCURR OPIN PLANT BIOL
p399
sg50
V8
sg83
(lp400
(VSCHILMILLER
VA L
tp401
asg17
I2005
sg44
V369
p402
sbag1
(g2
g3
NtRp403
(dp404
g52
V10.1034/j.1399-3054.2000.108003321.x
p405
sg48
VPHYSIOL PLANTARUM
p406
sg50
V108
p407
sg83
(lp408
(VSEXTON
VR
tp409
asg17
I2000
sg44
VHYSIOL
p410
sbag1
(g2
g3
NtRp411
(dp412
g52
Nsg48
VACTA HORTIC
p413
sg50
V463
p414
sg83
(lp415
(VSEXTON
VR
tp416
asg17
I1997
sg44
V435
p417
sbag1
(g2
g3
NtRp418
(dp419
g52
V10.1146/annurev.pp.33.060182.001025
p420
sg48
VANNU REV PLANT PHYS
p421
sg50
V33
p422
sg83
(lp423
(VSEXTON
VR
tp424
asg17
I1982
sg44
V133
p425
sbag1
(g2
g3
NtRp426
(dp427
g52
V10.1034/j.1399-3054.1997.1000320.x
p428
sg48
VPHYSIOL PLANTARUM
p429
sg50
V100
p430
sg83
(lp431
(VSISLER
VE C
tp432
asg17
I1997
sg44
VHYSIOL
p433
sbag1
(g2
g3
NtRp434
(dp435
g52
V10.1046/j.0028-646x.2001.00194.x
p436
sg48
VNEW PHYTOL
p437
sg50
V151
p438
sg83
(lp439
(VTAYLOR
VJ E
tp440
asg17
I2001
sg44
V323
p441
sbag1
(g2
g3
NtRp442
(dp443
g52
Nsg48
VAUST J PLANT PHYSIOL
p444
sg50
V13
p445
sg83
(lp446
(VTREWAVAS
VA
tp447
asg17
I1986
sg44
V447
p448
sbag1
(g2
g3
NtRp449
(dp450
g52
V10.1093/aob/mcf124
p451
sg48
VANN BOT
p452
sg50
V89
p453
sg83
(lp454
(VVAN
VDOORN W G
tp455
asg17
I2002
sg44
V689
p456
sbag1
(g2
g3
NtRp457
(dp458
g52
Nsg48
VAnnals of Botany
p459
sg50
V57
p460
sg83
(lp461
(VWILSON
VP M W
tp462
asg17
I1986
sg44
V511
p463
sbag1
(g2
g3
NtRp464
(dp465
g52
V10.1104/pp.010782
p466
sg48
VPLANT PHYSIOL
p467
sg50
V128
p468
sg83
(lp469
(VWHITELAW
VC A
tp470
asg17
I2002
sg44
VLANT
p471
sbag1
(g2
g3
NtRp472
(dp473
g52
V10.1093/aob/mci083
p474
sg48
VANN BOT
p475
sg50
V95
p476
sg83
(lp477
(VWOODWARD
VA W
tp478
asg17
I2005
sg44
V707
p479
sbag1
(g2
g3
NtRp480
(dp481
g52
V10.1046/j.1365-313x.2000.00703.x
p482
sg48
VPLANT J
p483
sg50
V21
p484
sg83
(lp485
(VWORLEY
VC K
tp486
asg17
I2000
sg44
VLANT
p487
sbag1
(g2
g3
NtRp488
(dp489
g52
V10.1046/j.1365-313x.1999.00483.x
p490
sg48
VPLANT J
p491
sg50
V18
p492
sg83
(lp493
(VZEGZOUTI
VH
tp494
asg17
I1999
sg44
VLANT
p495
sbag1
(g2
g3
NtRp496
(dp497
g52
V10.1007/BF00019564
p498
sg48
VPLANT MOL BIOL
p499
sg50
V30
p500
sg83
(lp501
(VZHOU
VD B
tp502
asg17
I1996
sg44
VLANT
p503
sbasb.