ccopy_reg
_reconstructor
p1
(ctethne.classes.paper
Paper
p2
c__builtin__
object
p3
NtRp4
(dp5
S'publisherCity'
p6
VROCKVILLE
p7
sS'reprintAddress'
p8
VMoffatt, BA (reprint author), Univ Waterloo, Dept Biol, Waterloo, ON N2L 3G1, Canada.
p9
sS'WC'
p10
VPlant Sciences
p11
sS'GA'
p12
V385BV
p13
sS'abstract'
p14
VTo assess the functional significance of adenosine salvage in plants, the cDNAs and genes encoding two isoforms of adenosine kinase (ADK) were isolated from Arabidopsis. The ADK1- and ADK2-coding sequences are very similar, sharing 92% and 89% amino acid and nucleotide identity, respectively. Each cDNA was overexpressed in Escherichia coli, and the catalytic activity of each isoform was determined. Both ADKs had similar catalytic properties with a K-m and V-max/K-m for adenosine of 0.3 to 0.5 muM and 5.4 to 22 L min(-1) mg(-1) protein, respectively. The K-m and V-max/K-m for the cytokinin riboside N-6(isopentenyl) adenosine are 3 to 5 muM and 0.021 to 0.14 L min-l mg-l protein, respectively, suggesting that adenosine is the preferred substrate for both ADK isoforms. In Arabidopsis plants, both ADK genes are expressed constitutively, with the highest steady-state mRNA levels being found in stem and root. ADK1 transcript levels were generally higher than those of ADK2. ADK enzyme activity reflected relative ADK protein levels seen in immunoblots for leaves, flowers, and stems but only poorly so for roots, siliques, and dry seeds. The catalytic properties, tissue accumulation, and expression levels of these ADKs suggest that they play a key metabolic role in the salvage synthesis of adenylates and methyl recycling in Arabidopsis. They may also contribute to cytokinin interconversion.
p15
sS'pageEnd'
p16
I1785
sS'publisherAddress'
p17
V15501 MONONA DRIVE, ROCKVILLE, MD 20855 USA
p18
sS'documentType'
p19
VArticle
p20
sS'subject'
p21
VPlant Sciences
p22
sS'isoSource'
p23
VPlant Physiol.
p24
sS'timesCited'
p25
(lp26
I51
aVZ9 54
p27
asS'PT'
p28
VJ
sS'title'
p29
VAdenosine Kinase Of Arabidopsis. Kinetic Properties And Gene Expression
p30
sS'ISSN'
p31
(lp32
V0032-0889
p33
aVJ9 PLANT PHYSIOL
p34
asS'authors_full'
p35
(lp36
(VMOFFATT
VBA
tp37
a(VWANG
VL
tp38
a(VALLEN
VMS
tp39
a(VSTEVENS
VYY
tp40
a(VQIN
VWS
tp41
a(VSNIDER
VJ
tp42
a(VVON SCHWARTZENBERG
VK
tp43
asS'PG'
p44
I11
sS'PD'
p45
VDEC
p46
sS'pageStart'
p47
I1775
sS'issue'
p48
I4
sS'journal'
p49
VPLANT PHYSIOLOGY
p50
sS'volume'
p51
V124
p52
sS'doi'
p53
V10.1104/pp.124.4.1775
p54
sS'authorAddress'
p55
(lp56
VUniv Waterloo, Dept Biol, Waterloo, ON N2L 3G1, Canada.
p57
aVInst Angew Bot, D-20355 Hamburg, Germany.
p58
asS'date'
p59
I2000
sS'ER'
p60
V
sS'publisher'
p61
VAMER SOC PLANT PHYSIOLOGISTS
p62
sS'authorKeywords'
p63
(lp64
VADENINE PHOSPHORIBOSYLTRANSFERASE
p65
aVPLANT-CELLS
p66
aVTHALIANA
p67
aVCLONING
p68
aVPURIFICATION
p69
aVCDNA
p70
aVIDENTIFICATION
p71
aVCHLOROPLASTS
p72
aVCYTOKININS
p73
aVMETABOLISM
p74
asS'language'
p75
VEnglish
p76
sS'wosid'
p77
VWOS:000165982500040
p78
sS'citationCount'
p79
I39
sS'authors_init'
p80
(lp81
(VMOFFATT
VB A
tp82
a(VWANG
VL
tp83
a(VALLEN
VM S
tp84
a(VSTEVENS
VY Y
tp85
a(VQIN
VW S
tp86
a(VSNIDER
VJ
tp87
a(VVON SCHWARTZENBERG
VK
tp88
asS'citedReferences'
p89
(lp90
g1
(g2
g3
NtRp91
(dp92
g53
Nsg49
VNAR
p93
sg51
V25
p94
sg80
(lp95
(VALTSCHUL
VS F
tp96
asg59
I1997
sg47
V3388
p97
sbag1
(g2
g3
NtRp98
(dp99
g53
V10.1104/pp.59.4.610
p100
sg49
VPLANT PHYSIOL
p101
sg51
V59
p102
sg80
(lp103
(VANDERSON
VJ D
tp104
asg59
I1977
sg47
VLANT
p105
sbag1
(g2
g3
NtRp106
(dp107
g53
Nsg49
VBIOCHEM J
p108
sg51
V174
p109
sg80
(lp110
(VARCH
VJ R S
tp111
asg59
I1978
sg47
V965
p112
sbag1
(g2
g3
NtRp113
(dp114
g53
V10.1002/(SICI)1096-9888(199809)33:9<892::AID-JMS701>3.0.CO;2-N
p115
sg49
VJ MASS SPECTROM
p116
sg51
V33
p117
sg80
(lp118
(VASTOT
VC
tp119
asg59
I1998
sg47
V892
p120
sbag1
(g2
g3
NtRp121
(dp122
g53
V10.1093/nar/27.1.12
p123
sg49
VNUCLEIC ACIDS RES
p124
sg51
V27
p125
sg80
(lp126
(VBENSON
VD A
tp127
asg59
I1999
sg47
V12
p128
sbag1
(g2
g3
NtRp129
(dp130
g53
Nsg49
VJ BIOL CHEM
p131
sg51
V265
p132
sg80
(lp133
(VBLIGNY
VR
tp134
asg59
I1990
sg47
V1319
p135
sbag1
(g2
g3
NtRp136
(dp137
g53
Nsg49
VANAL BIOCHEM
p138
sg51
V72
p139
sg80
(lp140
(VBRADFORD
VM M
tp141
asg59
I1976
sg47
V24
p142
sbag1
(g2
g3
NtRp143
(dp144
g53
Nsg49
VJ BIOL CHEM
p145
sg51
V193
p146
sg80
(lp147
(VCAPUTTO
VR
tp148
asg59
I1951
sg47
V801
p149
sbag1
(g2
g3
NtRp150
(dp151
g53
V10.1104/pp.59.3.443
p152
sg49
VPLANT PHYSIOL
p153
sg51
V59
p154
sg80
(lp155
(VCHEN
VC M
tp156
asg59
I1977
sg47
VLANT
p157
sbag1
(g2
g3
NtRp158
(dp159
g53
V10.1046/j.1365-313X.1995.08050763.x
p160
sg49
VPLANT J
p161
sg51
V8
sg80
(lp162
(VCREUSOT
VF
tp163
asg59
I1995
sg47
VLANT
p164
sbag1
(g2
g3
NtRp165
(dp166
g53
Nsg49
VPLANT PHYSIOL BIOCH
p167
sg51
V35
p168
sg80
(lp169
(VFAYE
VF
tp170
asg59
I1997
sg47
VLANT
p171
sbag1
(g2
g3
NtRp172
(dp173
g53
V10.1146/annurev.bi.47.070178.003255
p174
sg49
VANNU REV BIOCHEM
p175
sg51
V47
p176
sg80
(lp177
(VFOX
VI H
tp178
asg59
I1978
sg47
V655
p179
sbag1
(g2
g3
NtRp180
(dp181
g53
Nsg49
VJ BIOL CHEM
p182
sg51
V267
p183
sg80
(lp184
(VGOUT
VE
tp185
asg59
I1992
sg47
V13903
p186
sbag1
(g2
g3
NtRp187
(dp188
g53
Nsg49
VBIOTECHNIQUES
p189
sg51
V17
p190
sg80
(lp191
(VGU
VJ
tp192
asg59
I1994
sg47
V257
p193
sbag1
(g2
g3
NtRp194
(dp195
g53
V10.1016/0378-1119(83)90230-5
p196
sg49
VGENE
p197
sg51
V25
p198
sg80
(lp199
(VGUBLER
VU
tp200
asg59
I1983
sg47
V263
p201
sbag1
(g2
g3
NtRp202
(dp203
g53
Nsg49
VBIOCHEM MOL BIOL INT
p204
sg51
V39
p205
sg80
(lp206
(VGUPTA
VR S
tp207
asg59
I1996
sg47
V493
p208
sbag1
(g2
g3
NtRp209
(dp210
g53
V10.1016/0003-9861(79)90569-1
p211
sg49
VARCH BIOCHEM BIOPHYS
p212
sg51
V196
p213
sg80
(lp214
(VGURANOWSKI
VA
tp215
asg59
I1979
sg47
V220
p216
sbag1
(g2
g3
NtRp217
(dp218
g53
Nsg49
VBIOCHEM MOL BIOL INT
p219
sg51
V38
p220
sg80
(lp221
(VHAO
VW H
tp222
asg59
I1996
sg47
V889
p223
sbag1
(g2
g3
NtRp224
(dp225
g53
Nsg49
VJ BIOL CHEM
p226
sg51
V193
p227
sg80
(lp228
(VKORNBERG
VA
tp229
asg59
I1951
sg47
V481
p230
sbag1
(g2
g3
NtRp231
(dp232
g53
V10.1016/0304-4165(90)90025-R
p233
sg49
VBIOCHIM BIOPHYS ACTA
p234
sg51
V1036
p235
sg80
(lp236
(VKUBOTA
VK
tp237
asg59
I1990
sg47
V138
p238
sbag1
(g2
g3
NtRp239
(dp240
g53
V10.1016/S0031-9422(00)82332-8
p241
sg49
VPHYTOCHEMISTRY
p242
sg51
V26
p243
sg80
(lp244
(VLALOUE
VM
tp245
asg59
I1987
sg47
VHYTOCHEMISTRY
p246
sbag1
(g2
g3
NtRp247
(dp248
g53
V10.1007/BF00383491
p249
sg49
VMOL GEN GENET
p250
sg51
V194
p251
sg80
(lp252
(VLEUTWILER
VL S
tp253
asg59
I1984
sg47
V15
p254
sbag1
(g2
g3
NtRp255
(dp256
g53
V10.1016/0003-2697(87)90086-8
p257
sg49
VANAL BIOCHEM
p258
sg51
V163
p259
sg80
(lp260
(VLOGEMANN
VJ
tp261
asg59
I1987
sg47
V16
p262
sbag1
(g2
g3
NtRp263
(dp264
g53
V10.1021/bi9815445
p265
sg49
VBIOCHEMISTRY
p266
sg51
V37
p267
sg80
(lp268
(VMATHEWS
VI I
tp269
asg59
I1998
sg47
V15607
p270
sbag1
(g2
g3
NtRp271
(dp272
g53
V10.1104/pp.95.3.900
p273
sg49
VPLANT PHYSIOL
p274
sg51
V95
p275
sg80
(lp276
(VMOFFATT
VB
tp277
asg59
I1991
sg47
VLANT
p278
sbag1
(g2
g3
NtRp279
(dp280
g53
V10.1016/0378-1119(94)90098-1
p281
sg49
VGENE
p282
sg51
V143
p283
sg80
(lp284
(VMOFFATT
VB A
tp285
asg59
I1994
sg47
V211
p286
sbag1
(g2
g3
NtRp287
(dp288
g53
Nsg49
VMETABOLISM NUCLEOTID
p289
sg51
Nsg80
(lp290
(VNYGAARD
VP
tp291
asg59
I1983
sg47
V27
p292
sbag1
(g2
g3
NtRp293
(dp294
g53
Nsg49
VBIOCH PLANTS
p295
sg51
Nsg80
(lp296
(VPOULTON
VJ E
tp297
asg59
I1981
sg47
V667
p298
sbag1
(g2
g3
NtRp299
(dp300
g53
V10.1046/j.1365-313X.1996.9060891.x
p301
sg49
VPLANT J
p302
sg51
V9
sg80
(lp303
(VSCHNORR
VK M
tp304
asg59
I1996
sg47
VLANT
p305
sbag1
(g2
g3
NtRp306
(dp307
g53
Nsg49
VINT J IMMUNOTHER
p308
sg51
V13
p309
sg80
(lp310
(VSCHORLEMMER
VH U
tp311
asg59
I1997
sg47
V1
sbag1
(g2
g3
NtRp312
(dp313
g53
V10.1104/pp.102.2.387
p314
sg49
VPLANT PHYSIOL
p315
sg51
V102
p316
sg80
(lp317
(VSENECOFF
VJ F
tp318
asg59
I1993
sg47
VLANT
p319
sbag1
(g2
g3
NtRp320
(dp321
g53
V10.1111/j.1432-1033.1996.00564.x
p322
sg49
VEUR J BIOCHEM
p323
sg51
V241
p324
sg80
(lp325
(VSINGH
VB
tp326
asg59
I1996
sg47
V564
p327
sbag1
(g2
g3
NtRp328
(dp329
g53
V10.1042/0264-6021:3390667
p330
sg49
VBIOCHEM J
p331
sg51
V339
p332
sg80
(lp333
(VSINHA
VK M
tp334
asg59
I1999
sg47
V667
p335
sbag1
(g2
g3
NtRp336
(dp337
g53
V10.1073/pnas.93.3.1232
p338
sg49
VP NATL ACAD SCI USA
p339
sg51
V93
p340
sg80
(lp341
(VSPYCHALA
VJ
tp342
asg59
I1996
sg47
V1232
p343
sbag1
(g2
g3
NtRp344
(dp345
g53
V10.1104/pp.70.4.971
p346
sg49
VPLANT PHYSIOL
p347
sg51
V70
p348
sg80
(lp349
(VSTITT
VM
tp350
asg59
I1982
sg47
VLANT
p351
sbag1
(g2
g3
NtRp352
(dp353
g53
Nsg49
VPLANT CELL
p354
sg51
V6
sg80
(lp355
(VTJADEN
VG
tp356
asg59
I1994
sg47
VLANT
p357
sbag1
(g2
g3
NtRp358
(dp359
g53
V10.1006/abio.1998.3045
p360
sg49
VANAL BIOCHEM
p361
sg51
V268
p362
sg80
(lp363
(VVICIENT
VC M
tp364
asg59
I1999
sg47
V412
p365
sbag1
(g2
g3
NtRp366
(dp367
g53
Nsg49
VPLANT J
p368
sg51
V13
p369
sg80
(lp370
(VVON
VSCHWARTZENBERG K
tp371
asg59
I1998
sg47
VLANT
p372
sbag1
(g2
g3
NtRp373
(dp374
g53
Nsg49
VINT REV CYTOL
p375
sg51
V134
p376
sg80
(lp377
(VWAGNER
VK G
tp378
asg59
I1992
sg47
V1
sbasb.