ccopy_reg
_reconstructor
p1
(ctethne.classes.paper
Paper
p2
c__builtin__
object
p3
NtRp4
(dp5
S'publisherCity'
p6
VROCKVILLE
p7
sS'reprintAddress'
p8
VCarpita, NC (reprint author), Purdue Univ, Dept Bot & Plant Pathol, W Lafayette, IN 47907 USA.
p9
sS'WC'
p10
VPlant Sciences
p11
sS'GA'
p12
V701QV
p13
sS'FX'
p14
(lp15
VThis work supported by the Center for Direct Catalytic Conversion of
p16
aVBiomass to Biofuels, an Energy Frontier Research Center funded by the
p17
aVU.S. Department of Energy, Office of Science, Office of Basic Energy
p18
aVSciences (award no. DE-SC0000997).
p19
asS'pageEnd'
p20
I184
sS'date'
p21
I2011
sS'documentType'
p22
VArticle
p23
sS'subject'
p24
VPlant Sciences
p25
sS'isoSource'
p26
VPlant Physiol.
p27
sS'timesCited'
p28
(lp29
I20
aVZ9 22
p30
asS'funding'
p31
(lp32
(VU.S. Department of Energy, Office of Science, Office of Basic Energy Sciences
VDE-SC0000997
tp33
asS'PT'
p34
VJ
sS'title'
p35
VUpdate On Mechanisms Of Plant Cell Wall Biosynthesis: How Plants Make Cellulose And Other (1 -> 4)-Beta-D-Glycans
p36
sS'ISSN'
p37
(lp38
V0032-0889
p39
aVJ9 PLANT PHYSIOL
p40
asS'authors_full'
p41
(lp42
(VCARPITA
VNICHOLAS C
tp43
asS'PG'
p44
I14
sS'PD'
p45
VJAN
p46
sS'pageStart'
p47
I171
sS'issue'
p48
I1
sS'journal'
p49
VPLANT PHYSIOLOGY
p50
sS'volume'
p51
V155
p52
sS'doi'
p53
V10.1104/pp.110.163360
p54
sS'emailAddress'
p55
Vcarpita@purdue.edu
p56
sS'authorAddress'
p57
(lp58
V[Carpita, Nicholas C.] Purdue Univ, Dept Bot & Plant Pathol, W Lafayette, IN 47907 USA.
p59
aV[Carpita, Nicholas C.] Purdue Univ, Bindley Biosci Ctr, W Lafayette, IN 47907 USA.
p60
asS'publisherAddress'
p61
V15501 MONONA DRIVE, ROCKVILLE, MD 20855 USA
p62
sS'ER'
p63
V
sS'publisher'
p64
VAMER SOC PLANT BIOLOGISTS
p65
sS'authorKeywords'
p66
(lp67
VMULTOCIDA HYALURONAN SYNTHASE
p68
aVDEVELOPING COTTON FIBERS
p69
aVPISUM-SATIVUM EPICOTYLS
p70
aVBETA-GLUCAN SYNTHETASE
p71
aVARABIDOPSIS-THALIANA
p72
aVMIXED-LINKAGE
p73
aVPLASMA-MEMBRANE
p74
aVSUCROSE SYNTHASE
p75
aVGOLGI MEMBRANES
p76
aVGLUCURONOXYLAN BIOSYNTHESIS
p77
asS'language'
p78
VEnglish
p79
sS'wosid'
p80
VWOS:000285838300021
p81
sS'citationCount'
p82
I150
sS'authors_init'
p83
(lp84
(VCARPITA
VN C
tp85
asS'citedReferences'
p86
(lp87
g1
(g2
g3
NtRp88
(dp89
g53
V10.1073/pnas.92.20.9353
p90
sg49
VP NATL ACAD SCI USA
p91
sg51
V92
p92
sg83
(lp93
(VAMOR
VY
tp94
asg21
I1995
sg47
V9353
p95
sbag1
(g2
g3
NtRp96
(dp97
g53
V10.1126/science.279.5351.717
p98
sg49
VSCIENCE
p99
sg51
V279
p100
sg83
(lp101
(VARIOLI
VT
tp102
asg21
I1998
sg47
V717
p103
sbag1
(g2
g3
NtRp104
(dp105
g53
V10.1074/jbc.M807456200
p106
sg49
VJ BIOL CHEM
p107
sg51
V284
p108
sg83
(lp109
(VATANASSOV
VI I
tp110
asg21
I2009
sg47
V3833
p111
sbag1
(g2
g3
NtRp112
(dp113
g53
V10.1007/BF00388260
p114
sg49
VPLANTA
p115
sg51
V152
p116
sg83
(lp117
(VBACIC
VA
tp118
asg21
I1981
sg47
VLANTA
p119
sbag1
(g2
g3
NtRp120
(dp121
g53
V10.1073/pnas.56.5.1586
p122
sg49
VP NATL ACAD SCI USA
p123
sg51
V56
p124
sg83
(lp125
(VBAILEY
VR W
tp126
asg21
I1966
sg47
V1586
p127
sbag1
(g2
g3
NtRp128
(dp129
g53
V10.1073/pnas.0900689106
p130
sg49
VP NATL ACAD SCI USA
p131
sg51
V106
p132
sg83
(lp133
(VBARRATT
VD H P
tp134
asg21
I2009
sg47
V13124
p135
sbag1
(g2
g3
NtRp136
(dp137
g53
V10.1007/BF01280311
p138
sg49
VPROTOPLASMA
p139
sg51
V215
p140
sg83
(lp141
(VBASKIN
VT I
tp142
asg21
I2001
sg47
VROTOPLASMA
p143
sbag1
(g2
g3
NtRp144
(dp145
g53
V10.1104/pp.51.1.174
p146
sg49
VPLANT PHYSIOL
p147
sg51
V51
p148
sg83
(lp149
(VBAUER
VW D
tp150
asg21
I1973
sg47
VLANT
p151
sbag1
(g2
g3
NtRp152
(dp153
g53
Nsg49
VBIOCHEM J
p154
sg51
V257
p155
sg83
(lp156
(VBAYDOUN
VE A H
tp157
asg21
I1989
sg47
V853
p158
sbag1
(g2
g3
NtRp159
(dp160
g53
V10.1104/pp.102.010603
p161
sg49
VPLANT PHYSIOL
p162
sg51
V130
p163
sg83
(lp164
(VBEECKMAN
VT
tp165
asg21
I2002
sg47
VLANT
p166
sbag1
(g2
g3
NtRp167
(dp168
g53
V10.1111/j.1365-313X.2007.03281.x
p169
sg49
VPLANT J
p170
sg51
V52
p171
sg83
(lp172
(VBERNAL
VA J
tp173
asg21
I2007
sg47
VLANT
p174
sbag1
(g2
g3
NtRp175
(dp176
g53
V10.1073/pnas.040565697
p177
sg49
VP NATL ACAD SCI USA
p178
sg51
V97
p179
sg83
(lp180
(VBLANTON
VR L
tp181
asg21
I2000
sg47
V2391
p182
sbag1
(g2
g3
NtRp183
(dp184
g53
V10.1007/s00709-008-0302-2
p185
sg49
VPROTOPLASMA
p186
sg51
V233
p187
sg83
(lp188
(VBOWLING
VA J
tp189
asg21
I2008
sg47
VROTOPLASMA
p190
sbag1
(g2
g3
NtRp191
(dp192
g53
V10.1105/tpc.105.031542
p193
sg49
VPLANT CELL
p194
sg51
V17
p195
sg83
(lp196
(VBROWN
VD M
tp197
asg21
I2005
sg47
VLANT
p198
sbag1
(g2
g3
NtRp199
(dp200
g53
V10.1111/j.1365-313X.2008.03729.x
p201
sg49
VPLANT J
p202
sg51
V57
p203
sg83
(lp204
(VBROWN
VD M
tp205
asg21
I2009
sg47
VLANT
p206
sbag1
(g2
g3
NtRp207
(dp208
g53
V10.1111/j.1365-313X.2007.03307.x
p209
sg49
VPLANT J
p210
sg51
V52
p211
sg83
(lp212
(VBROWN
VD M
tp213
asg21
I2007
sg47
VLANT
p214
sbag1
(g2
g3
NtRp215
(dp216
g53
V10.1016/S0981-9428(00)00168-6
p217
sg49
VPLANT PHYSIOL BIOCH
p218
sg51
V38
p219
sg83
(lp220
(VBROWN
VR M
tp221
asg21
I2000
sg47
VLANT
p222
sbag1
(g2
g3
NtRp223
(dp224
g53
V10.1016/S0981-9428(00)00162-5
p225
sg49
VPLANT PHYSIOL BIOCH
p226
sg51
V38
p227
sg83
(lp228
(VBUCKERIDGE
VM S
tp229
asg21
I2000
sg47
VLANT
p230
sbag1
(g2
g3
NtRp231
(dp232
g53
V10.1016/S0031-9422(01)00110-8
p233
sg49
VPHYTOCHEMISTRY
p234
sg51
V57
p235
sg83
(lp236
(VBUCKERIDGE
VM S
tp237
asg21
I2001
sg47
VHYTOCHEMISTRY
p238
sbag1
(g2
g3
NtRp239
(dp240
g53
V10.1104/pp.120.4.1105
p241
sg49
VPLANT PHYSIOL
p242
sg51
V120
p243
sg83
(lp244
(VBUCKERIDGE
VM S
tp245
asg21
I1999
sg47
VLANT
p246
sbag1
(g2
g3
NtRp247
(dp248
g53
V10.1094/CCHEM.2004.81.1.115
p249
sg49
VCEREAL CHEM
p250
sg51
V81
p251
sg83
(lp252
(VBUCKERIDGE
VM S
tp253
asg21
I2004
sg47
V115
p254
sbag1
(g2
g3
NtRp255
(dp256
g53
V10.1126/science.1122975
p257
sg49
VSCIENCE
p258
sg51
V311
p259
sg83
(lp260
(VBURTON
VR A
tp261
asg21
I2006
sg47
V1940
p262
sbag1
(g2
g3
NtRp263
(dp264
g53
V10.1046/j.1365-313X.2003.01729.x
p265
sg49
VPLANT J
p266
sg51
V34
p267
sg83
(lp268
(VCANO-DELGADO
VA
tp269
asg21
I2003
sg47
VLANT
p270
sbag1
(g2
g3
NtRp271
(dp272
g53
V10.1126/science.279.5351.672
p273
sg49
VSCIENCE
p274
sg51
V279
p275
sg83
(lp276
(VCARPITA
VN
tp277
asg21
I1998
sg47
V672
p278
sbag1
(g2
g3
NtRp279
(dp280
g53
Nsg49
VPLANT CELL
p281
sg51
V8
sg83
(lp282
(VCARPITA
VN
tp283
asg21
I1996
sg47
VLANT
p284
sbag1
(g2
g3
NtRp285
(dp286
g53
V10.1146/annurev.arplant.47.1.445
p287
sg49
VANNU REV PLANT PHYS
p288
sg51
V47
p289
sg83
(lp290
(VCARPITA
VN C
tp291
asg21
I1996
sg47
V445
p292
sbag1
(g2
g3
NtRp293
(dp294
g53
V10.1104/pp.66.5.911
p295
sg49
VPLANT PHYSIOL
p296
sg51
V66
p297
sg83
(lp298
(VCARPITA
VN C
tp299
asg21
I1980
sg47
VLANT
p300
sbag1
(g2
g3
NtRp301
(dp302
g53
Nsg49
VJ BIOL CHEM
p303
sg51
V256
p304
sg83
(lp305
(VCARPITA
VN C
tp306
asg21
I1981
sg47
V308
p307
sbag1
(g2
g3
NtRp308
(dp309
g53
V10.1016/0008-6215(86)85030-3
p310
sg49
VCARBOHYD RES
p311
sg51
V146
p312
sg83
(lp313
(VCARPITA
VN C
tp314
asg21
I1986
sg47
V129
p315
sbag1
(g2
g3
NtRp316
(dp317
g53
V10.1105/tpc.108.059873
p318
sg49
VPLANT CELL
p319
sg51
V20
p320
sg83
(lp321
(VCAVALIER
VD M
tp322
asg21
I2008
sg47
VLANT
p323
sbag1
(g2
g3
NtRp324
(dp325
g53
V10.1021/bi990270y
p326
sg49
VBIOCHEMISTRY
p327
sg51
V38
p328
sg83
(lp329
(VCHARNOCK
VS J
tp330
asg21
I1999
sg47
V6380
p331
sbag1
(g2
g3
NtRp332
(dp333
g53
V10.1104/pp.125.2.527
p334
sg49
VPLANT PHYSIOL
p335
sg51
V125
p336
sg83
(lp337
(VCHARNOCK
VS J
tp338
asg21
I2001
sg47
VLANT
p339
sbag1
(g2
g3
NtRp340
(dp341
g53
V10.1073/pnas.1012348107
p342
sg49
VP NATL ACAD SCI USA
p343
sg51
V107
p344
sg83
(lp345
(VCHEN
VS L
tp346
asg21
I2010
sg47
V17188
p347
sbag1
(g2
g3
NtRp348
(dp349
g53
V10.1073/pnas.0703133104
p350
sg49
VP NATL ACAD SCI USA
p351
sg51
V104
p352
sg83
(lp353
(VCOCURON
VJ C
tp354
asg21
I2007
sg47
V8550
p355
sbag1
(g2
g3
NtRp356
(dp357
g53
V10.1073/pnas.0900188106
p358
sg49
VP NATL ACAD SCI USA
p359
sg51
V106
p360
sg83
(lp361
(VCOLEMAN
VH D
tp362
asg21
I2009
sg47
V13118
p363
sbag1
(g2
g3
NtRp364
(dp365
g53
V10.1105/tpc.108.065334
p366
sg49
VPLANT CELL
p367
sg51
V21
p368
sg83
(lp369
(VCROWELL
VE F
tp370
asg21
I2009
sg47
VLANT
p371
sbag1
(g2
g3
NtRp372
(dp373
g53
V10.1111/j.1469-8137.2009.02960.x
p374
sg49
VNEW PHYTOL
p375
sg51
V184
p376
sg83
(lp377
(VDARAS
VG
tp378
asg21
I2009
sg47
V114
p379
sbag1
(g2
g3
NtRp380
(dp381
g53
V10.1021/bi00197a001
p382
sg49
VBIOCHEMISTRY
p383
sg51
V33
p384
sg83
(lp385
(VDEANGELIS
VP L
tp386
asg21
I1994
sg47
V9033
p387
sbag1
(g2
g3
NtRp388
(dp389
g53
V10.1104/pp.109.140582
p390
sg49
VPLANT PHYSIOL
p391
sg51
V151
p392
sg83
(lp393
(VDEBOLT
VS
tp394
asg21
I2009
sg47
VLANT
p395
sbag1
(g2
g3
NtRp396
(dp397
g53
Nsg49
VRECENT ADV PHYTOCHEM
p398
sg51
V11
p399
sg83
(lp400
(VDELMER
VD P
tp401
asg21
I1977
sg47
V105
p402
sbag1
(g2
g3
NtRp403
(dp404
g53
V10.1105/tpc.7.7.987
p405
sg49
VPLANT CELL
p406
sg51
V7
sg83
(lp407
(VDELMER
VD P
tp408
asg21
I1995
sg47
VLANT
p409
sbag1
(g2
g3
NtRp410
(dp411
g53
V10.1104/pp.95.2.556
p412
sg49
VPLANT PHYSIOL
p413
sg51
V95
p414
sg83
(lp415
(VDELMER
VD P
tp416
asg21
I1991
sg47
VLANT
p417
sbag1
(g2
g3
NtRp418
(dp419
g53
V10.1073/pnas.79.17.5282
p420
sg49
VP NATL ACAD SCI
p421
sg51
V79
p422
sg83
(lp423
(VDELMER
VD P
tp424
asg21
I1982
sg47
V5282
p425
sbag1
(g2
g3
NtRp426
(dp427
g53
V10.1146/annurev.arplant.50.1.245
p428
sg49
VANNU REV PLANT PHYS
p429
sg51
V50
p430
sg83
(lp431
(VDELMER
VD P
tp432
asg21
I1999
sg47
V245
p433
sbag1
(g2
g3
NtRp434
(dp435
g53
V10.1073/pnas.0706569104
p436
sg49
VP NATL ACAD SCI USA
p437
sg51
V104
p438
sg83
(lp439
(VDESPREZ
VT
tp440
asg21
I2007
sg47
V15572
p441
sbag1
(g2
g3
NtRp442
(dp443
g53
V10.1126/science.1090908
p444
sg49
VSCIENCE
p445
sg51
V303
p446
sg83
(lp447
(VDHUGGA
VK S
tp448
asg21
I2004
sg47
V363
p449
sbag1
(g2
g3
NtRp450
(dp451
g53
V10.1073/pnas.0902019106
p452
sg49
VP NATL ACAD SCI USA
p453
sg51
V106
p454
sg83
(lp455
(VDOBLIN
VM S
tp456
asg21
I2009
sg47
V5996
p457
sbag1
(g2
g3
NtRp458
(dp459
g53
V10.1093/pcp/pcf164
p460
sg49
VPLANT CELL PHYSIOL
p461
sg51
V43
p462
sg83
(lp463
(VDOBLIN
VM S
tp464
asg21
I2002
sg47
VLANT
p465
sbag1
(g2
g3
NtRp466
(dp467
g53
V10.1093/mp/ssp064
p468
sg49
VMOL PLANT
p469
sg51
V2
sg83
(lp470
(VDWIVANY
VF M
tp471
asg21
I2009
sg47
V1025
p472
sbag1
(g2
g3
NtRp473
(dp474
g53
V10.1016/0003-9861(70)90389-9
p475
sg49
VARCH BIOCHEM BIOPHYS
p476
sg51
V138
p477
sg83
(lp478
(VCHAMBERS
VJ
tp479
asg21
I1970
sg47
V620
p480
sbag1
(g2
g3
NtRp481
(dp482
g53
V10.1016/0006-291X(66)90547-X
p483
sg49
VBIOCHEM BIOPH RES CO
p484
sg51
V23
p485
sg83
(lp486
(VELBEIN
VA D
tp487
asg21
I1966
sg47
V311
p488
sbag1
(g2
g3
NtRp489
(dp490
g53
V10.1105/tpc.13.5.1025
p491
sg49
VPLANT CELL
p492
sg51
V13
p493
sg83
(lp494
(VELLIS
VC
tp495
asg21
I2001
sg47
VLANT
p496
sbag1
(g2
g3
NtRp497
(dp498
g53
V10.1105/tpc.12.12.2409
p499
sg49
VPLANT CELL
p500
sg51
V12
p501
sg83
(lp502
(VFAGARD
VM
tp503
asg21
I2000
sg47
VLANT
p504
sbag1
(g2
g3
NtRp505
(dp506
g53
V10.1016/S0960-9822(00)00287-6
p507
sg49
VCURR BIOL
p508
sg51
V10
p509
sg83
(lp510
(VFREEMONT
VP S
tp511
asg21
I2000
sg47
VR84
p512
sbag1
(g2
g3
NtRp513
(dp514
g53
Nsg49
VPHYSIOL PLANTARUM
p515
sg51
V89
p516
sg83
(lp517
(VFRY
VS C
tp518
asg21
I1993
sg47
VHYSIOL
p519
sbag1
(g2
g3
NtRp520
(dp521
g53
V10.1111/j.1469-8137.2008.02435.x
p522
sg49
VNEW PHYTOL
p523
sg51
V179
p524
sg83
(lp525
(VFRY
VS C
tp526
asg21
I2008
sg47
V104
p527
sbag1
(g2
g3
NtRp528
(dp529
g53
V10.1093/pcp/pcp190
p530
sg49
VPLANT CELL PHYSIOL
p531
sg51
V51
p532
sg83
(lp533
(VFUJII
VS
tp534
asg21
I2010
sg47
VLANT
p535
sbag1
(g2
g3
NtRp536
(dp537
g53
V10.1105/tpc.012815
p538
sg49
VPLANT CELL
p539
sg51
V15
p540
sg83
(lp541
(VGARDINER
VJ C
tp542
asg21
I2003
sg47
VLANT
p543
sbag1
(g2
g3
NtRp544
(dp545
g53
V10.1073/pnas.90.9.3850
p546
sg49
VP NATL ACAD SCI USA
p547
sg51
V90
p548
sg83
(lp549
(VGIBEAUT
VD M
tp550
asg21
I1993
sg47
V3850
p551
sbag1
(g2
g3
NtRp552
(dp553
g53
V10.1083/jcb.84.2.327
p554
sg49
VJ CELL BIOL
p555
sg51
V84
p556
sg83
(lp557
(VGIDDINGS
VT H
tp558
asg21
I1980
sg47
V327
p559
sbag1
(g2
g3
NtRp560
(dp561
g53
V10.1104/pp.91.1.373
p562
sg49
VPLANT PHYSIOL
p563
sg51
V91
p564
sg83
(lp565
(VGORDON
VR
tp566
asg21
I1989
sg47
VLANT
p567
sbag1
(g2
g3
NtRp568
(dp569
g53
V10.1126/science.138.3548.1404
p570
sg49
VSCIENCE
p571
sg51
V138
p572
sg83
(lp573
(VGREEN
VP B
tp574
asg21
I1962
sg47
V1404
p575
sbag1
(g2
g3
NtRp576
(dp577
g53
V10.1111/j.1744-7909.2010.00935.x
p578
sg49
VJ INTEGR PLANT BIOL
p579
sg51
V52
p580
sg83
(lp581
(VGUERRIERO
VG
tp582
asg21
I2010
sg47
V161
p583
sbag1
(g2
g3
NtRp584
(dp585
g53
V10.1038/ncb1886
p586
sg49
VNAT CELL BIOL
p587
sg51
V11
p588
sg83
(lp589
(VGUTIERREZ
VR
tp590
asg21
I2009
sg47
V797
p591
sbag1
(g2
g3
NtRp592
(dp593
g53
V10.1007/BF01275709
p594
sg49
VPROTOPLASMA
p595
sg51
V134
p596
sg83
(lp597
(VHAIGLER
VC H
tp598
asg21
I1986
sg47
VROTOPLASMA
p599
sbag1
(g2
g3
NtRp600
(dp601
g53
V10.1104/pp.87.2.341
p602
sg49
VPLANT PHYSIOL
p603
sg51
V87
p604
sg83
(lp605
(VHAYASHI
VT
tp606
asg21
I1988
sg47
VLANT
p607
sbag1
(g2
g3
NtRp608
(dp609
g53
V10.1104/pp.128.2.336
p610
sg49
VPLANT PHYSIOL
p611
sg51
V128
p612
sg83
(lp613
(VHAZEN
VS P
tp614
asg21
I2002
sg47
VLANT
p615
sbag1
(g2
g3
NtRp616
(dp617
g53
V10.1104/pp.108.120147
p618
sg49
VPLANT PHYSIOL
p619
sg51
V147
p620
sg83
(lp621
(VHELD
VM A
tp622
asg21
I2008
sg47
VLANT
p623
sbag1
(g2
g3
NtRp624
(dp625
g53
V10.1007/BF00391020
p626
sg49
VPLANTA
p627
sg51
V164
p628
sg83
(lp629
(VHERTH
VW
tp630
asg21
I1985
sg47
VLANTA
p631
sbag1
(g2
g3
NtRp632
(dp633
g53
V10.1073/pnas.95.25.15102
p634
sg49
VP NATL ACAD SCI USA
p635
sg51
V95
p636
sg83
(lp637
(VHIRAI
VN
tp638
asg21
I1998
sg47
V15102
p639
sbag1
(g2
g3
NtRp640
(dp641
g53
V10.1016/j.carres.2005.04.016
p642
sg49
VCARBOHYD RES
p643
sg51
V340
p644
sg83
(lp645
(VHOFFMAN
VM
tp646
asg21
I2005
sg47
V1826
p647
sbag1
(g2
g3
NtRp648
(dp649
g53
V10.1105/tpc.13.4.755
p650
sg49
VPLANT CELL
p651
sg51
V13
p652
sg83
(lp653
(VHONG
VZ L
tp654
asg21
I2001
sg47
VLANT
p655
sbag1
(g2
g3
NtRp656
(dp657
g53
V10.1042/BJ20030145
p658
sg49
VBIOCHEM J
p659
sg51
V374
p660
sg83
(lp661
(VIMAI
VT
tp662
asg21
I2003
sg47
V755
p663
sbag1
(g2
g3
NtRp664
(dp665
g53
V10.1073/pnas.0605098103
p666
sg49
VP NATL ACAD SCI USA
p667
sg51
V103
p668
sg83
(lp669
(VJACOB-WILK
VD
tp670
asg21
I2006
sg47
V12191
p671
sbag1
(g2
g3
NtRp672
(dp673
g53
V10.1093/glycob/10.9.883
p674
sg49
VGLYCOBIOLOGY
p675
sg51
V10
p676
sg83
(lp677
(VJING
VW
tp678
asg21
I2000
sg47
V883
p679
sbag1
(g2
g3
NtRp680
(dp681
g53
V10.1007/s10570-007-9116-1
p682
sg49
VCELLULOSE
p683
sg51
V14
p684
sg83
(lp685
(VKENNEDY
VC J
tp686
asg21
I2007
sg47
V235
p687
sbag1
(g2
g3
NtRp688
(dp689
g53
V10.1093/jxb/erp322
p690
sg49
VJ EXP BOT
p691
sg51
V61
p692
sg83
(lp693
(VKLEPEK
VY S
tp694
asg21
I2010
sg47
V537
p695
sbag1
(g2
g3
NtRp696
(dp697
g53
V10.1111/j.1365-313X.2007.03306.x
p698
sg49
VPLANT J
p699
sg51
V53
p700
sg83
(lp701
(VKONOPKA
VC A
tp702
asg21
I2008
sg47
VLANT
p703
sbag1
(g2
g3
NtRp704
(dp705
g53
V10.1073/pnas.94.17.9091
p706
sg49
VP NATL ACAD SCI USA
p707
sg51
V94
p708
sg83
(lp709
(VKOYAMA
VM
tp710
asg21
I1997
sg47
V9091
p711
sbag1
(g2
g3
NtRp712
(dp713
g53
V10.1104/pp.115.2.643
p714
sg49
VPLANT PHYSIOL
p715
sg51
V115
p716
sg83
(lp717
(VKUDLICKA
VK
tp718
asg21
I1997
sg47
VLANT
p719
sbag1
(g2
g3
NtRp720
(dp721
g53
V10.1073/pnas.162077099
p722
sg49
VP NATL ACAD SCI USA
p723
sg51
V99
p724
sg83
(lp725
(VKUREK
VI
tp726
asg21
I2002
sg47
V11109
p727
sbag1
(g2
g3
NtRp728
(dp729
g53
V10.1007/s004250000499
p730
sg49
VPLANTA
p731
sg51
V213
p732
sg83
(lp733
(VKUROYAMA
VH
tp734
asg21
I2001
sg47
VLANTA
p735
sbag1
(g2
g3
NtRp736
(dp737
g53
V10.1074/jbc.M203530200
p738
sg49
VJ BIOL CHEM
p739
sg51
V277
p740
sg83
(lp741
(VLAI-KEE-HIM
VJ
tp742
asg21
I2002
sg47
V36931
p743
sbag1
(g2
g3
NtRp744
(dp745
g53
V10.1023/B:PLAN.0000019074.60542.6c
p746
sg49
VPlant Mol Biol
p747
sg51
V53
p748
sg83
(lp749
(VLAO
VN G A T
tp750
asg21
I2003
sg47
Vlant
p751
sbag1
(g2
g3
NtRp752
(dp753
g53
V10.1083/jcb.19.1.239
p754
sg49
VJ CELL BIOL
p755
sg51
V19
p756
sg83
(lp757
(VLEDBETTER
VM C
tp758
asg21
I1963
sg47
V239
p759
sbag1
(g2
g3
NtRp760
(dp761
g53
V10.1093/pcp/pcm155
p762
sg49
VPLANT CELL PHYSIOL
p763
sg51
V48
p764
sg83
(lp765
(VLEE
VC H
tp766
asg21
I2007
sg47
VLANT
p767
sbag1
(g2
g3
NtRp768
(dp769
g53
V10.1016/j.pbi.2006.09.009
p770
sg49
VCURR OPIN PLANT BIOL
p771
sg51
V9
sg83
(lp772
(VLEROUXEL
VO
tp773
asg21
I2006
sg47
V621
p774
sbag1
(g2
g3
NtRp775
(dp776
g53
V10.1104/pp.106.093989
p777
sg49
VPLANT PHYSIOL
p778
sg51
V143
p779
sg83
(lp780
(VLIEPMAN
VA H
tp781
asg21
I2007
sg47
VLANT
p782
sbag1
(g2
g3
NtRp783
(dp784
g53
V10.1073/pnas.0409179102
p785
sg49
VP NATL ACAD SCI USA
p786
sg51
V102
p787
sg83
(lp788
(VLIEPMAN
VA H
tp789
asg21
I2005
sg47
V2221
p790
sbag1
(g2
g3
NtRp791
(dp792
g53
V10.1105/tpc.009837
p793
sg49
VPLANT CELL
p794
sg51
V15
p795
sg83
(lp796
(VMADSON
VM
tp797
asg21
I2003
sg47
VLANT
p798
sbag1
(g2
g3
NtRp799
(dp800
g53
V10.1038/325641a0
p801
sg49
VNATURE
p802
sg51
V325
p803
sg83
(lp804
(VMAIDEN
VM C J
tp805
asg21
I1987
sg47
V641
p806
sbag1
(g2
g3
NtRp807
(dp808
g53
V10.1104/pp.106.094995
p809
sg49
VPLANT PHYSIOL
p810
sg51
V144
p811
sg83
(lp812
(VMITCHELL
VR A C
tp813
asg21
I2007
sg47
VLANT
p814
sbag1
(g2
g3
NtRp815
(dp816
g53
V10.1083/jcb.84.2.315
p817
sg49
VJ CELL BIOL
p818
sg51
V84
p819
sg83
(lp820
(VMUELLER
VS C
tp821
asg21
I1980
sg47
V315
p822
sbag1
(g2
g3
NtRp823
(dp824
g53
V10.1126/science.1086716
p825
sg49
VSCIENCE
p826
sg51
V301
p827
sg83
(lp828
(VNISHIMURA
VM T
tp829
asg21
I2003
sg47
V969
p830
sbag1
(g2
g3
NtRp831
(dp832
g53
Nsg49
VJ BIOL CHEM
p833
sg51
V266
p834
sg83
(lp835
(VNISHITANI
VK
tp836
asg21
I1991
sg47
V6539
p837
sbag1
(g2
g3
NtRp838
(dp839
g53
V10.1104/pp.127.2.529
p840
sg49
VPLANT PHYSIOL
p841
sg51
V127
p842
sg83
(lp843
(VNOBLES
VD R
tp844
asg21
I2001
sg47
VLANT
p845
sbag1
(g2
g3
NtRp846
(dp847
g53
V10.1105/tpc.104.023150
p848
sg49
VPLANT CELL
p849
sg51
V16
p850
sg83
(lp851
(VNUHSE
VT S
tp852
asg21
I2004
sg47
VLANT
p853
sbag1
(g2
g3
NtRp854
(dp855
g53
V10.1093/mp/ssp046
p856
sg49
VMOL PLANT
p857
sg51
V2
sg83
(lp858
(VOBEL
VN
tp859
asg21
I2009
sg47
V922
p860
sbag1
(g2
g3
NtRp861
(dp862
g53
V10.1080/11263500500059819
p863
sg49
VPLANT BIOSYST
p864
sg51
V139
p865
sg83
(lp866
(VORELLANA
VA
tp867
asg21
I2005
sg47
VLANT
p868
sbag1
(g2
g3
NtRp869
(dp870
g53
Nsg49
VMICROBIOL MOL BIOL R
p871
sg51
V62
p872
sg83
(lp873
(VPAO
VS S
tp874
asg21
I1998
sg47
V1
sbag1
(g2
g3
NtRp875
(dp876
g53
V10.1126/science.1126551
p877
sg49
VSCIENCE
p878
sg51
V312
p879
sg83
(lp880
(VPAREDEZ
VA R
tp881
asg21
I2006
sg47
V1491
p882
sbag1
(g2
g3
NtRp883
(dp884
g53
V10.1073/pnas.93.22.12637
p885
sg49
VP NATL ACAD SCI USA
p886
sg51
V93
p887
sg83
(lp888
(VPEAR
VJ R
tp889
asg21
I1996
sg47
V12637
p890
sbag1
(g2
g3
NtRp891
(dp892
g53
V10.1093/glycob/cwn078
p893
sg49
VGLYCOBIOLOGY
p894
sg51
V18
p895
sg83
(lp896
(VPENA
VM J
tp897
asg21
I2008
sg47
V891
p898
sbag1
(g2
g3
NtRp899
(dp900
g53
V10.1105/tpc.106.049320
p901
sg49
VPLANT CELL
p902
sg51
V19
p903
sg83
(lp904
(VPENA
VM J
tp905
asg21
I2007
sg47
VLANT
p906
sbag1
(g2
g3
NtRp907
(dp908
g53
V10.1126/science.1064281
p909
sg49
VSCIENCE
p910
sg51
V295
p911
sg83
(lp912
(VPENG
VL C
tp913
asg21
I2002
sg47
V147
p914
sbag1
(g2
g3
NtRp915
(dp916
g53
V10.1104/pp.126.3.981
p917
sg49
VPLANT PHYSIOL
p918
sg51
V126
p919
sg83
(lp920
(VPENG
VL C
tp921
asg21
I2001
sg47
VLANT
p922
sbag1
(g2
g3
NtRp923
(dp924
g53
V10.1104/pp.109.136804
p925
sg49
VPLANT PHYSIOL
p926
sg51
V151
p927
sg83
(lp928
(VPENNING
VB W
tp929
asg21
I2009
sg47
VLANT
p930
sbag1
(g2
g3
NtRp931
(dp932
g53
V10.1126/science.284.5422.1976
p933
sg49
VSCIENCE
p934
sg51
V284
p935
sg83
(lp936
(VPERRIN
VR M
tp937
asg21
I1999
sg47
V1976
p938
sbag1
(g2
g3
NtRp939
(dp940
g53
Nsg49
VPLANTA
p941
sg51
V190
p942
sg83
(lp943
(VPIRO
VG
tp944
asg21
I1993
sg47
VLANTA
p945
sbag1
(g2
g3
NtRp946
(dp947
g53
V10.1104/pp.003400
p948
sg49
VPLANT PHYSIOL
p949
sg51
V130
p950
sg83
(lp951
(VPORCHIA
VA C
tp952
asg21
I2002
sg47
VLANT
p953
sbag1
(g2
g3
NtRp954
(dp955
g53
V10.1034/j.1399-3054.2000.1100309.x
p956
sg49
VPHYSIOL PLANTARUM
p957
sg51
V110
p958
sg83
(lp959
(VPORCHIA
VA C
tp960
asg21
I2000
sg47
VHYSIOL
p961
sbag1
(g2
g3
NtRp962
(dp963
g53
V10.1073/pnas.64.2.605
p964
sg49
VP NATL ACAD SCI USA
p965
sg51
V64
p966
sg83
(lp967
(VRAY
VP M
tp968
asg21
I1969
sg47
V605
p969
sbag1
(g2
g3
NtRp970
(dp971
g53
V10.1016/0304-4165(80)90149-X
p972
sg49
VBIOCHIM BIOPHYS ACTA
p973
sg51
V629
p974
sg83
(lp975
(VRAY
VP M
tp976
asg21
I1980
sg47
V431
p977
sbag1
(g2
g3
NtRp978
(dp979
g53
V10.1111/j.1365-2958.1995.tb02400.x
p980
sg49
VMOL MICROBIOL
p981
sg51
V16
p982
sg83
(lp983
(VREIFENBERGER
VE
tp984
asg21
I1995
sg47
V157
p985
sbag1
(g2
g3
NtRp986
(dp987
g53
V10.1104/pp.124.2.495
p988
sg49
VPLANT PHYSIOL
p989
sg51
V124
p990
sg83
(lp991
(VRICHMOND
VT A
tp992
asg21
I2000
sg47
VLANT
p993
sbag1
(g2
g3
NtRp994
(dp995
g53
V10.1105/tpc.105.036228
p996
sg49
VPLANT CELL
p997
sg51
V17
p998
sg83
(lp999
(VROBERT
VS
tp1000
asg21
I2005
sg47
VLANT
p1001
sbag1
(g2
g3
NtRp1002
(dp1003
g53
V10.1128/EC.1.6.847-855.2002
p1004
sg49
VEUKARYOT CELL
p1005
sg51
V1
sg83
(lp1006
(VROBERTS
VA W
tp1007
asg21
I2002
sg47
V847
p1008
sbag1
(g2
g3
NtRp1009
(dp1010
g53
Nsg49
VJ BACTERIOL
p1011
sg51
V177
p1012
sg83
(lp1013
(VSAXENA
VI M
tp1014
asg21
I1995
sg47
V1419
p1015
sbag1
(g2
g3
NtRp1016
(dp1017
g53
V10.1016/S0031-9422(01)00048-6
p1018
sg49
VPHYTOCHEMISTRY
p1019
sg51
V57
p1020
sg83
(lp1021
(VSAXENA
VI M
tp1022
asg21
I2001
sg47
VHYTOCHEMISTRY
p1023
sbag1
(g2
g3
NtRp1024
(dp1025
g53
V10.1093/aob/mci155
p1026
sg49
VANN BOT
p1027
sg51
V96
p1028
sg83
(lp1029
(VSAXENA
VI M
tp1030
asg21
I2005
sg47
V9
sbag1
(g2
g3
NtRp1031
(dp1032
g53
V10.1146/annurev-arplant-042809-112315
p1033
sg49
VANNU REV PLANT BIOL
p1034
sg51
V61
p1035
sg83
(lp1036
(VSCHELLER
VH V
tp1037
asg21
I2010
sg47
V263
p1038
sbag1
(g2
g3
NtRp1039
(dp1040
g53
V10.1046/j.1365-313x.2000.00935.x
p1041
sg49
VPLANT J
p1042
sg51
V24
p1043
sg83
(lp1044
(VSHERSON
VS M
tp1045
asg21
I2000
sg47
VLANT
p1046
sbag1
(g2
g3
NtRp1047
(dp1048
g53
V10.1016/0008-6215(96)00142-5
p1049
sg49
VCARBOHYD RES
p1050
sg51
V293
p1051
sg83
(lp1052
(VSIMS
VI M
tp1053
asg21
I1996
sg47
V147
p1054
sbag1
(g2
g3
NtRp1055
(dp1056
g53
V10.1146/annurev.cellbio.22.022206.160206
p1057
sg49
VANNU REV CELL DEV BI
p1058
sg51
V22
p1059
sg83
(lp1060
(VSOMERVILLE
VC
tp1061
asg21
I2006
sg47
V53
p1062
sbag1
(g2
g3
NtRp1063
(dp1064
g53
V10.1111/j.1365-313X.2008.03453.x
p1065
sg49
VPLANT J
p1066
sg51
V54
p1067
sg83
(lp1068
(VSORENSEN
VI
tp1069
asg21
I2008
sg47
VLANT
p1070
sbag1
(g2
g3
NtRp1071
(dp1072
g53
V10.1016/j.cub.2009.07.056
p1073
sg49
VCURR BIOL
p1074
sg51
V19
p1075
sg83
(lp1076
(VSZYMANSKI
VD B
tp1077
asg21
I2009
sg47
VR800
p1078
sbag1
(g2
g3
NtRp1079
(dp1080
g53
V10.1111/j.1469-8137.2008.02385.x
p1081
sg49
VNEW PHYTOL
p1082
sg51
V178
p1083
sg83
(lp1084
(VTAYLOR
VN G
tp1085
asg21
I2008
sg47
V239
p1086
sbag1
(g2
g3
NtRp1087
(dp1088
g53
V10.1105/tpc.12.12.2529
p1089
sg49
VPLANT CELL
p1090
sg51
V12
p1091
sg83
(lp1092
(VTAYLOR
VN G
tp1093
asg21
I2000
sg47
VLANT
p1094
sbag1
(g2
g3
NtRp1095
(dp1096
g53
V10.1073/pnas.0337628100
p1097
sg49
VP NATL ACAD SCI USA
p1098
sg51
V100
p1099
sg83
(lp1100
(VTAYLOR
VN G
tp1101
asg21
I2003
sg47
V1450
p1102
sbag1
(g2
g3
NtRp1103
(dp1104
g53
Nsg49
VNATURE
p1105
sg51
V408
p1106
sg83
(lp1107
(VKAUL
VS
tp1108
asg21
I2000
sg47
V796
p1109
sbag1
(g2
g3
NtRp1110
(dp1111
g53
V10.1016/j.febslet.2009.02.035
p1112
sg49
VFEBS LETT
p1113
sg51
V583
p1114
sg83
(lp1115
(VTIMMERS
VJ
tp1116
asg21
I2009
sg47
V978
p1117
sbag1
(g2
g3
NtRp1118
(dp1119
g53
V10.1016/j.carbpol.2006.03.032
p1120
sg49
VCARBOHYD POLYM
p1121
sg51
V66
p1122
sg83
(lp1123
(VTINE
VM A S
tp1124
asg21
I2006
sg47
V444
p1125
sbag1
(g2
g3
NtRp1126
(dp1127
g53
V10.1104/pp.103.032011
p1128
sg49
VPLANT PHYSIOL
p1129
sg51
V134
p1130
sg83
(lp1131
(VURBANOWICZ
VB R
tp1132
asg21
I2004
sg47
VLANT
p1133
sbag1
(g2
g3
NtRp1134
(dp1135
g53
V10.1073/pnas.052450699
p1136
sg49
VP NATL ACAD SCI USA
p1137
sg51
V99
p1138
sg83
(lp1139
(VVANZIN
VG F
tp1140
asg21
I2002
sg47
V3340
p1141
sbag1
(g2
g3
NtRp1142
(dp1143
g53
V10.1023/A:1010631431620
p1144
sg49
VPLANT MOL BIOL
p1145
sg51
V47
p1146
sg83
(lp1147
(VVERGARA
VC E
tp1148
asg21
I2001
sg47
VLANT
p1149
sbag1
(g2
g3
NtRp1150
(dp1151
g53
Nsg49
VBIOCHEM J
p1152
sg51
V213
p1153
sg83
(lp1154
(VWALDRON
VK W
tp1155
asg21
I1983
sg47
V115
p1156
sbag1
(g2
g3
NtRp1157
(dp1158
g53
V10.1093/jxb/ern125
p1159
sg49
VJ EXP BOT
p1160
sg51
V59
p1161
sg83
(lp1162
(VWANG
VJ
tp1163
asg21
I2008
sg47
V2627
p1164
sbag1
(g2
g3
NtRp1165
(dp1166
g53
V10.1104/pp.106.084004
p1167
sg49
VPLANT PHYSIOL
p1168
sg51
V142
p1169
sg83
(lp1170
(VWANG
VJ
tp1171
asg21
I2006
sg47
VLANT
p1172
sbag1
(g2
g3
NtRp1173
(dp1174
g53
V10.1074/jbc.R700036200
p1175
sg49
VJ BIOL CHEM
p1176
sg51
V282
p1177
sg83
(lp1178
(VWEIGEL
VP H
tp1179
asg21
I2007
sg47
V36777
p1180
sbag1
(g2
g3
NtRp1181
(dp1182
g53
V10.1111/j.1365-313X.2008.03444.x
p1183
sg49
VPLANT J
p1184
sg51
V54
p1185
sg83
(lp1186
(VWIGHTMAN
VR
tp1187
asg21
I2008
sg47
VLANT
p1188
sbag1
(g2
g3
NtRp1189
(dp1190
g53
V10.1074/jbc.M510439200
p1191
sg49
VJ BIOL CHEM
p1192
sg51
V281
p1193
sg83
(lp1194
(VWILLIAMS
VK J
tp1195
asg21
I2006
sg47
V5391
p1196
sbag1
(g2
g3
NtRp1197
(dp1198
g53
Nsg49
VCEREAL CHEM
p1199
sg51
V71
p1200
sg83
(lp1201
(VWOOD
VP J
tp1202
asg21
I1994
sg47
V301
p1203
sbag1
(g2
g3
NtRp1204
(dp1205
g53
V10.1007/s00425-005-1563-z
p1206
sg49
VPLANTA
p1207
sg51
V221
p1208
sg83
(lp1209
(VYONG
VW D
tp1210
asg21
I2005
sg47
VLANTA
p1211
sbag1
(g2
g3
NtRp1212
(dp1213
g53
V10.1016/j.pbi.2008.02.007
p1214
sg49
VCURR OPIN PLANT BIOL
p1215
sg51
V11
p1216
sg83
(lp1217
(VYORK
VW S
tp1218
asg21
I2008
sg47
V258
p1219
sbag1
(g2
g3
NtRp1220
(dp1221
g53
V10.1074/jbc.275.1.497
p1222
sg49
VJ BIOL CHEM
p1223
sg51
V275
p1224
sg83
(lp1225
(VYOSHIDA
VM
tp1226
asg21
I2000
sg47
V497
p1227
sbag1
(g2
g3
NtRp1228
(dp1229
g53
V10.1111/j.1365-313X.2008.03580.x
p1230
sg49
VPLANT J
p1231
sg51
V56
p1232
sg83
(lp1233
(VZABOTINA
VO A
tp1234
asg21
I2008
sg47
VLANT
p1235
sbag1
(g2
g3
NtRp1236
(dp1237
g53
V10.1104/pp.110.159749
p1238
sg49
VPLANT PHYSIOL
p1239
sg51
V154
p1240
sg83
(lp1241
(VZENG
VW
tp1242
asg21
I2010
sg47
VLANT
p1243
sbag1
(g2
g3
NtRp1244
(dp1245
g53
V10.1104/pp.107.115576
p1246
sg49
VPLANT PHYSIOL
p1247
sg51
V147
p1248
sg83
(lp1249
(VZENG
VW
tp1250
asg21
I2008
sg47
VLANT
p1251
sbag1
(g2
g3
NtRp1252
(dp1253
g53
V10.1104/pp.102.019331
p1254
sg49
VPLANT PHYSIOL
p1255
sg51
V132
p1256
sg83
(lp1257
(VZHONG
VR Q
tp1258
asg21
I2003
sg47
VLANT
p1259
sbag1
(g2
g3
NtRp1260
(dp1261
g53
V10.1105/tpc.105.035501
p1262
sg49
VPLANT CELL
p1263
sg51
V17
p1264
sg83
(lp1265
(VZHONG
VR Q
tp1266
asg21
I2005
sg47
VLANT
p1267
sbasb.