ccopy_reg
_reconstructor
p1
(ctethne.classes.paper
Paper
p2
c__builtin__
object
p3
NtRp4
(dp5
S'publisherCity'
p6
VDORDRECHT
p7
sS'reprintAddress'
p8
VMarigomez, I (reprint author), Univ Pais Vasco Euskal Herriko Unibertsitatea, Areatza ZG, CBET Ikerketa Taldea, Zool & Biol Zelularra Saila,PIE, Plentzia Bizkaia 48620, Basque Country, Spain.
p9
sS'WC'
p10
(lp11
VECOLOGY
p12
aVENVIRONMENTAL SCIENCES
p13
aVTOXICOLOGY
p14
asS'GA'
p15
V108GW
p16
sS'FX'
p17
(lp18
VThis work was supported by the Spanish Ministry of Science and
p19
aVTechnology through 'Urgent Action- Coastal areas' and project PRESTEPSE
p20
aV(VEM2003-20082-CO6-01), by the Basque Government (ETORTEK actions-
p21
aVIMPRES) and by the University of the Basque Country through a Grant to
p22
aVConsolidated Research Groups (GIC07/26-IT-393-07). The authors declare
p23
aVthat they have no conflict of interest. The technical assistance of the
p24
aVpersonnel of the Cell Biology and Histology Lab (Faculty of Science and
p25
aVTechnology, University of the Basque Country) in samplings and sample
p26
aVprocessing is gratefully acknowledged. Thanks also to Dr. F. Javier
p27
aVCristobo and Prof. V. Urgorri (Univ Santiago de Compostela) for
p28
aVcollaboration during sampling in Galicia.
p29
asS'abstract'
p30
VFive integrative biomarker indices are compared: Bioeffects Assessment Index (BAI), Health Status Index (HSI), integrated biological response (IBR), ecosystem health condition chart (EHCC) and Integrative Biomarker Index (IBI). They were calculated on the basis of selected biomarker data collected in the framework of the Prestige oil spill (POS) Mussel Watch monitoring (2003-2006) carried out in Galicia and the Bay of Biscay. According to the BAI, the health status of mussels was severely affected by POS and signals of recovery were evidenced in Galicia after April-04 and in Biscay Bay after April-05. The HSI (computed by an expert system) revealed high levels of environmental stress in 2003 and a recovery trend from April-04 to April-05. In July-05, the health status of mussels worsened but in October-05 and April-06 healthy condition was again recorded in almost all localities. IBR/n and IBI indicated that mussel health was severely affected in 2003 and improved from 2004 onwards. EHCC reflected a deleterious environmental condition in 2003 and a recovery trend after April-04, although a healthy ecosystem condition was not achieved in April-06 yet. Whereas BAI and HSI provide a basic indication of the ecosystem health status, star plots accompanying IBR/n and IBI provide complementary information concerning the mechanisms of biological response to environmental insult. Overall, although the integrative indices based on biomarkers show different sensitivity, resolution and informative output, all of them provide coherent information, useful to simplify the interpretation of biological effects of pollution in marine pollution monitoring. Each others' advantages, disadvantages and applicability for ecosystem health assessment are discussed.
p31
sS'keywordsPlus'
p32
(lp33
VEcosystem health assessment; Mussels; Prestige oil spill; Integrative
p34
aVindices; Biomarkers
p35
asS'pageEnd'
p36
I505
sS'date'
p37
I2013
sS'documentType'
p38
VArticle
p39
sS'subject'
p40
(lp41
VENVIRONMENTAL SCIENCES & ECOLOGY
p42
aVTOXICOLOGY
p43
asS'isoSource'
p44
VEcotoxicology
p45
sS'timesCited'
p46
VZ9 1
p47
sS'funding'
p48
(lp49
(VSpanish Ministry of Science and Technology through 'Urgent Action- Coastal areas'
Ntp50
a(VBasque Government (ETORTEK actions- IMPRES)
Ntp51
a(VUniversity of the Basque Country
VGIC07/26-IT-393-07
tp52
a(Vproject PRESTEPSE
VVEM2003-20082-CO6-01
tp53
asS'title'
p54
VMarine Ecosystem Health Status Assessment Through Integrative Biomarker Indices: A Comparative Study After The Prestige Oil Spill "Mussel Watch"
p55
sS'ISSN'
p56
(lp57
V0963-9292
p58
aVJ9 ECOTOXICOLOGY
p59
asS'authors_full'
p60
(lp61
(VMARIGOMEZ
VIONAN
tp62
a(VGARMENDIA
VLARRAITZ
tp63
a(VSOTO
VMANU
tp64
a(VORBEA
VAMAIA
tp65
a(VIZAGIRRE
VURTZI
tp66
a(VCAJARAVILLE
VMIREN P
tp67
asS'PG'
p68
I20
sS'PD'
p69
VAPR
p70
sS'pageStart'
p71
I486
sS'issue'
p72
I3
sS'RI'
p73
VLiu, Xiaobing/C-6216-2013; Testes, Olga/E-8912-2013
p74
sS'journal'
p75
VECOTOXICOLOGY
p76
sS'volume'
p77
V22
p78
sS'doi'
p79
V10.1007/s10646-013-1042-4
p80
sS'emailAddress'
p81
Vionan.marigomez@ehu.es
p82
sS'authorAddress'
p83
VUniv Pais Vasco Euskal Herriko Unibertsitatea, Areatza ZG, CBET Ikerketa Taldea, Zool & Biol Zelularra Saila,PIE, Plentzia Bizkaia 48620, Basque Country, Spain.
p84
sS'publisherAddress'
p85
VVAN GODEWIJCKSTRAAT 30, 3311 GZ DORDRECHT, NETHERLANDS
p86
sS'publisher'
p87
VSPRINGER
p88
sS'authorKeywords'
p89
(lp90
VTISSUE-LEVEL BIOMARKERS
p91
aVENVIRONMENTAL-POLLUTION
p92
aVMYTILUS-EDULIS
p93
aVMEDITERRANEAN SEA
p94
aVSTRESS SYNDROME
p95
aVUSEFUL TOOL
p96
aVBALTIC SEA
p97
aVNORTH-SEA
p98
aVGALLOPROVINCIALIS
p99
aVORGANISMS
p100
asS'language'
p101
VEnglish
p102
sS'OI'
p103
VLiu, Xiaobing/0000-0002-5347-5566; 
p104
sS'wosid'
p105
VWOS:000316281300006
p106
sS'citationCount'
p107
I43
sS'authors_init'
p108
(lp109
(VMARIGOMEZ
VI
tp110
a(VGARMENDIA
VL
tp111
a(VSOTO
VM
tp112
a(VORBEA
VA
tp113
a(VIZAGIRRE
VU
tp114
a(VCAJARAVILLE
VM P
tp115
asS'citedReferences'
p116
(lp117
g1
(g2
g3
NtRp118
(dp119
g79
V10.1577/1548-8659(1993)122<0063:AQHAIF>2.3.CO;2
p120
sg75
VT AM FISH SOC
p121
sg77
V122
p122
sg108
(lp123
(VADAMS
VS M
tp124
asg37
I1993
sg71
V63
p125
sbag1
(g2
g3
NtRp126
(dp127
g79
V10.1897/1551-5028(2002)021<1316:IBRAUT>2.0.CO;2
p128
sg75
VENVIRON TOXICOL CHEM
p129
sg77
V21
p130
sg108
(lp131
(VBELIAEFF
VB
tp132
asg37
I2002
sg71
V1316
p133
sbag1
(g2
g3
NtRp134
(dp135
g79
V10.1051/alr:2004033
p136
sg75
VAQUAT LIVING RESOUR
p137
sg77
V17
p138
sg108
(lp139
(VBOCQUENE
VG
tp140
asg37
I2004
sg71
V309
p141
sbag1
(g2
g3
NtRp142
(dp143
g79
V10.1016/j.cca.2004.04.009
p144
sg75
VCOMP BIOCHEM PHYS C
p145
sg77
V138
p146
sg108
(lp147
(VBODIN
VN
tp148
asg37
I2004
sg71
V411
p149
sbag1
(g2
g3
NtRp150
(dp151
g79
V10.1016/j.marpolbul.2005.02.042
p152
sg75
VMAR POLLUT BULL
p153
sg77
V50
p154
sg108
(lp155
(VBROEG
VK
tp156
asg37
I2005
sg71
V495
p157
sbag1
(g2
g3
NtRp158
(dp159
g79
V10.1016/j.marpolbul.2006.02.004
p160
sg75
VMAR POLLUT BULL
p161
sg77
V53
p162
sg108
(lp163
(VBROEG
VK
tp164
asg37
I2006
sg71
V508
p165
sbag1
(g2
g3
NtRp166
(dp167
g79
V10.1016/j.marpolbul.2010.10.007
p168
sg75
VMAR POLLUT BULL
p169
sg77
V62
p170
sg108
(lp171
(VBROOKS
VS
tp172
asg37
I2011
sg71
V327
p173
sbag1
(g2
g3
NtRp174
(dp175
g79
V10.1016/j.marenvres.2006.04.048
p176
sg75
VMAR ENVIRON RES
p177
sg77
V62
p178
sg108
(lp179
(VCAJARAVILLE
VM P
tp180
asg37
I2006
sg71
VS337
p181
sbag1
(g2
g3
NtRp182
(dp183
g79
Nsg75
VARCH ENVIRON CON TOX
p184
sg77
V21
p185
sg108
(lp186
(VCAJARAVILLE
VM P
tp187
asg37
I1991
sg71
V395
p188
sbag1
(g2
g3
NtRp189
(dp190
g79
V10.1016/S0048-9697(05)80142-1
p191
sg75
VSCI TOTAL ENVIRON
p192
sg77
V134
p193
sg108
(lp194
(VCAJARAVILLE
VM P
tp195
asg37
I1993
sg71
V1353
p196
sbag1
(g2
g3
NtRp197
(dp198
g79
V10.1016/S0048-9697(99)00491-X
p199
sg75
VSCI TOTAL ENVIRON
p200
sg77
V247
p201
sg108
(lp202
(VLEKUBE
VX
tp203
asg37
I2000
sg71
V201
p204
sbag1
(g2
g3
NtRp205
(dp206
g79
V10.1016/j.envint.2006.09.001
p207
sg75
VENVIRON INT
p208
sg77
V33
p209
sg108
(lp210
(VCHAPMAN
VP M
tp211
asg37
I2007
sg71
V492
p212
sbag1
(g2
g3
NtRp213
(dp214
g79
V10.1080/13547500601037171
p215
sg75
VBIOMARKERS
p216
sg77
V12
p217
sg108
(lp218
(VDAGNINO
VA
tp219
asg37
I2007
sg71
V155
p220
sbag1
(g2
g3
NtRp221
(dp222
g79
V10.1016/j.chemosphere.2006.05.032
p223
sg75
VCHEMOSPHERE
p224
sg77
V66
p225
sg108
(lp226
(VDAMIENS
VG
tp227
asg37
I2007
sg71
V574
p228
sbag1
(g2
g3
NtRp229
(dp230
g79
V10.1016/S0141-1136(97)00049-4
p231
sg75
VMAR ENVIRON RES
p232
sg77
V46
p233
sg108
(lp234
(VDEN
VBESTEN P J
tp235
asg37
I1998
sg71
V253
p236
sbag1
(g2
g3
NtRp237
(dp238
g79
Nsg75
VTHESIS U BASQUE COUN
p239
sg77
Nsg108
(lp240
(VDIEZ
VG
tp241
asg37
I1996
sg71
Nsbag1
(g2
g3
NtRp242
(dp243
g79
V10.1016/j.aquatox.2006.02.025
p244
sg75
VAQUAT TOXICOL
p245
sg77
V78
p246
sg108
(lp247
(VDONDERO
VF
tp248
asg37
I2006
sg71
VS13
p249
sbag1
(g2
g3
NtRp250
(dp251
g79
Nsg75
VWAT FRAM DIR GUID PR
p252
sg77
Nsg108
(lp253
(VENVIRONMENTAL
VAGENCY
tp254
asg37
I2002
sg71
Nsbag1
(g2
g3
NtRp255
(dp256
g79
V10.1039/c0em00409j
p257
sg75
VJ ENVIRON MONITOR
p258
sg77
V13
p259
sg108
(lp260
(VGARMENDIA
VL
tp261
asg37
I2011
sg71
V901
p262
sbag1
(g2
g3
NtRp263
(dp264
g79
V10.1039/c0em00704h
p265
sg75
VJ ENVIRON MONITOR
p266
sg77
V13
p267
sg108
(lp268
(VGARMENDIA
VL
tp269
asg37
I2011
sg71
V933
p270
sbag1
(g2
g3
NtRp271
(dp272
g79
V10.3354/ab00245
p273
sg75
VAQUAT BIOL
p274
sg77
V9
sg108
(lp275
(VGARMENDIA
VL
tp276
asg37
I2010
sg71
V203
p277
sbag1
(g2
g3
NtRp278
(dp279
g79
V10.1039/c0em00410c
p280
sg75
VJ ENVIRON MONITOR
p281
sg77
V13
p282
sg108
(lp283
(VGARMENDIA
VL
tp284
asg37
I2011
sg71
V915
p285
sbag1
(g2
g3
NtRp286
(dp287
g79
V10.1016/j.marpolbul.2008.03.040
p288
sg75
VMAR POLLUT BULL
p289
sg77
V56
p290
sg108
(lp291
(VHAGGER
VJ A
tp292
asg37
I2008
sg71
V1111
p293
sbag1
(g2
g3
NtRp294
(dp295
g79
V10.1016/j.marpolbul.2007.11.004
p296
sg75
VMAR POLLUT BULL
p297
sg77
V56
p298
sg108
(lp299
(VHYLLAND
VK
tp300
asg37
I2008
sg71
V414
p301
sbag1
(g2
g3
NtRp302
(dp303
g79
V10.3354/meps07656
p304
sg75
VMAR ECOL PROG SER
p305
sg77
V372
p306
sg108
(lp307
(VIZAGIRRE
VU
tp308
asg37
I2008
sg71
V105
p309
sbag1
(g2
g3
NtRp310
(dp311
g79
V10.1016/j.envpol.2009.01.011
p312
sg75
VENVIRON POLLUT
p313
sg77
V157
p314
sg108
(lp315
(VIZAGIRRE
VU
tp316
asg37
I2009
sg71
V1544
p317
sbag1
(g2
g3
NtRp318
(dp319
g79
Nsg75
VENVIRON HEALTH PERSP
p320
sg77
V110
p321
sg108
(lp322
(VKNAP
VA
tp323
asg37
I2002
sg71
V839
p324
sbag1
(g2
g3
NtRp325
(dp326
g79
V10.1016/j.cca.2005.04.005
p327
sg75
VCOMP BIOCHEM PHYS C
p328
sg77
V140
p329
sg108
(lp330
(VLEINIO
VS
tp331
asg37
I2005
sg71
V408
p332
sbag1
(g2
g3
NtRp333
(dp334
g79
V10.1016/j.marpolbul.2005.09.026
p335
sg75
VMAR POLLUT BULL
p336
sg77
V53
p337
sg108
(lp338
(VMARIGOMEZ
VI
tp339
asg37
I2006
sg71
V287
p340
sbag1
(g2
g3
NtRp341
(dp342
g79
Nsg75
VELSEV OCEANOGR SERIE
p343
sg77
V70
p344
sg108
(lp345
(VMARIGOMEZ
VI
tp346
asg37
I2004
sg71
V335
p347
sbag1
(g2
g3
NtRp348
(dp349
g79
V10.1016/0742-8413(95)02100-0
p350
sg75
VCOMP BIOCHEM PHYS C
p351
sg77
V113
p352
sg108
(lp353
(VMARIGOMEZ
VI
tp354
asg37
I1996
sg71
V291
p355
sbag1
(g2
g3
NtRp356
(dp357
g79
Nsg75
VBIOMARKERS ENV CONTA
p358
sg77
Nsg108
(lp359
(VMCCARTHY
VJ F
tp360
asg37
I1990
sg71
V3
sbag1
(g2
g3
NtRp361
(dp362
g79
Nsg75
VTHESIS U BASQUE COUN
p363
sg77
Nsg108
(lp364
(VMENDEZ
VP A
tp365
asg37
I1993
sg71
Nsbag1
(g2
g3
NtRp366
(dp367
g79
V10.3354/meps306177
p368
sg75
VMAR ECOL PROG SER
p369
sg77
V306
p370
sg108
(lp371
(VORBEA
VA
tp372
asg37
I2006
sg71
V177
p373
sbag1
(g2
g3
NtRp374
(dp375
g79
V10.1039/c0em00102c
p376
sg75
VJ ENVIRON MONITOR
p377
sg77
V13
p378
sg108
(lp379
(VORTIZ-ZARRAGOITIA
VM
tp380
asg37
I2011
sg71
V84
p381
sbag1
(g2
g3
NtRp382
(dp383
g79
V10.1016/j.aquatox.2008.05.013
p384
sg75
VAQUAT TOXICOL
p385
sg77
V89
p386
sg108
(lp387
(VPYTHAROPOULOU
VS
tp388
asg37
I2008
sg71
V18
p389
sbag1
(g2
g3
NtRp390
(dp391
g79
Nsg75
VSEG EC RIA RES BIOSF
p392
sg77
Nsg108
(lp393
(VRBU-REP
S''
tp394
asg37
I1994
sg71
Nsbag1
(g2
g3
NtRp395
(dp396
g79
V10.1016/S0141-1136(99)00045-8
p397
sg75
VMAR ENVIRON RES
p398
sg77
V49
p399
sg108
(lp400
(VVIARENGO
VA
tp401
asg37
I2000
sg71
V1
sbag1
(g2
g3
NtRp402
(dp403
g79
V10.1016/0141-1136(94)00075-Z
p404
sg75
VMAR ENVIRON RES
p405
sg77
V39
p406
sg108
(lp407
(VVIARENGO
VA
tp408
asg37
I1995
sg71
V245
p409
sbag1
(g2
g3
NtRp410
(dp411
g79
V10.1007/s00244-005-0209-2
p412
sg75
VARCH ENVIRON CON TOX
p413
sg77
V53
p414
sg108
(lp415
(VVIARENGO
VA
tp416
asg37
I2007
sg71
V607
p417
sbag1
(g2
g3
NtRp418
(dp419
g79
Nsg75
VSTEREOLOGICAL METHOD
p420
sg77
Nsg108
(lp421
(VWEIBEL
VE R
tp422
asg37
I1979
sg71
V415
p423
sbag1
(g2
g3
NtRp424
(dp425
g79
V10.1016/j.marpolbul.2005.04.016
p426
sg75
VMAR POLLUT BULL
p427
sg77
V51
p428
sg108
(lp429
(VWU
VR S S
tp430
asg37
I2005
sg71
V623
p431
sbag1
(g2
g3
NtRp432
(dp433
g79
V10.1016/j.envpol.2006.10.022
p434
sg75
VENVIRON POLLUT
p435
sg77
V148
p436
sg108
(lp437
(VZORITA
VI
tp438
asg37
I2007
sg71
V236
p439
sbasb.