ccopy_reg
_reconstructor
p1
(ctethne.classes.paper
Paper
p2
c__builtin__
object
p3
NtRp4
(dp5
S'publisherCity'
p6
VROCKVILLE
p7
sS'reprintAddress'
p8
VXue, HW (reprint author), Univ Calif Berkeley, Shanghai Inst Biol Sci, Berkeley, CA 94720 USA.
p9
sS'WC'
p10
VPlant Sciences
p11
sS'GA'
p12
V786HH
p13
sS'FX'
p14
(lp15
VThis study was supported by the National Science Foundation of China
p16
aV(grant nos. 90717001 and 30721061), the Chinese Academy of Sciences
p17
aV(grant no. KSCX2-YW-N-016), and the Science and Technology Commission of
p18
aVShanghai Municipality (grant no. 08XD14049).
p19
asS'abstract'
p20
VAbscisic acid (ABA) regulates plant development and is crucial for plant responses to biotic and abiotic stresses. Studies have identified the key components of ABA signaling in Arabidopsis (Arabidopsis thaliana), some of which regulate ABA responses by the transcriptional regulation of downstream genes. Here, we report the functional identification of rice (Oryza sativa) ABI5-Like1 (ABL1), which is a basic region/leucine zipper motif transcription factor. ABL1 is expressed in various tissues and is induced by the hormones ABA and indole-3-acetic acid and stress conditions including salinity, drought, and osmotic pressure. The ABL1 deficiency mutant, abl1, shows suppressed ABA responses, and ABL1 expression in the Arabidopsis abi5 mutant rescued the ABA sensitivity. The ABL1 protein is localized to the nucleus and can directly bind ABA-responsive elements (ABREs; G-box) in vitro. A gene expression analysis by DNA chip hybridization confirms that a large proportion of down-regulated genes of abl1 are involved in stress responses, consistent with the transcriptional activating effects of ABL1. Further studies indicate that ABL1 regulates the plant stress responses by regulating a series of ABRE-containing WRKY family genes. In addition, the abl1 mutant is hypersensitive to exogenous indole-3-acetic acid, and some ABRE-containing genes related to auxin metabolism or signaling are altered under ABL1 deficiency, suggesting that ABL1 modulates ABA and auxin responses by directly regulating the ABRE-containing genes.
p21
sS'pageEnd'
p22
I1409
sS'date'
p23
I2011
sS'documentType'
p24
VArticle
p25
sS'subject'
p26
VPlant Sciences
p27
sS'isoSource'
p28
VPlant Physiol.
p29
sS'timesCited'
p30
(lp31
I15
aVZ9 18
p32
asS'funding'
p33
(lp34
(VNational Science Foundation of China
V90717001, 30721061
tp35
a(VChinese Academy of Sciences
VKSCX2-YW-N-016
tp36
a(VScience and Technology Commission of Shanghai Municipality
V08XD14049
tp37
asS'PT'
p38
VJ
sS'title'
p39
VRice Abi5-Like1 Regulates Abscisic Acid And Auxin Responses By Affecting The Expression Of Abre-Containing Genes
p40
sS'ISSN'
p41
(lp42
V0032-0889
p43
aVJ9 PLANT PHYSIOL
p44
asS'authors_full'
p45
(lp46
(VYANG
VXI
tp47
a(VYANG
VYANAN
tp48
a(VXUE
VLIANGJIAO
tp49
a(VZOU
VMEIJUAN
tp50
a(VLIU
VJIANYING
tp51
a(VCHEN
VFAN
tp52
a(VXUE
VHONGWEI
tp53
asS'PG'
p54
I13
sS'PD'
p55
VJUL
p56
sS'pageStart'
p57
I1397
sS'issue'
p58
I3
sS'journal'
p59
VPLANT PHYSIOLOGY
p60
sS'volume'
p61
V156
p62
sS'doi'
p63
V10.1104/pp.111.173427
p64
sS'emailAddress'
p65
Vhwxue@sibs.ac.cn
p66
sS'authorAddress'
p67
(lp68
V[Yang, Xi; Yang, Ya-Nan; Xue, Liang-Jiao; Xue, Hong-Wei] Univ Calif Berkeley, Shanghai Inst Biol Sci, Berkeley, CA 94720 USA.
p69
aV[Yang, Xi; Yang, Ya-Nan; Xue, Liang-Jiao; Xue, Hong-Wei] Chinese Acad Sci, Joint Ctr Mol Life Sci, Natl Key Lab Plant Mol Genet, Inst Plant Physiol & Ecol,Shanghai Inst Biol Sci, Shanghai 200032, Peoples R China.
p70
aV[Zou, Mei-Juan; Liu, Jian-Ying; Chen, Fan] Chinese Acad Sci, Natl Ctr Plant Gene Res, Key Lab Mol & Dev Biol, Inst Genet & Dev Biol, Beijing 100080, Peoples R China.
p71
asS'publisherAddress'
p72
V15501 MONONA DRIVE, ROCKVILLE, MD 20855 USA
p73
sS'ER'
p74
V
sS'publisher'
p75
VAMER SOC PLANT BIOLOGISTS
p76
sS'authorKeywords'
p77
(lp78
VZIPPER TRANSCRIPTION FACTOR
p79
aVDROUGHT STRESS TOLERANCE
p80
aVELEMENT-BINDING FACTORS
p81
aVHIGH-SALINITY STRESSES
p82
aVSNRK2 PROTEIN-KINASES
p83
aVARABIDOPSIS-THALIANA
p84
aVSIGNAL-TRANSDUCTION
p85
aVSEED-GERMINATION
p86
aVFACTOR FAMILY
p87
aVABA
p88
asS'language'
p89
VEnglish
p90
sS'wosid'
p91
VWOS:000292294100037
p92
sS'citationCount'
p93
I56
sS'authors_init'
p94
(lp95
(VYANG
VX
tp96
a(VYANG
VY N
tp97
a(VXUE
VL J
tp98
a(VZOU
VM J
tp99
a(VLIU
VJ Y
tp100
a(VCHEN
VF
tp101
a(VXUE
VH W
tp102
asS'citedReferences'
p103
(lp104
g1
(g2
g3
NtRp105
(dp106
g63
V10.1105/tpc.106.048041
p107
sg59
VPLANT CELL
p108
sg61
V19
p109
sg94
(lp110
(VADIE
VB A T
tp111
asg23
I2007
sg57
VLANT
p112
sbag1
(g2
g3
NtRp113
(dp114
g63
V10.1105/tpc.109.067702
p115
sg59
VPLANT CELL
p116
sg61
V21
p117
sg94
(lp118
(VBELIN
VC
tp119
asg23
I2009
sg57
VLANT
p120
sbag1
(g2
g3
NtRp121
(dp122
g63
Nsg59
VANN STAT
p123
sg61
V29
p124
sg94
(lp125
(VBENJAMINI
VY
tp126
asg23
I2001
sg57
V1165
p127
sbag1
(g2
g3
NtRp128
(dp129
g63
V10.1046/j.1365-313X.2002.01295.x
p130
sg59
VPLANT J
p131
sg61
V30
p132
sg94
(lp133
(VCARLES
VC
tp134
asg23
I2002
sg57
VLANT
p135
sbag1
(g2
g3
NtRp136
(dp137
g63
V10.1074/jbc.275.3.1723
p138
sg59
VJ BIOL CHEM
p139
sg61
V275
p140
sg94
(lp141
(VCHOI
VH I
tp142
asg23
I2000
sg57
V1723
p143
sbag1
(g2
g3
NtRp144
(dp145
g63
V10.1046/j.1365-313x.1998.00343.x
p146
sg59
VPLANT J
p147
sg61
V16
p148
sg94
(lp149
(VCLOUGH
VS J
tp150
asg23
I1998
sg57
VLANT
p151
sbag1
(g2
g3
NtRp152
(dp153
g63
V10.1016/S1360-1385(00)01600-9
p154
sg59
VTRENDS PLANT SCI
p155
sg61
V5
sg94
(lp156
(VEULGEM
VT
tp157
asg23
I2000
sg57
V199
p158
sbag1
(g2
g3
NtRp159
(dp160
g63
V10.1105/tpc.12.4.599
p161
sg59
VPLANT CELL
p162
sg61
V10
p163
sg94
(lp164
(VFINKELSTEIN
VR R
tp165
asg23
I1998
sg57
VLANT
p166
sbag1
(g2
g3
NtRp167
(dp168
g63
V10.1105/tpc.12.4.599
p169
sg59
VPLANT CELL
p170
sg61
V12
p171
sg94
(lp172
(VFINKELSTEIN
VR R
tp173
asg23
I2000
sg57
VLANT
p174
sbag1
(g2
g3
NtRp175
(dp176
g63
V10.1038/cr.2009.15
p177
sg59
VCELL RES
p178
sg61
V19
p179
sg94
(lp180
(VFU
VF F
tp181
asg23
I2009
sg57
V380
p182
sbag1
(g2
g3
NtRp183
(dp184
g63
V10.1105/tpc.105.035659
p185
sg59
VPLANT CELL
p186
sg61
V17
p187
sg94
(lp188
(VFUJITA
VY
tp189
asg23
I2005
sg57
VLANT
p190
sbag1
(g2
g3
NtRp191
(dp192
g63
V10.1105/tpc.4.10.1251
p193
sg59
VPLANT CELL
p194
sg61
V4
sg94
(lp195
(VGIRAUDAT
VJ
tp196
asg23
I1992
sg57
VLANT
p197
sbag1
(g2
g3
NtRp198
(dp199
g63
Nsg59
VCHINA RICE
p200
sg61
Nsg94
(lp201
(VGUO
VL B
tp202
asg23
I2003
sg57
V26
p203
sbag1
(g2
g3
NtRp204
(dp205
g63
V10.1093/pcp/pcf014
p206
sg59
VPLANT CELL PHYSIOL
p207
sg61
V43
p208
sg94
(lp209
(VHATTORI
VT
tp210
asg23
I2002
sg57
VLANT
p211
sbag1
(g2
g3
NtRp212
(dp213
g63
V10.1016/S1360-1385(00)01790-8
p214
sg59
VTRENDS PLANT SCI
p215
sg61
V5
sg94
(lp216
(VHEDDEN
VP
tp217
asg23
I2000
sg57
V523
p218
sbag1
(g2
g3
NtRp219
(dp220
g63
V10.1073/pnas.96.26.15348
p221
sg59
VP NATL ACAD SCI USA
p222
sg61
V96
p223
sg94
(lp224
(VHOBO
VT
tp225
asg23
I1999
sg57
V15348
p226
sbag1
(g2
g3
NtRp227
(dp228
g63
V10.1007/BF01977351
p229
sg59
VTRANSGENIC RES
p230
sg61
V2
sg94
(lp231
(VHOOD
VE E
tp232
asg23
I1993
sg57
V208
p233
sbag1
(g2
g3
NtRp234
(dp235
g63
V10.1242/jcs.00175
p236
sg59
VJ CELL SCI
p237
sg61
V115
p238
sg94
(lp239
(VHOTH
VS
tp240
asg23
I2002
sg57
V4891
p241
sbag1
(g2
g3
NtRp242
(dp243
g63
Nsg59
VTHESIS TEXAS A M U C
p244
sg61
Nsg94
(lp245
(VHUR
VJ
tp246
asg23
I2007
sg57
Nsbag1
(g2
g3
NtRp247
(dp248
g63
V10.1016/S1360-1385(01)02223-3
p249
sg59
VTRENDS PLANT SCI
p250
sg61
V7
sg94
(lp251
(VJAKOBY
VM
tp252
asg23
I2002
sg57
V106
p253
sbag1
(g2
g3
NtRp254
(dp255
g63
Nsg59
VEMBO J
p256
sg61
V6
sg94
(lp257
(VJEFFERSON
VR A
tp258
asg23
I1987
sg57
V3901
p259
sbag1
(g2
g3
NtRp260
(dp261
g63
V10.1104/pp.105.065045
p262
sg59
VPLANT PHYSIOL
p263
sg61
V139
p264
sg94
(lp265
(VJOHNSON
VC D
tp266
asg23
I2005
sg57
VLANT
p267
sbag1
(g2
g3
NtRp268
(dp269
g63
V10.1105/tpc.005272
p270
sg59
VPLANT CELL
p271
sg61
V14
p272
sg94
(lp273
(VKAGAYA
VY
tp274
asg23
I2002
sg57
VLANT
p275
sbag1
(g2
g3
NtRp276
(dp277
g63
V10.1105/tpc.010362
p278
sg59
VPLANT CELL
p279
sg61
V14
p280
sg94
(lp281
(VKANG
VJ Y
tp282
asg23
I2002
sg57
VLANT
p283
sbag1
(g2
g3
NtRp284
(dp285
g63
V10.1111/j.1365-313X.2005.02583.x
p286
sg59
VPLANT J
p287
sg61
V44
p288
sg94
(lp289
(VKOBAYASHI
VY
tp290
asg23
I2005
sg57
VLANT
p291
sbag1
(g2
g3
NtRp292
(dp293
g63
V10.1111/j.1365-313X.2007.03218.x
p294
sg59
VPLANT J
p295
sg61
V52
p296
sg94
(lp297
(VLIU
VP P
tp298
asg23
I2007
sg57
VLANT
p299
sbag1
(g2
g3
NtRp300
(dp301
g63
V10.1046/j.1365-313X.2003.01866.x
p302
sg59
VPLANT J
p303
sg61
V36
p304
sg94
(lp305
(VLIU
VW
tp306
asg23
I2003
sg57
VLANT
p307
sbag1
(g2
g3
NtRp308
(dp309
g63
V10.1101/gad.1055803
p310
sg59
VGENE DEV
p311
sg61
V17
p312
sg94
(lp313
(VLOPEZ-MOLINA
VL
tp314
asg23
I2003
sg57
V410
p315
sbag1
(g2
g3
NtRp316
(dp317
g63
V10.1073/pnas.081594298
p318
sg59
VP NATL ACAD SCI USA
p319
sg61
V98
p320
sg94
(lp321
(VLOPEZ-MOLINA
VL
tp322
asg23
I2001
sg57
V4782
p323
sbag1
(g2
g3
NtRp324
(dp325
g63
V10.1126/science.1172408
p326
sg59
VSCIENCE
p327
sg61
V324
p328
sg94
(lp329
(VMA
VY
tp330
asg23
I2009
sg57
V1064
p331
sbag1
(g2
g3
NtRp332
(dp333
g63
V10.1111/j.1365-313X.2005.02337.x
p334
sg59
VPLANT J
p335
sg61
V41
p336
sg94
(lp337
(VNAKABAYASHI
VK
tp338
asg23
I2005
sg57
VLANT
p339
sbag1
(g2
g3
NtRp340
(dp341
g63
V10.1046/j.1365-313x.2001.01069.x
p342
sg59
VPLANT J
p343
sg61
V26
p344
sg94
(lp345
(VNAKAMURA
VS
tp346
asg23
I2001
sg57
VLANT
p347
sbag1
(g2
g3
NtRp348
(dp349
g63
V10.1093/pcp/pcp083
p350
sg59
VPLANT CELL PHYSIOL
p351
sg61
V50
p352
sg94
(lp353
(VNAKASHIMA
VK
tp354
asg23
I2009
sg57
VLANT
p355
sbag1
(g2
g3
NtRp356
(dp357
g63
V10.1046/j.1365-313X.2003.01708.x
p358
sg59
VPLANT J
p359
sg61
V34
p360
sg94
(lp361
(VNARUSAKA
VY
tp362
asg23
I2003
sg57
VLANT
p363
sbag1
(g2
g3
NtRp364
(dp365
g63
V10.1016/j.cell.2006.05.050
p366
sg59
VCELL
p367
sg61
V126
p368
sg94
(lp369
(VNEMHAUSER
VJ L
tp370
asg23
I2006
sg57
V467
p371
sbag1
(g2
g3
NtRp372
(dp373
g63
V10.1038/sj.cr.7290096
p374
sg59
VCELL RES
p375
sg61
V11
p376
sg94
(lp377
(VNI
VD A
tp378
asg23
I2001
sg57
V273
p379
sbag1
(g2
g3
NtRp380
(dp381
g63
V10.1104/pp.107.112821
p382
sg59
VPLANT PHYSIOL
p383
sg61
V146
p384
sg94
(lp385
(VNIJHAWAN
VA
tp386
asg23
I2008
sg57
VLANT
p387
sbag1
(g2
g3
NtRp388
(dp389
g63
V10.1105/tpc.003400
p390
sg59
VPLANT CELL
p391
sg61
V14
p392
sg94
(lp393
(VNIU
VX P
tp394
asg23
I2002
sg57
VLANT
p395
sbag1
(g2
g3
NtRp396
(dp397
g63
V10.1111/j.1365-313X.2010.04135.x
p398
sg59
VPLANT J
p399
sg61
V62
p400
sg94
(lp401
(VOKAMOTO
VM
tp402
asg23
I2010
sg57
VLANT
p403
sbag1
(g2
g3
NtRp404
(dp405
g63
V10.1016/j.cell.2008.12.026
p406
sg59
VCELL
p407
sg61
V136
p408
sg94
(lp409
(VPANDEY
VS
tp410
asg23
I2009
sg57
V136
p411
sbag1
(g2
g3
NtRp412
(dp413
g63
V10.1126/science.1173041
p414
sg59
VSCIENCE
p415
sg61
V324
p416
sg94
(lp417
(VPARK
VS Y
tp418
asg23
I2009
sg57
V1068
p419
sbag1
(g2
g3
NtRp420
(dp421
g63
V10.1038/emboj.2009.170
p422
sg59
VEMBO J
p423
sg61
V28
p424
sg94
(lp425
(VPISKUREWICZ
VU
tp426
asg23
I2009
sg57
V2259
p427
sbag1
(g2
g3
NtRp428
(dp429
g63
V10.1104/pp.103.025742
p430
sg59
VPLANT PHYSIOL
p431
sg61
V133
p432
sg94
(lp433
(VRABBANI
VM A
tp434
asg23
I2003
sg57
VLANT
p435
sbag1
(g2
g3
NtRp436
(dp437
g63
V10.1093/pcp/pcn061
p438
sg59
VPLANT CELL PHYSIOL
p439
sg61
V49
p440
sg94
(lp441
(VRAMAMOORTHY
VR
tp442
asg23
I2008
sg57
VLANT
p443
sbag1
(g2
g3
NtRp444
(dp445
g63
V10.1007/BF00041160
p446
sg59
VPLANT MOL BIOL
p447
sg61
V29
p448
sg94
(lp449
(VRUSHTON
VP J
tp450
asg23
I1995
sg57
VLANT
p451
sbag1
(g2
g3
NtRp452
(dp453
g63
V10.1111/j.1365-313X.2009.03981.x
p454
sg59
VPLANT J
p455
sg61
V60
p456
sg94
(lp457
(VSANTIAGO
VJ
tp458
asg23
I2009
sg57
VLANT
p459
sbag1
(g2
g3
NtRp460
(dp461
g63
V10.1038/ng1543
p462
sg59
VNAT GENET
p463
sg61
V37
p464
sg94
(lp465
(VSCHMID
VM
tp466
asg23
I2005
sg57
V501
p467
sbag1
(g2
g3
NtRp468
(dp469
g63
V10.1007/s10142-002-0070-6
p470
sg59
VFunct Integr Genomics
p471
sg61
V2
sg94
(lp472
(VSEKI
VMOTOAKI
tp473
asg23
I2002
sg57
V282
p474
sbag1
(g2
g3
NtRp475
(dp476
g63
V10.1105/tpc.014597
p477
sg59
VPLANT CELL
p478
sg61
V15
p479
sg94
(lp480
(VSUN
VC X
tp481
asg23
I2003
sg57
VLANT
p482
sbag1
(g2
g3
NtRp483
(dp484
g63
V10.1046/j.1365-313X.2001.01165.x
p485
sg59
VPLANT J
p486
sg61
V28
p487
sg94
(lp488
(VSUZUKI
VM
tp489
asg23
I2001
sg57
VLANT
p490
sbag1
(g2
g3
NtRp491
(dp492
g63
V10.1073/pnas.190309197
p493
sg59
VP NATL ACAD SCI USA
p494
sg61
V97
p495
sg94
(lp496
(VUNO
VY
tp497
asg23
I2000
sg57
V11632
p498
sbag1
(g2
g3
NtRp499
(dp500
g63
V10.1104/pp.108.128199
p501
sg59
VPLANT PHYSIOL
p502
sg61
V148
p503
sg94
(lp504
(VXIANG
VY
tp505
asg23
I2008
sg57
VLANT
p506
sbag1
(g2
g3
NtRp507
(dp508
g63
V10.1111/j.1365-313X.2009.04092.x
p509
sg59
VPLANT J
p510
sg61
V61
p511
sg94
(lp512
(VYOSHIDA
VT
tp513
asg23
I2010
sg57
VLANT
p514
sbag1
(g2
g3
NtRp515
(dp516
g63
V10.1146/annurev.arplant.53.091401.143329
p517
sg59
VANNU REV PLANT BIOL
p518
sg61
V53
p519
sg94
(lp520
(VZHU
VJ K
tp521
asg23
I2002
sg57
V247
p522
sbag1
(g2
g3
NtRp523
(dp524
g63
V10.1007/s11103-008-9298-4
p525
sg59
VPLANT MOL BIOL
p526
sg61
V66
p527
sg94
(lp528
(VZOU
VM J
tp529
asg23
I2008
sg57
VLANT
p530
sbag1
(g2
g3
NtRp531
(dp532
g63
V10.1016/j.bbrc.2007.05.226
p533
sg59
VBIOCHEM BIOPH RES CO
p534
sg61
V360
p535
sg94
(lp536
(VZOU
VM J
tp537
asg23
I2007
sg57
V307
p538
sbasb.