ccopy_reg
_reconstructor
p1
(ctethne.classes.paper
Paper
p2
c__builtin__
object
p3
NtRp4
(dp5
S'publisherCity'
p6
VROCKVILLE
p7
sS'reprintAddress'
p8
VYamaguchi, I (reprint author), Univ Tokyo, Dept Appl Biol Chem, Bunkyo Ku, Tokyo 1138657, Japan.
p9
sS'WC'
p10
VPlant Sciences
p11
sS'GA'
p12
V577CW
p13
sS'abstract'
p14
VThe glycosylated forms of abscisic acid (ABA) have been identified from many plant species and are known to be the forms of ABA-catabolism, although their (physiological) roles have not yet been elucidated. ABA-glucosyltransferase (-GTase) is thought to play a key role in the glycosylation of ABA. We isolated an ABA-inducible GTase gene from UDP-GTase homologs obtained from adzuki bean (Vigna angularis) seedlings. The deduced amino acid sequence (accession no. AB065190) showed 30% to 44% identity with the known UDP-GTase homologs. The recombinant protein with a glutathione S-transferase-tag was expressed in Escherichia coli and showed enzymatic activity in an ABA-specific manner. The enzymatic activity was detected over a wide pH range from 5.0 to 9.0, the optimum range being between pH 6.0 and 7.3, in a citrate and Tris-HCI buffer. The product from racemic ABA and UDP-D-glucose was identified to be ABA-GE by gas chromatography/mass spectrometry. The recombinant GTase (rAOG) converted 2-trans-(+)-ABA better than (+)-S-ABA and (-)-RABA. Although trans-cinnamic acid was slightly converted to its conjugate by the GTase, (-)-PA was not at all. The mRNA level was increased by ABA application or by water stress and wounding. We suggest that the gene encodes an ABA-specific GTase and that its expression is regulated by environmental stress.
p15
sS'pageEnd'
p16
I1295
sS'publisherAddress'
p17
V15501 MONONA DRIVE, ROCKVILLE, MD 20855 USA
p18
sS'documentType'
p19
VArticle
p20
sS'subject'
p21
VPlant Sciences
p22
sS'isoSource'
p23
VPlant Physiol.
p24
sS'timesCited'
p25
(lp26
I49
aVZ9 60
p27
asS'PT'
p28
VJ
sS'title'
p29
VCloning And Characterization Of The Abscisic Acid-Specific Glucosyltransferase Gene From Adzuki Bean Seedlings
p30
sS'ISSN'
p31
(lp32
V0032-0889
p33
aVJ9 PLANT PHYSIOL
p34
asS'authors_full'
p35
(lp36
(VXU
VZJ
tp37
a(VNAKAJIMA
VM
tp38
a(VSUZUKI
VY
tp39
a(VYAMAGUCHI
VI
tp40
asS'PG'
p41
I11
sS'PD'
p42
VJUL
p43
sS'pageStart'
p44
I1285
sS'issue'
p45
I3
sS'journal'
p46
VPLANT PHYSIOLOGY
p47
sS'volume'
p48
V129
p49
sS'doi'
p50
V10.1104/pp.001784
p51
sS'authorAddress'
p52
(lp53
VUniv Tokyo, Dept Appl Biol Chem, Bunkyo Ku, Tokyo 1138657, Japan.
p54
aVBiooriented Technol Res Advancement Inst, Tokyo 1050001, Japan.
p55
asS'date'
p56
I2002
sS'ER'
p57
V
sS'publisher'
p58
VAMER SOC PLANT BIOLOGISTS
p59
sS'authorKeywords'
p60
(lp61
VO-GLUCOSYLTRANSFERASE
p62
aVXANTHIUM-STRUMARIUM
p63
aVPHASEOLUS-LUNATUS
p64
aVENZYMIC-SYNTHESIS
p65
aVPLANT-RESPONSES
p66
aVZEA-MAYS
p67
aVMETABOLISM
p68
aVSTRESS
p69
aVEXPRESSION
p70
aVCELLS
p71
asS'language'
p72
VEnglish
p73
sS'wosid'
p74
VWOS:000177045000049
p75
sS'citationCount'
p76
I47
sS'authors_init'
p77
(lp78
(VXU
VZ J
tp79
a(VNAKAJIMA
VM
tp80
a(VSUZUKI
VY
tp81
a(VYAMAGUCHI
VI
tp82
asS'citedReferences'
p83
(lp84
g1
(g2
g3
NtRp85
(dp86
g50
V10.1046/j.1365-313X.1999.00354.x
p87
sg46
VPLANT J
p88
sg48
V17
p89
sg77
(lp90
(VALBINSKY
VD
tp91
asg56
I1999
sg44
VLANT
p92
sbag1
(g2
g3
NtRp93
(dp94
g50
Nsg46
VPLANT PHYSIOL
p95
sg48
V106
p96
sg77
(lp97
(VBALSEVICH
VJ J
tp98
asg56
I1994
sg44
VLANT
p99
sbag1
(g2
g3
NtRp100
(dp101
g50
V10.1023/A:1006327532275
p102
sg46
VPLANT GROWTH REGUL
p103
sg48
V30
p104
sg77
(lp105
(VBARTHE
VP
tp106
asg56
I2000
sg44
VLANT
p107
sbag1
(g2
g3
NtRp108
(dp109
g50
V10.1016/S0031-9422(00)81562-9
p110
sg46
VPHYTOCHEMISTRY
p111
sg48
V25
p112
sg77
(lp113
(VBOYER
VG L
tp114
asg56
I1986
sg44
VHYTOCHEMISTRY
p115
sbag1
(g2
g3
NtRp116
(dp117
g50
V10.1016/S1360-1385(97)82562-9
p118
sg46
VTRENDS PLANT SCI
p119
sg48
V2
sg77
(lp120
(VBRAY
VE A
tp121
asg56
I1997
sg44
V48
p122
sbag1
(g2
g3
NtRp123
(dp124
g50
V10.1104/pp.79.3.719
p125
sg46
VPLANT PHYSIOL
p126
sg48
V79
p127
sg77
(lp128
(VBRAY
VE A
tp129
asg56
I1985
sg44
VLANT
p130
sbag1
(g2
g3
NtRp131
(dp132
g50
V10.1146/annurev.pp.45.060194.000553
p133
sg46
VANNU REV PLANT PHYS
p134
sg48
V45
p135
sg77
(lp136
(VCHANDLER
VP M
tp137
asg56
I1994
sg44
V113
p138
sbag1
(g2
g3
NtRp139
(dp140
g50
V10.1104/pp.85.3.726
p141
sg46
VPLANT PHYSIOL
p142
sg48
V85
p143
sg77
(lp144
(VCREELMAN
VR A
tp145
asg56
I1987
sg44
VLANT
p146
sbag1
(g2
g3
NtRp147
(dp148
g50
V10.1104/pp.90.4.1316
p149
sg46
VPLANT PHYSIOL
p150
sg48
V90
p151
sg77
(lp152
(VDIXON
VS C
tp153
asg56
I1989
sg44
VLANT
p154
sbag1
(g2
g3
NtRp155
(dp156
g50
V10.1111/j.1399-3054.1982.tb00704.x
p157
sg46
VPHYSIOL PLANTARUM
p158
sg48
V54
p159
sg77
(lp160
(VEVERATBOURBOULOUX
VA
tp161
asg56
I1982
sg44
VHYSIOL
p162
sbag1
(g2
g3
NtRp163
(dp164
g50
Nsg46
VANNU REV PLANT PHYS
p165
sg48
V40
p166
sg77
(lp167
(VFINCHER
VG B
tp168
asg56
I1989
sg44
V305
p169
sbag1
(g2
g3
NtRp170
(dp171
g50
Nsg46
VPLANT PHYSIOL
p172
sg48
V112
p173
sg77
(lp174
(VHERDE
VO
tp175
asg56
I1996
sg44
VLANT
p176
sbag1
(g2
g3
NtRp177
(dp178
g50
V10.1038/310321a0
p179
sg46
VNATURE
p180
sg48
V310
p181
sg77
(lp182
(VHORNBERG
VC
tp183
asg56
I1984
sg44
V321
p184
sbag1
(g2
g3
NtRp185
(dp186
g50
V10.1111/j.1399-3054.1982.tb02275.x
p187
sg46
VPhysiologia Plantarum
p188
sg48
V55
p189
sg77
(lp190
(VILAHI
VI
tp191
asg56
I1982
sg44
Vhysiologia
p192
sbag1
(g2
g3
NtRp193
(dp194
g50
V10.1146/annurev.arplant.47.1.377
p195
sg46
VANNU REV PLANT PHYS
p196
sg48
V47
p197
sg77
(lp198
(VINGRAM
VJ
tp199
asg56
I1996
sg44
V377
p200
sbag1
(g2
g3
NtRp201
(dp202
g50
V10.1111/j.1399-3054.1982.tb04523.x
p203
sg46
VPHYSIOL PLANTARUM
p204
sg48
V55
p205
sg77
(lp206
(VJOHNSON
VJ D
tp207
asg56
I1982
sg44
VHYSIOL
p208
sbag1
(g2
g3
NtRp209
(dp210
g50
Nsg46
VAGR BIOL CHEM TOKYO
p211
sg48
V30
p212
sg77
(lp213
(VKOSHIMIZK
S''
tp214
asg56
I1966
sg44
V941
p215
sbag1
(g2
g3
NtRp216
(dp217
g50
V10.1074/jbc.274.51.36637
p218
sg46
VJ BIOL CHEM
p219
sg48
V274
p220
sg77
(lp221
(VLEE
VH
tp222
asg56
I1999
sg44
V36637
p223
sbag1
(g2
g3
NtRp224
(dp225
g50
V10.1007/BF00392276
p226
sg46
VPLANTA
p227
sg48
V168
p228
sg77
(lp229
(VLEHMANN
VH
tp230
asg56
I1986
sg44
VLANTA
p231
sbag1
(g2
g3
NtRp232
(dp233
g50
Nsg46
VZ PFLANZENPHYSIOL
p234
sg48
V96
p235
sg77
(lp236
(VLEHMANN
VH
tp237
asg56
I1980
sg44
V277
p238
sbag1
(g2
g3
NtRp239
(dp240
g50
Nsg46
VJ PLANT PHYSIOL
p241
sg48
V132
p242
sg77
(lp243
(VLEHMANN
VH
tp244
asg56
I1988
sg44
V98
p245
sbag1
(g2
g3
NtRp246
(dp247
g50
V10.1146/annurev.arplant.49.1.199
p248
sg46
VANNU REV PLANT PHYS
p249
sg48
V49
p250
sg77
(lp251
(VLEUNG
VJ
tp252
asg56
I1998
sg44
V199
p253
sbag1
(g2
g3
NtRp254
(dp255
g50
V10.1104/pp.88.4.1474
p256
sg46
VPLANT PHYSIOL
p257
sg48
V88
p258
sg77
(lp259
(VLEZNICKI
VA J
tp260
asg56
I1988
sg44
VLANT
p261
sbag1
(g2
g3
NtRp262
(dp263
g50
V10.1104/pp.88.4.1481
p264
sg46
VPLANT PHYSIOL
p265
sg48
V88
p266
sg77
(lp267
(VLEZNICKI
VA J
tp268
asg56
I1988
sg44
VLANT
p269
sbag1
(g2
g3
NtRp270
(dp271
g50
V10.1016/0003-2697(87)90086-8
p272
sg46
VANAL BIOCHEM
p273
sg48
V163
p274
sg77
(lp275
(VLOGEMANN
VJ
tp276
asg56
I1987
sg44
V16
p277
sbag1
(g2
g3
NtRp278
(dp279
g50
V10.1073/pnas.96.1.284
p280
sg46
VP NATL ACAD SCI USA
p281
sg48
V96
p282
sg77
(lp283
(VMARTIN
VR C
tp284
asg56
I1999
sg44
V284
p285
sbag1
(g2
g3
NtRp286
(dp287
g50
V10.1146/annurev.pp.46.060195.000443
p288
sg46
VANNU REV PLANT PHYS
p289
sg48
V46
p290
sg77
(lp291
(VMCCARTY
VD R
tp292
asg56
I1995
sg44
V71
p293
sbag1
(g2
g3
NtRp294
(dp295
g50
V10.1093/jxb/21.1.17
p296
sg46
VJ EXP BOT
p297
sg48
V21
p298
sg77
(lp299
(VMILBORROBV
S''
tp300
asg56
I1970
sg44
V17
p301
sbag1
(g2
g3
NtRp302
(dp303
g50
V10.1093/jxb/29.5.1059
p304
sg46
VJ EXP BOT
p305
sg48
V29
p306
sg77
(lp307
(VMILBORROW
VB V
tp308
asg56
I1978
sg44
V1059
p309
sbag1
(g2
g3
NtRp310
(dp311
g50
Nsg46
VPLANT CELL
p312
sg48
V9
sg77
(lp313
(VMOONS
VA
tp314
asg56
I1997
sg44
VLANT
p315
sbag1
(g2
g3
NtRp316
(dp317
g50
V10.1007/BF00397410
p318
sg46
VPLANTA
p319
sg48
V157
p320
sg77
(lp321
(VNEILL
VS J
tp322
asg56
I1983
sg44
VLANTA
p323
sbag1
(g2
g3
NtRp324
(dp325
g50
V10.1073/pnas.96.26.15354
p326
sg46
VP NATL ACAD SCI USA
p327
sg48
V96
p328
sg77
(lp329
(VQIN
VX Q
tp330
asg56
I1999
sg44
V15354
p331
sbag1
(g2
g3
NtRp332
(dp333
g50
V10.1046/j.1469-8137.2000.00769.x
p334
sg46
VNEW PHYTOL
p335
sg48
V148
p336
sg77
(lp337
(VROCK
VC D
tp338
asg56
I2000
sg44
V357
p339
sbag1
(g2
g3
NtRp340
(dp341
g50
V10.1007/BF00020088
p342
sg46
VPLANT MOL BIOL
p343
sg48
V5
sg77
(lp344
(VROGERS
VS O
tp345
asg56
I1985
sg44
VLANT
p346
sbag1
(g2
g3
NtRp347
(dp348
g50
Nsg46
VBIOCHEM PHYSIOL PFL
p349
sg48
V188
p350
sg77
(lp351
(VSCHWARZKOPF
VE
tp352
asg56
I1992
sg44
V57
p353
sbag1
(g2
g3
NtRp354
(dp355
g50
V10.1104/pp.124.4.1752
p356
sg46
VPLANT PHYSIOL
p357
sg48
V124
p358
sg77
(lp359
(VSODERMAN
VE M
tp360
asg56
I2000
sg44
VLANT
p361
sbag1
(g2
g3
NtRp362
(dp363
g50
V10.1126/science.8085154
p364
sg46
VSCIENCE
p365
sg48
V265
p366
sg77
(lp367
(VSZERSZEN
VJ B
tp368
asg56
I1994
sg44
V1699
p369
sbag1
(g2
g3
NtRp370
(dp371
g50
V10.1093/jxb/35.1.110
p372
sg46
VJ EXP BOT
p373
sg48
V35
p374
sg77
(lp375
(VVAUGHAN
VG T
tp376
asg56
I1984
sg44
V110
p377
sbag1
(g2
g3
NtRp378
(dp379
g50
V10.1016/S1360-1385(00)01720-9
p380
sg46
VTRENDS PLANT SCI
p381
sg48
V5
sg77
(lp382
(VVOGT
VT
tp383
asg56
I2000
sg44
V380
p384
sbag1
(g2
g3
NtRp385
(dp386
g50
Nsg46
VABSCISIC ACID
p387
sg48
Nsg77
(lp388
(VWALTON
VD C
tp389
asg56
I1983
sg44
V113
p390
sbag1
(g2
g3
NtRp391
(dp392
g50
V10.1093/jxb/41.5.593
p393
sg46
VJ EXP BOT
p394
sg48
V41
p395
sg77
(lp396
(VWOLF
VO
tp397
asg56
I1990
sg44
V593
p398
sbag1
(g2
g3
NtRp399
(dp400
g50
V10.1146/annurev.pp.39.060188.002255
p401
sg46
VANNU REV PLANT PHYS
p402
sg48
V39
p403
sg77
(lp404
(VZEEVAART
VJ A D
tp405
asg56
I1988
sg44
V439
p406
sbag1
(g2
g3
NtRp407
(dp408
g50
V10.1104/pp.71.3.477
p409
sg46
VPLANT PHYSIOL
p410
sg48
V71
p411
sg77
(lp412
(VZEEVAART
VJ A D
tp413
asg56
I1983
sg44
VLANT
p414
sbag1
(g2
g3
NtRp415
(dp416
g50
V10.1104/pp.74.4.934
p417
sg46
VPLANT PHYSIOL
p418
sg48
V74
p419
sg77
(lp420
(VZEEVAART
VJ A D
tp421
asg56
I1984
sg44
VLANT
p422
sbag1
(g2
g3
NtRp423
(dp424
g50
V10.1016/S0031-9422(00)88955-4
p425
sg46
VPHYTOCHEMISTRY
p426
sg48
V15
p427
sg77
(lp428
(VZEEVAART
VJ A D
tp429
asg56
I1976
sg44
VHYTOCHEMISTRY
p430
sbag1
(g2
g3
NtRp431
(dp432
g50
V10.1104/pp.66.4.672
p433
sg46
VPLANT PHYSIOL
p434
sg48
V66
p435
sg77
(lp436
(VZEEVAART
VJ A D
tp437
asg56
I1980
sg44
VLANT
p438
sbag1
(g2
g3
NtRp439
(dp440
g50
Nsg46
VBIOCH MOL BIOL PLANT
p441
sg48
Nsg77
(lp442
(VZEEVART
VJ A D
tp443
asg56
I1999
sg44
V189
p444
sbasb.