ccopy_reg
_reconstructor
p1
(ctethne.classes.paper
Paper
p2
c__builtin__
object
p3
NtRp4
(dp5
S'publisherCity'
p6
VROCKVILLE
p7
sS'reprintAddress'
p8
VZhao, FJ (reprint author), Rothamsted Res, Harpenden AL5 2JQ, Herts, England.
p9
sS'WC'
p10
VPlant Sciences
p11
sS'GA'
p12
V578ZO
p13
sS'FX'
p14
(lp15
VThis work was supported by the Service Center for Experts and Scholars
p16
aVof Hebei Province (fellowship to W.-J.L.), the Natural Science
p17
aVFoundation of China (grant no. 40673060 to W.-J.L.), and the Institute
p18
aVof Medical Sciences, University of Aberdeen (Ph.D. scholarship in
p19
aVSystems Biology to B. A. W.). Rothamsted Research is an institute of the
p20
aVBiotechnology and Biological Sciences Research Council of the United
p21
aVKingdom.
p22
asS'abstract'
p23
VComplexation of arsenite [As(III)] with phytochelatins (PCs) is an important mechanism employed by plants to detoxify As; how this complexation affects As mobility was little known. We used high-resolution inductively coupled plasma-mass spectrometry and accurate mass electrospray ionization-mass spectrometry coupled to HPLC to identify and quantify As(III)thiol complexes and free thiol compounds in Arabidopsis (Arabidopsis thaliana) exposed to arsenate [As(V)]. As(V) was efficiently reduced to As(III) in roots. In wild-type roots, 69% of As was complexed as As(III)-PC4, As(III)-PC3, and As(III)-(PC2)(2). Both the glutathione (GSH)-deficient mutant cad2-1 and the PC-deficient mutant cad1-3 were approximately 20 times more sensitive to As(V) than the wild type. In cad1-3 roots, only 8% of As was complexed with GSH as As(III)-(GS)(3) and no As(III)-PCs were detected, while in cad2-1 roots, As(III)-PCs accounted for only 25% of the total As. The two mutants had a greater As mobility, with a significantly higher accumulation of As(III) in shoots and 4.5 to 12 times higher shoot-to-root As concentration ratio than the wild type. Roots also effluxed a substantial proportion of the As(V) taken up as As(III) to the external medium, and this efflux was larger in the two mutants. Furthermore, when wild-type plants were exposed to L-buthionine sulfoximine or deprived of sulfur, both As(III) efflux and root-to-shoot translocation were enhanced. The results indicate that complexation of As(III) with PCs in Arabidopsis roots decreases its mobility for both efflux to the external medium and for root-to-shoot translocation. Enhancing PC synthesis in roots may be an effective strategy to reduce As translocation to the edible organs of food crops.
p24
sS'pageEnd'
p25
I2221
sS'date'
p26
I2010
sS'documentType'
p27
VArticle
p28
sS'subject'
p29
VPlant Sciences
p30
sS'isoSource'
p31
VPlant Physiol.
p32
sS'timesCited'
p33
(lp34
I31
aVZ9 36
p35
asS'funding'
p36
(lp37
(VService Center for Experts and Scholars of Hebei Province
Ntp38
a(VNatural Science Foundation of China
V40673060
tp39
a(VInstitute of Medical Sciences, University of Aberdeen
Ntp40
asS'PT'
p41
VJ
sS'title'
p42
VComplexation Of Arsenite With Phytochelatins Reduces Arsenite Efflux And Translocation From Roots To Shoots In Arabidopsis
p43
sS'ISSN'
p44
(lp45
V0032-0889
p46
aVJ9 PLANT PHYSIOL
p47
asS'authors_full'
p48
(lp49
(VLIU
VWENJU
tp50
a(VWOOD
VB ALAN
tp51
a(VRAAB
VANDREA
tp52
a(VMCGRATH
VSTEVE P
tp53
a(VZHAO
VFANGJIE
tp54
a(VFELDMANN
VJOERG
tp55
asS'PG'
p56
I11
sS'PD'
p57
VAPR
p58
sS'pageStart'
p59
I2211
sS'issue'
p60
I4
sS'RI'
p61
(lp62
VZhao, Fang-Jie/A-8339-2008; Feldmann, Jorg/B-8079-2011; McGrath,
p63
aVSteve/B-5127-2008
p64
asS'journal'
p65
VPLANT PHYSIOLOGY
p66
sS'volume'
p67
V152
p68
sS'doi'
p69
V10.1104/pp.109.150862
p70
sS'emailAddress'
p71
Vfangjie.zhao@bbsrc.ac.uk
p72
sS'authorAddress'
p73
(lp74
V[Liu, Wen-Ju; McGrath, Steve P.; Zhao, Fang-Jie] Rothamsted Res, Harpenden AL5 2JQ, Herts, England.
p75
aV[Wood, B. Alan; Raab, Andrea; Feldmann, Joerg] Univ Aberdeen, Coll Phys Sci, Trace Element Speciat Lab, Aberdeen AB24 3UE, Scotland.
p76
asS'publisherAddress'
p77
V15501 MONONA DRIVE, ROCKVILLE, MD 20855 USA
p78
sS'ER'
p79
V
sS'publisher'
p80
VAMER SOC PLANT BIOLOGISTS
p81
sS'authorKeywords'
p82
(lp83
VGAMMA-GLUTAMYLCYSTEINE SYNTHETASE
p84
aVHYPERACCUMULATOR PTERIS-VITTATA
p85
aVTOLERANT HOLCUS-LANATUS
p86
aVLONG-DISTANCE TRANSPORT
p87
aVARSENATE REDUCTASE
p88
aVGLUTATHIONE-DEFICIENT
p89
aVSILENE-VULGARIS
p90
aVTHIOL-PEPTIDES
p91
aVINDIAN MUSTARD
p92
aVPLANTS
p93
asS'OI'
p94
VZhao, Fang-Jie/0000-0002-0164-169X; McGrath, Steve/0000-0003-0952-8947
p95
sS'language'
p96
VEnglish
p97
sS'wosid'
p98
VWOS:000276335900038
p99
sS'citationCount'
p100
I53
sS'authors_init'
p101
(lp102
(VLIU
VW J
tp103
a(VWOOD
VB A
tp104
a(VRAAB
VA
tp105
a(VMCGRATH
VS P
tp106
a(VZHAO
VF J
tp107
a(VFELDMANN
VJ
tp108
asS'citedReferences'
p109
(lp110
g1
(g2
g3
NtRp111
(dp112
g69
V10.1007/7171_2006_086
p113
sg65
VMICROBIOLOGY MONOGRA
p114
sg67
V6
sg101
(lp115
(VBHATTACHARJEE
VH
tp116
asg26
I2007
sg59
V371
p117
sbag1
(g2
g3
NtRp118
(dp119
g69
V10.1111/j.1355-313X.2005.02651.x
p120
sg65
VPLANT J
p121
sg67
V45
p122
sg101
(lp123
(VBLEEKER
VP M
tp124
asg26
I2006
sg59
VLANT
p125
sbag1
(g2
g3
NtRp126
(dp127
g69
V10.1007/s00216-008-2395-z
p128
sg65
VANAL BIOANAL CHEM
p129
sg67
V393
p130
sg101
(lp131
(VBLUEMLEIN
VK
tp132
asg26
I2009
sg59
V357
p133
sbag1
(g2
g3
NtRp134
(dp135
g69
V10.1007/s00216-007-1724-y
p136
sg65
VANAL BIOANAL CHEM
p137
sg67
V390
p138
sg101
(lp139
(VBLUEMLEIN
VK
tp140
asg26
I2008
sg59
V1739
p141
sbag1
(g2
g3
NtRp142
(dp143
g69
V10.1039/b811600h
p144
sg65
VJ ANAL ATOM SPECTROM
p145
sg67
V24
p146
sg101
(lp147
(VBLUEMLEIN
VK
tp148
asg26
I2009
sg59
V108
p149
sbag1
(g2
g3
NtRp150
(dp151
g69
V10.1016/j.envint.2008.10.004
p152
sg65
VENVIRON INT
p153
sg67
V35
p154
sg101
(lp155
(VBRAMMER
VH
tp156
asg26
I2009
sg59
V647
p157
sbag1
(g2
g3
NtRp158
(dp159
g69
V10.1104/pp.105.072637
p160
sg65
VPLANT PHYSIOL
p161
sg67
V141
p162
sg101
(lp163
(VCHEN
VA
tp164
asg26
I2006
sg59
VLANT
p165
sbag1
(g2
g3
NtRp166
(dp167
g69
V10.1146/annurev.arplant.53.100301.135154
p168
sg65
VANNU REV PLANT BIOL
p169
sg67
V53
p170
sg101
(lp171
(VCOBBETT
VC
tp172
asg26
I2002
sg59
V159
p173
sbag1
(g2
g3
NtRp174
(dp175
g69
V10.1046/j.1365-313x.1998.00262.x
p176
sg65
VPLANT J
p177
sg67
V16
p178
sg101
(lp179
(VCOBBETT
VC S
tp180
asg26
I1998
sg59
VLANT
p181
sbag1
(g2
g3
NtRp182
(dp183
g69
V10.1016/0168-9452(95)04066-4
p184
sg65
VPLANT SCI
p185
sg67
V106
p186
sg101
(lp187
(VDEKNECHT
VJ A
tp188
asg26
I1995
sg59
VLANT
p189
sbag1
(g2
g3
NtRp190
(dp191
g69
V10.1073/pnas.0509770102
p192
sg65
VP NATL ACAD SCI USA
p193
sg67
V103
p194
sg101
(lp195
(VDHANKHER
VO P
tp196
asg26
I2006
sg59
V5413
p197
sbag1
(g2
g3
NtRp198
(dp199
g69
V10.1111/j.1469-8137.2007.02009.x
p200
sg65
VNEW PHYTOL
p201
sg67
V174
p202
sg101
(lp203
(VDUAN
VG L
tp204
asg26
I2007
sg59
V311
p205
sbag1
(g2
g3
NtRp206
(dp207
g69
V10.1104/pp.106.084079
p208
sg65
VPLANT PHYSIOL
p209
sg67
V141
p210
sg101
(lp211
(VELLIS
VD R
tp212
asg26
I2006
sg59
VLANT
p213
sbag1
(g2
g3
NtRp214
(dp215
g69
V10.1071/EN09018
p216
sg65
VENVIRON CHEM
p217
sg67
V6
sg101
(lp218
(VFELDMANN
VJ
tp219
asg26
I2009
sg59
V275
p220
sbag1
(g2
g3
NtRp221
(dp222
g69
V10.1007/s11103-007-9158-7
p223
sg65
VPLANT MOL BIOL
p224
sg67
V64
p225
sg101
(lp226
(VGASIC
VK
tp227
asg26
I2007
sg59
VLANT
p228
sbag1
(g2
g3
NtRp229
(dp230
g69
V10.1073/pnas.96.9.5001
p231
sg65
VP NATL ACAD SCI USA
p232
sg67
V96
p233
sg101
(lp234
(VGHOSH
VM
tp235
asg26
I1999
sg59
V5001
p236
sbag1
(g2
g3
NtRp237
(dp238
g69
V10.1073/pnas.1734072100
p239
sg65
VP NATL ACAD SCI USA
p240
sg67
V100
p241
sg101
(lp242
(VGONG
VJ M
tp243
asg26
I2003
sg59
V10118
p244
sbag1
(g2
g3
NtRp245
(dp246
g69
V10.1073/pnas.84.2.439
p247
sg65
VP NATL ACAD SCI USA
p248
sg67
V84
p249
sg101
(lp250
(VGRILL
VE
tp251
asg26
I1987
sg59
V439
p252
sbag1
(g2
g3
NtRp253
(dp254
g69
V10.1105/tpc.11.6.1153
p255
sg65
VPLANT CELL
p256
sg67
V11
p257
sg101
(lp258
(VHA
VS B
tp259
asg26
I1999
sg59
VLANT
p260
sbag1
(g2
g3
NtRp261
(dp262
g69
V10.1046/j.1469-8137.2002.00455.x
p263
sg65
VNEW PHYTOL
p264
sg67
V155
p265
sg101
(lp266
(VHARTLEY-WHITAKER
VJ
tp267
asg26
I2002
sg59
V219
p268
sbag1
(g2
g3
NtRp269
(dp270
g69
V10.1104/pp.107.4.1059
p271
sg65
VPLANT PHYSIOL
p272
sg67
V107
p273
sg101
(lp274
(VHOWDEN
VR
tp275
asg26
I1995
sg59
VLANT
p276
sbag1
(g2
g3
NtRp277
(dp278
g69
V10.1104/pp.107.4.1067
p279
sg65
VPLANT PHYSIOL
p280
sg67
V107
p281
sg101
(lp282
(VHOWDEN
VR
tp283
asg26
I1995
sg59
VLANT
p284
sbag1
(g2
g3
NtRp285
(dp286
g69
V10.1021/es703243h
p287
sg65
VENVIRON SCI TECHNOL
p288
sg67
V42
p289
sg101
(lp290
(VHUANG
VZ C
tp291
asg26
I2008
sg59
V5106
p292
sbag1
(g2
g3
NtRp293
(dp294
g69
V10.1016/S0378-4274(02)00084-X
p295
sg65
VTOXICOL LETT
p296
sg67
V133
p297
sg101
(lp298
(VHUGHES
VM F
tp299
asg26
I2002
sg59
V1
sbag1
(g2
g3
NtRp300
(dp301
g69
V10.1002/(SICI)1521-3773(19981002)37:18<2464::AID-ANIE2464>3.0.CO;2-F
p302
sg65
VANGEW CHEM INT EDIT
p303
sg67
V37
p304
sg101
(lp305
(VJOHANNING
VJ
tp306
asg26
I1998
sg59
V2464
p307
sbag1
(g2
g3
NtRp308
(dp309
g69
V10.1104/pp.105.074815
p310
sg65
VPLANT PHYSIOL
p311
sg67
V141
p312
sg101
(lp313
(VLI
VY J
tp314
asg26
I2006
sg59
VLANT
p315
sbag1
(g2
g3
NtRp316
(dp317
g69
V10.1093/pcp/pch202
p318
sg65
VPLANT CELL PHYSIOL
p319
sg67
V45
p320
sg101
(lp321
(VLI
VY J
tp322
asg26
I2004
sg59
VLANT
p323
sbag1
(g2
g3
NtRp324
(dp325
g69
V10.1111/j.1469-8137.2009.02841.x
p326
sg65
VNEW PHYTOL
p327
sg67
V183
p328
sg101
(lp329
(VLOGOTETA
VB
tp330
asg26
I2009
sg59
V340
p331
sbag1
(g2
g3
NtRp332
(dp333
g69
V10.1021/es802612a
p334
sg65
VENVIRON SCI TECHNOL
p335
sg67
V43
p336
sg101
(lp337
(VMEHARG
VA A
tp338
asg26
I2009
sg59
V1612
p339
sbag1
(g2
g3
NtRp340
(dp341
g69
V10.1021/es0259842
p342
sg65
VENVIRON SCI TECHNOL
p343
sg67
V37
p344
sg101
(lp345
(VMEHARG
VA A
tp346
asg26
I2003
sg59
V229
p347
sbag1
(g2
g3
NtRp348
(dp349
g69
V10.1111/j.1365-313X.2008.03410.x
p350
sg65
VPLANT J
p351
sg67
V54
p352
sg101
(lp353
(VMENDOZA-COZATL
VD G
tp354
asg26
I2008
sg59
VLANT
p355
sbag1
(g2
g3
NtRp356
(dp357
g69
V10.1007/s00216-005-3325-y
p358
sg65
VANAL BIOANAL CHEM
p359
sg67
V383
p360
sg101
(lp361
(VMIHUCZ
VV G
tp362
asg26
I2005
sg59
V461
p363
sbag1
(g2
g3
NtRp364
(dp365
g69
V10.1021/es901121j
p366
sg65
VENVIRON SCI TECHNOL
p367
sg67
V43
p368
sg101
(lp369
(VNORTON
VG J
tp370
asg26
I2009
sg59
V6070
p371
sbag1
(g2
g3
NtRp372
(dp373
g69
V10.1007/s11104-008-9786-y
p374
sg65
VPLANT SOIL
p375
sg67
V317
p376
sg101
(lp377
(VPANAULLAH
VG M
tp378
asg26
I2009
sg59
VLANT
p379
sbag1
(g2
g3
NtRp380
(dp381
g69
V10.1021/es052559a
p382
sg65
VENVIRON SCI TECHNOL
p383
sg67
V40
p384
sg101
(lp385
(VPICKERING
VI J
tp386
asg26
I2006
sg59
V5010
p387
sbag1
(g2
g3
NtRp388
(dp389
g69
V10.1104/pp.122.4.1171
p390
sg65
VPLANT PHYSIOL
p391
sg67
V122
p392
sg101
(lp393
(VPICKERING
VI J
tp394
asg26
I2000
sg59
VLANT
p395
sbag1
(g2
g3
NtRp396
(dp397
g69
V10.1111/j.0031-9317.2004.0240.x
p398
sg65
VPHYSIOL PLANTARUM
p399
sg67
V120
p400
sg101
(lp401
(VQUAGHEBEUR
VM
tp402
asg26
I2004
sg59
VHYSIOL
p403
sbag1
(g2
g3
NtRp404
(dp405
g69
V10.1111/j.1469-8137.2005.01519.x
p406
sg65
VNEW PHYTOL
p407
sg67
V168
p408
sg101
(lp409
(VRAAB
VA
tp410
asg26
I2005
sg59
V551
p411
sbag1
(g2
g3
NtRp412
(dp413
g69
V10.1071/EN06079
p414
sg65
VENVIRON CHEM
p415
sg67
V4
sg101
(lp416
(VRAAB
VA
tp417
asg26
I2007
sg59
V197
p418
sbag1
(g2
g3
NtRp419
(dp420
g69
V10.1104/pp.103.033506
p421
sg65
VPLANT PHYSIOL
p422
sg67
V134
p423
sg101
(lp424
(VRAAB
VA
tp425
asg26
I2004
sg59
VLANT
p426
sbag1
(g2
g3
NtRp427
(dp428
g69
V10.1016/j.phytochem.2005.05.003
p429
sg65
VPHYTOCHEMISTRY
p430
sg67
V66
p431
sg101
(lp432
(VREQUEJO
VR
tp433
asg26
I2005
sg59
VHYTOCHEMISTRY
p434
sbag1
(g2
g3
NtRp435
(dp436
g69
V10.1093/jxb/erf107
p437
sg65
VJ EXP BOT
p438
sg67
V53
p439
sg101
(lp440
(VSCHAT
VH
tp441
asg26
I2002
sg59
V2381
p442
sbag1
(g2
g3
NtRp443
(dp444
g69
V10.1104/pp.122.3.793
p445
sg65
VPLANT PHYSIOL
p446
sg67
V122
p447
sg101
(lp448
(VSCHMOGER
VM E V
tp449
asg26
I2000
sg59
VLANT
p450
sbag1
(g2
g3
NtRp451
(dp452
g69
V10.1046/j.1469-8137.1999.00512.x
p453
sg65
VNEW PHYTOL
p454
sg67
V144
p455
sg101
(lp456
(VSNELLER
VF E C
tp457
asg26
I1999
sg59
V223
p458
sbag1
(g2
g3
NtRp459
(dp460
g69
V10.1111/j.1469-8137.2008.02584.x
p461
sg65
VNEW PHYTOL
p462
sg67
V180
p463
sg101
(lp464
(VSU
VY H
tp465
asg26
I2008
sg59
V434
p466
sbag1
(g2
g3
NtRp467
(dp468
g69
V10.1016/j.pbi.2009.05.001
p469
sg65
VCURR OPIN PLANT BIOL
p470
sg67
V12
p471
sg101
(lp472
(VVERBRUGGEN
VN
tp473
asg26
I2009
sg59
V364
p474
sbag1
(g2
g3
NtRp475
(dp476
g69
V10.1021/es0258475
p477
sg65
VENVIRON SCI TECHNOL
p478
sg67
V37
p479
sg101
(lp480
(VWEBB
VS M
tp481
asg26
I2003
sg59
V754
p482
sbag1
(g2
g3
NtRp483
(dp484
g69
V10.1111/j.1469-8137.2007.02195.x
p485
sg65
VNEW PHYTOL
p486
sg67
V176
p487
sg101
(lp488
(VXU
VX Y
tp489
asg26
I2007
sg59
V590
p490
sbag1
(g2
g3
NtRp491
(dp492
g69
V10.1111/j.1469-8137.2008.02758.x
p493
sg65
VNEW PHYTOL
p494
sg67
V182
p495
sg101
(lp496
(VZHANG
VX
tp497
asg26
I2009
sg59
V421
p498
sbag1
(g2
g3
NtRp499
(dp500
g69
V10.1046/j.1469-8137.2003.00784.x
p501
sg65
VNEW PHYTOL
p502
sg67
V159
p503
sg101
(lp504
(VZHAO
VF J
tp505
asg26
I2003
sg59
V403
p506
sbag1
(g2
g3
NtRp507
(dp508
g69
V10.1111/j.1469-8137.2008.02716.x
p509
sg65
VNEW PHYTOL
p510
sg67
V181
p511
sg101
(lp512
(VZHAO
VF J
tp513
asg26
I2009
sg59
V777
p514
sbag1
(g2
g3
NtRp515
(dp516
g69
V10.1016/j.pbi.2009.04.005
p517
sg65
VCURR OPIN PLANT BIOL
p518
sg67
V12
p519
sg101
(lp520
(VZHAO
VF J
tp521
asg26
I2009
sg59
V373
p522
sbag1
(g2
g3
NtRp523
(dp524
g69
V10.1021/es8001103
p525
sg65
VENVIRON SCI TECHNOL
p526
sg67
V42
p527
sg101
(lp528
(VZHU
VY G
tp529
asg26
I2008
sg59
V5008
p530
sbasb.