ccopy_reg
_reconstructor
p1
(ctethne.classes.paper
Paper
p2
c__builtin__
object
p3
NtRp4
(dp5
S'publisherCity'
p6
VROCKVILLE
p7
sS'reprintAddress'
p8
VKieber, JJ (reprint author), Univ N Carolina, Dept Biol, CB 3280, Chapel Hill, NC 27599 USA.
p9
sS'WC'
p10
VPlant Sciences
p11
sS'GA'
p12
V658TM
p13
sS'FX'
p14
(lp15
VThis work was supported by the National Science Foundation (grant no.
p16
aVIOS 0618286) and the National Research Initiative of the U.S. Department
p17
aVof Agriculture.
p18
asS'pageEnd'
p19
I492
sS'date'
p20
I2010
sS'documentType'
p21
VArticle
p22
sS'subject'
p23
VPlant Sciences
p24
sS'isoSource'
p25
VPlant Physiol.
p26
sS'timesCited'
p27
(lp28
I17
aVZ9 17
p29
asS'funding'
p30
(lp31
(VNational Science Foundation
VIOS 0618286
tp32
a(VNational Research Initiative of the U.S. Department of Agriculture
Ntp33
asS'PT'
p34
VJ
sS'title'
p35
VThe Perception Of Cytokinin: A Story 50 Years In The Making
p36
sS'ISSN'
p37
(lp38
V0032-0889
p39
aVJ9 PLANT PHYSIOL
p40
asS'authors_full'
p41
(lp42
(VKIEBER
VJOSEPH J
tp43
a(VSCHALLER
VG ERIC
tp44
asS'PG'
p45
I6
sS'PD'
p46
VOCT
p47
sS'pageStart'
p48
I487
sS'issue'
p49
I2
sS'journal'
p50
VPLANT PHYSIOLOGY
p51
sS'volume'
p52
V154
p53
sS'doi'
p54
V10.1104/pp.110.161596
p55
sS'emailAddress'
p56
Vjkieber@unc.edu
p57
sS'authorAddress'
p58
(lp59
V[Kieber, Joseph J.; Schaller, G. Eric] Univ N Carolina, Dept Biol, Chapel Hill, NC 27599 USA.
p60
aV[Schaller, G. Eric] Dartmouth Coll, Dept Biol Sci, Hanover, NH 03755 USA.
p61
asS'publisherAddress'
p62
V15501 MONONA DRIVE, ROCKVILLE, MD 20855 USA
p63
sS'ER'
p64
V
sS'publisher'
p65
VAMER SOC PLANT BIOLOGISTS
p66
sS'authorKeywords'
p67
(lp68
VARABIDOPSIS SHOOT MERISTEM
p69
aVSIGNAL-TRANSDUCTION
p70
aVRESPONSE REGULATORS
p71
aVHISTIDINE KINASE
p72
aVLIGAND-BINDING
p73
aV2-COMPONENT PHOSPHORELAY
p74
aVO-GLUCOSYLTRANSFERASE
p75
aVCHASE DOMAIN
p76
aVCIS-ZEATIN
p77
aVRECEPTOR
p78
asS'language'
p79
VEnglish
p80
sS'wosid'
p81
VWOS:000282512300014
p82
sS'citationCount'
p83
I67
sS'authors_init'
p84
(lp85
(VKIEBER
VJ J
tp86
a(VSCHALLER
VG E
tp87
asS'citedReferences'
p88
(lp89
g1
(g2
g3
NtRp90
(dp91
g54
V10.1126/science.1086391
p92
sg50
VSCIENCE
p93
sg52
V301
p94
sg84
(lp95
(VALONSO
VJ M
tp96
asg20
I2003
sg48
V653
p97
sbag1
(g2
g3
NtRp98
(dp99
g54
V10.1146/annurev.micro.61.080706.093309
p100
sg50
VANNU REV MICROBIOL
p101
sg52
V61
p102
sg84
(lp103
(VANANTHARAMAN
VV
tp104
asg20
I2007
sg48
V453
p105
sbag1
(g2
g3
NtRp106
(dp107
g54
V10.1016/S0968-0004(01)01968-5
p108
sg50
VTRENDS BIOCHEM SCI
p109
sg52
V26
p110
sg84
(lp111
(VANANTHARAMAN
VV
tp112
asg20
I2001
sg48
V579
p113
sbag1
(g2
g3
NtRp114
(dp115
g54
V10.1105/tpc.108.059584
p116
sg50
VPLANT CELL
p117
sg52
V20
p118
sg84
(lp119
(VARGYROS
VR D
tp120
asg20
I2008
sg48
VLANT
p121
sbag1
(g2
g3
NtRp122
(dp123
g54
Nsg50
VDEV BIOL
p124
sg52
V341
p125
sg84
(lp126
(VBARTON
VM K
tp127
asg20
I2001
sg48
V95
p128
sbag1
(g2
g3
NtRp129
(dp130
g54
V10.1105/tpc.10.6.1009
p131
sg50
VPLANT CELL
p132
sg52
V10
p133
sg84
(lp134
(VBRANDSTATTER
VI
tp135
asg20
I1998
sg48
VLANT
p136
sbag1
(g2
g3
NtRp137
(dp138
g54
V10.1038/nrm1962
p139
sg50
VNAT REV MOL CELL BIO
p140
sg52
V7
sg84
(lp141
(VCITRI
VA
tp142
asg20
I2006
sg48
V505
p143
sbag1
(g2
g3
NtRp144
(dp145
g54
V10.1104/pp.124.4.1706
p146
sg50
VPLANT PHYSIOL
p147
sg52
V124
p148
sg84
(lp149
(VD'AGOSTINO
VI B
tp150
asg20
I2000
sg48
VLANT
p151
sbag1
(g2
g3
NtRp152
(dp153
g54
Nsg50
VPLANT HORMONES BIOSY
p154
sg52
Nsg84
(lp155
(VDAVIES
VP J
tp156
asg20
I2004
sg48
VLANT
p157
sbag1
(g2
g3
NtRp158
(dp159
g54
Nsg50
VSCI STKE
p160
sg52
V2006
p161
sg84
(lp162
(VEHEBAUER
VM
tp163
asg20
I2006
sg48
Vcm7
p164
sbag1
(g2
g3
NtRp165
(dp166
g54
V10.1016/j.pbi.2005.07.013
p167
sg50
VCURR OPIN PLANT BIOL
p168
sg52
V8
sg84
(lp169
(VFERREIRA
VF J
tp170
asg20
I2005
sg48
V518
p171
sbag1
(g2
g3
NtRp172
(dp173
g54
V10.1073/pnas.0908122106
p174
sg50
VP NATL ACAD SCI USA
p175
sg52
V106
p176
sg84
(lp177
(VGORDON
VS P
tp178
asg20
I2009
sg48
V16529
p179
sbag1
(g2
g3
NtRp180
(dp181
g54
V10.1242/dev.010298
p182
sg50
VDEVELOPMENT
p183
sg52
V134
p184
sg84
(lp185
(VGORDON
VS P
tp186
asg20
I2007
sg48
V3539
p187
sbag1
(g2
g3
NtRp188
(dp189
g54
V10.1007/s00425-004-1316-4
p190
sg50
VPLANTA
p191
sg52
V219
p192
sg84
(lp193
(VGREFEN
VC
tp194
asg20
I2004
sg48
VLANTA
p195
sbag1
(g2
g3
NtRp196
(dp197
g54
Nsg50
VSITZUNGSBER AKAD WIS
p198
sg52
V1
sg84
(lp199
(VHABERLANDT
VG
tp200
asg20
I1913
sg48
V318
p201
sbag1
(g2
g3
NtRp202
(dp203
g54
V10.1631/jzus.2004.0629
p204
sg50
VJ Zhejiang Univ Sci
p205
sg52
V5
sg84
(lp206
(VHAN
VQIUMIN
tp207
asg20
I2004
sg48
V629
p208
sbag1
(g2
g3
NtRp209
(dp210
g54
V10.1186/1471-2148-7-62
p211
sg50
VBMC EVOL BIOL
p212
sg52
V7
sg84
(lp213
(VHEYL
VA
tp214
asg20
I2007
sg48
Nsbag1
(g2
g3
NtRp215
(dp216
g54
V10.1016/S1369-5266(03)00087-6
p217
sg50
VCURR OPIN PLANT BIOL
p218
sg52
V6
sg84
(lp219
(VHEYL
VA
tp220
asg20
I2003
sg48
V480
p221
sbag1
(g2
g3
NtRp222
(dp223
g54
V10.1073/pnas.0402887101
p224
sg50
VP NATL ACAD SCI USA
p225
sg52
V101
p226
sg84
(lp227
(VHIGUCHI
VM
tp228
asg20
I2004
sg48
V8821
p229
sbag1
(g2
g3
NtRp230
(dp231
g54
V10.4161/psb.2.4.4039
p232
sg50
VPlant Signal Behav
p233
sg52
V2
sg84
(lp234
(VHUTCHISON
VCLAIRE E
tp235
asg20
I2007
sg48
Vlant
p236
sbag1
(g2
g3
NtRp237
(dp238
g54
V10.1105/tpc.010444
p239
sg50
VPLANT CELL
p240
sg52
V14
p241
sg84
(lp242
(VHUTCHISON
VC E
tp243
asg20
I2002
sg48
VLANT
p244
sbag1
(g2
g3
NtRp245
(dp246
g54
V10.1038/35096500
p247
sg50
VNATURE
p248
sg52
V413
p249
sg84
(lp250
(VHWANG
VI
tp251
asg20
I2001
sg48
V383
p252
sbag1
(g2
g3
NtRp253
(dp254
g54
V10.1038/35059117
p255
sg50
VNATURE
p256
sg52
V409
p257
sg84
(lp258
(VINOUE
VT
tp259
asg20
I2001
sg48
V1060
p260
sbag1
(g2
g3
NtRp261
(dp262
g54
V10.1126/science.1164147
p263
sg50
VScience
p264
sg52
V322
p265
sg84
(lp266
(VIOIO
VRAFFAELE DELLO
tp267
asg20
I2008
sg48
Nsbag1
(g2
g3
NtRp268
(dp269
g54
V10.1016/j.cub.2005.07.023
p270
sg50
VCURR BIOL
p271
sg52
V15
p272
sg84
(lp273
(VJASINSKI
VS
tp274
asg20
I2005
sg48
V1560
p275
sbag1
(g2
g3
NtRp276
(dp277
g54
V10.1146/annurev.arplant.54.031902.134802
p278
sg50
VANNU REV PLANT BIOL
p279
sg52
V54
p280
sg84
(lp281
(VKAKIMOTO
VT
tp282
asg20
I2003
sg48
V605
p283
sbag1
(g2
g3
NtRp284
(dp285
g54
V10.1007/s10265-003-0095-5
p286
sg50
VJ PLANT RES
p287
sg52
V116
p288
sg84
(lp289
(VKAKIMOTO
VT
tp290
asg20
I2003
sg48
V233
p291
sbag1
(g2
g3
NtRp292
(dp293
g54
V10.1126/science.274.5289.982
p294
sg50
VSCIENCE
p295
sg52
V274
p296
sg84
(lp297
(VKAKIMOTO
VT
tp298
asg20
I1996
sg48
V982
p299
sbag1
(g2
g3
NtRp300
(dp301
g54
Nsg50
VARABIDOPSIS BOOK
p302
sg52
Nsg84
(lp303
(VKIEBER
VJ J
tp304
asg20
I2001
sg48
Nsbag1
(g2
g3
NtRp305
(dp306
g54
V10.1073/pnas.0505150103
p307
sg50
VP NATL ACAD SCI USA
p308
sg52
V103
p309
sg84
(lp310
(VKIM
VH J
tp311
asg20
I2006
sg48
V814
p312
sbag1
(g2
g3
NtRp313
(dp314
g54
V10.1073/pnas.93.15.8145
p315
sg50
VP NATL ACAD SCI USA
p316
sg52
V93
p317
sg84
(lp318
(VKRYSAN
VP J
tp319
asg20
I1996
sg48
V8145
p320
sbag1
(g2
g3
NtRp321
(dp322
g54
V10.1016/S0014-5793(98)00101-X
p323
sg50
VFEBS LETT
p324
sg52
V423
p325
sg84
(lp326
(VKULAEVA
VO N
tp327
asg20
I1998
sg48
V239
p328
sbag1
(g2
g3
NtRp329
(dp330
g54
V10.1038/nature05504
p331
sg50
VNATURE
p332
sg52
V445
p333
sg84
(lp334
(VKURAKAWA
VT
tp335
asg20
I2007
sg48
V652
p336
sbag1
(g2
g3
NtRp337
(dp338
g54
V10.1038/nature04270
p339
sg50
VNATURE
p340
sg52
V438
p341
sg84
(lp342
(VLEIBFRIED
VA
tp343
asg20
I2005
sg48
V1172
p344
sbag1
(g2
g3
NtRp345
(dp346
g54
V10.1016/j.cub.2006.04.030
p347
sg50
VCURR BIOL
p348
sg52
V16
p349
sg84
(lp350
(VMAHONEN
VA P
tp351
asg20
I2006
sg48
V1116
p352
sbag1
(g2
g3
NtRp353
(dp354
g54
V10.1073/pnas.101128798
p355
sg50
VP NATL ACAD SCI USA
p356
sg52
V98
p357
sg84
(lp358
(VMARTIN
VR C
tp359
asg20
I2001
sg48
V5922
p360
sbag1
(g2
g3
NtRp361
(dp362
g54
V10.1104/pp.120.2.553
p363
sg50
VPLANT PHYSIOL
p364
sg52
V120
p365
sg84
(lp366
(VMARTIN
VR C
tp367
asg20
I1999
sg48
VLANT
p368
sbag1
(g2
g3
NtRp369
(dp370
g54
V10.1073/pnas.96.1.284
p371
sg50
VP NATL ACAD SCI USA
p372
sg52
V96
p373
sg84
(lp374
(VMARTIN
VR C
tp375
asg20
I1999
sg48
V284
p376
sbag1
(g2
g3
NtRp377
(dp378
g54
V10.1073/pnas.0805619105
p379
sg50
VP NATL ACAD SCI USA
p380
sg52
V105
p381
sg84
(lp382
(VMATSUMOTO-KITANO
VM
tp383
asg20
I2008
sg48
V20027
p384
sbag1
(g2
g3
NtRp385
(dp386
g54
Nsg50
VJ AM CHEM SOC
p387
sg52
V78
p388
sg84
(lp389
(VMILLER
VC O
tp390
asg20
I1956
sg48
V1345
p391
sbag1
(g2
g3
NtRp392
(dp393
g54
V10.1021/ja01610a105
p394
sg50
VJ AM CHEM SOC
p395
sg52
V77
p396
sg84
(lp397
(VMILLER
VC O
tp398
asg20
I1955
sg48
V1392
p399
sbag1
(g2
g3
NtRp400
(dp401
g54
V10.1016/S0014-5793(98)01188-0
p402
sg50
VFEBS LETT
p403
sg52
V437
p404
sg84
(lp405
(VMIYATA
VS
tp406
asg20
I1998
sg48
V11
p407
sbag1
(g2
g3
NtRp408
(dp409
g54
V10.1016/j.pbi.2004.07.015
p410
sg50
VCURR OPIN PLANT BIOL
p411
sg52
V7
sg84
(lp412
(VMIZUNO
VT
tp413
asg20
I2004
sg48
V499
p414
sbag1
(g2
g3
NtRp415
(dp416
g54
Nsg50
VCYTOKININS CHEM ACTI
p417
sg52
Nsg84
(lp418
(VMOK
VD W S
tp419
asg20
I1994
sg48
Nsbag1
(g2
g3
NtRp420
(dp421
g54
V10.1146/annurev.arplant.52.1.89
p422
sg50
VANNU REV PLANT PHYS
p423
sg52
V52
p424
sg84
(lp425
(VMOK
VD W S
tp426
asg20
I2001
sg48
V89
p427
sbag1
(g2
g3
NtRp428
(dp429
g54
V10.1126/science.1145461
p430
sg50
VSCIENCE
p431
sg52
V318
p432
sg84
(lp433
(VMULLER
VB
tp434
asg20
I2007
sg48
V68
p435
sbag1
(g2
g3
NtRp436
(dp437
g54
V10.1073/pnas.0805617106
p438
sg50
VP NATL ACAD SCI USA
p439
sg52
V105
p440
sg84
(lp441
(VNIEMINEN
VK
tp442
asg20
I2008
sg48
V20032
p443
sbag1
(g2
g3
NtRp444
(dp445
g54
V10.1105/tpc.021477
p446
sg50
VPLANT CELL
p447
sg52
V16
p448
sg84
(lp449
(VNISHIMURA
VC
tp450
asg20
I2004
sg48
VLANT
p451
sbag1
(g2
g3
NtRp452
(dp453
g54
V10.1104/pp.109.139188
p454
sg50
VPLANT PHYSIOL
p455
sg52
V151
p456
sg84
(lp457
(VPILS
VB
tp458
asg20
I2009
sg48
VLANT
p459
sbag1
(g2
g3
NtRp460
(dp461
g54
V10.1016/S0960-9822(98)70131-9
p462
sg50
VCURR BIOL
p463
sg52
V8
sg84
(lp464
(VPLAKIDOU-DYMOCK
VS
tp465
asg20
I1998
sg48
V315
p466
sbag1
(g2
g3
NtRp467
(dp468
g54
V10.1111/j.1365-313X.2010.04165.x
p469
sg50
VPLANT J
p470
sg52
V62
p471
sg84
(lp472
(VPUNWANI
VJ A
tp473
asg20
I2010
sg48
VLANT
p474
sbag1
(g2
g3
NtRp475
(dp476
g54
V10.1093/jxb/erl179
p477
sg50
VJ EXP BOT
p478
sg52
V57
p479
sg84
(lp480
(VROMANOV
VG A
tp481
asg20
I2006
sg48
V4051
p482
sbag1
(g2
g3
NtRp483
(dp484
g54
V10.1126/science.1065201
p485
sg50
VSCIENCE
p486
sg52
V294
p487
sg84
(lp488
(VSAKAI
VH
tp489
asg20
I2001
sg48
V1519
p490
sbag1
(g2
g3
NtRp491
(dp492
g54
Nsg50
VARABIDOPSIS BOOK
p493
sg52
Nsg84
(lp494
(VSCHALLER
VG E
tp495
asg20
I2008
sg48
Nsbag1
(g2
g3
NtRp496
(dp497
g54
V10.1126/science.1071883
p498
sg50
VSCIENCE
p499
sg52
V296
p500
sg84
(lp501
(VSHEEN
VJ
tp502
asg20
I2002
sg48
V1650
p503
sbag1
(g2
g3
NtRp504
(dp505
g54
Nsg50
VSymp Soc Exp Biol
p506
sg52
V11
p507
sg84
(lp508
(VSKOOG
VF
tp509
asg20
I1957
sg48
V118
p510
sbag1
(g2
g3
NtRp511
(dp512
g54
V10.1146/annurev.biochem.69.1.183
p513
sg50
VANNU REV BIOCHEM
p514
sg52
V69
p515
sg84
(lp516
(VSTOCK
VA M
tp517
asg20
I2000
sg48
V183
p518
sbag1
(g2
g3
NtRp519
(dp520
g54
V10.1093/pcp/pce037
p521
sg50
VPLANT CELL PHYSIOL
p522
sg52
V42
p523
sg84
(lp524
(VSUZUKI
VT
tp525
asg20
I2001
sg48
VLANT
p526
sbag1
(g2
g3
NtRp527
(dp528
g54
V10.1016/S0014-5793(98)00611-5
p529
sg50
VFEBS LETT
p530
sg52
V429
p531
sg84
(lp532
(VTANIGUCHI
VM
tp533
asg20
I1998
sg48
V259
p534
sbag1
(g2
g3
NtRp535
(dp536
g54
V10.1105/tpc.107.052662
p537
sg50
VPLANT CELL
p538
sg52
V19
p539
sg84
(lp540
(VTO
VJ P C
tp541
asg20
I2007
sg48
VLANT
p542
sbag1
(g2
g3
NtRp543
(dp544
g54
V10.1016/j.tplants.2007.11.005
p545
sg50
VTRENDS PLANT SCI
p546
sg52
V13
p547
sg84
(lp548
(VTO
VJ P C
tp549
asg20
I2008
sg48
V85
p550
sbag1
(g2
g3
NtRp551
(dp552
g54
V10.1093/pcp/pce094
p553
sg50
VPLANT CELL PHYSIOL
p554
sg52
V42
p555
sg84
(lp556
(VUEGUCHI
VC
tp557
asg20
I2001
sg48
VLANT
p558
sbag1
(g2
g3
NtRp559
(dp560
g54
V10.1016/j.pbi.2009.07.002
p561
sg50
VCURR OPIN PLANT BIOL
p562
sg52
V12
p563
sg84
(lp564
(VWERNER
VT
tp565
asg20
I2009
sg48
V527
p566
sbag1
(g2
g3
NtRp567
(dp568
g54
V10.1073/pnas.171304098
p569
sg50
VP NATL ACAD SCI USA
p570
sg52
V98
p571
sg84
(lp572
(VWERNER
VT
tp573
asg20
I2001
sg48
V10487
p574
sbag1
(g2
g3
NtRp575
(dp576
g54
VDOI 10.1186/GB-2002-3-10-REVIEWS3013
p577
sg50
VGENOME BIOL
p578
sg52
V3
sg84
(lp579
(VWOLANIN
VP M
tp580
asg20
I2002
sg48
Nsbag1
(g2
g3
NtRp581
(dp582
g54
V10.1093/pcp/pce127
p583
sg50
VPLANT CELL PHYSIOL
p584
sg52
V42
p585
sg84
(lp586
(VYAMADA
VH
tp587
asg20
I2001
sg48
VLANT
p588
sbag1
(g2
g3
NtRp589
(dp590
g54
V10.1104/pp.103.037176
p591
sg50
VPLANT PHYSIOL
p592
sg52
V134
p593
sg84
(lp594
(VYONEKURA-SAKAKIBARA
VK
tp595
asg20
I2004
sg48
VLANT
p596
sbasb.