ccopy_reg
_reconstructor
p1
(ctethne.classes.paper
Paper
p2
c__builtin__
object
p3
NtRp4
(dp5
S'publisherCity'
p6
VROCKVILLE
p7
sS'reprintAddress'
p8
VGillaspy, GE (reprint author), Virginia Tech, Dept Biochem, Blacksburg, VA 24061 USA.
p9
sS'WC'
p10
VPlant Sciences
p11
sS'GA'
p12
V380YH
p13
sS'FX'
p14
(lp15
VThis work was supported by the National Science Foundation (grant no.
p16
aVMCB-0641954 to G. E. G.) and the U. S. Department of Agriculture (grant
p17
aVno. 2003-35318-13690 to G. E. G.) and by Hatch program funds (grant no.
p18
aVVA-135583).
p19
asS'abstract'
p20
VIn plants, myoinositol signaling pathways have been associated with several stress, developmental, and physiological processes, but the regulation of these pathways is largely unknown. In our efforts to better understand myoinositol signaling pathways in plants, we have found that the WD40 repeat region of a myoinositol polyphosphate 5-phosphatase (5PTase13; At1g05630) interacts with the sucrose nonfermenting-1-related kinase (SnRK1.1) in the yeast two-hybrid system and in vitro. Plant SnRK1 proteins (also known as AKIN10/11) have been described as central integrators of sugar, metabolic, stress, and developmental signals. Using mutants defective in 5PTase13, we show that 5PTase13 can act as a regulator of SnRK1 activity and that regulation differs with different nutrient availability. Specifically, we show that under low-nutrient or -sugar conditions, 5PTase13 acts as a positive regulator of SnRK1 activity. In contrast, under severe starvation conditions, 5PTase13 acts as a negative regulator of SnRK1 activity. To delineate the regulatory interaction that occurs between 5PTase13 and SnRK1.1, we used a cell-free degradation assay and found that 5PTase13 is required to reduce the amount of SnRK1.1 targeted for proteasomal destruction under low-nutrient conditions. This regulation most likely involves a 5PTase13-SnRK1.1 interaction within the nucleus, as a 5PTase13: green fluorescent protein was localized to the nucleus. We also show that a loss of function in 5PTase13 leads to nutrient level-dependent reduction of root growth, along with abscisic acid (ABA) and sugar insensitivity. 5ptase13 mutants accumulate less inositol 1,4,5-trisphosphate in response to sugar stress and have alterations in ABA-regulated gene expression, both of which are consistent with the known role of inositol 1,4,5-trisphosphate in ABA-mediated signaling. We propose that by forming a protein complex with SnRK1.1 protein, 5PTase13 plays a regulatory role linking inositol, sugar, and stress signaling.
p21
sS'pageEnd'
p22
I1882
sS'date'
p23
I2008
sS'documentType'
p24
VArticle
p25
sS'subject'
p26
VPlant Sciences
p27
sS'isoSource'
p28
VPlant Physiol.
p29
sS'timesCited'
p30
(lp31
I23
aVZ9 28
p32
asS'funding'
p33
(lp34
(VNational Science Foundation
VMCB-0641954
tp35
a(VU. S. Department of Agriculture
V2003-35318-13690
tp36
a(VHatch program funds
VVA-135583
tp37
asS'PT'
p38
VJ
sS'title'
p39
VInteraction Of The Wd40 Domain Of A Myoinositol Polyphosphate 5-Phosphatase With Snrk1 Links Inositol, Sugar, And Stress Signaling
p40
sS'ISSN'
p41
(lp42
V0032-0889
p43
aVJ9 PLANT PHYSIOL
p44
asS'authors_full'
p45
(lp46
(VANANIEVA
VELITSA A
tp47
a(VGILLASPY
VGLENDA E
tp48
a(VELY
VAMANDA
tp49
a(VBURNETTE
VRYAN N
tp50
a(VERICKSON
VF LES
tp51
asS'PG'
p52
I15
sS'PD'
p53
VDEC
p54
sS'pageStart'
p55
I1868
sS'issue'
p56
I4
sS'journal'
p57
VPLANT PHYSIOLOGY
p58
sS'volume'
p59
V148
p60
sS'doi'
p61
V10.1104/pp.108.130575
p62
sS'emailAddress'
p63
Vgillaspy@vt.edu
p64
sS'authorAddress'
p65
(lp66
V[Ananieva, Elitsa A.; Gillaspy, Glenda E.; Burnette, Ryan N.] Virginia Tech, Dept Biochem, Blacksburg, VA 24061 USA.
p67
aV[Ely, Amanda; Erickson, F. Les] Salisbury Univ, Dept Biol, Salisbury, MD 21801 USA.
p68
asS'publisherAddress'
p69
V15501 MONONA DRIVE, ROCKVILLE, MD 20855 USA
p70
sS'ER'
p71
V
sS'publisher'
p72
VAMER SOC PLANT BIOLOGISTS
p73
sS'authorKeywords'
p74
(lp75
VABSCISIC-ACID
p76
aVPROTEIN-KINASE
p77
aVARABIDOPSIS-THALIANA
p78
aVPHOSPHOINOSITIDE METABOLISM
p79
aVSEEDLING GROWTH
p80
aVINSENSITIVE MUTANTS
p81
aV3T3-L1 ADIPOCYTES
p82
aVUBIQUITIN LIGASE
p83
aVPLASMA-MEMBRANE
p84
aVCYTOSOLIC CA2+
p85
asS'language'
p86
VEnglish
p87
sS'wosid'
p88
VWOS:000261501500012
p89
sS'citationCount'
p90
I64
sS'authors_init'
p91
(lp92
(VANANIEVA
VE A
tp93
a(VGILLASPY
VG E
tp94
a(VELY
VA
tp95
a(VBURNETTE
VR N
tp96
a(VERICKSON
VF L
tp97
asS'citedReferences'
p98
(lp99
g1
(g2
g3
NtRp100
(dp101
g61
V10.1126/science.1086391
p102
sg57
VSCIENCE
p103
sg59
V301
p104
sg91
(lp105
(VALONSO
VJ M
tp106
asg23
I2003
sg55
V653
p107
sbag1
(g2
g3
NtRp108
(dp109
g61
V10.1111/j.1365-313X.2006.02844.x
p110
sg57
VPLANT J
p111
sg59
V47
p112
sg91
(lp113
(VANDERSSON
VM X
tp114
asg23
I2006
sg55
VLANT
p115
sbag1
(g2
g3
NtRp116
(dp117
g61
Nsg57
VGENE DEV
p118
sg59
V14
p119
sg91
(lp120
(VARENAS-HUERTERO
VF
tp121
asg23
I2000
sg55
V2085
p122
sbag1
(g2
g3
NtRp123
(dp124
g61
Nsg57
VBIOCHEM SOC SYMP
p125
sg59
V74
p126
sg91
(lp127
(VASTLE
VM V
tp128
asg23
I2007
sg55
V161
p129
sbag1
(g2
g3
NtRp130
(dp131
g61
V10.1038/nature06069
p132
sg57
VNATURE
p133
sg59
V448
p134
sg91
(lp135
(VBAENA-GONZALEZ
VE
tp136
asg23
I2007
sg55
V938
p137
sbag1
(g2
g3
NtRp138
(dp139
g61
Nsg57
VCR ACAD SCI III
p140
sg59
V316
p141
sg91
(lp142
(VBECHTOLD
VN
tp143
asg23
I1993
sg55
V1194
p144
sbag1
(g2
g3
NtRp145
(dp146
g61
V10.1104/pp.126.2.801
p147
sg57
VPLANT PHYSIOL
p148
sg59
V126
p149
sg91
(lp150
(VBERDY
VS E
tp151
asg23
I2001
sg55
VLANT
p152
sbag1
(g2
g3
NtRp153
(dp154
g61
V10.1038/361315a0
p155
sg57
VNATURE
p156
sg59
V361
p157
sg91
(lp158
(VBERRIDGE
VM J
tp159
asg23
I1993
sg55
V315
p160
sbag1
(g2
g3
NtRp161
(dp162
g61
V10.1002/9780470514696.ch1
p163
sg57
VBIOCHEM SOC SYMP
p164
sg59
V74
p165
sg91
(lp166
(VBERRIDGE
VM J
tp167
asg23
I2007
sg55
V1
sbag1
(g2
g3
NtRp168
(dp169
g61
V10.1073/pnas.96.9.5322
p170
sg57
VP NATL ACAD SCI USA
p171
sg59
V96
p172
sg91
(lp173
(VBHALERAO
VR P
tp174
asg23
I1999
sg55
V5322
p175
sbag1
(g2
g3
NtRp176
(dp177
g61
Nsg57
VV39
p178
sg59
V39
p179
sg91
(lp180
(VBOSS
VWENDY E
tp181
asg23
I2006
sg55
V181
p182
sbag1
(g2
g3
NtRp183
(dp184
g61
Nsg57
VANAL BIOCHEM
p185
sg59
V72
p186
sg91
(lp187
(VBRADFORD
VM M
tp188
asg23
I1976
sg55
V254
p189
sbag1
(g2
g3
NtRp190
(dp191
g61
V10.1104/pp.102.019000
p192
sg57
VPLANT PHYSIOL
p193
sg59
V132
p194
sg91
(lp195
(VBURNETTE
VR N
tp196
asg23
I2003
sg55
VLANT
p197
sbag1
(g2
g3
NtRp198
(dp199
g61
V10.1105/tpc.11.11.2123
p200
sg57
VPLANT CELL
p201
sg59
V11
p202
sg91
(lp203
(VCARLAND
VF M
tp204
asg23
I1999
sg55
VLANT
p205
sbag1
(g2
g3
NtRp206
(dp207
g61
V10.1105/tpc.021030
p208
sg57
VPLANT CELL
p209
sg59
V16
p210
sg91
(lp211
(VCARLAND
VF M
tp212
asg23
I2004
sg55
VLANT
p213
sbag1
(g2
g3
NtRp214
(dp215
g61
V10.1105/tpc.106.043224
p216
sg57
VPLANT CELL
p217
sg59
V18
p218
sg91
(lp219
(VCHEN
VH D
tp220
asg23
I2006
sg55
VLANT
p221
sbag1
(g2
g3
NtRp222
(dp223
g61
V10.1105/tpc.107.052670
p224
sg57
VPLANT CELL
p225
sg59
V20
p226
sg91
(lp227
(VCHEN
VX
tp228
asg23
I2008
sg55
VLANT
p229
sbag1
(g2
g3
NtRp230
(dp231
g61
Nsg57
VPLANT PHYSIOL
p232
sg59
V140
p233
sg91
(lp234
(VCHEN
VY
tp235
asg23
I2006
sg55
VLANT
p236
sbag1
(g2
g3
NtRp237
(dp238
g61
V10.1038/35051094
p239
sg57
VNATURE
p240
sg59
V409
p241
sg91
(lp242
(VCLEMENT
VS
tp243
asg23
I2001
sg55
V92
p244
sbag1
(g2
g3
NtRp245
(dp246
g61
V10.1104/pp.126.2.759
p247
sg57
VPLANT PHYSIOL
p248
sg59
V126
p249
sg91
(lp250
(VDEWALD
VD B
tp251
asg23
I2001
sg55
VLANT
p252
sbag1
(g2
g3
NtRp253
(dp254
g61
V10.1007/s11103-008-9327-3
p255
sg57
VPLANT MOL BIOL
p256
sg59
V67
p257
sg91
(lp258
(VERCETIN
VM E
tp259
asg23
I2008
sg55
VLANT
p260
sbag1
(g2
g3
NtRp261
(dp262
g61
V10.1093/emboj/20.11.2742
p263
sg57
VEMBO J
p264
sg59
V20
p265
sg91
(lp266
(VFARRAS
VR
tp267
asg23
I2001
sg55
V2742
p268
sbag1
(g2
g3
NtRp269
(dp270
g61
V10.1006/bbrc.2000.4062
p271
sg57
VBIOCHEM BIOPH RES CO
p272
sg59
V280
p273
sg91
(lp274
(VGIBSON
VS I
tp275
asg23
I2001
sg55
V196
p276
sbag1
(g2
g3
NtRp277
(dp278
g61
V10.1016/j.pbi.2005.01.011
p279
sg57
VCURR OPIN PLANT BIOL
p280
sg59
V8
sg91
(lp281
(VGUBLER
VF
tp282
asg23
I2005
sg55
V183
p283
sbag1
(g2
g3
NtRp284
(dp285
g61
V10.1104/pp.106.089474
p286
sg57
VPLANT PHYSIOL
p287
sg59
V143
p288
sg91
(lp289
(VGUNESEKERA
VB
tp290
asg23
I2007
sg55
VLANT
p291
sbag1
(g2
g3
NtRp292
(dp293
g61
V10.1038/nrm2249
p294
sg57
VNAT REV MOL CELL BIO
p295
sg59
V8
sg91
(lp296
(VHARDIE
VD G
tp297
asg23
I2007
sg55
V774
p298
sbag1
(g2
g3
NtRp299
(dp300
g61
V10.1093/pcp/pce137
p301
sg57
VPLANT CELL PHYSIOL
p302
sg59
V42
p303
sg91
(lp304
(VHUANG
VJ Z
tp305
asg23
I2001
sg55
VLANT
p306
sbag1
(g2
g3
NtRp307
(dp308
g61
Nsg57
VESSAYS BIOCHEM
p309
sg59
V43
p310
sg91
(lp311
(VHUE
VL
tp312
asg23
I2007
sg55
V121
p313
sbag1
(g2
g3
NtRp314
(dp315
g61
V10.1105/tpc.107.051367
p316
sg57
VPLANT CELL
p317
sg59
V19
p318
sg91
(lp319
(VIM
VY J
tp320
asg23
I2007
sg55
VLANT
p321
sbag1
(g2
g3
NtRp322
(dp323
g61
V10.1111/j.1365-313X.2005.02609.x
p324
sg57
VPLANT J
p325
sg59
V45
p326
sg91
(lp327
(VJONES
VM A
tp328
asg23
I2006
sg55
VLANT
p329
sbag1
(g2
g3
NtRp330
(dp331
g61
V10.1210/en.2007-0820
p332
sg57
VENDOCRINOLOGY
p333
sg59
V149
p334
sg91
(lp335
(VKAGAWA
VS
tp336
asg23
I2008
sg55
V642
p337
sbag1
(g2
g3
NtRp338
(dp339
g61
V10.1046/j.1365-313x.1998.00332.x
p340
sg57
VPLANT J
p341
sg59
V16
p342
sg91
(lp343
(VKNIGHT
VH
tp344
asg23
I1998
sg55
VLANT
p345
sbag1
(g2
g3
NtRp346
(dp347
g61
V10.1093/jxb/erl220
p348
sg57
VJ EXP BOT
p349
sg59
V58
p350
sg91
(lp351
(VKRINKE
VO
tp352
asg23
I2007
sg55
V361
p353
sbag1
(g2
g3
NtRp354
(dp355
g61
V10.1046/j.1365-313x.2000.00833.x
p356
sg57
VPLANT J
p357
sg59
V23
p358
sg91
(lp359
(VLABY
VR J
tp360
asg23
I2000
sg55
VLANT
p361
sbag1
(g2
g3
NtRp362
(dp363
g61
V10.1105/tpc.107.055418
p364
sg57
VPLANT CELL
p365
sg59
V20
p366
sg91
(lp367
(VLEE
VJ H
tp368
asg23
I2008
sg55
VLANT
p369
sbag1
(g2
g3
NtRp370
(dp371
g61
Nsg57
VPLANT J
p372
sg59
V5
sg91
(lp373
(VLEE
VY
tp374
asg23
I2007
sg55
VLANT
p375
sbag1
(g2
g3
NtRp376
(dp377
g61
V10.1007/PL00000838
p378
sg57
VCELL MOL LIFE SCI
p379
sg59
V58
p380
sg91
(lp381
(VLI
VD
tp382
asg23
I2001
sg55
V2085
p383
sbag1
(g2
g3
NtRp384
(dp385
g61
V10.1104/pp.106.084103
p386
sg57
VPLANT PHYSIOL
p387
sg59
V143
p388
sg91
(lp389
(VLIN
VP C
tp390
asg23
I2007
sg55
VLANT
p391
sbag1
(g2
g3
NtRp392
(dp393
g61
V10.1104/pp.105.067140
p394
sg57
VPLANT PHYSIOL
p395
sg59
V139
p396
sg91
(lp397
(VLIN
VW H
tp398
asg23
I2005
sg55
VLANT
p399
sbag1
(g2
g3
NtRp400
(dp401
g61
V10.1105/tpc.106.045658
p402
sg57
VPLANT CELL
p403
sg59
V19
p404
sg91
(lp405
(VLOU
VY
tp406
asg23
I2007
sg55
VLANT
p407
sbag1
(g2
g3
NtRp408
(dp409
g61
V10.1105/tpc.105.037887
p410
sg57
VPLANT CELL
p411
sg59
V19
p412
sg91
(lp413
(VLU
VC A
tp414
asg23
I2007
sg55
VLANT
p415
sbag1
(g2
g3
NtRp416
(dp417
g61
V10.1126/science.1080585
p418
sg57
VSCIENCE
p419
sg59
V300
p420
sg91
(lp421
(VMOORE
VB
tp422
asg23
I2003
sg55
V332
p423
sbag1
(g2
g3
NtRp424
(dp425
g61
V10.1101/gad.12.19.3059
p426
sg57
VGENE DEV
p427
sg59
V12
p428
sg91
(lp429
(VNEMETH
VK
tp430
asg23
I1998
sg55
V3059
p431
sbag1
(g2
g3
NtRp432
(dp433
g61
Nsg57
VBIOL RES
p434
sg59
V34
p435
sg91
(lp436
(VORTEGA
VX
tp437
asg23
I2001
sg55
V43
p438
sbag1
(g2
g3
NtRp439
(dp440
g61
V10.1104/pp.125.3.1499
p441
sg57
VPLANT PHYSIOL
p442
sg59
V125
p443
sg91
(lp444
(VPERERA
VI K
tp445
asg23
I2001
sg55
VLANT
p446
sbag1
(g2
g3
NtRp447
(dp448
g61
V10.1104/pp.105.075119
p449
sg57
VPLANT PHYSIOL
p450
sg59
V140
p451
sg91
(lp452
(VPERERA
VI Y
tp453
asg23
I2006
sg55
VLANT
p454
sbag1
(g2
g3
NtRp455
(dp456
g61
V10.1105/tpc.107.051870
p457
sg57
VPLANT CELL
p458
sg59
V19
p459
sg91
(lp460
(VPIERRE
VM
tp461
asg23
I2007
sg55
VLANT
p462
sbag1
(g2
g3
NtRp463
(dp464
g61
V10.1104/pp.103.020347
p465
sg57
VPLANT PHYSIOL
p466
sg59
V132
p467
sg91
(lp468
(VPRICE
VJ
tp469
asg23
I2003
sg55
VLANT
p470
sbag1
(g2
g3
NtRp471
(dp472
g61
V10.1105/tpc.104.022616
p473
sg57
VPLANT CELL
p474
sg59
V16
p475
sg91
(lp476
(VPRICE
VJ
tp477
asg23
I2004
sg55
VLANT
p478
sbag1
(g2
g3
NtRp479
(dp480
g61
Nsg57
VPLANT PHYSIOL
p481
sg59
V140
p482
sg91
(lp483
(VRADCHUK
VR
tp484
asg23
I2006
sg55
VLANT
p485
sbag1
(g2
g3
NtRp486
(dp487
g61
V10.1007/s10725-007-9193-z
p488
sg57
VPLANT GROWTH REGUL
p489
sg59
V52
p490
sg91
(lp491
(VROGNONI
VS
tp492
asg23
I2007
sg55
VLANT
p493
sbag1
(g2
g3
NtRp494
(dp495
g61
V10.1105/tpc.13.5.1143
p496
sg57
VPLANT CELL
p497
sg59
V13
p498
sg91
(lp499
(VSANCHEZ
VJ P
tp500
asg23
I2001
sg55
VLANT
p501
sbag1
(g2
g3
NtRp502
(dp503
g61
V10.1074/jbc.M311534200
p504
sg57
VJ BIOL CHEM
p505
sg59
V279
p506
sg91
(lp507
(VSASAOKA
VT
tp508
asg23
I2004
sg55
V14835
p509
sbag1
(g2
g3
NtRp510
(dp511
g61
V10.1007/s001250100645
p512
sg57
VDIABETOLOGIA
p513
sg59
V44
p514
sg91
(lp515
(VSASAOKA
VT
tp516
asg23
I2001
sg55
V1258
p517
sbag1
(g2
g3
NtRp518
(dp519
g61
V10.1093/pcp/pce028
p520
sg57
VPLANT CELL PHYSIOL
p521
sg59
V42
p522
sg91
(lp523
(VTAKAHASHI
VS
tp524
asg23
I2001
sg55
VLANT
p525
sbag1
(g2
g3
NtRp526
(dp527
g61
V10.1126/science.1134457
p528
sg57
VSCIENCE
p529
sg59
V315
p530
sg91
(lp531
(VTANG
VR H
tp532
asg23
I2007
sg55
V1423
p533
sbag1
(g2
g3
NtRp534
(dp535
g61
V10.1007/s11103-007-9176-5
p536
sg57
VPLANT MOL BIOL
p537
sg59
V64
p538
sg91
(lp539
(VTHELANDER
VM
tp540
asg23
I2007
sg55
VLANT
p541
sbag1
(g2
g3
NtRp542
(dp543
g61
V10.1186/1471-2164-4-50
p544
sg57
VBMC GENOMICS
p545
sg59
V4
sg91
(lp546
(VVAN
VNOCKER S
tp547
asg23
I2003
sg55
Nsbag1
(g2
g3
NtRp548
(dp549
g61
V10.1128/MCB.21.5.1633-1646.2001
p550
sg57
VMOL CELL BIOL
p551
sg59
V21
p552
sg91
(lp553
(VWADA
VT
tp554
asg23
I2001
sg55
V1633
p555
sbag1
(g2
g3
NtRp556
(dp557
g61
V10.1101/gad.891901
p558
sg57
VGENE DEV
p559
sg59
V15
p560
sg91
(lp561
(VXIONG
VL M
tp562
asg23
I2001
sg55
V1971
p563
sbag1
(g2
g3
NtRp564
(dp565
g61
V10.1093/pcp/pch187
p566
sg57
VPLANT CELL PHYSIOL
p567
sg59
V45
p568
sg91
(lp569
(VZHONG
VR Q
tp570
asg23
I2004
sg55
VLANT
p571
sbag1
(g2
g3
NtRp572
(dp573
g61
V10.1105/tpc.104.027466
p574
sg57
VPLANT CELL
p575
sg59
V16
p576
sg91
(lp577
(VZHONG
VR Q
tp578
asg23
I2004
sg55
VLANT
p579
sbag1
(g2
g3
NtRp580
(dp581
g61
V10.1073/pnas.95.17.10294
p582
sg57
VP NATL ACAD SCI USA
p583
sg59
V95
p584
sg91
(lp585
(VZHOU
VL
tp586
asg23
I1998
sg55
V10294
p587
sbag1
(g2
g3
NtRp588
(dp589
g61
V10.1104/pp.104.046367
p590
sg57
VPLANT PHYSIOL
p591
sg59
V136
p592
sg91
(lp593
(VZIMMERMANN
VP
tp594
asg23
I2004
sg55
VLANT
p595
sbasb.