ccopy_reg
_reconstructor
p1
(ctethne.classes.paper
Paper
p2
c__builtin__
object
p3
NtRp4
(dp5
S'publisherCity'
p6
VROCKVILLE
p7
sS'reprintAddress'
p8
VBisgrove, SR (reprint author), Univ Utah, Dept Biol, Salt Lake City, UT 84112 USA.
p9
sS'WC'
p10
VPlant Sciences
p11
sS'GA'
p12
V881HD
p13
sS'pageEnd'
p14
I3863
sS'publisherAddress'
p15
V15501 MONONA DRIVE, ROCKVILLE, MD 20855 USA
p16
sS'documentType'
p17
VArticle
p18
sS'subject'
p19
VPlant Sciences
p20
sS'isoSource'
p21
VPlant Physiol.
p22
sS'timesCited'
p23
(lp24
I36
aVZ9 38
p25
asS'PT'
p26
VJ
sS'title'
p27
V+Tips And Microtubule Regulation. The Beginning Of The Plus End In Plants
p28
sS'ISSN'
p29
(lp30
V0032-0889
p31
aVJ9 PLANT PHYSIOL
p32
asS'authors_full'
p33
(lp34
(VBISGROVE
VSR
tp35
a(VHABLE
VWE
tp36
a(VKROPF
VDL
tp37
asS'PG'
p38
I9
sS'PD'
p39
VDEC
p40
sS'pageStart'
p41
I3855
sS'issue'
p42
I4
sS'journal'
p43
VPLANT PHYSIOLOGY
p44
sS'volume'
p45
V136
p46
sS'doi'
p47
V10.1104/pp.104.051037
p48
sS'emailAddress'
p49
Vbisgrove@biology.utah.edu
p50
sS'authorAddress'
p51
(lp52
VUniv Utah, Dept Biol, Salt Lake City, UT 84112 USA.
p53
aVUniv Massachusetts, Dept Biol, N Dartmouth, MA 02747 USA.
p54
asS'date'
p55
I2004
sS'ER'
p56
V
sS'publisher'
p57
VAMER SOC PLANT BIOLOGISTS
p58
sS'authorKeywords'
p59
(lp60
VBINDING PROTEIN EB1
p61
aVADENOMATOUS POLYPOSIS-COLI
p62
aVPROPER SPINDLE FORMATION
p63
aVKINESIN-RELATED PROTEIN
p64
aVXENOPUS EGG EXTRACTS
p65
aVSEARCH-AND-CAPTURE
p66
aVNUCLEAR MIGRATION
p67
aVMITOTIC SPINDLE
p68
aVASPERGILLUS-NIDULANS
p69
aVCYTOPLASMIC DYNEIN
p70
asS'language'
p71
VEnglish
p72
sS'wosid'
p73
VWOS:000225853100002
p74
sS'citationCount'
p75
I92
sS'authors_init'
p76
(lp77
(VBISGROVE
VS R
tp78
a(VHABLE
VW E
tp79
a(VKROPF
VD L
tp80
asS'citedReferences'
p81
(lp82
g1
(g2
g3
NtRp83
(dp84
g47
V10.1016/S0092-8674(01)00288-4
p85
sg43
VCELL
p86
sg45
V104
p87
sg76
(lp88
(VAKHMANOVA
VA
tp89
asg55
I2001
sg41
V923
p90
sbag1
(g2
g3
NtRp91
(dp92
g47
V10.1091/mbc.E02-01-0061
p93
sg43
VMOL BIOL CELL
p94
sg45
V13
p95
sg76
(lp96
(VASKHAM
VJ M
tp97
asg55
I2002
sg41
V3627
p98
sbag1
(g2
g3
NtRp99
(dp100
g47
Nsg43
VPLANT CELL PHYSIOL
p101
sg45
V41
p102
sg76
(lp103
(VBANNO
VH
tp104
asg55
I2000
sg41
VLANT
p105
sbag1
(g2
g3
NtRp106
(dp107
g47
V10.1016/S0960-9822(99)80260-7
p108
sg43
VCURR BIOL
p109
sg45
V9
sg76
(lp110
(VBEACH
VD L
tp111
asg55
I1999
sg41
V569
p112
sbag1
(g2
g3
NtRp113
(dp114
g47
V10.1073/pnas.95.18.10596
p115
sg43
VP NATL ACAD SCI USA
p116
sg45
V95
p117
sg76
(lp118
(VBERRUETA
VL
tp119
asg55
I1998
sg41
V10596
p120
sbag1
(g2
g3
NtRp121
(dp122
g47
Nsg43
VNAT CELL BIOL
p123
sg45
V3
sg76
(lp124
(VBIENZ
VM
tp125
asg55
I2001
sg41
VE1
p126
sbag1
(g2
g3
NtRp127
(dp128
g47
V10.1016/S0092-8674(00)00091-X
p129
sg43
VCELL
p130
sg45
V102
p131
sg76
(lp132
(VBRUNNER
VD
tp133
asg55
I2000
sg41
V695
p134
sbag1
(g2
g3
NtRp135
(dp136
g47
V10.1074/jbc.M306194200
p137
sg43
VJ BIOL CHEM
p138
sg45
V278
p139
sg76
(lp140
(VBU
VW
tp141
asg55
I2003
sg41
V49721
p142
sbag1
(g2
g3
NtRp143
(dp144
g47
V10.1073/pnas.101122598
p145
sg43
VP NATL ACAD SCI USA
p146
sg45
V98
p147
sg76
(lp148
(VCAHANA
VA
tp149
asg55
I2001
sg41
V6429
p150
sbag1
(g2
g3
NtRp151
(dp152
g47
V10.1016/S0962-8924(03)00074-6
p153
sg43
VTRENDS CELL BIOL
p154
sg45
V13
p155
sg76
(lp156
(VCARVALHO
VP
tp157
asg55
I2003
sg41
V229
p158
sbag1
(g2
g3
NtRp159
(dp160
g47
Nsg43
VDEVELOPMENT
p161
sg45
V120
p162
sg76
(lp163
(VCASTRILLON
VD H
tp164
asg55
I1994
sg41
V3367
p165
sbag1
(g2
g3
NtRp166
(dp167
g47
V10.1038/ncb1057
p168
sg43
VNAT CELL BIOL
p169
sg45
V5
sg76
(lp170
(VCHAN
VJ
tp171
asg55
I2003
sg41
V967
p172
sbag1
(g2
g3
NtRp173
(dp174
g47
Nsg43
VMOL BIOL CELL
p175
sg45
V11
p176
sg76
(lp177
(VCHEN
VC R
tp178
asg55
I2000
sg41
V4067
p179
sbag1
(g2
g3
NtRp180
(dp181
g47
V10.1083/jcb.141.5.1169
p182
sg43
VJ CELL BIOL
p183
sg45
V141
p184
sg76
(lp185
(VCHEN
VX Y P
tp186
asg55
I1998
sg41
V1169
p187
sbag1
(g2
g3
NtRp188
(dp189
g47
V10.1128/MCB.22.9.3089-3102.2002
p190
sg43
VMOL CELL BIOL
p191
sg45
V22
p192
sg76
(lp193
(VCOQUELLE
VF M
tp194
asg55
I2002
sg41
V3089
p195
sbag1
(g2
g3
NtRp196
(dp197
g47
Nsg43
VGENOME BIOL
p198
sg45
V1
sg76
(lp199
(VCVRCKOVA
VF
tp200
asg55
I2000
sg41
Nsbag1
(g2
g3
NtRp201
(dp202
g47
V10.1007/s004270100176
p203
sg43
VDEV GENES EVOL
p204
sg45
V211
p205
sg76
(lp206
(VDAWE
VA L
tp207
asg55
I2001
sg41
V434
p208
sbag1
(g2
g3
NtRp209
(dp210
g47
Nsg43
VGENOME BIOL
p211
sg45
V2
sg76
(lp212
(VDAY
VI S
tp213
asg55
I2001
sg41
Nsbag1
(g2
g3
NtRp214
(dp215
g47
V10.1016/S1360-1385(02)02341-5
p216
sg43
VTRENDS PLANT SCI
p217
sg45
V7
sg76
(lp218
(VDEEKS
VM J
tp219
asg55
I2002
sg41
V492
p220
sbag1
(g2
g3
NtRp221
(dp222
g47
V10.1016/S0092-8674(00)80960-5
p223
sg43
VCELL
p224
sg45
V96
p225
sg76
(lp226
(VDESAI
VA
tp227
asg55
I1999
sg41
V69
p228
sbag1
(g2
g3
NtRp229
(dp230
g47
V10.1146/annurev.cellbio.13.1.83
p231
sg43
VANNU REV CELL DEV BI
p232
sg45
V13
p233
sg76
(lp234
(VDESAI
VA
tp235
asg55
I1997
sg41
V83
p236
sbag1
(g2
g3
NtRp237
(dp238
g47
Nsg43
VPLANT CELL
p239
sg45
V15
p240
sg76
(lp241
(VDHONUKSHE
VP
tp242
asg55
I2003
sg41
VLANT
p243
sbag1
(g2
g3
NtRp244
(dp245
g47
V10.1083/jcb.141.4.849
p246
sg43
VJ CELL BIOL
p247
sg45
V141
p248
sg76
(lp249
(VDUJARDIN
VD
tp250
asg55
I1998
sg41
V849
p251
sbag1
(g2
g3
NtRp252
(dp253
g47
V10.1242/jcs.00611
p254
sg43
VJ CELL SCI
p255
sg45
V116
p256
sg76
(lp257
(VEVANGELISTA
VM
tp258
asg55
I2003
sg41
V2603
p259
sbag1
(g2
g3
NtRp260
(dp261
g47
Nsg43
VDEVELOPMENT
p262
sg45
V127
p263
sg76
(lp264
(VFURUTANI
VI
tp265
asg55
I2000
sg41
V4443
p266
sbag1
(g2
g3
NtRp267
(dp268
g47
V10.1016/S0955-0674(02)00007-8
p269
sg43
VCURR OPIN CELL BIOL
p270
sg45
V15
p271
sg76
(lp272
(VGALJART
VN
tp273
asg55
I2003
sg41
V48
p274
sbag1
(g2
g3
NtRp275
(dp276
g47
V10.1016/S0074-7696(04)39004-2
p277
sg43
VINT REV CYTOL
p278
sg45
V239
p279
sg76
(lp280
(VGARD
VD L
tp281
asg55
I2004
sg41
V179
p282
sbag1
(g2
g3
NtRp283
(dp284
g47
V10.1007/s00709-003-0009-3
p285
sg43
VPROTOPLASMA
p286
sg45
V222
p287
sg76
(lp288
(VGARDINER
VJ
tp289
asg55
I2003
sg41
VROTOPLASMA
p290
sbag1
(g2
g3
NtRp291
(dp292
g47
V10.1002/cm.10114
p293
sg43
VCELL MOTIL CYTOSKEL
p294
sg45
V55
p295
sg76
(lp296
(VGOODSON
VH V
tp297
asg55
I2003
sg41
V156
p298
sbag1
(g2
g3
NtRp299
(dp300
g47
Nsg43
VCURR OPIN CELL BIOL
p301
sg45
V16
p302
sg76
(lp303
(VGUNDERSEN
VG G
tp304
asg55
I2004
sg41
V1
sbag1
(g2
g3
NtRp305
(dp306
g47
V10.1016/S0960-9822(01)00200-7
p307
sg43
VCURR BIOL
p308
sg45
V11
p309
sg76
(lp310
(VHAN
VG S
tp311
asg55
I2001
sg41
V719
p312
sbag1
(g2
g3
NtRp313
(dp314
g47
V10.1038/35089520
p315
sg43
VNAT REV MOL CELL BIO
p316
sg45
V2
sg76
(lp317
(VHAYLES
VJ
tp318
asg55
I2001
sg41
V647
p319
sbag1
(g2
g3
NtRp320
(dp321
g47
V10.1083/jcb.144.5.809
p322
sg43
VJ CELL BIOL
p323
sg45
V144
p324
sg76
(lp325
(VHEIL-CHAPDELAINE
VR A
tp326
asg55
I1999
sg41
V809
p327
sbag1
(g2
g3
NtRp328
(dp329
g47
V10.1038/nature01600
p330
sg43
VNATURE
p331
sg45
V422
p332
sg76
(lp333
(VHOWARD
VJ
tp334
asg55
I2003
sg41
V753
p335
sbag1
(g2
g3
NtRp336
(dp337
g47
V10.1016/S1097-2765(03)00049-2
p338
sg43
VMOL CELL
p339
sg45
V11
p340
sg76
(lp341
(VHUNTER
VA W
tp342
asg55
I2003
sg41
V445
p343
sbag1
(g2
g3
NtRp344
(dp345
g47
V10.1023/A:1021236307508
p346
sg43
VPLANT MOL BIOL
p347
sg45
V50
p348
sg76
(lp349
(VHUSSEY
VP J
tp350
asg55
I2002
sg41
VLANT
p351
sbag1
(g2
g3
NtRp352
(dp353
g47
V10.1126/science.287.5461.2257
p354
sg43
VSCIENCE
p355
sg45
V287
p356
sg76
(lp357
(VKORINEK
VW S
tp358
asg55
I2000
sg41
V2257
p359
sbag1
(g2
g3
NtRp360
(dp361
g47
V10.1034/j.1600-0854.2001.25020508.x
p362
sg43
VTRAFFIC
p363
sg45
V2
sg76
(lp364
(VLAWRENCE
VC J
tp365
asg55
I2001
sg41
V362
p366
sbag1
(g2
g3
NtRp367
(dp368
g47
V10.1126/science.287.5461.2260
p369
sg43
VSCIENCE
p370
sg45
V287
p371
sg76
(lp372
(VLEE
VL
tp373
asg55
I2000
sg41
V2260
p374
sbag1
(g2
g3
NtRp375
(dp376
g47
V10.1083/jcb.200209022
p377
sg43
VJ CELL BIOL
p378
sg45
V160
p379
sg76
(lp380
(VLEE
VW L
tp381
asg55
I2003
sg41
V355
p382
sbag1
(g2
g3
NtRp383
(dp384
g47
V10.1006/dbio.2000.9848
p385
sg43
VDEV BIOL
p386
sg45
V226
p387
sg76
(lp388
(VLEI
VY D
tp389
asg55
I2000
sg41
V57
p390
sbag1
(g2
g3
NtRp391
(dp392
g47
Nsg43
VMOL BIOL CELL
p393
sg45
V14
p394
sg76
(lp395
(VLIGNON
VL A
tp396
asg55
I2003
sg41
V1405
p397
sbag1
(g2
g3
NtRp398
(dp399
g47
V10.1083/jcb.200108119
p400
sg43
VJ CELL BIOL
p401
sg45
V155
p402
sg76
(lp403
(VLIN
VH J
tp404
asg55
I2001
sg41
V1173
p405
sbag1
(g2
g3
NtRp406
(dp407
g47
Nsg43
VNAT CELL BIOL
p408
sg45
V2
sg76
(lp409
(VLIU
VZ
tp410
asg55
I2000
sg41
V776
p411
sbag1
(g2
g3
NtRp412
(dp413
g47
V10.1242/jcs.00939
p414
sg43
VJ CELL SCI
p415
sg45
V117
p416
sg76
(lp417
(VLOUIE
VR K
tp418
asg55
I2004
sg41
V1117
p419
sbag1
(g2
g3
NtRp420
(dp421
g47
V10.1016/S0092-8674(03)00465-3
p422
sg43
VCELL
p423
sg45
V113
p424
sg76
(lp425
(VMAIATO
VH
tp426
asg55
I2003
sg41
V891
p427
sbag1
(g2
g3
NtRp428
(dp429
g47
V10.1083/jcb.142.3.787
p430
sg43
VJ CELL BIOL
p431
sg45
V142
p432
sg76
(lp433
(VMANEY
VT
tp434
asg55
I1998
sg41
V787
p435
sbag1
(g2
g3
NtRp436
(dp437
g47
V10.1093/nar/gkg087
p438
sg43
VNUCLEIC ACIDS RES
p439
sg45
V31
p440
sg76
(lp441
(VMARCHLER-BAUER
VA
tp442
asg55
I2003
sg41
V383
p443
sbag1
(g2
g3
NtRp444
(dp445
g47
V10.1016/S0960-9822(03)00648-1
p446
sg43
VCURR BIOL
p447
sg45
V13
p448
sg76
(lp449
(VMARTIN
VS G
tp450
asg55
I2003
sg41
VR711
p451
sbag1
(g2
g3
NtRp452
(dp453
g47
V10.1016/j.cub.2003.10.033
p454
sg43
VCURR BIOL
p455
sg45
V13
p456
sg76
(lp457
(VMATHUR
VJ
tp458
asg55
I2003
sg41
V1991
p459
sbag1
(g2
g3
NtRp460
(dp461
g47
Nsg43
VARABIDOPSIS BOOK
p462
sg45
Nsg76
(lp463
(VMEAGHER
VR B
tp464
asg55
I2003
sg41
Nsbag1
(g2
g3
NtRp465
(dp466
g47
Nsg43
VMOL BIOL CELL
p467
sg45
V11
p468
sg76
(lp469
(VMILLER
VR K
tp470
asg55
I2000
sg41
V2949
p471
sbag1
(g2
g3
NtRp472
(dp473
g47
V10.1093/jb/mvg148
p474
sg43
VJ BIOCHEM
p475
sg45
V134
p476
sg76
(lp477
(VMIMORI-KIYOSUE
VY
tp478
asg55
I2003
sg41
V321
p479
sbag1
(g2
g3
NtRp480
(dp481
g47
V10.1016/S0960-9822(00)00600-X
p482
sg43
VCURR BIOL
p483
sg45
V10
p484
sg76
(lp485
(VMIMORI-KIYOSUE
VY
tp486
asg55
I2000
sg41
V865
p487
sbag1
(g2
g3
NtRp488
(dp489
g47
V10.1016/S0955-0674(02)00004-2
p490
sg43
VCURR OPIN CELL BIOL
p491
sg45
V15
p492
sg76
(lp493
(VMORRIS
VN R
tp494
asg55
I2003
sg41
V54
p495
sbag1
(g2
g3
NtRp496
(dp497
g47
Nsg43
VONCOGENE
p498
sg45
V17
p499
sg76
(lp500
(VMORRISON
VE E
tp501
asg55
I1998
sg41
V3471
p502
sbag1
(g2
g3
NtRp503
(dp504
g47
V10.1105/tpc.017830
p505
sg43
VPLANT CELL
p506
sg45
V16
p507
sg76
(lp508
(VNAKAJIMA
VK
tp509
asg55
I2004
sg41
VLANT
p510
sbag1
(g2
g3
NtRp511
(dp512
g47
V10.1016/S0960-9822(01)00297-4
p513
sg43
VCURR BIOL
p514
sg45
V11
p515
sg76
(lp516
(VNAKAMURA
VM
tp517
asg55
I2001
sg41
V1062
p518
sbag1
(g2
g3
NtRp519
(dp520
g47
V10.1038/35087035
p521
sg43
VNAT CELL BIOL
p522
sg45
V3
sg76
(lp523
(VPALAZZO
VA F
tp524
asg55
I2001
sg41
V723
p525
sbag1
(g2
g3
NtRp526
(dp527
g47
V10.1016/S0092-8674(00)80656-X
p528
sg43
VCELL
p529
sg45
V96
p530
sg76
(lp531
(VPEREZ
VF
tp532
asg55
I1999
sg41
V517
p533
sbag1
(g2
g3
NtRp534
(dp535
g47
V10.1016/0092-8674(92)90240-D
p536
sg43
VCELL
p537
sg45
V70
p538
sg76
(lp539
(VPIERRE
VP
tp540
asg55
I1992
sg41
V887
p541
sbag1
(g2
g3
NtRp542
(dp543
g47
V10.1104/pp.104.052340
p544
sg43
VPLANT PHYSIOL
p545
sg45
V136
p546
sg76
(lp547
(VPREUSS
VM L
tp548
asg55
I2004
sg41
VLANT
p549
sbag1
(g2
g3
NtRp550
(dp551
g47
V10.1186/1471-2164-2-2
p552
sg43
VBMC Genomics
p553
sg45
V2
sg76
(lp554
(VREDDY
VA S
tp555
asg55
I2001
sg41
V2
sbag1
(g2
g3
NtRp556
(dp557
g47
V10.1091/mbc.E02-01-0054
p558
sg43
VMOL BIOL CELL
p559
sg45
V13
p560
sg76
(lp561
(VREHBERG
VM
tp562
asg55
I2002
sg41
V2301
p563
sbag1
(g2
g3
NtRp564
(dp565
g47
V10.1016/S0896-6273(00)00142-2
p566
sg43
VNEURON
p567
sg45
V28
p568
sg76
(lp569
(VREINER
VO
tp570
asg55
I2000
sg41
V633
p571
sbag1
(g2
g3
NtRp572
(dp573
g47
V10.1083/jcb.200202032
p574
sg43
VJ CELL BIOL
p575
sg45
V158
p576
sg76
(lp577
(VROGERS
VS L
tp578
asg55
I2002
sg41
V873
p579
sbag1
(g2
g3
NtRp580
(dp581
g47
V10.1093/nar/15.4.1543
p582
sg43
VNUCLEIC ACIDS RES
p583
sg45
V15
p584
sg76
(lp585
(VSANDERS
VP R
tp586
asg55
I1987
sg41
V1543
p587
sbag1
(g2
g3
NtRp588
(dp589
g47
V10.1016/S0955-0674(00)00179-4
p590
sg43
VCURR OPIN CELL BIOL
p591
sg45
V13
p592
sg76
(lp593
(VSCHROER
VT A
tp594
asg55
I2001
sg41
V92
p595
sbag1
(g2
g3
NtRp596
(dp597
g47
V10.1016/S0092-8674(01)00364-6
p598
sg43
VCELL
p599
sg45
V105
p600
sg76
(lp601
(VSCHUYLER
VS C
tp602
asg55
I2001
sg41
V421
p603
sbag1
(g2
g3
NtRp604
(dp605
g47
Nsg43
VJ CELL SCI
p606
sg45
V114
p607
sg76
(lp608
(VSCHUYLER
VS C
tp609
asg55
I2001
sg41
V247
p610
sbag1
(g2
g3
NtRp611
(dp612
g47
Nsg43
VMOL BIOL CELL
p613
sg45
V8
sg76
(lp614
(VSCHWARTZ
VK
tp615
asg55
I1997
sg41
V2677
p616
sbag1
(g2
g3
NtRp617
(dp618
g47
V10.1105/tpc.020644
p619
sg43
VPLANT CELL
p620
sg45
V16
p621
sg76
(lp622
(VSEDBROOK
VJ C
tp623
asg55
I2004
sg41
VLANT
p624
sbag1
(g2
g3
NtRp625
(dp626
g47
V10.1126/science.1083529
p627
sg43
VSCIENCE
p628
sg45
V300
p629
sg76
(lp630
(VSHAW
VS L
tp631
asg55
I2003
sg41
V1715
p632
sbag1
(g2
g3
NtRp633
(dp634
g47
V10.1083/jcb.152.1.231
p635
sg43
VJ CELL BIOL
p636
sg45
V152
p637
sg76
(lp638
(VSMITH
VL G
tp639
asg55
I2001
sg41
V231
p640
sbag1
(g2
g3
NtRp641
(dp642
g47
V10.1091/mbc.E02-08-0513
p643
sg43
VMOL BIOL CELL
p644
sg45
V14
p645
sg76
(lp646
(VSTRAUBE
VA
tp647
asg55
I2003
sg41
V642
p648
sbag1
(g2
g3
NtRp649
(dp650
g47
Nsg43
VCANCER RES
p651
sg45
V55
p652
sg76
(lp653
(VSU
VL K
tp654
asg55
I1995
sg41
V2972
p655
sbag1
(g2
g3
NtRp656
(dp657
g47
V10.1083/jcb.200109046
p658
sg43
VJ CELL BIOL
p659
sg45
V156
p660
sg76
(lp661
(VTAI
VC Y
tp662
asg55
I2002
sg41
V959
p663
sbag1
(g2
g3
NtRp664
(dp665
g47
V10.1091/mbc.E02-04-0210
p666
sg43
VMOL BIOL CELL
p667
sg45
V13
p668
sg76
(lp669
(VTIRNAUER
VJ S
tp670
asg55
I2002
sg41
V3614
p671
sbag1
(g2
g3
NtRp672
(dp673
g47
V10.1083/jcb.145.5.993
p674
sg43
VJ CELL BIOL
p675
sg45
V145
p676
sg76
(lp677
(VTIRNAUER
VJ S
tp678
asg55
I1999
sg41
V993
p679
sbag1
(g2
g3
NtRp680
(dp681
g47
Nsg43
VNAT CELL BIOL
p682
sg45
V2
sg76
(lp683
(VTOURNEBIZE
VR
tp684
asg55
I2000
sg41
V13
p685
sbag1
(g2
g3
NtRp686
(dp687
g47
V10.1038/375676a0
p688
sg43
VNATURE
p689
sg45
V375
p690
sg76
(lp691
(VTRAAS
VJ
tp692
asg55
I1995
sg41
V676
p693
sbag1
(g2
g3
NtRp694
(dp695
g47
V10.1038/ncb844
p696
sg43
VNAT CELL BIOL
p697
sg45
V4
sg76
(lp698
(VTWELL
VD
tp699
asg55
I2002
sg41
V711
p700
sbag1
(g2
g3
NtRp701
(dp702
g47
V10.1002/cm.10169
p703
sg43
VCELL MOTIL CYTOSKEL
p704
sg45
V57
p705
sg76
(lp706
(VVOS
VJ W
tp707
asg55
I2004
sg41
V246
p708
sbag1
(g2
g3
NtRp709
(dp710
g47
V10.1016/S0092-8674(00)80991-5
p711
sg43
VCELL
p712
sg45
V84
p713
sg76
(lp714
(VWALCZAK
VC E
tp715
asg55
I1996
sg41
V37
p716
sbag1
(g2
g3
NtRp717
(dp718
g47
Nsg43
VJ CELL SCI
p719
sg45
V115
p720
sg76
(lp721
(VWASTENEYS
VG O
tp722
asg55
I2002
sg41
V1345
p723
sbag1
(g2
g3
NtRp724
(dp725
g47
V10.1038/35079128
p726
sg43
VNATURE
p727
sg45
V411
p728
sg76
(lp729
(VWHITTINGTON
VA T
tp730
asg55
I2001
sg41
V610
p731
sbag1
(g2
g3
NtRp732
(dp733
g47
V10.1038/ncb1103-954
p734
sg43
VNAT CELL BIOL
p735
sg45
V5
sg76
(lp736
(VWICK
VS
tp737
asg55
I2003
sg41
V954
p738
sbag1
(g2
g3
NtRp739
(dp740
g47
Nsg43
VMOL GEN GENET
p741
sg45
V255
p742
sg76
(lp743
(VWILLINS
VD A
tp744
asg55
I1997
sg41
V194
p745
sbag1
(g2
g3
NtRp746
(dp747
g47
Nsg43
VMOL BIOL CELL
p748
sg45
V6
sg76
(lp749
(VXIANG
VX
tp750
asg55
I1995
sg41
V297
p751
sbag1
(g2
g3
NtRp752
(dp753
g47
V10.1083/jcb.200212168
p754
sg43
VJ CELL BIOL
p755
sg45
V160
p756
sg76
(lp757
(VXIANG
VX
tp758
asg55
I2003
sg41
V289
p759
sbag1
(g2
g3
NtRp760
(dp761
g47
Nsg43
VNATURE
p762
sg45
V406
p763
sg76
(lp764
(VYIN
VH W
tp765
asg55
I2000
sg41
V1013
p766
sbag1
(g2
g3
NtRp767
(dp768
g47
V10.1091/mbc.E02-08-0516
p769
sg43
VMOL BIOL CELL
p770
sg45
V14
p771
sg76
(lp772
(VZHANG
VJ
tp773
asg55
I2003
sg41
V1479
p774
sbasb.