ccopy_reg
_reconstructor
p1
(ctethne.classes.paper
Paper
p2
c__builtin__
object
p3
NtRp4
(dp5
S'publisherCity'
p6
VROCKVILLE
p7
sS'reprintAddress'
p8
VBaluska, F (reprint author), Univ Bonn, Inst Bot, Dept Plant Cell Biol, D-53115 Bonn, Germany.
p9
sS'WC'
p10
VPlant Sciences
p11
sS'GA'
p12
V732ZE
p13
sS'pageEnd'
p14
I491
sS'publisherAddress'
p15
V15501 MONONA DRIVE, ROCKVILLE, MD 20855 USA
p16
sS'documentType'
p17
VReview
p18
sS'subject'
p19
VPlant Sciences
p20
sS'isoSource'
p21
VPlant Physiol.
p22
sS'timesCited'
p23
(lp24
I109
aVZ9 120
p25
asS'PT'
p26
VJ
sS'title'
p27
VCytoskeleton-Plasma Membrane-Cell Wall Continuum In Plants. Emerging Links Revisited
p28
sS'ISSN'
p29
(lp30
V0032-0889
p31
aVJ9 PLANT PHYSIOL
p32
asS'authors_full'
p33
(lp34
(VBALUSKA
VF
tp35
a(VSAMAJ
VJ
tp36
a(VWOJTASZEK
VP
tp37
a(VVOLKMANN
VD
tp38
a(VMENZEL
VD
tp39
asS'PG'
p40
I10
sS'PD'
p41
VOCT
p42
sS'pageStart'
p43
I482
sS'issue'
p44
I2
sS'journal'
p45
VPLANT PHYSIOLOGY
p46
sS'volume'
p47
V133
p48
sS'doi'
p49
V10.1104/pp.103.027250
p50
sS'emailAddress'
p51
Vbaluska@uni-bonn.de
p52
sS'authorAddress'
p53
(lp54
VUniv Bonn, Inst Bot, Dept Plant Cell Biol, D-53115 Bonn, Germany.
p55
aVSlovak Acad Sci, Inst Plant Genet & Biotechnol, SK-94901 Nitra, Slovakia.
p56
aVAdam Mickiewicz Univ Poznan, Inst Mol Biol & Biotechnol, PL-61701 Poznan, Poland.
p57
aVPolish Acad Sci, Inst Bioorgan Chem, PL-61704 Poznan, Poland.
p58
asS'date'
p59
I2003
sS'ER'
p60
V
sS'publisher'
p61
VAMER SOC PLANT BIOLOGISTS
p62
sS'authorKeywords'
p63
(lp64
VINTEGRIN-LIKE PROTEINS
p65
aVACTIN-BINDING PROTEINS
p66
aVARABINOGALACTAN-PROTEIN
p67
aVEXTRACELLULAR-MATRIX
p68
aVARABIDOPSIS-THALIANA
p69
aVGENE FAMILY
p70
aVSIGNAL-TRANSDUCTION
p71
aVPOLLEN-TUBE
p72
aVROOT-CELLS
p73
aVINTERCELLULAR-ADHESION
p74
asS'language'
p75
VEnglish
p76
sS'wosid'
p77
VWOS:000185974800010
p78
sS'citationCount'
p79
I180
sS'authors_init'
p80
(lp81
(VBALUSKA
VF
tp82
a(VSAMAJ
VJ
tp83
a(VWOJTASZEK
VP
tp84
a(VVOLKMANN
VD
tp85
a(VMENZEL
VD
tp86
asS'citedReferences'
p87
(lp88
g1
(g2
g3
NtRp89
(dp90
g49
V10.1016/S0955-0674(98)80031-8
p91
sg45
VCURR OPIN CELL BIOL
p92
sg47
V10
p93
sg80
(lp94
(VADAMS
VC L
tp95
asg59
I1998
sg43
V572
p96
sbag1
(g2
g3
NtRp97
(dp98
g49
V10.1023/A:1010691701578
p99
sg45
VPLANT MOL BIOL
p100
sg47
V47
p101
sg80
(lp102
(VANDERSON
VC M
tp103
asg59
I2001
sg43
VLANT
p104
sbag1
(g2
g3
NtRp105
(dp106
g49
V10.1046/j.1365-313X.1999.00530.x
p107
sg45
VPLANT J
p108
sg47
V19
p109
sg80
(lp110
(VBALUSKA
VF
tp111
asg59
I1999
sg43
VLANT
p112
sbag1
(g2
g3
NtRp113
(dp114
g49
V10.1104/pp.126.1.39
p115
sg45
VPLANT PHYSIOL
p116
sg47
V126
p117
sg80
(lp118
(VBALUSKA
VF
tp119
asg59
I2001
sg43
VLANT
p120
sbag1
(g2
g3
NtRp121
(dp122
g49
V10.1104/pp.007526
p123
sg45
VPLANT PHYSIOL
p124
sg47
V130
p125
sg80
(lp126
(VBALUSKA
VF
tp127
asg59
I2002
sg43
VLANT
p128
sbag1
(g2
g3
NtRp129
(dp130
g49
V10.1006/dbio.2000.0115
p131
sg45
VDEV BIOL
p132
sg47
V231
p133
sg80
(lp134
(VBALUSKA
VF
tp135
asg59
I2001
sg43
V113
p136
sbag1
(g2
g3
NtRp137
(dp138
g49
V10.1055/s-2000-3705
p139
sg45
VPLANT BIOLOGY
p140
sg47
V2
sg80
(lp141
(VBALUSKA
VF
tp142
asg59
I2000
sg43
VLANT
p143
sbag1
(g2
g3
NtRp144
(dp145
g49
V10.1093/pcp/pce116
p146
sg45
VPLANT CELL PHYSIOL
p147
sg47
V42
p148
sg80
(lp149
(VBALUSKA
VF
tp150
asg59
I2001
sg43
VLANT
p151
sbag1
(g2
g3
NtRp152
(dp153
g49
V10.1016/S0962-8924(03)00084-9
p154
sg45
VTRENDS CELL BIOL
p155
sg47
V13
p156
sg80
(lp157
(VBALUSKA
VF
tp158
asg59
I2003
sg43
V282
p159
sbag1
(g2
g3
NtRp160
(dp161
g49
V10.1002/bies.10282
p162
sg45
VBIOESSAYS
p163
sg47
V25
p164
sg80
(lp165
(VBALUSKA
VF
tp166
asg59
I2003
sg43
V569
p167
sbag1
(g2
g3
NtRp168
(dp169
g49
Nsg45
VACTIN DYNAMIC FRAMEW
p170
sg47
Nsg80
(lp171
(VBALUSKA
VF
tp172
asg59
I2000
sg43
V457
p173
sbag1
(g2
g3
NtRp174
(dp175
g49
V10.1007/BF01279265
p176
sg45
VPROTOPLASMA
p177
sg47
V206
p178
sg80
(lp179
(VBALUSKA
VF
tp180
asg59
I1999
sg43
VROTOPLASMA
p181
sbag1
(g2
g3
NtRp182
(dp183
g49
Nsg45
VINT REV CYTOL
p184
sg47
V175
p185
sg80
(lp186
(VBALUSKA
VF
tp187
asg59
I1997
sg43
V91
p188
sbag1
(g2
g3
NtRp189
(dp190
g49
V10.1006/dbio.2001.0333
p191
sg45
VDEV BIOL
p192
sg47
V236
p193
sg80
(lp194
(VBALUSKA
VF
tp195
asg59
I2001
sg43
V478
p196
sbag1
(g2
g3
NtRp197
(dp198
g49
V10.1007/BF01279261
p199
sg45
VPROTOPLASMA
p200
sg47
V206
p201
sg80
(lp202
(VBARTHOU
VH
tp203
asg59
I1999
sg43
VROTOPLASMA
p204
sbag1
(g2
g3
NtRp205
(dp206
g49
Nsg45
VJ CELL SCI
p207
sg47
V114
p208
sg80
(lp209
(VBERDITCHEVSKI
VF
tp210
asg59
I2001
sg43
V4143
p211
sbag1
(g2
g3
NtRp212
(dp213
g49
V10.1038/383489a0
p214
sg45
VNATURE
p215
sg47
V383
p216
sg80
(lp217
(VBOGRE
VL
tp218
asg59
I1996
sg43
V489
p219
sbag1
(g2
g3
NtRp220
(dp221
g49
V10.1104/pp.010884
p222
sg45
VPLANT PHYSIOL
p223
sg47
V129
p224
sg80
(lp225
(VBORNER
VG H H
tp226
asg59
I2002
sg43
VLANT
p227
sbag1
(g2
g3
NtRp228
(dp229
g49
V10.1007/PL00000933
p230
sg45
VCELL MOL LIFE SCI
p231
sg47
V58
p232
sg80
(lp233
(VBOUCHEIX
VC
tp234
asg59
I2001
sg43
V1189
p235
sbag1
(g2
g3
NtRp236
(dp237
g49
V10.1016/S0955067402003733
p238
sg45
VCURR OPIN CELL BIOL
p239
sg47
V14
p240
sg80
(lp241
(VBRAGA
VV M M
tp242
asg59
I2002
sg43
V546
p243
sbag1
(g2
g3
NtRp244
(dp245
g49
V10.1038/nrm882
p246
sg45
VNAT REV MOL CELL BIO
p247
sg47
V3
sg80
(lp248
(VBRETSCHER
VA
tp249
asg59
I2002
sg43
V586
p250
sbag1
(g2
g3
NtRp251
(dp252
g49
V10.1016/S0074-7696(08)60161-8
p253
sg45
VINT REV CYTOL
p254
sg47
V191
p255
sg80
(lp256
(VBURKE
VR D
tp257
asg59
I1999
sg43
V257
p258
sbag1
(g2
g3
NtRp259
(dp260
g49
V10.1074/jbc.R900037199
p261
sg45
VJ BIOL CHEM
p262
sg47
V275
p263
sg80
(lp264
(VCALDERWOOD
VD A
tp265
asg59
I2000
sg43
V22607
p266
sbag1
(g2
g3
NtRp267
(dp268
g49
V10.1046/j.1365-313x.1998.00276.x
p269
sg45
VPLANT J
p270
sg47
V16
p271
sg80
(lp272
(VCANUT
VH
tp273
asg59
I1998
sg43
VLANT
p274
sbag1
(g2
g3
NtRp275
(dp276
g49
V10.1093/emboj/20.16.4332
p277
sg45
VEMBO J
p278
sg47
V20
p279
sg80
(lp280
(VCARONI
VP
tp281
asg59
I2001
sg43
V4332
p282
sbag1
(g2
g3
NtRp283
(dp284
g49
V10.1242/jcs.00326
p285
sg45
VJ CELL SCI
p286
sg47
V116
p287
sg80
(lp288
(VCHIES
VR
tp289
asg59
I2003
sg43
V987
p290
sbag1
(g2
g3
NtRp291
(dp292
g49
Nsg45
VCURR BIOL
p293
sg47
V11
p294
sg80
(lp295
(VCOSGROVE
VD
tp296
asg59
I2000
sg43
VR558
p297
sbag1
(g2
g3
NtRp298
(dp299
g49
V10.1074/jbc.M209679200
p300
sg45
VJ BIOL CHEM
p301
sg47
V277
p302
sg80
(lp303
(VCOUCHMAN
VJ R
tp304
asg59
I2002
sg43
V49296
p305
sbag1
(g2
g3
NtRp306
(dp307
g49
V10.1016/S0960-9822(03)00160-X
p308
sg45
VCURR BIOL
p309
sg47
V13
p310
sg80
(lp311
(VCRAIG
VS W
tp312
asg59
I2003
sg43
VR236
p313
sbag1
(g2
g3
NtRp314
(dp315
g49
V10.1016/S0955-0674(99)00067-8
p316
sg45
VCURR OPIN CELL BIOL
p317
sg47
V12
p318
sg80
(lp319
(VCRITCHLEY
VD R
tp320
asg59
I2000
sg43
V133
p321
sbag1
(g2
g3
NtRp322
(dp323
g49
V10.1083/jcb.116.4.1055
p324
sg45
VJ CELL BIOL
p325
sg47
V116
p326
sg80
(lp327
(VCULTY
VM
tp328
asg59
I1992
sg43
V1055
p329
sbag1
(g2
g3
NtRp330
(dp331
g49
Nsg45
VGENOME BIOL
p332
sg47
Nsg80
(lp333
(VCVRCKOVA
VF
tp334
asg59
I2000
sg43
V1
sbag1
(g2
g3
NtRp335
(dp336
g49
V10.1016/S1360-1385(02)02341-5
p337
sg45
VTRENDS PLANT SCI
p338
sg47
V7
sg80
(lp339
(VDEEKS
VM J
tp340
asg59
I2002
sg43
V492
p341
sbag1
(g2
g3
NtRp342
(dp343
g49
V10.1105/tpc.13.6.1333
p344
sg45
VPLANT CELL
p345
sg47
V13
p346
sg80
(lp347
(VDONG
VC H
tp348
asg59
I2001
sg43
VLANT
p349
sbag1
(g2
g3
NtRp350
(dp351
g49
V10.1002/(SICI)1097-4644(19960616)61:4<569::AID-JCB10>3.0.CO;2-B
p352
sg45
VJ CELL BIOCHEM
p353
sg47
V61
p354
sg80
(lp355
(VENTWISTLE
VJ
tp356
asg59
I1996
sg43
V569
p357
sbag1
(g2
g3
NtRp358
(dp359
g49
V10.1038/ncb718
p360
sg45
VNAT CELL BIOL
p361
sg47
V4
sg80
(lp362
(VEVANGELISTA
VM
tp363
asg59
I2002
sg43
V32
p364
sbag1
(g2
g3
NtRp365
(dp366
g49
V10.1046/j.1432-1327.1998.2530552.x
p367
sg45
VEUR J BIOCHEM
p368
sg47
V253
p369
sg80
(lp370
(VFAIK
VA
tp371
asg59
I1998
sg43
V552
p372
sbag1
(g2
g3
NtRp373
(dp374
g49
Nsg45
VJ NEUROSCI
p375
sg47
V20
p376
sg80
(lp377
(VFERNANDEZ-CHACON
VR
tp378
asg59
I2000
sg43
V7941
p379
sbag1
(g2
g3
NtRp380
(dp381
g49
Nsg45
VJ CELL SCI
p382
sg47
V114
p383
sg80
(lp384
(VFOGER
VN
tp385
asg59
I2001
sg43
V1169
p386
sbag1
(g2
g3
NtRp387
(dp388
g49
V10.1146/annurev.cellbio.13.1.697
p389
sg45
VANNU REV CELL DEV BI
p390
sg47
V13
p391
sg80
(lp392
(VFOWLER
VJ E
tp393
asg59
I1997
sg43
V697
p394
sbag1
(g2
g3
NtRp395
(dp396
g49
V10.1073/pnas.212511099
p397
sg45
VP NATL ACAD SCI USA
p398
sg47
V99
p399
sg80
(lp400
(VFRADKIN
VL G
tp401
asg59
I2002
sg43
V13663
p402
sbag1
(g2
g3
NtRp403
(dp404
g49
V10.1046/j.1365-313X.1999.00544.x
p405
sg45
VPLANT J
p406
sg47
V19
p407
sg80
(lp408
(VGAO
VM G
tp409
asg59
I1999
sg43
VLANT
p410
sbag1
(g2
g3
NtRp411
(dp412
g49
V10.1105/tpc.13.9.2143
p413
sg45
VPLANT CELL
p414
sg47
V13
p415
sg80
(lp416
(VGARDINER
VJ C
tp417
asg59
I2001
sg43
VLANT
p418
sbag1
(g2
g3
NtRp419
(dp420
g49
V10.1038/35099066
p421
sg45
VNAT REV MOL CELL BIO
p422
sg47
V2
sg80
(lp423
(VGEIGER
VB
tp424
asg59
I2001
sg43
V793
p425
sbag1
(g2
g3
NtRp426
(dp427
g49
V10.1016/S0955-0674(00)00255-6
p428
sg45
VCURR OPIN CELL BIOL
p429
sg47
V13
p430
sg80
(lp431
(VGEIGER
VB
tp432
asg59
I2001
sg43
V584
p433
sbag1
(g2
g3
NtRp434
(dp435
g49
V10.1038/35096571
p436
sg45
VNATURE
p437
sg47
V413
p438
sg80
(lp439
(VGELDNER
VN
tp440
asg59
I2001
sg43
V425
p441
sbag1
(g2
g3
NtRp442
(dp443
g49
V10.1016/S0092-8674(03)00003-5
p444
sg45
VCELL
p445
sg47
V112
p446
sg80
(lp447
(VGELDNER
VN
tp448
asg59
I2003
sg43
V219
p449
sbag1
(g2
g3
NtRp450
(dp451
g49
Nsg45
VPROTOPLASMA
p452
sg47
V212
p453
sg80
(lp454
(VGENS
VJ S
tp455
asg59
I2000
sg43
VROTOPLASMA
p456
sbag1
(g2
g3
NtRp457
(dp458
g49
V10.1038/35093011
p459
sg45
VNATURE
p460
sg47
V413
p461
sg80
(lp462
(VGILLESPIE
VP G
tp463
asg59
I2001
sg43
V194
p464
sbag1
(g2
g3
NtRp465
(dp466
g49
V10.1046/j.1365-313X.2003.01626.x
p467
sg45
VPLANT J
p468
sg47
V33
p469
sg80
(lp470
(VGILLILAND
VL U
tp471
asg59
I2003
sg43
VLANT
p472
sbag1
(g2
g3
NtRp473
(dp474
g49
V10.1186/gb-2003-4-3-309
p475
sg45
VGenome Biol
p476
sg47
V4
sg80
(lp477
(VGOLDMAN
VMICHAEL A
tp478
asg59
I2003
sg43
V309
p479
sbag1
(g2
g3
NtRp480
(dp481
g49
V10.2307/2656967
p482
sg45
VAM J BOT
p483
sg47
V86
p484
sg80
(lp485
(VGREEN
VP B
tp486
asg59
I1999
sg43
V1059
p487
sbag1
(g2
g3
NtRp488
(dp489
g49
Nsg45
VJ BIOL CHEM
p490
sg47
V271
p491
sg80
(lp492
(VHE
VZ H
tp493
asg59
I1996
sg43
V19789
p494
sbag1
(g2
g3
NtRp495
(dp496
g49
V10.1023/A:1006197318246
p497
sg45
VPLANT MOL BIOL
p498
sg47
V39
p499
sg80
(lp500
(VHE
VZ H
tp501
asg59
I1999
sg43
VLANT
p502
sbag1
(g2
g3
NtRp503
(dp504
g49
Nsg45
VMYCOTA
p505
sg47
V8
sg80
(lp506
(VHEATH
VI B
tp507
asg59
I2001
sg43
V201
p508
sbag1
(g2
g3
NtRp509
(dp510
g49
V10.1074/jbc.273.34.21893
p511
sg45
VJ BIOL CHEM
p512
sg47
V273
p513
sg80
(lp514
(VHEISKA
VL
tp515
asg59
I1998
sg43
V21893
p516
sbag1
(g2
g3
NtRp517
(dp518
g49
V10.1083/jcb.200108061
p519
sg45
VJ CELL BIOL
p520
sg47
V155
p521
sg80
(lp522
(VHEMLER
VM E
tp523
asg59
I2001
sg43
V1103
p524
sbag1
(g2
g3
NtRp525
(dp526
g49
V10.1023/A:1006136701595
p527
sg45
VPLANT MOL BIOL
p528
sg47
V39
p529
sg80
(lp530
(VHERVE
VC
tp531
asg59
I1999
sg43
VLANT
p532
sbag1
(g2
g3
NtRp533
(dp534
g49
V10.1023/A:1004439725283
p535
sg45
VPLANT SOIL
p536
sg47
V215
p537
sg80
(lp538
(VHORST
VW J
tp539
asg59
I1999
sg43
VLANT
p540
sbag1
(g2
g3
NtRp541
(dp542
g49
Nsg45
VMOL BIOL CELL
p543
sg47
V11
p544
sg80
(lp545
(VHUBBARD
VC
tp546
asg59
I2000
sg43
V2933
p547
sbag1
(g2
g3
NtRp548
(dp549
g49
Nsg45
VINT REV CYTOL
p550
sg47
V214
p551
sg80
(lp552
(VHUBNER
VK
tp553
asg59
I2002
sg43
V103
p554
sbag1
(g2
g3
NtRp555
(dp556
g49
V10.1098/rstb.2002.1086
p557
sg45
VPHILOS T ROY SOC B
p558
sg47
V357
p559
sg80
(lp560
(VHUSSEY
VP J
tp561
asg59
I2002
sg43
VHILOS
p562
sbag1
(g2
g3
NtRp563
(dp564
g49
Nsg45
VTRENDS CELL BIOL
p565
sg47
V15
p566
sg80
(lp567
(VHYNES
VRICHARD O
tp568
asg59
I1999
sg43
V33
p569
sbag1
(g2
g3
NtRp570
(dp571
g49
V10.1083/jcb.150.2.F89
p572
sg45
VJ CELL BIOL
p573
sg47
V150
p574
sg80
(lp575
(VHYNES
VR O
tp576
asg59
I2000
sg43
VF89
p577
sbag1
(g2
g3
NtRp578
(dp579
g49
V10.1016/S0092-8674(02)00971-6
p580
sg45
VCELL
p581
sg47
V110
p582
sg80
(lp583
(VHYNES
VR O
tp584
asg59
I2002
sg43
V673
p585
sbag1
(g2
g3
NtRp586
(dp587
g49
V10.1242/jcs.0359
p588
sg45
VJ CELL SCI
p589
sg47
V116
p590
sg80
(lp591
(VINGBER
VD E
tp592
asg59
I2003
sg43
V1157
p593
sbag1
(g2
g3
NtRp594
(dp595
g49
V10.1242/jcs.00360
p596
sg45
VJ CELL SCI
p597
sg47
V116
p598
sg80
(lp599
(VINGBER
VD E
tp600
asg59
I2003
sg43
V1397
p601
sbag1
(g2
g3
NtRp602
(dp603
g49
Nsg45
VNAT CELL BIOL
p604
sg47
V3
sg80
(lp605
(VISHIZAKI
VT
tp606
asg59
I2001
sg43
V8
sbag1
(g2
g3
NtRp607
(dp608
g49
V10.1073/pnas.252530499
p609
sg45
VP NATL ACAD SCI USA
p610
sg47
V99
p611
sg80
(lp612
(VIWAI
VH
tp613
asg59
I2002
sg43
V16319
p614
sbag1
(g2
g3
NtRp615
(dp616
g49
V10.3732/ajb.89.3.375
p617
sg45
VAM J BOT
p618
sg47
V89
p619
sg80
(lp620
(VJAFFE
VM J
tp621
asg59
I2002
sg43
V375
p622
sbag1
(g2
g3
NtRp623
(dp624
g49
Nsg45
VPHYSIOL REV
p625
sg47
V78
p626
sg80
(lp627
(VJANMEY
VP A
tp628
asg59
I1998
sg43
VHYSIOL
p629
sbag1
(g2
g3
NtRp630
(dp631
g49
V10.1146/annurev.pharmtox.42.090401.151133
p632
sg45
VANNU REV PHARMACOL
p633
sg47
V42
p634
sg80
(lp635
(VJULIANO
VR L
tp636
asg59
I2002
sg43
V283
p637
sbag1
(g2
g3
NtRp638
(dp639
g49
Nsg45
VJ CELL SCI
p640
sg47
V108
p641
sg80
(lp642
(VKAMINSKYJ
VS G W
tp643
asg59
I1995
sg43
V849
p644
sbag1
(g2
g3
NtRp645
(dp646
g49
V10.1034/j.1399-3054.1997.990102.x
p647
sg45
VPHYSIOL PLANTARUM
p648
sg47
V99
p649
sg80
(lp650
(VKATEMBE
VW J
tp651
asg59
I1997
sg43
VHYSIOL
p652
sbag1
(g2
g3
NtRp653
(dp654
g49
Nsg45
VMOL BIOL CELL
p655
sg47
V11
p656
sg80
(lp657
(VKATZ
VB Z
tp658
asg59
I2000
sg43
V1047
p659
sbag1
(g2
g3
NtRp660
(dp661
g49
Nsg45
VPLANT PHYSIOL
p662
sg47
V101
p663
sg80
(lp664
(VKELLER
VB
tp665
asg59
I1993
sg43
VLANT
p666
sbag1
(g2
g3
NtRp667
(dp668
g49
Nsg45
VPLANT CELL PHYSIOL
p669
sg47
V39
p670
sg80
(lp671
(VKIBA
VA
tp672
asg59
I1998
sg43
VLANT
p673
sbag1
(g2
g3
NtRp674
(dp675
g49
Nsg45
VMOL BIOL CELL
p676
sg47
V11
p677
sg80
(lp678
(VKOBAYASHI
VT
tp679
asg59
I2000
sg43
V1829
p680
sbag1
(g2
g3
NtRp681
(dp682
g49
V10.1016/S0955-0674(00)00247-7
p683
sg45
VCURR OPIN CELL BIOL
p684
sg47
V13
p685
sg80
(lp686
(VKOHORN
VB D
tp687
asg59
I2001
sg43
V529
p688
sbag1
(g2
g3
NtRp689
(dp690
g49
V10.1104/pp.124.1.31
p691
sg45
VPLANT PHYSIOL
p692
sg47
V124
p693
sg80
(lp694
(VKOHORN
VB D
tp695
asg59
I2000
sg43
VLANT
p696
sbag1
(g2
g3
NtRp697
(dp698
g49
V10.1007/s00709-002-0054-3
p699
sg45
VPROTOPLASMA
p700
sg47
V221
p701
sg80
(lp702
(VKOMIS
VG
tp703
asg59
I2003
sg43
VROTOPLASMA
p704
sbag1
(g2
g3
NtRp705
(dp706
g49
V10.1074/jbc.M109640200
p707
sg45
VJ BIOL CHEM
p708
sg47
V277
p709
sg80
(lp710
(VKOVACS
VE M
tp711
asg59
I2002
sg43
V6708
p712
sbag1
(g2
g3
NtRp713
(dp714
g49
V10.1016/S0960-9822(02)00661-9
p715
sg45
VCURR BIOL
p716
sg47
V12
p717
sg80
(lp718
(VKOVACS
VE M
tp719
asg59
I2002
sg43
V379
p720
sbag1
(g2
g3
NtRp721
(dp722
g49
V10.1016/S0014-5793(98)01634-2
p723
sg45
VFEBS LETT
p724
sg47
V442
p725
sg80
(lp726
(VLABOURE
VA M
tp727
asg59
I1999
sg43
V123
p728
sbag1
(g2
g3
NtRp729
(dp730
g49
V10.1002/(SICI)1521-4141(199812)28:12<4332::AID-IMMU4332>3.0.CO;2-8
p731
sg45
VEUR J IMMUNOL
p732
sg47
V28
p733
sg80
(lp734
(VLAGAUDRIERE-GESBERT
VC
tp735
asg59
I1998
sg43
V4332
p736
sbag1
(g2
g3
NtRp737
(dp738
g49
V10.1105/tpc.13.6.1317
p739
sg45
VPLANT CELL
p740
sg47
V13
p741
sg80
(lp742
(VLALLY
VD
tp743
asg59
I2001
sg43
VLANT
p744
sbag1
(g2
g3
NtRp745
(dp746
g49
V10.1007/BF01282918
p747
sg45
VPROTOPLASMA
p748
sg47
V212
p749
sg80
(lp750
(VLANG-PAULUZZI
VI
tp751
asg59
I2000
sg43
VROTOPLASMA
p752
sbag1
(g2
g3
NtRp753
(dp754
g49
V10.1016/S0005-2728(99)00087-0
p755
sg45
VBBA
p756
sg47
V1435
p757
sg80
(lp758
(VLAVAL
VV
tp759
asg59
I1999
sg43
V61
p760
sbag1
(g2
g3
NtRp761
(dp762
g49
V10.1016/S0955-0674(00)00135-6
p763
sg45
VCURR OPIN CELL BIOL
p764
sg47
V12
p765
sg80
(lp766
(VLEE
VJ Y
tp767
asg59
I2000
sg43
V581
p768
sbag1
(g2
g3
NtRp769
(dp770
g49
V10.1038/ncb797
p771
sg45
VNAT CELL BIOL
p772
sg47
V4
sg80
(lp773
(VLEGG
VJ W
tp774
asg59
I2002
sg43
V399
p775
sbag1
(g2
g3
NtRp776
(dp777
g49
V10.1038/307363a0
p778
sg45
VNATURE
p779
sg47
V307
p780
sg80
(lp781
(VLINTILHAC
VP M
tp782
asg59
I1984
sg43
V363
p783
sbag1
(g2
g3
NtRp784
(dp785
g49
V10.1083/jcb.126.4.1099
p786
sg45
VJ CELL BIOL
p787
sg47
V126
p788
sg80
(lp789
(VLOKESHWAR
VV B
tp790
asg59
I1994
sg43
V1099
p791
sbag1
(g2
g3
NtRp792
(dp793
g49
V10.1073/pnas.012685099
p794
sg45
VP NATL ACAD SCI USA
p795
sg47
V99
p796
sg80
(lp797
(VLORD
VE M
tp798
asg59
I2002
sg43
V15843
p799
sbag1
(g2
g3
NtRp800
(dp801
g49
V10.1111/j.1469-8137.1993.tb03897.x
p802
sg45
VNEW PHYTOL
p803
sg47
V125
p804
sg80
(lp805
(VLUCAS
VW J
tp806
asg59
I1993
sg43
V435
p807
sbag1
(g2
g3
NtRp808
(dp809
g49
V10.1006/dbio.1996.8462
p810
sg45
VDEV BIOL
p811
sg47
V181
p812
sg80
(lp813
(VLYNCH
VT M
tp814
asg59
I1997
sg43
V246
p815
sbag1
(g2
g3
NtRp816
(dp817
g49
V10.1104/pp.122.1.3
p818
sg45
VPLANT PHYSIOL
p819
sg47
V122
p820
sg80
(lp821
(VMAJEWSKA-SAWKA
VA
tp822
asg59
I2000
sg43
VLANT
p823
sbag1
(g2
g3
NtRp824
(dp825
g49
V10.1007/BF01280306
p826
sg45
VPROTOPLASMA
p827
sg47
V215
p828
sg80
(lp829
(VMCCURDY
VD W
tp830
asg59
I2001
sg43
VROTOPLASMA
p831
sbag1
(g2
g3
NtRp832
(dp833
g49
V10.1016/S0955-0674(02)00367-8
p834
sg45
VCURR OPIN CELL BIOL
p835
sg47
V14
p836
sg80
(lp837
(VMCEVER
VR P
tp838
asg59
I2002
sg43
V581
p839
sbag1
(g2
g3
NtRp840
(dp841
g49
Nsg45
VPLANT CELL
p842
sg47
V11
p843
sg80
(lp844
(VMEAGHER
VR B
tp845
asg59
I1999
sg43
VLANT
p846
sbag1
(g2
g3
NtRp847
(dp848
g49
V10.1105/tpc.13.2.413
p849
sg45
VPLANT CELL
p850
sg47
V13
p851
sg80
(lp852
(VMELLERSH
VD G
tp853
asg59
I2001
sg43
VLANT
p854
sbag1
(g2
g3
NtRp855
(dp856
g49
V10.1126/science.279.5350.527
p857
sg45
VSCIENCE
p858
sg47
V279
p859
sg80
(lp860
(VMERMALL
VV
tp861
asg59
I1998
sg43
V527
p862
sbag1
(g2
g3
NtRp863
(dp864
g49
V10.1074/jbc.R200031200
p865
sg45
VJ BIOL CHEM
p866
sg47
V278
p867
sg80
(lp868
(VMICHELE
VD E
tp869
asg59
I2003
sg43
V15457
p870
sbag1
(g2
g3
NtRp871
(dp872
g49
Nsg45
VPLANT CELL
p873
sg47
V9
sg80
(lp874
(VMILLER
VD
tp875
asg59
I1997
sg43
VLANT
p876
sbag1
(g2
g3
NtRp877
(dp878
g49
V10.1093/jexbot/48.316.1881
p879
sg45
VJ EXP BOT
p880
sg47
V48
p881
sg80
(lp882
(VMILLER
VD D
tp883
asg59
I1997
sg43
V1881
p884
sbag1
(g2
g3
NtRp885
(dp886
g49
Nsg45
VNATURE CELL BIOL
p887
sg47
V4
sg80
(lp888
(VMIRANTI
VC K
tp889
asg59
I2002
sg43
V83
p890
sbag1
(g2
g3
NtRp891
(dp892
g49
V10.1105/tpc.12.9.1737
p893
sg45
VPLANT CELL
p894
sg47
V12
p895
sg80
(lp896
(VMOLLET
VJ C
tp897
asg59
I2000
sg43
VLANT
p898
sbag1
(g2
g3
NtRp899
(dp900
g49
Nsg45
VBOT ACTA
p901
sg47
V111
p902
sg80
(lp903
(VMONSHAUSEN
VG B
tp904
asg59
I1998
sg43
V303
p905
sbag1
(g2
g3
NtRp906
(dp907
g49
V10.1016/S0378-1119(99)00068-2
p908
sg45
VGENE
p909
sg47
V230
p910
sg80
(lp911
(VNAGPAL
VP
tp912
asg59
I1999
sg43
V33
p913
sbag1
(g2
g3
NtRp914
(dp915
g49
V10.1016/S0960-9822(00)00465-6
p916
sg45
VCURR BIOL
p917
sg47
V10
p918
sg80
(lp919
(VNEBL
VT
tp920
asg59
I2000
sg43
VR351
p921
sbag1
(g2
g3
NtRp922
(dp923
g49
V10.1074/jbc.C100306200
p924
sg45
VJ BIOL CHEM
p925
sg47
V276
p926
sg80
(lp927
(VNOREN
VN K
tp928
asg59
I2001
sg43
V33305
p929
sbag1
(g2
g3
NtRp930
(dp931
g49
Nsg45
VINT REV CYTOL
p932
sg47
V174
p933
sg80
(lp934
(VNOTHNAGEL
VE A
tp935
asg59
I1997
sg43
V195
p936
sbag1
(g2
g3
NtRp937
(dp938
g49
V10.1083/jcb.146.4.843
p939
sg45
VJ CELL BIOL
p940
sg47
V146
p941
sg80
(lp942
(VOLIFERENKO
VS
tp943
asg59
I1999
sg43
V843
p944
sbag1
(g2
g3
NtRp945
(dp946
g49
V10.1083/jcb.148.6.1159
p947
sg45
VJ CELL BIOL
p948
sg47
V148
p949
sg80
(lp950
(VOLIFERENKO
VS
tp951
asg59
I2000
sg43
V1159
p952
sbag1
(g2
g3
NtRp953
(dp954
g49
V10.1111/j.1365-3040.1994.tb00279.x
p955
sg45
VPLANT CELL ENVIRON
p956
sg47
V17
p957
sg80
(lp958
(VOPARKA
VK J
tp959
asg59
I1994
sg43
VLANT
p960
sbag1
(g2
g3
NtRp961
(dp962
g49
V10.1111/j.1469-8137.1994.tb02952.x
p963
sg45
VNEW PHYTOL
p964
sg47
V126
p965
sg80
(lp966
(VOPARKA
VK J
tp967
asg59
I1994
sg43
V571
p968
sbag1
(g2
g3
NtRp969
(dp970
g49
V10.1111/j.1365-313X.1992.tb00143.x
p971
sg45
VPLANT J
p972
sg47
V2
sg80
(lp973
(VOPARKA
VK J
tp974
asg59
I1992
sg43
VLANT
p975
sbag1
(g2
g3
NtRp976
(dp977
g49
V10.1016/S0092-8674(03)00157-0
p978
sg45
VCELL
p979
sg47
V112
p980
sg80
(lp981
(VORLANDO
VV
tp982
asg59
I2003
sg43
V599
p983
sbag1
(g2
g3
NtRp984
(dp985
g49
V10.1023/A:1015558231400
p986
sg45
VPLANT MOL BIOL
p987
sg47
V49
p988
sg80
(lp989
(VOSTERGAARD
VL
tp990
asg59
I2002
sg43
VLANT
p991
sbag1
(g2
g3
NtRp992
(dp993
g49
V10.1073/pnas.96.25.14246
p994
sg45
VP NATL ACAD SCI USA
p995
sg47
V96
p996
sg80
(lp997
(VOXLEY
VD
tp998
asg59
I1999
sg43
V14246
p999
sbag1
(g2
g3
NtRp1000
(dp1001
g49
V10.1074/jbc.M101283200
p1002
sg45
VJ BIOL CHEM
p1003
sg47
V276
p1004
sg80
(lp1005
(VPARK
VA R
tp1006
asg59
I2001
sg43
V26688
p1007
sbag1
(g2
g3
NtRp1008
(dp1009
g49
V10.1074/jbc.M006578200
p1010
sg45
VJ BIOL CHEM
p1011
sg47
V275
p1012
sg80
(lp1013
(VPECE
VS
tp1014
asg59
I2000
sg43
V41227
p1015
sbag1
(g2
g3
NtRp1016
(dp1017
g49
V10.1038/nrm1004
p1018
sg45
VNAT REV MOL CELL BIO
p1019
sg47
V4
sg80
(lp1020
(VPONTA
VH
tp1021
asg59
I2003
sg43
V33
p1022
sbag1
(g2
g3
NtRp1023
(dp1024
g49
V10.1111/j.1365-3040.1993.tb00853.x
p1025
sg45
VPLANT CELL ENVIRON
p1026
sg47
V16
p1027
sg80
(lp1028
(VPONTLEZICA
VR F
tp1029
asg59
I1993
sg43
VLANT
p1030
sbag1
(g2
g3
NtRp1031
(dp1032
g49
V10.1007/s00425-002-0965-4
p1033
sg45
VPLANTA
p1034
sg47
V217
p1035
sg80
(lp1036
(VPOTOCKY
VM
tp1037
asg59
I2003
sg43
VLANTA
p1038
sbag1
(g2
g3
NtRp1039
(dp1040
g49
V10.1126/science.1072309
p1041
sg45
VSCIENCE
p1042
sg47
V297
p1043
sg80
(lp1044
(VPRUYNE
VD
tp1045
asg59
I2002
sg43
V612
p1046
sbag1
(g2
g3
NtRp1047
(dp1048
g49
V10.1104/pp.124.4.1637
p1049
sg45
VPLANT PHYSIOL
p1050
sg47
V124
p1051
sg80
(lp1052
(VRAMACHANDRAN
VS
tp1053
asg59
I2000
sg43
VLANT
p1054
sbag1
(g2
g3
NtRp1055
(dp1056
g49
V10.1016/S0092-8674(00)81560-3
p1057
sg45
VCELL
p1058
sg47
V100
p1059
sg80
(lp1060
(VRAUCHER
VD
tp1061
asg59
I2000
sg43
V221
p1062
sbag1
(g2
g3
NtRp1063
(dp1064
g49
Nsg45
VACTIN DYNAMIC FRAMEW
p1065
sg47
Nsg80
(lp1066
(VREICHELT
VS
tp1067
asg59
I2000
sg43
V29
p1068
sbag1
(g2
g3
NtRp1069
(dp1070
g49
V10.1046/j.1365-313X.1999.00553.x
p1071
sg45
VPLANT J
p1072
sg47
V19
p1073
sg80
(lp1074
(VREICHELT
VS
tp1075
asg59
I1999
sg43
VLANT
p1076
sbag1
(g2
g3
NtRp1077
(dp1078
g49
V10.1016/S0981-9428(02)01390-6
p1079
sg45
VPLANT PHYSIOL BIOCH
p1080
sg47
V40
p1081
sg80
(lp1082
(VRIOU
VC
tp1083
asg59
I2002
sg43
VLANT
p1084
sbag1
(g2
g3
NtRp1085
(dp1086
g49
V10.1083/jcb.153.6.1175
p1087
sg45
VJ CELL BIOL
p1088
sg47
V153
p1089
sg80
(lp1090
(VRIVELINE
VD
tp1091
asg59
I2001
sg43
V1175
p1092
sbag1
(g2
g3
NtRp1093
(dp1094
g49
V10.1016/S0092-8674(03)00156-9
p1095
sg45
VCELL
p1096
sg47
V112
p1097
sg80
(lp1098
(VRORTH
VP
tp1099
asg59
I2003
sg43
V595
p1100
sbag1
(g2
g3
NtRp1101
(dp1102
g49
V10.1038/ncb834
p1103
sg45
VNAT CELL BIOL
p1104
sg47
V4
sg80
(lp1105
(VSAGOT
VI
tp1106
asg59
I2002
sg43
V626
p1107
sbag1
(g2
g3
NtRp1108
(dp1109
g49
V10.1101/gad.255603
p1110
sg45
VGENE DEV
p1111
sg47
V17
p1112
sg80
(lp1113
(VSAKAI
VT
tp1114
asg59
I2003
sg43
V926
p1115
sbag1
(g2
g3
NtRp1116
(dp1117
g49
Nsg45
VPLANT CELL PHYSIOL
p1118
sg47
V40
p1119
sg80
(lp1120
(VSAMAJ
VJ
tp1121
asg59
I1999
sg43
VLANT
p1122
sbag1
(g2
g3
NtRp1123
(dp1124
g49
V10.1093/emboj/cdf349
p1125
sg45
VEMBO J
p1126
sg47
V21
p1127
sg80
(lp1128
(VSAMAJ
VJ
tp1129
asg59
I2002
sg43
V3296
p1130
sbag1
(g2
g3
NtRp1131
(dp1132
g49
V10.1007/BF01282288
p1133
sg45
VPROTOPLASMA
p1134
sg47
V204
p1135
sg80
(lp1136
(VSAMAJ
VJ
tp1137
asg59
I1998
sg43
VROTOPLASMA
p1138
sbag1
(g2
g3
NtRp1139
(dp1140
g49
V10.1007/s002990050588
p1141
sg45
VPLANT CELL REP
p1142
sg47
V18
p1143
sg80
(lp1144
(VSAMAJ
VJ
tp1145
asg59
I1999
sg43
VLANT
p1146
sbag1
(g2
g3
NtRp1147
(dp1148
g49
V10.1007/BF01282919
p1149
sg45
VPROTOPLASMA
p1150
sg47
V212
p1151
sg80
(lp1152
(VSAMAJ
VJ
tp1153
asg59
I2000
sg43
VROTOPLASMA
p1154
sbag1
(g2
g3
NtRp1155
(dp1156
g49
V10.1083/jcb.108.5.1955
p1157
sg45
VJ CELL BIOL
p1158
sg47
V108
p1159
sg80
(lp1160
(VSCHINDLER
VM
tp1161
asg59
I1989
sg43
V1955
p1162
sbag1
(g2
g3
NtRp1163
(dp1164
g49
V10.1016/S1360-1385(98)01328-4
p1165
sg45
VTRENDS PLANT SCI
p1166
sg47
V3
sg80
(lp1167
(VSCHULTZ
VC
tp1168
asg59
I1998
sg43
V426
p1169
sbag1
(g2
g3
NtRp1170
(dp1171
g49
V10.1105/tpc.12.9.1751
p1172
sg45
VPLANT CELL
p1173
sg47
V12
p1174
sg80
(lp1175
(VSCHULTZ
VC J
tp1176
asg59
I2000
sg43
VLANT
p1177
sbag1
(g2
g3
NtRp1178
(dp1179
g49
V10.1038/ncb0402-e65
p1180
sg45
VNAT CELL BIOL
p1181
sg47
V4
sg80
(lp1182
(VSCHWARTZ
VM A
tp1183
asg59
I2002
sg43
VE65
p1184
sbag1
(g2
g3
NtRp1185
(dp1186
g49
V10.1016/S0960-9822(02)01355-6
p1187
sg45
VCURR BIOL
p1188
sg47
V12
p1189
sg80
(lp1190
(VSEVERSON
VA F
tp1191
asg59
I2002
sg43
V2066
p1192
sbag1
(g2
g3
NtRp1193
(dp1194
g49
V10.1038/35073095
p1195
sg45
VNAT REV MOL CELL BIO
p1196
sg47
V2
sg80
(lp1197
(VSHEETZ
VM P
tp1198
asg59
I2001
sg43
V392
p1199
sbag1
(g2
g3
NtRp1200
(dp1201
g49
V10.1002/(SICI)1522-2683(19990701)20:10<2027::AID-ELPS2027>3.0.CO;2-A
p1202
sg45
VELECTROPHORESIS
p1203
sg47
V20
p1204
sg80
(lp1205
(VSHERRIER
VD J
tp1206
asg59
I1999
sg43
V2027
p1207
sbag1
(g2
g3
NtRp1208
(dp1209
g49
V10.1105/tpc.007872
p1210
sg45
VPLANT CELL
p1211
sg47
V15
p1212
sg80
(lp1213
(VSHI
VH Z
tp1214
asg59
I2003
sg43
VLANT
p1215
sbag1
(g2
g3
NtRp1216
(dp1217
g49
V10.1073/pnas.181141598
p1218
sg45
VP NATL ACAD SCI USA
p1219
sg47
V98
p1220
sg80
(lp1221
(VSHIU
VS H
tp1222
asg59
I2001
sg43
V10763
p1223
sbag1
(g2
g3
NtRp1224
(dp1225
g49
V10.1128/JB.182.6.1693-1701.2000
p1226
sg45
VJ BACTERIOL
p1227
sg47
V182
p1228
sg80
(lp1229
(VSIPICZKI
VM
tp1230
asg59
I2000
sg43
V1693
p1231
sbag1
(g2
g3
NtRp1232
(dp1233
g49
V10.1104/pp.103.022129
p1234
sg45
VPLANT PHYSIOL
p1235
sg47
V132
p1236
sg80
(lp1237
(VSIVAGURU
VM
tp1238
asg59
I2003
sg43
VLANT
p1239
sbag1
(g2
g3
NtRp1240
(dp1241
g49
V10.1104/pp.119.3.1073
p1242
sg45
VPLANT PHYSIOL
p1243
sg47
V119
p1244
sg80
(lp1245
(VSIVAGURU
VM
tp1246
asg59
I1999
sg43
VLANT
p1247
sbag1
(g2
g3
NtRp1248
(dp1249
g49
V10.1104/pp.124.3.991
p1250
sg45
VPLANT PHYSIOL
p1251
sg47
V124
p1252
sg80
(lp1253
(VSIVAGURU
VM
tp1254
asg59
I2000
sg43
VLANT
p1255
sbag1
(g2
g3
NtRp1256
(dp1257
g49
V10.1038/35048050
p1258
sg45
VNAT REV MOL CELL BIO
p1259
sg47
V2
sg80
(lp1260
(VSMITH
VL G
tp1261
asg59
I2001
sg43
V33
p1262
sbag1
(g2
g3
NtRp1263
(dp1264
g49
Nsg45
VACTIN DYNAMIC FRAMEW
p1265
sg47
Nsg80
(lp1266
(VSTAIGER
VC J
tp1267
asg59
I2000
sg43
Nsbag1
(g2
g3
NtRp1268
(dp1269
g49
V10.1146/annurev.arplant.51.1.257
p1270
sg45
VANNU REV PLANT PHYS
p1271
sg47
V51
p1272
sg80
(lp1273
(VSTAIGER
VC J
tp1274
asg59
I2000
sg43
V257
p1275
sbag1
(g2
g3
NtRp1276
(dp1277
g49
V10.1016/S0968-0004(02)00014-2
p1278
sg45
VTRENDS BIOCHEM SCI
p1279
sg47
V28
p1280
sg80
(lp1281
(VSTIPP
VC S
tp1282
asg59
I2003
sg43
V106
p1283
sbag1
(g2
g3
NtRp1284
(dp1285
g49
Nsg45
VIN PRESS PLANT CELL
p1286
sg47
V15
p1287
sg80
(lp1288
(VSUGIMOTO
VK
tp1289
asg59
I2003
sg43
Nsbag1
(g2
g3
NtRp1290
(dp1291
g49
V10.1093/pcp/pcd039
p1292
sg45
VPLANT CELL PHYSIOL
p1293
sg47
V41
p1294
sg80
(lp1295
(VSUN
VY
tp1296
asg59
I2000
sg43
VLANT
p1297
sbag1
(g2
g3
NtRp1298
(dp1299
g49
V10.1074/jbc.274.21.14724
p1300
sg45
VJ BIOL CHEM
p1301
sg47
V274
p1302
sg80
(lp1303
(VSVETEK
VJ
tp1304
asg59
I1999
sg43
V14724
p1305
sbag1
(g2
g3
NtRp1306
(dp1307
g49
Nsg45
VPLANT CELL PHYSIOL
p1308
sg47
V40
p1309
sg80
(lp1310
(VSWATZELL
VL J
tp1311
asg59
I1999
sg43
VLANT
p1312
sbag1
(g2
g3
NtRp1313
(dp1314
g49
V10.1111/j.1365-3040.1995.tb00355.x
p1315
sg45
VPLANT CELL ENVIRON
p1316
sg47
V18
p1317
sg80
(lp1318
(VTHAIN
VJ F
tp1319
asg59
I1995
sg43
VLANT
p1320
sbag1
(g2
g3
NtRp1321
(dp1322
g49
Nsg45
VNATURE
p1323
sg47
V408
p1324
sg80
(lp1325
(VKAUL
VS
tp1326
asg59
I2000
sg43
V796
p1327
sbag1
(g2
g3
NtRp1328
(dp1329
g49
V10.1074/jbc.R100038200
p1330
sg45
VJ BIOL CHEM
p1331
sg47
V277
p1332
sg80
(lp1333
(VTURLEY
VE A
tp1334
asg59
I2002
sg43
V4589
p1335
sbag1
(g2
g3
NtRp1336
(dp1337
g49
Nsg45
VACTA BOT NEERL
p1338
sg47
V43
p1339
sg80
(lp1340
(VVANCUTSEM
VP
tp1341
asg59
I1994
sg43
V231
p1342
sbag1
(g2
g3
NtRp1343
(dp1344
g49
V10.1104/pp.011028
p1345
sg45
VPLANT PHYSIOL
p1346
sg47
V129
p1347
sg80
(lp1348
(VVERICA
VJ A
tp1349
asg59
I2002
sg43
VLANT
p1350
sbag1
(g2
g3
NtRp1351
(dp1352
g49
V10.1023/A:1013679111111
p1353
sg45
VPLANT MOL BIOL
p1354
sg47
V47
p1355
sg80
(lp1356
(VVERMA
VD P S
tp1357
asg59
I2001
sg43
VLANT
p1358
sbag1
(g2
g3
NtRp1359
(dp1360
g49
V10.1002/(SICI)1097-0029(19991015)47:2<135::AID-JEMT6>3.0.CO;2-1
p1361
sg45
VMICROSC RES TECHNIQ
p1362
sg47
V47
p1363
sg80
(lp1364
(VVOLKMANN
VD
tp1365
asg59
I1999
sg43
V135
p1366
sbag1
(g2
g3
NtRp1367
(dp1368
g49
V10.1105/tpc.13.2.303
p1369
sg45
VPLANT CELL
p1370
sg47
V13
p1371
sg80
(lp1372
(VWAGNER
VT A
tp1373
asg59
I2001
sg43
VLANT
p1374
sbag1
(g2
g3
NtRp1375
(dp1376
g49
Nsg45
VDEVELOPMENT
p1377
sg47
V129
p1378
sg80
(lp1379
(VWIEDEMEIER
VA M D
tp1380
asg59
I2002
sg43
V4821
p1381
sbag1
(g2
g3
NtRp1382
(dp1383
g49
V10.1046/j.1365-313X.1996.9060919.x
p1384
sg45
VPLANT J
p1385
sg47
V9
sg80
(lp1386
(VWILLATS
VW G T
tp1387
asg59
I1996
sg43
VLANT
p1388
sbag1
(g2
g3
NtRp1389
(dp1390
g49
V10.1017/S0006323100005545
p1391
sg45
VBIOL REV
p1392
sg47
V75
p1393
sg80
(lp1394
(VWOJTASZEK
VP
tp1395
asg59
I2000
sg43
V437
p1396
sbag1
(g2
g3
NtRp1397
(dp1398
g49
Nsg45
VACTA BIOCHIM POL
p1399
sg47
V48
p1400
sg80
(lp1401
(VWOJTASZEK
VP
tp1402
asg59
I2001
sg43
V443
p1403
sbag1
(g2
g3
NtRp1404
(dp1405
g49
V10.1083/jcb.200108077
p1406
sg45
VJ CELL BIOL
p1407
sg47
V155
p1408
sg80
(lp1409
(VWU
VC Y
tp1410
asg59
I2001
sg43
V505
p1411
sbag1
(g2
g3
NtRp1412
(dp1413
g49
V10.1016/0962-8924(93)90022-S
p1414
sg45
VTrends in Cell Biology
p1415
sg47
V3
sg80
(lp1416
(VWYATT
VSARAH E
tp1417
asg59
I1993
sg43
V413
p1418
sbag1
(g2
g3
NtRp1419
(dp1420
g49
Nsg45
VJ CELL SCI
p1421
sg47
V114
p1422
sg80
(lp1423
(VYANEZ-MO
VM
tp1424
asg59
I2001
sg43
V577
p1425
sbag1
(g2
g3
NtRp1426
(dp1427
g49
V10.1104/pp.006163
p1428
sg45
VPLANT PHYSIOL
p1429
sg47
V130
p1430
sg80
(lp1431
(VYU
VQ
tp1432
asg59
I2002
sg43
VLANT
p1433
sbag1
(g2
g3
NtRp1434
(dp1435
g49
Nsg45
VPLANT BIOLOGY
p1436
sg47
V6
sg80
(lp1437
(VYU
VQ
tp1438
asg59
I2001
sg43
VLANT
p1439
sbag1
(g2
g3
NtRp1440
(dp1441
g49
Nsg45
VPHYSIOL PLANTARUM
p1442
sg47
V117
p1443
sg80
(lp1444
(VYU
VQ
tp1445
asg59
I2003
sg43
VHYSIOL
p1446
sbag1
(g2
g3
NtRp1447
(dp1448
g49
Nsg45
VJ CELL SCI
p1449
sg47
V114
p1450
sg80
(lp1451
(VZAMIR
VE
tp1452
asg59
I2001
sg43
V3577
p1453
sbag1
(g2
g3
NtRp1454
(dp1455
g49
Nsg45
VJ CELL SCI
p1456
sg47
V114
p1457
sg80
(lp1458
(VZAMIR
VE
tp1459
asg59
I2001
sg43
V3583
p1460
sbasb.