ccopy_reg
_reconstructor
p1
(ctethne.classes.paper
Paper
p2
c__builtin__
object
p3
NtRp4
(dp5
S'publisherCity'
p6
VROCKVILLE
p7
sS'reprintAddress'
p8
VVissenberg, K (reprint author), Univ Antwerp, Dept Biol, Lab Plant Growth & Dev, B-2020 Antwerp, Belgium.
p9
sS'WC'
p10
VPlant Sciences
p11
sS'GA'
p12
V744LH
p13
sS'FX'
p14
(lp15
VThis work was supported by the Research Foundation, Flanders (grant nos.
p16
aVG0345.02 and G.0524.07); the Interuniversity Attraction Poles Programme,
p17
aVBelgian State, Belgian Science Policy (grant no. IUAP VI/33); the
p18
aVUniversity of Antwerp; and Ghent University. F. V. is a postdoctoral
p19
aVfellow of the Research Foundation Flanders.
p20
asS'abstract'
p21
VIn Arabidopsis (Arabidopsis thaliana; Columbia-0) roots, the so-called zone of cell elongation comprises two clearly different domains: the transition zone, a postmeristematic region (approximately 200-450 mu m proximal of the root tip) with a low rate of elongation, and a fast elongation zone, the adjacent proximal region (450 mu m away from the root tip up to the first root hair) with a high rate of elongation. In this study, the surface pH was measured in both zones using the microelectrode ion flux estimation technique. The surface pH is highest in the apical part of the transition zone and is lowest at the basal part of the fast elongation zone. Fast cell elongation is inhibited within minutes by the ethylene precursor 1-aminocyclopropane-1-carboxylic acid; concomitantly, apoplastic alkalinization occurs in the affected root zone. Fusicoccin, an activator of the plasma membrane H+-ATPase, can partially rescue this inhibition of cell elongation, whereas the inhibitor N,N'-dicyclohexylcarbodiimide does not further reduce the maximal cell length. Microelectrode ion flux estimation experiments with auxin mutants lead to the final conclusion that control of the activity state of plasma membrane H+-ATPases is one of the mechanisms by which ethylene, via auxin, affects the final cell length in the root.
p22
sS'pageEnd'
p23
I2055
sS'date'
p24
I2011
sS'documentType'
p25
VArticle
p26
sS'subject'
p27
VPlant Sciences
p28
sS'isoSource'
p29
VPlant Physiol.
p30
sS'timesCited'
p31
(lp32
I8
aVZ9 8
p33
asS'funding'
p34
(lp35
(VResearch Foundation, Flanders
VG0345.02, G.0524.07
tp36
a(VInteruniversity Attraction Poles Programme, Belgian State, Belgian Science Policy
VIUAP VI/33
tp37
a(VUniversity of Antwerp
Ntp38
a(VGhent University
Ntp39
asS'PT'
p40
VJ
sS'title'
p41
VApoplastic Alkalinization Is Instrumental For The Inhibition Of Cell Elongation In The Arabidopsis Root By The Ethylene Precursor 1-Aminocyclopropane-1-Carboxylic Acid
p42
sS'ISSN'
p43
(lp44
V0032-0889
p45
aVJ9 PLANT PHYSIOL
p46
asS'authors_full'
p47
(lp48
(VSTAAL
VMARTEN
tp49
a(VDE CNODDER
VTINNE
tp50
a(VSIMON
VDAMIEN
tp51
a(VVANDENBUSSCHE
VFILIP
tp52
a(VVAN DER STRAETEN
VDOMINIQUE
tp53
a(VVERBELEN
VJEANPIERRE
tp54
a(VELZENGA
VTHEO
tp55
a(VVISSENBERG
VKRIS
tp56
asS'PG'
p57
I7
sS'PD'
p58
VAPR
p59
sS'pageStart'
p60
I2049
sS'issue'
p61
I4
sS'journal'
p62
VPLANT PHYSIOLOGY
p63
sS'volume'
p64
V155
p65
sS'doi'
p66
V10.1104/pp.110.168476
p67
sS'emailAddress'
p68
Vkris.vissenberg@ua.ac.be
p69
sS'authorAddress'
p70
(lp71
V[De Cnodder, Tinne; Simon, Damien; Verbelen, Jean-Pierre; Vissenberg, Kris] Univ Antwerp, Dept Biol, Lab Plant Growth & Dev, B-2020 Antwerp, Belgium.
p72
aV[Staal, Marten; Elzenga, Theo] Univ Groningen, Lab Plant Physiol, Ctr Ecol & Evolutionary Studies, NL-9750 AA Haren, Netherlands.
p73
aV[Vandenbussche, Filip; Van Der Straeten, Dominique] Univ Ghent, Dept Physiol, Lab Funct Plant Biol, B-9000 Ghent, Belgium.
p74
asS'publisherAddress'
p75
V15501 MONONA DRIVE, ROCKVILLE, MD 20855 USA
p76
sS'ER'
p77
V
sS'publisher'
p78
VAMER SOC PLANT BIOLOGISTS
p79
sS'authorKeywords'
p80
(lp81
VMEMBRANE H+-ATPASE
p82
aVAUXIN RESPONSE
p83
aVTEMPORAL RESOLUTION
p84
aVEXPRESSION PATTERNS
p85
aVFUSICOCCIN BINDING
p86
aVEXTRACELLULAR PH
p87
aVWALL EXTENSION
p88
aVPOLLEN TUBES
p89
aVCORN ROOTS
p90
aVGROWTH
p91
asS'language'
p92
VEnglish
p93
sS'wosid'
p94
VWOS:000289095500051
p95
sS'citationCount'
p96
I50
sS'authors_init'
p97
(lp98
(VSTAAL
VM
tp99
a(VDE CNODDER
VT
tp100
a(VSIMON
VD
tp101
a(VVANDENBUSSCHE
VF
tp102
a(VVAN DER STRAETEN
VD
tp103
a(VVERBELEN
VJ P
tp104
a(VELZENGA
VT
tp105
a(VVISSENBERG
VK
tp106
asS'citedReferences'
p107
(lp108
g1
(g2
g3
NtRp109
(dp110
g66
V10.1104/pp.111.1.9
p111
sg62
VPLANT PHYSIOL
p112
sg64
V111
p113
sg97
(lp114
(VABEL
VS
tp115
asg24
I1996
sg60
VLANT
p116
sbag1
(g2
g3
NtRp117
(dp118
g66
V10.1093/pcp/pch136
p119
sg62
VPLANT CELL PHYSIOL
p120
sg64
V45
p121
sg97
(lp122
(VALSTERFJORD
VM
tp123
asg24
I2004
sg60
VLANT
p124
sbag1
(g2
g3
NtRp125
(dp126
g66
Nsg62
VPLANT PHYSIOL
p127
sg64
V112
p128
sg97
(lp129
(VBALUSKA
VF
tp130
asg24
I1996
sg60
VLANT
p131
sbag1
(g2
g3
NtRp132
(dp133
g66
V10.1046/j.1365-313X.1998.00083.x
p134
sg62
VPLANT J
p135
sg64
V13
p136
sg97
(lp137
(VBAUNSGAARD
VL
tp138
asg24
I1998
sg60
VLANT
p139
sbag1
(g2
g3
NtRp140
(dp141
g66
V10.1007/s11103-006-0021-z
p142
sg62
VPLANT MOL BIOL
p143
sg64
V61
p144
sg97
(lp145
(VBECNEL
VJ
tp146
asg24
I2006
sg60
VLANT
p147
sbag1
(g2
g3
NtRp148
(dp149
g66
V10.1104/pp.116.4.1515
p150
sg62
VPLANT PHYSIOL
p151
sg64
V116
p152
sg97
(lp153
(VBEEMSTER
VG T S
tp154
asg24
I1998
sg60
VLANT
p155
sbag1
(g2
g3
NtRp156
(dp157
g66
V10.1126/science.273.5277.948
p158
sg62
VSCIENCE
p159
sg64
V273
p160
sg97
(lp161
(VBENNETT
VM J
tp162
asg24
I1996
sg60
V948
p163
sbag1
(g2
g3
NtRp164
(dp165
g66
V10.1126/science.1090022
p166
sg62
VSCIENCE
p167
sg64
V302
p168
sg97
(lp169
(VBIRNBAUM
VK
tp170
asg24
I2003
sg60
V1956
p171
sbag1
(g2
g3
NtRp172
(dp173
g66
V10.1126/science.1146265
p174
sg62
VSCIENCE
p175
sg64
V318
p176
sg97
(lp177
(VBRADY
VS M
tp178
asg24
I2007
sg60
V801
p179
sbag1
(g2
g3
NtRp180
(dp181
g66
V10.1006/anbo.2000.1298
p182
sg62
VANN BOT
p183
sg64
V87
p184
sg97
(lp185
(VCLINE
VM G
tp186
asg24
I2001
sg60
V61
p187
sbag1
(g2
g3
NtRp188
(dp189
g66
V10.1038/35030000
p190
sg62
VNATURE
p191
sg64
V407
p192
sg97
(lp193
(VCOSGROVE
VD J
tp194
asg24
I2000
sg60
V321
p195
sbag1
(g2
g3
NtRp196
(dp197
g66
V10.1111/j.1469-8137.2005.01540.x
p198
sg62
VNEW PHYTOL
p199
sg64
V168
p200
sg97
(lp201
(VDE
VCNODDER T
tp202
asg24
I2005
sg60
V541
p203
sbag1
(g2
g3
NtRp204
(dp205
g66
V10.1104/pp.104.041426
p206
sg62
VPLANT PHYSIOL
p207
sg64
V135
p208
sg97
(lp209
(VFAN
VL
tp210
asg24
I2004
sg60
VLANT
p211
sbag1
(g2
g3
NtRp212
(dp213
g66
V10.1093/jexbot/49.323.987
p214
sg62
VJ EXP BOT
p215
sg64
V49
p216
sg97
(lp217
(VFELLE
VH H
tp218
asg24
I1998
sg60
V987
p219
sbag1
(g2
g3
NtRp220
(dp221
g66
V10.1093/jxb/erg004
p222
sg62
VJ EXP BOT
p223
sg64
V54
p224
sg97
(lp225
(VHOLDAWAY-CLARKE
VT L
tp226
asg24
I2003
sg60
V65
p227
sbag1
(g2
g3
NtRp228
(dp229
g66
V10.1242/dev.00659
p230
sg62
VDEVELOPMENT
p231
sg64
V130
p232
sg97
(lp233
(VKNOX
VK
tp234
asg24
I2003
sg60
V5769
p235
sbag1
(g2
g3
NtRp236
(dp237
g66
V10.1104/pp.125.2.519
p238
sg62
VPLANT PHYSIOL
p239
sg64
V125
p240
sg97
(lp241
(VLE
VJ
tp242
asg24
I2001
sg60
VLANT
p243
sbag1
(g2
g3
NtRp244
(dp245
g66
V10.1046/j.1365-313x.1996.10030403.x
p246
sg62
VPLANT J
p247
sg64
V10
p248
sg97
(lp249
(VLEYSER
VH M O
tp250
asg24
I1996
sg60
VLANT
p251
sbag1
(g2
g3
NtRp252
(dp253
g66
Nsg62
VAnn
p254
sg64
V10
p255
sg97
(lp256
(VLUNDEGARDH
VH
tp257
asg24
I1942
sg60
V31
p258
sbag1
(g2
g3
NtRp259
(dp260
g66
Nsg62
VJ EXP BOT
p261
sg64
V62
p262
sg97
(lp263
(VMARIS
VA
tp264
asg24
I2010
sg60
V261
p265
sbag1
(g2
g3
NtRp266
(dp267
g66
V10.1093/jxb/erp229
p268
sg62
VJ EXP BOT
p269
sg64
V60
p270
sg97
(lp271
(VMARIS
VA
tp272
asg24
I2009
sg60
V3959
p273
sbag1
(g2
g3
NtRp274
(dp275
g66
Nsg62
VPLANT CELL
p276
sg64
V4
sg97
(lp277
(VMCQUEENMASON
VS
tp278
asg24
I1992
sg60
VLANT
p279
sbag1
(g2
g3
NtRp280
(dp281
g66
V10.1007/s00497-008-0076-x
p282
sg62
VSEX PLANT REPROD
p283
sg64
V21
p284
sg97
(lp285
(VMICHARD
VE
tp286
asg24
I2008
sg60
V169
p287
sbag1
(g2
g3
NtRp288
(dp289
g66
V10.1111/j.1365-3040.1996.tb00019.x
p290
sg62
VPLANT CELL ENVIRON
p291
sg64
V19
p292
sg97
(lp293
(VMONSHAUSEN
VG B
tp294
asg24
I1996
sg60
VLANT
p295
sbag1
(g2
g3
NtRp296
(dp297
g66
V10.1073/pnas.0708586104
p298
sg62
VP NATL ACAD SCI USA
p299
sg64
V104
p300
sg97
(lp301
(VMONSHAUSEN
VG B
tp302
asg24
I2007
sg60
V20996
p303
sbag1
(g2
g3
NtRp304
(dp305
g66
V10.1046/j.1365-3040.2001.00661.x
p306
sg62
VPLANT CELL ENVIRON
p307
sg64
V24
p308
sg97
(lp309
(VNEWMAN
VI A
tp310
asg24
I2001
sg60
VLANT
p311
sbag1
(g2
g3
NtRp312
(dp313
g66
V10.1104/pp.116.2.529
p314
sg62
VPLANT PHYSIOL
p315
sg64
V116
p316
sg97
(lp317
(VOLIVARI
VC
tp318
asg24
I1998
sg60
VLANT
p319
sbag1
(g2
g3
NtRp320
(dp321
g66
V10.1146/annurev.arplant.52.1.817
p322
sg62
VANNU REV PLANT PHYS
p323
sg64
V52
p324
sg97
(lp325
(VPALMGREN
VM G
tp326
asg24
I2001
sg60
V817
p327
sbag1
(g2
g3
NtRp328
(dp329
g66
V10.1104/pp.121.3.905
p330
sg62
VPLANT PHYSIOL
p331
sg64
V121
p332
sg97
(lp333
(VPETERS
VW S
tp334
asg24
I1999
sg60
VLANT
p335
sbag1
(g2
g3
NtRp336
(dp337
g66
V10.1111/j.1469-8137.2004.01085.x
p338
sg62
VNEW PHYTOL
p339
sg64
V162
p340
sg97
(lp341
(VPETERS
VW S
tp342
asg24
I2004
sg60
V571
p343
sbag1
(g2
g3
NtRp344
(dp345
g66
V10.1104/pp.46.2.250
p346
sg62
VPLANT PHYSIOL
p347
sg64
V46
p348
sg97
(lp349
(VRAYLE
VD
tp350
asg24
I1970
sg60
VLANT
p351
sbag1
(g2
g3
NtRp352
(dp353
g66
V10.1104/pp.99.4.1271
p354
sg62
VPLANT PHYSIOL
p355
sg64
V99
p356
sg97
(lp357
(VRAYLE
VD L
tp358
asg24
I1992
sg60
VLANT
p359
sbag1
(g2
g3
NtRp360
(dp361
g66
V10.1126/science.279.5355.1371
p362
sg62
VSCIENCE
p363
sg64
V279
p364
sg97
(lp365
(VROUSE
VD
tp366
asg24
I1998
sg60
V1371
p367
sbag1
(g2
g3
NtRp368
(dp369
g66
V10.1105/tpc.107.052126
p370
sg62
VPLANT CELL
p371
sg64
V19
p372
sg97
(lp373
(VRUZICKA
VK
tp374
asg24
I2007
sg60
VLANT
p375
sbag1
(g2
g3
NtRp376
(dp377
g66
V[10.1199/tab.0071, DOI 10.1199/TAB.0071]
p378
sg62
VARABIDOPSIS BOOK
p379
sg64
V1
sg97
(lp380
(VSCHALLER
VG E
tp381
asg24
I2002
sg60
Ve0071
p382
sbag1
(g2
g3
NtRp383
(dp384
g66
V10.1023/A:1026198927712
p385
sg62
VPLANT SOIL
p386
sg64
V255
p387
sg97
(lp388
(VSHABALA
VS
tp389
asg24
I2003
sg60
VLANT
p390
sbag1
(g2
g3
NtRp391
(dp392
g66
V10.1071/PP01130
p393
sg62
VFUNCT PLANT BIOL
p394
sg64
V29
p395
sg97
(lp396
(VSHABALA
VS
tp397
asg24
I2002
sg60
V595
p398
sbag1
(g2
g3
NtRp399
(dp400
g66
Nsg62
VPLANT PHYSIOL
p401
sg64
V113
p402
sg97
(lp403
(VSHABALA
VS N
tp404
asg24
I1997
sg60
VLANT
p405
sbag1
(g2
g3
NtRp406
(dp407
g66
V10.1007/s002329900313
p408
sg62
VJ MEMBRANE BIOL
p409
sg64
V161
p410
sg97
(lp411
(VSHABALA
VS N
tp412
asg24
I1998
sg60
V45
p413
sbag1
(g2
g3
NtRp414
(dp415
g66
V10.1105/tpc.105.033365
p416
sg62
VPLANT CELL
p417
sg64
V17
p418
sg97
(lp419
(VSTEPANOVA
VA N
tp420
asg24
I2005
sg60
VLANT
p421
sbag1
(g2
g3
NtRp422
(dp423
g66
V10.1105/tpc.107.052100
p424
sg62
VPLANT CELL
p425
sg64
V19
p426
sg97
(lp427
(VSWARUP
VR
tp428
asg24
I2007
sg60
VLANT
p429
sbag1
(g2
g3
NtRp430
(dp431
g66
V10.1105/tpc.11.4.677
p432
sg62
VPLANT CELL
p433
sg64
V11
p434
sg97
(lp435
(VSZE
VH
tp436
asg24
I1999
sg60
VLANT
p437
sbag1
(g2
g3
NtRp438
(dp439
g66
V10.1146/annurev.arplant.47.1.595
p440
sg62
VANNU REV PLANT PHYS
p441
sg64
V47
p442
sg97
(lp443
(VTANNER
VW
tp444
asg24
I1996
sg60
V595
p445
sbag1
(g2
g3
NtRp446
(dp447
g66
Nsg62
VGENETICS
p448
sg64
V138
p449
sg97
(lp450
(VTIMPTE
VC
tp451
asg24
I1994
sg60
V1239
p452
sbag1
(g2
g3
NtRp453
(dp454
g66
V10.1104/pp.103.021345
p455
sg62
VPLANT PHYSIOL
p456
sg64
V132
p457
sg97
(lp458
(VVAN
VD E R WEELE C M
tp459
asg24
I2003
sg60
VLANT
p460
sbag1
(g2
g3
NtRp461
(dp462
g66
V10.1093/aob/mcm248
p463
sg62
VANN BOT
p464
sg64
V100
p465
sg97
(lp466
(VVAN
VSANDT V S T
tp467
asg24
I2007
sg60
V1467
p468
sbag1
(g2
g3
NtRp469
(dp470
g66
V10.4161/psb.1.6.3511
p471
sg62
VPlant Signal Behav
p472
sg64
V1
sg97
(lp473
(VVERBELEN
VJEANPIERRE
tp474
asg24
I2006
sg60
Vlant
p475
sbag1
(g2
g3
NtRp476
(dp477
g66
V10.1093/pcp/pci013
p478
sg62
VPLANT CELL PHYSIOL
p479
sg64
V46
p480
sg97
(lp481
(VVISSENBERG
VK
tp482
asg24
I2005
sg60
VLANT
p483
sbag1
(g2
g3
NtRp484
(dp485
g66
V10.1007/BF00633843
p486
sg62
VMOL GEN GENET
p487
sg64
V222
p488
sg97
(lp489
(VWILSON
VA K
tp490
asg24
I1990
sg60
V377
p491
sbag1
(g2
g3
NtRp492
(dp493
g66
V10.1093/jexbot/49.323.1005
p494
sg62
VJ EXP BOT
p495
sg64
V49
p496
sg97
(lp497
(VWU
VJ L
tp498
asg24
I1998
sg60
V1005
p499
sbasb.