ccopy_reg
_reconstructor
p1
(ctethne.classes.paper
Paper
p2
c__builtin__
object
p3
NtRp4
(dp5
S'publisherCity'
p6
VROCKVILLE
p7
sS'reprintAddress'
p8
VPlomion, C (reprint author), INRA, Equipe Genet & Ameliorat Arbres Forestiers, BP45, F-33610 Pierroton, France.
p9
sS'WC'
p10
VPlant Sciences
p11
sS'GA'
p12
V334YD
p13
sS'abstract'
p14
VWhen a conifer shoot is displaced from its vertical position, compression wood (CW) is formed on the under side and can eventually return the shoot to its original position. Changes in cell wall structure and chemistry associated with CW are likely to result from differential gene/protein expression. Two-dimensional polyacrylamide gel electrophoresis of differentiating xylem proteins was combined with the physical characterization of wooden samples to identify and characterize CW-responsive proteins. Differentiating xylem was harvested from a 22-year-old crooked maritime pine (Pinus pinaster Ait.) tree. Protein extracted from different samples were revealed by high-resolution silver stained two-dimensional polyacrylamide gel electrophoresis and analyzed with a computer assisted system for single spot quantification. Growth strain (GS) measurements allowed xylem samples to be classified quantitatively from normal wood to CW. Regression of lignin and cellulose content on GS showed that an increase in the percentage of lignin and a decrease of the percentage of cellulose corresponded to increasing GS values, i.e. CW. Of the 137 studied spots, 19% were significantly associated with GS effect. Up-regulated proteins included 1-aminocyclopropane-1-carboxylate oxidase (an ethylene forming enzyme), a putative transcription factor, two lignification genes (caffeic O-methyltransferase and caffeoyl CoA-O-methyltransferase), members of the S-adenasyl-L-methionine-synthase gene family, and enzymes involved in nitrogen and carbon assimilation (glutamine synthetase and fructokinase). A clustered correlation analysis was performed to study simultaneously protein expression along a gradient of gravistimulated stressed xylem tissue. Proteins were found to form "expression clusters" that could identify: (a) Gene product under similar control mechanisms, (b) partner proteins, or (c) functional groups corresponding to specialized pathways. The possibility of obtaining regulatory correlations and anticorrelations between proteins provide us with a new category of homology (regulatory homology) in tracing functional relationships.
p15
sS'pageEnd'
p16
I969
sS'publisherAddress'
p17
V15501 MONONA DRIVE, ROCKVILLE, MD 20855 USA
p18
sS'documentType'
p19
VArticle
p20
sS'subject'
p21
VPlant Sciences
p22
sS'isoSource'
p23
VPlant Physiol.
p24
sS'timesCited'
p25
(lp26
I58
aVZ9 71
p27
asS'PT'
p28
VJ
sS'title'
p29
VCompression Wood-Responsive Proteins In Developing Xylem Of Maritime Pine (Pinus Pinaster Ait.)
p30
sS'ISSN'
p31
(lp32
V0032-0889
p33
aVJ9 PLANT PHYSIOL
p34
asS'authors_full'
p35
(lp36
(VPLOMION
VC
tp37
a(VPIONNEAU
VC
tp38
a(VBRACH
VJ
tp39
a(VCOSTA
VP
tp40
a(VBAILLERES
VH
tp41
asS'PG'
p42
I11
sS'PD'
p43
VJUL
p44
sS'pageStart'
p45
I959
sS'issue'
p46
I3
sS'journal'
p47
VPLANT PHYSIOLOGY
p48
sS'volume'
p49
V123
p50
sS'doi'
p51
V10.1104/pp.123.3.959
p52
sS'authorAddress'
p53
(lp54
VINRA, Equipe Genet & Ameliorat Arbres Forestiers, F-33610 Pierroton, France.
p55
aVCtr Cooperat Int Rech Agron Dev Foret, Programme Bois, F-34032 Montpellier 01, France.
p56
asS'date'
p57
I2000
sS'ER'
p58
V
sS'publisher'
p59
VAMER SOC PLANT PHYSIOLOGISTS
p60
sS'authorKeywords'
p61
(lp62
V2-DIMENSIONAL ELECTROPHORESIS
p63
aVARABIDOPSIS-THALIANA
p64
aVCHEMICAL-COMPOSITION
p65
aVLIGNIN BIOSYNTHESIS
p66
aVROOTED CUTTINGS
p67
aVGROWTH STRAINS
p68
aVMESSENGER-RNA
p69
aVETHYLENE
p70
aVEXPRESSION
p71
aVACID
p72
asS'language'
p73
VEnglish
p74
sS'wosid'
p75
VWOS:000088213300018
p76
sS'citationCount'
p77
I71
sS'authors_init'
p78
(lp79
(VPLOMION
VC
tp80
a(VPIONNEAU
VC
tp81
a(VBRACH
VJ
tp82
a(VCOSTA
VP
tp83
a(VBAILLERES
VH
tp84
asS'citedReferences'
p85
(lp86
g1
(g2
g3
NtRp87
(dp88
g51
Nsg47
VETHYLENE PLANT BIOL
p89
sg49
Nsg78
(lp90
(VABELES
VF B
tp91
asg57
I1992
sg45
Nsbag1
(g2
g3
NtRp92
(dp93
g51
V10.1073/pnas.95.16.9693
p94
sg47
VP NATL ACAD SCI USA
p95
sg49
V95
p96
sg78
(lp97
(VALLONA
VI
tp98
asg57
I1998
sg45
V9693
p99
sbag1
(g2
g3
NtRp100
(dp101
g51
V10.1002/elps.1150180333
p102
sg47
VELECTROPHORESIS
p103
sg49
V18
p104
sg78
(lp105
(VANDERSON
VL
tp106
asg57
I1997
sg45
V533
p107
sbag1
(g2
g3
NtRp108
(dp109
g51
V10.1002/elps.1150191103
p110
sg47
VELECTROPHORESIS
p111
sg49
V19
p112
sg78
(lp113
(VANDERSON
VN L
tp114
asg57
I1998
sg45
V1853
p115
sbag1
(g2
g3
NtRp116
(dp117
g51
V10.1002/elps.1150181506
p118
sg47
VELECTROPHORESIS
p119
sg49
V18
p120
sg78
(lp121
(VAPPEL
VR D
tp122
asg57
I1997
sg45
V2724
p123
sbag1
(g2
g3
NtRp124
(dp125
g51
Nsg47
VSPRINGER VERLAG SERI
p126
sg49
Nsg78
(lp127
(VARCHER
VR R
tp128
asg57
I1986
sg45
Nsbag1
(g2
g3
NtRp129
(dp130
g51
V10.1051/forest:19970301
p131
sg47
VANN SCI FOREST
p132
sg49
V54
p133
sg78
(lp134
(VBAHRMAN
VN
tp135
asg57
I1997
sg45
V225
p136
sbag1
(g2
g3
NtRp137
(dp138
g51
V10.1051/forest:19950206
p139
sg47
VANN SCI FOREST
p140
sg49
V52
p141
sg78
(lp142
(VBAILLERES
VH
tp143
asg57
I1995
sg45
V157
p144
sbag1
(g2
g3
NtRp145
(dp146
g51
Nsg47
VAmelioration des especes vegetales cultivees
p147
sg49
Nsg78
(lp148
(VBARADAT
VP
tp149
asg57
I1992
sg45
V695
p150
sbag1
(g2
g3
NtRp151
(dp152
g51
Nsg47
VNEW ZEAL J FOR SCI
p153
sg49
V9
sg78
(lp154
(VBARKER
VJ E
tp155
asg57
I1979
sg45
V15
p156
sbag1
(g2
g3
NtRp157
(dp158
g51
V10.1007/BF00385443
p159
sg47
VPLANTA
p160
sg49
V148
p161
sg78
(lp162
(VBLAKE
VT J
tp163
asg57
I1980
sg45
VLANTA
p164
sbag1
(g2
g3
NtRp165
(dp166
g51
V10.1104/pp.118.3.725
p167
sg47
VPLANT PHYSIOL
p168
sg49
V118
p169
sg78
(lp170
(VBOUCHEZ
VD
tp171
asg57
I1998
sg45
VLANT
p172
sbag1
(g2
g3
NtRp173
(dp174
g51
V10.1002/elps.11501401170
p175
sg47
VELECTROPHORESIS
p176
sg49
V14
p177
sg78
(lp178
(VBURSTIN
VJ
tp179
asg57
I1993
sg45
V1067
p180
sbag1
(g2
g3
NtRp181
(dp182
g51
V10.1104/pp.120.2.343
p183
sg47
VPLANT PHYSIOL
p184
sg49
V120
p185
sg78
(lp186
(VCHEN
VR J
tp187
asg57
I1999
sg45
VLANT
p188
sbag1
(g2
g3
NtRp189
(dp190
g51
Nsg47
V4 COLL SCI IND BOIS
p191
sg49
Nsg78
(lp192
(VCOMBES
VJ G
tp193
asg57
I1996
sg45
V75
p194
sbag1
(g2
g3
NtRp195
(dp196
g51
V10.1139/x94-050
p197
sg47
VCAN J FOREST RES
p198
sg49
V24
p199
sg78
(lp200
(VCORNELIUS
VJ
tp201
asg57
I1994
sg45
V372
p202
sbag1
(g2
g3
NtRp203
(dp204
g51
Nsg47
VSILVAE GENET
p205
sg49
V48
p206
sg78
(lp207
(VCOSTA
VP
tp208
asg57
I1999
sg45
V146
p209
sbag1
(g2
g3
NtRp210
(dp211
g51
V10.1023/A:1006006132120
p212
sg47
VPLANT MOL BIOL
p213
sg49
V38
p214
sg78
(lp215
(VCOSTA
VP
tp216
asg57
I1998
sg45
VLANT
p217
sbag1
(g2
g3
NtRp218
(dp219
g51
V10.1002/(SICI)1522-2683(19990101)20:4/5<1098::AID-ELPS1098>3.3.CO;2-Q
p220
sg47
VELECTROPHORESIS
p221
sg49
V20
p222
sg78
(lp223
(VCOSTA
VP
tp224
asg57
I1999
sg45
V1098
p225
sbag1
(g2
g3
NtRp226
(dp227
g51
V10.1002/elps.11501501226
p228
sg47
VELECTROPHORESIS
p229
sg49
V15
p230
sg78
(lp231
(VDAMERVAL
VC
tp232
asg57
I1994
sg45
V1573
p233
sbag1
(g2
g3
NtRp234
(dp235
g51
V10.1002/elps.1150080308
p236
sg47
VELECTROPHORESIS
p237
sg49
V8
sg78
(lp238
(VDAMERVAL
VC
tp239
asg57
I1987
sg45
V158
p240
sbag1
(g2
g3
NtRp241
(dp242
g51
Nsg47
VGENETICS
p243
sg49
V137
p244
sg78
(lp245
(VDAMERVAL
VC
tp246
asg57
I1994
sg45
V289
p247
sbag1
(g2
g3
NtRp248
(dp249
g51
Nsg47
VTAPPI
p250
sg49
V60
p251
sg78
(lp252
(VEFFLAND
VM J
tp253
asg57
I1977
sg45
V143
p254
sbag1
(g2
g3
NtRp255
(dp256
g51
V10.1093/jexbot/50.338.1489
p257
sg47
VJ EXP BOT
p258
sg49
V50
p259
sg78
(lp260
(VEKLUND
VL
tp261
asg57
I1999
sg45
V1489
p262
sbag1
(g2
g3
NtRp263
(dp264
g51
V10.1051/forest:19940305
p265
sg47
VANN SCI FOREST
p266
sg49
V51
p267
sg78
(lp268
(VFOURNIER
VM
tp269
asg57
I1994
sg45
V249
p270
sbag1
(g2
g3
NtRp271
(dp272
g51
Nsg47
VBiomimetics
p273
sg49
V2
sg78
(lp274
(VFOURNIER
VMERIEM
tp275
asg57
I1994
sg45
V229
p276
sbag1
(g2
g3
NtRp277
(dp278
g51
V10.1146/annurev.arplant.47.1.299
p279
sg47
VANNU REV PLANT PHYS
p280
sg49
V47
p281
sg78
(lp282
(VFUKUDA
VH
tp283
asg57
I1996
sg45
V299
p284
sbag1
(g2
g3
NtRp285
(dp286
g51
Nsg47
VIN PRESS MOL BREED
p287
sg49
Nsg78
(lp288
(VGION
VJ M
tp289
asg57
I2000
sg45
Nsbag1
(g2
g3
NtRp290
(dp291
g51
Nsg47
VMOL CELL BIOL
p292
sg49
V19
p293
sg78
(lp294
(VGYGI
VS P
tp295
asg57
I1999
sg45
V1720
p296
sbag1
(g2
g3
NtRp297
(dp298
g51
V10.1002/elps.1150191104
p299
sg47
VELECTROPHORESIS
p300
sg49
V19
p301
sg78
(lp302
(VHAYNES
VP A
tp303
asg57
I1998
sg45
V1862
p304
sbag1
(g2
g3
NtRp305
(dp306
g51
V10.1002/elps.1150180804
p307
sg47
VELECTROPHORESIS
p308
sg49
V18
p309
sg78
(lp310
(VHUMPHERYSMITH
VI
tp311
asg57
I1997
sg45
V1217
p312
sbag1
(g2
g3
NtRp313
(dp314
g51
V10.1104/pp.117.3.761
p315
sg47
VPLANT PHYSIOL
p316
sg49
V117
p317
sg78
(lp318
(VINOUE
VK
tp319
asg57
I1998
sg45
VLANT
p320
sbag1
(g2
g3
NtRp321
(dp322
g51
Nsg47
VBIOSCIENCE
p323
sg49
V30
p324
sg78
(lp325
(VJAFFE
VM J
tp326
asg57
I1980
sg45
V237
p327
sbag1
(g2
g3
NtRp328
(dp329
g51
Nsg47
VPLANT HORMONES
p330
sg49
Nsg78
(lp331
(VKAUFMAN
VF B
tp332
asg57
I1995
sg45
VLANT
p333
sbag1
(g2
g3
NtRp334
(dp335
g51
V10.1146/annurev.pp.44.060193.001435
p336
sg47
VANNU REV PLANT PHYS
p337
sg49
V44
p338
sg78
(lp339
(VKENDE
VH
tp340
asg57
I1993
sg45
V283
p341
sbag1
(g2
g3
NtRp342
(dp343
g51
Nsg47
VHUMANGENETIK
p344
sg49
V26
p345
sg78
(lp346
(VKLOSE
VJ
tp347
asg57
I1975
sg45
V231
p348
sbag1
(g2
g3
NtRp349
(dp350
g51
Nsg47
VANNU REV PLANT PHYS
p351
sg49
V48
p352
sg78
(lp353
(VKRIEBER
VJ J
tp354
asg57
I1997
sg45
V277
p355
sbag1
(g2
g3
NtRp356
(dp357
g51
V10.1007/BF00388263
p358
sg47
VPLANTA
p359
sg49
V152
p360
sg78
(lp361
(VKUTSUKI
VH
tp362
asg57
I1981
sg45
VLANTA
p363
sbag1
(g2
g3
NtRp364
(dp365
g51
V10.1023/A:1009654300686
p366
sg47
VMOL BREEDING
p367
sg49
V4
sg78
(lp368
(VLEMIEUX
VB
tp369
asg57
I1998
sg45
V277
p370
sbag1
(g2
g3
NtRp371
(dp372
g51
Nsg47
VELECTROPHORESIS
p373
sg49
V18
p374
sg78
(lp375
(VLI
VG
tp376
asg57
I1997
sg45
V382
p377
sbag1
(g2
g3
NtRp378
(dp379
g51
Nsg47
VTREE PHYSIOL
p380
sg49
V6
sg78
(lp381
(VLITTLE
VC H A
tp382
asg57
I1990
sg45
V177
p383
sbag1
(g2
g3
NtRp384
(dp385
g51
Nsg47
VP281
p386
sg49
Nsg78
(lp387
(VLITTLE
VC H ANTHONY
tp388
asg57
I1995
sg45
V281
p389
sbag1
(g2
g3
NtRp390
(dp391
g51
V10.1007/s004680050230
p392
sg47
VTREES
p393
sg49
V13
p394
sg78
(lp395
(VLITTLE
VC H A
tp396
asg57
I1999
sg45
V173
p397
sbag1
(g2
g3
NtRp398
(dp399
g51
V10.1104/pp.75.4.1165
p400
sg47
VPLANT PHYSIOL
p401
sg49
V75
p402
sg78
(lp403
(VMILLER
VA R
tp404
asg57
I1984
sg45
VLANT
p405
sbag1
(g2
g3
NtRp406
(dp407
g51
V10.1002/elps.1150180351
p408
sg47
VELECTROPHORESIS
p409
sg49
V18
p410
sg78
(lp411
(VMYERS
VT G
tp412
asg57
I1997
sg45
V647
p413
sbag1
(g2
g3
NtRp414
(dp415
g51
Nsg47
VJ BIOL CHEM
p416
sg49
V250
p417
sg78
(lp418
(VOFARRELL
VP H
tp419
asg57
I1975
sg45
V4007
p420
sbag1
(g2
g3
NtRp421
(dp422
g51
Nsg47
VPLANT CELL
p423
sg49
V1
sg78
(lp424
(VPELEMAN
VJ
tp425
asg57
I1989
sg45
VLANT
p426
sbag1
(g2
g3
NtRp427
(dp428
g51
V10.1002/elps.1150180131
p429
sg47
VELECTROPHORESIS
p430
sg49
V18
p431
sg78
(lp432
(VPICARD
VP
tp433
asg57
I1997
sg45
V174
p434
sbag1
(g2
g3
NtRp435
(dp436
g51
V10.1023/A:1009635226412
p437
sg47
VMOL BREEDING
p438
sg49
V5
sg78
(lp439
(VPLOMION
VC
tp440
asg57
I1999
sg45
V21
p441
sbag1
(g2
g3
NtRp442
(dp443
g51
V10.1038/hdy.1995.90
p444
sg47
VHEREDITY
p445
sg49
V74
p446
sg78
(lp447
(VPLOMION
VC
tp448
asg57
I1995
sg45
V661
p449
sbag1
(g2
g3
NtRp450
(dp451
g51
Nsg47
VTHESIS MICHIGAN TECH
p452
sg49
Nsg78
(lp453
(VPOPKO
VJ L
tp454
asg57
I1993
sg45
Nsbag1
(g2
g3
NtRp455
(dp456
g51
V10.1104/pp.71.2.434
p457
sg47
VPLANT PHYSIOL
p458
sg49
V71
p459
sg78
(lp460
(VSAVIDGE
VR A
tp461
asg57
I1983
sg45
VLANT
p462
sbag1
(g2
g3
NtRp463
(dp464
g51
Nsg47
VWOOD STRUCTURE COMPO
p465
sg49
V11
p466
sg78
(lp467
(VSCHNIEWIND
VA P
tp468
asg57
I1991
sg45
V435
p469
sbag1
(g2
g3
NtRp470
(dp471
g51
Nsg47
VIAWA BULL
p472
sg49
V7
sg78
(lp473
(VSTARBUCK
VC J
tp474
asg57
I1986
sg45
V13
p475
sbag1
(g2
g3
NtRp476
(dp477
g51
V10.1111/j.1399-3054.1983.tb02303.x
p478
sg47
VPHYSIOL PLANTARUM
p479
sg49
V57
p480
sg78
(lp481
(VSTARBUCK
VC J
tp482
asg57
I1983
sg45
VHYSIOL
p483
sbag1
(g2
g3
NtRp484
(dp485
g51
V10.1073/pnas.95.22.13330
p486
sg47
VP NATL ACAD SCI USA
p487
sg49
V95
p488
sg78
(lp489
(VSTERKY
VF
tp490
asg57
I1998
sg45
V13330
p491
sbag1
(g2
g3
NtRp492
(dp493
g51
Nsg47
VWOOD SCI TECHNOL
p494
sg49
V27
p495
sg78
(lp496
(VSUGIYAMA
VK
tp497
asg57
I1993
sg45
V257
p498
sbag1
(g2
g3
NtRp499
(dp500
g51
Nsg47
VPLANT PHYSIOL
p501
sg49
V106
p502
sg78
(lp503
(VSUNDBERG
VB
tp504
asg57
I1994
sg45
VLANT
p505
sbag1
(g2
g3
NtRp506
(dp507
g51
V10.1111/j.1399-3054.1986.tb02413.x
p508
sg47
VPHYSIOL PLANTARUM
p509
sg49
V66
p510
sg78
(lp511
(VTELEWSKI
VF W
tp512
asg57
I1986
sg45
VHYSIOL
p513
sbag1
(g2
g3
NtRp514
(dp515
g51
V10.1002/(SICI)1522-2683(19990701)20:10<2013::AID-ELPS2013>3.0.CO;2-#
p516
sg47
VELECTROPHORESIS
p517
sg49
V20
p518
sg78
(lp519
(VTHIELLEMENT
VH
tp520
asg57
I1999
sg45
V2013
p521
sbag1
(g2
g3
NtRp522
(dp523
g51
Nsg47
VCOMPRESSION WOOD GYM
p524
sg49
Nsg78
(lp525
(VTIMELL
VT E
tp526
asg57
I1986
sg45
Nsbag1
(g2
g3
NtRp527
(dp528
g51
Nsg47
VPLANT CELL PHYSIOL
p529
sg49
V37
p530
sg78
(lp531
(VVANDERMIJNSBRUGGE
VK
tp532
asg57
I1996
sg45
VLANT
p533
sbag1
(g2
g3
NtRp534
(dp535
g51
V10.1139/g96-132
p536
sg47
VGENOME
p537
sg49
V39
p538
sg78
(lp539
(VVERHAEGEN
VD
tp540
asg57
I1996
sg45
V1051
p541
sbag1
(g2
g3
NtRp542
(dp543
g51
V10.1002/elps.1150181508
p544
sg47
VELECTROPHORESIS
p545
sg49
V18
p546
sg78
(lp547
(VVOHRADSKY
VJ
tp548
asg57
I1997
sg45
V2749
p549
sbag1
(g2
g3
NtRp550
(dp551
g51
Nsg47
VPLANT CELL
p552
sg49
V7
sg78
(lp553
(VWHETTEN
VR
tp554
asg57
I1995
sg45
VLANT
p555
sbag1
(g2
g3
NtRp556
(dp557
g51
Nsg47
VPROTEOME RES NEW FRO
p558
sg49
Nsg78
(lp559
(VWILKINS
VM R
tp560
asg57
I1997
sg45
VROTEOME
p561
sbag1
(g2
g3
NtRp562
(dp563
g51
Nsg47
VWOOD SCI TECHNOL
p564
sg49
V14
p565
sg78
(lp566
(VYAMAGUCHI
VK
tp567
asg57
I1980
sg45
V181
p568
sbag1
(g2
g3
NtRp569
(dp570
g51
V10.1105/tpc.6.10.1427
p571
sg47
VPLANT CELL
p572
sg49
V6
sg78
(lp573
(VYE
VZ H
tp574
asg57
I1994
sg45
VLANT
p575
sbag1
(g2
g3
NtRp576
(dp577
g51
V10.1104/pp.113.1.65
p578
sg47
VPLANT PHYSIOL
p579
sg49
V113
p580
sg78
(lp581
(VZHANG
VX H
tp582
asg57
I1997
sg45
VLANT
p583
sbag1
(g2
g3
NtRp584
(dp585
g51
Nsg47
VWOOD VARIATION ITS C
p586
sg49
Nsg78
(lp587
(VZOBEL
VB J
tp588
asg57
I1989
sg45
Nsbag1
(g2
g3
NtRp589
(dp590
g51
Nsg47
VGENETICS WOOD PRODUC
p591
sg49
Nsg78
(lp592
(VZOBEL
VB J
tp593
asg57
I1995
sg45
Nsbasb.