ccopy_reg
_reconstructor
p1
(ctethne.classes.paper
Paper
p2
c__builtin__
object
p3
NtRp4
(dp5
S'publisherCity'
p6
VROCKVILLE
p7
sS'reprintAddress'
p8
VBoss, WF (reprint author), N Carolina State Univ, Dept Bot, Raleigh, NC 27695 USA.
p9
sS'WC'
p10
VPlant Sciences
p11
sS'GA'
p12
V462HC
p13
sS'abstract'
p14
VDuring the stationary phase of growth, after 7 to 12 d in culture, the levels of phosphatidylinositol 4,5-bisphosphate (PtdInsP(2)) decreased by 75% in plasma membranes of the red alga Galdieria sulphuraria. Concomitant with the decrease in PtdInsP(2). levels in plasma membranes, there was an increase in PtdInsP(2) in microsomes, suggesting that the levels of plasma membrane PtdInsP(2) are regulated differentially. The decline of PtdInsP(2) in plasma membranes was accompanied by a 70% decrease in the specific activity of PtdInsP kinase and by reduced levels of protein cross-reacting with antisera against a conserved PtdInsP kinase domain. Upon osmotic stimulation, the loss of PtdInsP(2) from the plasma membrane increased from 10% in 7-d-old cells to 60% in 12-d-old cells, although the levels of inositol 1,4,5-trisphosphate (InsP(3)) produced in whole cells were roughly equal at both times. When cells with low plasma membrane PtdInsP(2). levels were osmotically stimulated, a mild osmotic stress (12.5 mm KCl) activated PtdInsP kinase prior to InsP(3) production, whereas in cells with high plasma membrane PtdInsP(2), more severe stress (250 mm KCI) was required to induce an increase in PtdInsP kinase activity. The differential regulation of a plasma membrane signaling pool of PtdInsP(2) is discussed with regard to the implications for understanding the responsive state of cells.
p15
sS'pageEnd'
p16
I1518
sS'publisherAddress'
p17
V15501 MONONA DRIVE, ROCKVILLE, MD 20855 USA
p18
sS'documentType'
p19
VArticle
p20
sS'subject'
p21
VPlant Sciences
p22
sS'isoSource'
p23
VPlant Physiol.
p24
sS'timesCited'
p25
(lp26
I27
aVZ9 30
p27
asS'PT'
p28
VJ
sS'title'
p29
VPlasma Membrane Phosphatidylinositol 4,5-Bisphosphate Levels Decrease With Time In Culture
p30
sS'ISSN'
p31
(lp32
V0032-0889
p33
aVJ9 PLANT PHYSIOL
p34
asS'authors_full'
p35
(lp36
(VHEILMANN
VI
tp37
a(VPERERA
VIY
tp38
a(VGROSS
VW
tp39
a(VBOSS
VWF
tp40
asS'PG'
p41
I12
sS'PD'
p42
VAUG
p43
sS'pageStart'
p44
I1507
sS'issue'
p45
I4
sS'journal'
p46
VPLANT PHYSIOLOGY
p47
sS'volume'
p48
V126
p49
sS'doi'
p50
V10.1104/pp.126.4.1507
p51
sS'emailAddress'
p52
Vwendy_boss@ncsu.edu
p53
sS'authorAddress'
p54
(lp55
VN Carolina State Univ, Dept Bot, Raleigh, NC 27695 USA.
p56
aVFree Univ Berlin, Inst Biol Pflanzenphysiol, D-1000 Berlin, Germany.
p57
asS'date'
p58
I2001
sS'ER'
p59
V
sS'publisher'
p60
VAMER SOC PLANT BIOLOGISTS
p61
sS'authorKeywords'
p62
(lp63
VALGA GALDIERIA-SULPHURARIA
p64
aVTRANSFER PROTEIN
p65
aVARABIDOPSIS-THALIANA
p66
aVPHOSPHOLIPASE-C
p67
aVBINDING-PROTEIN
p68
aVPLANT-CELLS
p69
aVINOSITOL 1,4,5-TRISPHOSPHATE
p70
aVNUCLEOTIDE SENSITIVITY
p71
aVLIVING CELLS
p72
aVIN-VIVO
p73
asS'language'
p74
VEnglish
p75
sS'wosid'
p76
VWOS:000170413800018
p77
sS'citationCount'
p78
I66
sS'authors_init'
p79
(lp80
(VHEILMANN
VI
tp81
a(VPERERA
VI Y
tp82
a(VGROSS
VW
tp83
a(VBOSS
VW F
tp84
asS'citedReferences'
p85
(lp86
g1
(g2
g3
NtRp87
(dp88
g50
V10.1074/jbc.274.15.9907
p89
sg46
VJ BIOL CHEM
p90
sg48
V274
p91
sg79
(lp92
(VANDERSON
VR A
tp93
asg58
I1999
sg44
V9907
p94
sbag1
(g2
g3
NtRp95
(dp96
g50
Nsg46
VPLANT PHYSIOL
p97
sg48
V110
p98
sg79
(lp99
(VASKERLUND
VP
tp100
asg58
I1996
sg44
VLANT
p101
sbag1
(g2
g3
NtRp102
(dp103
g50
Nsg46
VJ BIOL CHEM
p104
sg48
V272
p105
sg79
(lp106
(VAUETHAVEKIAT
VV
tp107
asg58
I1997
sg44
V1786
p108
sbag1
(g2
g3
NtRp109
(dp110
g50
V10.1016/S0165-6147(00)01500-5
p111
sg46
VTRENDS PHARMACOL SCI
p112
sg48
V21
p113
sg79
(lp114
(VBALLA
VT
tp115
asg58
I2000
sg44
V238
p116
sbag1
(g2
g3
NtRp117
(dp118
g50
Nsg46
VPHYSIOL PLANTARUM
p119
sg48
V90
p120
sg79
(lp121
(VBOROCHOV
VA
tp122
asg58
I1994
sg44
VHYSIOL
p123
sbag1
(g2
g3
NtRp124
(dp125
g50
V10.1105/tpc.12.9.1679
p126
sg46
VPLANT CELL
p127
sg48
V12
p128
sg79
(lp129
(VBUNNEY
VT D
tp130
asg58
I2000
sg44
VLANT
p131
sbag1
(g2
g3
NtRp132
(dp133
g50
Nsg46
VMETHODS PLANT CELL A
p134
sg48
Nsg79
(lp135
(VCHO
VM H
tp136
asg58
I1995
sg44
V543
p137
sbag1
(g2
g3
NtRp138
(dp139
g50
Nsg46
VLC GC
p140
sg48
V10
p141
sg79
(lp142
(VCHO
VM H
tp143
asg58
I1992
sg44
V464
p144
sbag1
(g2
g3
NtRp145
(dp146
g50
V10.1042/0264-6021:3460587
p147
sg46
VBIOCHEM J
p148
sg48
V346
p149
sg79
(lp150
(VCIRUELA
VA
tp151
asg58
I2000
sg44
V587
p152
sbag1
(g2
g3
NtRp153
(dp154
g50
V10.1016/S0960-9822(95)00154-0
p155
sg46
VCURR BIOL
p156
sg48
V5
sg79
(lp157
(VCUNNINGHAM
VE
tp158
asg58
I1995
sg44
V775
p159
sbag1
(g2
g3
NtRp160
(dp161
g50
V10.1073/pnas.94.14.7679
p162
sg46
VP NATL ACAD SCI USA
p163
sg48
V94
p164
sg79
(lp165
(VDHUGGA
VK S
tp166
asg58
I1997
sg44
V7679
p167
sbag1
(g2
g3
NtRp168
(dp169
g50
V10.1038/36613
p170
sg46
VNATURE
p171
sg48
V390
p172
sg79
(lp173
(VDOVE
VS K
tp174
asg58
I1997
sg44
V187
p175
sbag1
(g2
g3
NtRp176
(dp177
g50
V10.1016/S0074-7696(08)61386-8
p178
sg46
VINT REV CYTOL
p179
sg48
V189
p180
sg79
(lp181
(VDROBAK
VB K
tp182
asg58
I1999
sg44
V95
p183
sbag1
(g2
g3
NtRp184
(dp185
g50
V10.1046/j.1365-313X.1994.06030389.x
p186
sg46
VPLANT J
p187
sg48
V6
sg79
(lp188
(VDROBAK
VB K
tp189
asg58
I1994
sg44
VLANT
p190
sbag1
(g2
g3
NtRp191
(dp192
g50
V10.1083/jcb.107.2.529
p193
sg46
VJ CELL BIOL
p194
sg48
V107
p195
sg79
(lp196
(VEINSPAHR
VK J
tp197
asg58
I1988
sg44
V529
p198
sbag1
(g2
g3
NtRp199
(dp200
g50
V10.1016/0168-9452(87)90071-9
p201
sg46
VPLANT SCI
p202
sg48
V50
p203
sg79
(lp204
(VFALKENAU
VC
tp205
asg58
I1987
sg44
VLANT
p206
sbag1
(g2
g3
NtRp207
(dp208
g50
V10.1105/tpc.3.5.483
p209
sg46
VPLANT CELL
p210
sg48
V3
sg79
(lp211
(VFONTES
VE B P
tp212
asg58
I1991
sg44
VLANT
p213
sbag1
(g2
g3
NtRp214
(dp215
g50
V10.1017/S0967026297001467
p216
sg46
VEUR J PHYCOL
p217
sg48
V33
p218
sg79
(lp219
(VGROSS
VW
tp220
asg58
I1998
sg44
V25
p221
sbag1
(g2
g3
NtRp222
(dp223
g50
Nsg46
VPLANT CELL PHYSIOL
p224
sg48
V36
p225
sg79
(lp226
(VGROSS
VW
tp227
asg58
I1995
sg44
VLANT
p228
sbag1
(g2
g3
NtRp229
(dp230
g50
Nsg46
VJ BIOL CHEM
p231
sg48
V274
p232
sg79
(lp233
(VHAMA
VH
tp234
asg58
I1999
sg44
V34292
p235
sbag1
(g2
g3
NtRp236
(dp237
g50
V10.1006/meth.2000.0959
p238
sg46
VMETHODS
p239
sg48
V20
p240
sg79
(lp241
(VHAMA
VH
tp242
asg58
I2000
sg44
V465
p243
sbag1
(g2
g3
NtRp244
(dp245
g50
Nsg46
VPLANT TOLERANCE ABIO
p246
sg48
Nsg79
(lp247
(VHEILMANN
VI
tp248
asg58
I2000
sg44
VLANT
p249
sbag1
(g2
g3
NtRp250
(dp251
g50
V10.1104/pp.119.4.1331
p252
sg46
VPLANT PHYSIOL
p253
sg48
V119
p254
sg79
(lp255
(VHEILMANN
VI
tp256
asg58
I1999
sg44
VLANT
p257
sbag1
(g2
g3
NtRp258
(dp259
g50
V10.1016/0006-291X(86)90374-8
p260
sg46
VBIOCHEM BIOPH RES CO
p261
sg48
V134
p262
sg79
(lp263
(VHEIM
VS
tp264
asg58
I1986
sg44
V1175
p265
sbag1
(g2
g3
NtRp266
(dp267
g50
Nsg46
VBIOCHEM SOC T
p268
sg48
V27
p269
sg79
(lp270
(VHINCHLIFFE
VK A
tp271
asg58
I1999
sg44
V657
p272
sbag1
(g2
g3
NtRp273
(dp274
g50
Nsg46
VEMBO J
p275
sg48
V15
p276
sg79
(lp277
(VHINCHLIFFE
VK A
tp278
asg58
I1996
sg44
V6516
p279
sbag1
(g2
g3
NtRp280
(dp281
g50
V10.1016/S0960-9822(99)80429-1
p282
sg46
VCURR BIOL
p283
sg48
V9
sg79
(lp284
(VHINCHLIFFE
VK A
tp285
asg58
I1999
sg44
V983
p286
sbag1
(g2
g3
NtRp287
(dp288
g50
V10.1016/S0005-2760(98)00140-4
p289
sg46
VBBA
p290
sg48
V1436
p291
sg79
(lp292
(VHINCHLIFFE
VK A
tp293
asg58
I1998
sg44
V87
p294
sbag1
(g2
g3
NtRp295
(dp296
g50
V10.1073/pnas.92.9.3903
p297
sg46
VP NATL ACAD SCI USA
p298
sg48
V92
p299
sg79
(lp300
(VHIRAYAMA
VT
tp301
asg58
I1995
sg44
V3903
p302
sbag1
(g2
g3
NtRp303
(dp304
g50
V10.1074/jbc.M000925200
p305
sg46
VJ BIOL CHEM
p306
sg48
V275
p307
sg79
(lp308
(VHOLZ
VR W
tp309
asg58
I2000
sg44
V17878
p310
sbag1
(g2
g3
NtRp311
(dp312
g50
V10.1074/jbc.273.32.20292
p313
sg46
VJ BIOL CHEM
p314
sg48
V273
p315
sg79
(lp316
(VITOH
VT
tp317
asg58
I1998
sg44
V20292
p318
sbag1
(g2
g3
NtRp319
(dp320
g50
V10.1016/S0009-3084(99)00058-4
p321
sg46
VCHEM PHYS LIPIDS
p322
sg48
V101
p323
sg79
(lp324
(VJANMEY
VP A
tp325
asg58
I1999
sg44
V93
p326
sbag1
(g2
g3
NtRp327
(dp328
g50
Nsg46
VANNU REV PHYSIOL
p329
sg48
V56
p330
sg79
(lp331
(VJANMEY
VP A
tp332
asg58
I1994
sg44
V169
p333
sbag1
(g2
g3
NtRp334
(dp335
g50
V10.1074/jbc.C901019199
p336
sg46
VJ BIOL CHEM
p337
sg48
V275
p338
sg79
(lp339
(VJONES
VD H
tp340
asg58
I2000
sg44
V13962
p341
sbag1
(g2
g3
NtRp342
(dp343
g50
V10.1126/science.7761838
p344
sg46
VSCIENCE
p345
sg48
V268
p346
sg79
(lp347
(VKAUFFMANNZEH
VA
tp348
asg58
I1995
sg44
V1188
p349
sbag1
(g2
g3
NtRp350
(dp351
g50
V10.1093/emboj/17.14.4004
p352
sg46
VEMBO J
p353
sg48
V17
p354
sg79
(lp355
(VKEARNS
VM A
tp356
asg58
I1998
sg44
V4004
p357
sbag1
(g2
g3
NtRp358
(dp359
g50
V10.1083/jcb.145.2.317
p360
sg46
VJ CELL BIOL
p361
sg48
V145
p362
sg79
(lp363
(VKOST
VB
tp364
asg58
I1999
sg44
V317
p365
sbag1
(g2
g3
NtRp366
(dp367
g50
VDOI 10.1038/227680A0
p368
sg46
VNATURE
p369
sg48
V224
p370
sg79
(lp371
(VLAEMMLI
VU K
tp372
asg58
I1970
sg44
V680
p373
sbag1
(g2
g3
NtRp374
(dp375
g50
V10.1016/0014-5793(90)80197-Q
p376
sg46
VFEBS LETT
p377
sg48
V262
p378
sg79
(lp379
(VLASSING
VI
tp380
asg58
I1990
sg44
V231
p381
sbag1
(g2
g3
NtRp382
(dp383
g50
Nsg46
VMOL BIOL CELL
p384
sg48
V10
p385
sg79
(lp386
(VLEE
VT H
tp387
asg58
I1999
sg44
V1445
p388
sbag1
(g2
g3
NtRp389
(dp390
g50
V10.1016/S0960-9822(99)80116-X
p391
sg46
VCURR BIOL
p392
sg48
V9
sg79
(lp393
(VLOCKYER
VP J
tp394
asg58
I1999
sg44
V265
p395
sbag1
(g2
g3
NtRp396
(dp397
g50
Nsg46
VPLANTA
p398
sg48
V208
p399
sg79
(lp400
(VMEIJER
VH J G
tp401
asg58
I1999
sg44
VLANTA
p402
sbag1
(g2
g3
NtRp403
(dp404
g50
V10.1016/0006-291X(89)90814-0
p405
sg46
VBIOCHEM BIOPH RES CO
p406
sg48
V162
p407
sg79
(lp408
(VMEMON
VA R
tp409
asg58
I1989
sg44
V1295
p410
sbag1
(g2
g3
NtRp411
(dp412
g50
Nsg46
VGiornale Botanico Italiano
p413
sg48
V115
p414
sg79
(lp415
(VMEROLA
VA
tp416
asg58
I1981
sg44
V189
p417
sbag1
(g2
g3
NtRp418
(dp419
g50
V10.1046/j.1365-313X.1998.00227.x
p420
sg46
VPLANT J
p421
sg48
V15
p422
sg79
(lp423
(VMIKAMI
VK
tp424
asg58
I1998
sg44
VLANT
p425
sbag1
(g2
g3
NtRp426
(dp427
g50
V10.1016/S0005-2760(97)00158-6
p428
sg46
VBBA
p429
sg48
V1389
p430
sg79
(lp431
(VMUNNIK
VT
tp432
asg58
I1998
sg44
V222
p433
sbag1
(g2
g3
NtRp434
(dp435
g50
V10.1104/pp.125.3.1499
p436
sg46
VPLANT PHYSIOL
p437
sg48
V125
p438
sg79
(lp439
(VPERERA
VI K
tp440
asg58
I2001
sg44
VLANT
p441
sbag1
(g2
g3
NtRp442
(dp443
g50
V10.1073/pnas.96.10.5838
p444
sg46
VP NATL ACAD SCI USA
p445
sg48
V96
p446
sg79
(lp447
(VPERERA
VI Y
tp448
asg58
I1999
sg44
V5838
p449
sbag1
(g2
g3
NtRp450
(dp451
g50
V10.1074/jbc.274.53.38232
p452
sg46
VJ BIOL CHEM
p453
sg48
V274
p454
sg79
(lp455
(VPICAL
VC
tp456
asg58
I1999
sg44
V38232
p457
sbag1
(g2
g3
NtRp458
(dp459
g50
Nsg46
VPLANT BIOL
p460
sg48
V9
sg79
(lp461
(VSANDELIUS
VA S
tp462
asg58
I1990
sg44
VLANT
p463
sbag1
(g2
g3
NtRp464
(dp465
g50
Nsg46
VPLANT PHYSIOL
p466
sg48
V115
p467
sg79
(lp468
(VSATTERLEE
VJ S
tp469
asg58
I1997
sg44
VLANT
p470
sbag1
(g2
g3
NtRp471
(dp472
g50
Nsg46
VJ BIOL CHEM
p473
sg48
V272
p474
sg79
(lp475
(VSHIBASAKI
VY
tp476
asg58
I1997
sg44
V7578
p477
sbag1
(g2
g3
NtRp478
(dp479
g50
V10.1073/pnas.97.2.937
p480
sg46
VP NATL ACAD SCI USA
p481
sg48
V97
p482
sg79
(lp483
(VSHYNG
VS L
tp484
asg58
I2000
sg44
V937
p485
sbag1
(g2
g3
NtRp486
(dp487
g50
V10.1126/science.282.5391.1138
p488
sg46
VSCIENCE
p489
sg48
V282
p490
sg79
(lp491
(VSHYNG
VS L
tp492
asg58
I1998
sg44
V1138
p493
sbag1
(g2
g3
NtRp494
(dp495
g50
Nsg46
VJ GEN MICROBIOL
p496
sg48
V79
p497
sg79
(lp498
(VSMITH
VD W
tp499
asg58
I1973
sg44
V219
p500
sbag1
(g2
g3
NtRp501
(dp502
g50
Nsg46
VJ CELL SCI
p503
sg48
V113
p504
sg79
(lp505
(VSPEED
VC J
tp506
asg58
I2000
sg44
V2631
p507
sbag1
(g2
g3
NtRp508
(dp509
g50
V10.1016/S1360-1385(97)86350-9
p510
sg46
VTRENDS PLANT SCI
p511
sg48
V2
sg79
(lp512
(VSTAIGER
VC J
tp513
asg58
I1997
sg44
V275
p514
sbag1
(g2
g3
NtRp515
(dp516
g50
V10.1016/S1360-1385(00)01652-6
p517
sg46
VTRENDS PLANT SCI
p518
sg48
V5
sg79
(lp519
(VSTEVENSON
VJ M
tp520
asg58
I2000
sg44
V252
p521
sbag1
(g2
g3
NtRp522
(dp523
g50
Nsg46
VJ BIOL CHEM
p524
sg48
V202
p525
sg79
(lp526
(VTAUSSKY
VH H
tp527
asg58
I1953
sg44
V675
p528
sbag1
(g2
g3
NtRp529
(dp530
g50
V10.1016/S0955-0674(98)80148-8
p531
sg46
VCURR OPIN CELL BIOL
p532
sg48
V10
p533
sg79
(lp534
(VTOKER
VA
tp535
asg58
I1998
sg44
V254
p536
sbag1
(g2
g3
NtRp537
(dp538
g50
V10.1046/j.1432-1327.1999.00464.x
p539
sg46
VEUR J BIOCHEM
p540
sg48
V263
p541
sg79
(lp542
(VTUOMINEN
VE K J
tp543
asg58
I1999
sg44
V85
p544
sbag1
(g2
g3
NtRp545
(dp546
g50
Nsg46
VJ BIOL CHEM
p547
sg48
V274
p548
sg79
(lp549
(VVANCUROVA
VI
tp550
asg58
I1999
sg44
V1177
p551
sbag1
(g2
g3
NtRp552
(dp553
g50
V10.1083/jcb.143.2.501
p554
sg46
VJ CELL BIOL
p555
sg48
V143
p556
sg79
(lp557
(VVARNAI
VP
tp558
asg58
I1998
sg44
V501
p559
sbag1
(g2
g3
NtRp560
(dp561
g50
V10.1074/jbc.274.16.10983
p562
sg46
VJ BIOL CHEM
p563
sg48
V274
p564
sg79
(lp565
(VVARNAI
VP
tp566
asg58
I1999
sg44
V10983
p567
sbag1
(g2
g3
NtRp568
(dp569
g50
V10.1104/pp.85.2.389
p570
sg46
VPLANT PHYSIOL
p571
sg48
V85
p572
sg79
(lp573
(VWHEELER
VJ J
tp574
asg58
I1987
sg44
VLANT
p575
sbag1
(g2
g3
NtRp576
(dp577
g50
Nsg46
VBIOCHEM J
p578
sg48
V324
p579
sg79
(lp580
(VWIRTZ
VK W A
tp581
asg58
I1997
sg44
V353
p582
sbasb.