ccopy_reg
_reconstructor
p1
(ctethne.classes.paper
Paper
p2
c__builtin__
object
p3
NtRp4
(dp5
S'publisherCity'
p6
VROCKVILLE
p7
sS'reprintAddress'
p8
VNielsen, E (reprint author), Washington Univ, Dept Biol, Campus Box 1137,1 Brookings Dr, St Louis, MO 63130 USA.
p9
sS'WC'
p10
VPlant Sciences
p11
sS'GA'
p12
V717FM
p13
sS'abstract'
p14
VSmall GTP-binding proteins regulate diverse processes in eukaryotic cells such as signal transduction, cell proliferation, cytoskeletal organization, and intracellular membrane trafficking. These proteins function as molecular switches that cycle between "active" and "inactive" states, and this cycle is linked to the binding and hydrolysis of GTP. The Arabidopsis genome contains 93 genes that encode small GTP-binding protein homologs. Phylogenetic analysis of these genes shows that plants contain Rab, Rho, Arf, and Ran GTPases, but no Ras GTPases. We have assembled complete lists of these small GTPases families, as well as accessory proteins that control their activity, and review what is known of the functions of individual members of these families in Arabidopsis. We also discuss the possible roles of these GTPases in relation to their similarity to orthologs with known functions and localizations in yeast and/or animal systems.
p15
sS'pageEnd'
p16
I1208
sS'date'
p17
I2003
sS'documentType'
p18
VReview
p19
sS'subject'
p20
VPlant Sciences
p21
sS'isoSource'
p22
VPlant Physiol.
p23
sS'timesCited'
p24
(lp25
I253
aVZ9 356
p26
asS'PT'
p27
VJ
sS'title'
p28
VAnalysis Of The Small Gtpase Gene Superfamily Of Arabidopsis
p29
sS'ISSN'
p30
(lp31
V0032-0889
p32
aVJ9 PLANT PHYSIOL
p33
asS'authors_full'
p34
(lp35
(VVERNOUD
VV
tp36
a(VHORTON
VAC
tp37
a(VYANG
VZB
tp38
a(VNIELSEN
VE
tp39
asS'PG'
p40
I18
sS'PD'
p41
VMAR
p42
sS'pageStart'
p43
I1191
sS'issue'
p44
I3
sS'RI'
p45
VNielsen, Erik/G-5843-2013
p46
sS'journal'
p47
VPLANT PHYSIOLOGY
p48
sS'volume'
p49
V131
p50
sS'doi'
p51
V10.1104/pp.013052
p52
sS'emailAddress'
p53
Venielsen@danforthcenter.org
p54
sS'authorAddress'
p55
(lp56
VWashington Univ, Dept Biol, St Louis, MO 63130 USA.
p57
aVUniv Calif Riverside, Ctr Plant Cell Biol, Riverside, CA 92521 USA.
p58
aVUniv Calif Riverside, Dept Bot & Plant Sci, Riverside, CA 92521 USA.
p59
aVDonald Danforth Plant Sci Ctr, St Louis, MO 63132 USA.
p60
asS'publisherAddress'
p61
V15501 MONONA DRIVE, ROCKVILLE, MD 20855 USA
p62
sS'ER'
p63
V
sS'publisher'
p64
VAMER SOC PLANT BIOLOGISTS
p65
sS'authorKeywords'
p66
(lp67
VGDP-DISSOCIATION INHIBITOR
p68
aVPLECKSTRIN-HOMOLOGY DOMAINS
p69
aVEARLY ENDOCYTIC PATHWAY
p70
aVNUCLEAR EXPORT SIGNALS
p71
aVGASTRIC PARIETAL-CELLS
p72
aVXENOPUS EGG EXTRACTS
p73
aVPOLLEN-TUBE GROWTH
p74
aVSMALL G-PROTEIN
p75
aVBINDING-PROTEIN
p76
aVROP GTPASE
p77
asS'language'
p78
VEnglish
p79
sS'wosid'
p80
VWOS:000185076100036
p81
sS'citationCount'
p82
I167
sS'authors_init'
p83
(lp84
(VVERNOUD
VV
tp85
a(VHORTON
VA C
tp86
a(VYANG
VZ B
tp87
a(VNIELSEN
VE
tp88
asS'citedReferences'
p89
(lp90
g1
(g2
g3
NtRp91
(dp92
g51
V10.1073/pnas.91.13.5863
p93
sg47
VP NATL ACAD SCI USA
p94
sg49
V91
p95
sg83
(lp96
(VACH
VR A
tp97
asg17
I1994
sg43
V5863
p98
sbag1
(g2
g3
NtRp99
(dp100
g51
V10.1083/jcb.111.1.131
p101
sg47
VJ CELL BIOL
p102
sg49
V111
p103
sg83
(lp104
(VADAMS
VA E M
tp105
asg17
I1990
sg43
V131
p106
sbag1
(g2
g3
NtRp107
(dp108
g51
V10.1093/emboj/18.19.5216
p109
sg47
VEMBO J
p110
sg49
V18
p111
sg83
(lp112
(VALBERT
VS
tp113
asg17
I1999
sg43
V5216
p114
sbag1
(g2
g3
NtRp115
(dp116
g51
Nsg47
VEMBO J
p117
sg49
V13
p118
sg83
(lp119
(VALEXANDROV
VK
tp120
asg17
I1994
sg43
V5262
p121
sbag1
(g2
g3
NtRp122
(dp123
g51
V10.1093/nar/25.17.3389
p124
sg47
VNUCLEIC ACIDS RES
p125
sg49
V25
p126
sg83
(lp127
(VALTSCHUL
VS F
tp128
asg17
I1997
sg43
V3389
p129
sbag1
(g2
g3
NtRp130
(dp131
g51
V10.1021/bi962252b
p132
sg47
VBIOCHEMISTRY
p133
sg49
V36
p134
sg83
(lp135
(VANTONNY
VB
tp136
asg17
I1997
sg43
V4675
p137
sbag1
(g2
g3
NtRp138
(dp139
g51
V10.1002/(SICI)1097-0029(19991001)47:1<51::AID-JEMT5>3.3.CO;2-V
p140
sg47
VMICROSC RES TECHNIQ
p141
sg49
V47
p142
sg83
(lp143
(VARELLANO
VM
tp144
asg17
I1999
sg43
V51
p145
sbag1
(g2
g3
NtRp146
(dp147
g51
Nsg47
VJ CELL SCI
p148
sg49
V112
p149
sg83
(lp150
(VBALGUERIE
VA
tp151
asg17
I1999
sg43
V2529
p152
sbag1
(g2
g3
NtRp153
(dp154
g51
V10.1146/annurev.biochem.56.1.779
p155
sg47
VANNU REV BIOCHEM
p156
sg49
V56
p157
sg83
(lp158
(VBARBACID
VM
tp159
asg17
I1987
sg43
V779
p160
sbag1
(g2
g3
NtRp161
(dp162
g51
V10.1016/0092-8674(94)90138-4
p163
sg47
VCELL
p164
sg49
V77
p165
sg83
(lp166
(VBARLOWE
VC
tp167
asg17
I1994
sg43
V895
p168
sbag1
(g2
g3
NtRp169
(dp170
g51
V10.3168/jds.S0022-0302(95)76903-X
p171
sg47
VJ DAIRY SCI
p172
sg49
V78
p173
sg83
(lp174
(VBARPELED
VU
tp175
asg17
I1995
sg43
V2726
p176
sbag1
(g2
g3
NtRp177
(dp178
g51
V10.1105/tpc.12.11.2201
p179
sg47
VPLANT CELL
p180
sg49
V12
p181
sg83
(lp182
(VBATOKO
VH
tp183
asg17
I2000
sg43
VLANT
p184
sbag1
(g2
g3
NtRp185
(dp186
g51
V10.1126/science.1071505
p187
sg47
VSCIENCE
p188
sg49
V296
p189
sg83
(lp190
(VBAXTER-BURRELL
VA
tp191
asg17
I2002
sg43
V2026
p192
sbag1
(g2
g3
NtRp193
(dp194
g51
V10.1104/pp.104.2.591
p195
sg47
VPLANT PHYSIOL
p196
sg49
V104
p197
sg83
(lp198
(VBEDNAREK
VS Y
tp199
asg17
I1994
sg43
VLANT
p200
sbag1
(g2
g3
NtRp201
(dp202
g51
Nsg47
VEMBO J
p203
sg49
V15
p204
sg83
(lp205
(VBENLI
VM
tp206
asg17
I1996
sg43
V6460
p207
sbag1
(g2
g3
NtRp208
(dp209
g51
V10.1023/A:1006341210147
p210
sg47
VPLANT MOL BIOL
p211
sg49
V42
p212
sg83
(lp213
(VBISCHOFF
VF
tp214
asg17
I2000
sg43
VLANT
p215
sbag1
(g2
g3
NtRp216
(dp217
g51
V10.1073/pnas.97.16.8836
p218
sg47
VP NATL ACAD SCI USA
p219
sg49
V97
p220
sg83
(lp221
(VBOGDANOVE
VA J
tp222
asg17
I2000
sg43
V8836
p223
sbag1
(g2
g3
NtRp224
(dp225
g51
V10.1038/366643a0
p226
sg47
VNATURE
p227
sg49
V366
p228
sg83
(lp229
(VBOGUSKI
VM S
tp230
asg17
I1993
sg43
V643
p231
sbag1
(g2
g3
NtRp232
(dp233
g51
V10.1023/A:1006449715236
p234
sg47
VPLANT MOL BIOL
p235
sg49
V42
p236
sg83
(lp237
(VBOLTE
VS
tp238
asg17
I2000
sg43
VLANT
p239
sbag1
(g2
g3
NtRp240
(dp241
g51
Nsg47
VJ CELL SCI
p242
sg49
V114
p243
sg83
(lp244
(VBOMAN
VA L
tp245
asg17
I2001
sg43
V3413
p246
sbag1
(g2
g3
NtRp247
(dp248
g51
V10.1016/0092-8674(92)90306-W
p249
sg47
VCELL
p250
sg49
V70
p251
sg83
(lp252
(VBUCCI
VC
tp253
asg17
I1992
sg43
V715
p254
sbag1
(g2
g3
NtRp255
(dp256
g51
Nsg47
VAM J PHYSIOL
p257
sg49
V275
p258
sg83
(lp259
(VCALHOUN
VB C
tp260
asg17
I1998
sg43
VC163
p261
sbag1
(g2
g3
NtRp262
(dp263
g51
Nsg47
VNATURE
p264
sg49
V400
p265
sg83
(lp266
(VCARAZO-SALAS
VR E
tp267
asg17
I1999
sg43
V178
p268
sbag1
(g2
g3
NtRp269
(dp270
g51
V10.1016/S0955-0674(96)80068-8
p271
sg47
VCURR OPIN CELL BIOL
p272
sg49
V8
sg83
(lp273
(VCERIONE
VR A
tp274
asg17
I1996
sg43
V216
p275
sbag1
(g2
g3
NtRp276
(dp277
g51
V10.1016/0092-8674(95)90363-1
p278
sg47
VCELL
p279
sg49
V81
p280
sg83
(lp281
(VCHANT
VJ
tp282
asg17
I1995
sg43
V1
sbag1
(g2
g3
NtRp283
(dp284
g51
V10.1038/384481a0
p285
sg47
VNATURE
p286
sg49
V384
p287
sg83
(lp288
(VCHARDIN
VP
tp289
asg17
I1996
sg43
V481
p290
sbag1
(g2
g3
NtRp291
(dp292
g51
V10.1016/S0955-0674(99)80067-2
p293
sg47
VCURR OPIN CELL BIOL
p294
sg49
V11
p295
sg83
(lp296
(VCHAVRIER
VP
tp297
asg17
I1999
sg43
V466
p298
sbag1
(g2
g3
NtRp299
(dp300
g51
V10.1105/tpc.000836
p301
sg47
VPLANT CELL
p302
sg49
V14
p303
sg83
(lp304
(VCHEUNG
VA Y
tp305
asg17
I2002
sg43
VLANT
p306
sbag1
(g2
g3
NtRp307
(dp308
g51
Nsg47
VNATURE
p309
sg49
V397
p310
sg83
(lp311
(VCHRISTOFORIDIS
VS
tp312
asg17
I1999
sg43
V621
p313
sbag1
(g2
g3
NtRp314
(dp315
g51
V10.1073/pnas.90.19.8952
p316
sg47
VP NATL ACAD SCI USA
p317
sg49
V90
p318
sg83
(lp319
(VCLARK
VJ
tp320
asg17
I1993
sg43
V8952
p321
sbag1
(g2
g3
NtRp322
(dp323
g51
V10.1016/S0962-8924(01)02071-2
p324
sg47
VTRENDS CELL BIOL
p325
sg49
V11
p326
sg83
(lp327
(VCLARKE
VP R
tp328
asg17
I2001
sg43
V366
p329
sbag1
(g2
g3
NtRp330
(dp331
g51
Nsg47
VPLANT PHYSIOL
p332
sg49
V113
p333
sg83
(lp334
(VCOLLINS
VC C
tp335
asg17
I1997
sg43
VLANT
p336
sbag1
(g2
g3
NtRp337
(dp338
g51
V10.1016/S0955-0674(97)80023-3
p339
sg47
VCURR OPIN CELL BIOL
p340
sg49
V9
sg83
(lp341
(VCOSSON
VP
tp342
asg17
I1997
sg43
V484
p343
sbag1
(g2
g3
NtRp344
(dp345
g51
V10.1093/emboj/18.7.1772
p346
sg47
VEMBO J
p347
sg49
V18
p348
sg83
(lp349
(VCUIF
VM H
tp350
asg17
I1999
sg43
V1772
p351
sbag1
(g2
g3
NtRp352
(dp353
g51
V10.1126/science.270.5244.1999
p354
sg47
VSCIENCE
p355
sg49
V270
p356
sg83
(lp357
(VCUKIERMAN
VE
tp358
asg17
I1995
sg43
V1999
p359
sbag1
(g2
g3
NtRp360
(dp361
g51
Nsg47
VEMBO J
p362
sg49
V11
p363
sg83
(lp364
(VDENFERT
VC
tp365
asg17
I1992
sg43
V4205
p366
sbag1
(g2
g3
NtRp367
(dp368
g51
V10.1073/pnas.97.8.3792
p369
sg47
VP NATL ACAD SCI USA
p370
sg49
V97
p371
sg83
(lp372
(VDONALDSON
VJ G
tp373
asg17
I2000
sg43
V3792
p374
sbag1
(g2
g3
NtRp375
(dp376
g51
V10.1016/S0955-0674(00)00119-8
p377
sg47
VCURR OPIN CELL BIOL
p378
sg49
V12
p379
sg83
(lp380
(VDONALDSON
VJ G
tp381
asg17
I2000
sg43
V475
p382
sbag1
(g2
g3
NtRp383
(dp384
g51
Nsg47
VAM J PHYSIOL
p385
sg49
V277
p386
sg83
(lp387
(VDUMAN
VJ G
tp388
asg17
I1999
sg43
VC361
p389
sbag1
(g2
g3
NtRp390
(dp391
g51
V10.1016/S0955-0674(00)00192-7
p392
sg47
VCURR OPIN CELL BIOL
p393
sg49
V13
p394
sg83
(lp395
(VERICKSON
VJ W
tp396
asg17
I2001
sg43
V153
p397
sbag1
(g2
g3
NtRp398
(dp399
g51
V10.1038/380595a0
p400
sg47
VNATURE
p401
sg49
V380
p402
sg83
(lp403
(VESSEN
VL O
tp404
asg17
I1996
sg43
V595
p405
sbag1
(g2
g3
NtRp406
(dp407
g51
V10.1083/jcb.131.6.1435
p408
sg47
VJ CELL BIOL
p409
sg49
V131
p410
sg83
(lp411
(VFENG
VY
tp412
asg17
I1995
sg43
V1435
p413
sbag1
(g2
g3
NtRp414
(dp415
g51
V10.1016/S0092-8674(00)80371-2
p416
sg47
VCELL
p417
sg49
V90
p418
sg83
(lp419
(VFORNEROD
VM
tp420
asg17
I1997
sg43
V1051
p421
sbag1
(g2
g3
NtRp422
(dp423
g51
Nsg47
VJ BIOL CHEM
p424
sg49
V270
p425
sg83
(lp426
(VFRANCO
VM
tp427
asg17
I1995
sg43
V1337
p428
sbag1
(g2
g3
NtRp429
(dp430
g51
V10.1016/S1360-1385(01)02130-6
p431
sg47
VTRENDS PLANT SCI
p432
sg49
V6
sg83
(lp433
(VFU
VY
tp434
asg17
I2001
sg43
V545
p435
sbag1
(g2
g3
NtRp436
(dp437
g51
V10.1083/jcb.152.5.1019
p438
sg47
VJ CELL BIOL
p439
sg49
V152
p440
sg83
(lp441
(VFU
VY
tp442
asg17
I2001
sg43
V1019
p443
sbag1
(g2
g3
NtRp444
(dp445
g51
V10.1083/jcb.136.4.789
p446
sg47
VJ CELL BIOL
p447
sg49
V136
p448
sg83
(lp449
(VGAYNOR
VE C
tp450
asg17
I1997
sg43
V789
p451
sbag1
(g2
g3
NtRp452
(dp453
g51
V10.1038/35096571
p454
sg47
VNATURE
p455
sg49
V413
p456
sg83
(lp457
(VGELDNER
VN
tp458
asg17
I2001
sg43
V425
p459
sbag1
(g2
g3
NtRp460
(dp461
g51
V10.1016/0092-8674(88)90093-1
p462
sg47
VCELL
p463
sg49
V53
p464
sg83
(lp465
(VGOUD
VB
tp466
asg17
I1988
sg43
V753
p467
sbag1
(g2
g3
NtRp468
(dp469
g51
V10.1046/j.1365-313X.1999.00644.x
p470
sg47
VPLANT J
p471
sg49
V20
p472
sg83
(lp473
(VHAASEN
VD
tp474
asg17
I1999
sg43
VLANT
p475
sbag1
(g2
g3
NtRp476
(dp477
g51
V10.1046/j.1365-313X.1997.11010093.x
p478
sg47
VPLANT J
p479
sg49
V11
p480
sg83
(lp481
(VHAIZEL
VT
tp482
asg17
I1997
sg43
VLANT
p483
sbag1
(g2
g3
NtRp484
(dp485
g51
V10.1126/science.279.5350.509
p486
sg47
VSCIENCE
p487
sg49
V279
p488
sg83
(lp489
(VHALL
VA
tp490
asg17
I1998
sg43
V509
p491
sbag1
(g2
g3
NtRp492
(dp493
g51
V10.1074/jbc.274.21.15284
p494
sg47
VJ BIOL CHEM
p495
sg49
V274
p496
sg83
(lp497
(VHAMA
VH
tp498
asg17
I1999
sg43
V15284
p499
sbag1
(g2
g3
NtRp500
(dp501
g51
V10.1093/jexbot/53.368.565
p502
sg47
VJ EXP BOT
p503
sg49
V53
p504
sg83
(lp505
(VHERAS
VB
tp506
asg17
I2002
sg43
V565
p507
sbag1
(g2
g3
NtRp508
(dp509
g51
V10.1016/S1097-2765(00)80266-X
p510
sg47
VMOL CELL
p511
sg49
V5
sg83
(lp512
(VHETZER
VM
tp513
asg17
I2000
sg43
V1013
p514
sbag1
(g2
g3
NtRp515
(dp516
g51
V10.1016/S0092-8674(00)81540-8
p517
sg47
VCELL
p518
sg49
V99
p519
sg83
(lp520
(VHONDA
VA
tp521
asg17
I1999
sg43
V521
p522
sbag1
(g2
g3
NtRp523
(dp524
g51
Nsg47
VEMBO J
p525
sg49
V13
p526
sg83
(lp527
(VHORAZDOVSKY
VB F
tp528
asg17
I1994
sg43
V1297
p529
sbag1
(g2
g3
NtRp530
(dp531
g51
V10.1016/S0092-8674(00)80380-3
p532
sg47
VCELL
p533
sg49
V90
p534
sg83
(lp535
(VHORIUCHI
VH
tp536
asg17
I1997
sg43
V1149
p537
sbag1
(g2
g3
NtRp538
(dp539
g51
V10.1083/jcb.123.1.47
p540
sg47
VJ CELL BIOL
p541
sg49
V123
p542
sg83
(lp543
(VHUBER
VL A
tp544
asg17
I1993
sg43
V47
p545
sbag1
(g2
g3
NtRp546
(dp547
g51
V10.1083/jcb.123.1.35
p548
sg47
VJ CELL BIOL
p549
sg49
V123
p550
sg83
(lp551
(VHUBER
VL A
tp552
asg17
I1993
sg43
V35
p553
sbag1
(g2
g3
NtRp554
(dp555
g51
V10.1074/jbc.M111491200
p556
sg47
VJ BIOL CHEM
p557
sg49
V277
p558
sg83
(lp559
(VINABA
VT
tp560
asg17
I2002
sg43
V9183
p561
sbag1
(g2
g3
NtRp562
(dp563
g51
V10.1093/emboj/19.17.4806
p564
sg47
VEMBO J
p565
sg49
V19
p566
sg83
(lp567
(VIWASAKI
VK
tp568
asg17
I2000
sg43
V4806
p569
sbag1
(g2
g3
NtRp570
(dp571
g51
V10.1083/jcb.137.1.27
p572
sg47
VJ CELL BIOL
p573
sg49
V137
p574
sg83
(lp575
(VIZAURRALDE
VE
tp576
asg17
I1997
sg43
V27
p577
sbag1
(g2
g3
NtRp578
(dp579
g51
V10.1083/jcb.137.3.563
p580
sg47
VJ CELL BIOL
p581
sg49
V137
p582
sg83
(lp583
(VJEDD
VG
tp584
asg17
I1997
sg43
V563
p585
sbag1
(g2
g3
NtRp586
(dp587
g51
V10.1042/0264-6021:3590165
p588
sg47
VBIOCHEM J
p589
sg49
V359
p590
sg83
(lp591
(VJENSEN
VR B
tp592
asg17
I2001
sg43
V165
p593
sbag1
(g2
g3
NtRp594
(dp595
g51
V10.1083/jcb.111.1.143
p596
sg47
VJ CELL BIOL
p597
sg49
V111
p598
sg83
(lp599
(VJOHNSON
VD I
tp600
asg17
I1990
sg43
V143
p601
sbag1
(g2
g3
NtRp602
(dp603
g51
Nsg47
VPLANT CELL
p604
sg49
V14
p605
sg83
(lp606
(VJONES
VM A
tp607
asg17
I2002
sg43
VLANT
p608
sbag1
(g2
g3
NtRp609
(dp610
g51
V10.1105/tpc.010359
p611
sg47
VPLANT CELL
p612
sg49
V14
p613
sg83
(lp614
(VJONES
VM A
tp615
asg17
I2002
sg43
VLANT
p616
sbag1
(g2
g3
NtRp617
(dp618
g51
Nsg47
VFASEB J
p619
sg49
V6
sg83
(lp620
(VKAHN
VR A
tp621
asg17
I1992
sg43
V2512
p622
sbag1
(g2
g3
NtRp623
(dp624
g51
V10.1146/annurev.biochem.68.1.459
p625
sg47
VANNU REV BIOCHEM
p626
sg49
V68
p627
sg83
(lp628
(VKAIBUCHI
VK
tp629
asg17
I1999
sg43
V459
p630
sbag1
(g2
g3
NtRp631
(dp632
g51
Nsg47
VCURR BIOL
p633
sg49
V9
sg83
(lp634
(VKALAB
VP
tp635
asg17
I1999
sg43
V481
p636
sbag1
(g2
g3
NtRp637
(dp638
g51
V10.1016/S0092-8674(01)00370-1
p639
sg47
VCELL
p640
sg49
V105
p641
sg83
(lp642
(VKANG
VJ G
tp643
asg17
I2001
sg43
V625
p644
sbag1
(g2
g3
NtRp645
(dp646
g51
V10.1073/pnas.96.19.10922
p647
sg47
VP NATL ACAD SCI USA
p648
sg49
V96
p649
sg83
(lp650
(VKAWASAKI
VT
tp651
asg17
I1999
sg43
V10922
p652
sbag1
(g2
g3
NtRp653
(dp654
g51
V10.1105/tpc.13.12.2619
p655
sg47
VPLANT CELL
p656
sg49
V13
p657
sg83
(lp658
(VKIM
VS H
tp659
asg17
I2001
sg43
VLANT
p660
sbag1
(g2
g3
NtRp661
(dp662
g51
V10.1007/s004250050663
p663
sg47
VPLANTA
p664
sg49
V210
p665
sg83
(lp666
(VKIM
VW Y
tp667
asg17
I1999
sg43
VLANTA
p668
sbag1
(g2
g3
NtRp669
(dp670
g51
V10.1038/35043117
p671
sg47
VNAT REV MOL CELL BIO
p672
sg49
V1
sg83
(lp673
(VKIRCHHAUSEN
VT
tp674
asg17
I2000
sg43
V187
p675
sbag1
(g2
g3
NtRp676
(dp677
g51
V10.1104/pp.005041
p678
sg47
VPLANT PHYSIOL
p679
sg49
V130
p680
sg83
(lp681
(VKLIEBENSTEIN
VD J
tp682
asg17
I2002
sg43
VLANT
p683
sbag1
(g2
g3
NtRp684
(dp685
g51
V10.1083/jcb.145.2.317
p686
sg47
VJ CELL BIOL
p687
sg49
V145
p688
sg83
(lp689
(VKOST
VB
tp690
asg17
I1999
sg43
V317
p691
sbag1
(g2
g3
NtRp692
(dp693
g51
Nsg47
VNATURE
p694
sg49
V408
p695
sg83
(lp696
(VLANZETTI
VL
tp697
asg17
I2000
sg43
V374
p698
sbag1
(g2
g3
NtRp699
(dp700
g51
V10.1016/S0968-0004(97)01150-X
p701
sg47
VTRENDS BIOCHEM SCI
p702
sg49
V22
p703
sg83
(lp704
(VLAZAR
VT
tp705
asg17
I1997
sg43
V468
p706
sbag1
(g2
g3
NtRp707
(dp708
g51
V10.1101/gad.900401
p709
sg47
VGENE DEV
p710
sg49
V15
p711
sg83
(lp712
(VLEMICHEZ
VE
tp713
asg17
I2001
sg43
V1808
p714
sbag1
(g2
g3
NtRp715
(dp716
g51
V10.1016/S0014-5793(01)03243-4
p717
sg47
VFEBS LETT
p718
sg49
V513
p719
sg83
(lp720
(VLEMMON
VM A
tp721
asg17
I2002
sg43
V71
p722
sbag1
(g2
g3
NtRp723
(dp724
g51
V10.1093/nar/30.1.242
p725
sg47
VNUCLEIC ACIDS RES
p726
sg49
V30
p727
sg83
(lp728
(VLETUNIC
VI
tp729
asg17
I2002
sg43
V242
p730
sbag1
(g2
g3
NtRp731
(dp732
g51
V10.1105/tpc.11.9.1731
p733
sg47
VPLANT CELL
p734
sg49
V11
p735
sg83
(lp736
(VLI
VH
tp737
asg17
I1999
sg43
VLANT
p738
sbag1
(g2
g3
NtRp739
(dp740
g51
V10.1104/pp.118.2.407
p741
sg47
VPLANT PHYSIOL
p742
sg49
V118
p743
sg83
(lp744
(VLI
VH
tp745
asg17
I1998
sg43
VLANT
p746
sbag1
(g2
g3
NtRp747
(dp748
g51
V10.1104/pp.126.2.670
p749
sg47
VPLANT PHYSIOL
p750
sg49
V126
p751
sg83
(lp752
(VLI
VH
tp753
asg17
I2001
sg43
VLANT
p754
sbag1
(g2
g3
NtRp755
(dp756
g51
V10.1105/tpc.13.8.1819
p757
sg47
VPLANT CELL
p758
sg49
V13
p759
sg83
(lp760
(VLU
VC G
tp761
asg17
I2001
sg43
VLANT
p762
sbag1
(g2
g3
NtRp763
(dp764
g51
V10.1083/jcb.118.2.467
p765
sg47
VJ CELL BIOL
p766
sg49
V118
p767
sg83
(lp768
(VLYNCH
VM A
tp769
asg17
I1992
sg43
V467
p770
sbag1
(g2
g3
NtRp771
(dp772
g51
V10.1083/jcb.138.4.913
p773
sg47
VJ CELL BIOL
p774
sg49
V138
p775
sg83
(lp776
(VMACHESKY
VL M
tp777
asg17
I1997
sg43
V913
p778
sbag1
(g2
g3
NtRp779
(dp780
g51
V10.1073/pnas.94.5.1828
p781
sg47
VP NATL ACAD SCI USA
p782
sg49
V94
p783
sg83
(lp784
(VMARTINEZ
VO
tp785
asg17
I1997
sg43
V1828
p786
sbag1
(g2
g3
NtRp787
(dp788
g51
V10.1038/353402a0
p789
sg47
VNATURE
p790
sg49
V353
p791
sg83
(lp792
(VMAYER
VU
tp793
asg17
I1991
sg43
V402
p794
sbag1
(g2
g3
NtRp795
(dp796
g51
Nsg47
VDEVELOPMENT
p797
sg49
V117
p798
sg83
(lp799
(VMAYER
VU
tp800
asg17
I1993
sg43
V149
p801
sbag1
(g2
g3
NtRp802
(dp803
g51
V10.1105/tpc.12.8.1379
p804
sg47
VPLANT CELL
p805
sg49
V12
p806
sg83
(lp807
(VMCELVER
VJ
tp808
asg17
I2000
sg43
VLANT
p809
sbag1
(g2
g3
NtRp810
(dp811
g51
V10.1046/j.1365-313X.1994.6040555.x
p812
sg47
VPLANT J
p813
sg49
V6
sg83
(lp814
(VMERKLE
VT
tp815
asg17
I1994
sg43
VLANT
p816
sbag1
(g2
g3
NtRp817
(dp818
g51
Nsg47
VTRENDS CELL BIOL
p819
sg49
V9
sg83
(lp820
(VMEYEROWITZ
VE M
tp821
asg17
I1999
sg43
V65
p822
sbag1
(g2
g3
NtRp823
(dp824
g51
V10.1126/science.1066609
p825
sg47
VSCIENCE
p826
sg49
V295
p827
sg83
(lp828
(VMEYEROWITZ
VE M
tp829
asg17
I2002
sg43
V1482
p830
sbag1
(g2
g3
NtRp831
(dp832
g51
V10.1093/emboj/20.11.2779
p833
sg47
VEMBO J
p834
sg49
V20
p835
sg83
(lp836
(VMOLENDIJK
VA J
tp837
asg17
I2001
sg43
V2779
p838
sbag1
(g2
g3
NtRp839
(dp840
g51
V10.1038/365661a0
p841
sg47
VNATURE
p842
sg49
V365
p843
sg83
(lp844
(VMOORE
VM S
tp845
asg17
I1993
sg43
V661
p846
sbag1
(g2
g3
NtRp847
(dp848
g51
V10.1074/jbc.273.36.22857
p849
sg47
VJ BIOL CHEM
p850
sg49
V273
p851
sg83
(lp852
(VMOORE
VM S
tp853
asg17
I1998
sg43
V22857
p854
sbag1
(g2
g3
NtRp855
(dp856
g51
V10.1074/jbc.273.34.21431
p857
sg47
VJ BIOL CHEM
p858
sg49
V273
p859
sg83
(lp860
(VMOSS
VJ
tp861
asg17
I1998
sg43
V21431
p862
sbag1
(g2
g3
NtRp863
(dp864
g51
V10.1074/jbc.272.20.13055
p865
sg47
VJ BIOL CHEM
p866
sg49
V272
p867
sg83
(lp868
(VMUKHOPADHYAY
VA
tp869
asg17
I1997
sg43
V13055
p870
sbag1
(g2
g3
NtRp871
(dp872
g51
V10.1074/jbc.273.38.24781
p873
sg47
VJ BIOL CHEM
p874
sg49
V273
p875
sg83
(lp876
(VNAGANO
VF
tp877
asg17
I1998
sg43
V24781
p878
sbag1
(g2
g3
NtRp879
(dp880
g51
V10.1073/pnas.92.14.6314
p881
sg47
VP NATL ACAD SCI USA
p882
sg49
V92
p883
sg83
(lp884
(VNAGANO
VY
tp885
asg17
I1995
sg43
V6314
p886
sbag1
(g2
g3
NtRp887
(dp888
g51
V10.1083/jcb.125.2.225
p889
sg47
VJ CELL BIOL
p890
sg49
V125
p891
sg83
(lp892
(VNUOFFER
VC
tp893
asg17
I1994
sg43
V225
p894
sbag1
(g2
g3
NtRp895
(dp896
g51
V10.1126/science.284.5418.1356
p897
sg47
VSCIENCE
p898
sg49
V284
p899
sg83
(lp900
(VOHBA
VT
tp901
asg17
I1999
sg43
V1356
p902
sbag1
(g2
g3
NtRp903
(dp904
g51
V10.1016/S0092-8674(00)81256-8
p905
sg47
VCELL
p906
sg49
V85
p907
sg83
(lp908
(VPARIS
VN
tp909
asg17
I1996
sg43
V563
p910
sbag1
(g2
g3
NtRp911
(dp912
g51
V10.1046/j.1365-313X.2002.01324.x
p913
sg47
VPLANT J
p914
sg49
V30
p915
sg83
(lp916
(VPAY
VA
tp917
asg17
I2002
sg43
VLANT
p918
sbag1
(g2
g3
NtRp919
(dp920
g51
V10.1006/jmbi.2000.4010
p921
sg47
VJ MOL BIOL
p922
sg49
V301
p923
sg83
(lp924
(VPEREIRA-LEAL
VJ B
tp925
asg17
I2000
sg43
V1077
p926
sbag1
(g2
g3
NtRp927
(dp928
g51
V10.1006/jmbi.5072
p929
sg47
VJ MOL BIOL
p930
sg49
V313
p931
sg83
(lp932
(VPEREIRA-LEAL
VJ B
tp933
asg17
I2001
sg43
V889
p934
sbag1
(g2
g3
NtRp935
(dp936
g51
V10.1093/emboj/18.3.555
p937
sg47
VEMBO J
p938
sg49
V18
p939
sg83
(lp940
(VPOON
VP P
tp941
asg17
I1999
sg43
V555
p942
sbag1
(g2
g3
NtRp943
(dp944
g51
V10.1083/jcb.148.6.1231
p945
sg47
VJ CELL BIOL
p946
sg49
V148
p947
sg83
(lp948
(VPRICE
VA
tp949
asg17
I2000
sg43
V1231
p950
sbag1
(g2
g3
NtRp951
(dp952
g51
V10.1073/pnas.070552297
p953
sg47
VP NATL ACAD SCI USA
p954
sg49
V97
p955
sg83
(lp956
(VRANDAZZO
VP A
tp957
asg17
I2000
sg43
V4011
p958
sbag1
(g2
g3
NtRp959
(dp960
g51
V10.1016/0014-5793(93)81201-A
p961
sg47
VFEBS LETT
p962
sg49
V316
p963
sg83
(lp964
(VREGAD
VF
tp965
asg17
I1993
sg43
V133
p966
sbag1
(g2
g3
NtRp967
(dp968
g51
Nsg47
VGTPASES
p969
sg49
Nsg83
(lp970
(VRIDLEY
VA J
tp971
asg17
I2000
sg43
V89
p972
sbag1
(g2
g3
NtRp973
(dp974
g51
V10.1016/S0960-9822(95)00140-0
p975
sg47
VCURR BIOL
p976
sg49
V5
sg83
(lp977
(VRIDLEY
VA J
tp978
asg17
I1995
sg43
V710
p979
sbag1
(g2
g3
NtRp980
(dp981
g51
V10.1105/tpc.010237
p982
sg47
VPLANT CELL
p983
sg49
V14
p984
sg83
(lp985
(VRITZENTHALER
VC
tp986
asg17
I2002
sg43
VLANT
p987
sbag1
(g2
g3
NtRp988
(dp989
g51
V10.1073/pnas.261459698
p990
sg47
VP NATL ACAD SCI USA
p991
sg49
V98
p992
sg83
(lp993
(VROSE
VA
tp994
asg17
I2001
sg43
V15377
p995
sbag1
(g2
g3
NtRp996
(dp997
g51
V10.1002/bies.950180206
p998
sg47
VBIOESSAYS
p999
sg49
V18
p1000
sg83
(lp1001
(VRUSH
VM G
tp1002
asg17
I1996
sg43
V103
p1003
sbag1
(g2
g3
NtRp1004
(dp1005
g51
V10.1016/0092-8674(87)90455-7
p1006
sg47
VCELL
p1007
sg49
V49
p1008
sg83
(lp1009
(VSALMINEN
VA
tp1010
asg17
I1987
sg43
V527
p1011
sbag1
(g2
g3
NtRp1012
(dp1013
g51
V10.1016/0092-8674(88)90433-3
p1014
sg47
VCELL
p1015
sg49
V52
p1016
sg83
(lp1017
(VSEGEV
VN
tp1018
asg17
I1988
sg43
V915
p1019
sbag1
(g2
g3
NtRp1020
(dp1021
g51
V10.1016/S1534-5807(01)00053-3
p1022
sg47
VDEV CELL
p1023
sg49
V1
sg83
(lp1024
(VSETTLEMAN
VJ
tp1025
asg17
I2001
sg43
V321
p1026
sbag1
(g2
g3
NtRp1027
(dp1028
g51
V10.1016/S0896-6273(01)80052-0
p1029
sg47
VNEURON
p1030
sg49
V18
p1031
sg83
(lp1032
(VSHAO
VX G
tp1033
asg17
I1997
sg43
V133
p1034
sbag1
(g2
g3
NtRp1035
(dp1036
g51
V10.1016/0896-6273(93)90109-5
p1037
sg47
VNEURON
p1038
sg49
V11
p1039
sg83
(lp1040
(VSIMONS
VK
tp1041
asg17
I1993
sg43
V789
p1042
sbag1
(g2
g3
NtRp1043
(dp1044
g51
Nsg47
VNATURE
p1045
sg49
V394
p1046
sg83
(lp1047
(VSIMONSEN
VA
tp1048
asg17
I1998
sg43
V494
p1049
sbag1
(g2
g3
NtRp1050
(dp1051
g51
Nsg47
VJ CELL SCI
p1052
sg49
V108
p1053
sg83
(lp1054
(VSINGERKRUGER
VB
tp1055
asg17
I1995
sg43
V3509
p1056
sbag1
(g2
g3
NtRp1057
(dp1058
g51
V10.1093/emboj/19.18.4885
p1059
sg47
VEMBO J
p1060
sg49
V19
p1061
sg83
(lp1062
(VSINIOSSOGLOU
VS
tp1063
asg17
I2000
sg43
V4885
p1064
sbag1
(g2
g3
NtRp1065
(dp1066
g51
V10.1016/S0092-8674(00)80722-9
p1067
sg47
VCELL
p1068
sg49
V97
p1069
sg83
(lp1070
(VSPRINGER
VS
tp1071
asg17
I1999
sg43
V145
p1072
sbag1
(g2
g3
NtRp1073
(dp1074
g51
V10.1126/science.286.5438.316
p1075
sg47
VSCIENCE
p1076
sg49
V286
p1077
sg83
(lp1078
(VSTEINMANN
VT
tp1079
asg17
I1999
sg43
V316
p1080
sbag1
(g2
g3
NtRp1081
(dp1082
g51
Nsg47
VGENOME BIOL
p1083
sg49
V2
sg83
(lp1084
(VSTENMARK
VH
tp1085
asg17
I2001
sg43
Nsbag1
(g2
g3
NtRp1086
(dp1087
g51
V10.1038/361736a0
p1088
sg47
VNATURE
p1089
sg49
V361
p1090
sg83
(lp1091
(VSTROM
VM
tp1092
asg17
I1993
sg43
V736
p1093
sbag1
(g2
g3
NtRp1094
(dp1095
g51
V10.1016/0092-8674(95)90296-1
p1096
sg47
VCELL
p1097
sg49
V80
p1098
sg83
(lp1099
(VSUTTON
VR B
tp1100
asg17
I1995
sg43
V929
p1101
sbag1
(g2
g3
NtRp1102
(dp1103
g51
V10.1080/106351501750435086
p1104
sg47
VSYST BIOL
p1105
sg49
V50
p1106
sg83
(lp1107
(VSWOFFORD
VD L
tp1108
asg17
I2001
sg43
V525
p1109
sbag1
(g2
g3
NtRp1110
(dp1111
g51
Nsg47
VPHYSIOL REV
p1112
sg49
V81
p1113
sg83
(lp1114
(VTAKAI
VY
tp1115
asg17
I2001
sg43
VHYSIOL
p1116
sbag1
(g2
g3
NtRp1117
(dp1118
g51
V10.1073/pnas.88.8.3120
p1119
sg47
VP NATL ACAD SCI USA
p1120
sg49
V88
p1121
sg83
(lp1122
(VTAMKUN
VJ W
tp1123
asg17
I1991
sg43
V3120
p1124
sbag1
(g2
g3
NtRp1125
(dp1126
g51
Nsg47
VNATURE
p1127
sg49
V408
p1128
sg83
(lp1129
(VKAUL
VS
tp1130
asg17
I2000
sg43
V796
p1131
sbag1
(g2
g3
NtRp1132
(dp1133
g51
V10.1093/nar/22.22.4673
p1134
sg47
VNUCLEIC ACIDS RES
p1135
sg49
V22
p1136
sg83
(lp1137
(VTHOMPSON
VJ D
tp1138
asg17
I1994
sg43
V4673
p1139
sbag1
(g2
g3
NtRp1140
(dp1141
g51
V10.1083/jcb.119.4.749
p1142
sg47
VJ CELL BIOL
p1143
sg49
V119
p1144
sg83
(lp1145
(VTISDALE
VE J
tp1146
asg17
I1992
sg43
V749
p1147
sbag1
(g2
g3
NtRp1148
(dp1149
g51
V10.1105/tpc.11.3.393
p1150
sg47
VPLANT CELL
p1151
sg49
V11
p1152
sg83
(lp1153
(VTROTOCHAUD
VA E
tp1154
asg17
I1999
sg43
VLANT
p1155
sbag1
(g2
g3
NtRp1156
(dp1157
g51
Nsg47
VPLANT CELL
p1158
sg49
V8
sg83
(lp1159
(VUEDA
VT
tp1160
asg17
I1996
sg43
VLANT
p1161
sbag1
(g2
g3
NtRp1162
(dp1163
g51
V10.1016/S0378-1119(97)00584-2
p1164
sg47
VGENE
p1165
sg49
V206
p1166
sg83
(lp1167
(VUEDA
VT
tp1168
asg17
I1998
sg43
V137
p1169
sbag1
(g2
g3
NtRp1170
(dp1171
g51
V10.1093/emboj/20.17.4730
p1172
sg47
VEMBO J
p1173
sg49
V20
p1174
sg83
(lp1175
(VUEDA
VT
tp1176
asg17
I2001
sg43
V4730
p1177
sbag1
(g2
g3
NtRp1178
(dp1179
g51
V10.1083/jcb.135.4.913
p1180
sg47
VJ CELL BIOL
p1181
sg49
V135
p1182
sg83
(lp1183
(VULLRICH
VO
tp1184
asg17
I1996
sg43
V913
p1185
sbag1
(g2
g3
NtRp1186
(dp1187
g51
V10.1016/S0962-8924(00)01728-1
p1188
sg47
VTRENDS CELL BIOL
p1189
sg49
V10
p1190
sg83
(lp1191
(VVALSTER
VA H
tp1192
asg17
I2000
sg43
V141
p1193
sbag1
(g2
g3
NtRp1194
(dp1195
g51
V10.1016/S1360-1385(99)01389-8
p1196
sg47
VTRENDS PLANT SCI
p1197
sg49
V4
sg83
(lp1198
(VVITALE
VA
tp1199
asg17
I1999
sg43
V149
p1200
sbag1
(g2
g3
NtRp1201
(dp1202
g51
V10.1046/j.1432-1327.1999.00192.x
p1203
sg47
VEUR J BIOCHEM
p1204
sg49
V260
p1205
sg83
(lp1206
(VVOLLMER
VP
tp1207
asg17
I1999
sg43
V284
p1208
sbag1
(g2
g3
NtRp1209
(dp1210
g51
Nsg47
VMETHOD ENZYMOL
p1211
sg49
V257
p1212
sg83
(lp1213
(VVOLLMER
VP
tp1214
asg17
I1995
sg43
V118
p1215
sbag1
(g2
g3
NtRp1216
(dp1217
g51
Nsg47
VJ BIOL CHEM
p1218
sg49
V272
p1219
sg83
(lp1220
(VWADA
VM
tp1221
asg17
I1997
sg43
V3875
p1222
sbag1
(g2
g3
NtRp1223
(dp1224
g51
V10.1038/70319
p1225
sg47
VNAT CELL BIOL
p1226
sg49
V1
sg83
(lp1227
(VWALCH-SOLIMENA
VC
tp1228
asg17
I1999
sg43
V523
p1229
sbag1
(g2
g3
NtRp1230
(dp1231
g51
V10.1083/jcb.137.7.1495
p1232
sg47
VJ CELL BIOL
p1233
sg49
V137
p1234
sg83
(lp1235
(VWALCHSOLIMENA
VC
tp1236
asg17
I1997
sg43
V1495
p1237
sbag1
(g2
g3
NtRp1238
(dp1239
g51
V10.1083/jcb.147.4.743
p1240
sg47
VJ CELL BIOL
p1241
sg49
V147
p1242
sg83
(lp1243
(VWHITE
VJ
tp1244
asg17
I1999
sg43
V743
p1245
sbag1
(g2
g3
NtRp1246
(dp1247
g51
V10.1016/S0955-0674(99)80063-5
p1248
sg47
VCURR OPIN CELL BIOL
p1249
sg49
V11
p1250
sg83
(lp1251
(VWIELAND
VF
tp1252
asg17
I1999
sg43
V440
p1253
sbag1
(g2
g3
NtRp1254
(dp1255
g51
V10.1126/science.1057661
p1256
sg47
VSCIENCE
p1257
sg49
V291
p1258
sg83
(lp1259
(VWIESE
VC
tp1260
asg17
I2001
sg43
V653
p1261
sbag1
(g2
g3
NtRp1262
(dp1263
g51
V10.1016/S0166-2236(98)01264-8
p1264
sg47
VTRENDS NEUROSCI
p1265
sg49
V21
p1266
sg83
(lp1267
(VWIGGE
VP
tp1268
asg17
I1998
sg43
V339
p1269
sbag1
(g2
g3
NtRp1270
(dp1271
g51
V10.1126/science.284.5418.1359
p1272
sg47
VSCIENCE
p1273
sg49
V284
p1274
sg83
(lp1275
(VWILDE
VA
tp1276
asg17
I1999
sg43
V1359
p1277
sbag1
(g2
g3
NtRp1278
(dp1279
g51
V10.1023/A:1005804508902
p1280
sg47
VPLANT MOL BIOL
p1281
sg49
V35
p1282
sg83
(lp1283
(VWINGE
VP
tp1284
asg17
I1997
sg43
VLANT
p1285
sbag1
(g2
g3
NtRp1286
(dp1287
g51
Nsg47
VGENETICS
p1288
sg49
V156
p1289
sg83
(lp1290
(VWINGE
VP
tp1291
asg17
I2000
sg43
V1959
p1292
sbag1
(g2
g3
NtRp1293
(dp1294
g51
Nsg47
VJ CELL SCI
p1295
sg49
V114
p1296
sg83
(lp1297
(VWITTMANN
VT
tp1298
asg17
I2001
sg43
V3795
p1299
sbag1
(g2
g3
NtRp1300
(dp1301
g51
V10.1105/tpc.13.12.2841
p1302
sg47
VPLANT CELL
p1303
sg49
V13
p1304
sg83
(lp1305
(VWU
VG
tp1306
asg17
I2001
sg43
VLANT
p1307
sbag1
(g2
g3
NtRp1308
(dp1309
g51
V10.1104/pp.124.4.1625
p1310
sg47
VPLANT PHYSIOL
p1311
sg49
V124
p1312
sg83
(lp1313
(VWU
VG
tp1314
asg17
I2000
sg43
VLANT
p1315
sbag1
(g2
g3
NtRp1316
(dp1317
g51
V10.1083/jcb.125.5.1077
p1318
sg47
VJ CELL BIOL
p1319
sg49
V125
p1320
sg83
(lp1321
(VYAMOCHI
VW
tp1322
asg17
I1994
sg43
V1077
p1323
sbag1
(g2
g3
NtRp1324
(dp1325
g51
V10.1105/tpc.001065
p1326
sg47
VPLANT CELL
p1327
sg49
V14
p1328
sg83
(lp1329
(VYANG
VZ B
tp1330
asg17
I2002
sg43
VLANT
p1331
sbag1
(g2
g3
NtRp1332
(dp1333
g51
V10.1016/S0014-5793(97)00072-0
p1334
sg47
VFEBS LETT
p1335
sg49
V403
p1336
sg83
(lp1337
(VZARSKY
VV
tp1338
asg17
I1997
sg43
V303
p1339
sbag1
(g2
g3
NtRp1340
(dp1341
g51
V10.1038/35052055
p1342
sg47
VNAT REV MOL CELL BIO
p1343
sg49
V2
sg83
(lp1344
(VZERIAL
VM
tp1345
asg17
I2001
sg43
V107
p1346
sbag1
(g2
g3
NtRp1347
(dp1348
g51
V10.1126/science.288.5470.1429
p1349
sg47
VSCIENCE
p1350
sg49
V288
p1351
sg83
(lp1352
(VZHANG
VC M
tp1353
asg17
I2000
sg43
V1429
p1354
sbag1
(g2
g3
NtRp1355
(dp1356
g51
V10.1105/tpc.005611
p1357
sg47
VPLANT CELL
p1358
sg49
V14
p1359
sg83
(lp1360
(VZHENG
VZ L
tp1361
asg17
I2002
sg43
VLANT
p1362
sbag1
(g2
g3
NtRp1363
(dp1364
g51
V10.1023/A:1006402628948
p1365
sg47
VPLANT MOL BIOL
p1366
sg49
V44
p1367
sg83
(lp1368
(VZHENG
VZ L
tp1369
asg17
I2000
sg43
VLANT
p1370
sbag1
(g2
g3
NtRp1371
(dp1372
g51
V10.1016/S1360-1385(00)01654-X
p1373
sg47
VTRENDS PLANT SCI
p1374
sg49
V5
sg83
(lp1375
(VZHENG
VZ L
tp1376
asg17
I2000
sg43
V298
p1377
sbasb.