ccopy_reg
_reconstructor
p1
(ctethne.classes.paper
Paper
p2
c__builtin__
object
p3
NtRp4
(dp5
S'publisherCity'
p6
VROCKVILLE
p7
sS'reprintAddress'
p8
VBrendel, V (reprint author), Iowa State Univ, Dept Genet Dev & Cell Biol, Ames, IA 50010 USA.
p9
sS'WC'
p10
VPlant Sciences
p11
sS'GA'
p12
V010RY
p13
sS'abstract'
p14
VU2AF (U2 small nuclear ribonucleoprotein auxiliary factor) is an essential splicing factor with critical roles in recognition of the 3'-splice site. In animals, the U2AF small subunit (U2AF(35)) can bind to the 3'-AG intron border and promote U2 small nuclear RNP binding to the branch-point sequences of introns through interaction with the U2AF large subunit. Two copies of U2AF(35)-encoding genes were identified in Arabidopsis ( Arabidopsis thaliana; atU2AF(35)a and atU2AF(35)b). Both are expressed in all tissues inspected, with atU2AF(35)a expressed at a higher level than atU2AF(35)b in most tissues. Differences in the expression patterns of atU2AF(35)a and atU2AF(35)b in roots were revealed by a promoter::beta-glucuronidase assay, with atU2AF(35)b expressed strongly in whole young roots and root tips and atU2AF(35)a limited to root vascular regions. Altered expression levels of atU2AF(35)a or atU2AF(35)b cause pleiotropic phenotypes ( including flowering time, leaf morphology, and flower and silique shape). Novel slicing isoforms were generated from FCA pre-mRNA by splicing of noncanonical introns in plants with altered expression levels of atU2AF(35). U2AF(35) homologs were also identified from maize (Zea mays) and other plants with large-scale expressed sequence tag projects. A C-terminal motif (named SERE) is highly conserved in all seed plant protein homologs, suggesting it may have an important function specific to higher plants.
p15
sS'pageEnd'
p16
I636
sS'publisherAddress'
p17
V15501 MONONA DRIVE, ROCKVILLE, MD 20855 USA
p18
sS'documentType'
p19
VArticle
p20
sS'subject'
p21
VPlant Sciences
p22
sS'isoSource'
p23
VPlant Physiol.
p24
sS'timesCited'
p25
(lp26
I12
aVZ9 14
p27
asS'PT'
p28
VJ
sS'title'
p29
VMolecular Characterization And Phylogeny Of U2Af(35) Homologs In Plants
p30
sS'ISSN'
p31
(lp32
V0032-0889
p33
aVJ9 PLANT PHYSIOL
p34
asS'authors_full'
p35
(lp36
(VWANG
VBB
tp37
a(VBRENDEL
VV
tp38
asS'PG'
p39
I13
sS'PD'
p40
VFEB
p41
sS'pageStart'
p42
I624
sS'issue'
p43
I2
sS'journal'
p44
VPLANT PHYSIOLOGY
p45
sS'volume'
p46
V140
p47
sS'doi'
p48
V10.1104/pp.105.073858
p49
sS'emailAddress'
p50
Vvbrendel@iastate.edu
p51
sS'authorAddress'
p52
(lp53
VIowa State Univ, Dept Genet Dev & Cell Biol, Ames, IA 50010 USA.
p54
aVIowa State Univ, Dept Stat, Ames, IA 50010 USA.
p55
asS'date'
p56
I2006
sS'ER'
p57
V
sS'publisher'
p58
VAMER SOC PLANT BIOLOGISTS
p59
sS'authorKeywords'
p60
(lp61
VSPLICING FACTOR U2AF(35)
p62
aVRIBONUCLEOPROTEIN AUXILIARY FACTOR
p63
aVSERINE/ARGININE-RICH PROTEINS
p64
aVARABIDOPSIS-THALIANA
p65
aVSMALL-SUBUNIT
p66
aVRNA-BINDING
p67
aVFISSION YEAST
p68
aVSITE AG
p69
aVIN-VIVO
p70
aVGENE
p71
asS'language'
p72
VEnglish
p73
sS'wosid'
p74
VWOS:000235215000019
p75
sS'citationCount'
p76
I60
sS'authors_init'
p77
(lp78
(VWANG
VB B
tp79
a(VBRENDEL
VV
tp80
asS'citedReferences'
p81
(lp82
g1
(g2
g3
NtRp83
(dp84
g48
V10.1101/gad.8.7.843
p85
sg44
VGENE DEV
p86
sg46
V8
sg77
(lp87
(VABOVICH
VN
tp88
asg56
I1994
sg42
V843
p89
sbag1
(g2
g3
NtRp90
(dp91
g48
V10.1046/j.1365-313X.2003.01932.x
p92
sg44
VPLANT J
p93
sg46
V36
p94
sg77
(lp95
(VALI
VG S
tp96
asg56
I2003
sg42
VLANT
p97
sbag1
(g2
g3
NtRp98
(dp99
g48
V10.1126/science.1086391
p100
sg44
VSCIENCE
p101
sg46
V301
p102
sg77
(lp103
(VALONSO
VJ M
tp104
asg56
I2003
sg42
V653
p105
sbag1
(g2
g3
NtRp106
(dp107
g48
V10.1111/j.1365-313X.2004.02194.x
p108
sg44
VPLANT J
p109
sg46
V40
p110
sg77
(lp111
(VBEZERRA
VI C
tp112
asg56
I2004
sg42
VLANT
p113
sbag1
(g2
g3
NtRp114
(dp115
g48
V10.1104/pp.103.027979
p116
sg44
VPLANT PHYSIOL
p117
sg46
V133
p118
sg77
(lp119
(VCURTIS
VM D
tp120
asg56
I2003
sg42
VLANT
p121
sbag1
(g2
g3
NtRp122
(dp123
g48
V10.1007/s00412-003-0271-3
p124
sg44
VCHROMOSOMA
p125
sg46
V112
p126
sg77
(lp127
(VDOCQUIER
VS
tp128
asg56
I2004
sg42
V255
p129
sbag1
(g2
g3
NtRp130
(dp131
g48
V10.1074/jbc.273.51.34603
p132
sg44
VJ BIOL CHEM
p133
sg46
V273
p134
sg77
(lp135
(VDOMON
VC
tp136
asg56
I1998
sg42
V34603
p137
sbag1
(g2
g3
NtRp138
(dp139
g48
V10.1091/mbc.E04-02-0100
p140
sg44
VMOL BIOL CELL
p141
sg46
V15
p142
sg77
(lp143
(VFANG
VY D
tp144
asg56
I2004
sg42
V2664
p145
sbag1
(g2
g3
NtRp146
(dp147
g48
V10.1046/j.1365-313X.2002.01311.x
p148
sg44
VPLANT J
p149
sg46
V30
p150
sg77
(lp151
(VFORMENT
VJ
tp152
asg56
I2002
sg42
VLANT
p153
sbag1
(g2
g3
NtRp154
(dp155
g48
Nsg44
VPLANT CELL
p156
sg46
V10
p157
sg77
(lp158
(VGOLOVKIN
VM
tp159
asg56
I1998
sg42
VLANT
p160
sbag1
(g2
g3
NtRp161
(dp162
g48
V10.1074/jbc.274.51.36428
p163
sg44
VJ BIOL CHEM
p164
sg46
V274
p165
sg77
(lp166
(VGOLOVKIN
VM
tp167
asg56
I1999
sg42
V36428
p168
sbag1
(g2
g3
NtRp169
(dp170
g48
V10.1105/tpc.104.027557
p171
sg44
VPLANT CELL
p172
sg46
V17
p173
sg77
(lp174
(VGONG
VZ Z
tp175
asg56
I2005
sg42
VLANT
p176
sbag1
(g2
g3
NtRp177
(dp178
g48
V10.1016/j.bbaexp.2005.01.004
p179
sg44
VBBA
p180
sg46
V1728
p181
sg77
(lp182
(VGUPTA
VS
tp183
asg56
I2005
sg42
V105
p184
sbag1
(g2
g3
NtRp185
(dp186
g48
Nsg44
VMOL CELL BIOL
p187
sg46
V19
p188
sg77
(lp189
(VGUTH
VS
tp190
asg56
I1999
sg42
V8263
p191
sbag1
(g2
g3
NtRp192
(dp193
g48
V10.1128/MCB.21.22.7673-7681.2001
p194
sg44
VMOL CELL BIOL
p195
sg46
V21
p196
sg77
(lp197
(VGUTH
VS
tp198
asg56
I2001
sg42
V7673
p199
sbag1
(g2
g3
NtRp200
(dp201
g48
V10.1101/gr.9.9.868
p202
sg44
VGENOME RES
p203
sg46
V9
sg77
(lp204
(VHUANG
VX Q
tp205
asg56
I1999
sg42
V868
p206
sbag1
(g2
g3
NtRp207
(dp208
g48
Nsg44
VBIOCHEM SOC T
p209
sg46
V32
p210
sg77
(lp211
(VKALYNA
VM
tp212
asg56
I2004
sg42
V561
p213
sbag1
(g2
g3
NtRp214
(dp215
g48
V10.1091/mbc.E03-02-0109
p216
sg44
VMOL BIOL CELL
p217
sg46
V14
p218
sg77
(lp219
(VKALYNA
VM
tp220
asg56
I2003
sg42
V3565
p221
sbag1
(g2
g3
NtRp222
(dp223
g48
V10.1101/gad.1206204
p224
sg44
VGENE DEV
p225
sg46
V18
p226
sg77
(lp227
(VKIELKOPF
VC L
tp228
asg56
I2004
sg42
V1513
p229
sbag1
(g2
g3
NtRp230
(dp231
g48
V10.1016/S0092-8674(01)00480-9
p232
sg44
VCELL
p233
sg46
V106
p234
sg77
(lp235
(VKIELKOPF
VC L
tp236
asg56
I2001
sg42
V595
p237
sbag1
(g2
g3
NtRp238
(dp239
g48
V10.1006/geno.1995.9879
p240
sg44
VGENOMICS
p241
sg46
V30
p242
sg77
(lp243
(VKITAGAWA
VK
tp244
asg56
I1995
sg42
V257
p245
sbag1
(g2
g3
NtRp246
(dp247
g48
V10.1093/bioinformatics/17.12.1244
p248
sg44
VBIOINFORMATICS
p249
sg46
V17
p250
sg77
(lp251
(VKUMAR
VS
tp252
asg56
I2001
sg42
V1244
p253
sbag1
(g2
g3
NtRp254
(dp255
g48
V10.1073/pnas.92.17.7672
p256
sg44
VP NATL ACAD SCI USA
p257
sg46
V92
p258
sg77
(lp259
(VLAZAR
VG
tp260
asg56
I1995
sg42
V7672
p261
sbag1
(g2
g3
NtRp262
(dp263
g48
V10.1105/tpc.8.12.2255
p264
sg44
VPLANT CELL
p265
sg46
V8
sg77
(lp266
(VLOPATO
VS
tp267
asg56
I1996
sg42
VLANT
p268
sbag1
(g2
g3
NtRp269
(dp270
g48
V10.1074/jbc.M206455200
p271
sg44
VJ BIOL CHEM
p272
sg46
V277
p273
sg77
(lp274
(VLOPATO
VS
tp275
asg56
I2002
sg42
V39989
p276
sbag1
(g2
g3
NtRp277
(dp278
g48
V10.1073/pnas.93.7.3074
p279
sg44
VP NATL ACAD SCI USA
p280
sg46
V93
p281
sg77
(lp282
(VLOPATO
VS
tp283
asg56
I1996
sg42
V3074
p284
sbag1
(g2
g3
NtRp285
(dp286
g48
V10.1023/A:1006129615846
p287
sg44
VPLANT MOL BIOL
p288
sg46
V39
p289
sg77
(lp290
(VLOPATO
VS
tp291
asg56
I1999
sg42
VLANT
p292
sbag1
(g2
g3
NtRp293
(dp294
g48
V10.1101/gad.13.8.987
p295
sg44
VGENE DEV
p296
sg46
V13
p297
sg77
(lp298
(VLOPATO
VS
tp299
asg56
I1999
sg42
V987
p300
sbag1
(g2
g3
NtRp301
(dp302
g48
V10.1091/mbc.E04-01-0055
p303
sg44
VMOL BIOL CELL
p304
sg46
V15
p305
sg77
(lp306
(VLORKOVIC
VZ J
tp307
asg56
I2004
sg42
V3233
p308
sbag1
(g2
g3
NtRp309
(dp310
g48
V10.1093/nar/30.3.623
p311
sg44
VNUCLEIC ACIDS RES
p312
sg46
V30
p313
sg77
(lp314
(VLORKOVIC
VZ J
tp315
asg56
I2002
sg42
V623
p316
sbag1
(g2
g3
NtRp317
(dp318
g48
V10.1016/j.tplants.2004.10.003
p319
sg44
VTRENDS PLANT SCI
p320
sg46
V9
sg77
(lp321
(VLORKOVIC
VZ J
tp322
asg56
I2004
sg42
V565
p323
sbag1
(g2
g3
NtRp324
(dp325
g48
V10.1016/S0092-8674(00)80256-1
p326
sg44
VCELL
p327
sg46
V89
p328
sg77
(lp329
(VMACKNIGHT
VR
tp330
asg56
I1997
sg42
V737
p331
sbag1
(g2
g3
NtRp332
(dp333
g48
V10.1038/45602
p334
sg44
VNATURE
p335
sg46
V402
p336
sg77
(lp337
(VMERENDINO
VL
tp338
asg56
I1999
sg42
V838
p339
sbag1
(g2
g3
NtRp340
(dp341
g48
V10.1074/jbc.M402136200
p342
sg44
VJ BIOL CHEM
p343
sg46
V279
p344
sg77
(lp345
(VPACHECO
VT R
tp346
asg56
I2004
sg42
V27039
p347
sbag1
(g2
g3
NtRp348
(dp349
g48
V10.1007/s11103-004-1680-2
p350
sg44
VPLANT MOL BIOL
p351
sg46
V55
p352
sg77
(lp353
(VPAPP
VI
tp354
asg56
I2004
sg42
VLANT
p355
sbag1
(g2
g3
NtRp356
(dp357
g48
V10.1101/gad.3.12b.2113
p358
sg44
VGENE DEV
p359
sg46
V3
sg77
(lp360
(VREED
VR
tp361
asg56
I1989
sg42
V2113
p362
sbag1
(g2
g3
NtRp363
(dp364
g48
V10.1101/gad.12.7.1010
p365
sg44
VGENE DEV
p366
sg46
V12
p367
sg77
(lp368
(VRUDNER
VD Z
tp369
asg56
I1998
sg42
V1010
p370
sbag1
(g2
g3
NtRp371
(dp372
g48
V10.1073/pnas.93.19.10333
p373
sg44
VP NATL ACAD SCI USA
p374
sg46
V93
p375
sg77
(lp376
(VRUDNER
VD Z
tp377
asg56
I1996
sg42
V10333
p378
sbag1
(g2
g3
NtRp379
(dp380
g48
V10.1105/tpc.011056
p381
sg44
VPLANT CELL
p382
sg46
V15
p383
sg77
(lp384
(VSAVALDI-GOLDSTEIN
VS
tp385
asg56
I2003
sg42
VLANT
p386
sbag1
(g2
g3
NtRp387
(dp388
g48
V10.1105/tpc.13.6.1427
p389
sg44
VPLANT CELL
p390
sg46
V13
p391
sg77
(lp392
(VSCHOMBURG
VF M
tp393
asg56
I2001
sg42
VLANT
p394
sbag1
(g2
g3
NtRp395
(dp396
g48
V10.1105/tpc.11.3.445
p397
sg44
VPLANT CELL
p398
sg46
V11
p399
sg77
(lp400
(VSHELDON
VC C
tp401
asg56
I1999
sg42
VLANT
p402
sbag1
(g2
g3
NtRp403
(dp404
g48
V10.1128/MCB.22.1.221-230.2002
p405
sg44
VMOL CELL BIOL
p406
sg46
V22
p407
sg77
(lp408
(VSHEPARD
VJ
tp409
asg56
I2002
sg42
V221
p410
sbag1
(g2
g3
NtRp411
(dp412
g48
V10.1016/S0378-1119(98)00559-9
p413
sg44
VGENE
p414
sg46
V226
p415
sg77
(lp416
(VTASSONE
VF
tp417
asg56
I1999
sg42
V211
p418
sbag1
(g2
g3
NtRp419
(dp420
g48
V10.1093/nar/22.22.4673
p421
sg44
VNUCLEIC ACIDS RES
p422
sg46
V22
p423
sg77
(lp424
(VTHOMPSON
VJ D
tp425
asg56
I1994
sg42
V4673
p426
sbag1
(g2
g3
NtRp427
(dp428
g48
V10.1016/0092-8674(93)90298-5
p429
sg44
VCELL
p430
sg46
V74
p431
sg77
(lp432
(VTIAN
VM
tp433
asg56
I1993
sg42
V105
p434
sbag1
(g2
g3
NtRp435
(dp436
g48
V10.1111/j.1365-313X.2004.02321.x
p437
sg44
VPLANT J
p438
sg46
V41
p439
sg77
(lp440
(VTILLEMANS
VV
tp441
asg56
I2005
sg42
VLANT
p442
sbag1
(g2
g3
NtRp443
(dp444
g48
V10.1038/35057011
p445
sg44
VNATURE
p446
sg46
V409
p447
sg77
(lp448
(VTUPLER
VR
tp449
asg56
I2001
sg42
V832
p450
sbag1
(g2
g3
NtRp451
(dp452
g48
V10.1186/gb-2004-5-12-r102
p453
sg44
VGENOME BIOL
p454
sg46
V5
sg77
(lp455
(VWANG
VB B
tp456
asg56
I2004
sg42
Nsbag1
(g2
g3
NtRp457
(dp458
g48
Nsg44
VTHESIS IOWA STATE U
p459
sg46
Nsg77
(lp460
(VWANG
VB B
tp461
asg56
I2005
sg42
Nsbag1
(g2
g3
NtRp462
(dp463
g48
V10.1074/jbc.M309106200
p464
sg44
VJ BIOL CHEM
p465
sg46
V279
p466
sg77
(lp467
(VWANG
VH
tp468
asg56
I2004
sg42
V1468
p469
sbag1
(g2
g3
NtRp470
(dp471
g48
V10.1128/MCB.24.10.4229-4240.2004
p472
sg44
VMOL CELL BIOL
p473
sg46
V24
p474
sg77
(lp475
(VWEBB
VC J
tp476
asg56
I2004
sg42
V4229
p477
sbag1
(g2
g3
NtRp478
(dp479
g48
Nsg44
VARABIDOPSIS LAB MANU
p480
sg46
Nsg77
(lp481
(VWEIGEL
VD
tp482
asg56
I2002
sg42
Nsbag1
(g2
g3
NtRp483
(dp484
g48
V10.1093/nar/24.10.1849
p485
sg44
VNUCLEIC ACIDS RES
p486
sg46
V24
p487
sg77
(lp488
(VWENTZHUNTER
VK
tp489
asg56
I1996
sg42
V1849
p490
sbag1
(g2
g3
NtRp491
(dp492
g48
Nsg44
VNATURE
p493
sg46
V402
p494
sg77
(lp495
(VWU
VS P
tp496
asg56
I1999
sg42
V832
p497
sbag1
(g2
g3
NtRp498
(dp499
g48
V10.1016/S1534-5807(01)00087-9
p500
sg44
VDEV CELL
p501
sg46
V1
sg77
(lp502
(VXIONG
VL M
tp503
asg56
I2001
sg42
V771
p504
sbag1
(g2
g3
NtRp505
(dp506
g48
V10.1038/355609a0
p507
sg44
VNATURE
p508
sg46
V355
p509
sg77
(lp510
(VZAMORE
VP D
tp511
asg56
I1992
sg42
V609
p512
sbag1
(g2
g3
NtRp513
(dp514
g48
V10.1073/pnas.86.23.9243
p515
sg44
VP NATL ACAD SCI USA
p516
sg46
V86
p517
sg77
(lp518
(VZAMORE
VP D
tp519
asg56
I1989
sg42
V9243
p520
sbag1
(g2
g3
NtRp521
(dp522
g48
Nsg44
VP NATL ACAD SCI USA
p523
sg46
V89
p524
sg77
(lp525
(VZHANG
VM
tp526
asg56
I1992
sg42
V5769
p527
sbag1
(g2
g3
NtRp528
(dp529
g48
V10.1017/S1355838299982225
p530
sg44
VRNA
p531
sg46
V5
sg77
(lp532
(VZORIO
VD A R
tp533
asg56
I1999
sg42
V487
p534
sbag1
(g2
g3
NtRp535
(dp536
g48
V10.1101/gad.10.11.1356
p537
sg44
VGENE DEV
p538
sg46
V10
p539
sg77
(lp540
(VZUO
VP
tp541
asg56
I1996
sg42
V1356
p542
sbasb.