ccopy_reg
_reconstructor
p1
(ctethne.classes.paper
Paper
p2
c__builtin__
object
p3
NtRp4
(dp5
S'publisherCity'
p6
VROCKVILLE
p7
sS'reprintAddress'
p8
VBlancaflor, EB (reprint author), Samuel Roberts Noble Fdn Inc, Div Plant Biol, Ardmore, OK 73401 USA.
p9
sS'WC'
p10
VPlant Sciences
p11
sS'GA'
p12
V333WR
p13
sS'abstract'
p14
VMembrane trafficking and cytoskeletal dynamics are important cellular processes that drive tip growth in root hairs. These processes interact with a multitude of signaling pathways that allow for the efficient transfer of information to specify the direction in which tip growth occurs. Here, we show that AGD1, a class I ADP ribosylation factor GTPase-activating protein, is important for maintaining straight growth in Arabidopsis (Arabidopsis thaliana) root hairs, since mutations in the AGD1 gene resulted in wavy root hair growth. Live cell imaging of growing agd1 root hairs revealed bundles of endoplasmic microtubules and actin filaments extending into the extreme tip. The wavy phenotype and pattern of cytoskeletal distribution in root hairs of agd1 partially resembled that of mutants in an armadillo repeat-containing kinesin (ARK1). Root hairs of double agd1 ark1 mutants were more severely deformed compared with single mutants. Organelle trafficking as revealed by a fluorescent Golgi marker was slightly inhibited, and Golgi stacks frequently protruded into the extreme root hair apex of agd1 mutants. Transient expression of green fluorescent protein-AGD1 in tobacco ( Nicotiana tabacum) epidermal cells labeled punctate bodies that partially colocalized with the endocytic marker FM4-64, while ARK1-yellow fluorescent protein associated with microtubules. Brefeldin A rescued the phenotype of agd1, indicating that the altered activity of an AGD1-dependent ADP ribosylation factor contributes to the defective growth, organelle trafficking, and cytoskeletal organization of agd1 root hairs. We propose that AGD1, a regulator of membrane trafficking, and ARK1, a microtubule motor, are components of converging signaling pathways that affect cytoskeletal organization to specify growth orientation in Arabidopsis root hairs.
p15
sS'pageEnd'
p16
I1674
sS'publisherAddress'
p17
V15501 MONONA DRIVE, ROCKVILLE, MD 20855 USA
p18
sS'documentType'
p19
VArticle
p20
sS'subject'
p21
VPlant Sciences
p22
sS'isoSource'
p23
VPlant Physiol.
p24
sS'timesCited'
p25
(lp26
I17
aVZ9 20
p27
asS'PT'
p28
VJ
sS'title'
p29
VA Class I Adp-Ribosylation Factor Gtpase-Activating Protein Is Critical For Maintaining Directional Root Hair Growth In Arabidopsis
p30
sS'ISSN'
p31
(lp32
V0032-0889
p33
aVJ9 PLANT PHYSIOL
p34
asS'authors_full'
p35
(lp36
(VYOO
VCHEOLMIN
tp37
a(VWEN
VJIANGQI
tp38
a(VMOTES
VCHRISTY M
tp39
a(VSPARKS
VJ ALAN
tp40
a(VBLANCAFLOR
VELISON B
tp41
asS'PG'
p42
I16
sS'PD'
p43
VAUG
p44
sS'pageStart'
p45
I1659
sS'issue'
p46
I4
sS'journal'
p47
VPLANT PHYSIOLOGY
p48
sS'volume'
p49
V147
p50
sS'doi'
p51
V10.1104/pp.108.119529
p52
sS'emailAddress'
p53
Veblancaflor@noble.org
p54
sS'authorAddress'
p55
V[Yoo, Cheol-Min; Wen, Jiangqi; Motes, Christy M.; Sparks, J. Alan; Blancaflor, Elison B.] Samuel Roberts Noble Fdn Inc, Div Plant Biol, Ardmore, OK 73401 USA.
p56
sS'date'
p57
I2008
sS'ER'
p58
V
sS'publisher'
p59
VAMER SOC PLANT BIOLOGISTS
p60
sS'authorKeywords'
p61
(lp62
VPOLLEN-TUBE GROWTH
p63
aVTIP GROWTH
p64
aVACTIN CYTOSKELETON
p65
aVARF GAPS
p66
aVF-ACTIN
p67
aVENDOPLASMIC-RETICULUM
p68
aVVESICLE TRAFFICKING
p69
aVGOLGI-APPARATUS
p70
aVPHOSPHOLIPASE-D
p71
aVCELL EXPANSION
p72
asS'language'
p73
VEnglish
p74
sS'wosid'
p75
VWOS:000258184800020
p76
sS'citationCount'
p77
I77
sS'authors_init'
p78
(lp79
(VYOO
VC M
tp80
a(VWEN
VJ Q
tp81
a(VMOTES
VC M
tp82
a(VSPARKS
VJ A
tp83
a(VBLANCAFLOR
VE B
tp84
asS'citedReferences'
p85
(lp86
g1
(g2
g3
NtRp87
(dp88
g51
V10.1126/science.1086391
p89
sg47
VSCIENCE
p90
sg49
V301
p91
sg78
(lp92
(VALONSO
VJ M
tp93
asg57
I2003
sg45
V653
p94
sbag1
(g2
g3
NtRp95
(dp96
g51
V10.1046/j.1365-313X.2001.01142.x
p97
sg47
VPLANT J
p98
sg49
V28
p99
sg78
(lp100
(VBAO
VY Q
tp101
asg57
I2001
sg45
VLANT
p102
sbag1
(g2
g3
NtRp103
(dp104
g51
V10.1046/j.1365-313X.1999.00415.x
p105
sg47
VPLANT J
p106
sg49
V17
p107
sg78
(lp108
(VBIBIKOVA
VT N
tp109
asg57
I1999
sg45
VLANT
p110
sbag1
(g2
g3
NtRp111
(dp112
g51
V10.1007/s004250050219
p113
sg47
VPLANTA
p114
sg49
V203
p115
sg78
(lp116
(VBIBIKOVA
VT N
tp117
asg57
I1997
sg45
VLANTA
p118
sbag1
(g2
g3
NtRp119
(dp120
g51
Nsg47
VINT REV CYTOL
p121
sg49
V252
p122
sg78
(lp123
(VBLANCAFLOR
VE B
tp124
asg57
I2006
sg45
V153
p125
sbag1
(g2
g3
NtRp126
(dp127
g51
V10.1091/mbc.E04-07-0562
p128
sg47
VMOL BIOL CELL
p129
sg49
V16
p130
sg78
(lp131
(VBLOCH
VD
tp132
asg57
I2005
sg45
V1913
p133
sbag1
(g2
g3
NtRp134
(dp135
g51
V10.1111/j.1365-313X.2004.02245.x
p136
sg47
VPLANT J
p137
sg49
V40
p138
sg78
(lp139
(VBOHME
VK
tp140
asg57
I2004
sg45
VLANT
p141
sbag1
(g2
g3
NtRp142
(dp143
g51
V10.1016/j.cell.2007.05.018
p144
sg47
VCELL
p145
sg49
V129
p146
sg78
(lp147
(VBOS
VJ L
tp148
asg57
I2007
sg45
V865
p149
sbag1
(g2
g3
NtRp150
(dp151
g51
Nsg47
VPLANT MOL BIOL
p152
sg49
V312
p153
sg78
(lp154
(VBROWN
VJ W
tp155
asg57
I1996
sg45
VLANT
p156
sbag1
(g2
g3
NtRp157
(dp158
g51
V10.1093/jxb/erl059
p159
sg47
VJ EXP BOT
p160
sg49
V58
p161
sg78
(lp162
(VCAMPANONI
VP
tp163
asg57
I2007
sg45
V65
p164
sbag1
(g2
g3
NtRp165
(dp166
g51
V10.1038/nature04198
p167
sg47
VNATURE
p168
sg49
V438
p169
sg78
(lp170
(VCAROL
VR J
tp171
asg57
I2005
sg45
V1013
p172
sbag1
(g2
g3
NtRp173
(dp174
g51
V10.1016/j.pbi.2006.09.014
p175
sg47
VCURR OPIN PLANT BIOL
p176
sg49
V9
sg78
(lp177
(VCOLE
VR A
tp178
asg57
I2006
sg45
V579
p179
sbag1
(g2
g3
NtRp180
(dp181
g51
V10.1074/jbc.M611728200
p182
sg47
VJ BIOL CHEM
p183
sg49
V282
p184
sg78
(lp185
(VDAVIS
VA J
tp186
asg57
I2007
sg45
V14121
p187
sbag1
(g2
g3
NtRp188
(dp189
g51
V10.1242/jcs.007302
p190
sg47
VJ CELL SCI
p191
sg49
V120
p192
sg78
(lp193
(VDEEKS
VM J
tp194
asg57
I2007
sg45
V2609
p195
sbag1
(g2
g3
NtRp196
(dp197
g51
V10.1105/tpc.13.6.1333
p198
sg47
VPLANT CELL
p199
sg49
V13
p200
sg78
(lp201
(VDONG
VC H
tp202
asg57
I2001
sg45
VLANT
p203
sbag1
(g2
g3
NtRp204
(dp205
g51
V10.1105/tpc.106.041582
p206
sg47
VPLANT CELL
p207
sg49
V18
p208
sg78
(lp209
(VDOWD
VP E
tp210
asg57
I2006
sg45
VLANT
p211
sbag1
(g2
g3
NtRp212
(dp213
g51
V10.1016/S0092-8674(03)00003-5
p214
sg47
VCELL
p215
sg49
V112
p216
sg78
(lp217
(VGELDNER
VN
tp218
asg57
I2003
sg45
V219
p219
sbag1
(g2
g3
NtRp220
(dp221
g51
V10.1083/jcb.200409140
p222
sg47
VJ CELL BIOL
p223
sg49
V169
p224
sg78
(lp225
(VGU
VY
tp226
asg57
I2005
sg45
V127
p227
sbag1
(g2
g3
NtRp228
(dp229
g51
V10.1038/sj.embor.7400105
p230
sg47
VEMBO REP
p231
sg49
V5
sg78
(lp232
(VHABERMANN
VB
tp233
asg57
I2004
sg45
V250
p234
sbag1
(g2
g3
NtRp235
(dp236
g51
V10.1146/annurev.arplant.57.032905.105206
p237
sg47
VANNU REV PLANT BIOL
p238
sg49
V57
p239
sg78
(lp240
(VHUSSEY
VP J
tp241
asg57
I2006
sg45
V109
p242
sbag1
(g2
g3
NtRp243
(dp244
g51
V10.1111/j.1600-0854.2007.00624.x
p245
sg47
VTRAFFIC
p246
sg49
V8
sg78
(lp247
(VINOUE
VH
tp248
asg57
I2007
sg45
V1465
p249
sbag1
(g2
g3
NtRp250
(dp251
g51
V10.1083/jcb.151.3.627
p252
sg47
VJ CELL BIOL
p253
sg49
V151
p254
sg78
(lp255
(VJACKSON
VT R
tp256
asg57
I2000
sg45
V627
p257
sbag1
(g2
g3
NtRp258
(dp259
g51
V10.1105/tpc.010359
p260
sg47
VPLANT CELL
p261
sg49
V14
p262
sg78
(lp263
(VJONES
VM A
tp264
asg57
I2002
sg45
VLANT
p265
sbag1
(g2
g3
NtRp266
(dp267
g51
V10.1111/j.1365-313X.2005.02609.x
p268
sg47
VPLANT J
p269
sg49
V45
p270
sg78
(lp271
(VJONES
VM A
tp272
asg57
I2006
sg45
VLANT
p273
sbag1
(g2
g3
NtRp274
(dp275
g51
V10.1105/tpc.007039
p276
sg47
VPLANT CELL
p277
sg49
V15
p278
sg78
(lp279
(VKETELAAR
VT
tp280
asg57
I2003
sg45
VLANT
p281
sbag1
(g2
g3
NtRp282
(dp283
g51
V10.1111/j.1469-8137.2007.01979.x
p284
sg47
VNEW PHYTOL
p285
sg49
V174
p286
sg78
(lp287
(VKETELAAR
VT
tp288
asg57
I2007
sg45
V57
p289
sbag1
(g2
g3
NtRp290
(dp291
g51
V10.1073/pnas.2533800100
p292
sg47
VP NATL ACAD SCI USA
p293
sg49
V100
p294
sg78
(lp295
(VKIM
VS
tp296
asg57
I2003
sg45
V16125
p297
sbag1
(g2
g3
NtRp298
(dp299
g51
V10.1242/dev.01716
p300
sg47
VDEVELOPMENT
p301
sg49
V132
p302
sg78
(lp303
(VKOIZUMI
VK
tp304
asg57
I2005
sg45
V1699
p305
sbag1
(g2
g3
NtRp306
(dp307
g51
V10.1083/jcb.145.2.317
p308
sg47
VJ CELL BIOL
p309
sg49
V145
p310
sg78
(lp311
(VKOST
VB
tp312
asg57
I1999
sg45
V317
p313
sbag1
(g2
g3
NtRp314
(dp315
g51
V10.1016/j.tcb.2008.01.003
p316
sg47
VTRENDS CELL BIOL
p317
sg49
V18
p318
sg78
(lp319
(VKOST
VB
tp320
asg57
I2008
sg45
V119
p321
sbag1
(g2
g3
NtRp322
(dp323
g51
V10.1105/tpc.107.056119
p324
sg47
VPLANT CELL
p325
sg49
V20
p326
sg78
(lp327
(VKUSANO
VH
tp328
asg57
I2008
sg45
VLANT
p329
sbag1
(g2
g3
NtRp330
(dp331
g51
V10.1105/tpc.11.9.1731
p332
sg47
VPLANT CELL
p333
sg49
V11
p334
sg78
(lp335
(VLI
VH
tp336
asg57
I1999
sg45
VLANT
p337
sbag1
(g2
g3
NtRp338
(dp339
g51
V10.1083/jcb.200410142
p340
sg47
VJ CELL BIOL
p341
sg49
V168
p342
sg78
(lp343
(VLIU
VW
tp344
asg57
I2005
sg45
V1053
p345
sbag1
(g2
g3
NtRp346
(dp347
g51
V10.1046/j.1365-313X.1995.08030457.x
p348
sg47
VPLANT J
p349
sg49
V8
sg78
(lp350
(VLIU
VY G
tp351
asg57
I1995
sg45
VLANT
p352
sbag1
(g2
g3
NtRp353
(dp354
g51
Nsg47
VMOL BIOL CELL
p355
sg49
V16
p356
sg78
(lp357
(VLU
VL
tp358
asg57
I2005
sg45
V811
p359
sbag1
(g2
g3
NtRp360
(dp361
g51
V10.1104/pp.123.3.795
p362
sg47
VPLANT PHYSIOL
p363
sg49
V123
p364
sg78
(lp365
(VLUKOWITZ
VW
tp366
asg57
I2000
sg45
VLANT
p367
sbag1
(g2
g3
NtRp368
(dp369
g51
Nsg47
VPLANT CELL
p370
sg49
V8
sg78
(lp371
(VMALHO
VR
tp372
asg57
I1996
sg45
VLANT
p373
sbag1
(g2
g3
NtRp374
(dp375
g51
Nsg47
VPLANT CELL
p376
sg49
V10
p377
sg78
(lp378
(VMARC
VJ
tp379
asg57
I1998
sg45
VLANT
p380
sbag1
(g2
g3
NtRp381
(dp382
g51
V10.1104/pp.106.095091
p383
sg47
VPLANT PHYSIOL
p384
sg49
V143
p385
sg78
(lp386
(VMIN
VM K
tp387
asg57
I2007
sg45
VLANT
p388
sbag1
(g2
g3
NtRp389
(dp390
g51
V10.1093/emboj/20.11.2779
p391
sg47
VEMBO J
p392
sg49
V20
p393
sg78
(lp394
(VMOLENDIJK
VA J
tp395
asg57
I2001
sg45
V2779
p396
sbag1
(g2
g3
NtRp397
(dp398
g51
V10.1093/jxb/eri163
p399
sg47
VJ EXP BOT
p400
sg49
V56
p401
sg78
(lp402
(VMONTEIRO
VD
tp403
asg57
I2005
sg45
V1665
p404
sbag1
(g2
g3
NtRp405
(dp406
g51
V10.1007/s00709-005-0124-4
p407
sg47
VPROTOPLASMA
p408
sg49
V226
p409
sg78
(lp410
(VMOTES
VC M
tp411
asg57
I2005
sg45
VROTOPLASMA
p412
sbag1
(g2
g3
NtRp413
(dp414
g51
Nsg47
VPLANT PHYSIOL
p415
sg49
V145
p416
sg78
(lp417
(VMULLER
VJ
tp418
asg57
I2008
sg45
VLANT
p419
sbag1
(g2
g3
NtRp420
(dp421
g51
V10.1104/pp.011569
p422
sg47
VPLANT PHYSIOL
p423
sg49
V130
p424
sg78
(lp425
(VNEBENFUHR
VA
tp426
asg57
I2002
sg45
VLANT
p427
sbag1
(g2
g3
NtRp428
(dp429
g51
V10.1111/j.1365-313X.2007.03212.x
p430
sg47
VPLANT J
p431
sg49
V51
p432
sg78
(lp433
(VNELSON
VB K
tp434
asg57
I2007
sg45
VLANT
p435
sbag1
(g2
g3
NtRp436
(dp437
g51
V10.1016/j.tplants.2006.04.003
p438
sg47
VTRENDS PLANT SCI
p439
sg49
V11
p440
sg78
(lp441
(VNIBAU
VC
tp442
asg57
I2006
sg45
V309
p443
sbag1
(g2
g3
NtRp444
(dp445
g51
V10.1242/jcs.02924
p446
sg47
VJ CELL SCI
p447
sg49
V119
p448
sg78
(lp449
(VNIE
VZ Z
tp450
asg57
I2006
sg45
V1203
p451
sbag1
(g2
g3
NtRp452
(dp453
g51
V10.1016/j.cub.2005.11.069
p454
sg47
VCURR BIOL
p455
sg49
V16
p456
sg78
(lp457
(VNIE
VZ Z
tp458
asg57
I2006
sg45
V130
p459
sbag1
(g2
g3
NtRp460
(dp461
g51
V10.1074/jbc.M202969200
p462
sg47
VJ BIOL CHEM
p463
sg49
V277
p464
sg78
(lp465
(VNIE
VZ Z
tp466
asg57
I2002
sg45
V48965
p467
sbag1
(g2
g3
NtRp468
(dp469
g51
V10.1007/s00709-005-0103-9
p470
sg47
VPROTOPLASMA
p471
sg49
V226
p472
sg78
(lp473
(VOVECKA
VM
tp474
asg57
I2005
sg45
VROTOPLASMA
p475
sbag1
(g2
g3
NtRp476
(dp477
g51
V10.1105/tpc.12.10.1961
p478
sg47
VPLANT CELL
p479
sg49
V12
p480
sg78
(lp481
(VPARKER
VJ S
tp482
asg57
I2000
sg45
VLANT
p483
sbag1
(g2
g3
NtRp484
(dp485
g51
V10.1104/pp.107.113654
p486
sg47
VPLANT PHYSIOL
p487
sg49
V146
p488
sg78
(lp489
(VPEREMYSLOV
VV V
tp490
asg57
I2008
sg45
VLANT
p491
sbag1
(g2
g3
NtRp492
(dp493
g51
V10.1007/s00425-002-0965-4
p494
sg47
VPLANTA
p495
sg49
V217
p496
sg78
(lp497
(VPOTOCKY
VM
tp498
asg57
I2003
sg45
VLANTA
p499
sbag1
(g2
g3
NtRp500
(dp501
g51
V10.1105/tpc.021634
p502
sg47
VPLANT CELL
p503
sg49
V16
p504
sg78
(lp505
(VPREUSS
VM L
tp506
asg57
I2004
sg45
VLANT
p507
sbag1
(g2
g3
NtRp508
(dp509
g51
V10.1083/jcb.200508116
p510
sg47
VJ CELL BIOL
p511
sg49
V172
p512
sg78
(lp513
(VPREUSS
VM L
tp514
asg57
I2006
sg45
V991
p515
sbag1
(g2
g3
NtRp516
(dp517
g51
V10.1104/pp.124.4.1637
p518
sg47
VPLANT PHYSIOL
p519
sg49
V124
p520
sg78
(lp521
(VRAMACHANDRAN
VS
tp522
asg57
I2000
sg45
VLANT
p523
sbag1
(g2
g3
NtRp524
(dp525
g51
V10.1016/j.eellsig.2003.09.012
p526
sg47
VCELL SIGNAL
p527
sg49
V16
p528
sg78
(lp529
(VRANDAZZO
VP A
tp530
asg57
I2004
sg45
V401
p531
sbag1
(g2
g3
NtRp532
(dp533
g51
V10.1042/BC20070034
p534
sg47
VBIOL CELL
p535
sg49
V99
p536
sg78
(lp537
(VRANDAZZO
VP A
tp538
asg57
I2007
sg45
V583
p539
sbag1
(g2
g3
NtRp540
(dp541
g51
V10.1104/pp.005777
p542
sg47
VPLANT PHYSIOL
p543
sg49
V129
p544
sg78
(lp545
(VRINGLI
VC
tp546
asg57
I2002
sg45
VLANT
p547
sbag1
(g2
g3
NtRp548
(dp549
g51
V10.1046/j.0960-7412.2002.01252.x
p550
sg47
VPLANT J
p551
sg49
V29
p552
sg78
(lp553
(VSAINT-JORE
VC M
tp554
asg57
I2002
sg45
VLANT
p555
sbag1
(g2
g3
NtRp556
(dp557
g51
V10.1111/j.1365-313X.2007.03327.x
p558
sg47
VPLANT J
p559
sg49
V53
p560
sg78
(lp561
(VSAKAI
VT
tp562
asg57
I2008
sg45
VLANT
p563
sbag1
(g2
g3
NtRp564
(dp565
g51
V10.1016/j.tplants.2006.10.002
p566
sg47
VTRENDS PLANT SCI
p567
sg49
V11
p568
sg78
(lp569
(VSAMAJ
VJ
tp570
asg57
I2006
sg45
V594
p571
sbag1
(g2
g3
NtRp572
(dp573
g51
V10.1105/tpc.105.039008
p574
sg47
VPLANT CELL
p575
sg49
V18
p576
sg78
(lp577
(VSIEBURTH
VL E
tp578
asg57
I2006
sg45
VLANT
p579
sbag1
(g2
g3
NtRp580
(dp581
g51
V10.1104/pp.106.077818
p582
sg47
VPLANT PHYSIOL
p583
sg49
V141
p584
sg78
(lp585
(VSONG
VX F
tp586
asg57
I2006
sg45
VLANT
p587
sbag1
(g2
g3
NtRp588
(dp589
g51
V10.1105/tpc.107.052852
p590
sg47
VPLANT CELL
p591
sg49
V20
p592
sg78
(lp593
(VSTENZEL
VI
tp594
asg57
I2008
sg45
VLANT
p595
sbag1
(g2
g3
NtRp596
(dp597
g51
V10.1126/science.1152505
p598
sg47
VSCIENCE
p599
sg49
V319
p600
sg78
(lp601
(VTAKEDA
VS
tp602
asg57
I2008
sg45
V1241
p603
sbag1
(g2
g3
NtRp604
(dp605
g51
V10.1105/tpc.107.054304
p606
sg47
VPLANT CELL
p607
sg49
V20
p608
sg78
(lp609
(VTHOLE
VJ M
tp610
asg57
I2008
sg45
VLANT
p611
sbag1
(g2
g3
NtRp612
(dp613
g51
V10.1104/pp.103.031591
p614
sg47
VPLANT PHYSIOL
p615
sg49
V136
p616
sg78
(lp617
(VVAN
VBRUAENE N
tp618
asg57
I2004
sg45
VLANT
p619
sbag1
(g2
g3
NtRp620
(dp621
g51
V10.1104/pp.013052
p622
sg47
VPLANT PHYSIOL
p623
sg49
V131
p624
sg78
(lp625
(VVERNOUD
VV
tp626
asg57
I2003
sg45
VLANT
p627
sbag1
(g2
g3
NtRp628
(dp629
g51
V10.1083/jcb.200412074
p630
sg47
VJ CELL BIOL
p631
sg49
V168
p632
sg78
(lp633
(VVINCENT
VP
tp634
asg57
I2005
sg45
V801
p635
sbag1
(g2
g3
NtRp636
(dp637
g51
V10.1111/j.1469-8137.2007.02261.x
p638
sg47
VNEW PHYTOL
p639
sg49
V177
p640
sg78
(lp641
(VWANG
VY S
tp642
asg57
I2008
sg45
V525
p643
sbag1
(g2
g3
NtRp644
(dp645
g51
V10.1104/pp.122.4.1003
p646
sg47
VPLANT PHYSIOL
p647
sg49
V122
p648
sg78
(lp649
(VWEIGEL
VD
tp650
asg57
I2000
sg45
VLANT
p651
sbag1
(g2
g3
NtRp652
(dp653
g51
V10.1105/tpc.104.028449
p654
sg47
VPLANT CELL
p655
sg49
V17
p656
sg78
(lp657
(VXU
VJ
tp658
asg57
I2005
sg45
VLANT
p659
sbag1
(g2
g3
NtRp660
(dp661
g51
Nsg47
VPLOS ONE
p662
sg49
V10
p663
sg78
(lp664
(VYANG
VG
tp665
asg57
I2007
sg45
VLOS
p666
sbag1
(g2
g3
NtRp667
(dp668
g51
V10.1104/pp.104.055665
p669
sg47
VPLANT PHYSIOL
p670
sg49
V138
p671
sg78
(lp672
(VYI
VK X
tp673
asg57
I2005
sg45
VLANT
p674
sbag1
(g2
g3
NtRp675
(dp676
g51
V10.1111/j.1365-313X.2006.02898.x
p677
sg47
VPLANT J
p678
sg49
V48
p679
sg78
(lp680
(VZHUANG
VX L
tp681
asg57
I2006
sg45
VLANT
p682
sbag1
(g2
g3
NtRp683
(dp684
g51
V10.1104/pp.104.046367
p685
sg47
VPLANT PHYSIOL
p686
sg49
V136
p687
sg78
(lp688
(VZIMMERMANN
VP
tp689
asg57
I2004
sg45
VLANT
p690
sbasb.