ccopy_reg
_reconstructor
p1
(ctethne.classes.paper
Paper
p2
c__builtin__
object
p3
NtRp4
(dp5
S'publisherCity'
p6
VROCKVILLE
p7
sS'reprintAddress'
p8
VRoux, S (reprint author), Univ Texas, Dept Bot, Austin, TX 78713 USA.
p9
sS'WC'
p10
VPlant Sciences
p11
sS'GA'
p12
V166PP
p13
sS'abstract'
p14
VATP, which is present in the extracellular matrix of multicellular organisms and in the extracellular fluid of unicellular organisms, has been shown to function as a signaling molecule in animals. The concentration of extracellular ATP (xATP) is known to be functionally modulated in part by ectoapyrases, membrane-associated proteins that cleave the gamma- and beta-phosphates on xATP. We present data showing a previously unreported (to our knowledge) linkage between apyrase and phosphate transport. An apyrase from pea (Pisum sativum) complements a yeast (Saccharomyces cerevisiae) phosphate-transport mutant and significantly increases the amount of phosphate taken up by transgenic plants overexpressing the gene. The transgenic plants show enhanced growth and augmented phosphate transport when the additional phosphate is supplied as inorganic phosphate or as ATP. When scavenging phosphate from xATP, apyrase mobilizes the gamma-phosphate without promoting the transport of the purine or the ribose.
p15
sS'pageEnd'
p16
I551
sS'publisherAddress'
p17
V15501 MONONA DRIVE, ROCKVILLE, MD 20855 USA
p18
sS'documentType'
p19
VArticle
p20
sS'subject'
p21
VPlant Sciences
p22
sS'isoSource'
p23
VPlant Physiol.
p24
sS'timesCited'
p25
(lp26
I59
aVZ9 64
p27
asS'PT'
p28
VJ
sS'title'
p29
VApyrase Functions In Plant Phosphate Nutrition And Mobilizes Phosphate From Extracellular Atp
p30
sS'ISSN'
p31
(lp32
V0032-0889
p33
aVJ9 PLANT PHYSIOL
p34
asS'authors_full'
p35
(lp36
(VTHOMAS
VC
tp37
a(VSUN
VY
tp38
a(VNAUS
VK
tp39
a(VLLOYD
VA
tp40
a(VROUX
VS
tp41
asS'PG'
p42
I9
sS'PD'
p43
VFEB
p44
sS'pageStart'
p45
I543
sS'issue'
p46
I2
sS'journal'
p47
VPLANT PHYSIOLOGY
p48
sS'volume'
p49
V119
p50
sS'doi'
p51
V10.1104/pp.119.2.543
p52
sS'emailAddress'
p53
Vsroux@uts.cc.utexas.edu
p54
sS'authorAddress'
p55
(lp56
VUniv Texas, Dept Bot, Austin, TX 78713 USA.
p57
aVUniv Texas, Inst Mol & Cellular Biol, Austin, TX 78713 USA.
p58
asS'date'
p59
I1999
sS'ER'
p60
V
sS'publisher'
p61
VAMER SOC PLANT PHYSIOLOGISTS
p62
sS'authorKeywords'
p63
(lp64
VSACCHAROMYCES-CEREVISIAE
p65
aVNUCLEOSIDE TRIPHOSPHATASE
p66
aVARABIDOPSIS-THALIANA
p67
aVPEA NUCLEI
p68
aVGENE
p69
aVTRANSPORTER
p70
aVDEFICIENT
p71
aVMUTANT
p72
aVPURIFICATION
p73
aVEXPRESSION
p74
asS'language'
p75
VEnglish
p76
sS'wosid'
p77
VWOS:000078586300021
p78
sS'citationCount'
p79
I39
sS'authors_init'
p80
(lp81
(VTHOMAS
VC
tp82
a(VSUN
VY
tp83
a(VNAUS
VK
tp84
a(VLLOYD
VA
tp85
a(VROUX
VS
tp86
asS'citedReferences'
p87
(lp88
g1
(g2
g3
NtRp89
(dp90
g51
V10.1073/pnas.90.1.312
p91
sg47
VP NATL ACAD SCI USA
p92
sg49
V90
p93
sg80
(lp94
(VABRAHAM
VE H
tp95
asg59
I1993
sg45
V312
p96
sbag1
(g2
g3
NtRp97
(dp98
g51
V10.1111/j.1399-3054.1987.tb02882.x
p99
sg47
VPHYSIOL PLANTARUM
p100
sg49
V71
p101
sg80
(lp102
(VBARCELO
VA R
tp103
asg59
I1987
sg45
VHYSIOL
p104
sbag1
(g2
g3
NtRp105
(dp106
g51
Nsg47
VMICROBIOL
p107
sg49
V143
p108
sg80
(lp109
(VBOYUM
VR
tp110
asg59
I1997
sg45
V1901
p111
sbag1
(g2
g3
NtRp112
(dp113
g51
Nsg47
VATP LUMINESCENCE RAP
p114
sg49
Nsg80
(lp115
(VBROOKES
VP C
tp116
asg59
I1989
sg45
V119
p117
sbag1
(g2
g3
NtRp118
(dp119
g51
Nsg47
VMOL CELL BIOL
p120
sg49
V11
p121
sg80
(lp122
(VBUNYA
VM
tp123
asg59
I1991
sg45
V3229
p124
sbag1
(g2
g3
NtRp125
(dp126
g51
Nsg47
VJ BIOL CHEM
p127
sg49
V267
p128
sg80
(lp129
(VCHE
VM X
tp130
asg59
I1992
sg45
V9684
p131
sbag1
(g2
g3
NtRp132
(dp133
g51
V10.1104/pp.81.2.609
p134
sg47
VPLANT PHYSIOL
p135
sg49
V81
p136
sg80
(lp137
(VCHEN
VY R
tp138
asg59
I1986
sg45
VLANT
p139
sbag1
(g2
g3
NtRp140
(dp141
g51
Nsg47
VJ BIOL CHEM
p142
sg49
V262
p143
sg80
(lp144
(VCHEN
VY R
tp145
asg59
I1987
sg45
V10689
p146
sbag1
(g2
g3
NtRp147
(dp148
g51
Nsg47
VPLANT PHYSIOL
p149
sg49
V107
p150
sg80
(lp151
(VDELHAIZE
VE
tp152
asg59
I1995
sg45
VLANT
p153
sbag1
(g2
g3
NtRp154
(dp155
g51
V10.1016/0038-0717(96)00074-0
p156
sg47
VSOIL BIOL BIOCHEM
p157
sg49
V28
p158
sg80
(lp159
(VDENOBILI
VM
tp160
asg59
I1996
sg45
V1099
p161
sbag1
(g2
g3
NtRp162
(dp163
g51
Nsg47
VJ BIOL CHEM
p164
sg49
V267
p165
sg80
(lp166
(VDUDLER
VR
tp167
asg59
I1992
sg45
V5882
p168
sbag1
(g2
g3
NtRp169
(dp170
g51
Nsg47
VBIOTECHNIQUES
p171
sg49
V13
p172
sg80
(lp173
(VELBLE
VR
tp174
asg59
I1992
sg45
V18
p175
sbag1
(g2
g3
NtRp176
(dp177
g51
V10.1006/bbrc.1996.0162
p178
sg47
VBIOCHEM BIOPH RES CO
p179
sg49
V218
p180
sg80
(lp181
(VHANDA
VM
tp182
asg59
I1996
sg45
V916
p183
sbag1
(g2
g3
NtRp184
(dp185
g51
V10.1038/378626a0
p186
sg47
VNATURE
p187
sg49
V378
p188
sg80
(lp189
(VHARRISON
VM J
tp190
asg59
I1995
sg45
V626
p191
sbag1
(g2
g3
NtRp192
(dp193
g51
V10.1007/BF00017808
p194
sg47
VPLANT MOL BIOL
p195
sg49
V30
p196
sg80
(lp197
(VHSIEH
VH L
tp198
asg59
I1996
sg45
VLANT
p199
sbag1
(g2
g3
NtRp200
(dp201
g51
V10.1016/0167-4889(95)00135-2
p202
sg47
VBBA
p203
sg49
V1310
p204
sg80
(lp205
(VKOMOSZYNSKI
VM
tp206
asg59
I1996
sg45
V233
p207
sbag1
(g2
g3
NtRp208
(dp209
g51
V10.1007/BF00331014
p210
sg47
VMOL GEN GENET
p211
sg49
V204
p212
sg80
(lp213
(VKONCZ
VC
tp214
asg59
I1986
sg45
V383
p215
sbag1
(g2
g3
NtRp216
(dp217
g51
Nsg47
VPLANT CELL
p218
sg49
V9
sg80
(lp219
(VLEGGEWIE
VG
tp220
asg59
I1997
sg45
VLANT
p221
sbag1
(g2
g3
NtRp222
(dp223
g51
Nsg47
VECTO
p224
sg49
Nsg80
(lp225
(VMARCUS
VA J
tp226
asg59
I1997
sg45
V167
p227
sbag1
(g2
g3
NtRp228
(dp229
g51
Nsg47
VPLANT PHYSIOL
p230
sg49
V64
p231
sg80
(lp232
(VMASS
VE V
tp233
asg59
I1979
sg45
VLANT
p234
sbag1
(g2
g3
NtRp235
(dp236
g51
Nsg47
VJ BACTERIOL
p237
sg49
V149
p238
sg80
(lp239
(VMATIN
VA
tp240
asg59
I1982
sg45
V801
p241
sbag1
(g2
g3
NtRp242
(dp243
g51
V10.1073/pnas.93.19.10519
p244
sg47
VP NATL ACAD SCI USA
p245
sg49
V93
p246
sg80
(lp247
(VMUCHHAL
VU S
tp248
asg59
I1996
sg45
V10519
p249
sbag1
(g2
g3
NtRp250
(dp251
g51
Nsg47
VINT REV CYTOL
p252
sg49
V158
p253
sg80
(lp254
(VPLESNER
VL
tp255
asg59
I1995
sg45
V141
p256
sbag1
(g2
g3
NtRp257
(dp258
g51
V10.1104/pp.97.3.1087
p259
sg47
VPLANT PHYSIOL
p260
sg49
V97
p261
sg80
(lp262
(VPOIRIER
VY
tp263
asg59
I1991
sg45
VLANT
p264
sbag1
(g2
g3
NtRp265
(dp266
g51
V10.1007/BF00385759
p267
sg47
VPLANTA
p268
sg49
V94
p269
sg80
(lp270
(VREID
VM S
tp271
asg59
I1970
sg45
VLANTA
p272
sbag1
(g2
g3
NtRp273
(dp274
g51
Nsg47
VJ BIOL CHEM
p275
sg49
V269
p276
sg80
(lp277
(VREISIN
VI L
tp278
asg59
I1994
sg45
V20584
p279
sbag1
(g2
g3
NtRp280
(dp281
g51
V10.1104/pp.116.2.447
p282
sg47
VPLANT PHYSIOL
p283
sg49
V116
p284
sg80
(lp285
(VSCHACHTMAN
VD P
tp286
asg59
I1998
sg45
VLANT
p287
sbag1
(g2
g3
NtRp288
(dp289
g51
V10.1016/0378-1119(87)90359-3
p290
sg47
VGENE
p291
sg49
V61
p292
sg80
(lp293
(VSCHARDL
VC L
tp294
asg59
I1987
sg45
V1
sbag1
(g2
g3
NtRp295
(dp296
g51
Nsg47
VJ PHARMACOL EXP THER
p297
sg49
V252
p298
sg80
(lp299
(VSEDAA
VK O
tp300
asg59
I1990
sg45
V1060
p301
sbag1
(g2
g3
NtRp302
(dp303
g51
Nsg47
VMETHODS CHLOROPLAST
p304
sg49
Nsg80
(lp305
(VSOMERVILLE
VC
tp306
asg59
I1982
sg45
V129
p307
sbag1
(g2
g3
NtRp308
(dp309
g51
V10.1006/bbrc.1997.6488
p310
sg47
VBIOCHEM BIOPH RES CO
p311
sg49
V234
p312
sg80
(lp313
(VSUKO
VY
tp314
asg59
I1997
sg45
V224
p315
sbag1
(g2
g3
NtRp316
(dp317
g51
V10.1038/387076a0
p318
sg47
VNATURE
p319
sg49
V387
p320
sg80
(lp321
(VTODOROV
VL D
tp322
asg59
I1997
sg45
V76
p323
sbag1
(g2
g3
NtRp324
(dp325
g51
Nsg47
VJ BACTERIOL
p326
sg49
V120
p327
sg80
(lp328
(VTOHE
VA
tp329
asg59
I1974
sg45
V608
p330
sbag1
(g2
g3
NtRp331
(dp332
g51
V10.1104/pp.101.3.1005
p333
sg47
VPLANT PHYSIOL
p334
sg49
V101
p335
sg80
(lp336
(VTONG
VC G
tp337
asg59
I1993
sg45
VLANT
p338
sbag1
(g2
g3
NtRp339
(dp340
g51
V10.1073/pnas.85.15.5536
p341
sg47
VP NATL ACAD SCI USA
p342
sg49
V85
p343
sg80
(lp344
(VVALVEKENS
VD
tp345
asg59
I1988
sg45
V5536
p346
sbag1
(g2
g3
NtRp347
(dp348
g51
Nsg47
VJ BIOL CHEM
p349
sg49
V271
p350
sg80
(lp351
(VWANG
VT F
tp352
asg59
I1996
sg45
V9898
p353
sbag1
(g2
g3
NtRp354
(dp355
g51
V10.1074/jbc.273.38.24814
p356
sg47
VJ BIOL CHEM
p357
sg49
V273
p358
sg80
(lp359
(VWANG
VT F
tp360
asg59
I1998
sg45
V24814
p361
sbag1
(g2
g3
NtRp362
(dp363
g51
V10.1007/BF00330940
p364
sg47
VMOL GEN GENET
p365
sg49
V217
p366
sg80
(lp367
(VYOSHIDA
VK
tp368
asg59
I1989
sg45
V40
p369
sbag1
(g2
g3
NtRp370
(dp371
g51
V10.1083/jcb.112.2.279
p372
sg47
VJ CELL BIOL
p373
sg49
V112
p374
sg80
(lp375
(VZHENG
VL M
tp376
asg59
I1991
sg45
V279
p377
sbasb.