ccopy_reg
_reconstructor
p1
(ctethne.classes.paper
Paper
p2
c__builtin__
object
p3
NtRp4
(dp5
S'publisherCity'
p6
VROCKVILLE
p7
sS'reprintAddress'
p8
VSheen, J (reprint author), Harvard Univ, Sch Med, Dept Genet, Boston, MA 02114 USA.
p9
sS'WC'
p10
VPlant Sciences
p11
sS'GA'
p12
V565HL
p13
sS'abstract'
p14
VIn plants, numerous Ca(2+)-stimulated protein kinase activities occur through calcium-dependent protein kinases (CDPKs). These novel calcium sensors are likely to be crucial mediators of responses to diverse endogenous and environmental cues. However, the precise biological function(s) of most CDPKs remains elusive. The Arabidopsis genome is predicted to encode 34 different CDPKs. In this Update, we analyze the Arabidopsis CDPK gene family and review the expression, regulation, and possible functions of plant CDPKs. By combining emerging cellular and genomic technologies with genetic and biochemical approaches, the characterization of Arabiclopsis CDPKs provides a valuable opportunity to understand the plant calcium-signaling network.
p15
sS'pageEnd'
p16
I485
sS'publisherAddress'
p17
V15501 MONONA DRIVE, ROCKVILLE, MD 20855 USA
p18
sS'documentType'
p19
VReview
p20
sS'subject'
p21
VPlant Sciences
p22
sS'isoSource'
p23
VPlant Physiol.
p24
sS'timesCited'
p25
(lp26
I272
aVZ9 354
p27
asS'PT'
p28
VJ
sS'title'
p29
VCalcium Signaling Through Protein Kinases. The Arabidopsis Calcium-Dependent Protein Kinase Gene Family
p30
sS'ISSN'
p31
(lp32
V0032-0889
p33
aVJ9 PLANT PHYSIOL
p34
asS'authors_full'
p35
(lp36
(VCHENG
VSH
tp37
a(VWILLMANN
VMR
tp38
a(VCHEN
VHC
tp39
a(VSHEEN
VJ
tp40
asS'PG'
p41
I17
sS'PD'
p42
VJUN
p43
sS'pageStart'
p44
I469
sS'issue'
p45
I2
sS'journal'
p46
VPLANT PHYSIOLOGY
p47
sS'volume'
p48
V129
p49
sS'doi'
p50
V10.1104/pp.005645
p51
sS'emailAddress'
p52
Vsheen@molbio.mgh.harvard.edu
p53
sS'authorAddress'
p54
(lp55
VHarvard Univ, Sch Med, Dept Genet, Boston, MA 02114 USA.
p56
aVMassachusetts Gen Hosp, Dept Mol Biol, Boston, MA 02114 USA.
p57
aVClemson Univ, Dept Biochem & Genet, Clemson, SC 29634 USA.
p58
asS'date'
p59
I2002
sS'ER'
p60
V
sS'publisher'
p61
VAMER SOC PLANT BIOLOGISTS
p62
sS'authorKeywords'
p63
(lp64
VCALMODULIN-LIKE DOMAIN
p65
aVMEMBRANE H+-ATPASE
p66
aVSUCROSE-PHOSPHATE SYNTHASE
p67
aVREGULATORY PHOSPHORYLATION SITE
p68
aVPHENYLALANINE AMMONIA-LYASE
p69
aVSPINACEA-OLERACEA LEAVES
p70
aVLEAF NITRATE REDUCTASE
p71
aVPLASMA-MEMBRANE
p72
aVHIGHER-PLANTS
p73
aVNADPH OXIDASE
p74
asS'language'
p75
VEnglish
p76
sS'wosid'
p77
VWOS:000176363800009
p78
sS'citationCount'
p79
I154
sS'authors_init'
p80
(lp81
(VCHENG
VS H
tp82
a(VWILLMANN
VM R
tp83
a(VCHEN
VH C
tp84
a(VSHEEN
VJ
tp85
asS'citedReferences'
p86
(lp87
g1
(g2
g3
NtRp88
(dp89
g50
V10.1104/pp.108.2.787
p90
sg46
VPLANT PHYSIOL
p91
sg48
V108
p92
sg80
(lp93
(VABOELSAAD
VM
tp94
asg59
I1995
sg44
VLANT
p95
sbag1
(g2
g3
NtRp96
(dp97
g50
V10.1126/science.287.5461.2185
p98
sg46
VSCIENCE
p99
sg48
V287
p100
sg80
(lp101
(VADAMS
VM D
tp102
asg59
I2000
sg44
V2185
p103
sbag1
(g2
g3
NtRp104
(dp105
g50
V10.1038/35082575
p106
sg46
VNATURE
p107
sg48
V411
p108
sg80
(lp109
(VALLEN
VG J
tp110
asg59
I2001
sg44
V1053
p111
sbag1
(g2
g3
NtRp112
(dp113
g50
V10.1126/science.289.5488.2338
p114
sg46
VSCIENCE
p115
sg48
V289
p116
sg80
(lp117
(VALLEN
VG J
tp118
asg59
I2000
sg44
V2338
p119
sbag1
(g2
g3
NtRp120
(dp121
g50
V10.1016/S0014-5793(01)02528-5
p122
sg46
VFEBS LETT
p123
sg48
V499
p124
sg80
(lp125
(VALLWOOD
VE G
tp126
asg59
I2001
sg44
V97
p127
sbag1
(g2
g3
NtRp128
(dp129
g50
V10.1016/S0014-5793(99)00998-9
p130
sg46
VFEBS LETT
p131
sg48
V457
p132
sg80
(lp133
(VALLWOOD
VE G
tp134
asg59
I1999
sg44
V47
p135
sbag1
(g2
g3
NtRp136
(dp137
g50
Nsg46
VAM SOC PLANT BIOL M
p138
sg48
Nsg80
(lp139
(VANIL
VV A
tp140
asg59
I2001
sg44
V30
p141
sbag1
(g2
g3
NtRp142
(dp143
g50
V10.1104/pp.122.4.1035
p144
sg46
VPLANT PHYSIOL
p145
sg48
V122
p146
sg80
(lp147
(VANIL
VV S
tp148
asg59
I2000
sg44
VLANT
p149
sbag1
(g2
g3
NtRp150
(dp151
g50
V10.1016/S1369-5266(00)00195-3
p152
sg46
VCURR OPIN PLANT BIOL
p153
sg48
V4
sg80
(lp154
(VASSMANN
VS M
tp155
asg59
I2001
sg44
V421
p156
sbag1
(g2
g3
NtRp157
(dp158
g50
Nsg46
VPLANT CELL
p159
sg48
V8
sg80
(lp160
(VBACHMANN
VM
tp161
asg59
I1996
sg44
VLANT
p162
sbag1
(g2
g3
NtRp163
(dp164
g50
Nsg46
VPLANT PHYSIOL
p165
sg48
V108
p166
sg80
(lp167
(VBACHMANN
VM
tp168
asg59
I1995
sg44
VLANT
p169
sbag1
(g2
g3
NtRp170
(dp171
g50
Nsg46
VPLANT CELL PHYSIOL
p172
sg48
V41
p173
sg80
(lp174
(VBERKOWITZ
VG
tp175
asg59
I2000
sg44
VLANT
p176
sbag1
(g2
g3
NtRp177
(dp178
g50
Nsg46
VP298
p179
sg48
Nsg80
(lp180
(VBETHKE
VPAUL C
tp181
asg59
I1995
sg44
V298
p182
sbag1
(g2
g3
NtRp183
(dp184
g50
V10.1021/bi00174a008
p185
sg46
VBIOCHEMISTRY
p186
sg48
V33
p187
sg80
(lp188
(VBINDER
VB M
tp189
asg59
I1994
sg44
V2033
p190
sbag1
(g2
g3
NtRp191
(dp192
g50
V10.1105/tpc.12.8.1425
p193
sg46
VPLANT CELL
p194
sg48
V12
p195
sg80
(lp196
(VBLUME
VB
tp197
asg59
I2000
sg44
VLANT
p198
sbag1
(g2
g3
NtRp199
(dp200
g50
V10.1016/S1360-1385(98)01289-8
p201
sg46
VTRENDS PLANT SCI
p202
sg48
V3
sg80
(lp203
(VBLUMWALD
VE
tp204
asg59
I1998
sg44
V342
p205
sbag1
(g2
g3
NtRp206
(dp207
g50
V10.1007/BF00019547
p208
sg46
VPLANT MOL BIOL
p209
sg48
V30
p210
sg80
(lp211
(VBOTELLA
VJ R
tp212
asg59
I1996
sg44
VLANT
p213
sbag1
(g2
g3
NtRp214
(dp215
g50
V10.1146/annurev.arplant.46.1.95
p216
sg46
VANNU REV PLANT PHYS
p217
sg48
V46
p218
sg80
(lp219
(VBUSH
VD S
tp220
asg59
I1995
sg44
V95
p221
sbag1
(g2
g3
NtRp222
(dp223
g50
V10.1034/j.1399-3054.1998.1040405.x
p224
sg46
VPHYSIOL PLANTARUM
p225
sg48
V104
p226
sg80
(lp227
(VCAMONI
VL
tp228
asg59
I1998
sg44
VHYSIOL
p229
sbag1
(g2
g3
NtRp230
(dp231
g50
V10.1016/S0014-5793(98)00696-6
p232
sg46
VFEBS LETT
p233
sg48
V430
p234
sg80
(lp235
(VCAMONI
VL
tp236
asg59
I1998
sg44
V381
p237
sbag1
(g2
g3
NtRp238
(dp239
g50
V10.1104/pp.120.3.859
p240
sg46
VPLANT PHYSIOL
p241
sg48
V120
p242
sg80
(lp243
(VCHAUDHURI
VS
tp244
asg59
I1999
sg44
VLANT
p245
sbag1
(g2
g3
NtRp246
(dp247
g50
V10.1016/S0014-5793(01)02732-6
p248
sg46
VFEBS LETT
p249
sg48
V503
p250
sg80
(lp251
(VCHENG
VS H
tp252
asg59
I2001
sg44
V185
p253
sbag1
(g2
g3
NtRp254
(dp255
g50
V10.1104/pp.128.1.256
p256
sg46
VPLANT PHYSIOL
p257
sg48
V128
p258
sg80
(lp259
(VCHICO
VJ M
tp260
asg59
I2002
sg44
VLANT
p261
sbag1
(g2
g3
NtRp262
(dp263
g50
V10.1016/S0960-9822(02)00483-9
p264
sg46
VCURR BIOL
p265
sg48
V6
sg80
(lp266
(VCHIU
VW L
tp267
asg59
I1996
sg44
V325
p268
sbag1
(g2
g3
NtRp269
(dp270
g50
V10.1093/jexbot/52.355.215
p271
sg46
VJ EXP BOT
p272
sg48
V52
p273
sg80
(lp274
(VDAVLETOVA
VS
tp275
asg59
I2001
sg44
V215
p276
sbag1
(g2
g3
NtRp277
(dp278
g50
V10.1007/s004250050621
p279
sg46
VPLANTA
p280
sg48
V209
p281
sg80
(lp282
(VDE
VNISI P
tp283
asg59
I1999
sg44
VLANTA
p284
sbag1
(g2
g3
NtRp285
(dp286
g50
V10.1016/0014-5793(95)01300-8
p287
sg46
VFEBS LETT
p288
sg48
V377
p289
sg80
(lp290
(VDOUGLAS
VP
tp291
asg59
I1995
sg44
V113
p292
sbag1
(g2
g3
NtRp293
(dp294
g50
V10.1007/s004250050419
p295
sg46
VPLANTA
p296
sg48
V206
p297
sg80
(lp298
(VDOUGLAS
VP
tp299
asg59
I1998
sg44
VLANTA
p300
sbag1
(g2
g3
NtRp301
(dp302
g50
Nsg46
VBIOCHEM J
p303
sg48
V325
p304
sg80
(lp305
(VDOUGLAS
VP
tp306
asg59
I1997
sg44
V101
p307
sbag1
(g2
g3
NtRp308
(dp309
g50
V10.1023/A:1006125918023
p310
sg46
VPLANT MOL BIOL
p311
sg48
V39
p312
sg80
(lp313
(VELLARD-IVEY
VM
tp314
asg59
I1999
sg44
VLANT
p315
sbag1
(g2
g3
NtRp316
(dp317
g50
V10.1073/pnas.91.19.8837
p318
sg46
VP NATL ACAD SCI USA
p319
sg48
V91
p320
sg80
(lp321
(VESTRUCH
VJ J
tp322
asg59
I1994
sg44
V8837
p323
sbag1
(g2
g3
NtRp324
(dp325
g50
V10.1016/S1369-5266(00)00194-1
p326
sg46
VCURR OPIN PLANT BIOL
p327
sg48
V4
sg80
(lp328
(VEVANS
VN H
tp329
asg59
I2001
sg44
V415
p330
sbag1
(g2
g3
NtRp331
(dp332
g50
Nsg46
VJ CELL BIOCH S
p333
sg48
V21
p334
sg80
(lp335
(VFARMER
VP K
tp336
asg59
I1995
sg44
V507
p337
sbag1
(g2
g3
NtRp338
(dp339
g50
V10.1016/S0167-4838(99)00166-1
p340
sg46
VBBA
p341
sg48
V1434
p342
sg80
(lp343
(VFARMER
VP K
tp344
asg59
I1999
sg44
V6
sbag1
(g2
g3
NtRp345
(dp346
g50
Nsg46
VPLANT CELL PHYSIOL
p347
sg48
V41
p348
sg80
(lp349
(VFELLBRICH
VG
tp350
asg59
I2000
sg44
VLANT
p351
sbag1
(g2
g3
NtRp352
(dp353
g50
V10.1093/pcp/pce150
p354
sg46
VPLANT CELL PHYSIOL
p355
sg48
V42
p356
sg80
(lp357
(VFURUICHI
VT
tp358
asg59
I2001
sg44
VLANT
p359
sbag1
(g2
g3
NtRp360
(dp361
g50
V10.1016/S0031-9422(98)00473-7
p362
sg46
VPHYTOCHEMISTRY
p363
sg48
V52
p364
sg80
(lp365
(VGANGULY
VS
tp366
asg59
I1999
sg44
VHYTOCHEMISTRY
p367
sbag1
(g2
g3
NtRp368
(dp369
g50
V10.1046/j.1365-313x.2000.00804.x
p370
sg46
VPLANT J
p371
sg48
V23
p372
sg80
(lp373
(VGRANT
VM
tp374
asg59
I2000
sg44
VLANT
p375
sbag1
(g2
g3
NtRp376
(dp377
g50
V10.1007/s004250050675
p378
sg46
VPLANTA
p379
sg48
V210
p380
sg80
(lp381
(VGUENTHER
VJ F
tp382
asg59
I2000
sg44
VLANTA
p383
sbag1
(g2
g3
NtRp384
(dp385
g50
Nsg46
VFASEB J
p386
sg48
V9
sg80
(lp387
(VHANKS
VS K
tp388
asg59
I1995
sg44
V546
p389
sbag1
(g2
g3
NtRp390
(dp391
g50
V10.1016/S1360-1385(00)01577-6
p392
sg46
VTRENDS PLANT SCI
p393
sg48
V5
sg80
(lp394
(VHARMON
VA C
tp395
asg59
I2000
sg44
V154
p396
sbag1
(g2
g3
NtRp397
(dp398
g50
V10.1046/j.1469-8137.2001.00171.x
p399
sg46
VNEW PHYTOL
p400
sg48
V151
p401
sg80
(lp402
(VHARMON
VA C
tp403
asg59
I2001
sg44
V175
p404
sbag1
(g2
g3
NtRp405
(dp406
g50
Nsg46
VMEMBRANES SPECIALIZE
p407
sg48
Nsg80
(lp408
(VHARMON
VA C
tp409
asg59
I1996
sg44
V137
p410
sbag1
(g2
g3
NtRp411
(dp412
g50
V10.1021/bi00189a032
p413
sg46
VBIOCHEMISTRY
p414
sg48
V33
p415
sg80
(lp416
(VHARMON
VA C
tp417
asg59
I1994
sg44
V7278
p418
sbag1
(g2
g3
NtRp419
(dp420
g50
V10.1104/pp.83.4.830
p421
sg46
VPLANT PHYSIOL
p422
sg48
V83
p423
sg80
(lp424
(VHARMON
VA C
tp425
asg59
I1987
sg44
VLANT
p426
sbag1
(g2
g3
NtRp427
(dp428
g50
V10.1021/bi00189a031
p429
sg46
VBIOCHEMISTRY
p430
sg48
V33
p431
sg80
(lp432
(VHARPER
VJ F
tp433
asg59
I1994
sg44
V7267
p434
sbag1
(g2
g3
NtRp435
(dp436
g50
V10.1126/science.1852075
p437
sg46
VSCIENCE
p438
sg48
V252
p439
sg80
(lp440
(VHARPER
VJ F
tp441
asg59
I1991
sg44
V951
p442
sbag1
(g2
g3
NtRp443
(dp444
g50
V10.1016/S1360-1385(01)02023-4
p445
sg46
VTRENDS PLANT SCI
p446
sg48
V6
sg80
(lp447
(VHARPER
VJ F
tp448
asg59
I2001
sg44
V395
p449
sbag1
(g2
g3
NtRp450
(dp451
g50
V10.1021/bi00064a010
p452
sg46
VBIOCHEMISTRY
p453
sg48
V32
p454
sg80
(lp455
(VHARPER
VJ F
tp456
asg59
I1993
sg44
V3282
p457
sbag1
(g2
g3
NtRp458
(dp459
g50
V10.1146/annurev.cellbio.17.1.159
p460
sg46
VANNU REV CELL DEV BI
p461
sg48
V17
p462
sg80
(lp463
(VHEPLER
VP K
tp464
asg59
I2001
sg44
V159
p465
sbag1
(g2
g3
NtRp466
(dp467
g50
V10.1016/0014-5793(82)81208-8
p468
sg46
VFEBS LETT
p469
sg48
V145
p470
sg80
(lp471
(VHETHERINGTON
VA
tp472
asg59
I1982
sg44
V67
p473
sbag1
(g2
g3
NtRp474
(dp475
g50
Nsg46
VNUCLEIC ACIDS RES
p476
sg48
V2
sg80
(lp477
(VHOFMANN
VK
tp478
asg59
I1999
sg44
V215
p479
sbag1
(g2
g3
NtRp480
(dp481
g50
V10.1007/BF00019557
p482
sg46
VPLANT MOL BIOL
p483
sg48
V30
p484
sg80
(lp485
(VHONG
VY
tp486
asg59
I1996
sg44
VLANT
p487
sbag1
(g2
g3
NtRp488
(dp489
g50
V10.1007/BF00021802
p490
sg46
VPLANT MOL BIOL
p491
sg48
V31
p492
sg80
(lp493
(VHRABAK
VE M
tp494
asg59
I1996
sg44
VLANT
p495
sbag1
(g2
g3
NtRp496
(dp497
g50
V10.1016/S0065-2296(00)32025-0
p498
sg46
VADV BOT RES
p499
sg48
V32
p500
sg80
(lp501
(VHRABAK
VE M
tp502
asg59
I2000
sg44
V185
p503
sbag1
(g2
g3
NtRp504
(dp505
g50
V10.1006/abbi.2001.2476
p506
sg46
VARCH BIOCHEM BIOPHYS
p507
sg48
V393
p508
sg80
(lp509
(VHUANG
VJ Z
tp510
asg59
I2001
sg44
V61
p511
sbag1
(g2
g3
NtRp512
(dp513
g50
V10.1093/pcp/pce137
p514
sg46
VPLANT CELL PHYSIOL
p515
sg48
V42
p516
sg80
(lp517
(VHUANG
VJ Z
tp518
asg59
I2001
sg44
VLANT
p519
sbag1
(g2
g3
NtRp520
(dp521
g50
V10.1146/annurev.arplant.47.1.431
p522
sg46
VANNU REV PLANT PHYS
p523
sg48
V47
p524
sg80
(lp525
(VHUBER
VS C
tp526
asg59
I1996
sg44
V431
p527
sbag1
(g2
g3
NtRp528
(dp529
g50
Nsg46
VCUR TOP PL
p530
sg48
V13
p531
sg80
(lp532
(VHUBER
VS C
tp533
asg59
I1995
sg44
V35
p534
sbag1
(g2
g3
NtRp535
(dp536
g50
Nsg46
VPLANT PHYSIOL
p537
sg48
V112
p538
sg80
(lp539
(VHUBER
VC
tp540
asg59
I1996
sg44
VLANT
p541
sbag1
(g2
g3
NtRp542
(dp543
g50
V10.1038/35096500
p544
sg46
VNATURE
p545
sg48
V413
p546
sg80
(lp547
(VHWANG
VI
tp548
asg59
I2001
sg44
V383
p549
sbag1
(g2
g3
NtRp550
(dp551
g50
V10.1073/pnas.97.11.6224
p552
sg46
VP NATL ACAD SCI USA
p553
sg48
V97
p554
sg80
(lp555
(VHWANG
VI
tp556
asg59
I2000
sg44
V6224
p557
sbag1
(g2
g3
NtRp558
(dp559
g50
Nsg46
VPLANT CELL PHYSIOL
p560
sg48
V39
p561
sg80
(lp562
(VIWATA
VY
tp563
asg59
I1998
sg44
VLANT
p564
sbag1
(g2
g3
NtRp565
(dp566
g50
Nsg46
VEMBO J
p567
sg48
V6
sg80
(lp568
(VJEFFERSON
VR A
tp569
asg59
I1987
sg44
V3901
p570
sbag1
(g2
g3
NtRp571
(dp572
g50
Nsg46
VPLANT CELL
p573
sg48
V10
p574
sg80
(lp575
(VJOHANSSON
VI
tp576
asg59
I1998
sg44
VLANT
p577
sbag1
(g2
g3
NtRp578
(dp579
g50
V10.1126/science.7569925
p580
sg46
VSCIENCE
p581
sg48
V269
p582
sg80
(lp583
(VJOHNSON
VC H
tp584
asg59
I1995
sg44
V1863
p585
sbag1
(g2
g3
NtRp586
(dp587
g50
V10.1146/annurev.bi.63.070194.004253
p588
sg46
VANNU REV BIOCHEM
p589
sg48
V63
p590
sg80
(lp591
(VJOHNSON
VD R
tp592
asg59
I1994
sg44
V869
p593
sbag1
(g2
g3
NtRp594
(dp595
g50
V10.1093/jexbot/52.363.1981
p596
sg46
VJ EXP BOT
p597
sg48
V52
p598
sg80
(lp599
(VKAISER
VW M
tp600
asg59
I2001
sg44
V1981
p601
sbag1
(g2
g3
NtRp602
(dp603
g50
V10.1105/tpc.10.2.255
p604
sg46
VPLANT CELL
p605
sg48
V10
p606
sg80
(lp607
(VKELLER
VT
tp608
asg59
I1998
sg44
VLANT
p609
sbag1
(g2
g3
NtRp610
(dp611
g50
V10.1016/S1360-1385(01)01946-X
p612
sg46
VTRENDS PLANT SCI
p613
sg48
V6
sg80
(lp614
(VKNIGHT
VH
tp615
asg59
I2001
sg44
V262
p616
sbag1
(g2
g3
NtRp617
(dp618
g50
V10.1073/pnas.93.15.8145
p619
sg46
VP NATL ACAD SCI USA
p620
sg48
V93
p621
sg80
(lp622
(VKRYSAN
VP J
tp623
asg59
I1996
sg44
V8145
p624
sbag1
(g2
g3
NtRp625
(dp626
g50
Nsg46
VSEX PLANT REPROD
p627
sg48
V9
sg80
(lp628
(VKUNZ
VC
tp629
asg59
I1996
sg44
V25
p630
sbag1
(g2
g3
NtRp631
(dp632
g50
V10.1038/35057062
p633
sg46
VNATURE
p634
sg48
V409
p635
sg80
(lp636
(VLANDER
VE S
tp637
asg59
I2001
sg44
V860
p638
sbag1
(g2
g3
NtRp639
(dp640
g50
Nsg46
VJ BIOL CHEM
p641
sg48
V270
p642
sg80
(lp643
(VLEE
VJ W
tp644
asg59
I1995
sg44
V27051
p645
sbag1
(g2
g3
NtRp646
(dp647
g50
V10.1021/bi980062q
p648
sg46
VBIOCHEMISTRY
p649
sg48
V37
p650
sg80
(lp651
(VLEE
VJ Y
tp652
asg59
I1998
sg44
V6801
p653
sbag1
(g2
g3
NtRp654
(dp655
g50
Nsg46
VAM SOC PLANT BIOL M
p656
sg48
Nsg80
(lp657
(VLEE
VS S
tp658
asg59
I2001
sg44
V186
p659
sbag1
(g2
g3
NtRp660
(dp661
g50
V10.1104/pp.116.2.785
p662
sg46
VPLANT PHYSIOL
p663
sg48
V116
p664
sg80
(lp665
(VLI
VJ X
tp666
asg59
I1998
sg44
VLANT
p667
sbag1
(g2
g3
NtRp668
(dp669
g50
V10.1007/s004250050266
p670
sg46
VPLANTA
p671
sg48
V204
p672
sg80
(lp673
(VLINO
VB
tp674
asg59
I1998
sg44
VLANTA
p675
sbag1
(g2
g3
NtRp676
(dp677
g50
Nsg46
VAM SOC PLANT BIOL M
p678
sg48
Nsg80
(lp679
(VLIU
VF
tp680
asg59
I2001
sg44
V35
p681
sbag1
(g2
g3
NtRp682
(dp683
g50
V10.1046/j.1432-1327.2000.01002.x
p684
sg46
VEUR J BIOCHEM
p685
sg48
V267
p686
sg80
(lp687
(VLOOG
VM
tp688
asg59
I2000
sg44
V337
p689
sbag1
(g2
g3
NtRp690
(dp691
g50
V10.1104/pp.010770
p692
sg46
VPLANT PHYSIOL
p693
sg48
V128
p694
sg80
(lp695
(VLU
VS X
tp696
asg59
I2002
sg44
VLANT
p697
sbag1
(g2
g3
NtRp698
(dp699
g50
Nsg46
VAM SOC PLANT BIOL M
p700
sg48
Nsg80
(lp701
(VLU
VS X
tp702
asg59
I2001
sg44
V36
p703
sbag1
(g2
g3
NtRp704
(dp705
g50
Nsg46
VPLANT PHYSIOL
p706
sg48
V112
p707
sg80
(lp708
(VMACINTOSH
VG C
tp709
asg59
I1996
sg44
VLANT
p710
sbag1
(g2
g3
NtRp711
(dp712
g50
V10.1007/PL00000848
p713
sg46
VCELL MOL LIFE SCI
p714
sg48
V58
p715
sg80
(lp716
(VMACKINTOSH
VC
tp717
asg59
I2001
sg44
V205
p718
sbag1
(g2
g3
NtRp719
(dp720
g50
V10.1098/rstb.1998.0302
p721
sg46
VPHILOS T ROY SOC B
p722
sg48
V353
p723
sg80
(lp724
(VMALHO
VR
tp725
asg59
I1998
sg44
VHILOS
p726
sbag1
(g2
g3
NtRp727
(dp728
g50
V10.1104/pp.125.3.1442
p729
sg46
VPLANT PHYSIOL
p730
sg48
V125
p731
sg80
(lp732
(VMARTIN
VM L
tp733
asg59
I2001
sg44
VLANT
p734
sbag1
(g2
g3
NtRp735
(dp736
g50
V10.1046/j.1365-313x.2000.00889.x
p737
sg46
VPLANT J
p738
sg48
V24
p739
sg80
(lp740
(VMARTIN
VM L
tp741
asg59
I2000
sg44
VLANT
p742
sbag1
(g2
g3
NtRp743
(dp744
g50
V10.1034/j.1399-3054.1997.1000102.x
p745
sg46
VPHYSIOL PLANTARUM
p746
sg48
V100
p747
sg80
(lp748
(VMCAINSH
VM R
tp749
asg59
I1997
sg44
VHYSIOL
p750
sbag1
(g2
g3
NtRp751
(dp752
g50
V10.1007/BF01379284
p753
sg46
VPROTOPLASMA
p754
sg48
V171
p755
sg80
(lp756
(VMCCURDY
VD W
tp757
asg59
I1992
sg44
VROTOPLASMA
p758
sbag1
(g2
g3
NtRp759
(dp760
g50
V10.1006/abbi.1995.1369
p761
sg46
VARCH BIOCHEM BIOPHYS
p762
sg48
V321
p763
sg80
(lp764
(VMCMICHAEL
VR W
tp765
asg59
I1995
sg44
V71
p766
sbag1
(g2
g3
NtRp767
(dp768
g50
V10.1006/abbi.1993.1586
p769
sg46
VARCH BIOCHEM BIOPHYS
p770
sg48
V307
p771
sg80
(lp772
(VMCMICHAEL
VR W
tp773
asg59
I1993
sg44
V248
p774
sbag1
(g2
g3
NtRp775
(dp776
g50
Nsg46
VPLANT PHYSIOL
p777
sg48
V108
p778
sg80
(lp779
(VMCMICHAEL
VR W
tp780
asg59
I1995
sg44
VLANT
p781
sbag1
(g2
g3
NtRp782
(dp783
g50
Nsg46
VPLANT PHYSIOL
p784
sg48
V105
p785
sg80
(lp786
(VMEHDY
VM C
tp787
asg59
I1994
sg44
VLANT
p788
sbag1
(g2
g3
NtRp789
(dp790
g50
V10.1038/326397a0
p791
sg46
VNATURE
p792
sg48
V326
p793
sg80
(lp794
(VMILLER
VA J
tp795
asg59
I1987
sg44
V397
p796
sbag1
(g2
g3
NtRp797
(dp798
g50
V10.1016/S0968-0004(00)89004-0
p799
sg46
VTRENDS BIOCHEM SCI
p800
sg48
V20
p801
sg80
(lp802
(VMILLIGAN
VG
tp803
asg59
I1995
sg44
V181
p804
sbag1
(g2
g3
NtRp805
(dp806
g50
Nsg46
VPLANT CELL
p807
sg48
V7
sg80
(lp808
(VMONROY
VA F
tp809
asg59
I1995
sg44
VLANT
p810
sbag1
(g2
g3
NtRp811
(dp812
g50
V10.1016/S0005-2736(00)00128-0
p813
sg46
VBBA
p814
sg48
V1465
p815
sg80
(lp816
(VMORSOMME
VP
tp817
asg59
I2000
sg44
V1
sbag1
(g2
g3
NtRp818
(dp819
g50
Nsg46
VPLANT CELL
p820
sg48
V10
p821
sg80
(lp822
(VMOUTINHO
VA
tp823
asg59
I1998
sg44
VLANT
p824
sbag1
(g2
g3
NtRp825
(dp826
g50
Nsg46
VPLANT CELL PHYSIOL
p827
sg48
V39
p828
sg80
(lp829
(VNAKAI
VT
tp830
asg59
I1998
sg44
VLANT
p831
sbag1
(g2
g3
NtRp832
(dp833
g50
V10.1016/0167-4838(96)00007-6
p834
sg46
VBBA
p835
sg48
V1295
p836
sg80
(lp837
(VNEUMANN
VG M
tp838
asg59
I1996
sg44
V34
p839
sbag1
(g2
g3
NtRp840
(dp841
g50
V10.1016/0168-9452(93)90202-B
p842
sg46
VPLANT SCI
p843
sg48
V92
p844
sg80
(lp845
(VNEUMANN
VG M
tp846
asg59
I1993
sg44
VLANT
p847
sbag1
(g2
g3
NtRp848
(dp849
g50
Nsg46
VINT J PEPT PROT RES
p850
sg48
V47
p851
sg80
(lp852
(VNEUMANN
VG M
tp853
asg59
I1996
sg44
V437
p854
sbag1
(g2
g3
NtRp855
(dp856
g50
V10.1016/0168-9452(95)04307-1
p857
sg46
VPLANT SCI
p858
sg48
V114
p859
sg80
(lp860
(VNEUMANN
VG M
tp861
asg59
I1996
sg44
VLANT
p862
sbag1
(g2
g3
NtRp863
(dp864
g50
V10.1016/0168-9452(94)90223-2
p865
sg46
VPLANT SCI
p866
sg48
V96
p867
sg80
(lp868
(VNEUMANN
VG M
tp869
asg59
I1994
sg44
VLANT
p870
sbag1
(g2
g3
NtRp871
(dp872
g50
Nsg46
VPLANT CELL PHYSIOL
p873
sg48
V40
p874
sg80
(lp875
(VNISHIYAMA
VR
tp876
asg59
I1999
sg44
VLANT
p877
sbag1
(g2
g3
NtRp878
(dp879
g50
V10.1016/S1360-1385(01)02019-2
p880
sg46
VTRENDS PLANT SCI
p881
sg48
V6
sg80
(lp882
(VNURNBERGER
VT
tp883
asg59
I2001
sg44
V372
p884
sbag1
(g2
g3
NtRp885
(dp886
g50
Nsg46
VPLANT CELL PHYSIOL
p887
sg48
V39
p888
sg80
(lp889
(VOGAWA
VN
tp890
asg59
I1998
sg44
VLANT
p891
sbag1
(g2
g3
NtRp892
(dp893
g50
V10.1046/j.1365-313x.2000.00912.x
p894
sg46
VPLANT J
p895
sg48
V24
p896
sg80
(lp897
(VPATHARKAR
VO R
tp898
asg59
I2000
sg44
VLANT
p899
sbag1
(g2
g3
NtRp900
(dp901
g50
Nsg46
VEMBO J
p902
sg48
V15
p903
sg80
(lp904
(VPEI
VZ M
tp905
asg59
I1996
sg44
V6564
p906
sbag1
(g2
g3
NtRp907
(dp908
g50
V10.1002/cm.970120103
p909
sg46
VCELL MOTIL CYTOSKEL
p910
sg48
V12
p911
sg80
(lp912
(VPUTNAMEVANS
VC
tp913
asg59
I1989
sg44
V12
p914
sbag1
(g2
g3
NtRp915
(dp916
g50
V10.1023/A:1010661304980
p917
sg46
VPLANT MOL BIOL
p918
sg48
V46
p919
sg80
(lp920
(VRAICES
VM
tp921
asg59
I2001
sg44
VLANT
p922
sbag1
(g2
g3
NtRp923
(dp924
g50
V10.1146/annurev.pp.43.060192.002111
p925
sg46
VANNU REV PLANT PHYS
p926
sg48
V43
p927
sg80
(lp928
(VROBERTS
VD M
tp929
asg59
I1992
sg44
V375
p930
sbag1
(g2
g3
NtRp931
(dp932
g50
V10.1093/emboj/20.20.5556
p933
sg46
VEMBO J
p934
sg48
V20
p935
sg80
(lp936
(VROMEIS
VT
tp937
asg59
I2001
sg44
V5556
p938
sbag1
(g2
g3
NtRp939
(dp940
g50
V10.1105/tpc.12.5.803
p941
sg46
VPLANT CELL
p942
sg48
V12
p943
sg80
(lp944
(VROMEIS
VT
tp945
asg59
I2000
sg44
VLANT
p946
sbag1
(g2
g3
NtRp947
(dp948
g50
V10.1046/j.1469-8137.2001.00173.x
p949
sg46
VNEW PHYTOL
p950
sg48
V151
p951
sg80
(lp952
(VRUDD
VJ J
tp953
asg59
I2001
sg44
V7
sbag1
(g2
g3
NtRp954
(dp955
g50
Nsg46
VBIOCHEM J
p956
sg48
V305
p957
sg80
(lp958
(VSAHA
VP
tp959
asg59
I1995
sg44
V205
p960
sbag1
(g2
g3
NtRp961
(dp962
g50
V10.1046/j.1365-313x.2000.00787.x
p963
sg46
VPLANT J
p964
sg48
V23
p965
sg80
(lp966
(VSAIJO
VY
tp967
asg59
I2000
sg44
VLANT
p968
sbag1
(g2
g3
NtRp969
(dp970
g50
V10.1093/pcp/pce158
p971
sg46
VPLANT CELL PHYSIOL
p972
sg48
V42
p973
sg80
(lp974
(VSAIJO
VY
tp975
asg59
I2001
sg44
VLANT
p976
sbag1
(g2
g3
NtRp977
(dp978
g50
Nsg46
VNATURE
p979
sg48
V408
p980
sg80
(lp981
(VSALANOUBAT
VM
tp982
asg59
I2000
sg44
V820
p983
sbag1
(g2
g3
NtRp984
(dp985
g50
Nsg46
VPLANT CELL
p986
sg48
V11
p987
sg80
(lp988
(VSANDERS
VD
tp989
asg59
I1999
sg44
VLANT
p990
sbag1
(g2
g3
NtRp991
(dp992
g50
V10.1007/s002329900406
p993
sg46
VJ MEMBRANE BIOL
p994
sg48
V164
p995
sg80
(lp996
(VSATTERLEE
VJ S
tp997
asg59
I1998
sg44
V205
p998
sbag1
(g2
g3
NtRp999
(dp1000
g50
Nsg46
VPLANT CELL
p1001
sg48
V11
p1002
sg80
(lp1003
(VSCHALLER
VA
tp1004
asg59
I1999
sg44
VLANT
p1005
sbag1
(g2
g3
NtRp1006
(dp1007
g50
V10.1007/BF00958964
p1008
sg46
VPLANTA
p1009
sg48
V173
p1010
sg80
(lp1011
(VSCHALLER
VG E
tp1012
asg59
I1988
sg44
VLANTA
p1013
sbag1
(g2
g3
NtRp1014
(dp1015
g50
V10.1021/bi00121a020
p1016
sg46
VBIOCHEMISTRY
p1017
sg48
V31
p1018
sg80
(lp1019
(VSCHALLER
VG E
tp1020
asg59
I1992
sg44
V1721
p1021
sbag1
(g2
g3
NtRp1022
(dp1023
g50
V10.1038/35066500
p1024
sg46
VNATURE
p1025
sg48
V410
p1026
sg80
(lp1027
(VSCHROEDER
VJ I
tp1028
asg59
I2001
sg44
V327
p1029
sbag1
(g2
g3
NtRp1030
(dp1031
g50
V10.1146/annurev.arplant.52.1.627
p1032
sg46
VANNU REV PLANT PHYS
p1033
sg48
V52
p1034
sg80
(lp1035
(VSCHROEDER
VJ I
tp1036
asg59
I2001
sg44
V627
p1037
sbag1
(g2
g3
NtRp1038
(dp1039
g50
V10.1016/0968-0004(89)90045-5
p1040
sg46
VTRENDS BIOCHEM SCI
p1041
sg48
V14
p1042
sg80
(lp1043
(VSCHULMAN
VH
tp1044
asg59
I1989
sg44
V62
p1045
sbag1
(g2
g3
NtRp1046
(dp1047
g50
V10.1126/science.274.5294.1900
p1048
sg46
VSCIENCE
p1049
sg48
V274
p1050
sg80
(lp1051
(VSHEEN
VJ
tp1052
asg59
I1996
sg44
V1900
p1053
sbag1
(g2
g3
NtRp1054
(dp1055
g50
V10.1073/pnas.050582197
p1056
sg46
VP NATL ACAD SCI USA
p1057
sg48
V97
p1058
sg80
(lp1059
(VSHINOHARA
VN
tp1060
asg59
I2000
sg44
V2585
p1061
sbag1
(g2
g3
NtRp1062
(dp1063
g50
V10.1007/BF00037045
p1064
sg46
VPLANT MOL BIOL
p1065
sg48
V17
p1066
sg80
(lp1067
(VSUEN
VK L
tp1068
asg59
I1991
sg44
VLANT
p1069
sbag1
(g2
g3
NtRp1070
(dp1071
g50
Nsg46
VAM SOC PLANT BIOL M
p1072
sg48
Nsg80
(lp1073
(VSWEGLE
VM
tp1074
asg59
I2001
sg44
V137
p1075
sbag1
(g2
g3
NtRp1076
(dp1077
g50
Nsg46
VPlant Molecular Biology
p1078
sg48
V29
p1079
sg80
(lp1080
(VTHUEMMLER
VFRITZ
tp1081
asg59
I1995
sg44
Vlant
p1082
sbag1
(g2
g3
NtRp1083
(dp1084
g50
V10.1016/S1369-5266(98)80267-7
p1085
sg46
VCURR OPIN PLANT BIOL
p1086
sg48
V1
sg80
(lp1087
(VTHULEAU
VP
tp1088
asg59
I1998
sg44
V424
p1089
sbag1
(g2
g3
NtRp1090
(dp1091
g50
V10.1006/abbi.1998.0740
p1092
sg46
VARCH BIOCHEM BIOPHYS
p1093
sg48
V355
p1094
sg80
(lp1095
(VTOROSER
VD
tp1096
asg59
I1998
sg44
V291
p1097
sbag1
(g2
g3
NtRp1098
(dp1099
g50
Nsg46
VANNU REV BIOCHEM
p1100
sg48
V57
p1101
sg80
(lp1102
(VTOWLER
VD A
tp1103
asg59
I1988
sg44
V69
p1104
sbag1
(g2
g3
NtRp1105
(dp1106
g50
Nsg46
VPLANT PHYSIOL
p1107
sg48
V20
p1108
sg80
(lp1109
(VTREWAVAS
VA
tp1110
asg59
I1999
sg44
VLANT
p1111
sbag1
(g2
g3
NtRp1112
(dp1113
g50
Nsg46
VMOL GEN GENET
p1114
sg48
V244
p1115
sg80
(lp1116
(VURAO
VT
tp1117
asg59
I1994
sg44
V331
p1118
sbag1
(g2
g3
NtRp1119
(dp1120
g50
V10.1104/pp.111.3.857
p1121
sg46
VPLANT PHYSIOL
p1122
sg48
V111
p1123
sg80
(lp1124
(VVANDERHOEVEN
VP C J
tp1125
asg59
I1996
sg44
VLANT
p1126
sbag1
(g2
g3
NtRp1127
(dp1128
g50
V10.1126/science.1058040
p1129
sg46
VSCIENCE
p1130
sg48
V291
p1131
sg80
(lp1132
(VVENTER
VJ C
tp1133
asg59
I2001
sg44
V1304
p1134
sbag1
(g2
g3
NtRp1135
(dp1136
g50
V10.1073/pnas.95.23.13959
p1137
sg46
VP NATL ACAD SCI USA
p1138
sg48
V95
p1139
sg80
(lp1140
(VWATERHOUSE
VP M
tp1141
asg59
I1998
sg44
V13959
p1142
sbag1
(g2
g3
NtRp1143
(dp1144
g50
V10.1021/bi00152a035
p1145
sg46
VBIOCHEMISTRY
p1146
sg48
V31
p1147
sg80
(lp1148
(VWEAVER
VC D
tp1149
asg59
I1992
sg44
V8954
p1150
sbag1
(g2
g3
NtRp1151
(dp1152
g50
V10.1016/S0014-5793(97)01506-8
p1153
sg46
VFEBS LETT
p1154
sg48
V420
p1155
sg80
(lp1156
(VWINTER
VH
tp1157
asg59
I1997
sg44
V151
p1158
sbag1
(g2
g3
NtRp1159
(dp1160
g50
V10.1094/MPMI.2001.14.10.1261
p1161
sg46
VMOL PLANT MICROBE IN
p1162
sg48
V14
p1163
sg80
(lp1164
(VXING
VT
tp1165
asg59
I2001
sg44
V1261
p1166
sbag1
(g2
g3
NtRp1167
(dp1168
g50
Nsg46
VPLANT CELL
p1169
sg48
V9
sg80
(lp1170
(VXING
VT
tp1171
asg59
I1997
sg44
VLANT
p1172
sbag1
(g2
g3
NtRp1173
(dp1174
g50
Nsg46
VPLANT CELL
p1175
sg48
V10
p1176
sg80
(lp1177
(VXU
VH X
tp1178
asg59
I1998
sg44
VLANT
p1179
sbag1
(g2
g3
NtRp1180
(dp1181
g50
Nsg46
VPLANT CELL PHYSL
p1182
sg48
V41
p1183
sg80
(lp1184
(VYANG
VG
tp1185
asg59
I2001
sg44
VLANT
p1186
sbag1
(g2
g3
NtRp1187
(dp1188
g50
Nsg46
VJ BIOL CHEM
p1189
sg48
V269
p1190
sg80
(lp1191
(VYANG
VW
tp1192
asg59
I1994
sg44
V3852
p1193
sbag1
(g2
g3
NtRp1194
(dp1195
g50
V10.1023/A:1006170512542
p1196
sg46
VPLANT MOL BIOL
p1197
sg48
V39
p1198
sg80
(lp1199
(VYOON
VG M
tp1200
asg59
I1999
sg44
VLANT
p1201
sbag1
(g2
g3
NtRp1202
(dp1203
g50
V10.1139/bcb-76-2-3-313
p1204
sg46
VBIOCHEM CELL BIOL
p1205
sg48
V76
p1206
sg80
(lp1207
(VZHANG
VM J
tp1208
asg59
I1998
sg44
V313
p1209
sbag1
(g2
g3
NtRp1210
(dp1211
g50
V10.1006/abbi.1999.1415
p1212
sg46
VARCH BIOCHEM BIOPHYS
p1213
sg48
V371
p1214
sg80
(lp1215
(VZHANG
VX Q
tp1216
asg59
I1999
sg44
V70
p1217
sbag1
(g2
g3
NtRp1218
(dp1219
g50
V10.1016/S0014-5793(97)00537-1
p1220
sg46
VFEBS LETT
p1221
sg48
V410
p1222
sg80
(lp1223
(VZHANG
VX Q
tp1224
asg59
I1997
sg44
V126
p1225
sbag1
(g2
g3
NtRp1226
(dp1227
g50
V10.1007/s002390010211
p1228
sg46
VJ MOL EVOL
p1229
sg48
V53
p1230
sg80
(lp1231
(VZHANG
VX R S
tp1232
asg59
I2001
sg44
V214
p1233
sbag1
(g2
g3
NtRp1234
(dp1235
g50
V10.1021/bi00178a031
p1236
sg46
VBIOCHEMISTRY
p1237
sg48
V33
p1238
sg80
(lp1239
(VZHAO
VY
tp1240
asg59
I1994
sg44
V3714
p1241
sbag1
(g2
g3
NtRp1242
(dp1243
g50
Nsg46
VNAT GENET
p1244
sg48
V26
p1245
sg80
(lp1246
(VZHU
VH
tp1247
asg59
I2000
sg44
V283
p1248
sbasb.