ccopy_reg
_reconstructor
p1
(ctethne.classes.paper
Paper
p2
c__builtin__
object
p3
NtRp4
(dp5
S'publisherCity'
p6
VROCKVILLE
p7
sS'reprintAddress'
p8
VBezanilla, M (reprint author), Washington Univ, Dept Biol, 1 Brookings Dr, St Louis, MO 63130 USA.
p9
sS'WC'
p10
VPlant Sciences
p11
sS'GA'
p12
V732ZE
p13
sS'abstract'
p14
VThe moss Physcomitrella patens performs efficient homologous recombination, which allows for the study of individual gene function by generating gene disruptions. Yet, if the gene of study is essential, gene disruptions cannot be isolated in the predominantly haploid P. patens. Additionally, disruption of a gene does not always generate observable phenotypes due to redundant functions from related genes. However, RNA interference (RNAi) can provide mutants for both of these situations. We show that RNAi disrupts gene expression in P. patens, adding a significant tool for the study of plant gene function. To assay for RNAi in moss, we constructed a line (NLS-4) expressing a nuclearly localized green fluorescent protein (GFP):beta-glucuronidase (GUS) fusion reporter protein. We targeted the reporter protein with two RNAi constructs, GUS-RNAi and GFP-RNAi, expressed transiently by particle bombardment. Transformed protonemal cells are marked by cobombardment with dsRed2, which diffuses between the nucleus and cytoplasm. Cells transformed with control constructs have nuclear/cytoplasmic red fluorescence and nuclear green fluorescence. In cells transformed with GUS-RNAi or GFP-RNAi constructs, the nuclear green fluorescence was reduced on average 9-fold as soon as 48 h after transformation. Moreover, isolated lines of NLS-4 stably transformed with GUS-RNAi construct have silenced nuclear GFP, indicating that RNAi is propagated stably. Thus, RNAi adds a powerful tool for functional analysis of plant genes in moss.
p15
sS'pageEnd'
p16
I474
sS'publisherAddress'
p17
V15501 MONONA DRIVE, ROCKVILLE, MD 20855 USA
p18
sS'documentType'
p19
VArticle
p20
sS'subject'
p21
VPlant Sciences
p22
sS'isoSource'
p23
VPlant Physiol.
p24
sS'timesCited'
p25
(lp26
I49
aVZ9 55
p27
asS'PT'
p28
VJ
sS'title'
p29
VRna Interference In The Moss Physcomitrella Patens
p30
sS'ISSN'
p31
(lp32
V0032-0889
p33
aVJ9 PLANT PHYSIOL
p34
asS'authors_full'
p35
(lp36
(VBEZANILLA
VM
tp37
a(VPAN
VA
tp38
a(VQUATRANO
VRS
tp39
asS'PG'
p40
I5
sS'PD'
p41
VOCT
p42
sS'pageStart'
p43
I470
sS'issue'
p44
I2
sS'journal'
p45
VPLANT PHYSIOLOGY
p46
sS'volume'
p47
V133
p48
sS'doi'
p49
V10.1104/pp.103.024901
p50
sS'authorAddress'
p51
VWashington Univ, Dept Biol, St Louis, MO 63130 USA.
p52
sS'date'
p53
I2003
sS'ER'
p54
V
sS'publisher'
p55
VAMER SOC PLANT BIOLOGISTS
p56
sS'authorKeywords'
p57
(lp58
VGENETICS
p59
aVACID
p60
asS'language'
p61
VEnglish
p62
sS'wosid'
p63
VWOS:000185974800008
p64
sS'citationCount'
p65
I20
sS'authors_init'
p66
(lp67
(VBEZANILLA
VM
tp68
a(VPAN
VA
tp69
a(VQUATRANO
VR S
tp70
asS'citedReferences'
p71
(lp72
g1
(g2
g3
NtRp73
(dp74
g49
V10.1046/j.1469-8137.2000.00671.x
p75
sg45
VNEW PHYTOL
p76
sg47
V146
p77
sg66
(lp78
(VASHTON
VN W
tp79
asg53
I2000
sg43
V391
p80
sbag1
(g2
g3
NtRp81
(dp82
g49
V10.1073/pnas.060034297
p83
sg45
VP NATL ACAD SCI USA
p84
sg47
V97
p85
sg66
(lp86
(VCHUANG
VC F
tp87
asg53
I2000
sg43
V4985
p88
sbag1
(g2
g3
NtRp89
(dp90
g49
Nsg45
VDEV MUTANTS HIGHER P
p91
sg47
Nsg66
(lp92
(VCOVE
VD J
tp93
asg53
I1987
sg43
Nsbag1
(g2
g3
NtRp94
(dp95
g49
V10.1046/j.1365-313X.1997.11030573.x
p96
sg45
VPLANT J
p97
sg47
V11
p98
sg66
(lp99
(VGREBENOK
VR J
tp100
asg53
I1997
sg43
VLANT
p101
sbag1
(g2
g3
NtRp102
(dp103
g49
V10.1038/418244a
p104
sg45
VNATURE
p105
sg47
V418
p106
sg66
(lp107
(VHANNON
VG J
tp108
asg53
I2002
sg43
V244
p109
sbag1
(g2
g3
NtRp110
(dp111
g49
V10.1105/tpc.010388
p112
sg45
VPLANT CELL
p113
sg47
V14
p114
sg66
(lp115
(VIMAIZUMI
VT
tp116
asg53
I2002
sg43
VLANT
p117
sbag1
(g2
g3
NtRp118
(dp119
g49
Nsg45
VJ PLANT GROWTH REGUL
p120
sg47
V19
p121
sg66
(lp122
(VKLINK
VV P
tp123
asg53
I2000
sg43
V371
p124
sbag1
(g2
g3
NtRp125
(dp126
g49
Nsg45
VPLANT CELL
p127
sg47
V7
sg66
(lp128
(VKNIGHT
VC D
tp129
asg53
I1995
sg43
VLANT
p130
sbag1
(g2
g3
NtRp131
(dp132
g49
V10.1093/emboj/16.15.4738
p133
sg45
VEMBO J
p134
sg47
V16
p135
sg66
(lp136
(VPALAUQUI
VJ C
tp137
asg53
I1997
sg43
V4738
p138
sbag1
(g2
g3
NtRp139
(dp140
g49
V10.1016/S1360-1385(02)02363-4
p141
sg45
VTRENDS PLANT SCI
p142
sg47
V7
sg66
(lp143
(VRENSING
VS A
tp144
asg53
I2002
sg43
V535
p145
sbag1
(g2
g3
NtRp146
(dp147
g49
Nsg45
VMOL GEN GENET
p148
sg47
V226
p149
sg66
(lp150
(VSCHAEFER
VD
tp151
asg53
I1991
sg43
V418
p152
sbag1
(g2
g3
NtRp153
(dp154
g49
V10.1146/annurev.arplant.53.100301.135202
p155
sg45
VANNU REV PLANT BIOL
p156
sg47
V53
p157
sg66
(lp158
(VSCHAEFER
VD G
tp159
asg53
I2002
sg43
V477
p160
sbag1
(g2
g3
NtRp161
(dp162
g49
V10.1016/S1369-5266(00)00150-3
p163
sg45
VCURR OPIN PLANT BIOL
p164
sg47
V4
sg66
(lp165
(VSCHAEFER
VD G
tp166
asg53
I2001
sg43
V143
p167
sbag1
(g2
g3
NtRp168
(dp169
g49
V10.1046/j.1365-313X.1997.11061195.x
p170
sg45
VPLANT J
p171
sg47
V11
p172
sg66
(lp173
(VSCHAEFER
VD G
tp174
asg53
I1997
sg43
VLANT
p175
sbag1
(g2
g3
NtRp176
(dp177
g49
V10.1104/pp.126.3.1224
p178
sg45
VPLANT PHYSIOL
p179
sg47
V126
p180
sg66
(lp181
(VSCHULZ
VP A
tp182
asg53
I2001
sg43
VLANT
p183
sbag1
(g2
g3
NtRp184
(dp185
g49
V10.1101/gad.880001
p186
sg45
VGENE DEV
p187
sg47
V15
p188
sg66
(lp189
(VSHARP
VP A
tp190
asg53
I2001
sg43
V485
p191
sbag1
(g2
g3
NtRp192
(dp193
g49
V10.1104/pp.016949
p194
sg45
VPLANT PHYSIOL
p195
sg47
V131
p196
sg66
(lp197
(VSTOUT
VS C
tp198
asg53
I2003
sg43
VLANT
p199
sbag1
(g2
g3
NtRp200
(dp201
g49
V10.1146/annurev.genet.36.043002.091619
p202
sg45
VANNU REV GENET
p203
sg47
V36
p204
sg66
(lp205
(VTIJSTERMAN
VM
tp206
asg53
I2002
sg43
V489
p207
sbag1
(g2
g3
NtRp208
(dp209
g49
V10.1038/39215
p210
sg45
VNATURE
p211
sg47
V389
p212
sg66
(lp213
(VVOINNET
VO
tp214
asg53
I1997
sg43
V553
p215
sbag1
(g2
g3
NtRp216
(dp217
g49
V10.1105/tpc.003376
p218
sg45
VPLANT CELL
p219
sg47
V14
p220
sg66
(lp221
(VZENTELLA
VR
tp222
asg53
I2002
sg43
VLANT
p223
sbasb.