ccopy_reg
_reconstructor
p1
(ctethne.classes.paper
Paper
p2
c__builtin__
object
p3
NtRp4
(dp5
S'publisherCity'
p6
VROCKVILLE
p7
sS'reprintAddress'
p8
VZipfel, C (reprint author), Sainsbury Lab, Norwich NR4 7UH, Norfolk, England.
p9
sS'WC'
p10
VPlant Sciences
p11
sS'GA'
p12
V479WJ
p13
sS'FX'
p14
(lp15
VThis work was supported by the Gatsby Charitable Foundation, the
p16
aVBiotechnology and Biological Sciences Research Council, European
p17
aVResearch Area Network Plant Genomics, the Royal Society, and the Two
p18
aVBlades Foundation.
p19
asS'pageEnd'
p20
I1647
sS'date'
p21
I2009
sS'documentType'
p22
VReview
p23
sS'subject'
p24
VPlant Sciences
p25
sS'isoSource'
p26
VPlant Physiol.
p27
sS'timesCited'
p28
(lp29
I62
aVZ9 64
p30
asS'funding'
p31
(lp32
(VGatsby Charitable Foundation
Ntp33
a(VBiotechnology and Biological Sciences Research Council
Ntp34
a(VEuropean Research Area Network Plant Genomics
Ntp35
a(VRoyal Society
Ntp36
a(VTwo Blades Foundation
Ntp37
asS'PT'
p38
VJ
sS'title'
p39
VRecent Advances In Pamp-Triggered Immunity Against Bacteria: Pattern Recognition Receptors Watch Over And Raise The Alarm
p40
sS'ISSN'
p41
(lp42
V0032-0889
p43
aVJ9 PLANT PHYSIOL
p44
asS'authors_full'
p45
(lp46
(VNICAISE
VVALERIE
tp47
a(VROUX
VMILENA
tp48
a(VZIPFEL
VCYRIL
tp49
asS'PG'
p50
I10
sS'PD'
p51
VAUG
p52
sS'pageStart'
p53
I1638
sS'issue'
p54
I4
sS'RI'
p55
VZIPFEL, CYRIL/D-7103-2011
p56
sS'journal'
p57
VPLANT PHYSIOLOGY
p58
sS'volume'
p59
V150
p60
sS'doi'
p61
V10.1104/pp.109.139709
p62
sS'emailAddress'
p63
Vcyril.zipfel@tsl.ac.uk
p64
sS'authorAddress'
p65
V[Nicaise, Valerie; Roux, Milena; Zipfel, Cyril] Sainsbury Lab, Norwich NR4 7UH, Norfolk, England.
p66
sS'publisherAddress'
p67
V15501 MONONA DRIVE, ROCKVILLE, MD 20855 USA
p68
sS'ER'
p69
V
sS'publisher'
p70
VAMER SOC PLANT BIOLOGISTS
p71
sS'authorKeywords'
p72
(lp73
VACTIVATED PROTEIN-KINASE
p74
aVHETEROTRIMERIC G-PROTEIN
p75
aVPLANT INNATE IMMUNITY
p76
aVSYSTEMIC ACQUIRED-RESISTANCE
p77
aVSYRINGAE PV.-PHASEOLICOLA
p78
aVPLASMA-MEMBRANE RECEPTOR
p79
aVE3 UBIQUITIN LIGASE
p80
aVRICH REPEAT DOMAIN
p81
aVPSEUDOMONAS-SYRINGAE
p82
aVDEFENSE RESPONSES
p83
asS'language'
p84
VEnglish
p85
sS'wosid'
p86
VWOS:000268692200004
p87
sS'citationCount'
p88
I157
sS'authors_init'
p89
(lp90
(VNICAISE
VV
tp91
a(VROUX
VM
tp92
a(VZIPFEL
VC
tp93
asS'citedReferences'
p94
(lp95
g1
(g2
g3
NtRp96
(dp97
g61
V10.1105/tpc.107.054494
p98
sg57
VPLANT CELL
p99
sg59
V19
p100
sg89
(lp101
(VAGORIO
VA
tp102
asg21
I2007
sg53
VLANT
p103
sbag1
(g2
g3
NtRp104
(dp105
g61
V10.1104/pp.108.120501
p106
sg57
VPLANT PHYSIOL
p107
sg59
V147
p108
sg89
(lp109
(VAKER
VJ
tp110
asg21
I2008
sg53
VLANT
p111
sbag1
(g2
g3
NtRp112
(dp113
g61
V10.1105/tpc.106.045096
p114
sg57
VPLANT CELL
p115
sg59
V19
p116
sg89
(lp117
(VALI
VR
tp118
asg21
I2007
sg53
VLANT
p119
sbag1
(g2
g3
NtRp120
(dp121
g61
V10.1038/sj.emboj.7600737
p122
sg57
VEMBO J
p123
sg59
V24
p124
sg89
(lp125
(VANDREASSON
VE
tp126
asg21
I2005
sg53
V2579
p127
sbag1
(g2
g3
NtRp128
(dp129
g61
V10.1038/415977a
p130
sg57
VNATURE
p131
sg59
V415
p132
sg89
(lp133
(VASAI
VT
tp134
asg21
I2002
sg53
V977
p135
sbag1
(g2
g3
NtRp136
(dp137
g61
V10.1016/j.cub.2008.06.061
p138
sg57
VCURR BIOL
p139
sg59
V18
p140
sg89
(lp141
(VASLAM
VS N
tp142
asg21
I2008
sg53
V1078
p143
sbag1
(g2
g3
NtRp144
(dp145
g61
V10.1007/s11103-008-9435-0
p146
sg57
VPLANT MOL BIOL
p147
sg59
V69
p148
sg89
(lp149
(VBARI
VR
tp150
asg21
I2009
sg53
VLANT
p151
sbag1
(g2
g3
NtRp152
(dp153
g61
V10.1074/jbc.M102390200
p154
sg57
VJ BIOL CHEM
p155
sg59
V276
p156
sg89
(lp157
(VBAUER
VZ
tp158
asg21
I2001
sg53
V45669
p159
sbag1
(g2
g3
NtRp160
(dp161
g61
V10.1126/science.1167784
p162
sg57
VSCIENCE
p163
sg59
V323
p164
sg89
(lp165
(VBAYER
VM
tp166
asg21
I2009
sg53
V1485
p167
sbag1
(g2
g3
NtRp168
(dp169
g61
V10.1021/ja0452166
p170
sg57
VJ AM CHEM SOC
p171
sg59
V127
p172
sg89
(lp173
(VBEDINI
VE
tp174
asg21
I2005
sg53
V2414
p175
sbag1
(g2
g3
NtRp176
(dp177
g61
V10.1126/science.1163732
p178
sg57
VSCIENCE
p179
sg59
V323
p180
sg89
(lp181
(VBEDNAREK
VP
tp182
asg21
I2009
sg53
V101
p183
sbag1
(g2
g3
NtRp184
(dp185
g61
Nsg57
VPLANT PHYSIOL
p186
sg59
V108
p187
sg89
(lp188
(VBESTWICK
VC S
tp189
asg21
I1995
sg53
VLANT
p190
sbag1
(g2
g3
NtRp191
(dp192
g61
V10.1146/annurev.arplant.57.032905.105346
p193
sg57
VANNU REV PLANT BIOL
p194
sg59
V60
p195
sg89
(lp196
(VBOLLER
VT
tp197
asg21
I2009
sg53
V379
p198
sbag1
(g2
g3
NtRp199
(dp200
g61
V10.1104/pp.126.2.849
p201
sg57
VPLANT PHYSIOL
p202
sg59
V126
p203
sg89
(lp204
(VBRADER
VG
tp205
asg21
I2001
sg53
VLANT
p206
sbag1
(g2
g3
NtRp207
(dp208
g61
V10.1046/j.1365-313X.1998.00215.x
p209
sg57
VPLANT J
p210
sg59
V15
p211
sg89
(lp212
(VBROWN
VI
tp213
asg21
I1998
sg53
VLANT
p214
sbag1
(g2
g3
NtRp215
(dp216
g61
V10.1111/j.1365-2958.2008.06211.x
p217
sg57
VMOL MICROBIOL
p218
sg59
V68
p219
sg89
(lp220
(VBUIST
VG
tp221
asg21
I2008
sg53
V838
p222
sbag1
(g2
g3
NtRp223
(dp224
g61
V10.1093/jxb/erm092
p225
sg57
VJ EXP BOT
p226
sg59
V58
p227
sg89
(lp228
(VBUSH
VS M
tp229
asg21
I2007
sg53
V2181
p230
sbag1
(g2
g3
NtRp231
(dp232
g61
Nsg57
VFront Biosci
p233
sg59
V13
p234
sg89
(lp235
(VCHEN
VJINGUI
tp236
asg21
I2008
sg53
V3321
p237
sbag1
(g2
g3
NtRp238
(dp239
g61
V10.1146/annurev.arplant.59.032607.092844
p240
sg57
VANNU REV PLANT BIOL
p241
sg59
V60
p242
sg89
(lp243
(VCHEVALIER
VD
tp244
asg21
I2009
sg53
V67
p245
sbag1
(g2
g3
NtRp246
(dp247
g61
V10.1007/s11103-005-8395-x
p248
sg57
VPLANT MOL BIOL
p249
sg59
V58
p250
sg89
(lp251
(VCHIASSON
VD
tp252
asg21
I2005
sg53
VLANT
p253
sbag1
(g2
g3
NtRp254
(dp255
g61
V10.1105/tpc.105.036574
p256
sg57
VPLANT CELL
p257
sg59
V18
p258
sg89
(lp259
(VCHINCHILLA
VD
tp260
asg21
I2006
sg53
VLANT
p261
sbag1
(g2
g3
NtRp262
(dp263
g61
V10.1038/nature05999
p264
sg57
VNATURE
p265
sg59
V448
p266
sg89
(lp267
(VCHINCHILLA
VD
tp268
asg21
I2007
sg53
V497
p269
sbag1
(g2
g3
NtRp270
(dp271
g61
V10.1016/j.cell.2006.02.008
p272
sg57
VCELL
p273
sg59
V124
p274
sg89
(lp275
(VCHISHOLM
VS T
tp276
asg21
I2006
sg53
V803
p277
sbag1
(g2
g3
NtRp278
(dp279
g61
V10.1126/science.1164627
p280
sg57
VSCIENCE
p281
sg59
V323
p282
sg89
(lp283
(VCLAY
VN K
tp284
asg21
I2009
sg53
V95
p285
sbag1
(g2
g3
NtRp286
(dp287
g61
V10.1042/BJ20080625
p288
sg57
VBIOCHEM J
p289
sg59
V413
p290
sg89
(lp291
(VCOLCOMBET
VJ
tp292
asg21
I2008
sg53
V217
p293
sbag1
(g2
g3
NtRp294
(dp295
g61
V10.1371/journal.ppat.0020002
p296
sg57
VPLOS PATHOG
p297
sg59
V2
sg89
(lp298
(VDARDICK
VC
tp299
asg21
I2006
sg53
VLOS
p300
sbag1
(g2
g3
NtRp301
(dp302
g61
V10.1094/MPMI.2004.17.6.593
p303
sg57
VMOL PLANT MICROBE IN
p304
sg59
V17
p305
sg89
(lp306
(VDA
VSILVA F G
tp307
asg21
I2004
sg53
V593
p308
sbag1
(g2
g3
NtRp309
(dp310
g61
V10.1111/j.1365-313X.2006.02798.x
p311
sg57
VPLANT J
p312
sg59
V47
p313
sg89
(lp314
(VDE
VTORRES M
tp315
asg21
I2006
sg53
VLANT
p316
sbag1
(g2
g3
NtRp317
(dp318
g61
V10.1038/nature07612
p319
sg57
VNATURE
p320
sg59
V457
p321
sg89
(lp322
(VDU
VL Q
tp323
asg21
I2009
sg53
V1154
p324
sbag1
(g2
g3
NtRp325
(dp326
g61
V10.1105/tpc.106.048801
p327
sg57
VPLANT CELL
p328
sg59
V19
p329
sg89
(lp330
(VDUNNING
VF M
tp331
asg21
I2007
sg53
VLANT
p332
sbag1
(g2
g3
NtRp333
(dp334
g61
V10.1146/annurev.phyto.42.040803.140421
p335
sg57
VANNU REV PHYTOPATHOL
p336
sg59
V42
p337
sg89
(lp338
(VDURRANT
VW E
tp339
asg21
I2004
sg53
V185
p340
sbag1
(g2
g3
NtRp341
(dp342
g61
V10.1111/j.1365-313X.2008.03723.x
p343
sg57
VPLANT J
p344
sg59
V57
p345
sg89
(lp346
(VENGELHARDT
VS
tp347
asg21
I2009
sg53
VLANT
p348
sbag1
(g2
g3
NtRp349
(dp350
g61
V10.1016/j.chembiol.2008.03.017
p351
sg57
VCHEM BIOL
p352
sg59
V15
p353
sg89
(lp354
(VERBS
VG
tp355
asg21
I2008
sg53
V438
p356
sbag1
(g2
g3
NtRp357
(dp358
g61
V10.1016/j.pbi.2007.04.020
p359
sg57
VCURR OPIN PLANT BIOL
p360
sg59
V10
p361
sg89
(lp362
(VEULGEM
VT
tp363
asg21
I2007
sg53
V366
p364
sbag1
(g2
g3
NtRp365
(dp366
g61
V10.1016/j.cub.2006.03.065
p367
sg57
VCURR BIOL
p368
sg59
V16
p369
sg89
(lp370
(VFAHLGREN
VN
tp371
asg21
I2006
sg53
V939
p372
sbag1
(g2
g3
NtRp373
(dp374
g61
V10.1046/j.1365-313X.1999.00265.x
p375
sg57
VPLANT J
p376
sg59
V18
p377
sg89
(lp378
(VFELIX
VG
tp379
asg21
I1999
sg53
VLANT
p380
sbag1
(g2
g3
NtRp381
(dp382
g61
V10.1074/jbc.M209880200
p383
sg57
VJ BIOL CHEM
p384
sg59
V278
p385
sg89
(lp386
(VFELIX
VG
tp387
asg21
I2003
sg53
V6201
p388
sbag1
(g2
g3
NtRp389
(dp390
g61
V10.1104/pp.107.095596
p391
sg57
VPLANT PHYSIOL
p392
sg59
V144
p393
sg89
(lp394
(VFERRARI
VS
tp395
asg21
I2007
sg53
VLANT
p396
sbag1
(g2
g3
NtRp397
(dp398
g61
V10.1038/nature05737
p399
sg57
VNATURE
p400
sg59
V447
p401
sg89
(lp402
(VFU
VZ Q
tp403
asg21
I2007
sg53
V284
p404
sbag1
(g2
g3
NtRp405
(dp406
g61
V10.1016/j.febslet.2008.02.037
p407
sg57
VFEBS LETT
p408
sg59
V582
p409
sg89
(lp410
(VGALON
VY
tp411
asg21
I2008
sg53
V943
p412
sbag1
(g2
g3
NtRp413
(dp414
g61
V10.1038/cr.2008.300
p415
sg57
VCELL RES
p416
sg59
V18
p417
sg89
(lp418
(VGAO
VM H
tp419
asg21
I2008
sg53
V1190
p420
sbag1
(g2
g3
NtRp421
(dp422
g61
V10.1093/pcp/pcn078
p423
sg57
VPLANT CELL PHYSIOL
p424
sg59
V49
p425
sg89
(lp426
(VGAO
VY J
tp427
asg21
I2008
sg53
VLANT
p428
sbag1
(g2
g3
NtRp429
(dp430
g61
V10.1094/MPMI-19-0711
p431
sg57
VMOL PLANT MICROBE IN
p432
sg59
V19
p433
sg89
(lp434
(VGARCIA-BRUGGER
VA
tp435
asg21
I2006
sg53
V711
p436
sbag1
(g2
g3
NtRp437
(dp438
g61
V10.1101/gad.1561307
p439
sg57
VGENE DEV
p440
sg59
V21
p441
sg89
(lp442
(VGELDNER
VN
tp443
asg21
I2007
sg53
V1598
p444
sbag1
(g2
g3
NtRp445
(dp446
g61
V10.1105/tpc.104.029975
p447
sg57
VPLANT CELL
p448
sg59
V17
p449
sg89
(lp450
(VGIFFORD
VM L
tp451
asg21
I2005
sg53
VLANT
p452
sbag1
(g2
g3
NtRp453
(dp454
g61
V10.1016/j.cub.2009.01.054
p455
sg57
VCURR BIOL
p456
sg59
V19
p457
sg89
(lp458
(VGIMENEZ-IBANEZ
VS
tp459
asg21
I2009
sg53
V423
p460
sbag1
(g2
g3
NtRp461
(dp462
g61
V10.1016/j.cub.2008.10.063
p463
sg57
VCurr Biol
p464
sg59
V18
p465
sg89
(lp466
(VGO\u0308HRE
VVERA
tp467
asg21
I2008
sg53
V1824
p468
sbag1
(g2
g3
NtRp469
(dp470
g61
V10.1016/S1097-2765(00)80265-8
p471
sg57
VMOL CELL
p472
sg59
V5
sg89
(lp473
(VGOMEZ-GOMEZ
VL
tp474
asg21
I2000
sg53
V1003
p475
sbag1
(g2
g3
NtRp476
(dp477
g61
V10.1046/j.1365-313X.1999.00451.x
p478
sg57
VPLANT J
p479
sg59
V18
p480
sg89
(lp481
(VGOMEZ-GOMEZ
VL
tp482
asg21
I1999
sg53
VLANT
p483
sbag1
(g2
g3
NtRp484
(dp485
g61
V10.1105/tpc.13.5.1155
p486
sg57
VPLANT CELL
p487
sg59
V13
p488
sg89
(lp489
(VGOMEZ-GOMEZ
VL
tp490
asg21
I2001
sg53
VLANT
p491
sbag1
(g2
g3
NtRp492
(dp493
g61
V10.1074/jbc.M704886200
p494
sg57
VJ BIOL CHEM
p495
sg59
V282
p496
sg89
(lp497
(VGUST
VA A
tp498
asg21
I2007
sg53
V32338
p499
sbag1
(g2
g3
NtRp500
(dp501
g61
V10.1111/j.1365-313X.2007.03165.x
p502
sg57
VPLANT J
p503
sg59
V51
p504
sg89
(lp505
(VHAM
VJ H
tp506
asg21
I2007
sg53
VLANT
p507
sbag1
(g2
g3
NtRp508
(dp509
g61
V10.1111/j.1365-313X.2006.02981.x
p510
sg57
VPLANT J
p511
sg59
V49
p512
sg89
(lp513
(VHANN
VD R
tp514
asg21
I2007
sg53
VLANT
p515
sbag1
(g2
g3
NtRp516
(dp517
g61
V10.1016/j.cub.2007.05.036
p518
sg57
VCURR BIOL
p519
sg59
V17
p520
sg89
(lp521
(VHE
VK
tp522
asg21
I2007
sg53
V1109
p523
sbag1
(g2
g3
NtRp524
(dp525
g61
V10.1016/j.cell.2006.02.047
p526
sg57
VCELL
p527
sg59
V125
p528
sg89
(lp529
(VHE
VP
tp530
asg21
I2006
sg53
V563
p531
sbag1
(g2
g3
NtRp532
(dp533
g61
V10.1073/pnas.0705306104
p534
sg57
VP NATL ACAD SCI USA
p535
sg59
V104
p536
sg89
(lp537
(VHEESE
VA
tp538
asg21
I2007
sg53
V12217
p539
sbag1
(g2
g3
NtRp540
(dp541
g61
V10.1074/jbc.M605319200
p542
sg57
VJ BIOL CHEM
p543
sg59
V281
p544
sg89
(lp545
(VICHIMURA
VK
tp546
asg21
I2006
sg53
V36969
p547
sbag1
(g2
g3
NtRp548
(dp549
g61
V10.1271/bbb.80449
p550
sg57
VBIOSCI BIOTECH BIOCH
p551
sg59
V73
p552
sg89
(lp553
(VISHIKAWA
VA
tp554
asg21
I2009
sg53
V47
p555
sbag1
(g2
g3
NtRp556
(dp557
g61
V10.1073/pnas.94.9.4800
p558
sg57
VP NATL ACAD SCI USA
p559
sg59
V94
p560
sg89
(lp561
(VJABS
VT
tp562
asg21
I1997
sg53
V4800
p563
sbag1
(g2
g3
NtRp564
(dp565
g61
V10.1105/tpc.016097
p566
sg57
VPLANT CELL
p567
sg59
V15
p568
sg89
(lp569
(VJACOBS
VA K
tp570
asg21
I2003
sg53
VLANT
p571
sbag1
(g2
g3
NtRp572
(dp573
g61
V10.1126/science.1120131
p574
sg57
VSCIENCE
p575
sg59
V311
p576
sg89
(lp577
(VJANJUSEVIC
VR
tp578
asg21
I2006
sg53
V222
p579
sbag1
(g2
g3
NtRp580
(dp581
g61
V10.1038/nature05286
p582
sg57
VNATURE
p583
sg59
V444
p584
sg89
(lp585
(VJONES
VJ D G
tp586
asg21
I2006
sg53
V323
p587
sbag1
(g2
g3
NtRp588
(dp589
g61
V10.1111/j.1365-313X.2008.03404.x
p590
sg57
VPLANT J
p591
sg59
V54
p592
sg89
(lp593
(VJOO
VS
tp594
asg21
I2008
sg53
VLANT
p595
sbag1
(g2
g3
NtRp596
(dp597
g61
V10.1094/MPMI-22-4-0456
p598
sg57
VMOL PLANT MICROBE IN
p599
sg59
V22
p600
sg89
(lp601
(VJOURDAN
VE
tp602
asg21
I2009
sg53
V456
p603
sbag1
(g2
g3
NtRp604
(dp605
g61
V10.1073/pnas.0508882103
p606
sg57
VP NATL ACAD SCI USA
p607
sg59
V103
p608
sg89
(lp609
(VKAKU
VH
tp610
asg21
I2006
sg53
V11086
p611
sbag1
(g2
g3
NtRp612
(dp613
g61
V10.1093/intimm/dxp017
p614
sg57
VINT IMMUNOL
p615
sg59
V21
p616
sg89
(lp617
(VKAWAI
VT
tp618
asg21
I2009
sg53
V317
p619
sbag1
(g2
g3
NtRp620
(dp621
g61
V10.1016/j.cub.2007.05.046
p622
sg57
VCURR BIOL
p623
sg59
V17
p624
sg89
(lp625
(VKEMMERLING
VB
tp626
asg21
I2007
sg53
V1116
p627
sbag1
(g2
g3
NtRp628
(dp629
g61
V10.1016/j.bbrc.2009.02.050
p630
sg57
VBIOCHEM BIOPH RES CO
p631
sg59
V381
p632
sg89
(lp633
(VKIM
VH S
tp634
asg21
I2009
sg53
V424
p635
sbag1
(g2
g3
NtRp636
(dp637
g61
V10.1016/j.febslet.2008.11.046
p638
sg57
VFEBS LETT
p639
sg59
V583
p640
sg89
(lp641
(VKIM
VH S
tp642
asg21
I2009
sg53
V36
p643
sbag1
(g2
g3
NtRp644
(dp645
g61
V10.1111/j.1365-313X.2008.03518.x
p646
sg57
VPLANT J
p647
sg59
V55
p648
sg89
(lp649
(VKIM
VJ S
tp650
asg21
I2008
sg53
VLANT
p651
sbag1
(g2
g3
NtRp652
(dp653
g61
V10.1016/j.cell.2005.03.025
p654
sg57
VCELL
p655
sg59
V121
p656
sg89
(lp657
(VKIM
VM G
tp658
asg21
I2005
sg53
V749
p659
sbag1
(g2
g3
NtRp660
(dp661
g61
V10.1105/tpc.104.026765
p662
sg57
VPLANT CELL
p663
sg59
V16
p664
sg89
(lp665
(VKUNZE
VG
tp666
asg21
I2004
sg53
VLANT
p667
sbag1
(g2
g3
NtRp668
(dp669
g61
V10.1104/pp.121.1.147
p670
sg57
VPLANT PHYSIOL
p671
sg59
V121
p672
sg89
(lp673
(VLEE
VS
tp674
asg21
I1999
sg53
VLANT
p675
sbag1
(g2
g3
NtRp676
(dp677
g61
V10.1128/JB.01406-07
p678
sg57
VJ BACTERIOL
p679
sg59
V190
p680
sg89
(lp681
(VLEE
VS W
tp682
asg21
I2008
sg53
V2183
p683
sbag1
(g2
g3
NtRp684
(dp685
g61
V10.1073/pnas.0605508103
p686
sg57
VP NATL ACAD SCI USA
p687
sg59
V103
p688
sg89
(lp689
(VLEE
VS W
tp690
asg21
I2006
sg53
V18395
p691
sbag1
(g2
g3
NtRp692
(dp693
g61
V10.1073/pnas.0502425102
p694
sg57
VP NATL ACAD SCI USA
p695
sg59
V102
p696
sg89
(lp697
(VLI
VX Y
tp698
asg21
I2005
sg53
V12990
p699
sbag1
(g2
g3
NtRp700
(dp701
g61
V10.1038/nri1731
p702
sg57
VNAT REV IMMUNOL
p703
sg59
V5
sg89
(lp704
(VLIU
VY C
tp705
asg21
I2005
sg53
V941
p706
sbag1
(g2
g3
NtRp707
(dp708
g61
V10.1105/tpc.104.026609
p709
sg57
VPLANT CELL
p710
sg59
V16
p711
sg89
(lp712
(VLIU
VY D
tp713
asg21
I2004
sg53
VLANT
p714
sbag1
(g2
g3
NtRp715
(dp716
g61
Nsg57
VV332
p717
sg59
V332
p718
sg89
(lp719
(VLUTTRELL
VLOUIS M
tp720
asg21
I2006
sg53
V3
sbag1
(g2
g3
NtRp721
(dp722
g61
V10.1111/j.1462-5822.2007.01031.x
p723
sg57
VCELL MICROBIOL
p724
sg59
V9
sg89
(lp725
(VMA
VW
tp726
asg21
I2007
sg53
V2571
p727
sbag1
(g2
g3
NtRp728
(dp729
g61
V10.1016/S0092-8674(00)80412-2
p730
sg57
VCELL
p731
sg59
V91
p732
sg89
(lp733
(VMEDZHITOV
VR
tp734
asg21
I1997
sg53
V295
p735
sbag1
(g2
g3
NtRp736
(dp737
g61
V10.1105/tpc.12.9.1783
p738
sg57
VPLANT CELL
p739
sg59
V12
p740
sg89
(lp741
(VMEINDL
VT
tp742
asg21
I2000
sg53
VLANT
p743
sbag1
(g2
g3
NtRp744
(dp745
g61
V10.1016/j.cell.2006.06.054
p746
sg57
VCELL
p747
sg59
V126
p748
sg89
(lp749
(VMELOTTO
VM
tp750
asg21
I2006
sg53
V969
p751
sbag1
(g2
g3
NtRp752
(dp753
g61
V10.1111/j.1365-313X.2006.02888.x
p754
sg57
VPLANT J
p755
sg59
V48
p756
sg89
(lp757
(VMESZAROS
VT
tp758
asg21
I2006
sg53
VLANT
p759
sbag1
(g2
g3
NtRp760
(dp761
g61
V[10.1111/j.1364-3703.2005.00276.x, 10.1111/J.1364-3703.2004.00276.X]
p762
sg57
VMOL PLANT PATHOL
p763
sg59
V6
sg89
(lp764
(VMEZIANE
VH
tp765
asg21
I2005
sg53
V177
p766
sbag1
(g2
g3
NtRp767
(dp768
g61
V10.1111/j.1365-313X.2007.03067.x
p769
sg57
VPLANT J
p770
sg59
V50
p771
sg89
(lp772
(VMISHINA
VT E
tp773
asg21
I2007
sg53
VLANT
p774
sbag1
(g2
g3
NtRp775
(dp776
g61
V10.1111/j.1399-3054.2007.00977.x
p777
sg57
VPHYSIOL PLANTARUM
p778
sg59
V131
p779
sg89
(lp780
(VMISHINA
VT E
tp781
asg21
I2007
sg53
VHYSIOL
p782
sbag1
(g2
g3
NtRp783
(dp784
g61
V10.1073/pnas.0705147104
p785
sg57
VP NATL ACAD SCI USA
p786
sg59
V104
p787
sg89
(lp788
(VMIYA
VA
tp789
asg21
I2007
sg53
V19613
p790
sbag1
(g2
g3
NtRp791
(dp792
g61
V10.1016/j.it.2008.10.001
p793
sg57
VTRENDS IMMUNOL
p794
sg59
V30
p795
sg89
(lp796
(VMOYNAGH
VP N
tp797
asg21
I2009
sg53
V33
p798
sbag1
(g2
g3
NtRp799
(dp800
g61
V10.1105/tpc.106.044016
p801
sg57
VPLANT CELL
p802
sg59
V18
p803
sg89
(lp804
(VMUCYN
VT S
tp805
asg21
I2006
sg53
VLANT
p806
sbag1
(g2
g3
NtRp807
(dp808
g61
V10.1094/MPMI-21-9-1165
p809
sg57
VMOL PLANT MICROBE IN
p810
sg59
V21
p811
sg89
(lp812
(VNAITO
VK
tp813
asg21
I2008
sg53
V1165
p814
sbag1
(g2
g3
NtRp815
(dp816
g61
V10.1074/jbc.M605293200
p817
sg57
VJ BIOL CHEM
p818
sg59
V281
p819
sg89
(lp820
(VNAKAGAMI
VH
tp821
asg21
I2006
sg53
V38697
p822
sbag1
(g2
g3
NtRp823
(dp824
g61
V10.1126/science.1159505
p825
sg57
VSCIENCE
p826
sg59
V321
p827
sg89
(lp828
(VNAVARRO
VL
tp829
asg21
I2008
sg53
V964
p830
sbag1
(g2
g3
NtRp831
(dp832
g61
V10.1104/pp.103.036749
p833
sg57
VPLANT PHYSIOL
p834
sg59
V135
p835
sg89
(lp836
(VNAVARRO
VL
tp837
asg21
I2004
sg53
VLANT
p838
sbag1
(g2
g3
NtRp839
(dp840
g61
V10.1126/science.1126088
p841
sg57
VSCIENCE
p842
sg59
V312
p843
sg89
(lp844
(VNAVARRO
VL
tp845
asg21
I2006
sg53
V436
p846
sbag1
(g2
g3
NtRp847
(dp848
g61
V10.1177/0968051907079399
p849
sg57
VJ ENDOTOXIN RES
p850
sg59
V13
p851
sg89
(lp852
(VNEWMAN
VM A
tp853
asg21
I2007
sg53
V69
p854
sbag1
(g2
g3
NtRp855
(dp856
g61
V10.1126/science.1086716
p857
sg57
VSCIENCE
p858
sg59
V301
p859
sg89
(lp860
(VNISHIMURA
VM T
tp861
asg21
I2003
sg53
V969
p862
sbag1
(g2
g3
NtRp863
(dp864
g61
V10.1126/science.1169430
p865
sg57
VSCIENCE
p866
sg59
V324
p867
sg89
(lp868
(VNTOUKAKIS
VV
tp869
asg21
I2009
sg53
V784
p870
sbag1
(g2
g3
NtRp871
(dp872
g61
V10.1111/j.1365-313X.2007.03192.x
p873
sg57
VPLANT J
p874
sg59
V51
p875
sg89
(lp876
(VNUHSE
VT S
tp877
asg21
I2007
sg53
VLANT
p878
sbag1
(g2
g3
NtRp879
(dp880
g61
V10.1111/j.0105-2896.2004.0119.x
p881
sg57
VIMMUNOL REV
p882
sg59
V198
p883
sg89
(lp884
(VNURNBERGER
VT
tp885
asg21
I2004
sg53
V249
p886
sbag1
(g2
g3
NtRp887
(dp888
g61
V10.1046/j.1365-313X.2003.01619.x
p889
sg57
VPLANT J
p890
sg59
V33
p891
sg89
(lp892
(VO'DONNELL
VP J
tp893
asg21
I2003
sg53
VLANT
p894
sbag1
(g2
g3
NtRp895
(dp896
g61
V10.1093/pcp/pcn182
p897
sg57
VPLANT CELL PHYSIOL
p898
sg59
V50
p899
sg89
(lp900
(VOKI
VK
tp901
asg21
I2009
sg53
VLANT
p902
sbag1
(g2
g3
NtRp903
(dp904
g61
V10.1104/pp.109.138990
p905
sg57
VPLANT PHYSIOL
p906
sg59
V150
p907
sg89
(lp908
(VPANDEY
VS P
tp909
asg21
I2009
sg53
VLANT
p910
sbag1
(g2
g3
NtRp911
(dp912
g61
V10.1371/journal.pbio.0060231
p913
sg57
VPLOS BIOL
p914
sg59
V6
sg89
(lp915
(VPARK
VC J
tp916
asg21
I2008
sg53
VLOS
p917
sbag1
(g2
g3
NtRp918
(dp919
g61
V10.1094/MPMI.2004.17.6.696
p920
sg57
VMOL PLANT MICROBE IN
p921
sg59
V17
p922
sg89
(lp923
(VPFUND
VC
tp924
asg21
I2004
sg53
V696
p925
sbag1
(g2
g3
NtRp926
(dp927
g61
Nsg57
VPLANT CELL
p928
sg59
V9
sg89
(lp929
(VPUGIN
VA
tp930
asg21
I1997
sg53
VLANT
p931
sbag1
(g2
g3
NtRp932
(dp933
g61
V10.1104/pp.108.120006
p934
sg57
VPLANT PHYSIOL
p935
sg59
V148
p936
sg89
(lp937
(VQIU
VJ L
tp938
asg21
I2008
sg53
VLANT
p939
sbag1
(g2
g3
NtRp940
(dp941
g61
V10.1105/tpc.106.044180
p942
sg57
VPLANT CELL
p943
sg59
V18
p944
sg89
(lp945
(VQUTOB
VD
tp946
asg21
I2006
sg53
VLANT
p947
sbag1
(g2
g3
NtRp948
(dp949
g61
V10.1038/sj.emboj.7601826
p950
sg57
VEMBO J
p951
sg59
V26
p952
sg89
(lp953
(VRADUTOIU
VS
tp954
asg21
I2007
sg53
V3923
p955
sbag1
(g2
g3
NtRp956
(dp957
g61
V10.1016/j.phytochem.2004.04.033
p958
sg57
VPHYTOCHEMISTRY
p959
sg59
V65
p960
sg89
(lp961
(VREDDY
VV S
tp962
asg21
I2004
sg53
VHYTOCHEMISTRY
p963
sbag1
(g2
g3
NtRp964
(dp965
g61
V10.1007/s11103-007-9173-8
p966
sg57
VPLANT MOL BIOL
p967
sg59
V64
p968
sg89
(lp969
(VROBATZEK
VS
tp970
asg21
I2007
sg53
VLANT
p971
sbag1
(g2
g3
NtRp972
(dp973
g61
V10.1101/gad.366506
p974
sg57
VGENE DEV
p975
sg59
V20
p976
sg89
(lp977
(VROBATZEK
VS
tp978
asg21
I2006
sg53
V537
p979
sbag1
(g2
g3
NtRp980
(dp981
g61
V10.1105/tpc.104.025387
p982
sg57
VPLANT CELL
p983
sg59
V16
p984
sg89
(lp985
(VRUSSINOVA
VE
tp986
asg21
I2004
sg53
VLANT
p987
sbag1
(g2
g3
NtRp988
(dp989
g61
V10.1073/pnas.1633615100
p990
sg57
VP NATL ACAD SCI USA
p991
sg59
V100
p992
sg89
(lp993
(VSCHMELZ
VE A
tp994
asg21
I2003
sg53
V10552
p995
sbag1
(g2
g3
NtRp996
(dp997
g61
V10.1105/tpc.106.049585
p998
sg57
VPLANT CELL
p999
sg59
V19
p1000
sg89
(lp1001
(VSCHWEIGHOFER
VA
tp1002
asg21
I2007
sg53
VLANT
p1003
sbag1
(g2
g3
NtRp1004
(dp1005
g61
V10.1101/gad.220402
p1006
sg57
VGENE DEV
p1007
sg59
V16
p1008
sg89
(lp1009
(VSHAH
VK
tp1010
asg21
I2002
sg53
V1707
p1011
sbag1
(g2
g3
NtRp1012
(dp1013
g61
V10.1016/j.chom.2008.05.017
p1014
sg57
VCELL HOST MICROBE
p1015
sg59
V4
sg89
(lp1016
(VSHAN
VL B
tp1017
asg21
I2008
sg53
V17
p1018
sbag1
(g2
g3
NtRp1019
(dp1020
g61
V10.1002/cbic.200700693
p1021
sg57
VCHEMBIOCHEM
p1022
sg59
V9
sg89
(lp1023
(VSILIPO
VA
tp1024
asg21
I2008
sg53
V896
p1025
sbag1
(g2
g3
NtRp1026
(dp1027
g61
V10.1126/science.270.5243.1804
p1028
sg57
VSCIENCE
p1029
sg59
V270
p1030
sg89
(lp1031
(VSONG
VW Y
tp1032
asg21
I1995
sg53
V1804
p1033
sbag1
(g2
g3
NtRp1034
(dp1035
g61
V10.1016/j.chom.2008.05.009
p1036
sg57
VCELL HOST MICROBE
p1037
sg59
V3
sg89
(lp1038
(VSPOEL
VS H
tp1039
asg21
I2008
sg53
V348
p1040
sbag1
(g2
g3
NtRp1041
(dp1042
g61
V10.1016/j.febslet.2007.05.083
p1043
sg57
VFEBS LETT
p1044
sg59
V581
p1045
sg89
(lp1046
(VSU
VS H
tp1047
asg21
I2007
sg53
V3171
p1048
sbag1
(g2
g3
NtRp1049
(dp1050
g61
V10.1104/pp.106.091389
p1051
sg57
VPLANT PHYSIOL
p1052
sg59
V143
p1053
sg89
(lp1054
(VSUAREZ-RODRIGUEZ
VM C
tp1055
asg21
I2007
sg53
VLANT
p1056
sbag1
(g2
g3
NtRp1057
(dp1058
g61
V10.1105/tpc.105.037648
p1059
sg57
VPLANT CELL
p1060
sg59
V18
p1061
sg89
(lp1062
(VSUN
VW X
tp1063
asg21
I2006
sg53
VLANT
p1064
sbag1
(g2
g3
NtRp1065
(dp1066
g61
V10.1093/pcp/pcg042
p1067
sg57
VPLANT CELL PHYSIOL
p1068
sg59
V44
p1069
sg89
(lp1070
(VTAGUCHI
VF
tp1071
asg21
I2003
sg53
VLANT
p1072
sbag1
(g2
g3
NtRp1073
(dp1074
g61
V10.1111/j.1462-5822.2005.0674.x
p1075
sg57
VCELL MICROBIOL
p1076
sg59
V8
sg89
(lp1077
(VTAGUCHI
VF
tp1078
asg21
I2006
sg53
V923
p1079
sbag1
(g2
g3
NtRp1080
(dp1081
g61
V10.1093/pcp/pcm011
p1082
sg57
VPLANT CELL PHYSIOL
p1083
sg59
V48
p1084
sg89
(lp1085
(VTAKABATAKE
VR
tp1086
asg21
I2007
sg53
VLANT
p1087
sbag1
(g2
g3
NtRp1088
(dp1089
g61
V10.1094/MPMI-21-12-1635
p1090
sg57
VMOL PLANT MICROBE IN
p1091
sg59
V21
p1092
sg89
(lp1093
(VTAKAI
VR
tp1094
asg21
I2008
sg53
V1635
p1095
sbag1
(g2
g3
NtRp1096
(dp1097
g61
V10.1128/JB.22.6658-6665.2003
p1098
sg57
VJ BACTERIOL
p1099
sg59
V185
p1100
sg89
(lp1101
(VTAKEUCHI
VK
tp1102
asg21
I2003
sg53
V6658
p1103
sbag1
(g2
g3
NtRp1104
(dp1105
g61
V10.1128/JB.00500-07
p1106
sg57
VJ BACTERIOL
p1107
sg59
V189
p1108
sg89
(lp1109
(VTAKEUCHI
VK
tp1110
asg21
I2007
sg53
V6945
p1111
sbag1
(g2
g3
NtRp1112
(dp1113
g61
V10.1104/pp.106.090985
p1114
sg57
VPLANT PHYSIOL
p1115
sg59
V143
p1116
sg89
(lp1117
(VTELLSTROM
VV
tp1118
asg21
I2007
sg53
VLANT
p1119
sbag1
(g2
g3
NtRp1120
(dp1121
g61
V10.1146/annurev.arplant.58.032806.103827
p1122
sg57
VANNU REV PLANT BIOL
p1123
sg59
V58
p1124
sg89
(lp1125
(VTEMPLE
VB R S
tp1126
asg21
I2007
sg53
V249
p1127
sbag1
(g2
g3
NtRp1128
(dp1129
g61
V10.1104/pp.106.079467
p1130
sg57
VPLANT PHYSIOL
p1131
sg59
V141
p1132
sg89
(lp1133
(VTORRES
VM A
tp1134
asg21
I2006
sg53
VLANT
p1135
sbag1
(g2
g3
NtRp1136
(dp1137
g61
V10.1016/j.cub.2008.07.085
p1138
sg57
VCURR BIOL
p1139
sg59
V18
p1140
sg89
(lp1141
(VTRUJILLO
VM
tp1142
asg21
I2008
sg53
V1396
p1143
sbag1
(g2
g3
NtRp1144
(dp1145
g61
V10.1111/j.1365-313X.2007.03369.x
p1146
sg57
VPLANT J
p1147
sg59
V53
p1148
sg89
(lp1149
(VTSUDA
VK
tp1150
asg21
I2008
sg53
VLANT
p1151
sbag1
(g2
g3
NtRp1152
(dp1153
g61
V10.1111/j.1365-3040.2008.01911.x
p1154
sg57
VPLANT CELL ENVIRON
p1155
sg59
V32
p1156
sg89
(lp1157
(VVARNIER
VA L
tp1158
asg21
I2009
sg53
VLANT
p1159
sbag1
(g2
g3
NtRp1160
(dp1161
g61
V10.1146/annurev.cellbio.21.090704.151241
p1162
sg57
VANNU REV CELL DEV BI
p1163
sg59
V21
p1164
sg89
(lp1165
(VVERT
VG
tp1166
asg21
I2005
sg53
V177
p1167
sbag1
(g2
g3
NtRp1168
(dp1169
g61
V10.1105/tpc.107.056754
p1170
sg57
VPLANT CELL
p1171
sg59
V20
p1172
sg89
(lp1173
(VWAN
VJ R
tp1174
asg21
I2008
sg53
VLANT
p1175
sbag1
(g2
g3
NtRp1176
(dp1177
g61
V10.1016/j.cub.2007.09.025
p1178
sg57
VCURR BIOL
p1179
sg59
V17
p1180
sg89
(lp1181
(VWANG
VD
tp1182
asg21
I2007
sg53
V1784
p1183
sbag1
(g2
g3
NtRp1184
(dp1185
g61
V10.1105/tpc.106.048298
p1186
sg57
VPLANT CELL
p1187
sg59
V19
p1188
sg89
(lp1189
(VWANG
VH C
tp1190
asg21
I2007
sg53
VLANT
p1191
sbag1
(g2
g3
NtRp1192
(dp1193
g61
V10.1105/tpc.108.058032
p1194
sg57
VPLANT CELL
p1195
sg59
V20
p1196
sg89
(lp1197
(VWANG
VH C
tp1198
asg21
I2008
sg53
VLANT
p1199
sbag1
(g2
g3
NtRp1200
(dp1201
g61
V10.1371/journal.ppat.1000301
p1202
sg57
VPLOS PATHOG
p1203
sg59
V5
sg89
(lp1204
(VWANG
VL
tp1205
asg21
I2009
sg53
VLOS
p1206
sbag1
(g2
g3
NtRp1207
(dp1208
g61
V10.1016/j.devcel.2008.06.011
p1209
sg57
VDEV CELL
p1210
sg59
V15
p1211
sg89
(lp1212
(VWANG
VX F
tp1213
asg21
I2008
sg53
V220
p1214
sbag1
(g2
g3
NtRp1215
(dp1216
g61
V10.1005/tpc.106.046730
p1217
sg57
VPLANT CELL
p1218
sg59
V18
p1219
sg89
(lp1220
(VWANG
VY S
tp1221
asg21
I2006
sg53
VLANT
p1222
sbag1
(g2
g3
NtRp1223
(dp1224
g61
V10.1016/j.jbiotec.2006.02.022
p1225
sg57
VJ BIOTECHNOL
p1226
sg59
V126
p1227
sg89
(lp1228
(VWATT
VS A
tp1229
asg21
I2006
sg53
V78
p1230
sbag1
(g2
g3
NtRp1231
(dp1232
g61
V10.1016/j.cub.2007.12.020
p1233
sg57
VCURR BIOL
p1234
sg59
V18
p1235
sg89
(lp1236
(VXIANG
VT T
tp1237
asg21
I2008
sg53
V74
p1238
sbag1
(g2
g3
NtRp1239
(dp1240
g61
V10.1111/j.1365-313X.2007.03259.x
p1241
sg57
VPLANT J
p1242
sg59
V52
p1243
sg89
(lp1244
(VXIAO
VF M
tp1245
asg21
I2007
sg53
VLANT
p1246
sbag1
(g2
g3
NtRp1247
(dp1248
g61
V10.1038/nature06109
p1249
sg57
VNATURE
p1250
sg59
V449
p1251
sg89
(lp1252
(VXING
VW
tp1253
asg21
I2007
sg53
V243
p1254
sbag1
(g2
g3
NtRp1255
(dp1256
g61
V10.1007/s10327-009-0162-4
p1257
sg57
VJ GEN PLANT PATHOL
p1258
sg59
V75
p1259
sg89
(lp1260
(VYAKUSHIJI
VS
tp1261
asg21
I2009
sg53
V227
p1262
sbag1
(g2
g3
NtRp1263
(dp1264
g61
V10.1073/pnas.0404536101
p1265
sg57
VP NATL ACAD SCI USA
p1266
sg59
V101
p1267
sg89
(lp1268
(VZEIDLER
VD
tp1269
asg21
I2004
sg53
V15811
p1270
sbag1
(g2
g3
NtRp1271
(dp1272
g61
V10.1016/j.chom.2007.03.006
p1273
sg57
VCELL HOST MICROBE
p1274
sg59
V1
sg89
(lp1275
(VZHANG
VJ
tp1276
asg21
I2007
sg53
V175
p1277
sbag1
(g2
g3
NtRp1278
(dp1279
g61
V10.1111/j.1365-313X.2008.03657.x
p1280
sg57
VPLANT J
p1281
sg59
V56
p1282
sg89
(lp1283
(VZHANG
VW
tp1284
asg21
I2008
sg53
VLANT
p1285
sbag1
(g2
g3
NtRp1286
(dp1287
g61
V10.1104/pp.107.097097
p1288
sg57
VPLANT PHYSIOL
p1289
sg59
V144
p1290
sg89
(lp1291
(VZHANG
VX C
tp1292
asg21
I2007
sg53
VLANT
p1293
sbag1
(g2
g3
NtRp1294
(dp1295
g61
V10.1186/1171-2229-7-2
p1296
sg57
VBMC PLANT BIOL
p1297
sg59
V7
sg89
(lp1298
(VZHENG
VZ Y
tp1299
asg21
I2007
sg53
Nsbag1
(g2
g3
NtRp1300
(dp1301
g61
V10.1104/pp.108.133439
p1302
sg57
VPLANT PHYSIOL
p1303
sg59
V150
p1304
sg89
(lp1305
(VZHOU
VC J
tp1306
asg21
I2009
sg53
VLANT
p1307
sbag1
(g2
g3
NtRp1308
(dp1309
g61
V10.1093/mp/ssp001
p1310
sg57
VMOL PLANT
p1311
sg59
V2
sg89
(lp1312
(VZHU
VH F
tp1313
asg21
I2009
sg53
V513
p1314
sbag1
(g2
g3
NtRp1315
(dp1316
g61
V10.1038/nature02485
p1317
sg57
VNATURE
p1318
sg59
V428
p1319
sg89
(lp1320
(VZIPFEL
VC
tp1321
asg21
I2004
sg53
V764
p1322
sbag1
(g2
g3
NtRp1323
(dp1324
g61
V10.1016/j.cell.2006.03.037
p1325
sg57
VCELL
p1326
sg59
V125
p1327
sg89
(lp1328
(VZIPFEL
VC
tp1329
asg21
I2006
sg53
V749
p1330
sbasb.