ccopy_reg
_reconstructor
p1
(ctethne.classes.paper
Paper
p2
c__builtin__
object
p3
NtRp4
(dp5
S'publisherCity'
p6
VROCKVILLE
p7
sS'reprintAddress'
p8
VOhlrogge, JB (reprint author), Michigan State Univ, Dept Plant Biol, E Lansing, MI 48824 USA.
p9
sS'WC'
p10
VPlant Sciences
p11
sS'GA'
p12
V512YR
p13
sS'abstract'
p14
VAll higher plants express several different acyl carrier protein (ACP) isoforms in a tissue-specific manner. We provide evidence that expression of mRNA for the most abundant ACP isoform in Arabidopsis leaves (ACP4) is increased severalfold by light, whereas mRNA levels for ACP isoforms 2 and 3 are independent of light. The presence of GATA-like motifs in the upstream region of the Acl1.4 gene (encoding for ACP4) and the similarity in light-mediated induction to ferredoxin-A mRNA suggests a direct role of light in Acl1.4 gene activation, Polyribosomal analysis indicated that light also affects the association of ACP transcripts with polysomes, similarly to mRNAs encoding ferredoxin-A. ACP2, ACP3, and ACP4 mRNA levels were also examined in Arabidopsis cell suspension culture and were found to be differentially controlled by metabolic and/or growth derived signals. Comparison of 5'-untranslated regions (UTRs) of ACP mRNAs of diverse plant species revealed two motifs that have been conserved during evolution, a CTCCGCC box and C-T-rich sequences. Fusions of the 5'-UTR sequences of ACP1 and ACP2 to luciferase and expression in transgenic plants indicated that the ACP1 leader contributes to preferential expression in seeds, whereas the ACP2 5'-UTR favored expression in roots. The deletion of 58 bp containing the conserved motifs of the ACP1 5'-UTR resulted in 10- to 20-fold lower gene expression in leaf and seed tissues of transgenic Arabidopsis plants.
p15
sS'pageEnd'
p16
I235
sS'publisherAddress'
p17
V15501 MONONA DRIVE, ROCKVILLE, MD 20855 USA
p18
sS'documentType'
p19
VArticle
p20
sS'subject'
p21
VPlant Sciences
p22
sS'isoSource'
p23
VPlant Physiol.
p24
sS'timesCited'
p25
(lp26
I25
aVZ9 26
p27
asS'PT'
p28
VJ
sS'title'
p29
VDifferential Regulation Of Mrna Levels Of Acyl Carrier Protein Isoforms In Arabidopsis
p30
sS'ISSN'
p31
(lp32
V0032-0889
p33
aVJ9 PLANT PHYSIOL
p34
asS'authors_full'
p35
(lp36
(VBONAVENTURE
VG
tp37
a(VOHLROGGE
VJB
tp38
asS'PG'
p39
I13
sS'PD'
p40
VJAN
p41
sS'pageStart'
p42
I223
sS'issue'
p43
I1
sS'journal'
p44
VPLANT PHYSIOLOGY
p45
sS'volume'
p46
V128
p47
sS'doi'
p48
V10.1104/pp.010397
p49
sS'authorAddress'
p50
(lp51
VMichigan State Univ, Dept Plant Biol, E Lansing, MI 48824 USA.
p52
aVMichigan State Univ, Genet Program, E Lansing, MI 48824 USA.
p53
asS'date'
p54
I2002
sS'ER'
p55
V
sS'publisher'
p56
VAMER SOC PLANT BIOLOGISTS
p57
sS'authorKeywords'
p58
(lp59
VFATTY-ACID SYNTHESIS
p60
aVACETYL-COA CARBOXYLASE
p61
aVGENE-EXPRESSION
p62
aVLIPID BIOSYNTHESIS
p63
aV5'-UNTRANSLATED LEADERS
p64
aVPLANT TRANSFORMATION
p65
aVBINDING-PROTEINS
p66
aVSWEET-POTATO
p67
aVPROMOTER
p68
aVLIGHT
p69
asS'language'
p70
VEnglish
p71
sS'wosid'
p72
VWOS:000173351600026
p73
sS'citationCount'
p74
I60
sS'authors_init'
p75
(lp76
(VBONAVENTURE
VG
tp77
a(VOHLROGGE
VJ B
tp78
asS'citedReferences'
p79
(lp80
g1
(g2
g3
NtRp81
(dp82
g48
Nsg44
VMETHOD ENZYMOL
p83
sg46
V153
p84
sg75
(lp85
(VAN
VG
tp86
asg54
I1987
sg42
V292
p87
sbag1
(g2
g3
NtRp88
(dp89
g48
Nsg44
VPLANT PHYSIOL BIOCH
p90
sg46
V30
p91
sg75
(lp92
(VAXELOS
VM
tp93
asg54
I1992
sg42
VLANT
p94
sbag1
(g2
g3
NtRp95
(dp96
g48
V10.1086/297570
p97
sg44
VINT J PLANT SCI
p98
sg46
V159
p99
sg75
(lp100
(VBAERSON
VS R
tp101
asg54
I1998
sg42
V533
p102
sbag1
(g2
g3
NtRp103
(dp104
g48
V10.1007/BF00014933
p105
sg44
VPLANT MOL BIOL
p106
sg46
V22
p107
sg75
(lp108
(VBAERSON
VS R
tp109
asg54
I1993
sg42
VLANT
p110
sbag1
(g2
g3
NtRp111
(dp112
g48
V10.1046/j.1365-313x.2000.00712.x
p113
sg44
VPLANT J
p114
sg46
V22
p115
sg75
(lp116
(VBAO
VX M
tp117
asg54
I2000
sg42
VLANT
p118
sbag1
(g2
g3
NtRp119
(dp120
g48
V10.1007/BF01160390
p121
sg44
VPLANTA
p122
sg46
V180
p123
sg75
(lp124
(VBATTEY
VJ F
tp125
asg54
I1990
sg42
VLANTA
p126
sbag1
(g2
g3
NtRp127
(dp128
g48
Nsg44
VCR ACAD SCI III
p129
sg46
V316
p130
sg75
(lp131
(VBECHTOLD
VN
tp132
asg54
I1993
sg42
V1194
p133
sbag1
(g2
g3
NtRp134
(dp135
g48
Nsg44
VPLANT CELL
p136
sg46
V2
sg75
(lp137
(VBERRY
VJ O
tp138
asg54
I1990
sg42
VLANT
p139
sbag1
(g2
g3
NtRp140
(dp141
g48
V10.1007/BF00020483
p142
sg44
VPLANT MOL BIOL
p143
sg46
V32
p144
sg75
(lp145
(VBOLLE
VC
tp146
asg54
I1996
sg42
VLANT
p147
sbag1
(g2
g3
NtRp148
(dp149
g48
V10.1046/j.1365-313X.1994.6040513.x
p150
sg44
VPLANT J
p151
sg46
V6
sg75
(lp152
(VBOLLE
VC
tp153
asg54
I1994
sg42
VLANT
p154
sbag1
(g2
g3
NtRp155
(dp156
g48
Nsg44
VBIOCHEM J
p157
sg46
V196
p158
sg75
(lp159
(VBROWSE
VJ
tp160
asg54
I1981
sg42
V347
p161
sbag1
(g2
g3
NtRp162
(dp163
g48
Nsg44
VJ BIOL CHEM
p164
sg46
V268
p165
sg75
(lp166
(VBRUN
VT
tp167
asg54
I1993
sg42
V18905
p168
sbag1
(g2
g3
NtRp169
(dp170
g48
V10.1016/S0163-7827(99)00010-7
p171
sg44
VPROG LIPID RES
p172
sg46
V38
p173
sg75
(lp174
(VCARMAN
VG M
tp175
asg54
I1999
sg42
VROG
p176
sbag1
(g2
g3
NtRp177
(dp178
g48
Nsg44
VPLANT J
p179
sg46
V3
sg75
(lp180
(VCASPAR
VT
tp181
asg54
I1993
sg42
VLANT
p182
sbag1
(g2
g3
NtRp183
(dp184
g48
Nsg44
VARABIDOPSIS
p185
sg46
Nsg75
(lp186
(VCHORY
VJ
tp187
asg54
I1994
sg42
V579
p188
sbag1
(g2
g3
NtRp189
(dp190
g48
Nsg44
VEMBO J
p191
sg46
V10
p192
sg75
(lp193
(VDANON
VA
tp194
asg54
I1991
sg42
V3993
p195
sbag1
(g2
g3
NtRp196
(dp197
g48
Nsg44
VPLANT CELL
p198
sg46
V10
p199
sg75
(lp200
(VDICKEY
VL F
tp201
asg54
I1998
sg42
VLANT
p202
sbag1
(g2
g3
NtRp203
(dp204
g48
Nsg44
VENZYMES
p205
sg46
Nsg75
(lp206
(VDIXON
VM
tp207
asg54
I1979
sg42
V48
p208
sbag1
(g2
g3
NtRp209
(dp210
g48
V10.1105/tpc.10.4.613
p211
sg44
VPLANT CELL
p212
sg46
V10
p213
sg75
(lp214
(VECCLESTON
VV S
tp215
asg54
I1998
sg42
VLANT
p216
sbag1
(g2
g3
NtRp217
(dp218
g48
V10.1104/pp.124.3.1139
p219
sg44
VPLANT PHYSIOL
p220
sg46
V124
p221
sg75
(lp222
(VFUJIKI
VY
tp223
asg54
I2000
sg42
VLANT
p224
sbag1
(g2
g3
NtRp225
(dp226
g48
V10.1093/nar/20.17.4631
p227
sg44
VNUCLEIC ACIDS RES
p228
sg46
V20
p229
sg75
(lp230
(VGALLIE
VD R
tp231
asg54
I1992
sg42
V4631
p232
sbag1
(g2
g3
NtRp233
(dp234
g48
V10.1007/BF00387921
p235
sg44
VPLANTA
p236
sg46
V136
p237
sg75
(lp238
(VGILES
VA B
tp239
asg54
I1977
sg42
VLANTA
p240
sbag1
(g2
g3
NtRp241
(dp242
g48
V10.1105/tpc.6.5.761
p243
sg44
VPLANT CELL
p244
sg46
V6
sg75
(lp245
(VGRAHAM
VI A
tp246
asg54
I1994
sg42
VLANT
p247
sbag1
(g2
g3
NtRp248
(dp249
g48
V10.1007/BF00014672
p250
sg44
VPLANT MOL BIOL
p251
sg46
V25
p252
sg75
(lp253
(VHAJDUKIEWICZ
VP
tp254
asg54
I1994
sg42
VLANT
p255
sbag1
(g2
g3
NtRp256
(dp257
g48
V10.1104/pp.86.4.1174
p258
sg44
VPLANT PHYSIOL
p259
sg46
V86
p260
sg75
(lp261
(VHANNAPEL
VD J
tp262
asg54
I1988
sg42
VLANT
p263
sbag1
(g2
g3
NtRp264
(dp265
g48
V10.1007/BF00027505
p266
sg44
VPLANT MOL BIOL
p267
sg46
V14
p268
sg75
(lp269
(VHATTORI
VT
tp270
asg54
I1990
sg42
VLANT
p271
sbag1
(g2
g3
NtRp272
(dp273
g48
V10.1104/pp.98.1.206
p274
sg44
VPLANT PHYSIOL
p275
sg46
V98
p276
sg75
(lp277
(VHLOUSEKRADOJCIC
VA
tp278
asg54
I1992
sg42
VLANT
p279
sbag1
(g2
g3
NtRp280
(dp281
g48
V10.1006/abbi.1998.0900
p282
sg44
VARCH BIOCHEM BIOPHYS
p283
sg46
V359
p284
sg75
(lp285
(VHUNTER
VS C
tp286
asg54
I1998
sg42
V170
p287
sbag1
(g2
g3
NtRp288
(dp289
g48
Nsg44
VPLANT MOL BIOL
p290
sg46
V39
p291
sg75
(lp292
(VJANDEBOER
VG
tp293
asg54
I1999
sg42
VLANT
p294
sbag1
(g2
g3
NtRp295
(dp296
g48
Nsg44
VJ BACTERIOL
p297
sg46
V176
p298
sg75
(lp299
(VJIANG
VP
tp300
asg54
I1994
sg42
V2814
p301
sbag1
(g2
g3
NtRp302
(dp303
g48
V10.1093/nar/15.16.6643
p304
sg44
VNUCLEIC ACIDS RES
p305
sg46
V15
p306
sg75
(lp307
(VJOSHI
VC P
tp308
asg54
I1987
sg42
V6643
p309
sbag1
(g2
g3
NtRp310
(dp311
g48
V10.1023/A:1005816823636
p312
sg44
VPLANT MOL BIOL
p313
sg46
V35
p314
sg75
(lp315
(VJOSHI
VC P
tp316
asg54
I1997
sg42
VLANT
p317
sbag1
(g2
g3
NtRp318
(dp319
g48
V10.1016/0309-1651(79)90033-X
p320
sg44
VCELL BIOL INT REP
p321
sg46
V3
sg75
(lp322
(VKASEMIR
VH
tp323
asg54
I1979
sg42
V197
p324
sbag1
(g2
g3
NtRp325
(dp326
g48
V10.1104/pp.122.4.1057
p327
sg44
VPLANT PHYSIOL
p328
sg46
V122
p329
sg75
(lp330
(VKE
VJ S
tp331
asg54
I2000
sg42
VLANT
p332
sbag1
(g2
g3
NtRp333
(dp334
g48
V10.1146/annurev.arplant.47.1.509
p335
sg44
VANNU REV PLANT PHYS
p336
sg46
V47
p337
sg75
(lp338
(VKOCH
VK E
tp339
asg54
I1996
sg42
V509
p340
sbag1
(g2
g3
NtRp341
(dp342
g48
V10.1007/BF00331014
p343
sg44
VMOL GEN GENET
p344
sg46
V204
p345
sg75
(lp346
(VKONCZ
VC
tp347
asg54
I1986
sg42
V383
p348
sbag1
(g2
g3
NtRp349
(dp350
g48
V10.1007/BF00023997
p351
sg44
VPLANT MOL BIOL
p352
sg46
V16
p353
sg75
(lp354
(VLAMPPA
VG
tp355
asg54
I1991
sg42
VLANT
p356
sbag1
(g2
g3
NtRp357
(dp358
g48
V10.1046/j.1365-313X.1998.00139.x
p359
sg44
VPLANT J
p360
sg46
V14
p361
sg75
(lp362
(VLUKASZEWICZ
VM
tp363
asg54
I1998
sg42
VLANT
p364
sbag1
(g2
g3
NtRp365
(dp366
g48
V10.1104/pp.122.2.389
p367
sg44
VPLANT PHYSIOL
p368
sg46
V122
p369
sg75
(lp370
(VMEKHEDOV
VS
tp371
asg54
I2000
sg42
VLANT
p372
sbag1
(g2
g3
NtRp373
(dp374
g48
V10.1021/bi00063a001
p375
sg44
VBIOCHEMISTRY
p376
sg46
V32
p377
sg75
(lp378
(VMORRIS
VD R
tp379
asg54
I1993
sg42
V2931
p380
sbag1
(g2
g3
NtRp381
(dp382
g48
V10.1007/BF00397241
p383
sg44
VPLANTA
p384
sg46
V158
p385
sg75
(lp386
(VMOSINGER
VE
tp387
asg54
I1983
sg42
VLANTA
p388
sbag1
(g2
g3
NtRp389
(dp390
g48
V10.1104/pp.96.3.902
p391
sg44
VPLANT PHYSIOL
p392
sg46
V96
p393
sg75
(lp394
(VNAKAMURA
VK
tp395
asg54
I1991
sg42
VLANT
p396
sbag1
(g2
g3
NtRp397
(dp398
g48
V10.1007/BF00020987
p399
sg44
VPLANT MOL BIOL
p400
sg46
V29
p401
sg75
(lp402
(VNISHIUCHI
VT
tp403
asg54
I1995
sg42
VLANT
p404
sbag1
(g2
g3
NtRp405
(dp406
g48
V10.1105/tpc.7.7.957
p407
sg44
VPLANT CELL
p408
sg46
V7
sg75
(lp409
(VOHLROGGE
VJ
tp410
asg54
I1995
sg42
VLANT
p411
sbag1
(g2
g3
NtRp412
(dp413
g48
V10.1146/annurev.arplant.48.1.109
p414
sg44
VANNU REV PLANT PHYS
p415
sg46
V48
p416
sg75
(lp417
(VOHLROGGE
VJ B
tp418
asg54
I1997
sg42
V109
p419
sbag1
(g2
g3
NtRp420
(dp421
g48
Nsg44
VPLANT CELL
p422
sg46
V9
sg75
(lp423
(VPETRACEK
VM E
tp424
asg54
I1997
sg42
VLANT
p425
sbag1
(g2
g3
NtRp426
(dp427
g48
V10.1093/nar/17.4.1777
p428
sg44
VNUCLEIC ACIDS RES
p429
sg46
V17
p430
sg75
(lp431
(VPOSTBEITTENMILLER
VM A
tp432
asg54
I1989
sg42
V1777
p433
sbag1
(g2
g3
NtRp434
(dp435
g48
Nsg44
VMOL CLONING LAB MANU
p436
sg46
Nsg75
(lp437
(VSAMBROOK
VJ
tp438
asg54
I1989
sg42
Nsbag1
(g2
g3
NtRp439
(dp440
g48
V10.1073/pnas.94.20.11096
p441
sg44
VP NATL ACAD SCI USA
p442
sg46
V94
p443
sg75
(lp444
(VSASAKI
VY
tp445
asg54
I1997
sg42
V11096
p446
sbag1
(g2
g3
NtRp447
(dp448
g48
V10.1046/j.1365-313X.1999.00478.x
p449
sg44
VPLANT J
p450
sg46
V18
p451
sg75
(lp452
(VSAVAGE
VL J
tp453
asg54
I1999
sg42
VLANT
p454
sbag1
(g2
g3
NtRp455
(dp456
g48
V10.1007/BF00015645
p457
sg44
VPLANT MOL BIOL
p458
sg46
V9
sg75
(lp459
(VSCHERER
VD E
tp460
asg54
I1987
sg42
VLANT
p461
sbag1
(g2
g3
NtRp462
(dp463
g48
Nsg44
VEMBO J
p464
sg46
V11
p465
sg75
(lp466
(VSCHULLER
VH J
tp467
asg54
I1992
sg42
V107
p468
sbag1
(g2
g3
NtRp469
(dp470
g48
Nsg44
VTHESIS MICHIGAN STAT
p471
sg46
Nsg75
(lp472
(VSHINTANI
VD K
tp473
asg54
I1996
sg42
Nsbag1
(g2
g3
NtRp474
(dp475
g48
Nsg44
VBIOCH MOL BIOL PLANT
p476
sg46
Nsg75
(lp477
(VSOMERVILLE
VC
tp478
asg54
I2000
sg42
V456
p479
sbag1
(g2
g3
NtRp480
(dp481
g48
V10.1016/0005-2760(91)90294-R
p482
sg44
VBIOCHIM BIOPHYS ACTA
p483
sg46
V1082
p484
sg75
(lp485
(VOHLROGGE
VJ B
tp486
asg54
I1991
sg42
V1
sbag1
(g2
g3
NtRp487
(dp488
g48
V10.1046/j.1365-313X.1994.6040547.x
p489
sg44
VPLANT J
p490
sg46
V6
sg75
(lp491
(VSTAUB
VJ M
tp492
asg54
I1994
sg42
VLANT
p493
sbag1
(g2
g3
NtRp494
(dp495
g48
V10.1016/0092-8674(93)90459-4
p496
sg44
VCELL
p497
sg46
V74
p498
sg75
(lp499
(VSUSEK
VR E
tp500
asg54
I1993
sg42
V787
p501
sbag1
(g2
g3
NtRp502
(dp503
g48
V10.1146/annurev.arplant.46.1.445
p504
sg44
VANNU REV PLANT PHYS
p505
sg46
V46
p506
sg75
(lp507
(VTERZAGHI
VW B
tp508
asg54
I1995
sg42
V445
p509
sbag1
(g2
g3
NtRp510
(dp511
g48
Nsg44
VAdv Biochem Eng Biotechnol
p512
sg46
V45
p513
sg75
(lp514
(VWEBER
VN
tp515
asg54
I1992
sg42
V99
p516
sbag1
(g2
g3
NtRp517
(dp518
g48
Nsg44
VSymp Soc Exp Biol
p519
sg46
V45
p520
sg75
(lp521
(VWEISSHAAR
VB
tp522
asg54
I1991
sg42
V191
p523
sbasb.