ccopy_reg
_reconstructor
p1
(ctethne.classes.paper
Paper
p2
c__builtin__
object
p3
NtRp4
(dp5
S'publisherCity'
p6
VROCKVILLE
p7
sS'reprintAddress'
p8
VHanley-Bowdoin, L (reprint author), N Carolina State Univ, Dept Mol & Struct Biochem, Raleigh, NC 27695 USA.
p9
sS'WC'
p10
VPlant Sciences
p11
sS'GA'
p12
V199OJ
p13
sS'abstract'
p14
VCore DNA replication proteins mediate the initiation, elongation, and Okazaki fragment maturation functions of DNA replication. Although this process is generally conserved in eukaryotes, important differences in the molecular architecture of the DNA replication machine and the function of individual subunits have been reported in various model systems. We have combined genome-wide bioinformatic analyses of Arabidopsis (Arabidopsis thaliana) and rice (Oryza sativa) with published experimental data to provide a comprehensive view of the core DNA replication machinery in plants. Many components identified in this analysis have not been studied previously in plant systems, including the GINS (go ichi ni san) complex (PSF1, PSF2, PSF3, and SLD5), MCM8, MCM9, MCM10, NOC3, POLA2, POLA3, POLA4, POLD3, POLD4, and RNASEH2. Our results indicate that the core DNA replication machinery from plants is more similar to vertebrates than single-celled yeasts (Saccharomyces cerevisiae), suggesting that animal models may be more relevant to plant systems. However, we also uncovered some important differences between plants and vertebrate machinery. For example, we did not identify geminin or RNASEH1 genes in plants. Our analyses also indicate that plants may be unique among eukaryotes in that they have multiple copies of numerous core DNA replication genes. This finding raises the question of whether specialized functions have evolved in some cases. This analysis establishes that the core DNA replication machinery is highly conserved across plant species and displays many features in common with other eukaryotes and some characteristics that are unique to plants.
p15
sS'pageEnd'
p16
I1714
sS'publisherAddress'
p17
V15501 MONONA DRIVE, ROCKVILLE, MD 20855 USA
p18
sS'documentType'
p19
VReview
p20
sS'subject'
p21
VPlant Sciences
p22
sS'isoSource'
p23
VPlant Physiol.
p24
sS'timesCited'
p25
(lp26
I44
aVZ9 44
p27
asS'PT'
p28
VJ
sS'title'
p29
VGenome-Wide Analysis Of The Core Dna Replication Machinery In The Higher Plants Arabidopsis And Rice(1[W][Oa])
p30
sS'ISSN'
p31
(lp32
V0032-0889
p33
aVJ9 PLANT PHYSIOL
p34
asS'authors_full'
p35
(lp36
(VSHULTZ
VRANDALL W
tp37
a(VTATINENI
VVINAYA M
tp38
a(VHANLEYBOWDOIN
VLINDA
tp39
a(VTHOMPSON
VWILLIAM F
tp40
asS'PG'
p41
I18
sS'PD'
p42
VAUG
p43
sS'pageStart'
p44
I1697
sS'issue'
p45
I4
sS'journal'
p46
VPLANT PHYSIOLOGY
p47
sS'volume'
p48
V144
p49
sS'doi'
p50
V10.1104/pp.107.101105
p51
sS'emailAddress'
p52
Vlinda_hanley-bowdoin@ncsu.edu
p53
sS'authorAddress'
p54
(lp55
VN Carolina State Univ, Dept Mol & Struct Biochem, Raleigh, NC 27695 USA.
p56
aVN Carolina State Univ, Dept Plant Biol, Raleigh, NC 27695 USA.
p57
aVN Carolina State Univ, Dept Stat Genet & Bioinformat, Raleigh, NC 27695 USA.
p58
asS'date'
p59
I2007
sS'ER'
p60
V
sS'publisher'
p61
VAMER SOC PLANT BIOLOGISTS
p62
sS'authorKeywords'
p63
(lp64
VCELL NUCLEAR ANTIGEN
p65
aVORIGIN RECOGNITION COMPLEX
p66
aVORYZA-SATIVA L.
p67
aVPROTEIN-A RPA
p68
aVPOLYMERASE-DELTA
p69
aVS-PHASE
p70
aVFLAP ENDONUCLEASE-1
p71
aVMOLECULAR-CLONING
p72
aVBUDDING YEAST
p73
aVSACCHAROMYCES-CEREVISIAE
p74
asS'language'
p75
VEnglish
p76
sS'wosid'
p77
VWOS:000248704800002
p78
sS'citationCount'
p79
I144
sS'authors_init'
p80
(lp81
(VSHULTZ
VR W
tp82
a(VTATINENI
VV M
tp83
a(VHANLEYBOWDOIN
VL
tp84
a(VTHOMPSON
VW F
tp85
asS'citedReferences'
p86
(lp87
g1
(g2
g3
NtRp88
(dp89
g50
V10.1073/pnas.92.24.11170
p90
sg46
VP NATL ACAD SCI USA
p91
sg48
V92
p92
sg80
(lp93
(VARENTS
VG
tp94
asg59
I1995
sg44
V11170
p95
sbag1
(g2
g3
NtRp96
(dp97
g50
V10.1038/sj.emboj.7600314
p98
sg46
VEMBO J
p99
sg48
V23
p100
sg80
(lp101
(VBALLABENI
VA
tp102
asg59
I2004
sg44
V3122
p103
sbag1
(g2
g3
NtRp104
(dp105
g50
V10.1016/S0168-9452(01)00537-4
p106
sg46
VPLANT SCI
p107
sg48
V162
p108
sg80
(lp109
(VBASTIDA
VM
tp110
asg59
I2002
sg44
VLANT
p111
sbag1
(g2
g3
NtRp112
(dp113
g50
V10.1146/annurev.biochem.71.110601.135425
p114
sg46
VANNU REV BIOCHEM
p115
sg48
V71
p116
sg80
(lp117
(VBELL
VS P
tp118
asg59
I2002
sg44
V333
p119
sbag1
(g2
g3
NtRp120
(dp121
g50
V10.1101/gad.969602
p122
sg46
VGENE DEV
p123
sg48
V16
p124
sg80
(lp125
(VBELL
VS P
tp126
asg59
I2002
sg44
V659
p127
sbag1
(g2
g3
NtRp128
(dp129
g50
V10.1101/gr.751803
p130
sg46
VGENOME RES
p131
sg48
V13
p132
sg80
(lp133
(VBLANC
VG
tp134
asg59
I2003
sg44
V137
p135
sbag1
(g2
g3
NtRp136
(dp137
g50
Nsg46
VJ HIGH ENERGY PHYS
p138
sg48
Nsg80
(lp139
(VBLANCO-PILLADO
VJ J
tp140
asg59
I2005
sg44
Nsbag1
(g2
g3
NtRp141
(dp142
g50
V10.1038/nrm1663
p143
sg46
VNAT REV MOL CELL BIO
p144
sg48
V6
sg80
(lp145
(VBLOW
VJ J
tp146
asg59
I2005
sg44
V476
p147
sbag1
(g2
g3
NtRp148
(dp149
g50
V10.1071/FP04143
p150
sg46
VFUNCT PLANT BIOL
p151
sg48
V32
p152
sg80
(lp153
(VBONATTO
VD
tp154
asg59
I2005
sg44
V161
p155
sbag1
(g2
g3
NtRp156
(dp157
g50
V10.1093/jexbot/52.355.193
p158
sg46
VJ EXP BOT
p159
sg48
V52
p160
sg80
(lp161
(VBRYANT
VJ A
tp162
asg59
I2001
sg44
V193
p163
sbag1
(g2
g3
NtRp164
(dp165
g50
V10.1074/jbc.R100056200
p166
sg46
VJ BIOL CHEM
p167
sg48
V276
p168
sg80
(lp169
(VBURGERS
VP M J
tp170
asg59
I2001
sg44
V43487
p171
sbag1
(g2
g3
NtRp172
(dp173
g50
V10.1105/tpc.104.022400
p174
sg46
VPLANT CELL
p175
sg48
V16
p176
sg80
(lp177
(VCASTELLANO
VM D
tp178
asg59
I2004
sg44
VLANT
p179
sbag1
(g2
g3
NtRp180
(dp181
g50
Nsg46
VPLANT CELL
p182
sg48
V13
p183
sg80
(lp184
(VCASTELLANO
VM M
tp185
asg59
I2001
sg44
VLANT
p186
sbag1
(g2
g3
NtRp187
(dp188
g50
V10.1016/S0042-6822(03)0023-4
p189
sg46
VVIROLOGY
p190
sg48
VIROLOGY
p191
sg80
(lp192
(VCASTILLO
VA G
tp193
asg59
I2003
sg44
V381
p194
sbag1
(g2
g3
NtRp195
(dp196
g50
V10.1093/nar/gkl785
p197
sg46
VNUCLEIC ACIDS RES
p198
sg48
V35
p199
sg80
(lp200
(VCHILDS
VK L
tp201
asg59
I2007
sg44
VD846
p202
sbag1
(g2
g3
NtRp203
(dp204
g50
V10.1111/j.1432-1033.1995.tb20675.x
p205
sg46
VEUR J BIOCHEM
p206
sg48
V231
p207
sg80
(lp208
(VCOELLO
VP
tp209
asg59
I1995
sg44
V99
p210
sbag1
(g2
g3
NtRp211
(dp212
g50
V10.1105/tpc.019059
p213
sg46
VPLANT CELL
p214
sg48
V16
p215
sg80
(lp216
(VCOLLINGE
VM A
tp217
asg59
I2004
sg44
VLANT
p218
sbag1
(g2
g3
NtRp219
(dp220
g50
V10.1074/jbc.M306049200
p221
sg46
VJ BIOL CHEM
p222
sg48
V278
p223
sg80
(lp224
(VCOOK
VC R
tp225
asg59
I2003
sg44
V36051
p226
sbag1
(g2
g3
NtRp227
(dp228
g50
V10.1093/jxb/erg079
p229
sg46
VJ EXP BOT
p230
sg48
V54
p231
sg80
(lp232
(VDAMBRAUSKAS
VG
tp233
asg59
I2003
sg44
V699
p234
sbag1
(g2
g3
NtRp235
(dp236
g50
V10.1023/A:1011848528377
p237
sg46
VPLANT MOL BIOL
p238
sg48
V47
p239
sg80
(lp240
(VDE
VJAGER S M
tp241
asg59
I2001
sg44
VLANT
p242
sbag1
(g2
g3
NtRp243
(dp244
g50
V10.1016/j.ceb.2006.04.001
p245
sg46
VCURR OPIN CELL BIOL
p246
sg48
V18
p247
sg80
(lp248
(VDEPAMPHILIS
VM L
tp249
asg59
I2006
sg44
V231
p250
sbag1
(g2
g3
NtRp251
(dp252
g50
V10.1016/S0378-1119(03)00546-8
p253
sg46
VGENE
p254
sg48
V310
p255
sg80
(lp256
(VDEPAMPHILIS
VM L
tp257
asg59
I2003
sg44
V1
sbag1
(g2
g3
NtRp258
(dp259
g50
V10.1093/nar/gki854
p260
sg46
VNUCLEIC ACIDS RES
p261
sg48
V33
p262
sg80
(lp263
(VDIAZ-TRIVINO
VS
tp264
asg59
I2005
sg44
V5404
p265
sbag1
(g2
g3
NtRp266
(dp267
g50
V10.1104/pp.105.074294
p268
sg46
VPLANT PHYSIOL
p269
sg48
V140
p270
sg80
(lp271
(VDRESSELHAUS
VT
tp272
asg59
I2006
sg44
VLANT
p273
sbag1
(g2
g3
NtRp274
(dp275
g50
V10.1074/jbc.M106990200
p276
sg46
VJ BIOL CHEM
p277
sg48
V276
p278
sg80
(lp279
(VDUCOUX
VM
tp280
asg59
I2001
sg44
V49258
p281
sbag1
(g2
g3
NtRp282
(dp283
g50
V10.1146/annurev.cellbio.13.1.293
p284
sg46
VANNU REV CELL DEV BI
p285
sg48
V13
p286
sg80
(lp287
(VDUTTA
VA
tp288
asg59
I1997
sg44
V293
p289
sbag1
(g2
g3
NtRp290
(dp291
g50
V10.1105/tpc.006403
p292
sg46
VPLANT CELL
p293
sg48
V14
p294
sg80
(lp295
(VEGELKROUT
VE M
tp296
asg59
I2002
sg44
VLANT
p297
sbag1
(g2
g3
NtRp298
(dp299
g50
V10.1074/jbc.273.10.5979
p300
sg46
VJ BIOL CHEM
p301
sg48
V273
p302
sg80
(lp303
(VELLISON
VV
tp304
asg59
I1998
sg44
V5979
p305
sbag1
(g2
g3
NtRp306
(dp307
g50
V10.1093/nar/gk1550
p308
sg46
VNUCLEIC ACIDS RES
p309
sg48
V34
p310
sg80
(lp311
(VFANNING
VE
tp312
asg59
I2006
sg44
V4126
p313
sbag1
(g2
g3
NtRp314
(dp315
g50
V10.1128/MMBR.68.1.109-131.2004
p316
sg46
VMICROBIOL MOL BIOL R
p317
sg48
V68
p318
sg80
(lp319
(VFORSBURG
VS L
tp320
asg59
I2004
sg44
V109
p321
sbag1
(g2
g3
NtRp322
(dp323
g50
V10.1146/annurev.biochem.70.1.39
p324
sg46
VANNU REV BIOCHEM
p325
sg48
V70
p326
sg80
(lp327
(VFRICK
VD N
tp328
asg59
I2001
sg44
V39
p329
sbag1
(g2
g3
NtRp330
(dp331
g50
V10.1016/S0168-9452(01)00384-3
p332
sg46
VPLANT SCI
p333
sg48
V161
p334
sg80
(lp335
(VFURUKAWA
VT
tp336
asg59
I2001
sg44
VLANT
p337
sbag1
(g2
g3
NtRp338
(dp339
g50
V10.1023/B:PLAN.0000009258.04711.62
p340
sg46
VPLANT MOL BIOL
p341
sg48
V53
p342
sg80
(lp343
(VFURUKAWA
VT
tp344
asg59
I2003
sg44
VLANT
p345
sbag1
(g2
g3
NtRp346
(dp347
g50
V10.1038/ncb1382
p348
sg46
VNAT CELL BIOL
p349
sg48
V8
sg80
(lp350
(VGAMBUS
VA
tp351
asg59
I2006
sg44
V358
p352
sbag1
(g2
g3
NtRp353
(dp354
g50
V10.1111/j.1399-3054.2006.00659.x
p355
sg46
VPHYSIOL PLANTARUM
p356
sg48
V127
p357
sg80
(lp358
(VGARCIA
VE
tp359
asg59
I2006
sg44
VHYSIOL
p360
sbag1
(g2
g3
NtRp361
(dp362
g50
V10.1034/j.1399-3054.2002.1140405.x
p363
sg46
VPHYSIOL PLANTARUM
p364
sg48
V114
p365
sg80
(lp366
(VGARCIA
VE
tp367
asg59
I2002
sg44
VHYSIOL
p368
sbag1
(g2
g3
NtRp369
(dp370
g50
V10.1080/10409230590935433
p371
sg46
VCRIT REV BIOCHEM MOL
p372
sg48
V40
p373
sg80
(lp374
(VGARG
VP
tp375
asg59
I2005
sg44
V115
p376
sbag1
(g2
g3
NtRp377
(dp378
g50
V10.1126/science.270.5242.1667
p379
sg46
VSCIENCE
p380
sg48
V270
p381
sg80
(lp382
(VGAVIN
VK A
tp383
asg59
I1995
sg44
V1667
p384
sbag1
(g2
g3
NtRp385
(dp386
g50
V10.1093/nar/gkg136
p387
sg46
VNUCLEIC ACIDS RES
p388
sg48
V31
p389
sg80
(lp390
(VGOZUACIK
VD
tp391
asg59
I2003
sg44
V570
p392
sbag1
(g2
g3
NtRp393
(dp394
g50
Nsg46
VPlant J
p395
sg48
V35
p396
sg80
(lp397
(VGRELON
VMATHILDE
tp398
asg59
I2003
sg44
Vlant
p399
sbag1
(g2
g3
NtRp400
(dp401
g50
V10.1093/emboj/cdg238
p402
sg46
VEMBO J
p403
sg48
V22
p404
sg80
(lp405
(VHASHIMOTO
VY
tp406
asg59
I2003
sg44
V2526
p407
sbag1
(g2
g3
NtRp408
(dp409
g50
V10.1007/s004970050142
p410
sg46
VSEX PLANT REPROD
p411
sg48
V11
p412
sg80
(lp413
(VHE
VC P
tp414
asg59
I1998
sg44
V199
p415
sbag1
(g2
g3
NtRp416
(dp417
g50
V10.1007/s00425-001-0686-0
p418
sg46
VPLANTA
p419
sg48
V214
p420
sg80
(lp421
(VHOLDING
VD R
tp422
asg59
I2002
sg44
VLANTA
p423
sbag1
(g2
g3
NtRp424
(dp425
g50
V10.1080/10409239991209255
p426
sg46
VCRIT REV BIOCHEM MOL
p427
sg48
V34
p428
sg80
(lp429
(VIFTODE
VC
tp430
asg59
I1999
sg44
V141
p431
sbag1
(g2
g3
NtRp432
(dp433
g50
V10.1093/jb/mvj014
p434
sg46
VJ BIOCHEM
p435
sg48
V139
p436
sg80
(lp437
(VISHIBASHI
VT
tp438
asg59
I2006
sg44
V99
p439
sbag1
(g2
g3
NtRp440
(dp441
g50
V10.1111/j.1742-4658.2005.04719.x
p442
sg46
VFEBS J
p443
sg48
V272
p444
sg80
(lp445
(VISHIBASHI
VT
tp446
asg59
I2005
sg44
V3270
p447
sbag1
(g2
g3
NtRp448
(dp449
g50
V10.1016/S0378-1119(01)00555-8
p450
sg46
VGENE
p451
sg48
V272
p452
sg80
(lp453
(VISHIBASHI
VT
tp454
asg59
I2001
sg44
V335
p455
sbag1
(g2
g3
NtRp456
(dp457
g50
V10.1105/tpc.105.036889
p458
sg46
VPLANT CELL
p459
sg48
V17
p460
sg80
(lp461
(VJENIK
VP D
tp462
asg59
I2005
sg44
VLANT
p463
sbag1
(g2
g3
NtRp464
(dp465
g50
V10.1146/annurev.biochem.74.011303.073859
p466
sg46
VANNU REV BIOCHEM
p467
sg48
V74
p468
sg80
(lp469
(VJOHNSON
VA
tp470
asg59
I2005
sg44
V283
p471
sbag1
(g2
g3
NtRp472
(dp473
g50
V10.1038/nature01692
p474
sg46
VNATURE
p475
sg48
V423
p476
sg80
(lp477
(VKANEMAKI
VM
tp478
asg59
I2003
sg44
V720
p479
sbag1
(g2
g3
NtRp480
(dp481
g50
V10.1074/jbc.M313216200
p482
sg46
VJ BIOL CHEM
p483
sg48
V279
p484
sg80
(lp485
(VKAO
VH I
tp486
asg59
I2004
sg44
V15014
p487
sbag1
(g2
g3
NtRp488
(dp489
g50
V10.1080/10409230390259382
p490
sg46
VCRIT REV BIOCHEM MOL
p491
sg48
V38
p492
sg80
(lp493
(VKAO
VH I
tp494
asg59
I2003
sg44
V433
p495
sbag1
(g2
g3
NtRp496
(dp497
g50
V10.1016/S1097-2765(03)00441-6
p498
sg46
VMOL CELL
p499
sg48
V12
p500
sg80
(lp501
(VKEARSEY
VS E
tp502
asg59
I2003
sg44
V1067
p503
sbag1
(g2
g3
NtRp504
(dp505
g50
Nsg46
VMOL CELL BIOL
p506
sg48
V15
p507
sg80
(lp508
(VKESHAV
VK F
tp509
asg59
I1995
sg44
V3119
p510
sbag1
(g2
g3
NtRp511
(dp512
g50
V10.1128/MCB.25.24.10907-10915.2005
p513
sg46
VMOL CELL BIOL
p514
sg48
V25
p515
sg80
(lp516
(VKIM
VJ E
tp517
asg59
I2005
sg44
V10907
p518
sbag1
(g2
g3
NtRp519
(dp520
g50
V10.1016/S0378-1119(03)00694-2
p521
sg46
VGENE
p522
sg48
V314
p523
sg80
(lp524
(VKIMURA
VS
tp525
asg59
I2003
sg44
V63
p526
sbag1
(g2
g3
NtRp527
(dp528
g50
V10.1046/j.1365-313x.2001.01184.x
p529
sg46
VPLANT J
p530
sg48
V28
p531
sg80
(lp532
(VKIMURA
VS
tp533
asg59
I2001
sg44
VLANT
p534
sbag1
(g2
g3
NtRp535
(dp536
g50
V10.1021/cr040482n
p537
sg46
VCHEM REV
p538
sg48
V106
p539
sg80
(lp540
(VKIMURA
VS
tp541
asg59
I2006
sg44
V753
p542
sbag1
(g2
g3
NtRp543
(dp544
g50
V10.1023/A:1006349511964
p545
sg46
VPLANT MOL BIOL
p546
sg48
V42
p547
sg80
(lp548
(VKIMURA
VS
tp549
asg59
I2000
sg44
VLANT
p550
sbag1
(g2
g3
NtRp551
(dp552
g50
Nsg46
VPHYS LOW DIMENS SEMI
p553
sg48
V1
sg80
(lp554
(VKIMURA
VY
tp555
asg59
I2000
sg44
VHYS
p556
sbag1
(g2
g3
NtRp557
(dp558
g50
V10.1046/j.1365-313x.2002.01196.x
p559
sg46
VPLANT J
p560
sg48
V29
p561
sg80
(lp562
(VKOSUGI
VS
tp563
asg59
I2002
sg44
VLANT
p564
sbag1
(g2
g3
NtRp565
(dp566
g50
V10.1101/gad.1070003
p567
sg46
VGENE DEV
p568
sg48
V17
p569
sg80
(lp570
(VKUBOTA
VY
tp571
asg59
I2003
sg44
V1141
p572
sbag1
(g2
g3
NtRp573
(dp574
g50
V10.1093/bib/5.2.150
p575
sg46
VBRIEF BIOINFORM
p576
sg48
V5
sg80
(lp577
(VKUMAR
VS
tp578
asg59
I2004
sg44
V150
p579
sbag1
(g2
g3
NtRp580
(dp581
g50
V10.1074/jbc.M600322200
p582
sg46
VJ BIOL CHEM
p583
sg48
V281
p584
sg80
(lp585
(VLI
VH
tp586
asg59
I2006
sg44
V14748
p587
sbag1
(g2
g3
NtRp588
(dp589
g50
V10.1007/s10529-005-0937-4
p590
sg46
VBIOTECHNOL LETT
p591
sg48
V27
p592
sg80
(lp593
(VLI
VK G
tp594
asg59
I2005
sg44
V1355
p595
sbag1
(g2
g3
NtRp596
(dp597
g50
V10.1074/jbc.M200065200
p598
sg46
VJ BIOL CHEM
p599
sg48
V277
p600
sg80
(lp601
(VLU
VX Q
tp602
asg59
I2002
sg44
V24340
p603
sbag1
(g2
g3
NtRp604
(dp605
g50
V10.1016/S0959-440X(97)80056-5
p606
sg46
VCURR OPIN STRUC BIOL
p607
sg48
V7
sg80
(lp608
(VLUPAS
VA
tp609
asg59
I1997
sg44
V388
p610
sbag1
(g2
g3
NtRp611
(dp612
g50
V10.1126/science.252.5009.1162
p613
sg46
VSCIENCE
p614
sg48
V252
p615
sg80
(lp616
(VLUPAS
VA
tp617
asg59
I1991
sg44
V1162
p618
sbag1
(g2
g3
NtRp619
(dp620
g50
V10.1016/S0968-0004(96)10052-9
p621
sg46
VTRENDS BIOCHEM SCI
p622
sg48
V21
p623
sg80
(lp624
(VLUPAS
VA
tp625
asg59
I1996
sg44
V375
p626
sbag1
(g2
g3
NtRp627
(dp628
g50
V10.1038/sj.emboj.7601436
p629
sg46
VEMBO J
p630
sg48
V25
p631
sg80
(lp632
(VLUTZMANN
VM
tp633
asg59
I2006
sg44
V5764
p634
sbag1
(g2
g3
NtRp635
(dp636
g50
V10.1073/pnas.251193198
p637
sg46
VP NATL ACAD SCI USA
p638
sg48
V98
p639
sg80
(lp640
(VMAGA
VG
tp641
asg59
I2001
sg44
V14298
p642
sbag1
(g2
g3
NtRp643
(dp644
g50
V10.1242/jcs.00653
p645
sg46
VJ CELL SCI
p646
sg48
V116
p647
sg80
(lp648
(VMAGA
VG
tp649
asg59
I2003
sg44
V3051
p650
sbag1
(g2
g3
NtRp651
(dp652
g50
V10.1016/j.ceb.2006.02.006
p653
sg46
VCURR OPIN CELL BIOL
p654
sg48
V18
p655
sg80
(lp656
(VMAIORANO
VD
tp657
asg59
I2006
sg44
V130
p658
sbag1
(g2
g3
NtRp659
(dp660
g50
V10.1016/j.cell.2004.12.010
p661
sg46
VCell
p662
sg48
V120
p663
sg80
(lp664
(VMAIORANO
VDOMENICO
tp665
asg59
I2005
sg44
V315
p666
sbag1
(g2
g3
NtRp667
(dp668
g50
V10.1016/S0079-6603(04)78006-X
p669
sg46
VPROG NUCLEIC ACID RE
p670
sg48
V78
p671
sg80
(lp672
(VMAJKA
VJ
tp673
asg59
I2004
sg44
VROG
p674
sbag1
(g2
g3
NtRp675
(dp676
g50
V10.1074/jbc.M102245200
p677
sg46
VJ BIOL CHEM
p678
sg48
V276
p679
sg80
(lp680
(VMAKINIEMI
VM
tp681
asg59
I2001
sg44
V30399
p682
sbag1
(g2
g3
NtRp683
(dp684
g50
V10.1002/prot.20814
p685
sg46
VPROTEINS
p686
sg48
V62
p687
sg80
(lp688
(VMARINO-RAMIREZ
VL
tp689
asg59
I2006
sg44
VROTEINS
p690
sbag1
(g2
g3
NtRp691
(dp692
g50
V10.1016/j.tibs.2004.07.004
p693
sg46
VTRENDS BIOCHEM SCI
p694
sg48
V29
p695
sg80
(lp696
(VMARTIN
VJ
tp697
asg59
I2004
sg44
V455
p698
sbag1
(g2
g3
NtRp699
(dp700
g50
V10.1007/s00425-003-1001-z
p701
sg46
VPLANTA
p702
sg48
V217
p703
sg80
(lp704
(VMARWEDEL
VT
tp705
asg59
I2003
sg44
VLANTA
p706
sbag1
(g2
g3
NtRp707
(dp708
g50
V10.1080/15216540500092419
p709
sg46
VIUBMB LIFE
p710
sg48
V57
p711
sg80
(lp712
(VMASAI
VH
tp713
asg59
I2005
sg44
V323
p714
sbag1
(g2
g3
NtRp715
(dp716
g50
V10.1016/j.febslet.2004.07.088
p717
sg46
VFEBS LETT
p718
sg48
V574
p719
sg80
(lp720
(VMASUDA
VH P
tp721
asg59
I2004
sg44
V192
p722
sbag1
(g2
g3
NtRp723
(dp724
g50
V10.1093/nar/gkl070
p725
sg46
VNUCLEIC ACIDS RES
p726
sg48
V34
p727
sg80
(lp728
(VMASUDA-SASA
VT
tp729
asg59
I2006
sg44
V1865
p730
sbag1
(g2
g3
NtRp731
(dp732
g50
V10.1128/MCB.20.8.2809-2817.2000
p733
sg46
VMOL CELL BIOL
p734
sg48
V20
p735
sg80
(lp736
(VMASUMOTO
VH
tp737
asg59
I2000
sg44
V2809
p738
sbag1
(g2
g3
NtRp739
(dp740
g50
V10.1016/S0092-8674(01)00358-0
p741
sg46
VCELL
p742
sg48
V105
p743
sg80
(lp744
(VMILKEREIT
VP
tp745
asg59
I2001
sg44
V499
p746
sbag1
(g2
g3
NtRp747
(dp748
g50
V10.1093/emboj/17.19.5699
p749
sg46
VEMBO J
p750
sg48
V17
p751
sg80
(lp752
(VMIMURA
VS
tp753
asg59
I1998
sg44
V5699
p754
sbag1
(g2
g3
NtRp755
(dp756
g50
Nsg46
VJ BIOL CHEM
p757
sg48
V268
p758
sg80
(lp759
(VMIYAZAWA
VH
tp760
asg59
I1993
sg44
V8111
p761
sbag1
(g2
g3
NtRp762
(dp763
g50
V10.1016/j.gene.2005.03.047
p764
sg46
VGENE
p765
sg48
V353
p766
sg80
(lp767
(VMORI
VY
tp768
asg59
I2005
sg44
V23
p769
sbag1
(g2
g3
NtRp770
(dp771
g50
V10.1073/pnas.0602400103
p772
sg46
VP NATL ACAD SCI USA
p773
sg48
V103
p774
sg80
(lp775
(VMOYER
VS E
tp776
asg59
I2006
sg44
V10236
p777
sbag1
(g2
g3
NtRp778
(dp779
g50
V10.1074/jbc.M500304200
p780
sg46
VJ BIOL CHEM
p781
sg48
V280
p782
sg80
(lp783
(VNARYZHNY
VS N
tp784
asg59
I2005
sg44
V13888
p785
sbag1
(g2
g3
NtRp786
(dp787
g50
Nsg46
VGENOME RES
p788
sg48
V9
sg80
(lp789
(VNEUWALD
VA F
tp790
asg59
I1999
sg44
V27
p791
sbag1
(g2
g3
NtRp792
(dp793
g50
V10.1038/sj.emboj.7600369
p794
sg46
VEMBO J
p795
sg48
V23
p796
sg80
(lp797
(VPACEK
VM
tp798
asg59
I2004
sg44
V3667
p799
sbag1
(g2
g3
NtRp800
(dp801
g50
V10.1016/j.molcel.2006.01.030
p802
sg46
VMOL CELL
p803
sg48
V21
p804
sg80
(lp805
(VPACEK
VM
tp806
asg59
I2006
sg44
V581
p807
sbag1
(g2
g3
NtRp808
(dp809
g50
Nsg46
VBIOCHEM SOC T
p810
sg48
V31
p811
sg80
(lp812
(VPOLLOK
VS
tp813
asg59
I2003
sg44
V266
p814
sbag1
(g2
g3
NtRp815
(dp816
g50
Nsg46
VMOL CELL BIOL
p817
sg48
V19
p818
sg80
(lp819
(VQIU
VJ Z
tp820
asg59
I1999
sg44
V8361
p821
sbag1
(g2
g3
NtRp822
(dp823
g50
Nsg46
VJ EXP BOT
p824
sg48
V52
p825
sg80
(lp826
(VRAMOS
VG B A
tp827
asg59
I2001
sg44
V2239
p828
sbag1
(g2
g3
NtRp829
(dp830
g50
V10.1016/j.molcel.2005.11.023
p831
sg46
VMOL CELL
p832
sg48
V21
p833
sg80
(lp834
(VRANDELL
VJ C W
tp835
asg59
I2006
sg44
V29
p836
sbag1
(g2
g3
NtRp837
(dp838
g50
V10.1073/pnas.0510305103
p839
sg46
VP NATL ACAD SCI USA
p840
sg48
V103
p841
sg80
(lp842
(VRANJAN
VA
tp843
asg59
I2006
sg44
V4864
p844
sbag1
(g2
g3
NtRp845
(dp846
g50
V10.1111/j.1365-313X.2006.02799.x
p847
sg46
VPLANT J
p848
sg48
V47
p849
sg80
(lp850
(VRAYNAUD
VC
tp851
asg59
I2006
sg44
VLANT
p852
sbag1
(g2
g3
NtRp853
(dp854
g50
V10.1073/pnas.0502564102
p855
sg46
VP NATL ACAD SCI USA
p856
sg48
V102
p857
sg80
(lp858
(VRAYNAUD
VC
tp859
asg59
I2005
sg44
V8216
p860
sbag1
(g2
g3
NtRp861
(dp862
g50
V10.1007/s002940050394
p863
sg46
VCURR GENET
p864
sg48
V34
p865
sg80
(lp866
(VREYNOLDS
VN
tp867
asg59
I1998
sg44
V250
p868
sbag1
(g2
g3
NtRp869
(dp870
g50
V10.1016/j.molcel.2004.09.017
p871
sg46
VMOL CELL
p872
sg48
V16
p873
sg80
(lp874
(VRICKE
VR M
tp875
asg59
I2004
sg44
V173
p876
sbag1
(g2
g3
NtRp877
(dp878
g50
V10.1111/j.1365-313X.2005.02521.x
p879
sg46
VPLANT J
p880
sg48
V44
p881
sg80
(lp882
(VRONCERET
VA
tp883
asg59
I2005
sg44
VLANT
p884
sbag1
(g2
g3
NtRp885
(dp886
g50
V10.1104/pp.103.035626
p887
sg46
VPLANT PHYSIOL
p888
sg48
V134
p889
sg80
(lp890
(VROSE
VA
tp891
asg59
I2004
sg44
VLANT
p892
sbag1
(g2
g3
NtRp893
(dp894
g50
V10.1074/jbc.M604805200
p895
sg46
VJ BIOL CHEM
p896
sg48
V281
p897
sg80
(lp898
(VROSSI
VM L
tp899
asg59
I2006
sg44
V26051
p900
sbag1
(g2
g3
NtRp901
(dp902
g50
V10.1007/BF02173212
p903
sg46
VMOL GEN GENET
p904
sg48
V252
p905
sg80
(lp906
(VSABELLI
VP A
tp907
asg59
I1996
sg44
V125
p908
sbag1
(g2
g3
NtRp909
(dp910
g50
V10.1093/jexbot/50.337.1315
p911
sg46
VJ EXP BOT
p912
sg48
V50
p913
sg80
(lp914
(VSABELLI
VP A
tp915
asg59
I1999
sg44
V1315
p916
sbag1
(g2
g3
NtRp917
(dp918
g50
Nsg46
VMOL BIOL EVOL
p919
sg48
V4
sg80
(lp920
(VSAITOU
VN
tp921
asg59
I1987
sg44
V406
p922
sbag1
(g2
g3
NtRp923
(dp924
g50
V10.1038/nature01184
p925
sg46
VNATURE
p926
sg48
V420
p927
sg80
(lp928
(VSASAKI
VT
tp929
asg59
I2002
sg44
V312
p930
sbag1
(g2
g3
NtRp931
(dp932
g50
V10.1016/j.jmb.2004.01.066
p933
sg46
VJ MOL BIOL
p934
sg48
V340
p935
sg80
(lp936
(VSAWYER
VS L
tp937
asg59
I2004
sg44
V195
p938
sbag1
(g2
g3
NtRp939
(dp940
g50
V10.1038/ng1543
p941
sg46
VNAT GENET
p942
sg48
V37
p943
sg80
(lp944
(VSCHMID
VM
tp945
asg59
I2005
sg44
V501
p946
sbag1
(g2
g3
NtRp947
(dp948
g50
V10.1074/jbc.M603482200
p949
sg46
VJ BIOL CHEM
p950
sg48
V281
p951
sg80
(lp952
(VSEKI
VT
tp953
asg59
I2006
sg44
V21422
p954
sbag1
(g2
g3
NtRp955
(dp956
g50
V10.1093/nar/28.18.3442
p957
sg46
VNUCLEIC ACIDS RES
p958
sg48
V28
p959
sg80
(lp960
(VSNEL
VB
tp961
asg59
I2000
sg44
V3442
p962
sbag1
(g2
g3
NtRp963
(dp964
g50
Nsg46
VJ BIOL CHEM
p965
sg48
V263
p966
sg80
(lp967
(VSPICER
VE K
tp968
asg59
I1988
sg44
V7478
p969
sbag1
(g2
g3
NtRp970
(dp971
g50
Nsg46
VDEVELOPMENT
p972
sg48
V127
p973
sg80
(lp974
(VSPRINGER
VP S
tp975
asg59
I2000
sg44
V1815
p976
sbag1
(g2
g3
NtRp977
(dp978
g50
V10.1126/science.7754372
p979
sg46
VSCIENCE
p980
sg48
V268
p981
sg80
(lp982
(VSPRINGER
VP S
tp983
asg59
I1995
sg44
V877
p984
sbag1
(g2
g3
NtRp985
(dp986
g50
V10.1105/tpc.016865
p987
sg46
VPLANT CELL
p988
sg48
V16
p989
sg80
(lp990
(VSTEVENS
VR
tp991
asg59
I2004
sg44
VLANT
p992
sbag1
(g2
g3
NtRp993
(dp994
g50
V10.1074/jbc.M205125200
p995
sg46
VJ BIOL CHEM
p996
sg48
V277
p997
sg80
(lp998
(VSTEVENS
VR
tp999
asg59
I2002
sg44
V32978
p1000
sbag1
(g2
g3
NtRp1001
(dp1002
g50
V10.1074/jbc.M606884200
p1003
sg46
VJ BIOL CHEM
p1004
sg48
V281
p1005
sg80
(lp1006
(VSTEWART
VJ A
tp1007
asg59
I2006
sg44
V38565
p1008
sbag1
(g2
g3
NtRp1009
(dp1010
g50
V10.1111/j.1365-313X.2006.02791.x
p1011
sg46
VPLANT J
p1012
sg48
V47
p1013
sg80
(lp1014
(VSUNDERLAND
VP A
tp1015
asg59
I2006
sg44
VLANT
p1016
sbag1
(g2
g3
NtRp1017
(dp1018
g50
Nsg46
VBIOCHEM SOC T
p1019
sg48
V32
p1020
sg80
(lp1021
(VSUNDERLAND
VP A
tp1022
asg59
I2004
sg44
V614
p1023
sbag1
(g2
g3
NtRp1024
(dp1025
g50
V10.1101/gad.1065903
p1026
sg46
VGENE DEV
p1027
sg48
V17
p1028
sg80
(lp1029
(VTAKAYAMA
VY
tp1030
asg59
I2003
sg44
V1153
p1031
sbag1
(g2
g3
NtRp1032
(dp1033
g50
V10.3732/ajb.92.12.1942
p1034
sg46
VAM J BOT
p1035
sg48
V92
p1036
sg80
(lp1037
(VTALIERCIO
VE
tp1038
asg59
I2005
sg44
V1942
p1039
sbag1
(g2
g3
NtRp1040
(dp1041
g50
V10.1016/S0012-1606(03)00253-7
p1042
sg46
VDEV BIOL
p1043
sg48
V260
p1044
sg80
(lp1045
(VTIKHMYANOVA
VN
tp1046
asg59
I2003
sg44
V362
p1047
sbag1
(g2
g3
NtRp1048
(dp1049
g50
V10.1242/jcs.01542
p1050
sg46
VJ CELL SCI
p1051
sg48
V117
p1052
sg80
(lp1053
(VTOMINAGA
VK
tp1054
asg59
I2004
sg44
V6217
p1055
sbag1
(g2
g3
NtRp1056
(dp1057
g50
V10.1016/S0981-9428(02)01435-3
p1058
sg46
VPLANT PHYSIOL BIOCH
p1059
sg48
V40
p1060
sg80
(lp1061
(VTOUEILLE
VM
tp1062
asg59
I2002
sg44
VLANT
p1063
sbag1
(g2
g3
NtRp1064
(dp1065
g50
V10.1016/S0378-1119(02)00822-3
p1066
sg46
VGENE
p1067
sg48
V295
p1068
sg80
(lp1069
(VUCHIYAMA
VY
tp1070
asg59
I2002
sg44
V19
p1071
sbag1
(g2
g3
NtRp1072
(dp1073
g50
V10.1128/MCB.25.23.10528-10532.2005
p1074
sg46
VMOL CELL BIOL
p1075
sg48
V25
p1076
sg80
(lp1077
(VUENO
VM
tp1078
asg59
I2005
sg44
V10528
p1079
sbag1
(g2
g3
NtRp1080
(dp1081
g50
V10.1105/tpc.010445
p1082
sg46
VPLANT CELL
p1083
sg48
V14
p1084
sg80
(lp1085
(VVANDEPOELE
VK
tp1086
asg59
I2002
sg44
VLANT
p1087
sbag1
(g2
g3
NtRp1088
(dp1089
g50
V10.1110/ps.0214302
p1090
sg46
VPROTEIN SCI
p1091
sg48
V11
p1092
sg80
(lp1093
(VVENCLOVAS
VC
tp1094
asg59
I2002
sg44
VROTEIN
p1095
sbag1
(g2
g3
NtRp1096
(dp1097
g50
V10.1093/nar/gkl825
p1098
sg46
VNUCLEIC ACIDS RES
p1099
sg48
V35
p1100
sg80
(lp1101
(VVON
VMERING C
tp1102
asg59
I2007
sg44
VD358
p1103
sbag1
(g2
g3
NtRp1104
(dp1105
g50
V10.1074/jbc.M600299200
p1106
sg46
VJ BIOL CHEM
p1107
sg48
V281
p1108
sg80
(lp1109
(VWAGA
VS
tp1110
asg59
I2006
sg44
V10926
p1111
sbag1
(g2
g3
NtRp1112
(dp1113
g50
V10.1146/annurev.biochem.67.1.721
p1114
sg46
VANNU REV BIOCHEM
p1115
sg48
V67
p1116
sg80
(lp1117
(VWAGA
VS
tp1118
asg59
I1998
sg44
V721
p1119
sbag1
(g2
g3
NtRp1120
(dp1121
g50
Nsg46
VEMBO J
p1122
sg48
V1
sg80
(lp1123
(VWALKER
VJ E
tp1124
asg59
I1982
sg44
V945
p1125
sbag1
(g2
g3
NtRp1126
(dp1127
g50
V10.1093/nar/gkg138
p1128
sg46
VNUCLEIC ACIDS RES
p1129
sg48
V31
p1130
sg80
(lp1131
(VWITMER
VX H
tp1132
asg59
I2003
sg44
V619
p1133
sbag1
(g2
g3
NtRp1134
(dp1135
g50
V10.1016/S1097-2765(02)00456-2
p1136
sg46
VMOL CELL
p1137
sg48
V9
sg80
(lp1138
(VWOHLSCHLEGEL
VJ A
tp1139
asg59
I2002
sg44
V233
p1140
sbag1
(g2
g3
NtRp1141
(dp1142
g50
Nsg46
VEMBO J
p1143
sg48
V7
sg80
(lp1144
(VWONG
VS W
tp1145
asg59
I1988
sg44
V37
p1146
sbag1
(g2
g3
NtRp1147
(dp1148
g50
V10.1105/tpc.105.037507
p1149
sg46
VPLANT CELL
p1150
sg48
V18
p1151
sg80
(lp1152
(VXIA
VR
tp1153
asg59
I2006
sg44
VLANT
p1154
sbag1
(g2
g3
NtRp1155
(dp1156
g50
V10.1007/s00497-002-0129-5
p1157
sg46
VSEX PLANT REPROD
p1158
sg48
V14
p1159
sg80
(lp1160
(VYANG
VM
tp1161
asg59
I2002
sg44
V355
p1162
sbag1
(g2
g3
NtRp1163
(dp1164
g50
V10.1046/j.1365-2443.1997.1560354.x
p1165
sg46
VGENES CELLS
p1166
sg48
V2
sg80
(lp1167
(VYOKOI
VM
tp1168
asg59
I1997
sg44
V695
p1169
sbag1
(g2
g3
NtRp1170
(dp1171
g50
V10.1016/j.bbrc.2005.03.222
p1172
sg46
VBIOCHEM BIOPH RES CO
p1173
sg48
V331
p1174
sg80
(lp1175
(VYOSHIDA
VK
tp1176
asg59
I2005
sg44
V669
p1177
sbag1
(g2
g3
NtRp1178
(dp1179
g50
V10.1016/S0092-8674(02)00805-X
p1180
sg46
VCELL
p1181
sg48
V109
p1182
sg80
(lp1183
(VZHANG
VY X
tp1184
asg59
I2002
sg44
V849
p1185
sbag1
(g2
g3
NtRp1186
(dp1187
g50
V10.1128/MCB.20.9.3086-3096.2000
p1188
sg46
VMOL CELL BIOL
p1189
sg48
V20
p1190
sg80
(lp1191
(VZOU
VL
tp1192
asg59
I2000
sg44
V3086
p1193
sbag1
(g2
g3
NtRp1194
(dp1195
g50
V10.1126/science.280.5363.593
p1196
sg46
VSCIENCE
p1197
sg48
V280
p1198
sg80
(lp1199
(VZOU
VL
tp1200
asg59
I1998
sg44
V593
p1201
sbag1
(g2
g3
NtRp1202
(dp1203
g50
V10.1002/jcp.20622
p1204
sg46
VJ CELL PHYSIOL
p1205
sg48
V208
p1206
sg80
(lp1207
(VZOU
VY
tp1208
asg59
I2006
sg44
V267
p1209
sbasb.