ccopy_reg
_reconstructor
p1
(ctethne.classes.paper
Paper
p2
c__builtin__
object
p3
NtRp4
(dp5
S'publisherCity'
p6
VROCKVILLE
p7
sS'reprintAddress'
p8
VMiyagishima, S (reprint author), Natl Inst Genet, Frontier Res Ctr, Mishima, Shizuoka 4118540, Japan.
p9
sS'WC'
p10
VPlant Sciences
p11
sS'GA'
p12
V117XZ
p13
sS'FX'
p14
(lp15
VThis work was supported by Grants-in-Aid for Scientific Research from
p16
aVthe Japan Society for the Promotion of Science (grant nos. 24117523 and
p17
aV22770061 to Y.K., grant no. 19870033 to S.-y.M.), by a Sasagawa
p18
aVScientific Research Grant from the Japan Science Society (to Y.K.), and
p19
aVby the Core Research for Evolutional Science and Technology Program of
p20
aVthe Japan Science and Technology Agency (to S.-y.M.).
p21
asS'abstract'
p22
VChloroplasts arose from a cyanobacterial endosymbiont and multiply by division. In algal cells, chloroplast division is regulated by the cell cycle so as to occur only once, in the S phase. Chloroplasts possess multiple copies of their own genome that must be replicated during chloroplast proliferation. In order to examine how chloroplast DNA replication is regulated in the green alga Chlamydomonas reinhardtii, we first asked whether it is regulated by the cell cycle, as is the case for chloroplast division. Chloroplast DNA is replicated in the light and not the dark phase, independent of the cell cycle or the timing of chloroplast division in photoautotrophic culture. Inhibition of photosynthetic electron transfer blocked chloroplast DNA replication. However, chloroplast DNA was replicated when the cells were grown heterotrophically in the dark, raising the possibility that chloroplast DNA replication is coupled with the reducing power supplied by photosynthesis or the uptake of acetate. When dimethylthiourea, a reactive oxygen species scavenger, was added to the photoautotrophic culture, chloroplast DNA was replicated even in the dark. In contrast, when methylviologen, a reactive oxygen species inducer, was added, chloroplast DNA was not replicated in the light. Moreover, the chloroplast DNA replication activity in both the isolated chloroplasts and nucleoids was increased by dithiothreitol, while it was repressed by diamide, a specific thiol-oxidizing reagent. These results suggest that chloroplast DNA replication is regulated by the redox state that is sensed by the nucleoids and that the disulfide bonds in nucleoid-associated proteins are involved in this regulatory activity.
p23
sS'pageEnd'
p24
I2112
sS'date'
p25
I2013
sS'documentType'
p26
VArticle
p27
sS'subject'
p28
VPlant Sciences
p29
sS'isoSource'
p30
VPlant Physiol.
p31
sS'timesCited'
p32
(lp33
I1
aVZ9 1
p34
asS'funding'
p35
(lp36
(VJapan Society for the Promotion of Science
V24117523, 22770061, 19870033
tp37
a(VSasagawa Scientific Research Grant from the Japan Science Society
Ntp38
a(VCore Research for Evolutional Science and Technology Program of the Japan Science and Technology Agency
Ntp39
asS'PT'
p40
VJ
sS'title'
p41
VChloroplast Dna Replication Is Regulated By The Redox State Independently Of Chloroplast Division In Chlamydomonas Reinhardtii
p42
sS'ISSN'
p43
(lp44
V0032-0889
p45
aVJ9 PLANT PHYSIOL
p46
asS'authors_full'
p47
(lp48
(VKABEYA
VYUKIHIRO
tp49
a(VMIYAGISHIMA
VSHINYA
tp50
asS'PG'
p51
I11
sS'PD'
p52
VAPR
p53
sS'pageStart'
p54
I2102
sS'issue'
p55
I4
sS'journal'
p56
VPLANT PHYSIOLOGY
p57
sS'volume'
p58
V161
p59
sS'doi'
p60
V10.1104/pp.113.216291
p61
sS'emailAddress'
p62
Vsmiyagis@nig.ac.jp
p63
sS'authorAddress'
p64
V[Kabeya, Yukihiro; Miyagishima, Shin-ya] Natl Inst Genet, Frontier Res Ctr, Mishima, Shizuoka 4118540, Japan.
p65
sS'publisherAddress'
p66
V15501 MONONA DRIVE, ROCKVILLE, MD 20855 USA
p67
sS'ER'
p68
V
sS'publisher'
p69
VAMER SOC PLANT BIOLOGISTS
p70
sS'authorKeywords'
p71
(lp72
VCELL-CYCLE
p73
aVPLASTID-DIVISION
p74
aVCYANIDIOSCHYZON-MEROLAE
p75
aVMAIZE SEEDLINGS
p76
aVORGANELLE DNA
p77
aVCOPY NUMBER
p78
aVLIGHT
p79
aVPROTEIN
p80
aVPOLYMERASES
p81
aVORIGIN
p82
asS'language'
p83
VEnglish
p84
sS'wosid'
p85
VWOS:000316987900040
p86
sS'citationCount'
p87
I54
sS'authors_init'
p88
(lp89
(VKABEYA
VY
tp90
a(VMIYAGISHIMA
VS
tp91
asS'citedReferences'
p92
(lp93
g1
(g2
g3
NtRp94
(dp95
g60
V10.1016/j.cub.2008.11.067
p96
sg56
VCURR BIOL
p97
sg58
V19
p98
sg88
(lp99
(VARCHIBALD
VJ M
tp100
asg25
I2009
sg54
VR81
p101
sbag1
(g2
g3
NtRp102
(dp103
g60
V10.1104/pp.89.3.1011
p104
sg56
VPLANT PHYSIOL
p105
sg58
V89
p106
sg88
(lp107
(VBAUMGARTNER
VB J
tp108
asg25
I1989
sg54
VLANT
p109
sbag1
(g2
g3
NtRp110
(dp111
g60
Nsg56
VJ BACTERIOL
p112
sg58
V172
p113
sg88
(lp114
(VBINDER
VB J
tp115
asg25
I1990
sg54
V2313
p116
sbag1
(g2
g3
NtRp117
(dp118
g60
V10.1104/pp.69.6.1387
p119
sg56
VPLANT PHYSIOL
p120
sg58
V69
p121
sg88
(lp122
(VBOFFEY
VS A
tp123
asg25
I1982
sg54
VLANT
p124
sbag1
(g2
g3
NtRp125
(dp126
g60
Nsg56
VDIVISION SEGREGATION
p127
sg58
Nsg88
(lp128
(VBOFFEY
VS A
tp129
asg25
I1988
sg54
Nsbag1
(g2
g3
NtRp130
(dp131
g60
Nsg56
VEMBO REP
p132
sg58
V1
sg88
(lp133
(VBOYE
VE
tp134
asg25
I2000
sg54
V479
p135
sbag1
(g2
g3
NtRp136
(dp137
g60
V10.1016/S0032-9592(96)00006-4
p138
sg56
VPROCESS BIOCHEM
p139
sg58
V31
p140
sg88
(lp141
(VCHEN
VF
tp142
asg25
I1996
sg54
VROCESS
p143
sbag1
(g2
g3
NtRp144
(dp145
g60
V10.1073/pnas.57.5.1506
p146
sg56
VP NATL ACAD SCI USA
p147
sg58
V57
p148
sg88
(lp149
(VCHIANG
VK S
tp150
asg25
I1967
sg54
V1506
p151
sbag1
(g2
g3
NtRp152
(dp153
g60
V10.1073/pnas.54.6.1665
p154
sg56
VP NATL ACAD SCI USA
p155
sg58
V54
p156
sg88
(lp157
(VGORMAN
VD S
tp158
asg25
I1965
sg54
V1665
p159
sbag1
(g2
g3
NtRp160
(dp161
g60
V10.1083/jcb.129.4.1061
p162
sg56
VJ CELL BIOL
p163
sg58
V129
p164
sg88
(lp165
(VGOTO
VK
tp166
asg25
I1995
sg54
V1061
p167
sbag1
(g2
g3
NtRp168
(dp169
g60
V10.1007/BF00388341
p170
sg56
VPLANTA
p171
sg58
V141
p172
sg88
(lp173
(VGRANT
VD
tp174
asg25
I1978
sg54
VLANTA
p175
sbag1
(g2
g3
NtRp176
(dp177
g60
V10.1111/j.1574-6968.2011.02368.x
p178
sg56
VFEMS MICROBIOL LETT
p179
sg58
V323
p180
sg88
(lp181
(VGRIESE
VM
tp182
asg25
I2011
sg54
V124
p183
sbag1
(g2
g3
NtRp184
(dp185
g60
Nsg56
VCHLAMYDOMONAS SOURCE
p186
sg58
Nsg88
(lp187
(VHARRIS
VE
tp188
asg25
I1989
sg54
Nsbag1
(g2
g3
NtRp189
(dp190
g60
V10.1104/pp.89.4.1178
p191
sg56
VPLANT PHYSIOL
p192
sg58
V89
p193
sg88
(lp194
(VHASHIMOTO
VH
tp195
asg25
I1989
sg54
VLANT
p196
sbag1
(g2
g3
NtRp197
(dp198
g60
V10.1186/1471-2229-10-57
p199
sg56
VBMC PLANT BIOL
p200
sg58
V10
p201
sg88
(lp202
(VKABEYA
VY
tp203
asg25
I2010
sg54
Nsbag1
(g2
g3
NtRp204
(dp205
g60
V10.1098/rstb.2009.0103
p206
sg56
VPHILOS T R SOC B
p207
sg58
V365
p208
sg88
(lp209
(VKEELING
VP J
tp210
asg25
I2010
sg54
VHILOS
p211
sbag1
(g2
g3
NtRp212
(dp213
g60
V10.1016/S0074-7696(08)60496-9
p214
sg56
VINT REV CYTOL
p215
sg58
V128
p216
sg88
(lp217
(VKUROIWA
VT
tp218
asg25
I1991
sg54
V1
sbag1
(g2
g3
NtRp219
(dp220
g60
V10.1104/pp.64.1.126
p221
sg56
VPLANT PHYSIOL
p222
sg58
V64
p223
sg88
(lp224
(VLAMPPA
VG K
tp225
asg25
I1979
sg54
VLANT
p226
sbag1
(g2
g3
NtRp227
(dp228
g60
V10.1089/15230860050192305
p229
sg56
VANTIOXID REDOX SIGN
p230
sg58
V2
sg88
(lp231
(VLAU
VK W K
tp232
asg25
I2000
sg54
V529
p233
sbag1
(g2
g3
NtRp234
(dp235
g60
V10.1016/0092-8674(94)90544-4
p236
sg56
VCELL
p237
sg58
V79
p238
sg88
(lp239
(VLEVINE
VA
tp240
asg25
I1994
sg54
V583
p241
sbag1
(g2
g3
NtRp242
(dp243
g60
Nsg56
VJ GEN MICROBIOL
p244
sg58
V83
p245
sg88
(lp246
(VMANN
VN
tp247
asg25
I1974
sg54
V399
p248
sbag1
(g2
g3
NtRp249
(dp250
g60
V10.1042/BST0380783
p251
sg56
VBIOCHEM SOC T
p252
sg58
V38
p253
sg88
(lp254
(VMAPLE
VJ
tp255
asg25
I2010
sg54
V783
p256
sbag1
(g2
g3
NtRp257
(dp258
g60
V10.1038/nprot.2006.348
p259
sg56
VNAT PROTOC
p260
sg58
V1
sg88
(lp261
(VMASON
VC B
tp262
asg25
I2006
sg54
V2227
p263
sbag1
(g2
g3
NtRp264
(dp265
g60
V10.1105/tpc.111.084012
p266
sg56
VPLANT CELL
p267
sg58
V23
p268
sg88
(lp269
(VMATSUSHIMA
VR
tp270
asg25
I2011
sg54
VLANT
p271
sbag1
(g2
g3
NtRp272
(dp273
g60
V10.1093/molbev/mss102
p274
sg56
VMOL BIOL EVOL
p275
sg58
V29
p276
sg88
(lp277
(VMIYAGISHIMA
VS
tp278
asg25
I2012
sg54
V2957
p279
sbag1
(g2
g3
NtRp280
(dp281
g60
V10.1104/pp.110.170688
p282
sg56
VPLANT PHYSIOL
p283
sg58
V155
p284
sg88
(lp285
(VMIYAGISHIMA
VS
tp286
asg25
I2011
sg54
VLANT
p287
sbag1
(g2
g3
NtRp288
(dp289
g60
V10.1007/BF01293188
p290
sg56
VPROTOPLASMA
p291
sg58
V133
p292
sg88
(lp293
(VMIYAMURA
VS
tp294
asg25
I1986
sg54
VROTOPLASMA
p295
sbag1
(g2
g3
NtRp296
(dp297
g60
V10.1073/pnas.93.19.10183
p298
sg56
VP NATL ACAD SCI USA
p299
sg58
V93
p300
sg88
(lp301
(VMORI
VT
tp302
asg25
I1996
sg54
V10183
p303
sbag1
(g2
g3
NtRp304
(dp305
g60
V10.1111/j.1742-4658.2008.06426.x
p306
sg56
VFEBS J
p307
sg58
V275
p308
sg88
(lp309
(VMORIYAMA
VT
tp310
asg25
I2008
sg54
V2899
p311
sbag1
(g2
g3
NtRp312
(dp313
g60
V10.1101/gad.979902
p314
sg56
VGENE DEV
p315
sg58
V16
p316
sg88
(lp317
(VNISHIMURA
VY
tp318
asg25
I2002
sg54
V1116
p319
sbag1
(g2
g3
NtRp320
(dp321
g60
V10.1016/j.jmb.2003.11.020
p322
sg56
VJ MOL BIOL
p323
sg58
V335
p324
sg88
(lp325
(VOLDENBURG
VD J
tp326
asg25
I2004
sg54
V953
p327
sbag1
(g2
g3
NtRp328
(dp329
g60
V10.1007/s00425-006-0329-6
p330
sg56
VPLANTA
p331
sg58
V225
p332
sg88
(lp333
(VOLDENBURG
VD J
tp334
asg25
I2006
sg54
VLANTA
p335
sbag1
(g2
g3
NtRp336
(dp337
g60
V10.1093/pcp/pcm140
p338
sg56
VPLANT CELL PHYSIOL
p339
sg58
V48
p340
sg88
(lp341
(VONO
VY
tp342
asg25
I2007
sg54
VLANT
p343
sbag1
(g2
g3
NtRp344
(dp345
g60
V10.1104/pp.111.173849
p346
sg56
VPLANT PHYSIOL
p347
sg58
V156
p348
sg88
(lp349
(VPARENT
VJ S
tp350
asg25
I2011
sg54
VLANT
p351
sbag1
(g2
g3
NtRp352
(dp353
g60
V10.1007/s00425-012-1739-2
p354
sg56
VPLANTA
p355
sg58
V237
p356
sg88
(lp357
(VPYKE
VK A
tp358
asg25
I2013
sg54
VLANTA
p359
sbag1
(g2
g3
NtRp360
(dp361
g60
V10.1016/j.cub.2006.01.006
p362
sg56
VCURR BIOL
p363
sg58
V16
p364
sg88
(lp365
(VRODRIGUEZ-EZPELETA
VN
tp366
asg25
I2006
sg54
VR53
p367
sbag1
(g2
g3
NtRp368
(dp369
g60
Nsg56
VJ GEN MICROBIOL
p370
sg58
V129
p371
sg88
(lp372
(VROLLINS
VM J
tp373
asg25
I1983
sg54
V1899
p374
sbag1
(g2
g3
NtRp375
(dp376
g60
V10.1093/jxb/erp158
p377
sg56
VJ EXP BOT
p378
sg58
V60
p379
sg88
(lp380
(VROWAN
VB A
tp381
asg25
I2009
sg54
V3005
p382
sbag1
(g2
g3
NtRp383
(dp384
g60
Nsg56
VPLANT CELL
p385
sg58
V10
p386
sg88
(lp387
(VSATO
VN
tp388
asg25
I1998
sg54
VLANT
p389
sbag1
(g2
g3
NtRp390
(dp391
g60
V10.1104/pp.96.1.1
p392
sg56
VPLANT PHYSIOL
p393
sg58
V96
p394
sg88
(lp395
(VSCHEIBE
VR
tp396
asg25
I1991
sg54
VLANT
p397
sbag1
(g2
g3
NtRp398
(dp399
g60
V10.1104/pp.107.112946
p400
sg56
VPLANT PHYSIOL
p401
sg58
V146
p402
sg88
(lp403
(VSHAVER
VJ M
tp404
asg25
I2008
sg54
VLANT
p405
sbag1
(g2
g3
NtRp406
(dp407
g60
V10.1073/pnas.46.1.83
p408
sg56
VP NATL ACAD SCI USA
p409
sg58
V46
p410
sg88
(lp411
(VSUEOKA
VN
tp412
asg25
I1960
sg54
V83
p413
sbag1
(g2
g3
NtRp414
(dp415
g60
V10.1111/j.1529-8817.2008.00589.x
p416
sg56
VJ PHYCOL
p417
sg58
V44
p418
sg88
(lp419
(VSUMIYA
VN
tp420
asg25
I2008
sg54
V1476
p421
sbag1
(g2
g3
NtRp422
(dp423
g60
Nsg56
VMETHODS ENZYMOLOGY A
p424
sg58
V23
p425
sg88
(lp426
(VSURZYCKI
VS
tp427
asg25
I1971
sg54
V67
p428
sbag1
(g2
g3
NtRp429
(dp430
g60
Nsg56
VEUR J CELL BIOL
p431
sg58
V63
p432
sg88
(lp433
(VSUZUKI
VK
tp434
asg25
I1994
sg54
V280
p435
sbag1
(g2
g3
NtRp436
(dp437
g60
Nsg56
VPLANT PHYSL
p438
sg58
Nsg88
(lp439
(VTAIZ
VL
tp440
asg25
I2010
sg54
VLANT
p441
sbag1
(g2
g3
NtRp442
(dp443
g60
V10.1104/pp.112.204198
p444
sg56
VPLANT PHYSIOL
p445
sg58
V160
p446
sg88
(lp447
(VUDY
VD B
tp448
asg25
I2012
sg54
VLANT
p449
sbag1
(g2
g3
NtRp450
(dp451
g60
V10.1111/j.1365-2958.2012.07971.x
p452
sg56
VMOL MICROBIOL
p453
sg58
V83
p454
sg88
(lp455
(VWATANABE
VS
tp456
asg25
I2012
sg54
V856
p457
sbag1
(g2
g3
NtRp458
(dp459
g60
Nsg56
VPLANT CELL
p460
sg58
V1
sg88
(lp461
(VWU
VM
tp462
asg25
I1989
sg54
VLANT
p463
sbag1
(g2
g3
NtRp464
(dp465
g60
Nsg56
VBOT BULL ACAD SINICA
p466
sg58
V34
p467
sg88
(lp468
(VWU
VM
tp469
asg25
I1993
sg54
V115
p470
sbag1
(g2
g3
NtRp471
(dp472
g60
V10.1016/j.pbi.2008.10.001
p473
sg56
VCURR OPIN PLANT BIOL
p474
sg58
V11
p475
sg88
(lp476
(VYANG
VY
tp477
asg25
I2008
sg54
V577
p478
sbag1
(g2
g3
NtRp479
(dp480
g60
V10.1105/tpc.106.04527
p481
sg56
VPLANT CELL
p482
sg58
V19
p483
sg88
(lp484
(VYEHUDAI-RESHEFF
VS
tp485
asg25
I2007
sg54
VLANT
p486
sbag1
(g2
g3
NtRp487
(dp488
g60
V10.1007/BF01280376
p489
sg56
VPROTOPLASMA
p490
sg58
V188
p491
sg88
(lp492
(VZACHLEDER
VV
tp493
asg25
I1995
sg54
VROTOPLASMA
p494
sbag1
(g2
g3
NtRp495
(dp496
g60
V10.1111/j.1574-6976.2007.00070.x
p497
sg56
VFEMS MICROBIOL REV
p498
sg58
V31
p499
sg88
(lp500
(VZAKRZEWSKA-CZERWINSKA
VJ
tp501
asg25
I2007
sg54
V378
p502
sbasb.