ccopy_reg
_reconstructor
p1
(ctethne.classes.paper
Paper
p2
c__builtin__
object
p3
NtRp4
(dp5
S'publisherCity'
p6
VROCKVILLE
p7
sS'reprintAddress'
p8
VGaneteg, U (reprint author), Umea Univ, Dept Plant Physiol, Umea Plant Sci Ctr, S-90187 Umea, Sweden.
p9
sS'WC'
p10
VPlant Sciences
p11
sS'GA'
p12
V767EL
p13
sS'abstract'
p14
VMany of the photosynthetic genes are conserved among all higher plants, indicating that there is strong selective pressure to maintain the genes of each protein. However, mutants of these genes often lack visible growth phenotypes, suggesting that they are important only under certain conditions or have overlapping functions. To assess the importance of specific genes encoding the light-harvesting complex (LHC) proteins for the survival of the plant in the natural environment, we have combined two different scientific traditions by using an ecological fitness assay on a set of genetically modified Arabidopsis plants with differing LHC protein contents. The fitness of all of the LHC-deficient plants was reduced in some of the growth environments, supporting the hypothesis that each of the genes has been conserved because they provide ecological flexibility, which is of great adaptive value given the highly variable conditions encountered in nature.
p15
sS'pageEnd'
p16
I509
sS'date'
p17
I2004
sS'documentType'
p18
VArticle
p19
sS'subject'
p20
VPlant Sciences
p21
sS'isoSource'
p22
VPlant Physiol.
p23
sS'timesCited'
p24
(lp25
I38
aVZ9 39
p26
asS'PT'
p27
VJ
sS'title'
p28
VIs Each Light-Harvesting Complex Protein Important For Plant Fitness?(1[W])
p29
sS'ISSN'
p30
(lp31
V0032-0889
p32
aVJ9 PLANT PHYSIOL
p33
asS'authors_full'
p34
(lp35
(VGANETEG
VU
tp36
a(VKULHEIM
VC
tp37
a(VANDERSSON
VJ
tp38
a(VJANSSON
VS
tp39
asS'PG'
p40
I8
sS'PD'
p41
VJAN
p42
sS'pageStart'
p43
I502
sS'issue'
p44
I1
sS'RI'
p45
VKulheim, Carsten/F-4720-2010; Jansson, Stefan/A-1119-2009
p46
sS'journal'
p47
VPLANT PHYSIOLOGY
p48
sS'volume'
p49
V134
p50
sS'doi'
p51
V10.1104/pp.103.033324
p52
sS'emailAddress'
p53
Vulrika.ganeteg@plantphys.umu.se
p54
sS'authorAddress'
p55
VUmea Univ, Dept Plant Physiol, Umea Plant Sci Ctr, S-90187 Umea, Sweden.
p56
sS'publisherAddress'
p57
V15501 MONONA DRIVE, ROCKVILLE, MD 20855 USA
p58
sS'ER'
p59
V
sS'publisher'
p60
VAMER SOC PLANT BIOLOGISTS
p61
sS'authorKeywords'
p62
(lp63
VA/B-BINDING-PROTEINS
p64
aVARABIDOPSIS-THALIANA
p65
aVPHOTOSYSTEM-II
p66
aVANTISENSE INHIBITION
p67
aVFITNESS
p68
aVDISSIPATION
p69
aVMECHANISM
p70
aVLACKING
p71
aVCYCLE
p72
asS'language'
p73
VEnglish
p74
sS'wosid'
p75
VWOS:000188427200051
p76
sS'citationCount'
p77
I16
sS'authors_init'
p78
(lp79
(VGANETEG
VU
tp80
a(VKULHEIM
VC
tp81
a(VANDERSSON
VJ
tp82
a(VJANSSON
VS
tp83
asS'citedReferences'
p84
(lp85
g1
(g2
g3
NtRp86
(dp87
g51
V10.1046/j.1365-313X.2003.01811.x
p88
sg47
VPLANT J
p89
sg49
V35
p90
sg78
(lp91
(VANDERSSON
VJ
tp92
asg17
I2003
sg43
VLANT
p93
sbag1
(g2
g3
NtRp94
(dp95
g51
V10.1105/tpc.13.5.1193
p96
sg47
VPLANT CELL
p97
sg49
V13
p98
sg78
(lp99
(VANDERSSON
VJ
tp100
asg17
I2001
sg43
VLANT
p101
sbag1
(g2
g3
NtRp102
(dp103
g51
V10.1007/s004250100556
p104
sg47
VPLANTA
p105
sg49
V213
p106
sg78
(lp107
(VBAILEY
VS
tp108
asg17
I2001
sg43
VLANTA
p109
sbag1
(g2
g3
NtRp110
(dp111
g51
V10.1005/tpc.002154
p112
sg47
VPLANT CELL
p113
sg49
V14
p114
sg78
(lp115
(VELRAD
VD
tp116
asg17
I2002
sg43
VLANT
p117
sbag1
(g2
g3
NtRp118
(dp119
g51
V10.1104/pp.127.1.150
p120
sg47
VPLANT PHYSIOL
p121
sg49
V127
p122
sg78
(lp123
(VGANETEG
VU
tp124
asg17
I2001
sg43
VLANT
p125
sbag1
(g2
g3
NtRp126
(dp127
g51
V10.1046/j.1365-313X.1999.00419.x
p128
sg47
VPLANT J
p129
sg49
V17
p130
sg78
(lp131
(VHALDRUP
VA
tp132
asg17
I1999
sg43
VLANT
p133
sbag1
(g2
g3
NtRp134
(dp135
g51
V10.1073/pnas.96.15.8762
p136
sg47
VP NATL ACAD SCI USA
p137
sg49
V96
p138
sg78
(lp139
(VHAVAUX
VM
tp140
asg17
I1999
sg43
V8762
p141
sbag1
(g2
g3
NtRp142
(dp143
g51
V10.1016/0005-2728(94)90148-1
p144
sg47
VBBA
p145
sg49
V1184
p146
sg78
(lp147
(VJANSSON
VS
tp148
asg17
I1994
sg43
V1
sbag1
(g2
g3
NtRp149
(dp150
g51
V10.1126/science.1072359
p151
sg47
VSCIENCE
p152
sg49
V297
p153
sg78
(lp154
(VKULHEIM
VC
tp155
asg17
I2002
sg43
V91
p156
sbag1
(g2
g3
NtRp157
(dp158
g51
V10.1038/35000131
p159
sg47
VNATURE
p160
sg49
V403
p161
sg78
(lp162
(VLI
VX P
tp163
asg17
I2000
sg43
V391
p164
sbag1
(g2
g3
NtRp165
(dp166
g51
V10.2307/3870716
p167
sg47
VPLANT CELL
p168
sg49
V10
p169
sg78
(lp170
(VNIYOGI
VK K
tp171
asg17
I1998
sg43
VLANT
p172
sbag1
(g2
g3
NtRp173
(dp174
g51
V10.1111/j.1399-3054.1988.tb00588.x
p175
sg47
VPHYSIOL PLANTARUM
p176
sg49
V73
p177
sg78
(lp178
(VOQUIST
VG
tp179
asg17
I1988
sg43
VHYSIOL
p180
sbag1
(g2
g3
NtRp181
(dp182
g51
V10.1038/nature01344
p183
sg47
VNATURE
p184
sg49
V421
p185
sg78
(lp186
(VRUBAN
VA V
tp187
asg17
I2003
sg43
V648
p188
sbag1
(g2
g3
NtRp189
(dp190
g51
V10.1016/S0005-2728(01)00196-7
p191
sg47
VBBA
p192
sg49
V1507
p193
sg78
(lp194
(VSCHELLER
VH V
tp195
asg17
I2001
sg43
V41
p196
sbag1
(g2
g3
NtRp197
(dp198
g51
V10.1038/nature01588
p199
sg47
VNATURE
p200
sg49
V423
p201
sg78
(lp202
(VTIAN
VD
tp203
asg17
I2003
sg43
V74
p204
sbag1
(g2
g3
NtRp205
(dp206
g51
V10.1104/pp.115.4.1525
p207
sg47
VPLANT PHYSIOL
p208
sg49
V115
p209
sg78
(lp210
(VZHANG
VH
tp211
asg17
I1997
sg43
VLANT
p212
sbasb.