ccopy_reg
_reconstructor
p1
(ctethne.classes.paper
Paper
p2
c__builtin__
object
p3
NtRp4
(dp5
S'publisherCity'
p6
VROCKVILLE
p7
sS'reprintAddress'
p8
VTakezawa, D (reprint author), Saitama Univ, Grad Sch Sci & Engn, Saitama 3388570, Japan.
p9
sS'WC'
p10
VPlant Sciences
p11
sS'GA'
p12
V578XG
p13
sS'FX'
p14
(lp15
VThis work was supported by the Japanese Society for the Promotion of
p16
aVScience (Grant-in-Aid for Scientific Research no. 12556044 to D. T.).
p17
asS'abstract'
p18
VAbscisic acid (ABA) is postulated to be a ubiquitous hormone that plays a central role in seed development and responses to environmental stresses of vascular plants. However, in liverworts (Marchantiophyta), which represent the oldest extant lineage of land plants, the role of ABA has been least emphasized; thus, very little information is available on the molecular mechanisms underlying ABA responses. In this study, we isolated and characterized MpABI1, an ortholog of ABSCISIC ACID INSENSITIVE1 (ABI1), from the liverwort Marchantia polymorpha. The MpABI1 cDNA encoded a 568-amino acid protein consisting of the carboxy-terminal protein phosphatase 2C (PP2C) domain and a novel amino-terminal regulatory domain. The MpABI1 transcript was detected in the gametophyte, and its expression level was increased by exogenous ABA treatment in the gemma, whose growth was strongly inhibited by ABA. Experiments using green fluorescent protein fusion constructs indicated that MpABI1 was mainly localized in the nucleus and that its nuclear localization was directed by the aminoterminal domain. Transient overexpression of MpABI1 in M. polymorpha and Physcomitrella patens cells resulted in suppression of ABA-induced expression of the wheat Em promoter fused to the beta-glucuronidase gene. Transgenic P. patens expressing MpABI1 and its mutant construct, MpABI1-d2, lacking the amino-terminal domain, had reduced freezing and osmotic stress tolerance, and associated with reduced accumulation of ABA-induced late embryogenesis abundant-like boiling-soluble proteins. Furthermore, ABA-induced morphological changes leading to brood cells were not prominent in these transgenic plants. These results suggest that MpABI1 is a negative regulator of ABA signaling, providing unequivocal molecular evidence of PP2C-mediated ABA response mechanisms functioning in liverworts.
p19
sS'pageEnd'
p20
I1543
sS'date'
p21
I2010
sS'documentType'
p22
VArticle
p23
sS'subject'
p24
VPlant Sciences
p25
sS'isoSource'
p26
VPlant Physiol.
p27
sS'timesCited'
p28
(lp29
I15
aVZ9 17
p30
asS'funding'
p31
(lp32
(VJapanese Society for the Promotion of Science
V12556044
tp33
asS'PT'
p34
VJ
sS'title'
p35
VEvolutionarily Conserved Regulatory Mechanisms Of Abscisic Acid Signaling In Land Plants: Characterization Of Abscisic Acid Insensitive1-Like Type 2C Protein Phosphatase In The Liverwort Marchantia Polymorpha
p36
sS'ISSN'
p37
(lp38
V0032-0889
p39
aVJ9 PLANT PHYSIOL
p40
asS'authors_full'
p41
(lp42
(VTOUGANE
VKEN
tp43
a(VKOMATSU
VKENJI
tp44
a(VBHYAN
VSALMA BEGUM
tp45
a(VSAKATA
VYOICHI
tp46
a(VISHIZAKI
VKIMITSUNE
tp47
a(VYAMATO
VKATSUYUKI T
tp48
a(VKOHCHI
VTAKAYUKI
tp49
a(VTAKEZAWA
VDAISUKE
tp50
asS'PG'
p51
I15
sS'PD'
p52
VMAR
p53
sS'pageStart'
p54
I1529
sS'issue'
p55
I3
sS'RI'
p56
VBhyan, Salma/F-9839-2010
p57
sS'journal'
p58
VPLANT PHYSIOLOGY
p59
sS'volume'
p60
V152
p61
sS'doi'
p62
V10.1104/pp.110.153387
p63
sS'emailAddress'
p64
Vtakezawa@mail.saitama-u.ac.jp
p65
sS'authorAddress'
p66
(lp67
V[Tougane, Ken; Bhyan, Salma Begum; Takezawa, Daisuke] Saitama Univ, Grad Sch Sci & Engn, Saitama 3388570, Japan.
p68
aV[Takezawa, Daisuke] Saitama Univ, Inst Environm Sci & Technol, Saitama 3388570, Japan.
p69
aV[Komatsu, Kenji; Sakata, Yoichi] Tokyo Univ Agr, Dept Biosci, Tokyo 1568502, Japan.
p70
aV[Ishizaki, Kimitsune; Yamato, Katsuyuki T.; Kohchi, Takayuki] Kyoto Univ, Grad Sch Biostudies, Kyoto 6068502, Japan.
p71
asS'publisherAddress'
p72
V15501 MONONA DRIVE, ROCKVILLE, MD 20855 USA
p73
sS'ER'
p74
V
sS'publisher'
p75
VAMER SOC PLANT BIOLOGISTS
p76
sS'authorKeywords'
p77
(lp78
VINDUCED FREEZING TOLERANCE
p79
aVSTRESS-RELATED GENES
p80
aVRICCIA-FLUITANS L
p81
aVPHYSCOMITRELLA-PATENS
p82
aVARABIDOPSIS-THALIANA
p83
aVCOLD-ACCLIMATION
p84
aVDESICCATION TOLERANCE
p85
aVSOMATIC EMBRYOS
p86
aVABI1 PROTEIN
p87
aVABA
p88
asS'language'
p89
VEnglish
p90
sS'wosid'
p91
VWOS:000276329500033
p92
sS'citationCount'
p93
I52
sS'authors_init'
p94
(lp95
(VTOUGANE
VK
tp96
a(VKOMATSU
VK
tp97
a(VBHYAN
VS B
tp98
a(VSAKATA
VY
tp99
a(VISHIZAKI
VK
tp100
a(VYAMATO
VK T
tp101
a(VKOHCHI
VT
tp102
a(VTAKEZAWA
VD
tp103
asS'citedReferences'
p104
(lp105
g1
(g2
g3
NtRp106
(dp107
g62
V10.1093/jxb/46.4.433
p108
sg58
VJ EXP BOT
p109
sg60
V46
p110
sg94
(lp111
(VATTREE
VS M
tp112
asg21
I1995
sg54
V433
p113
sbag1
(g2
g3
NtRp114
(dp115
g62
V10.1111/j.1432-1033.1996.0193t.x
p116
sg58
VEUR J BIOCHEM
p117
sg60
V241
p118
sg94
(lp119
(VBERTAUCHE
VN
tp120
asg21
I1996
sg54
V193
p121
sbag1
(g2
g3
NtRp122
(dp123
g62
Nsg58
VPROTEIN SCI
p124
sg60
V5
sg94
(lp125
(VBORK
VP
tp126
asg21
I1996
sg54
VROTEIN
p127
sbag1
(g2
g3
NtRp128
(dp129
g62
V10.1016/j.cell.2007.04.004
p130
sg58
VCELL
p131
sg60
V129
p132
sg94
(lp133
(VBOWMAN
VJ L
tp134
asg21
I2007
sg54
V229
p135
sbag1
(g2
g3
NtRp136
(dp137
g62
V10.1146/annurev.pp.45.060194.000553
p138
sg58
VANNU REV PLANT PHYS
p139
sg60
V45
p140
sg94
(lp141
(VCHANDLER
VP M
tp142
asg21
I1994
sg54
V113
p143
sbag1
(g2
g3
NtRp144
(dp145
g62
V10.1073/pnas.0505667103
p146
sg58
VP NATL ACAD SCI USA
p147
sg60
V103
p148
sg94
(lp149
(VFURIHATA
VT
tp150
asg21
I2006
sg54
V1988
p151
sbag1
(g2
g3
NtRp152
(dp153
g62
V10.1104/pp.103.025569
p154
sg58
VPLANT PHYSIOL
p155
sg60
V133
p156
sg94
(lp157
(VGONZALEZ-GARCIA
VM P
tp158
asg21
I2003
sg54
VLANT
p159
sbag1
(g2
g3
NtRp160
(dp161
g62
Nsg58
VCAN J BOT
p162
sg60
V71
p163
sg94
(lp164
(VGOODE
VJ A
tp165
asg21
I1993
sg54
V1510
p166
sbag1
(g2
g3
NtRp167
(dp168
g62
V10.1105/tpc.11.10.1897
p169
sg58
VPLANT CELL
p170
sg60
V11
p171
sg94
(lp172
(VGOSTI
VF
tp173
asg21
I1999
sg54
VLANT
p174
sbag1
(g2
g3
NtRp175
(dp176
g62
V10.1007/s00344-005-0079-x
p177
sg58
VJ PLANT GROWTH REGUL
p178
sg60
V24
p179
sg94
(lp180
(VGUSTA
VL V
tp181
asg21
I2005
sg54
V308
p182
sbag1
(g2
g3
NtRp183
(dp184
g62
V10.1007/BF00714466
p185
sg58
VPLANTA
p186
sg60
V194
p187
sg94
(lp188
(VHELLWEGE
VE M
tp189
asg21
I1994
sg54
VLANTA
p190
sbag1
(g2
g3
NtRp191
(dp192
g62
Nsg58
VJ PLANT PHYSIOL
p193
sg60
V140
p194
sg94
(lp195
(VHELLWEGE
VE M
tp196
asg21
I1992
sg54
V553
p197
sbag1
(g2
g3
NtRp198
(dp199
g62
V10.1007/BF00620059
p200
sg58
VPLANTA
p201
sg60
V198
p202
sg94
(lp203
(VHELLWEGE
VE M
tp204
asg21
I1996
sg54
VLANTA
p205
sbag1
(g2
g3
NtRp206
(dp207
g62
V10.1146/annurev.cellbio.11.1.155
p208
sg58
VANNU REV CELL DEV BI
p209
sg60
V11
p210
sg94
(lp211
(VHICKS
VG R
tp212
asg21
I1995
sg54
V155
p213
sbag1
(g2
g3
NtRp214
(dp215
g62
V10.1093/pcp/pcn085
p216
sg58
VPLANT CELL PHYSIOL
p217
sg60
V49
p218
sg94
(lp219
(VISHIZAKI
VK
tp220
asg21
I2008
sg54
VLANT
p221
sbag1
(g2
g3
NtRp222
(dp223
g62
V10.1007/s11103-005-0909-z
p224
sg58
VPLANT MOL BIOL
p225
sg60
V59
p226
sg94
(lp227
(VKAMISUGI
VY
tp228
asg21
I2005
sg54
VLANT
p229
sbag1
(g2
g3
NtRp230
(dp231
g62
Nsg58
VPLANT CELL
p232
sg60
V7
sg94
(lp233
(VKNIGHT
VC D
tp234
asg21
I1995
sg54
VLANT
p235
sbag1
(g2
g3
NtRp236
(dp237
g62
V10.1007/s11103-009-9476-z
p238
sg58
VPLANT MOL BIOL
p239
sg60
V70
p240
sg94
(lp241
(VKOMATSU
VK
tp242
asg21
I2009
sg54
VLANT
p243
sbag1
(g2
g3
NtRp244
(dp245
g62
V10.1105/tpc.9.5.759
p246
sg58
VPLANT CELL
p247
sg60
V9
sg94
(lp248
(VLEUNG
VJ
tp249
asg21
I1997
sg54
VLANT
p250
sbag1
(g2
g3
NtRp251
(dp252
g62
V10.1126/science.7910981
p253
sg58
VSCIENCE
p254
sg60
V264
p255
sg94
(lp256
(VLEUNG
VJ
tp257
asg21
I1994
sg54
V1448
p258
sbag1
(g2
g3
NtRp259
(dp260
g62
V10.1016/S0031-9422(00)90328-5
p261
sg58
VPHYTOCHEMISTRY
p262
sg60
V37
p263
sg94
(lp264
(VLI
VX Y
tp265
asg21
I1994
sg54
VHYTOCHEMISTRY
p266
sbag1
(g2
g3
NtRp267
(dp268
g62
V10.1126/science.1172408
p269
sg58
VSCIENCE
p270
sg60
V324
p271
sg94
(lp272
(VMA
VY
tp273
asg21
I2009
sg54
V1064
p274
sbag1
(g2
g3
NtRp275
(dp276
g62
V10.2307/3868997
p277
sg58
VPLANT CELL
p278
sg60
V1
sg94
(lp279
(VMARCOTTE
VW R
tp280
asg21
I1989
sg54
VLANT
p281
sbag1
(g2
g3
NtRp282
(dp283
g62
V10.1111/j.1365-313X.2006.02764.x
p284
sg58
VPLANT J
p285
sg60
V46
p286
sg94
(lp287
(VMARELLA
VH H
tp288
asg21
I2006
sg54
VLANT
p289
sbag1
(g2
g3
NtRp290
(dp291
g62
V10.1126/science.8197457
p292
sg58
VSCIENCE
p293
sg60
V264
p294
sg94
(lp295
(VMEYER
VK
tp296
asg21
I1994
sg54
V1452
p297
sbag1
(g2
g3
NtRp298
(dp299
g62
V10.1007/s00425-004-1361-z
p300
sg58
VPLANTA
p301
sg60
V220
p302
sg94
(lp303
(VMINAMI
VA
tp304
asg21
I2005
sg54
VLANTA
p305
sbag1
(g2
g3
NtRp306
(dp307
g62
Nsg58
VPLANT COLD HARDINESS
p308
sg60
Nsg94
(lp309
(VMINAMI
VA
tp310
asg21
I2006
sg54
VLANT
p311
sbag1
(g2
g3
NtRp312
(dp313
g62
V10.1078/0176-1617-00888
p314
sg58
VJ PLANT PHYSIOL
p315
sg60
V160
p316
sg94
(lp317
(VMINAMI
VA
tp318
asg21
I2003
sg54
V475
p319
sbag1
(g2
g3
NtRp320
(dp321
g62
V10.1111/j.1365-313X.2008.03454.x
p322
sg58
VPLANT J
p323
sg60
V54
p324
sg94
(lp325
(VMOES
VD
tp326
asg21
I2008
sg54
VLANT
p327
sbag1
(g2
g3
NtRp328
(dp329
g62
V10.1016/j.jplph.2004.06.012
p330
sg58
VJ PLANT PHYSIOL
p331
sg60
V162
p332
sg94
(lp333
(VNAGAO
VM
tp334
asg21
I2005
sg54
V169
p335
sbag1
(g2
g3
NtRp336
(dp337
g62
V10.1111/j.1365-313X.2009.04054.x
p338
sg58
VPLANT J
p339
sg60
V61
p340
sg94
(lp341
(VNISHIMURA
VN
tp342
asg21
I2010
sg54
VLANT
p343
sbag1
(g2
g3
NtRp344
(dp345
g62
V10.1093/dnares/7.1.9
p346
sg58
VDNA RES
p347
sg60
V7
sg94
(lp348
(VNISHIYAMA
VT
tp349
asg21
I2000
sg54
V9
sbag1
(g2
g3
NtRp350
(dp351
g62
V10.1073/pnas.2034853100
p352
sg58
VP NATL ACAD SCI USA
p353
sg60
V100
p354
sg94
(lp355
(VOHTA
VM
tp356
asg21
I2003
sg54
V11771
p357
sbag1
(g2
g3
NtRp358
(dp359
g62
V10.1016/0304-4211(79)90074-9
p360
sg58
VPLANT SCI LETT
p361
sg60
V14
p362
sg94
(lp363
(VONO
VK
tp364
asg21
I1979
sg54
VLANT
p365
sbag1
(g2
g3
NtRp366
(dp367
g62
V10.1126/science.1173041
p368
sg58
VSCIENCE
p369
sg60
V324
p370
sg94
(lp371
(VPARK
VS Y
tp372
asg21
I2009
sg54
V1068
p373
sbag1
(g2
g3
NtRp374
(dp375
g62
Nsg58
VBRYOLOGIST
p376
sg60
V101
p377
sg94
(lp378
(VPENCE
VV C
tp379
asg21
I1998
sg54
V278
p380
sbag1
(g2
g3
NtRp381
(dp382
g62
V10.1016/j.jplph.2005.02.002
p383
sg58
VJ PLANT PHYSIOL
p384
sg60
V162
p385
sg94
(lp386
(VPENCE
VV C
tp387
asg21
I2005
sg54
V1331
p388
sbag1
(g2
g3
NtRp389
(dp390
g62
V10.1007/BF00390214
p391
sg58
VPLANTA
p392
sg60
V97
p393
sg94
(lp394
(VPRYCE
VR J
tp395
asg21
I1971
sg54
VLANTA
p396
sbag1
(g2
g3
NtRp397
(dp398
g62
V10.1073/pnas.0603335103
p399
sg58
VP NATL ACAD SCI USA
p400
sg60
V103
p401
sg94
(lp402
(VQIU
VY L
tp403
asg21
I2006
sg54
V15511
p404
sbag1
(g2
g3
NtRp405
(dp406
g62
V10.1093/jxb/44.12.1771
p407
sg58
VJ EXP BOT
p408
sg60
V44
p409
sg94
(lp410
(VREYNOLDS
VT L
tp411
asg21
I1993
sg54
V1771
p412
sbag1
(g2
g3
NtRp413
(dp414
g62
V10.1016/j.febslet.2006.07.047
p415
sg58
VFEBS LETT
p416
sg60
V580
p417
sg94
(lp418
(VROBERT
VN
tp419
asg21
I2006
sg54
V4691
p420
sbag1
(g2
g3
NtRp421
(dp422
g62
V10.1016/S0014-5793(97)01558-5
p423
sg58
VFEBS LETT
p424
sg60
V421
p425
sg94
(lp426
(VRODRIGUEZ
VP L
tp427
asg21
I1998
sg54
V185
p428
sbag1
(g2
g3
NtRp429
(dp430
g62
V10.1016/j.tplants.2004.03.007
p431
sg58
VTRENDS PLANT SCI
p432
sg60
V9
sg94
(lp433
(VSCHWEIGHOFER
VA
tp434
asg21
I2004
sg54
V236
p435
sbag1
(g2
g3
NtRp436
(dp437
g62
V10.1073/pnas.95.3.975
p438
sg58
VP NATL ACAD SCI USA
p439
sg60
V95
p440
sg94
(lp441
(VSHEEN
VJ
tp442
asg21
I1998
sg54
V975
p443
sbag1
(g2
g3
NtRp444
(dp445
g62
V10.1007/s002990050654
p446
sg58
VPLANT CELL REP
p447
sg60
V18
p448
sg94
(lp449
(VSHIOTA
VH
tp450
asg21
I1999
sg54
VLANT
p451
sbag1
(g2
g3
NtRp452
(dp453
g62
V10.1046/j.1365-313X.2001.2641048.x
p454
sg58
VPLANT J
p455
sg60
V26
p456
sg94
(lp457
(VTAHTIHARJU
VS
tp458
asg21
I2001
sg54
VLANT
p459
sbag1
(g2
g3
NtRp460
(dp461
g62
V10.1074/jbc.M301369200
p462
sg58
VJ BIOL CHEM
p463
sg60
V278
p464
sg94
(lp465
(VTAKEZAWA
VD
tp466
asg21
I2003
sg54
V38076
p467
sbag1
(g2
g3
NtRp468
(dp469
g62
V10.1007/BF00388767
p470
sg58
VPLANTA
p471
sg60
V144
p472
sg94
(lp473
(VWEILER
VE W
tp474
asg21
I1979
sg54
VLANTA
p475
sbag1
(g2
g3
NtRp476
(dp477
g62
Nsg58
VPLANTA
p478
sg60
V186
p479
sg94
(lp480
(VWERNER
VO
tp481
asg21
I1991
sg54
VLANTA
p482
sbag1
(g2
g3
NtRp483
(dp484
g62
V10.1016/j.tplants.2003.10.012
p485
sg58
VTRENDS PLANT SCI
p486
sg60
V9
sg94
(lp487
(VWISE
VM J
tp488
asg21
I2004
sg54
V13
p489
sbag1
(g2
g3
NtRp490
(dp491
g62
V10.1074/jbc.N509820200
p492
sg58
VJ BIOL CHEM
p493
sg60
V281
p494
sg94
(lp495
(VYOSHIDA
VR
tp496
asg21
I2006
sg54
V5310
p497
sbag1
(g2
g3
NtRp498
(dp499
g62
V10.1104/pp.105.070128
p500
sg58
VPLANT PHYSIOL
p501
sg60
V140
p502
sg94
(lp503
(VYOSHIDA
VT
tp504
asg21
I2006
sg54
VLANT
p505
sbasb.