ccopy_reg
_reconstructor
p1
(ctethne.classes.paper
Paper
p2
c__builtin__
object
p3
NtRp4
(dp5
S'publisherCity'
p6
VROCKVILLE
p7
sS'reprintAddress'
p8
VHausler, RE (reprint author), Univ Cologne, Inst Bot, D-50931 Cologne, Germany.
p9
sS'WC'
p10
VPlant Sciences
p11
sS'GA'
p12
V391VE
p13
sS'FX'
p14
(lp15
VThis work was supported by a grant from the Deutsche
p16
aVForschungsgemeinschaft to J. S.
p17
asS'abstract'
p18
VAn Arabidopsis (Arabidopsis thaliana) double mutant impaired in starch biosynthesis and the triose phosphate/phosphate translocator (adg1-1/tpt-1) is characterized by a diminished utilization of photoassimilates and the concomitant consumption of reducing power and energy produced in the photosynthetic light reaction. In order to guarantee survival, the double mutant responds to this metabolic challenge with growth retardation, an 80% decline in photosynthetic electron transport, diminished chlorophyll contents, an enhanced reduction state of plastoquinone in the dark (up to 50%), a perturbation of the redox poise in leaves (increased NADPH/NADP ratios and decreased ascorbate/dehydroascorbate ratios), hyperstacking of grana thylakoids, and an increased number of plastoglobules. Enhanced oxygen consumption and applications of inhibitors of alternative mitochondrial and chloroplast oxidases (AOX and PTOX) suggest that chlororespiration as well as mitochondrial respiration are involved in the enhanced plastoquinone reduction state in the dark. Transcript amounts of PTOX and AOX were diminished and nucleus-encoded components related to plastidic NADH reductase (NDH1) were increased in adg1-1/tpt-1 compared with the wild type. Cytochrome b(559), proposed to be involved in the reoxidation of photosystem II, was not regulated at the transcriptional level. The hyperstacking of grana thylakoids mimics adaptation to low light, and increased plastoglobule numbers suggest a response to enhanced oxidative stress. Altered chloroplast organization combined with perturbations in the redox poise suggests that adg1-1/tpt-1 could be a tool for the in vivo study of retrograde signaling mechanisms controlling the coordinated expression of nucleus- and plastome-encoded photosynthetic genes.
p19
sS'pageEnd'
p20
I533
sS'date'
p21
I2009
sS'documentType'
p22
VArticle
p23
sS'subject'
p24
VPlant Sciences
p25
sS'isoSource'
p26
VPlant Physiol.
p27
sS'timesCited'
p28
(lp29
I17
aVZ9 17
p30
asS'funding'
p31
(lp32
(VDeutsche Forschungsgemeinschaft
Ntp33
asS'PT'
p34
VJ
sS'title'
p35
VChlororespiration And Grana Hyperstacking: How An Arabidopsis Double Mutant Can Survive Despite Defects In Starch Biosynthesis And Daily Carbon Export From Chloroplasts
p36
sS'ISSN'
p37
(lp38
V0032-0889
p39
aVJ9 PLANT PHYSIOL
p40
asS'authors_full'
p41
(lp42
(VHAEUSLER
VRAINER E
tp43
a(VGEIMER
VSTEFAN
tp44
a(VKUNZ
VHANS HENNING
tp45
a(VSCHMITZ
VJESSICA
tp46
a(VDOERMANN
VPETER
tp47
a(VBELL
VKIRSTEN
tp48
a(VHETFELD
VSONJA
tp49
a(VGUBALLA
VANDRE
tp50
a(VFLUEGGE
VULFINGO
tp51
asS'PG'
p52
I19
sS'PD'
p53
VJAN
p54
sS'pageStart'
p55
I515
sS'issue'
p56
I1
sS'journal'
p57
VPLANT PHYSIOLOGY
p58
sS'volume'
p59
V149
p60
sS'doi'
p61
V10.1104/pp.108.128124
p62
sS'emailAddress'
p63
Vrainer.haeusler@uni-koeln.de
p64
sS'authorAddress'
p65
(lp66
V[Haeusler, Rainer E.; Kunz, Hans Henning; Schmitz, Jessica; Bell, Kirsten; Hetfeld, Sonja; Guballa, Andre; Fluegge, Ulf-Ingo] Univ Cologne, Inst Bot, D-50931 Cologne, Germany.
p67
aV[Geimer, Stefan] Univ Bayreuth, D-95440 Bayreuth, Germany.
p68
aV[Doermann, Peter] Univ Bonn, Inst Mol Physiol & Biotechnol Pflanzen, D-53115 Bonn, Germany.
p69
asS'publisherAddress'
p70
V15501 MONONA DRIVE, ROCKVILLE, MD 20855 USA
p71
sS'ER'
p72
V
sS'publisher'
p73
VAMER SOC PLANT BIOLOGISTS
p74
sS'authorKeywords'
p75
(lp76
VCYCLIC ELECTRON FLOW
p77
aVTRIOSE-PHOSPHATE/PHOSPHATE TRANSLOCATOR
p78
aVNAD(P)H DEHYDROGENASE COMPLEX
p79
aVTRANSGENIC POTATO PLANTS
p80
aVCHLOROPHYLL FLUORESCENCE
p81
aVPHOSPHATE TRANSLOCATOR
p82
aVPHOTOSYSTEM-II
p83
aVANTISENSE REPRESSION
p84
aVPLASTOQUINONE-POOL
p85
aVNADH-DEHYDROGENASE
p86
asS'language'
p87
VEnglish
p88
sS'wosid'
p89
VWOS:000262261500052
p90
sS'citationCount'
p91
I90
sS'authors_init'
p92
(lp93
(VHAUSLER
VR E
tp94
a(VGEIMER
VS
tp95
a(VKUNZ
VH H
tp96
a(VSCHMITZ
VJ
tp97
a(VDORMANN
VP
tp98
a(VBELL
VK
tp99
a(VHETFELD
VS
tp100
a(VGUBALLA
VA
tp101
a(VFLUGGE
VU I
tp102
asS'citedReferences'
p103
(lp104
g1
(g2
g3
NtRp105
(dp106
g61
V10.1111/j.0031-9317.2004.0217.x
p107
sg57
VPHYSIOL PLANTARUM
p108
sg59
V120
p109
sg92
(lp110
(VALURU
VM R
tp111
asg21
I2004
sg55
VHYSIOL
p112
sbag1
(g2
g3
NtRp113
(dp114
g61
V10.1016/0005-2728(80)90078-X
p115
sg57
VBIOCHIM BIOPHYS ACTA
p116
sg59
V593
p117
sg92
(lp118
(VANDERSSON
VB
tp119
asg21
I1980
sg55
V427
p120
sbag1
(g2
g3
NtRp121
(dp122
g61
V10.1146/annurev.arplant.50.1.601
p123
sg57
VANNU REV PLANT PHYS
p124
sg59
V50
p125
sg92
(lp126
(VASADA
VK
tp127
asg21
I1999
sg55
V601
p128
sbag1
(g2
g3
NtRp129
(dp130
g61
V10.1105/tpc.105.039859
p131
sg57
VPLANT CELL
p132
sg59
V18
p133
sg92
(lp134
(VAUSTIN
VJ R
tp135
asg21
I2006
sg55
VLANT
p136
sbag1
(g2
g3
NtRp137
(dp138
g61
V10.1073/pnas.0401269101
p139
sg57
VP NATL ACAD SCI USA
p140
sg59
V101
p141
sg92
(lp142
(VAVENSON
VT J
tp143
asg21
I2004
sg55
V5530
p144
sbag1
(g2
g3
NtRp145
(dp146
g61
V10.1007/s004250050550
p147
sg57
VPLANTA
p148
sg59
V208
p149
sg92
(lp150
(VBAENA-GONZALEZ
VE
tp151
asg21
I1999
sg55
VLANTA
p152
sbag1
(g2
g3
NtRp153
(dp154
g61
V10.1093/jxb/eri161
p155
sg57
VJ EXP BOT
p156
sg59
V56
p157
sg92
(lp158
(VBAIER
VM
tp159
asg21
I2005
sg55
V1449
p160
sbag1
(g2
g3
NtRp161
(dp162
g61
V10.1146/annurev.pp.33.060182.001401
p163
sg57
VANNU REV PLANT PHYS
p164
sg59
V33
p165
sg92
(lp166
(VBARBER
VJ
tp167
asg21
I1982
sg55
V261
p168
sbag1
(g2
g3
NtRp169
(dp170
g61
V10.1023/A:1006039917599
p171
sg57
VPHOTOSYNTH RES
p172
sg59
V56
p173
sg92
(lp174
(VBELKHODJA
VR
tp175
asg21
I1998
sg55
VHOTOSYNTH
p176
sbag1
(g2
g3
NtRp177
(dp178
g61
V10.1038/nature03286
p179
sg57
VNATURE
p180
sg59
V433
p181
sg92
(lp182
(VBELLAFIORE
VS
tp183
asg21
I2005
sg55
V892
p184
sbag1
(g2
g3
NtRp185
(dp186
g61
V10.1073/pnas.79.14.4352
p187
sg57
VP NATL ACAD SCI
p188
sg59
V79
p189
sg92
(lp190
(VBENNOUN
VP
tp191
asg21
I1982
sg55
V4352
p192
sbag1
(g2
g3
NtRp193
(dp194
g61
V10.1016/j.gene.2004.09.009
p195
sg57
VGENE
p196
sg59
V344
p197
sg92
(lp198
(VBIEHL
VA
tp199
asg21
I2005
sg55
V33
p200
sbag1
(g2
g3
NtRp201
(dp202
g61
V10.1038/nature04016
p203
sg57
VNATURE
p204
sg59
V437
p205
sg92
(lp206
(VBONARDI
VV
tp207
asg21
I2005
sg55
V1179
p208
sbag1
(g2
g3
NtRp209
(dp210
g61
V10.1074/jbc.M212842200
p211
sg57
VJ BIOL CHEM
p212
sg59
V278
p213
sg92
(lp214
(VBONDARAVA
VN
tp215
asg21
I2003
sg55
V13554
p216
sbag1
(g2
g3
NtRp217
(dp218
g61
V10.1016/0003-2697(86)90132-6
p219
sg57
VANAL BIOCHEM
p220
sg59
V152
p221
sg92
(lp222
(VBROWSE
VJ
tp223
asg21
I1986
sg55
V141
p224
sbag1
(g2
g3
NtRp225
(dp226
g61
V10.1074/jbc.275.2.942
p227
sg57
VJ BIOL CHEM
p228
sg59
V275
p229
sg92
(lp230
(VCASANO
VL M
tp231
asg21
I2000
sg55
V942
p232
sbag1
(g2
g3
NtRp233
(dp234
g61
V10.1104/pp.95.4.1181
p235
sg57
VPLANT PHYSIOL
p236
sg59
V95
p237
sg92
(lp238
(VCASPAR
VT
tp239
asg21
I1991
sg55
VLANT
p240
sbag1
(g2
g3
NtRp241
(dp242
g61
Nsg57
VANAL BIOCHEM
p243
sg59
V162
p244
sg92
(lp245
(VCHOMCZYNSKI
VP
tp246
asg21
I1987
sg55
V156
p247
sbag1
(g2
g3
NtRp248
(dp249
g61
V10.1016/j.bbabio.2006.03.009
p250
sg57
VBBA
p251
sg59
V1757
p252
sg92
(lp253
(VCLIFTON
VR
tp254
asg21
I2006
sg55
V730
p255
sbag1
(g2
g3
NtRp256
(dp257
g61
V10.1104/pp.105.063743
p258
sg57
VPLANT PHYSIOL
p259
sg59
V139
p260
sg92
(lp261
(VCZECHOWSKI
VT
tp262
asg21
I2005
sg55
VLANT
p263
sbag1
(g2
g3
NtRp264
(dp265
g61
Nsg57
VPLANT CELL PHYSIOL
p266
sg59
V31
p267
sg92
(lp268
(VDIETHELM
VR
tp269
asg21
I1990
sg55
VLANT
p270
sbag1
(g2
g3
NtRp271
(dp272
g61
Nsg57
VPLANT CELL
p273
sg59
V7
sg92
(lp274
(VDORMANN
VP
tp275
asg21
I1995
sg55
VLANT
p276
sbag1
(g2
g3
NtRp277
(dp278
g61
V10.1023/A:1012917428003
p279
sg57
VPHOTOSYNTH RES
p280
sg59
V68
p281
sg92
(lp282
(VDURCHAN
VM
tp283
asg21
I2001
sg55
VHOTOSYNTH
p284
sbag1
(g2
g3
NtRp285
(dp286
g61
V10.1073/pnas.92.22.10237
p287
sg57
VP NATL ACAD SCI USA
p288
sg59
V92
p289
sg92
(lp290
(VESCOUBAS
VJ M
tp291
asg21
I1995
sg55
V10237
p292
sbag1
(g2
g3
NtRp293
(dp294
g61
Nsg57
VPLANT PHYSIOL
p295
sg59
V115
p296
sg92
(lp297
(VFARBER
VA
tp298
asg21
I1997
sg55
VLANT
p299
sbag1
(g2
g3
NtRp300
(dp301
g61
Nsg57
VJ BIOL CHEM
p302
sg59
V280
p303
sg92
(lp304
(VFEY
VV
tp305
asg21
I2005
sg55
V5318
p306
sbag1
(g2
g3
NtRp307
(dp308
g61
V10.1034/j.1399-3054.2003.00137.x
p309
sg57
VPHYSIOL PLANTARUM
p310
sg59
V118
p311
sg92
(lp312
(VFLUGGE
VU I
tp313
asg21
I2003
sg55
VHYSIOL
p314
sbag1
(g2
g3
NtRp315
(dp316
g61
V10.1007/BF00405188
p317
sg57
VPLANTA
p318
sg59
V157
p319
sg92
(lp320
(VFOYER
VC
tp321
asg21
I1983
sg55
VLANTA
p322
sbag1
(g2
g3
NtRp323
(dp324
g61
V10.1111/j.1751-1097.1996.tb03022.x
p325
sg57
VPHOTOCHEM PHOTOBIOL
p326
sg59
V63
p327
sg92
(lp328
(VFRANK
VH A
tp329
asg21
I1996
sg55
VHOTOCHEM
p330
sbag1
(g2
g3
NtRp331
(dp332
g61
V10.1111/j.1365-313X.2006.02992.x
p333
sg57
VPLANT J
p334
sg59
V49
p335
sg92
(lp336
(VGAUDE
VN
tp337
asg21
I2007
sg55
VLANT
p338
sbag1
(g2
g3
NtRp339
(dp340
g61
Nsg57
VBIOCHIM BIOPHYS ACTA
p341
sg59
V990
p342
sg92
(lp343
(VGENTY
VB
tp344
asg21
I1989
sg55
V87
p345
sbag1
(g2
g3
NtRp346
(dp347
g61
Nsg57
VJ BIOL CHEM
p348
sg59
V259
p349
sg92
(lp350
(VGRAAN
VT
tp351
asg21
I1984
sg55
V4003
p352
sbag1
(g2
g3
NtRp353
(dp354
g61
V10.1046/j.1365-313X.2003.01900.x
p355
sg57
VPLANT J
p356
sg59
V36
p357
sg92
(lp358
(VHASHIMOTO
VM
tp359
asg21
I2003
sg55
VLANT
p360
sbag1
(g2
g3
NtRp361
(dp362
g61
Nsg57
VPLANT PHYSIOL
p363
sg59
V115
p364
sg92
(lp365
(VHATTENBACH
VA
tp366
asg21
I1997
sg55
VLANT
p367
sbag1
(g2
g3
NtRp368
(dp369
g61
V10.1007/s004250050268
p370
sg57
VPLANTA
p371
sg59
V204
p372
sg92
(lp373
(VHAUSLER
VR E
tp374
asg21
I1998
sg55
VLANTA
p375
sbag1
(g2
g3
NtRp376
(dp377
g61
V10.1007/PL00008146
p378
sg57
VPLANTA
p379
sg59
V210
p380
sg92
(lp381
(VHAUSLER
VR E
tp382
asg21
I2000
sg55
VLANTA
p383
sbag1
(g2
g3
NtRp384
(dp385
g61
Nsg57
VPLANTA
p386
sg59
V193
p387
sg92
(lp388
(VHEINEKE
VD
tp389
asg21
I1994
sg55
VLANTA
p390
sbag1
(g2
g3
NtRp391
(dp392
g61
V10.1104/pp.95.4.1131
p393
sg57
VPLANT PHYSIOL
p394
sg59
V95
p395
sg92
(lp396
(VHEINEKE
VD
tp397
asg21
I1991
sg55
VLANT
p398
sbag1
(g2
g3
NtRp399
(dp400
g61
Nsg57
VALIMENTA
p401
sg59
V20
p402
sg92
(lp403
(VHENNIGER
VG
tp404
asg21
I1981
sg55
V12
p405
sbag1
(g2
g3
NtRp406
(dp407
g61
V10.1016/0005-2728(88)90144-2
p408
sg57
VBIOCHIM BIOPHYS ACTA
p409
sg59
V932
p410
sg92
(lp411
(VHORTON
VP
tp412
asg21
I1988
sg55
V107
p413
sbag1
(g2
g3
NtRp414
(dp415
g61
V10.1104/pp.125.4.1919
p416
sg57
VPLANT PHYSIOL
p417
sg59
V125
p418
sg92
(lp419
(VJOET
VT
tp420
asg21
I2001
sg55
VLANT
p421
sbag1
(g2
g3
NtRp422
(dp423
g61
V[10.1104/pp.010775, 10.1104/pp.128.2.760]
p424
sg57
VPLANT PHYSIOL
p425
sg59
V128
p426
sg92
(lp427
(VJOET
VT
tp428
asg21
I2002
sg55
VLANT
p429
sbag1
(g2
g3
NtRp430
(dp431
g61
V10.1046/j.1432-1033.2003.03766.x
p432
sg57
VEUR J BIOCHEM
p433
sg59
V270
p434
sg92
(lp435
(VJOSSE
VE M
tp436
asg21
I2003
sg55
V3787
p437
sbag1
(g2
g3
NtRp438
(dp439
g61
V10.1093/jxb/erl002
p440
sg57
VJ EXP BOT
p441
sg59
V57
p442
sg92
(lp443
(VKRIEGER-LISZKAY
VA
tp444
asg21
I2006
sg55
V1677
p445
sbag1
(g2
g3
NtRp446
(dp447
g61
V10.1016/0014-5793(88)81453-4
p448
sg57
VFEBS LETT
p449
sg59
V226
p450
sg92
(lp451
(VKROMER
VS
tp452
asg21
I1988
sg55
V352
p453
sbag1
(g2
g3
NtRp454
(dp455
g61
V10.1016/j.bbabio.2006.08.004
p456
sg57
VBBA
p457
sg59
V1757
p458
sg92
(lp459
(VKRUK
VJ
tp460
asg21
I2006
sg55
V1669
p461
sbag1
(g2
g3
NtRp462
(dp463
g61
V10.1104/pp.86.4.1131
p464
sg57
VPLANT PHYSIOL
p465
sg59
V86
p466
sg92
(lp467
(VLIN
VT P
tp468
asg21
I1988
sg55
VLANT
p469
sbag1
(g2
g3
NtRp470
(dp471
g61
V10.1146/annurev.pp.45.060194.003221
p472
sg57
VANNU REV PLANT PHYS
p473
sg59
V45
p474
sg92
(lp475
(VLONG
VS P
tp476
asg21
I1994
sg55
V633
p477
sbag1
(g2
g3
NtRp478
(dp479
g61
Nsg57
VBIOMETRIE
p480
sg59
Nsg92
(lp481
(VLORENZ
VR J
tp482
asg21
I1984
sg55
V174
p483
sbag1
(g2
g3
NtRp484
(dp485
g61
Nsg57
VJ BIOL CHEM
p486
sg59
V236
p487
sg92
(lp488
(VLOWRY
VO H
tp489
asg21
I1961
sg55
V2756
p490
sbag1
(g2
g3
NtRp491
(dp492
g61
Nsg57
VJ BIOL CHEM
p493
sg59
V236
p494
sg92
(lp495
(VLOWRY
VO H
tp496
asg21
I1961
sg55
V2746
p497
sbag1
(g2
g3
NtRp498
(dp499
g61
Nsg57
VMETHOD ENZYMOL
p500
sg59
V69
p501
sg92
(lp502
(VMATSUMURA
VH
tp503
asg21
I1980
sg55
V465
p504
sbag1
(g2
g3
NtRp505
(dp506
g61
V10.1093/jexbot/51.345.659
p507
sg57
VJ EXP BOT
p508
sg59
V51
p509
sg92
(lp510
(VMAXWELL
VK
tp511
asg21
I2000
sg55
V659
p512
sbag1
(g2
g3
NtRp513
(dp514
g61
V10.1007/BF01275618
p515
sg57
VPROTOPLASMA
p516
sg59
V107
p517
sg92
(lp518
(VMEIER
VD
tp519
asg21
I1981
sg55
VROTOPLASMA
p520
sbag1
(g2
g3
NtRp521
(dp522
g61
V10.1016/S1360-1385(99)01387-4
p523
sg57
VTRENDS PLANT SCI
p524
sg59
V4
sg92
(lp525
(VMELIS
VA
tp526
asg21
I1999
sg55
V130
p527
sbag1
(g2
g3
NtRp528
(dp529
g61
V10.1016/j.tplants.2004.08.009
p530
sg57
VTRENDS PLANT SCI
p531
sg59
V9
sg92
(lp532
(VMITTLER
VR
tp533
asg21
I2004
sg55
V490
p534
sbag1
(g2
g3
NtRp535
(dp536
g61
V10.1104/pp.125.4.1558
p537
sg57
VPLANT PHYSIOL
p538
sg59
V125
p539
sg92
(lp540
(VMULLER
VP
tp541
asg21
I2001
sg55
VLANT
p542
sbag1
(g2
g3
NtRp543
(dp544
g61
V10.1104/pp.010924
p545
sg57
VPLANT PHYSIOL
p546
sg59
V128
p547
sg92
(lp548
(VMULLER-MOULE
VP
tp549
asg21
I2002
sg55
VLANT
p550
sbag1
(g2
g3
NtRp551
(dp552
g61
V10.1038/nature02598
p553
sg57
VNATURE
p554
sg59
V429
p555
sg92
(lp556
(VMUNEKAGA
VY
tp557
asg21
I2004
sg55
V579
p558
sbag1
(g2
g3
NtRp559
(dp560
g61
V10.1104/pp.106.080267
p561
sg57
VPLANT PHYSIOL
p562
sg59
V141
p563
sg92
(lp564
(VMUNSHI
VM K
tp565
asg21
I2006
sg55
VLANT
p566
sbag1
(g2
g3
NtRp567
(dp568
g61
V10.1098/rstb.2000.0714
p569
sg57
VPHILOS T ROY SOC B
p570
sg59
V355
p571
sg92
(lp572
(VNIXON
VP J
tp573
asg21
I2000
sg55
VHILOS
p574
sbag1
(g2
g3
NtRp575
(dp576
g61
V10.1146/annurev.arplant.49.1.249
p577
sg57
VANNU REV PLANT PHYS
p578
sg59
V49
p579
sg92
(lp580
(VNOCTOR
VG
tp581
asg21
I1998
sg55
V249
p582
sbag1
(g2
g3
NtRp583
(dp584
g61
V10.1002/jemt.1060180405
p585
sg57
VJ ELECTRON MICR TECH
p586
sg59
V18
p587
sg92
(lp588
(VOLIVE
VJ
tp589
asg21
I1991
sg55
V360
p590
sbag1
(g2
g3
NtRp591
(dp592
g61
Nsg57
VENCY PLANT PHYSL
p593
sg59
V19
p594
sg92
(lp595
(VORT
VD R
tp596
asg21
I1986
sg55
V179
p597
sbag1
(g2
g3
NtRp598
(dp599
g61
V10.1146/annurev.arplant.53.100301.135242
p600
sg57
VANNU REV PLANT BIOL
p601
sg59
V53
p602
sg92
(lp603
(VPELTIER
VG
tp604
asg21
I2002
sg55
V523
p605
sbag1
(g2
g3
NtRp606
(dp607
g61
V10.1016/j.pbi.2007.07.007
p608
sg57
VCURR OPIN PLANT BIOL
p609
sg59
V10
p610
sg92
(lp611
(VPESARESI
VP
tp612
asg21
I2007
sg55
V600
p613
sbag1
(g2
g3
NtRp614
(dp615
g61
V10.1038/17624
p616
sg57
VNATURE
p617
sg59
V397
p618
sg92
(lp619
(VPFANNSCHMIDT
VT
tp620
asg21
I1999
sg55
V625
p621
sbag1
(g2
g3
NtRp622
(dp623
g61
V10.1146/annurev.pp.35.060184.000311
p624
sg57
VANNU REV PLANT PHYS
p625
sg59
V35
p626
sg92
(lp627
(VPOWLES
VS B
tp628
asg21
I1984
sg55
V15
p629
sbag1
(g2
g3
NtRp630
(dp631
g61
V10.1016/S0005-2728(89)80082-9
p632
sg57
VBIOCHIM BIOPHYS ACTA
p633
sg59
V977
p634
sg92
(lp635
(VQUICK
VW P
tp636
asg21
I1989
sg55
V287
p637
sbag1
(g2
g3
NtRp638
(dp639
g61
V10.1016/j.tplants.2003.09.015
p640
sg57
VTRENDS PLANT SCI
p641
sg59
V8
sg92
(lp642
(VRAGHAVENDRA
VA S
tp643
asg21
I2003
sg55
V546
p644
sbag1
(g2
g3
NtRp645
(dp646
g61
V10.1016/S0304-3940(02)01423-4
p647
sg57
VNEUROSCI LETT
p648
sg59
V339
p649
sg92
(lp650
(VRAMAKERS
VC
tp651
asg21
I2003
sg55
V62
p652
sbag1
(g2
g3
NtRp653
(dp654
g61
V10.1083/jcb.17.1.208
p655
sg57
VJ CELL BIOL
p656
sg59
V17
p657
sg92
(lp658
(VREYNOLDS
VE S
tp659
asg21
I1963
sg55
V208
p660
sbag1
(g2
g3
NtRp661
(dp662
g61
V10.1073/pnas.90.13.6160
p663
sg57
VP NATL ACAD SCI USA
p664
sg59
V90
p665
sg92
(lp666
(VRIESMEIER
VJ W
tp667
asg21
I1993
sg55
V6160
p668
sbag1
(g2
g3
NtRp669
(dp670
g61
V10.1073/pnas.062053099
p671
sg57
VP NATL ACAD SCI USA
p672
sg59
V99
p673
sg92
(lp674
(VRITTE
VG
tp675
asg21
I2002
sg55
V7166
p676
sbag1
(g2
g3
NtRp677
(dp678
g61
V10.1016/S1360-1385(01)02085-4
p679
sg57
VTRENDS PLANT SCI
p680
sg59
V6
sg92
(lp681
(VRODERMEL
VS
tp682
asg21
I2001
sg55
V471
p683
sbag1
(g2
g3
NtRp684
(dp685
g61
V10.1104/pp.106.085886
p686
sg57
VPLANT PHYSIOL
p687
sg59
V142
p688
sg92
(lp689
(VROSSO
VD
tp690
asg21
I2006
sg55
VLANT
p691
sbag1
(g2
g3
NtRp692
(dp693
g61
V10.1104/pp.119.2.531
p694
sg57
VPLANT PHYSIOL
p695
sg59
V119
p696
sg92
(lp697
(VRUBAN
VA V
tp698
asg21
I1999
sg55
VLANT
p699
sbag1
(g2
g3
NtRp700
(dp701
g61
V10.1105/tpc.104.028282
p702
sg57
VPLANT CELL
p703
sg59
V17
p704
sg92
(lp705
(VRUMEAU
VD
tp706
asg21
I2005
sg55
VLANT
p707
sbag1
(g2
g3
NtRp708
(dp709
g61
V10.1111/j.1365-3040.2007.01675.x
p710
sg57
VPLANT CELL ENVIRON
p711
sg59
V30
p712
sg92
(lp713
(VRUMEAU
VD
tp714
asg21
I2007
sg55
VLANT
p715
sbag1
(g2
g3
NtRp716
(dp717
g61
V10.1046/j.1365-313X.2002.01460.x
p718
sg57
VPLANT J
p719
sg59
V32
p720
sg92
(lp721
(VSCHNEIDER
VA
tp722
asg21
I2002
sg55
VLANT
p723
sbag1
(g2
g3
NtRp724
(dp725
g61
V10.1007/BF00024185
p726
sg57
VPHOTOSYNTH RES
p727
sg59
V10
p728
sg92
(lp729
(VSCHREIBER
VU
tp730
asg21
I1986
sg55
VHOTOSYNTH
p731
sbag1
(g2
g3
NtRp732
(dp733
g61
Nsg57
VPLANT CELL S
p734
sg59
V14
p735
sg92
(lp736
(VSURPIN
VM
tp737
asg21
I2002
sg55
VLANT
p738
sbag1
(g2
g3
NtRp739
(dp740
g61
V10.1023/A:1026524302191
p741
sg57
VPhotosynthesis Research
p742
sg59
V64
p743
sg92
(lp744
(VTEICHER
VHARALD BERNHARD
tp745
asg21
I2000
sg55
Vhotosynthesis
p746
sbag1
(g2
g3
NtRp747
(dp748
g61
V10.1104/pp.108.125690
p749
sg57
VPLANT PHYSIOL
p750
sg59
V148
p751
sg92
(lp752
(VTRIANTAPHYLIDES
VC
tp753
asg21
I2008
sg55
VLANT
p754
sbag1
(g2
g3
NtRp755
(dp756
g61
V10.1104/pp.104.040469
p757
sg57
VPLANT PHYSIOL
p758
sg59
V135
p759
sg92
(lp760
(VWALTERS
VR G
tp761
asg21
I2004
sg55
VLANT
p762
sbag1
(g2
g3
NtRp763
(dp764
g61
V10.1104/pp.015479
p765
sg57
VPLANT PHYSIOL
p766
sg59
V131
p767
sg92
(lp768
(VWALTERS
VR G
tp769
asg21
I2003
sg55
VLANT
p770
sbag1
(g2
g3
NtRp771
(dp772
g61
V10.1104/pp.107.103218
p773
sg57
VPLANT PHYSIOL
p774
sg59
V144
p775
sg92
(lp776
(VWANG
VD
tp777
asg21
I2007
sg55
VLANT
p778
sbag1
(g2
g3
NtRp779
(dp780
g61
V10.1007/s00425-003-1128-y
p781
sg57
VPLANTA
p782
sg59
V218
p783
sg92
(lp784
(VWEISE
VS E
tp785
asg21
I2004
sg55
VLANTA
p786
sbag1
(g2
g3
NtRp787
(dp788
g61
V10.1105/tpc.11.1.43
p789
sg57
VPLANT CELL
p790
sg59
V11
p791
sg92
(lp792
(VWU
VD Y
tp793
asg21
I1999
sg55
VLANT
p794
sbag1
(g2
g3
NtRp795
(dp796
g61
V10.1105/tpc.13.8.1907
p797
sg57
VPLANT CELL
p798
sg59
V13
p799
sg92
(lp800
(VYU
VT S
tp801
asg21
I2001
sg55
VLANT
p802
sbasb.