ccopy_reg
_reconstructor
p1
(ctethne.classes.paper
Paper
p2
c__builtin__
object
p3
NtRp4
(dp5
S'publisherCity'
p6
VROCKVILLE
p7
sS'reprintAddress'
p8
VTerry, MJ (reprint author), Univ Southampton, Sch Biol Sci, Southampton SO16 7PX, Hants, England.
p9
sS'WC'
p10
VPlant Sciences
p11
sS'GA'
p12
V595BV
p13
sS'abstract'
p14
VWe have examined the expression of the HEMA1 gene, which encodes the key chlorophyll synthesis enzyme glutamyl-tRNA reductase, during the phytochrome A-mediated far-red light (FR) block of greening response in Arabidopsis. Our results demonstrate that the FR block of greening comprises two separate responses: a white light (WL) intensity-independent response that requires 3 d of FR and is associated with a loss of expression of the nuclear genes HEMA1 and Lhcb following the transfer to WL (transcriptionally coupled response) and a WL intensity-dependent response that is induced by 1 d of FR and is transcriptionally uncoupled. Both responses required phytochrome A. The transcriptionally uncoupled response correlated with a deregulation of tetrapyrrole synthesis and potential photooxidative damage and was inhibited by cytokinin. The transcriptionally coupled FR response was additive with the loss of expression following Norflurazon-induced photobleaching and was absent in the presence of sucrose or after lower fluence rate (1 mumol m(-2) s(-1)) FR treatments. Both pathways leading to the loss of nuclear gene expression were inhibited by overexpression of NADPH: protochlorophyllide oxidoreductase, indicating a role for plastid signaling in the FR-mediated pathway. The significance of identifying a distinct phytochrome A-mediated plastid signaling pathway is discussed.
p15
sS'pageEnd'
p16
I414
sS'date'
p17
I2002
sS'documentType'
p18
VArticle
p19
sS'subject'
p20
VPlant Sciences
p21
sS'isoSource'
p22
VPlant Physiol.
p23
sS'timesCited'
p24
(lp25
I27
aVZ9 31
p26
asS'PT'
p27
VJ
sS'title'
p28
VLoss Of Nuclear Gene Expression During The Phytochrome A-Mediated Far-Red Block Of Greening Response
p29
sS'ISSN'
p30
(lp31
V0032-0889
p32
aVJ9 PLANT PHYSIOL
p33
asS'authors_full'
p34
(lp35
(VMCCORMAC
VAC
tp36
a(VTERRY
VMJ
tp37
asS'PG'
p38
I13
sS'PD'
p39
VSEP
p40
sS'pageStart'
p41
I402
sS'issue'
p42
I1
sS'RI'
p43
VTerry, Matthew/B-3000-2012
p44
sS'journal'
p45
VPLANT PHYSIOLOGY
p46
sS'volume'
p47
V130
p48
sS'doi'
p49
V10.1104/pp.003806
p50
sS'emailAddress'
p51
Vmjt@soton.ac.uk
p52
sS'authorAddress'
p53
VUniv Southampton, Sch Biol Sci, Southampton SO16 7PX, Hants, England.
p54
sS'publisherAddress'
p55
V15501 MONONA DRIVE, ROCKVILLE, MD 20855 USA
p56
sS'ER'
p57
V
sS'publisher'
p58
VAMER SOC PLANT BIOLOGISTS
p59
sS'authorKeywords'
p60
(lp61
VCHLOROPHYLL SYNTHESIS
p62
aVARABIDOPSIS-THALIANA
p63
aVSIGNAL-TRANSDUCTION
p64
aVPROLAMELLAR BODIES
p65
aVDEFICIENT MUTANTS
p66
aVRNA EXPRESSION
p67
aVPLASTID SIGNAL
p68
aVHIGHER-PLANTS
p69
aVAUREA MUTANT
p70
aVLIGHT
p71
asS'language'
p72
VEnglish
p73
sS'wosid'
p74
VWOS:000178087700040
p75
sS'citationCount'
p76
I50
sS'authors_init'
p77
(lp78
(VMCCORMAC
VA C
tp79
a(VTERRY
VM J
tp80
asS'citedReferences'
p81
(lp82
g1
(g2
g3
NtRp83
(dp84
g49
V10.1098/rstb.1995.0139
p85
sg45
VPHILOS T ROY SOC B
p86
sg47
V350
p87
sg77
(lp88
(VBARNES
VS A
tp89
asg17
I1995
sg41
VHILOS
p90
sbag1
(g2
g3
NtRp91
(dp92
g49
Nsg45
VPLANT CELL
p93
sg47
V8
sg77
(lp94
(VBARNES
VS A
tp95
asg17
I1996
sg41
VLANT
p96
sbag1
(g2
g3
NtRp97
(dp98
g49
V10.1104/pp.53.2.291
p99
sg45
VPLANT PHYSIOL
p100
sg47
V53
p101
sg77
(lp102
(VBEALE
VS I
tp103
asg17
I1974
sg41
VLANT
p104
sbag1
(g2
g3
NtRp105
(dp106
g49
V10.1073/pnas.89.16.7791
p107
sg45
VP NATL ACAD SCI USA
p108
sg47
V89
p109
sg77
(lp110
(VBRUSSLAN
VJ A
tp111
asg17
I1992
sg41
V7791
p112
sbag1
(g2
g3
NtRp113
(dp114
g49
Nsg45
VPLANTA
p115
sg47
V196
p116
sg77
(lp117
(VCASAL
VJ J
tp118
asg17
I1995
sg41
VLANTA
p119
sbag1
(g2
g3
NtRp120
(dp121
g49
V10.1104/pp.125.4.1957
p122
sg45
VPLANT PHYSIOL
p123
sg47
V125
p124
sg77
(lp125
(VCHUN
VL
tp126
asg17
I2001
sg41
VLANT
p127
sbag1
(g2
g3
NtRp128
(dp129
g49
V10.1105/tpc.9.4.583
p130
sg45
VPLANT CELL
p131
sg47
V9
sg77
(lp132
(VDIJKWEL
VP P
tp133
asg17
I1997
sg41
VLANT
p134
sbag1
(g2
g3
NtRp135
(dp136
g49
Nsg45
VPLANT PHYSIOL
p137
sg47
V109
p138
sg77
(lp139
(VDUBELL
VA N
tp140
asg17
I1995
sg41
VLANT
p141
sbag1
(g2
g3
NtRp142
(dp143
g49
Nsg45
VPLANT PHYSIOL
p144
sg47
V109
p145
sg77
(lp146
(VDUBELL
VA N
tp147
asg17
I1995
sg41
VLANT
p148
sbag1
(g2
g3
NtRp149
(dp150
g49
V10.1073/pnas.91.5.1726
p151
sg45
VP NATL ACAD SCI USA
p152
sg47
V91
p153
sg77
(lp154
(VHOFGEN
VR
tp155
asg17
I1994
sg41
V1726
p156
sbag1
(g2
g3
NtRp157
(dp158
g49
Nsg45
VPLANT CELL PHYSIOL
p159
sg47
V24
p160
sg77
(lp161
(VIKEUCHI
VM
tp162
asg17
I1983
sg41
VLANT
p163
sbag1
(g2
g3
NtRp164
(dp165
g49
V10.1105/tpc.6.2.265
p166
sg45
VPLANT CELL
p167
sg47
V6
sg77
(lp168
(VILAG
VL L
tp169
asg17
I1994
sg41
VLANT
p170
sbag1
(g2
g3
NtRp171
(dp172
g49
V10.1104/pp.92.4.1004
p173
sg45
VPLANT PHYSIOL
p174
sg47
V92
p175
sg77
(lp176
(VKENDROR
VS
tp177
asg17
I1990
sg41
VLANT
p178
sbag1
(g2
g3
NtRp179
(dp180
g49
V10.1034/j.1399-3054.1991.810123.x
p181
sg45
VPHYSIOL PLANTARUM
p182
sg47
V81
p183
sg77
(lp184
(VKITTSTEINER
VU
tp185
asg17
I1991
sg41
VHYSIOL
p186
sbag1
(g2
g3
NtRp187
(dp188
g49
V10.1046/j.1365-313x.2000.00898.x
p189
sg45
VPLANT J
p190
sg47
V24
p191
sg77
(lp192
(VKROPAT
VJ
tp193
asg17
I2000
sg41
VLANT
p194
sbag1
(g2
g3
NtRp195
(dp196
g49
V10.1007/BF00049321
p197
sg45
VPLANT MOL BIOL
p198
sg47
V30
p199
sg77
(lp200
(VKUMAR
VA M
tp201
asg17
I1996
sg41
VLANT
p202
sbag1
(g2
g3
NtRp203
(dp204
g49
V10.1104/pp.122.1.49
p205
sg45
VPLANT PHYSIOL
p206
sg47
V122
p207
sg77
(lp208
(VKUMAR
VA M
tp209
asg17
I2000
sg41
VLANT
p210
sbag1
(g2
g3
NtRp211
(dp212
g49
V10.1016/S0031-9422(99)00114-4
p213
sg45
VPHYTOCHEMISTRY
p214
sg47
V51
p215
sg77
(lp216
(VKUMAR
VM A
tp217
asg17
I1999
sg41
VHYTOCHEMISTRY
p218
sbag1
(g2
g3
NtRp219
(dp220
g49
V10.1104/pp.122.1.15
p221
sg45
VPLANT PHYSIOL
p222
sg47
V122
p223
sg77
(lp224
(VKUNO
VN
tp225
asg17
I2000
sg41
VLANT
p226
sbag1
(g2
g3
NtRp227
(dp228
g49
V10.1007/PL00008626
p229
sg45
VMOL GEN GENET
p230
sg47
V259
p231
sg77
(lp232
(VKUSNETSOV
VV
tp233
asg17
I1998
sg41
V21
p234
sbag1
(g2
g3
NtRp235
(dp236
g49
V10.1007/BF02173968
p237
sg45
VMOL GEN GENET
p238
sg47
V252
p239
sg77
(lp240
(VKUSNETSOV
VV
tp241
asg17
I1996
sg41
V631
p242
sbag1
(g2
g3
NtRp243
(dp244
g49
V10.1007/s004250000477
p245
sg45
VPLANTA
p246
sg47
V213
p247
sg77
(lp248
(VLA
VROCCA N
tp249
asg17
I2001
sg41
VLANTA
p250
sbag1
(g2
g3
NtRp251
(dp252
g49
Nsg45
VPLANT CELL
p253
sg47
V7
sg77
(lp254
(VLEBEDEV
VN
tp255
asg17
I1995
sg41
VLANT
p256
sbag1
(g2
g3
NtRp257
(dp258
g49
V10.1104/pp.118.3.803
p259
sg45
VPLANT PHYSIOL
p260
sg47
V118
p261
sg77
(lp262
(VLOPEZ-JUEZ
VE
tp263
asg17
I1998
sg41
VLANT
p264
sbag1
(g2
g3
NtRp265
(dp266
g49
Nsg45
VP211
p267
sg47
Nsg77
(lp268
(VMANCINELLI
VALBERTO L
tp269
asg17
I1994
sg41
V211
p270
sbag1
(g2
g3
NtRp271
(dp272
g49
V10.1007/BF00380614
p273
sg45
VPLANTA
p274
sg47
V126
p275
sg77
(lp276
(VMASONER
VM
tp277
asg17
I1975
sg41
VLANTA
p278
sbag1
(g2
g3
NtRp279
(dp280
g49
V10.1046/j.1365-313x.2001.00986.x
p281
sg45
VPLANT J
p282
sg47
V25
p283
sg77
(lp284
(VMCCORMAC
VA C
tp285
asg17
I2001
sg41
VLANT
p286
sbag1
(g2
g3
NtRp287
(dp288
g49
V10.1073/pnas.93.26.15491
p289
sg45
VP NATL ACAD SCI USA
p290
sg47
V93
p291
sg77
(lp292
(VMILLAR
VA J
tp293
asg17
I1996
sg41
V15491
p294
sbag1
(g2
g3
NtRp295
(dp296
g49
V10.1073/pnas.98.4.2053
p297
sg45
VP NATL ACAD SCI USA
p298
sg47
V98
p299
sg77
(lp300
(VMOCHIZUKI
VN
tp301
asg17
I2001
sg41
V2053
p302
sbag1
(g2
g3
NtRp303
(dp304
g49
V10.1101/gad.850101
p305
sg45
VGENE DEV
p306
sg47
V15
p307
sg77
(lp308
(VMOLLER
VS G
tp309
asg17
I2001
sg41
V90
p310
sbag1
(g2
g3
NtRp311
(dp312
g49
V10.1104/pp.69.6.1376
p313
sg45
VPLANT PHYSIOL
p314
sg47
V69
p315
sg77
(lp316
(VMORAN
VR
tp317
asg17
I1982
sg41
VLANT
p318
sbag1
(g2
g3
NtRp319
(dp320
g49
V10.1111/j.1399-3054.1962.tb08052.x
p321
sg45
VPHYSIOL PLANTARUM
p322
sg47
V15
p323
sg77
(lp324
(VMURASHIGE
VT
tp325
asg17
I1962
sg41
VHYSIOL
p326
sbag1
(g2
g3
NtRp327
(dp328
g49
V10.1007/BF00392267
p329
sg45
VPLANTA
p330
sg47
V168
p331
sg77
(lp332
(VOELMULLER
VR
tp333
asg17
I1986
sg41
VLANTA
p334
sbag1
(g2
g3
NtRp335
(dp336
g49
V10.1016/0003-9861(75)90065-X
p337
sg45
VARCH BIOCHEM BIOPHYS
p338
sg47
V171
p339
sg77
(lp340
(VREBEIZ
VC A
tp341
asg17
I1975
sg41
V549
p342
sbag1
(g2
g3
NtRp343
(dp344
g49
V10.1016/S0092-8674(00)80144-0
p345
sg45
VCELL
p346
sg47
V86
p347
sg77
(lp348
(VREINBOTHE
VS
tp349
asg17
I1996
sg41
V703
p350
sbag1
(g2
g3
NtRp351
(dp352
g49
V10.1046/j.1365-313X.1996.09040513.x
p353
sg45
VPLANT J
p354
sg47
V9
sg77
(lp355
(VRUNGE
VS
tp356
asg17
I1996
sg41
VLANT
p357
sbag1
(g2
g3
NtRp358
(dp359
g49
V10.1111/j.1399-3054.1982.tb00313.x
p360
sg45
VPHYSIOL PLANTARUM
p361
sg47
V56
p362
sg77
(lp363
(VRYBERG
VM
tp364
asg17
I1982
sg41
VHYSIOL
p365
sbag1
(g2
g3
NtRp366
(dp367
g49
V10.1007/BF00333391
p368
sg45
VMOL GEN GENET
p369
sg47
V213
p370
sg77
(lp371
(VSHARROCK
VR A
tp372
asg17
I1988
sg41
V9
sbag1
(g2
g3
NtRp373
(dp374
g49
V10.1146/annurev.arplant.46.1.289
p375
sg45
VANNU REV PLANT PHYS
p376
sg47
V46
p377
sg77
(lp378
(VSMITH
VH
tp379
asg17
I1995
sg41
V289
p380
sbag1
(g2
g3
NtRp381
(dp382
g49
V10.1046/j.1365-313X.1997.00649.x
p383
sg45
VPLANT J
p384
sg47
V12
p385
sg77
(lp386
(VSPERLING
VU
tp387
asg17
I1997
sg41
VLANT
p388
sbag1
(g2
g3
NtRp389
(dp390
g49
Nsg45
VNATO ASI 3 HIGH TECH
p391
sg47
V64
p392
sg77
(lp393
(VSPERLING
VU
tp394
asg17
I1999
sg41
V97
p395
sbag1
(g2
g3
NtRp396
(dp397
g49
Nsg45
VAUST J PLANT PHYSIOL
p398
sg47
V19
p399
sg77
(lp400
(VSUSEK
VR E
tp401
asg17
I1992
sg41
V387
p402
sbag1
(g2
g3
NtRp403
(dp404
g49
V10.1016/0092-8674(93)90459-4
p405
sg45
VCELL
p406
sg47
V74
p407
sg77
(lp408
(VSUSEK
VR E
tp409
asg17
I1993
sg41
V787
p410
sbag1
(g2
g3
NtRp411
(dp412
g49
V10.1146/annurev.pp.40.060189.001235
p413
sg45
VANNU REV PLANT PHYS
p414
sg47
V40
p415
sg77
(lp416
(VTAYLOR
VW C
tp417
asg17
I1989
sg41
V211
p418
sbag1
(g2
g3
NtRp419
(dp420
g49
V10.1073/pnas.161300998
p421
sg45
VP NATL ACAD SCI USA
p422
sg47
V98
p423
sg77
(lp424
(VTEPPERMAN
VJ M
tp425
asg17
I2001
sg41
V9437
p426
sbag1
(g2
g3
NtRp427
(dp428
g49
Nsg45
VPLANTA
p429
sg47
V214
p430
sg77
(lp431
(VTERRY
VM J
tp432
asg17
I2001
sg41
VLANTA
p433
sbag1
(g2
g3
NtRp434
(dp435
g49
V10.1104/pp.119.1.143
p436
sg45
VPLANT PHYSIOL
p437
sg47
V119
p438
sg77
(lp439
(VTERRY
VM J
tp440
asg17
I1999
sg41
VLANT
p441
sbag1
(g2
g3
NtRp442
(dp443
g49
Nsg45
VJ BIOL CHEM
p444
sg47
V238
p445
sg77
(lp446
(VURATA
VG
tp447
asg17
I1963
sg41
V811
p448
sbag1
(g2
g3
NtRp449
(dp450
g49
Nsg45
VMOL GEN GENET
p451
sg47
V246
p452
sg77
(lp453
(VVANTUINEN
VA
tp454
asg17
I1995
sg41
V133
p455
sbag1
(g2
g3
NtRp456
(dp457
g49
V10.1046/j.1365-313x.2000.00936.x
p458
sg45
VPLANT J
p459
sg47
V24
p460
sg77
(lp461
(VVINTI
VG
tp462
asg17
I2000
sg41
VLANT
p463
sbasb.