ccopy_reg
_reconstructor
p1
(ctethne.classes.paper
Paper
p2
c__builtin__
object
p3
NtRp4
(dp5
S'publisherCity'
p6
VROCKVILLE
p7
sS'reprintAddress'
p8
VLease, KA (reprint author), Univ Missouri, Div Biol Sci, Columbia, MO 65211 USA.
p9
sS'WC'
p10
VPlant Sciences
p11
sS'GA'
p12
V103NG
p13
sS'abstract'
p14
VIn the era of genomics, if a gene is not annotated, it is not investigated. Due to their small size, genes encoding peptides are often missed in genome annotations. Secreted peptides are important regulators of plant growth, development, and physiology. Identification of additional peptide signals by sequence homology searches has had limited success due to sequence heterogeneity. A bioinformatics approach was taken to find unannotated Arabidopsis (Arabidopsis thaliana) peptides. Arabidopsis chromosome sequences were searched for all open reading frames (ORFs) encoding peptides and small proteins between 25 and 250 amino acids in length. The translated ORFs were then sequentially queried for the presence of an amino-terminal cleavable signal peptide, the absence of transmembrane domains, and the absence of endoplasmic reticulum lumenal retention sequences. Next, the ORFs were filtered against the The Arabidopsis Information Resource 6.0 annotated Arabidopsis genes to remove those ORFs overlapping known genes. The remaining 33,809 ORFs were placed in a relational database to which additional annotation data were deposited. Genome-wide tiling array data were compared with the coordinates of the ORFs, supporting the possibility that many of the ORFs may be expressed. In addition, clustering and sequence similarity analyses revealed that many of the putative peptides are in gene families and/ or appear to be present in the rice (Oryza sativa) genome. A subset of the ORFs was evaluated by reverse transcription-PCR and, for one-fifth of those, expression was detected. These results support the idea that the number and diversity of plant peptides is broader than currently assumed. The peptides identified and their annotation data may be viewed or downloaded through a searchable Web interface at peptidome.missouri.edu.
p15
sS'pageEnd'
p16
I838
sS'publisherAddress'
p17
V15501 MONONA DRIVE, ROCKVILLE, MD 20855 USA
p18
sS'documentType'
p19
VArticle
p20
sS'subject'
p21
VPlant Sciences
p22
sS'isoSource'
p23
VPlant Physiol.
p24
sS'timesCited'
p25
(lp26
I40
aVZ9 44
p27
asS'PT'
p28
VJ
sS'title'
p29
VThe Arabidopsis Unannotated Secreted Peptide Database, A Resource For Plant Peptidomics
p30
sS'ISSN'
p31
(lp32
V0032-0889
p33
aVJ9 PLANT PHYSIOL
p34
asS'authors_full'
p35
(lp36
(VLEASE
VKEVIN A
tp37
a(VWALKER
VJOHN C
tp38
asS'PG'
p39
I8
sS'PD'
p40
VNOV
p41
sS'pageStart'
p42
I831
sS'issue'
p43
I3
sS'journal'
p44
VPLANT PHYSIOLOGY
p45
sS'volume'
p46
V142
p47
sS'doi'
p48
V10.1104/pp.106.086041
p49
sS'emailAddress'
p50
Vleasek@missouri.edu
p51
sS'authorAddress'
p52
VUniv Missouri, Div Biol Sci, Columbia, MO 65211 USA.
p53
sS'date'
p54
I2006
sS'ER'
p55
V
sS'publisher'
p56
VAMER SOC PLANT BIOLOGISTS
p57
sS'authorKeywords'
p58
(lp59
VCELL-WALL PROTEINS
p60
aVSELF-INCOMPATIBILITY
p61
aVMASS-SPECTROMETRY
p62
aVMESOPHYLL-CELLS
p63
aVFAMILY
p64
aVGENES
p65
aVPREDICTION
p66
aVBRASSICA
p67
aVDIFFERENTIATION
p68
aVPHYTOSULFOKINE
p69
asS'language'
p70
VEnglish
p71
sS'wosid'
p72
VWOS:000241892900004
p73
sS'citationCount'
p74
I38
sS'authors_init'
p75
(lp76
(VLEASE
VK A
tp77
a(VWALKER
VJ C
tp78
asS'citedReferences'
p79
(lp80
g1
(g2
g3
NtRp81
(dp82
g48
V10.1007/s11103-005-2564-9
p83
sg44
VPLANT MOL BIOL
p84
sg46
V60
p85
sg75
(lp86
(VALEXANDROV
VN N
tp87
asg54
I2006
sg42
VLANT
p88
sbag1
(g2
g3
NtRp89
(dp90
g48
V10.1006/jmbi.1990.9999
p91
sg44
VJ MOL BIOL
p92
sg46
V215
p93
sg75
(lp94
(VALTSCHUL
VS F
tp95
asg54
I1990
sg42
V403
p96
sbag1
(g2
g3
NtRp97
(dp98
g48
Nsg44
VGENOME RES
p99
sg46
V7
sg75
(lp100
(VBASRAI
VM A
tp101
asg54
I1997
sg42
V768
p102
sbag1
(g2
g3
NtRp103
(dp104
g48
V10.1016/j.jmb.2004.05.028
p105
sg44
VJ MOL BIOL
p106
sg46
V340
p107
sg75
(lp108
(VBENDTSEN
VJ D
tp109
asg54
I2004
sg42
V783
p110
sbag1
(g2
g3
NtRp111
(dp112
g48
V10.1093/protein/gzh037
p113
sg44
VPROTEIN ENG DES SEL
p114
sg46
V17
p115
sg75
(lp116
(VBENDTSEN
VJ D
tp117
asg54
I2004
sg42
VROTEIN
p118
sbag1
(g2
g3
NtRp119
(dp120
g48
V10.1002/pmic.200400882
p121
sg44
VPROTEOMICS
p122
sg46
V5
sg75
(lp123
(VBOUDART
VG
tp124
asg54
I2005
sg42
VROTEOMICS
p125
sbag1
(g2
g3
NtRp126
(dp127
g48
V10.1105/tpc.014365
p128
sg44
VPLANT CELL
p129
sg46
V15
p130
sg75
(lp131
(VBUTENKO
VM A
tp132
asg54
I2003
sg42
VLANT
p133
sbag1
(g2
g3
NtRp134
(dp135
g48
Nsg44
VPROTEOMICS
p136
sg46
V18
p137
sg75
(lp138
(VCHIVASA
VS
tp139
asg54
I2005
sg42
VROTEOMICS
p140
sbag1
(g2
g3
NtRp141
(dp142
g48
V10.1146/annurev.arplant.53.100301.135154
p143
sg44
VANNU REV PLANT BIOL
p144
sg46
V53
p145
sg75
(lp146
(VCOBBETT
VC
tp147
asg54
I2002
sg42
V159
p148
sbag1
(g2
g3
NtRp149
(dp150
g48
V10.1104/pp.126.3.939
p151
sg44
VPLANT PHYSIOL
p152
sg46
V126
p153
sg75
(lp154
(VCOCK
VJ M
tp155
asg54
I2001
sg42
VLANT
p156
sbag1
(g2
g3
NtRp157
(dp158
g48
V10.1126/science.283.5409.1911
p159
sg44
VScience 
p160
sg46
V283
p161
sg75
(lp162
(VFLETCHER
VJENNIFER C
tp163
asg54
I1999
sg42
V1911
p164
sbag1
(g2
g3
NtRp165
(dp166
g48
V10.1002/(SICI)1097-0282(1998)47:6<479::AID-BIP6>3.0.CO;2-K
p167
sg44
VBIOPOLYMERS
p168
sg46
V47
p169
sg75
(lp170
(VGARCIA-OLMEDO
VF
tp171
asg54
I1998
sg42
V479
p172
sbag1
(g2
g3
NtRp173
(dp174
g48
V10.1073/pnas.0603727103
p175
sg44
VP NATL ACAD SCI USA
p176
sg46
V103
p177
sg75
(lp178
(VHUFFAKER
VA
tp179
asg54
I2006
sg42
V10098
p180
sbag1
(g2
g3
NtRp181
(dp182
g48
V10.1126/science.1128436
p183
sg44
VSCIENCE
p184
sg46
V313
p185
sg75
(lp186
(VITO
VY
tp187
asg54
I2006
sg42
V842
p188
sbag1
(g2
g3
NtRp189
(dp190
g48
V10.1016/j.tplants.2005.11.008
p191
sg44
VTRENDS PLANT SCI
p192
sg46
V11
p193
sg75
(lp194
(VJAMET
VE
tp195
asg54
I2006
sg42
V33
p196
sbag1
(g2
g3
NtRp197
(dp198
g48
V10.1126/science.1128439
p199
sg44
VSCIENCE
p200
sg46
V313
p201
sg75
(lp202
(VKONDO
VT
tp203
asg54
I2006
sg42
V845
p204
sbag1
(g2
g3
NtRp205
(dp206
g48
V10.1006/jmbi.2000.4315
p207
sg44
VJ MOL BIOL
p208
sg46
V305
p209
sg75
(lp210
(VKROGH
VA
tp211
asg54
I2001
sg42
V567
p212
sbag1
(g2
g3
NtRp213
(dp214
g48
V10.1093/pcp/pci089
p215
sg44
VPLANT CELL PHYSIOL
p216
sg46
V46
p217
sg75
(lp218
(VKWON
VH K
tp219
asg54
I2005
sg42
VLANT
p220
sbag1
(g2
g3
NtRp221
(dp222
g48
V10.1104/pp.120.4.1043
p223
sg44
VPLANT PHYSIOL
p224
sg46
V120
p225
sg75
(lp226
(VMATSUBAYASHI
VY
tp227
asg54
I1999
sg42
VLANT
p228
sbag1
(g2
g3
NtRp229
(dp230
g48
V10.1073/pnas.93.15.7623
p231
sg44
VP NATL ACAD SCI USA
p232
sg46
V93
p233
sg75
(lp234
(VMATSUBAYASHI
VY
tp235
asg54
I1996
sg42
V7623
p236
sbag1
(g2
g3
NtRp237
(dp238
g48
V10.1126/science.1549783
p239
sg44
VSCIENCE
p240
sg46
V255
p241
sg75
(lp242
(VMCGURL
VB
tp243
asg54
I1992
sg42
V1570
p244
sbag1
(g2
g3
NtRp245
(dp246
g48
V10.1093/bioinformatics/17.7.646
p247
sg44
VBIOINFORMATICS
p248
sg46
V17
p249
sg75
(lp250
(VMOLLER
VS
tp251
asg54
I2001
sg42
V646
p252
sbag1
(g2
g3
NtRp253
(dp254
g48
V10.1093/nar/gkj077
p255
sg44
VNUCLEIC ACIDS RES
p256
sg46
V34
p257
sg75
(lp258
(VNAKANO
VM
tp259
asg54
I2006
sg42
VD731
p260
sbag1
(g2
g3
NtRp261
(dp262
g48
Nsg44
VIn Silico Biology
p263
sg46
V2
sg75
(lp264
(VOLSEN
VADDIE NINA
tp265
asg54
I2002
sg42
V441
p266
sbag1
(g2
g3
NtRp267
(dp268
g48
V10.1038/35081107
p269
sg44
VNATURE
p270
sg46
V411
p271
sg75
(lp272
(VPEARCE
VG
tp273
asg54
I2001
sg42
V817
p274
sbag1
(g2
g3
NtRp275
(dp276
g48
V10.1073/pnas.201416998
p277
sg44
VP NATL ACAD SCI USA
p278
sg46
V98
p279
sg75
(lp280
(VPEARCE
VG
tp281
asg54
I2001
sg42
V12843
p282
sbag1
(g2
g3
NtRp283
(dp284
g48
V10.1002/(SICI)1522-2683(19991201)20:18<3551::AID-ELPS3551>3.0.CO;2-2
p285
sg44
VELECTROPHORESIS
p286
sg46
V20
p287
sg75
(lp288
(VPERKINS
VD N
tp289
asg54
I1999
sg42
V3551
p290
sbag1
(g2
g3
NtRp291
(dp292
g48
V10.1073/pnas.132266499
p293
sg44
VP NATL ACAD SCI USA
p294
sg46
V99
p295
sg75
(lp296
(VSCHEER
VJ M
tp297
asg54
I2002
sg42
V9585
p298
sbag1
(g2
g3
NtRp299
(dp300
g48
V10.1126/science.286.5445.1697
p301
sg44
VSCIENCE
p302
sg46
V286
p303
sg75
(lp304
(VSCHOPFER
VC R
tp305
asg54
I1999
sg42
V1697
p306
sbag1
(g2
g3
NtRp307
(dp308
g48
V10.1023/A:1022038932376
p309
sg44
VPLANT MOL BIOL
p310
sg46
V51
p311
sg75
(lp312
(VSHARMA
VV K
tp313
asg54
I2003
sg42
VLANT
p314
sbag1
(g2
g3
NtRp315
(dp316
g48
V10.1104/pp.105.075515
p317
sg44
VPLANT PHYSIOL
p318
sg46
V140
p319
sg75
(lp320
(VSTRABALA
VT J
tp321
asg54
I2006
sg42
VLANT
p322
sbag1
(g2
g3
NtRp323
(dp324
g48
V10.1073/pnas.040556397
p325
sg44
VP NATL ACAD SCI USA
p326
sg46
V97
p327
sg75
(lp328
(VTAKAYAMA
VS
tp329
asg54
I2000
sg42
V1920
p330
sbag1
(g2
g3
NtRp331
(dp332
g48
V10.1093/nar/22.22.4673
p333
sg44
VNUCLEIC ACIDS RES
p334
sg46
V22
p335
sg75
(lp336
(VTHOMPSON
VJ D
tp337
asg54
I1994
sg42
V4673
p338
sbag1
(g2
g3
NtRp339
(dp340
g48
V10.1023/A:1010664704926
p341
sg44
VPLANT MOL BIOL
p342
sg46
V46
p343
sg75
(lp344
(VVANOOSTHUYSE
VV
tp345
asg54
I2001
sg42
VLANT
p346
sbag1
(g2
g3
NtRp347
(dp348
g48
V10.1016/j.phytochem.2004.04.026
p349
sg44
VPHYTOCHEMISTRY
p350
sg46
V65
p351
sg75
(lp352
(VWATSON
VB S
tp353
asg54
I2004
sg42
VHYTOCHEMISTRY
p354
sbag1
(g2
g3
NtRp355
(dp356
g48
V10.1111/j.1365-313X.2003.01994.x
p357
sg44
VPLANT J
p358
sg46
V37
p359
sg75
(lp360
(VWEN
VJ Q
tp361
asg54
I2004
sg42
VLANT
p362
sbag1
(g2
g3
NtRp363
(dp364
g48
V10.1126/science.1088305
p365
sg44
VSCIENCE
p366
sg46
V302
p367
sg75
(lp368
(VYAMADA
VK
tp369
asg54
I2003
sg42
V842
p370
sbag1
(g2
g3
NtRp371
(dp372
g48
V10.1073/pnas.0603729103
p373
sg44
VP NATL ACAD SCI USA
p374
sg46
V103
p375
sg75
(lp376
(VYAMAGUCHI
VY
tp377
asg54
I2006
sg42
V10104
p378
sbasb.