ccopy_reg
_reconstructor
p1
(ctethne.classes.paper
Paper
p2
c__builtin__
object
p3
NtRp4
(dp5
S'publisherCity'
p6
VROCKVILLE
p7
sS'reprintAddress'
p8
VPollard, M (reprint author), Michigan State Univ, Dept Plant Biol, E Lansing, MI 48824 USA.
p9
sS'WC'
p10
VPlant Sciences
p11
sS'GA'
p12
V439XT
p13
sS'FX'
p14
(lp15
VThis work was supported by the U. S. Department of Energy (grant no.
p16
aVDE-FG02-87ER13729), by the Department of Energy Great Lakes Bioenergy
p17
aVResearch Center (www.greatlakesbioenergy.org) supported through the U.
p18
aVS. Department of Energy Office of Science, Office of Biological and
p19
aVEnvironmental Research, Cooperative Agreement DE-FC02-07ER64494, and by
p20
aVthe National Research Initiative of the U. S. Department of Agriculture
p21
aVCooperative State Research, Education, and Extension Service (grant no.
p22
aV2005-3550416195).
p23
asS'abstract'
p24
VThe reactions leading to triacylglycerol (TAG) synthesis in oilseeds have been well characterized. However, quantitative analyses of acyl group and glycerol backbone fluxes that comprise extraplastidic phospholipid and TAG synthesis, including acyl editing and phosphatidylcholine-diacylglycerol interconversion, are lacking. To investigate these fluxes, we rapidly labeled developing soybean (Glycine max) embryos with [(14)C] acetate and [(14)C] glycerol. Cultured intact embryos that mimic in planta growth were used. The initial kinetics of newly synthesized acyl chain and glycerol backbone incorporation into phosphatidylcholine (PC), 1,2-sn-diacylglycerol (DAG), and TAG were analyzed along with their initial labeled molecular species and positional distributions. Almost 60% of the newly synthesized fatty acids first enter glycerolipids through PC acyl editing, largely at the sn-2 position. This flux, mostly of oleate, was over three times the flux of nascent [(14)C] fatty acids incorporated into the sn-1 and sn-2 positions of DAG through glycerol-3-phosphate acylation. Furthermore, the total flux for PC acyl editing, which includes both nascent and preexisting fatty acids, was estimated to be 1.5 to 5 times the flux of fatty acid synthesis. Thus, recycled acyl groups (16:0, 18:1, 18:2, and 18:3) in the acyl-coenzyme A pool provide most of the acyl chains for de novo glycerol-3-phosphate acylation. Our results also show kinetically distinct DAG pools. DAG used for TAG synthesis is mostly derived from PC, whereas de novo synthesized DAG is mostly used for PC synthesis. In addition, two kinetically distinct sn-3 acylations of DAG were observed, providing TAG molecular species enriched in saturated or polyunsaturated fatty acids.
p25
sS'pageEnd'
p26
I72
sS'date'
p27
I2009
sS'documentType'
p28
VArticle
p29
sS'subject'
p30
VPlant Sciences
p31
sS'isoSource'
p32
VPlant Physiol.
p33
sS'timesCited'
p34
(lp35
I67
aVZ9 69
p36
asS'funding'
p37
(lp38
(VU. S. Department of Energy
VDE-FG02-87ER13729
tp39
a(VDepartment of Energy Great Lakes Bioenergy Research Center
Ntp40
a(VU. S. Department of Energy Office of Science, Office of Biological and Environmental Research
VDE-FC02-07ER64494
tp41
a(VNational Research Initiative of the U. S. Department of Agriculture Cooperative State Research, Education, and Extension Service
V2005-3550416195
tp42
asS'PT'
p43
VJ
sS'title'
p44
VAnalysis Of Acyl Fluxes Through Multiple Pathways Of Triacylglycerol Synthesis In Developing Soybean Embryos
p45
sS'ISSN'
p46
(lp47
V0032-0889
p48
aVJ9 PLANT PHYSIOL
p49
asS'authors_full'
p50
(lp51
(VBATES
VPHILIP D
tp52
a(VDURRETT
VTIMOTHY P
tp53
a(VOHLROGGE
VJOHN B
tp54
a(VPOLLARD
VMIKE
tp55
asS'PG'
p56
I18
sS'PD'
p57
VMAY
p58
sS'pageStart'
p59
I55
sS'issue'
p60
I1
sS'RI'
p61
VBates, Philip/I-7550-2013
p62
sS'journal'
p63
VPLANT PHYSIOLOGY
p64
sS'volume'
p65
V150
p66
sS'doi'
p67
V10.1104/pp.109.137737
p68
sS'emailAddress'
p69
Vpollard9@msu.edu
p70
sS'authorAddress'
p71
(lp72
V[Durrett, Timothy P.; Ohlrogge, John B.; Pollard, Mike] Michigan State Univ, Dept Plant Biol, E Lansing, MI 48824 USA.
p73
aV[Bates, Philip D.] Michigan State Univ, Dept Biochem & Mol Biol, E Lansing, MI 48824 USA.
p74
asS'publisherAddress'
p75
V15501 MONONA DRIVE, ROCKVILLE, MD 20855 USA
p76
sS'ER'
p77
V
sS'publisher'
p78
VAMER SOC PLANT BIOLOGISTS
p79
sS'authorKeywords'
p80
(lp81
VSAFFLOWER CARTHAMUS-TINCTORIUS
p82
aVCOA-BINDING PROTEIN
p83
aVDIACYLGLYCEROL ACYLTRANSFERASE ACTIVITY
p84
aVARABIDOPSIS-THALIANA
p85
aVFATTY-ACIDS
p86
aVMICROSOMAL PREPARATIONS
p87
aVLIPID-METABOLISM
p88
aVLYSOPHOSPHATIDYLCHOLINE ACYLTRANSFERASE
p89
aVFUNCTIONAL EXPRESSION
p90
aVSEED MICROSOMES
p91
asS'OI'
p92
VBates, Philip/0000-0002-1291-3363
p93
sS'language'
p94
VEnglish
p95
sS'wosid'
p96
VWOS:000265661700006
p97
sS'citationCount'
p98
I63
sS'authors_init'
p99
(lp100
(VBATES
VP D
tp101
a(VDURRETT
VT P
tp102
a(VOHLROGGE
VJ B
tp103
a(VPOLLARD
VM
tp104
asS'citedReferences'
p105
(lp106
g1
(g2
g3
NtRp107
(dp108
g67
V10.1111/j.1365-313X.2008.03771.x
p109
sg63
VPLANT J
p110
sg65
V58
p111
sg99
(lp112
(VALLEN
VD K
tp113
asg27
I2009
sg59
VLANT
p114
sbag1
(g2
g3
NtRp115
(dp116
g67
V10.1016/j.phytochem.2007.04.010
p117
sg63
VPHYTOCHEMISTRY
p118
sg65
V68
p119
sg99
(lp120
(VALLEN
VD K
tp121
asg27
I2007
sg59
VHYTOCHEMISTRY
p122
sbag1
(g2
g3
NtRp123
(dp124
g67
V10.1104/pp.72.3.735
p125
sg63
VPLANT PHYSIOL
p126
sg65
V72
p127
sg99
(lp128
(VANDREWS
VJ
tp129
asg27
I1983
sg59
VLANT
p130
sbag1
(g2
g3
NtRp131
(dp132
g67
Nsg63
VBIOCHEM J
p133
sg65
V280
p134
sg99
(lp135
(VBAFOR
VM
tp136
asg27
I1991
sg59
V507
p137
sbag1
(g2
g3
NtRp138
(dp139
g67
V10.1074/jbc.M705447200
p140
sg63
VJ BIOL CHEM
p141
sg65
V282
p142
sg99
(lp143
(VBATES
VP D
tp144
asg27
I2007
sg59
V31206
p145
sbag1
(g2
g3
NtRp146
(dp147
g67
V10.1104/pp.103.022988
p148
sg63
VPLANT PHYSIOL
p149
sg65
V132
p150
sg99
(lp151
(VBEISSON
VF
tp152
asg27
I2003
sg59
VLANT
p153
sbag1
(g2
g3
NtRp154
(dp155
g67
V10.1016/0014-5793(83)80647-4
p156
sg63
VFEBS LETT
p157
sg65
V153
p158
sg99
(lp159
(VBLOCK
VM A
tp160
asg27
I1983
sg59
V377
p161
sbag1
(g2
g3
NtRp162
(dp163
g67
V10.1104/pp.104.043372
p164
sg63
VPLANT PHYSIOL
p165
sg65
V135
p166
sg99
(lp167
(VBONAVENTURE
VG
tp168
asg27
I2004
sg59
VLANT
p169
sbag1
(g2
g3
NtRp170
(dp171
g67
Nsg63
VJ LIPID RES
p172
sg65
V7
sg99
(lp173
(VBROCKERHH
S''
tp174
asg27
I1966
sg59
V62
p175
sbag1
(g2
g3
NtRp176
(dp177
g67
V10.1146/annurev.arplant.42.1.467
p178
sg63
VANNU REV PLANT PHYS
p179
sg65
V42
p180
sg99
(lp181
(VBROWSE
VJ
tp182
asg27
I1991
sg59
V467
p183
sbag1
(g2
g3
NtRp184
(dp185
g67
V10.1042/BJ20050664
p186
sg63
VBIOCHEM J
p187
sg65
V392
p188
sg99
(lp189
(VBURTON
VM
tp190
asg27
I2005
sg59
V299
p191
sbag1
(g2
g3
NtRp192
(dp193
g67
Nsg63
VLIPID ANAL ISOLATION
p194
sg65
Nsg99
(lp195
(VCHRISTIE
VW W
tp196
asg27
I2003
sg59
Nsbag1
(g2
g3
NtRp197
(dp198
g67
V10.1073/pnas.120067297
p199
sg63
VP NATL ACAD SCI USA
p200
sg65
V97
p201
sg99
(lp202
(VDAHLQVIST
VA
tp203
asg27
I2000
sg59
V6487
p204
sbag1
(g2
g3
NtRp205
(dp206
g67
V10.1016/S0031-9422(00)94816-7
p207
sg63
VPHYTOCHEMISTRY
p208
sg65
V35
p209
sg99
(lp210
(VDEMANDRE
VC
tp211
asg27
I1994
sg59
VHYTOCHEMISTRY
p212
sbag1
(g2
g3
NtRp213
(dp214
g67
V10.1016/S0065-2113(04)83005-0
p215
sg63
VADV AGRON
p216
sg65
V83
p217
sg99
(lp218
(VEGLI
VD B
tp219
asg27
I2004
sg59
V243
p220
sbag1
(g2
g3
NtRp221
(dp222
g67
V10.1006/abbi.1996.0282
p223
sg63
VARCH BIOCHEM BIOPHYS
p224
sg65
V331
p225
sg99
(lp226
(VENGESETH
VN J
tp227
asg27
I1996
sg59
V55
p228
sbag1
(g2
g3
NtRp229
(dp230
g67
V10.1007/BF00401017
p231
sg63
VPLANTA
p232
sg65
V173
p233
sg99
(lp234
(VGRIFFITHS
VG
tp235
asg27
I1988
sg59
VLANTA
p236
sbag1
(g2
g3
NtRp237
(dp238
g67
Nsg63
VPHYTOCHEMISTRY
p239
sg65
V27
p240
sg99
(lp241
(VGRIFFITHS
VG
tp242
asg27
I1988
sg59
VHYTOCHEMISTRY
p243
sbag1
(g2
g3
NtRp244
(dp245
g67
V10.1006/abio.2001.5178
p246
sg63
VANAL BIOCHEM
p247
sg65
V295
p248
sg99
(lp249
(VHAN
VX L
tp250
asg27
I2001
sg59
V88
p251
sbag1
(g2
g3
NtRp252
(dp253
g67
V10.1016/0003-2697(78)90046-5
p254
sg63
VANAL BIOCHEM
p255
sg65
V90
p256
sg99
(lp257
(VHARA
VA
tp258
asg27
I1978
sg59
V420
p259
sbag1
(g2
g3
NtRp260
(dp261
g67
V10.1016/0005-2760(95)00242-1
p262
sg63
VBBA
p263
sg65
V1301
p264
sg99
(lp265
(VHARWOOD
VJ L
tp266
asg27
I1996
sg59
V7
sbag1
(g2
g3
NtRp267
(dp268
g67
V10.1016/S0014-5793(99)00646-8
p269
sg63
VFEBS LETT
p270
sg65
V452
p271
sg99
(lp272
(VHOBBS
VD H
tp273
asg27
I1999
sg59
V145
p274
sbag1
(g2
g3
NtRp275
(dp276
g67
V10.1007/BF02522648
p277
sg63
VLIPIDS
p278
sg65
V31
p279
sg99
(lp280
(VICHIHARA
VK
tp281
asg27
I1996
sg59
V535
p282
sbag1
(g2
g3
NtRp283
(dp284
g67
Nsg63
VPLANTA
p285
sg65
V196
p286
sg99
(lp287
(VICHIHARA
VK
tp288
asg27
I1995
sg59
VLANTA
p289
sbag1
(g2
g3
NtRp290
(dp291
g67
V10.1104/pp.108.1.399
p292
sg63
VPLANT PHYSIOL
p293
sg65
V108
p294
sg99
(lp295
(VKATAVIC
VV
tp296
asg27
I1995
sg59
VLANT
p297
sbag1
(g2
g3
NtRp298
(dp299
g67
V10.1016/j.plantsci.2006.07.009
p300
sg63
VPLANT SCI
p301
sg65
V172
p302
sg99
(lp303
(VKOJIMA
VM
tp304
asg27
I2007
sg59
VLANT
p305
sbag1
(g2
g3
NtRp306
(dp307
g67
V10.1074/jbc.M311305200
p308
sg63
VJ BIOL CHEM
p309
sg65
V279
p310
sg99
(lp311
(VKOO
VA J K
tp312
asg27
I2004
sg59
V16101
p313
sbag1
(g2
g3
NtRp314
(dp315
g67
V10.1016/j.phytochem.2006.09.020
p316
sg63
VPHYTOCHEMISTRY
p317
sg65
V67
p318
sg99
(lp319
(VKROON
VJ T M
tp320
asg27
I2006
sg59
VHYTOCHEMISTRY
p321
sbag1
(g2
g3
NtRp322
(dp323
g67
V10.1111/j.1600-0854.2007.00689.x
p324
sg63
VTRAFFIC
p325
sg65
V9
sg99
(lp326
(VKUERSCHNER
VL
tp327
asg27
I2008
sg59
V338
p328
sbag1
(g2
g3
NtRp329
(dp330
g67
V10.1146/annurev.bi.34.070165.001525
p331
sg63
VANNU REV BIOCHEM
p332
sg65
V34
p333
sg99
(lp334
(VLANDS
VW E M
tp335
asg27
I1965
sg59
V313
p336
sbag1
(g2
g3
NtRp337
(dp338
g67
V10.1074/jbc.M106168200
p339
sg63
VJ BIOL CHEM
p340
sg65
V276
p341
sg99
(lp342
(VLARDIZABAL
VK D
tp343
asg27
I2001
sg59
V38862
p344
sbag1
(g2
g3
NtRp345
(dp346
g67
V10.1007/s11103-004-0642-z
p347
sg63
VPLANT MOL BIOL
p348
sg65
V55
p349
sg99
(lp350
(VLEUNG
VK C
tp351
asg27
I2004
sg59
VLANT
p352
sbag1
(g2
g3
NtRp353
(dp354
g67
V10.1023/A:1022330304402
p355
sg63
VPLANT MOL BIOL
p356
sg65
V51
p357
sg99
(lp358
(VLI
VH Y
tp359
asg27
I2003
sg59
VLANT
p360
sbag1
(g2
g3
NtRp361
(dp362
g67
V10.1146/annurev.arplant.58.032806.103811
p363
sg63
VANNU REV PLANT BIOL
p364
sg65
V58
p365
sg99
(lp366
(VNAPIER
VJ A
tp367
asg27
I2007
sg59
V295
p368
sbag1
(g2
g3
NtRp369
(dp370
g67
V10.1105/tpc.7.7.957
p371
sg63
VPLANT CELL
p372
sg65
V7
sg99
(lp373
(VOHLROGGE
VJ
tp374
asg27
I1995
sg59
VLANT
p375
sbag1
(g2
g3
NtRp376
(dp377
g67
V10.1073/pnas.76.3.1194
p378
sg63
VP NATL ACAD SCI USA
p379
sg65
V76
p380
sg99
(lp381
(VOHLROGGE
VJ B
tp382
asg27
I1979
sg59
V1194
p383
sbag1
(g2
g3
NtRp384
(dp385
g67
V10.1104/pp.121.4.1217
p386
sg63
VPLANT PHYSIOL
p387
sg65
V121
p388
sg99
(lp389
(VPOLLARD
VM
tp390
asg27
I1999
sg59
VLANT
p391
sbag1
(g2
g3
NtRp392
(dp393
g67
V10.1006/abbi.1994.1253
p394
sg63
VARCH BIOCHEM BIOPHYS
p395
sg65
V311
p396
sg99
(lp397
(VRAJASEKHARAN
VR
tp398
asg27
I1994
sg59
V389
p399
sbag1
(g2
g3
NtRp400
(dp401
g67
V10.1016/0003-9861(84)90541-1
p402
sg63
VARCH BIOCHEM BIOPHYS
p403
sg65
V232
p404
sg99
(lp405
(VROCHESTER
VC P
tp406
asg27
I1984
sg59
V249
p407
sbag1
(g2
g3
NtRp408
(dp409
g67
V10.1007/BF02531468
p410
sg63
VLIPIDS
p411
sg65
V5
sg99
(lp412
(VROEHM
VJ N
tp413
asg27
I1970
sg59
V353
p414
sbag1
(g2
g3
NtRp415
(dp416
g67
V10.1007/BF02533620
p417
sg63
VLIPIDS
p418
sg65
V13
p419
sg99
(lp420
(VROUGHAN
VP G
tp421
asg27
I1978
sg59
V497
p422
sbag1
(g2
g3
NtRp423
(dp424
g67
V10.1146/annurev.pp.33.060182.000525
p425
sg63
VANNU REV PLANT PHYS
p426
sg65
V33
p427
sg99
(lp428
(VROUGHAN
VP G
tp429
asg27
I1982
sg59
V97
p430
sbag1
(g2
g3
NtRp431
(dp432
g67
V10.1104/pp.106.082198
p433
sg63
VPLANT PHYSIOL
p434
sg65
V141
p435
sg99
(lp436
(VSAHA
VS
tp437
asg27
I2006
sg59
VLANT
p438
sbag1
(g2
g3
NtRp439
(dp440
g67
V10.1074/jbc.M606266200
p441
sg63
VJ BIOL CHEM
p442
sg65
V281
p443
sg99
(lp444
(VSCHWENDER
VJ
tp445
asg27
I2006
sg59
V34040
p446
sbag1
(g2
g3
NtRp447
(dp448
g67
V10.1074/jbc.R800046200
p449
sg63
VJ BIOL CHEM
p450
sg65
V284
p451
sg99
(lp452
(VSHINDOU
VH
tp453
asg27
I2009
sg59
V1
sbag1
(g2
g3
NtRp454
(dp455
g67
V10.1105/tpc.106.043695
p456
sg63
VPLANT CELL
p457
sg65
V18
p458
sg99
(lp459
(VSHOCKEY
VJ M
tp460
asg27
I2006
sg59
VLANT
p461
sbag1
(g2
g3
NtRp462
(dp463
g67
V10.1016/0005-2760(85)90101-8
p464
sg63
VBIOCHIM BIOPHYS ACTA
p465
sg65
V833
p466
sg99
(lp467
(VSLACK
VC R
tp468
asg27
I1985
sg59
V438
p469
sbag1
(g2
g3
NtRp470
(dp471
g67
Nsg63
VBIOCHEM J
p472
sg65
V170
p473
sg99
(lp474
(VSLACK
VC R
tp475
asg27
I1978
sg59
V421
p476
sbag1
(g2
g3
NtRp477
(dp478
g67
V10.1016/0005-2760(83)90076-0
p479
sg63
VBIOCHIM BIOPHYS ACTA
p480
sg65
V754
p481
sg99
(lp482
(VSLACK
VC R
tp483
asg27
I1983
sg59
V10
p484
sbag1
(g2
g3
NtRp485
(dp486
g67
Nsg63
VBIOCHEM J
p487
sg65
V190
p488
sg99
(lp489
(VSLACK
VC R
tp490
asg27
I1980
sg59
V551
p491
sbag1
(g2
g3
NtRp492
(dp493
g67
Nsg63
VBIOCHEM J
p494
sg65
V162
p495
sg99
(lp496
(VSLACK
VC R
tp497
asg27
I1977
sg59
V289
p498
sbag1
(g2
g3
NtRp499
(dp500
g67
Nsg63
VJ BIOL CHEM
p501
sg65
V268
p502
sg99
(lp503
(VSPERLING
VP
tp504
asg27
I1993
sg59
V26935
p505
sbag1
(g2
g3
NtRp506
(dp507
g67
Nsg63
VEUR J BIOCHEM
p508
sg65
V213
p509
sg99
(lp510
(VSPERLING
VP
tp511
asg27
I1993
sg59
V965
p512
sbag1
(g2
g3
NtRp513
(dp514
g67
V10.1046/j.1365-313X.1997.11061151.x
p515
sg63
VPLANT J
p516
sg65
V11
p517
sg99
(lp518
(VSTAEHELIN
VL A
tp519
asg27
I1997
sg59
VLANT
p520
sbag1
(g2
g3
NtRp521
(dp522
g67
V10.1104/pp.104.044354
p523
sg63
VPLANT PHYSIOL
p524
sg65
V135
p525
sg99
(lp526
(VSTAHL
VU
tp527
asg27
I2004
sg59
VLANT
p528
sbag1
(g2
g3
NtRp529
(dp530
g67
V10.1007/s004250050165
p531
sg63
VPLANTA
p532
sg65
V203
p533
sg99
(lp534
(VSTOBART
VK
tp535
asg27
I1997
sg59
VLANTA
p536
sbag1
(g2
g3
NtRp537
(dp538
g67
Nsg63
VBiochemistry of Plants
p539
sg65
V9
sg99
(lp540
(VSTYMNE
VS
tp541
asg27
I1987
sg59
V175
p542
sbag1
(g2
g3
NtRp543
(dp544
g67
Nsg63
VBIOCHEM J
p545
sg65
V223
p546
sg99
(lp547
(VSTYMNE
VS
tp548
asg27
I1984
sg59
V305
p549
sbag1
(g2
g3
NtRp550
(dp551
g67
V10.1016/S0031-9422(99)00064-3
p552
sg63
VPHYTOCHEMISTRY
p553
sg65
V52
p554
sg99
(lp555
(VTRIKI
VS
tp556
asg27
I1999
sg59
VHYTOCHEMISTRY
p557
sbag1
(g2
g3
NtRp558
(dp559
g67
Nsg63
VPLANT PHYSIOL
p560
sg65
V110
p561
sg99
(lp562
(VVOGEL
VG
tp563
asg27
I1996
sg59
VLANT
p564
sbag1
(g2
g3
NtRp565
(dp566
g67
V10.1016/S0163-7827(01)00027-3
p567
sg63
VPROG LIPID RES
p568
sg65
V41
p569
sg99
(lp570
(VWALLIS
VJ G
tp571
asg27
I2002
sg59
VROG
p572
sbag1
(g2
g3
NtRp573
(dp574
g67
V10.1016/j.pbi.2004.03.012
p575
sg63
VCURR OPIN PLANT BIOL
p576
sg65
V7
sg99
(lp577
(VWANG
VX M
tp578
asg27
I2004
sg59
V329
p579
sbag1
(g2
g3
NtRp580
(dp581
g67
V10.1046/j.1365-313x.1999.00555.x
p582
sg63
VPLANT J
p583
sg65
V19
p584
sg99
(lp585
(VZOU
VJ T
tp586
asg27
I1999
sg59
VLANT
p587
sbasb.