ccopy_reg
_reconstructor
p1
(ctethne.classes.paper
Paper
p2
c__builtin__
object
p3
NtRp4
(dp5
S'publisherCity'
p6
VROCKVILLE
p7
sS'reprintAddress'
p8
VRonald, P (reprint author), USDA ARS, Appalachian Fruit Res Stn, 45 Wiltshire Rd, Kearneysville, WV 25430 USA.
p9
sS'WC'
p10
VPlant Sciences
p11
sS'GA'
p12
V133SB
p13
sS'abstract'
p14
VThe rice (Oryza sativa) genome contains 1,429 protein kinases, the vast majority of which have unknown functions. We created a phylogenomic database (http://rkd.ucdavis.edu) to facilitate functional analysis of this large gene family. Sequence and genomic data, including gene expression data and protein-protein interaction maps, can be displayed for each selected kinase in the context of a phylogenetic tree allowing for comparative analysis both within and between large kinase subfamilies. Interaction maps are easily accessed through links and displayed using Cytoscape, an open source software platform. Chromosomal distribution of all rice kinases can also be explored via an interactive interface.
p15
sS'pageEnd'
p16
I586
sS'publisherAddress'
p17
V15501 MONONA DRIVE, ROCKVILLE, MD 20855 USA
p18
sS'documentType'
p19
VArticle
p20
sS'subject'
p21
VPlant Sciences
p22
sS'isoSource'
p23
VPlant Physiol.
p24
sS'timesCited'
p25
(lp26
I47
aVZ9 50
p27
asS'PT'
p28
VJ
sS'title'
p29
VThe Rice Kinase Database. A Phylogenomic Database For The Rice Kinome
p30
sS'ISSN'
p31
(lp32
V0032-0889
p33
aVJ9 PLANT PHYSIOL
p34
asS'authors_full'
p35
(lp36
(VDARDICK
VCHRISTOPHER
tp37
a(VCHEN
VJOHANN
tp38
a(VRICHTER
VTODD
tp39
a(VOUYANG
VSHU
tp40
a(VRONALD
VPAMELA
tp41
asS'PG'
p42
I8
sS'PD'
p43
VFEB
p44
sS'pageStart'
p45
I579
sS'issue'
p46
I2
sS'journal'
p47
VPLANT PHYSIOLOGY
p48
sS'volume'
p49
V143
p50
sS'doi'
p51
V10.1104/pp.106.087270
p52
sS'emailAddress'
p53
Vpcronald@ucdavis.edu
p54
sS'authorAddress'
p55
(lp56
VUSDA ARS, Appalachian Fruit Res Stn, Kearneysville, WV 25430 USA.
p57
aVUniv Calif Davis, Dept Plant Pathol, Davis, CA 95616 USA.
p58
aVInst Gen Res, Rockville, MD 20853 USA.
p59
asS'date'
p60
I2007
sS'ER'
p61
V
sS'publisher'
p62
VAMER SOC PLANT BIOLOGISTS
p63
sS'authorKeywords'
p64
(lp65
VDISEASE RESISTANCE GENE
p66
aVRECEPTOR-LIKE KINASES
p67
aVPROTEIN-KINASES
p68
aVARABIDOPSIS
p69
aVENCODES
p70
aVFAMILY
p71
aVINSERTION
p72
aVGENOMICS
p73
aVTOMATO
p74
aVSITE
p75
asS'language'
p76
VEnglish
p77
sS'wosid'
p78
VWOS:000244032400004
p79
sS'citationCount'
p80
I25
sS'authors_init'
p81
(lp82
(VDARDICK
VC
tp83
a(VCHEN
VJ
tp84
a(VRICHTER
VT
tp85
a(VOUYANG
VS
tp86
a(VRONALD
VP
tp87
asS'citedReferences'
p88
(lp89
g1
(g2
g3
NtRp90
(dp91
g51
V10.1111/j.1365-313X.2006.02739.x
p92
sg47
VPLANT J
p93
sg49
V46
p94
sg81
(lp95
(VCHEN
VX W
tp96
asg60
I2006
sg45
VLANT
p97
sbag1
(g2
g3
NtRp98
(dp99
g51
V10.1094/MPMI-18.0511
p100
sg47
VMOL PLANT MICROBE IN
p101
sg49
V18
p102
sg81
(lp103
(VCHERN
VM
tp104
asg60
I2005
sg45
V511
p105
sbag1
(g2
g3
NtRp106
(dp107
g51
V10.1371/journal.ppat.0020002
p108
sg47
VPLOS PATHOG
p109
sg49
V2
sg81
(lp110
(VDARDICK
VC
tp111
asg60
I2006
sg45
VLOS
p112
sbag1
(g2
g3
NtRp113
(dp114
g51
Nsg47
VJ BIOL CHEM
p115
sg49
V270
p116
sg81
(lp117
(VGIETZ
VR D
tp118
asg60
I1995
sg45
V13017
p119
sbag1
(g2
g3
NtRp120
(dp121
g51
V10.1126/science.1081288
p122
sg47
VSCIENCE
p123
sg49
V301
p124
sg81
(lp125
(VKIKUCHI
VS
tp126
asg60
I2003
sg45
V376
p127
sbag1
(g2
g3
NtRp128
(dp129
g51
V10.1093/bioinformatics/18.2.335
p130
sg47
VBIOINFORMATICS
p131
sg49
V18
p132
sg81
(lp133
(VKOZIK
VA
tp134
asg60
I2002
sg45
V335
p135
sbag1
(g2
g3
NtRp136
(dp137
g51
Nsg47
VNUCLEIC ACIDS RES
p138
sg49
V32
p139
sg81
(lp140
(VKRUPA
VA
tp141
asg60
I2004
sg45
V153
p142
sbag1
(g2
g3
NtRp143
(dp144
g51
V10.1126/science.1075762
p145
sg47
VSCIENCE
p146
sg49
V298
p147
sg81
(lp148
(VMANNING
VG
tp149
asg60
I2002
sg45
V1912
p150
sbag1
(g2
g3
NtRp151
(dp152
g51
V10.1046/j.1365-313X.2002.01404.x
p153
sg47
VPLANT J
p154
sg49
V32
p155
sg81
(lp156
(VMEYERS
VB C
tp157
asg60
I2002
sg45
VLANT
p158
sbag1
(g2
g3
NtRp159
(dp160
g51
V10.1016/0092-8674(94)90282-8
p161
sg47
VCELL
p162
sg49
V78
p163
sg81
(lp164
(VMINDRINOS
VM
tp165
asg60
I1994
sg45
V1089
p166
sbag1
(g2
g3
NtRp167
(dp168
g51
V10.1105/tpc.012559
p169
sg47
VPLANT CELL
p170
sg49
V15
p171
sg81
(lp172
(VMIYAO
VA
tp173
asg60
I2003
sg45
VLANT
p174
sbag1
(g2
g3
NtRp175
(dp176
g51
V10.1093/nar/gkj077
p177
sg47
VNUCLEIC ACIDS RES
p178
sg49
V34
p179
sg81
(lp180
(VNAKANO
VM
tp181
asg60
I2006
sg45
VD731
p182
sbag1
(g2
g3
NtRp183
(dp184
g51
V10.1016/j.tplants.2006.09.005
p185
sg47
VTRENDS PLANT SCI
p186
sg49
V11
p187
sg81
(lp188
(VNURNBERGER
VT
tp189
asg60
I2006
sg45
V519
p190
sbag1
(g2
g3
NtRp191
(dp192
g51
V10.1073/pnas.95.17.10300
p193
sg47
VP NATL ACAD SCI USA
p194
sg49
V95
p195
sg81
(lp196
(VOLDROYD
VG E D
tp197
asg60
I1998
sg45
V10300
p198
sbag1
(g2
g3
NtRp199
(dp200
g51
V10.1111/j.1365-313X.2006.02671.x
p201
sg47
VPLANT J
p202
sg49
V46
p203
sg81
(lp204
(VROHILA
VJ S
tp205
asg60
I2006
sg45
VLANT
p206
sbag1
(g2
g3
NtRp207
(dp208
g51
V10.1111/j.1365-313X.2004.02145.x
p209
sg47
VPLANT J
p210
sg49
V39
p211
sg81
(lp212
(VSALLAUD
VC
tp213
asg60
I2004
sg45
VLANT
p214
sbag1
(g2
g3
NtRp215
(dp216
g51
V10.1101/gr.1239303
p217
sg47
VGENOME RES
p218
sg49
V13
p219
sg81
(lp220
(VSHANNON
VP
tp221
asg60
I2003
sg45
V2498
p222
sbag1
(g2
g3
NtRp223
(dp224
g51
V10.1105/tpc.020834
p225
sg47
VPLANT CELL
p226
sg49
V16
p227
sg81
(lp228
(VSHIU
VS H
tp229
asg60
I2004
sg45
VLANT
p230
sbag1
(g2
g3
NtRp231
(dp232
g51
V10.1073/pnas.181141598
p233
sg47
VP NATL ACAD SCI USA
p234
sg49
V98
p235
sg81
(lp236
(VSHIU
VS H
tp237
asg60
I2001
sg45
V10763
p238
sbag1
(g2
g3
NtRp239
(dp240
g51
V10.1242/dev.01028
p241
sg47
VDEVELOPMENT
p242
sg49
V131
p243
sg81
(lp244
(VSHPAK
VE D
tp245
asg60
I2004
sg45
V1491
p246
sbag1
(g2
g3
NtRp247
(dp248
g51
V10.1126/science.270.5243.1804
p249
sg47
VSCIENCE
p250
sg49
V270
p251
sg81
(lp252
(VSONG
VW Y
tp253
asg60
I1995
sg45
V1804
p254
sbag1
(g2
g3
NtRp255
(dp256
g51
V10.1046/j.1365-313X.2003.01976.x
p257
sg47
VPLANT J
p258
sg49
V37
p259
sg81
(lp260
(VSUN
VX L
tp261
asg60
I2004
sg45
VLANT
p262
sbag1
(g2
g3
NtRp263
(dp264
g51
V10.1242/dev.01441
p265
sg47
VDEVELOPMENT
p266
sg49
V131
p267
sg81
(lp268
(VSUZAKI
VT
tp269
asg60
I2004
sg45
V5649
p270
sbag1
(g2
g3
NtRp271
(dp272
g51
V10.1093/nar/gkg023
p273
sg47
VNUCLEIC ACIDS RES
p274
sg49
V31
p275
sg81
(lp276
(VTCHIEU
VJ H
tp277
asg60
I2003
sg45
V342
p278
sbag1
(g2
g3
NtRp279
(dp280
g51
V10.1016/0092-8674(95)90208-2
p281
sg47
VCELL
p282
sg49
V83
p283
sg81
(lp284
(VZHOU
VJ M
tp285
asg60
I1995
sg45
V925
p286
sbasb.