ccopy_reg
_reconstructor
p1
(ctethne.classes.paper
Paper
p2
c__builtin__
object
p3
NtRp4
(dp5
S'publisherCity'
p6
VROCKVILLE
p7
sS'reprintAddress'
p8
VHuner, NPA (reprint author), Univ Western Ontario, Dept Biol & Biotron, London, ON N6A 5B7, Canada.
p9
sS'WC'
p10
VPlant Sciences
p11
sS'GA'
p12
V093IL
p13
sS'abstract'
p14
VIMMUTANS (IM) encodes a thylakoid membrane protein that has been hypothesized to act as a terminal oxidase that couples the reduction of O-2 to the oxidation of the plastoquinone (PQ) pool of the photosynthetic electron transport chain. Because IM shares sequence similarity to the stress-induced mitochondrial alternative oxidase (AOX), it has been suggested that the protein encoded by IM acts as a safety valve during the generation of excess photosynthetically generated electrons. We combined in vivo chlorophyll fluorescence quenching analyses with measurements of the redox state of P 700 to assess the capacity of IM to compete with photosystem I for intersystem electrons during steady-state photosynthesis in Arabidopsis (Arabidopsis thaliana). Comparisons were made between wild-type plants, im mutant plants, as well as transgenics in which IM protein levels had been overexpressed six (OE-6x) and 16 (OE-16x) times. Immunoblots indicated that IM abundance was the only major variant that we could detect between these genotypes. Overexpression of IM did not result in increased capacity to keep the PQ pool oxidized compared to either the wild type or im grown under control conditions (25 degrees C and photosynthetic photon flux density of 150 mu mol photons m(-2) s(-1)). Similar results were observed either after 3-d cold stress at 5 degrees C or after full-leaf expansion at 5 degrees C and photosynthetic photon flux density of 150 mu mol photons m(-2) s(-1). Furthermore, IMabundance did not enhance protection of either photosystem II or photosystem I from photoinhibition at either 25 degrees C or 5 degrees C. Our in vivo data indicate that modulation of IM expression and polypeptide accumulation does not alter the flux of intersystem electrons to P 700 1 during steady-state photosynthesis and does not provide any significant photoprotection. In contrast to AOX1a, meta-analyses of published Arabidopsis microarray data indicated that IM expression exhibited minimal modulation in response to myriad abiotic stresses, which is consistent with our functional data. However, IM exhibited significant modulation in response to development in concert with changes in AOX1a expression. Thus, neither our functional analyses of the IM knockout and overexpression lines nor meta-analyses of gene expression support the model that IM acts as a safety valve to regulate the redox state of the PQ pool during stress and acclimation. Rather, IM appears to be strongly regulated by developmental stage of Arabidopsis.
p15
sS'pageEnd'
p16
I585
sS'date'
p17
I2006
sS'documentType'
p18
VArticle
p19
sS'subject'
p20
VPlant Sciences
p21
sS'isoSource'
p22
VPlant Physiol.
p23
sS'timesCited'
p24
(lp25
I48
aVZ9 50
p26
asS'PT'
p27
VJ
sS'title'
p28
VImmutans Does Not Act As A Stress-Induced Safety Valve In The Protection Of The Photosynthetic Apparatus Of Arabidopsis During Steady-State Photosynthesis
p29
sS'ISSN'
p30
(lp31
V0032-0889
p32
aVJ9 PLANT PHYSIOL
p33
asS'authors_full'
p34
(lp35
(VROSSO
VDOMINIC
tp36
a(VIVANOV
VALEXANDER G
tp37
a(VFU
VAIGEN
tp38
a(VGEISLERLEE
VJANE
tp39
a(VHENDRICKSON
VLUKE
tp40
a(VGEISLER
VMATT
tp41
a(VSTEWART
VGREGORY
tp42
a(VKROL
VMARIANNA
tp43
a(VHURRY
VVAUGHAN
tp44
a(VRODERMEL
VSTEVEN R
tp45
a(VMAXWELL
VDENIS P
tp46
a(VHUNER
VNORMAN P A
tp47
asS'PG'
p48
I12
sS'PD'
p49
VOCT
p50
sS'pageStart'
p51
I574
sS'issue'
p52
I2
sS'RI'
p53
(lp54
VGeisler, Matt/A-4156-2008; Geisler-Lee, Jane/A-9702-2012; Hurry,
p55
aVVaughan/A-8331-2008
p56
asS'journal'
p57
VPLANT PHYSIOLOGY
p58
sS'volume'
p59
V142
p60
sS'doi'
p61
V10.1104/pp.106.085886
p62
sS'emailAddress'
p63
Vnhuner@uwo.ca
p64
sS'authorAddress'
p65
(lp66
VUniv Western Ontario, Dept Biol & Biotron, London, ON N6A 5B7, Canada.
p67
aVIowa State Univ, Dept Genet Dev & Cell Biol, Ames, IA 50011 USA.
p68
aVUmea Univ, Dept Plant Physiol, Umea Plant Sci Ctr, S-90187 Umea, Sweden.
p69
asS'publisherAddress'
p70
V15501 MONONA DRIVE, ROCKVILLE, MD 20855 USA
p71
sS'ER'
p72
V
sS'publisher'
p73
VAMER SOC PLANT BIOLOGISTS
p74
sS'authorKeywords'
p75
(lp76
VPLASTID TERMINAL OXIDASE
p77
aVPHOTOSYSTEM-II
p78
aVALTERNATIVE OXIDASE
p79
aVELECTRON-TRANSPORT
p80
aVCHLOROPHYLL FLUORESCENCE
p81
aVOXIDATIVE STRESS
p82
aVREDOX STATE
p83
aVCHLAMYDOMONAS-REINHARDTII
p84
aVCAROTENOID BIOSYNTHESIS
p85
aVCHLOROPLAST BIOGENESIS
p86
asS'OI'
p87
VHurry, Vaughan/0000-0001-5151-5184
p88
sS'language'
p89
VEnglish
p90
sS'wosid'
p91
VWOS:000241161900016
p92
sS'citationCount'
p93
I77
sS'authors_init'
p94
(lp95
(VROSSO
VD
tp96
a(VIVANOV
VA G
tp97
a(VFU
VA
tp98
a(VGEISLERLEE
VJ
tp99
a(VHENDRICKSON
VL
tp100
a(VGEISLER
VM
tp101
a(VSTEWART
VG
tp102
a(VKROL
VM
tp103
a(VHURRY
VV
tp104
a(VRODERMEL
VS R
tp105
a(VMAXWELL
VD P
tp106
a(VHUNER
VN P A
tp107
asS'citedReferences'
p108
(lp109
g1
(g2
g3
NtRp110
(dp111
g61
V10.1093/jxb/erj008
p112
sg57
VJ EXP BOT
p113
sg59
V57
p114
sg94
(lp115
(VALURU
VM R
tp116
asg17
I2006
sg51
V1871
p117
sbag1
(g2
g3
NtRp118
(dp119
g61
V10.1104/pp.127.1.67
p120
sg57
VPLANT PHYSIOL
p121
sg59
V127
p122
sg94
(lp123
(VALURU
VM R
tp124
asg17
I2001
sg51
VLANT
p125
sbag1
(g2
g3
NtRp126
(dp127
g61
Nsg57
VPLANT CELL PHYSIOL
p128
sg59
V34
p129
sg94
(lp130
(VASADA
VK
tp131
asg17
I1993
sg51
VLANT
p132
sbag1
(g2
g3
NtRp133
(dp134
g61
V10.1111/j.1399-3054.00506.x
p135
sg57
VPHYSIOL PLANTARUM
p136
sg59
V124
p137
sg94
(lp138
(VBAERR
VJ N
tp139
asg17
I2005
sg51
VHYSIOL
p140
sbag1
(g2
g3
NtRp141
(dp142
g61
V10.1073/pnas.79.14.4352
p143
sg57
VP NATL ACAD SCI
p144
sg59
V79
p145
sg94
(lp146
(VBENNOUN
VP
tp147
asg17
I1982
sg51
V4352
p148
sbag1
(g2
g3
NtRp149
(dp150
g61
V10.1105/tpc.13.7.1499
p151
sg57
VPLANT CELL
p152
sg59
V13
p153
sg94
(lp154
(VBOYES
VD C
tp155
asg17
I2001
sg51
VLANT
p156
sbag1
(g2
g3
NtRp157
(dp158
g61
V10.1016/0005-2728(81)90113-4
p159
sg57
VBIOCHIM BIOPHYS ACTA
p160
sg59
V635
p161
sg94
(lp162
(VBRADBURY
VM
tp163
asg17
I1981
sg51
V542
p164
sbag1
(g2
g3
NtRp165
(dp166
g61
Nsg57
VPLANTA
p167
sg59
V197
p168
sg94
(lp169
(VBUCHEL
VC
tp170
asg17
I1995
sg51
VLANTA
p171
sbag1
(g2
g3
NtRp172
(dp173
g61
V10.1093/emboj/17.4.868
p174
sg57
VEMBO J
p175
sg59
V17
p176
sg94
(lp177
(VBURROWS
VP A
tp178
asg17
I1998
sg51
V868
p179
sbag1
(g2
g3
NtRp180
(dp181
g61
V10.1016/S1360-1385(00)01811-2
p182
sg57
VTRENDS PLANT SCI
p183
sg59
V6
sg94
(lp184
(VCAROL
VP
tp185
asg17
I2001
sg51
V31
p186
sbag1
(g2
g3
NtRp187
(dp188
g61
V10.1105/tpc.11.1.57
p189
sg57
VPLANT CELL
p190
sg59
V11
p191
sg94
(lp192
(VCAROL
VP
tp193
asg17
I1999
sg51
VLANT
p194
sbag1
(g2
g3
NtRp195
(dp196
g61
V10.1074/jbc.275.2.942
p197
sg57
VJ BIOL CHEM
p198
sg59
V275
p199
sg94
(lp200
(VCASANO
VL M
tp201
asg17
I2000
sg51
V942
p202
sbag1
(g2
g3
NtRp203
(dp204
g61
V10.1046/j.1365-313x.1998.00343.x
p205
sg57
VPLANT J
p206
sg59
V16
p207
sg94
(lp208
(VCLOUGH
VS J
tp209
asg17
I1998
sg51
VLANT
p210
sbag1
(g2
g3
NtRp211
(dp212
g61
V10.1016/S0005-2728(97)00074-1
p213
sg57
VBBA
p214
sg59
V1363
p215
sg94
(lp216
(VCORNEILLE
VS
tp217
asg17
I1998
sg51
V59
p218
sbag1
(g2
g3
NtRp219
(dp220
g61
Nsg57
VPHILOS T ROY SOC B
p221
sg59
V355
p222
sg94
(lp223
(VCOURNAC
VL
tp224
asg17
I2000
sg51
VHILOS
p225
sbag1
(g2
g3
NtRp226
(dp227
g61
V10.1104/pp.001636
p228
sg57
VPLANT PHYSIOL
p229
sg59
V129
p230
sg94
(lp231
(VCOURNAC
VL
tp232
asg17
I2002
sg51
VLANT
p233
sbag1
(g2
g3
NtRp234
(dp235
g61
V10.1074/jbc.M908732199
p236
sg57
VJ BIOL CHEM
p237
sg59
V275
p238
sg94
(lp239
(VCOURNAC
VL
tp240
asg17
I2000
sg51
V17256
p241
sbag1
(g2
g3
NtRp242
(dp243
g61
V10.1016/S1360-1385(02)02366-X
p244
sg57
VTRENDS PLANT SCI
p245
sg59
V7
sg94
(lp246
(VMOORE
VA L
tp247
asg17
I2002
sg51
V478
p248
sbag1
(g2
g3
NtRp249
(dp250
g61
V10.1104/pp.104.900152
p251
sg57
VPLANT PHYSIOL
p252
sg59
V138
p253
sg94
(lp254
(VCUTLER
VS
tp255
asg17
I2005
sg51
VLANT
p256
sbag1
(g2
g3
NtRp257
(dp258
g61
V10.1007/BF00397352
p259
sg57
VPLANTA
p260
sg59
V166
p261
sg94
(lp262
(VDIETZ
VK J
tp263
asg17
I1985
sg51
VLANTA
p264
sbag1
(g2
g3
NtRp265
(dp266
g61
Nsg57
VPLANT CELL PHYSL
p267
sg59
V38
p268
sg94
(lp269
(VENDO
VT
tp270
asg17
I1997
sg51
VLANT
p271
sbag1
(g2
g3
NtRp272
(dp273
g61
Nsg57
VPLANT PHYSIOL
p274
sg59
V116
p275
sg94
(lp276
(VFIELD
VT S
tp277
asg17
I1998
sg51
VLANT
p278
sbag1
(g2
g3
NtRp279
(dp280
g61
V10.1074/jbc.M508940200
p281
sg57
VJ BIOL CHEM
p282
sg59
V280
p283
sg94
(lp284
(VFU
VA G
tp285
asg17
I2005
sg51
V42489
p286
sbag1
(g2
g3
NtRp287
(dp288
g61
V10.1104/pp.105.072652
p289
sg57
VPLANT PHYSIOL
p290
sg59
V140
p291
sg94
(lp292
(VGEISLER-LEE
VJ
tp293
asg17
I2006
sg51
VLANT
p294
sbag1
(g2
g3
NtRp295
(dp296
g61
Nsg57
VPLANT PHYSIOL
p297
sg59
V110
p298
sg94
(lp299
(VGRAY
VG R
tp300
asg17
I1996
sg51
VLANT
p301
sbag1
(g2
g3
NtRp302
(dp303
g61
V10.1016/0014-5793(95)01473-X
p304
sg57
VFEBS LETT
p305
sg59
V378
p306
sg94
(lp307
(VGUEDENEY
VG
tp308
asg17
I1996
sg51
V277
p309
sbag1
(g2
g3
NtRp310
(dp311
g61
Nsg57
VPLANT CELL PHYSIOL
p312
sg59
V33
p313
sg94
(lp314
(VHARRISON
VM A
tp315
asg17
I1992
sg51
VLANT
p316
sbag1
(g2
g3
NtRp317
(dp318
g61
V10.1104/pp.123.4.1337
p319
sg57
VPLANT PHYSIOL
p320
sg59
V123
p321
sg94
(lp322
(VHORVATH
VE M
tp323
asg17
I2000
sg51
VLANT
p324
sbag1
(g2
g3
NtRp325
(dp326
g61
Nsg57
VLIGHT HARVESTING ANT
p327
sg59
Nsg94
(lp328
(VHUNER
VN P A
tp329
asg17
I2003
sg51
V401
p330
sbag1
(g2
g3
NtRp331
(dp332
g61
V10.1016/S1360-1385(98)01248-5
p333
sg57
VTRENDS PLANT SCI
p334
sg59
V3
sg94
(lp335
(VHUNER
VN P A
tp336
asg17
I1998
sg51
V224
p337
sbag1
(g2
g3
NtRp338
(dp339
g61
V10.1016/S0014-5793(98)00681-4
p340
sg57
VFEBS LETT
p341
sg59
V430
p342
sg94
(lp343
(VIVANOV
VA G
tp344
asg17
I1998
sg51
V288
p345
sbag1
(g2
g3
NtRp346
(dp347
g61
V10.1074/jbc.M203538200
p348
sg57
VJ BIOL CHEM
p349
sg59
V277
p350
sg94
(lp351
(VJOET
VT
tp352
asg17
I2002
sg51
V31623
p353
sbag1
(g2
g3
NtRp354
(dp355
g61
V10.1104/pp.123.4.1427
p356
sg57
VPLANT PHYSIOL
p357
sg59
V123
p358
sg94
(lp359
(VJOSSE
VE M
tp360
asg17
I2000
sg51
VLANT
p361
sbag1
(g2
g3
NtRp362
(dp363
g61
V10.1046/j.1432-1033.2003.03766.x
p364
sg57
VEUR J BIOCHEM
p365
sg59
V270
p366
sg94
(lp367
(VJOSSE
VE M
tp368
asg17
I2003
sg51
V3787
p369
sbag1
(g2
g3
NtRp370
(dp371
g61
Nsg57
VPLASTIDS THEIR CHEM
p372
sg59
Nsg94
(lp373
(VKIRK
VJ T O
tp374
asg17
I1978
sg51
VLASTIDS
p375
sbag1
(g2
g3
NtRp376
(dp377
g61
V10.1016/S0005-2728(00)00105-5
p378
sg57
VBBA
p379
sg59
V1457
p380
sg94
(lp381
(VKOMENDA
VJ
tp382
asg17
I2000
sg51
V243
p383
sbag1
(g2
g3
NtRp384
(dp385
g61
V10.1023/B:PRES.0000015391.99477.0d
p386
sg57
VPHOTOSYNTH RES
p387
sg59
V79
p388
sg94
(lp389
(VKRAMER
VD M
tp390
asg17
I2004
sg51
VHOTOSYNTH
p391
sbag1
(g2
g3
NtRp392
(dp393
g61
V10.1038/227680a0
p394
sg57
VNATURE
p395
sg59
V227
p396
sg94
(lp397
(VLAEMMLI
VU K
tp398
asg17
I1970
sg51
V680
p399
sbag1
(g2
g3
NtRp400
(dp401
g61
V10.1023/A:1022160213152
p402
sg57
VPHOTOSYNTHETICA
p403
sg59
V33
p404
sg94
(lp405
(VLAJKO
VF
tp406
asg17
I1997
sg51
VHOTOSYNTHETICA
p407
sbag1
(g2
g3
NtRp408
(dp409
g61
V10.1007/s00425-003-1111-7
p410
sg57
VPLANTA
p411
sg59
V218
p412
sg94
(lp413
(VLENNON
VA M
tp414
asg17
I2003
sg51
VLANTA
p415
sbag1
(g2
g3
NtRp416
(dp417
g61
V10.1073/pnas.96.14.8271
p418
sg57
VP NATL ACAD SCI USA
p419
sg59
V96
p420
sg94
(lp421
(VMAXWELL
VD P
tp422
asg17
I1999
sg51
V8271
p423
sbag1
(g2
g3
NtRp424
(dp425
g61
V10.1016/S1360-1385(99)01387-4
p426
sg57
VTRENDS PLANT SCI
p427
sg59
V4
sg94
(lp428
(VMELIS
VA
tp429
asg17
I1999
sg51
V130
p430
sbag1
(g2
g3
NtRp431
(dp432
g61
Nsg57
VPLANT CELL PHYSIOL
p433
sg59
V33
p434
sg94
(lp435
(VMI
VH L
tp436
asg17
I1992
sg51
VLANT
p437
sbag1
(g2
g3
NtRp438
(dp439
g61
V10.1016/0005-2728(79)90101-4
p440
sg57
VBIOCHIM BIOPHYS ACTA
p441
sg59
V547
p442
sg94
(lp443
(VMILLS
VJ D
tp444
asg17
I1979
sg51
V127
p445
sbag1
(g2
g3
NtRp446
(dp447
g61
V10.1016/j.tplants.2004.08.009
p448
sg57
VTRENDS PLANT SCI
p449
sg59
V9
sg94
(lp450
(VMITTLER
VR
tp451
asg17
I2004
sg51
V490
p452
sbag1
(g2
g3
NtRp453
(dp454
g61
V10.1111/j.1399-3054.2006.00643.x
p455
sg57
VPHYSIOL PLANTARUM
p456
sg59
V127
p457
sg94
(lp458
(VMOLEN
VT A
tp459
asg17
I2006
sg51
VHYSIOL
p460
sbag1
(g2
g3
NtRp461
(dp462
g61
V10.1146/annurev.arplant.52.1.561
p463
sg57
VANNU REV PLANT PHYS
p464
sg59
V52
p465
sg94
(lp466
(VMOLLER
VI M
tp467
asg17
I2001
sg51
V561
p468
sbag1
(g2
g3
NtRp469
(dp470
g61
Nsg57
VPLANTA
p471
sg59
V214
p472
sg94
(lp473
(VMORGANKISS
VR M
tp474
asg17
I2001
sg51
VLANTA
p475
sbag1
(g2
g3
NtRp476
(dp477
g61
V10.1016/S1369-5266(00)00113-8
p478
sg57
VCURR OPIN PLANT BIOL
p479
sg59
V3
sg94
(lp480
(VNIYOGI
VK K
tp481
asg17
I2000
sg51
V455
p482
sbag1
(g2
g3
NtRp483
(dp484
g61
Nsg57
VPLANT CELL
p485
sg59
V7
sg94
(lp486
(VNORRIS
VS R
tp487
asg17
I1995
sg51
VLANT
p488
sbag1
(g2
g3
NtRp489
(dp490
g61
V10.1016/0968-0004(88)90013-8
p491
sg57
VTRENDS BIOCHEM SCI
p492
sg59
V13
p493
sg94
(lp494
(VOHYAMA
VK
tp495
asg17
I1988
sg51
V19
p496
sbag1
(g2
g3
NtRp497
(dp498
g61
V10.1038/322572a0
p499
sg57
VNATURE
p500
sg59
V322
p501
sg94
(lp502
(VOHYAMA
VK
tp503
asg17
I1986
sg51
V572
p504
sbag1
(g2
g3
NtRp505
(dp506
g61
V10.1016/S1369-5266(02)00259-5
p507
sg57
VCURR OPIN PLANT BIOL
p508
sg59
V5
sg94
(lp509
(VORT
VD R
tp510
asg17
I2002
sg51
V193
p511
sbag1
(g2
g3
NtRp512
(dp513
g61
V10.1146/annurev.arplant.53.100301.135242
p514
sg57
VANNU REV PLANT BIOL
p515
sg59
V53
p516
sg94
(lp517
(VPELTIER
VG
tp518
asg17
I2002
sg51
V523
p519
sbag1
(g2
g3
NtRp520
(dp521
g61
V10.1016/S0005-2728(89)80347-0
p522
sg57
VBIOCHIM BIOPHYS ACTA
p523
sg59
V975
p524
sg94
(lp525
(VPORRA
VR J
tp526
asg17
I1989
sg51
V384
p527
sbag1
(g2
g3
NtRp528
(dp529
g61
V10.1126/science.139.3556.767
p530
sg57
VSCIENCE
p531
sg59
V139
p532
sg94
(lp533
(VREDEI
VG P
tp534
asg17
I1963
sg51
V767
p535
sbag1
(g2
g3
NtRp536
(dp537
g61
V10.1146/annurev.ge.09.120175.000551
p538
sg57
VANNU REV GENET
p539
sg59
V9
sg94
(lp540
(VREDEI
VG P
tp541
asg17
I1975
sg51
V111
p542
sbag1
(g2
g3
NtRp543
(dp544
g61
V10.1046/j.1365-313X.2002.01427.x
p545
sg57
VPLANT J
p546
sg59
V32
p547
sg94
(lp548
(VRIZHSKY
VL
tp549
asg17
I2002
sg51
VLANT
p550
sbag1
(g2
g3
NtRp551
(dp552
g61
V10.1007/BF00392394
p553
sg57
VPLANTA
p554
sg59
V80
p555
sg94
(lp556
(VROBBELEN
VG
tp557
asg17
I1968
sg51
VLANTA
p558
sbag1
(g2
g3
NtRp559
(dp560
g61
V10.1016/S1360-1385(01)02085-4
p561
sg57
VTRENDS PLANT SCI
p562
sg59
V6
sg94
(lp563
(VRODERMEL
VS
tp564
asg17
I2001
sg51
V471
p565
sbag1
(g2
g3
NtRp566
(dp567
g61
Nsg57
VARABIDOPSIS BOOK
p568
sg59
Nsg94
(lp569
(VRODERMEL
VS
tp570
asg17
I2002
sg51
V1
sbag1
(g2
g3
NtRp571
(dp572
g61
V10.1046/j.1365-3040.2002.00861.x
p573
sg57
VPLANT CELL ENVIRON
p574
sg59
V25
p575
sg94
(lp576
(VSAVITCH
VL V
tp577
asg17
I2002
sg51
VLANT
p578
sbag1
(g2
g3
NtRp579
(dp580
g61
V10.1071/PP99112
p581
sg57
VAUST J PLANT PHYSIOL
p582
sg59
V27
p583
sg94
(lp584
(VSAVITCH
VL V
tp585
asg17
I2000
sg51
V253
p586
sbag1
(g2
g3
NtRp587
(dp588
g61
Nsg57
VPLANTA
p589
sg59
V214
p590
sg94
(lp591
(VSAVITCH
VL V
tp592
asg17
I2001
sg51
VLANTA
p593
sbag1
(g2
g3
NtRp594
(dp595
g61
V10.1093/pcp/pci165
p596
sg57
VPLANT CELL PHYSIOL
p597
sg59
V46
p598
sg94
(lp599
(VSAVITCH
VL V
tp600
asg17
I2005
sg51
VLANT
p601
sbag1
(g2
g3
NtRp602
(dp603
g61
Nsg57
VBIOCHEM SOC T
p604
sg59
V24
p605
sg94
(lp606
(VSAZANOV
VL A
tp607
asg17
I1996
sg51
V739
p608
sbag1
(g2
g3
NtRp609
(dp610
g61
V10.1007/s00425-005-1507-7
p611
sg57
VPLANTA
p612
sg59
V221
p613
sg94
(lp614
(VSCHELLER
VH V
tp615
asg17
I2005
sg51
VLANTA
p616
sbag1
(g2
g3
NtRp617
(dp618
g61
V10.1038/ng1543
p619
sg57
VNAT GENET
p620
sg59
V37
p621
sg94
(lp622
(VSCHMID
VM
tp623
asg17
I2005
sg51
V501
p624
sbag1
(g2
g3
NtRp625
(dp626
g61
V10.1007/BF00024185
p627
sg57
VPHOTOSYNTH RES
p628
sg59
V10
p629
sg94
(lp630
(VSCHREIBER
VU
tp631
asg17
I1986
sg51
VHOTOSYNTH
p632
sbag1
(g2
g3
NtRp633
(dp634
g61
Nsg57
VZ NATURFORSCH C
p635
sg59
V43
p636
sg94
(lp637
(VSCHREIBER
VU
tp638
asg17
I1988
sg51
V686
p639
sbag1
(g2
g3
NtRp640
(dp641
g61
V10.1111/j.1365-3040.2005.01350.x
p642
sg57
VPLANT CELL ENVIRON
p643
sg59
V28
p644
sg94
(lp645
(VSTREB
VP
tp646
asg17
I2005
sg51
VLANT
p647
sbag1
(g2
g3
NtRp648
(dp649
g61
V10.1034/j.1399-3054.1998.1030301.x
p650
sg57
VPHYSIOL PLANTARUM
p651
sg59
V103
p652
sg94
(lp653
(VTERASHIMA
VI
tp654
asg17
I1998
sg51
VHYSIOL
p655
sbag1
(g2
g3
NtRp656
(dp657
g61
Nsg57
VGENETICS BIOGENESIS
p658
sg59
Nsg94
(lp659
(VTILNEYBASSETT
VR A E
tp660
asg17
I1975
sg51
V268
p661
sbag1
(g2
g3
NtRp662
(dp663
g61
Nsg57
VPHOTOSYNTH RES
p664
sg59
V25
p665
sg94
(lp666
(VVANKOOTEN
VO
tp667
asg17
I1990
sg51
VHOTOSYNTH
p668
sbag1
(g2
g3
NtRp669
(dp670
g61
V10.1146/annurev.arplant.48.1.703
p671
sg57
VANNU REV PLANT PHYS
p672
sg59
V48
p673
sg94
(lp674
(VVANLERBERGHE
VG C
tp675
asg17
I1997
sg51
V703
p676
sbag1
(g2
g3
NtRp677
(dp678
g61
V10.1046/j.1365-313X.1994.6020161.x
p679
sg57
VPLANT J
p680
sg59
V6
sg94
(lp681
(VWETZEL
VC M
tp682
asg17
I1994
sg51
VLANT
p683
sbag1
(g2
g3
NtRp684
(dp685
g61
V10.1105/tpc.11.1.43
p686
sg57
VPLANT CELL
p687
sg59
V11
p688
sg94
(lp689
(VWU
VD Y
tp690
asg17
I1999
sg51
VLANT
p691
sbasb.