ccopy_reg
_reconstructor
p1
(ctethne.classes.paper
Paper
p2
c__builtin__
object
p3
NtRp4
(dp5
S'publisherCity'
p6
VROCKVILLE
p7
sS'reprintAddress'
p8
VHasegawa, PM (reprint author), Purdue Univ, Ctr Plant Environm Stress Physiol, W Lafayette, IN 47907 USA.
p9
sS'WC'
p10
VPlant Sciences
p11
sS'GA'
p12
V113TY
p13
sS'abstract'
p14
VSmall ubiquitin-like modifier (SUMO) conjugation/deconjugation to heat shock transcription factors regulates DNA binding of the peptides and activation of heat shock protein gene expression that modulates thermal adaptation in metazoans. SIZ1 is a SUMO E3 ligase that facilitates SUMO conjugation to substrate target proteins (sumoylation) in Arabidopsis (Arabidopsis thaliana). siz1 T-DNA insertional mutations (siz1-2 and siz1-3; Miura et al., 2005) cause basal, but not acquired, thermo-sensitivity that occurs in conjunction with hyperaccumulation of salicylic acid (SA). NahG encodes a salicylate hydroxylase, and expression in siz1-2 seedlings reduces endogenous SA accumulation to that of wild-type levels and further increases thermosensitivity. High temperature induces SUMO1/2 conjugation to peptides in wild type but to a substantially lesser degree in siz1 mutants. However, heat shock-induced expression of genes, including heat shock proteins, ascorbate peroxidase 1 and 2, is similar in siz1 and wild-type seedlings. Together, these results indicate that SIZ1 and, by inference, sumoylation facilitate basal thermotolerance through processes that are SA independent.
p15
sS'pageEnd'
p16
I1558
sS'date'
p17
I2006
sS'documentType'
p18
VArticle
p19
sS'subject'
p20
VPlant Sciences
p21
sS'isoSource'
p22
VPlant Physiol.
p23
sS'timesCited'
p24
(lp25
I63
aVZ9 68
p26
asS'PT'
p27
VJ
sS'title'
p28
VSiz1 Small Ubiquitin-Like Modifier E3 Ligase Facilitates Basal Thermotolerance In Arabidopsis Independent Of Salicylic Acid
p29
sS'ISSN'
p30
(lp31
V0032-0889
p32
aVJ9 PLANT PHYSIOL
p33
asS'authors_full'
p34
(lp35
(VYOO
VCHAN YUL
tp36
a(VMIURA
VKENJI
tp37
a(VJIN
VJING BO
tp38
a(VLEE
VJIYOUNG
tp39
a(VPARK
VHYEONG CHEOL
tp40
a(VSALT
VDAVID E
tp41
a(VYUN
VDAEJIN
tp42
a(VBRESSAN
VRAY A
tp43
a(VHASEGAWA
VPAUL M
tp44
asS'PG'
p45
I11
sS'PD'
p46
VDEC
p47
sS'pageStart'
p48
I1548
sS'issue'
p49
I4
sS'RI'
p50
VSalt, David/B-3864-2009; Miura, Kenji/C-2803-2011
p51
sS'journal'
p52
VPLANT PHYSIOLOGY
p53
sS'volume'
p54
V142
p55
sS'doi'
p56
V10.1104/pp.106.088831
p57
sS'emailAddress'
p58
Vpaul.m.hasegawa.1@purdue.edu
p59
sS'authorAddress'
p60
(lp61
VPurdue Univ, Ctr Plant Environm Stress Physiol, W Lafayette, IN 47907 USA.
p62
aVGyeongsang Natl Univ, Grad Sch, Natl Core Res Ctr, Plant Mol Biol & Biotechnol Res Ctr & Environm Bi, Jinju 660701, South Korea.
p63
asS'publisherAddress'
p64
V15501 MONONA DRIVE, ROCKVILLE, MD 20855 USA
p65
sS'ER'
p66
V
sS'publisher'
p67
VAMER SOC PLANT BIOLOGISTS
p68
sS'authorKeywords'
p69
(lp70
VHEAT-SHOCK-PROTEIN
p71
aVSTRESS TRANSCRIPTION FACTORS
p72
aVPLANT-DISEASE RESISTANCE
p73
aVMOLECULAR CHAPERONES
p74
aVDNA-BINDING
p75
aVIN-VIVO
p76
aVACQUIRED THERMOTOLERANCE
p77
aVMULTIPROTEIN COMPLEX
p78
aVSUMO-1 MODIFICATION
p79
aVTEMPERATURE STRESS
p80
asS'OI'
p81
VMiura, Kenji/0000-0003-1262-2176
p82
sS'language'
p83
VEnglish
p84
sS'wosid'
p85
VWOS:000242621800018
p86
sS'citationCount'
p87
I80
sS'authors_init'
p88
(lp89
(VYOO
VC Y
tp90
a(VMIURA
VK
tp91
a(VJIN
VJ B
tp92
a(VLEE
VJ
tp93
a(VPARK
VH C
tp94
a(VSALT
VD E
tp95
a(VYUN
VD J
tp96
a(VBRESSAN
VR A
tp97
a(VHASEGAWA
VP M
tp98
asS'citedReferences'
p99
(lp100
g1
(g2
g3
NtRp101
(dp102
g56
V10.1007/s004250000421
p103
sg52
VPLANTA
p104
sg54
V212
p105
sg88
(lp106
(VALFONSO
VM
tp107
asg17
I2001
sg48
VLANTA
p108
sbag1
(g2
g3
NtRp109
(dp110
g56
V10.1128/MCB.26.3.955-964.2006
p111
sg52
VMOL CELL BIOL
p112
sg54
V26
p113
sg88
(lp114
(VANCKAR
VJ
tp115
asg17
I2006
sg48
V955
p116
sbag1
(g2
g3
NtRp117
(dp118
g56
V10.1007/BF02712120
p119
sg52
VJ BIOSCIENCES
p120
sg54
V29
p121
sg88
(lp122
(VBANIWAL
VS K
tp123
asg17
I2004
sg48
V471
p124
sbag1
(g2
g3
NtRp125
(dp126
g56
V10.1016/S0092-8674(02)00630-X
p127
sg52
VCELL
p128
sg54
V108
p129
sg88
(lp130
(VBERNIER-VILLAMOR
VV
tp131
asg17
I2002
sg48
V345
p132
sbag1
(g2
g3
NtRp133
(dp134
g56
V10.1146/annurev.pp.31.060180.002423
p135
sg52
VANNU REV PLANT PHYS
p136
sg54
V31
p137
sg88
(lp138
(VBERRY
VJ
tp139
asg17
I1980
sg48
V491
p140
sbag1
(g2
g3
NtRp141
(dp142
g56
V10.1074/jbc.M402273200
p143
sg52
VJ BIOL CHEM
p144
sg54
V279
p145
sg88
(lp146
(VBOHREN
VK M
tp147
asg17
I2004
sg48
V27233
p148
sbag1
(g2
g3
NtRp149
(dp150
g56
V10.1016/j.molcel.2005.12.019
p151
sg52
VMOL CELL
p152
sg54
V21
p153
sg88
(lp154
(VBOSSIS
VG
tp155
asg17
I2006
sg48
V349
p156
sbag1
(g2
g3
NtRp157
(dp158
g56
V10.1007/BF00039383
p159
sg52
VPLANT MOL BIOL
p160
sg54
V32
p161
sg88
(lp162
(VBOSTON
VR S
tp163
asg17
I1996
sg48
VLANT
p164
sbag1
(g2
g3
NtRp165
(dp166
g56
V10.1104/pp.105.074898
p167
sg52
VPLANT PHYSIOL
p168
sg54
V140
p169
sg88
(lp170
(VCHARNG
VY Y
tp171
asg17
I2006
sg48
VLANT
p172
sbag1
(g2
g3
NtRp173
(dp174
g56
V10.1111/j.1365-313X.2004.02054.x
p175
sg52
VPLANT J
p176
sg54
V38
p177
sg88
(lp178
(VCLARKE
VS M
tp179
asg17
I2004
sg48
VLANT
p180
sbag1
(g2
g3
NtRp181
(dp182
g56
V10.1006/bbrc.1999.1692
p183
sg52
VBIOCHEM BIOPH RES CO
p184
sg54
V265
p185
sg88
(lp186
(VCRONJE
VM J
tp187
asg17
I1999
sg48
V422
p188
sbag1
(g2
g3
NtRp189
(dp190
g56
V10.1104/pp.116.4.1351
p191
sg52
VPLANT PHYSIOL
p192
sg54
V116
p193
sg88
(lp194
(VDAT
VJ F
tp195
asg17
I1998
sg48
VLANT
p196
sbag1
(g2
g3
NtRp197
(dp198
g56
V10.1104/pp.118.4.1455
p199
sg52
VPLANT PHYSIOL
p200
sg54
V118
p201
sg88
(lp202
(VDAT
VJ F
tp203
asg17
I1998
sg48
VLANT
p204
sbag1
(g2
g3
NtRp205
(dp206
g56
V10.1126/science.266.5188.1247
p207
sg52
VSCIENCE
p208
sg54
V266
p209
sg88
(lp210
(VDELANEY
VT P
tp211
asg17
I1994
sg48
V1247
p212
sbag1
(g2
g3
NtRp213
(dp214
g56
V10.1016/j.bbamcr.2004.09.021
p215
sg52
VBBA
p216
sg54
V1695
p217
sg88
(lp218
(VDOHMEN
VR J
tp219
asg17
I2004
sg48
V113
p220
sbag1
(g2
g3
NtRp221
(dp222
g56
V10.1016/S0968-0004(00)01576-0
p223
sg52
VTRENDS BIOCHEM SCI
p224
sg54
V25
p225
sg88
(lp226
(VELLIS
VR J
tp227
asg17
I2000
sg48
V210
p228
sbag1
(g2
g3
NtRp229
(dp230
g56
V10.1093/nar/23.23.4799
p231
sg52
VNUCLEIC ACIDS RES
p232
sg54
V23
p233
sg88
(lp234
(VFERNANDES
VM
tp235
asg17
I1995
sg48
V4799
p236
sbag1
(g2
g3
NtRp237
(dp238
g56
V10.1104/pp.104.055293
p239
sg52
VPLANT PHYSIOL
p240
sg54
V137
p241
sg88
(lp242
(VFREEMAN
VJ L
tp243
asg17
I2005
sg48
VLANT
p244
sbag1
(g2
g3
NtRp245
(dp246
g56
V10.1016/S0092-8674(02)01278-3
p247
sg52
VCELL
p248
sg54
V112
p249
sg88
(lp250
(VFREIMAN
VR N
tp251
asg17
I2003
sg48
V11
p252
sbag1
(g2
g3
NtRp253
(dp254
g56
V10.1146/annurev.biochem.70.1.603
p255
sg52
VANNU REV BIOCHEM
p256
sg54
V70
p257
sg88
(lp258
(VFRYDMAN
VJ
tp259
asg17
I2001
sg48
V603
p260
sbag1
(g2
g3
NtRp261
(dp262
g56
V10.1016/j.bbarexp.2003.07.001
p263
sg52
VBBA
p264
sg54
V1629
p265
sg88
(lp266
(VGARCIA-ESTRADA
VC
tp267
asg17
I2003
sg48
V44
p268
sbag1
(g2
g3
NtRp269
(dp270
g56
V10.1016/j.gde.2005.07.004
p271
sg52
VCURR OPIN GENET DEV
p272
sg54
V15
p273
sg88
(lp274
(VGILL
VG
tp275
asg17
I2005
sg48
V536
p276
sbag1
(g2
g3
NtRp277
(dp278
g56
V10.1074/jbc.M008066200
p279
sg52
VJ BIOL CHEM
p280
sg54
V276
p281
sg88
(lp282
(VGOODSON
VM L
tp283
asg17
I2001
sg48
V18513
p284
sbag1
(g2
g3
NtRp285
(dp286
g56
V10.1074/jbc.M105931200
p287
sg52
VJ BIOL CHEM
p288
sg54
V276
p289
sg88
(lp290
(VGUO
VY L
tp291
asg17
I2001
sg48
V45791
p292
sbag1
(g2
g3
NtRp293
(dp294
g56
V10.1126/science.1068408
p295
sg52
VSCIENCE
p296
sg54
V295
p297
sg88
(lp298
(VHARTL
VF U
tp299
asg17
I2002
sg48
V1852
p300
sbag1
(g2
g3
NtRp301
(dp302
g56
V10.1016/j.molcel.2005.03.012
p303
sg52
VMOL CELL
p304
sg54
V18
p305
sg88
(lp306
(VHAY
VR T
tp307
asg17
I2005
sg48
V1
sbag1
(g2
g3
NtRp308
(dp309
g56
V10.1073/pnas.0503698102
p310
sg52
VP NATL ACAD SCI USA
p311
sg54
V103
p312
sg88
(lp313
(VHIETAKANGAS
VV
tp314
asg17
I2006
sg48
V45
p315
sbag1
(g2
g3
NtRp316
(dp317
g56
V10.1016/S0006-291X(03)00312-7
p318
sg52
VBIOCHEM BIOPH RES CO
p319
sg54
V303
p320
sg88
(lp321
(VHILGARTH
VR S
tp322
asg17
I2003
sg48
V196
p323
sbag1
(g2
g3
NtRp324
(dp325
g56
V10.1379/CSC-8R.1
p326
sg52
VCELL STRESS CHAPERON
p327
sg54
V9
sg88
(lp328
(VHILGARTH
VR S
tp329
asg17
I2004
sg48
V214
p330
sbag1
(g2
g3
NtRp331
(dp332
g56
Nsg52
VINT J IMAGE GRAPHICS
p333
sg54
V1
sg88
(lp334
(VHONG
VP
tp335
asg17
I2001
sg48
V1
sbag1
(g2
g3
NtRp336
(dp337
g56
V10.1104/pp.102.017145
p338
sg52
VPLANT PHYSIOL
p339
sg54
V132
p340
sg88
(lp341
(VHONG
VS W
tp342
asg17
I2003
sg48
VLANT
p343
sbag1
(g2
g3
NtRp344
(dp345
g56
V10.1046/j.1365-313x.2001.01066.x
p346
sg52
VPLANT J
p347
sg54
V27
p348
sg88
(lp349
(VHONG
VS W
tp350
asg17
I2001
sg48
VLANT
p351
sbag1
(g2
g3
NtRp352
(dp353
g56
V10.1073/pnas.97.8.4392
p354
sg52
VP NATL ACAD SCI USA
p355
sg54
V97
p356
sg88
(lp357
(VHONG
VS W
tp358
asg17
I2000
sg48
V4392
p359
sbag1
(g2
g3
NtRp360
(dp361
g56
V10.1074/jbc.M300788200
p362
sg52
VJ BIOL CHEM
p363
sg54
V278
p364
sg88
(lp365
(VHU
VY Z
tp366
asg17
I2003
sg48
V17299
p367
sbag1
(g2
g3
NtRp368
(dp369
g56
V10.1146/annurev.arplant.53.100201.160729
p370
sg52
VANNU REV PLANT BIOL
p371
sg54
V53
p372
sg88
(lp373
(VIBA
VK
tp374
asg17
I2002
sg48
V225
p375
sbag1
(g2
g3
NtRp376
(dp377
g56
V10.1146/annurev.biochem.73.011303.074118
p378
sg52
VANNU REV BIOCHEM
p379
sg54
V73
p380
sg88
(lp381
(VJOHNSON
VE S
tp382
asg17
I2004
sg48
V355
p383
sbag1
(g2
g3
NtRp384
(dp385
g56
V10.1016/S0092-8674(00)80327-X
p386
sg52
VCELL
p387
sg54
V90
p388
sg88
(lp389
(VJOHNSON
VJ L
tp390
asg17
I1997
sg48
V201
p391
sbag1
(g2
g3
NtRp392
(dp393
g56
V10.1074/jbc.M206176200
p394
sg52
VJ BIOL CHEM
p395
sg54
V277
p396
sg88
(lp397
(VKIM
VS Y
tp398
asg17
I2002
sg48
V44778
p399
sbag1
(g2
g3
NtRp400
(dp401
g56
V10.1074/jbc.M209694200
p402
sg52
VJ BIOL CHEM
p403
sg54
V278
p404
sg88
(lp405
(VKUREPA
VJ
tp406
asg17
I2003
sg48
V6862
p407
sbag1
(g2
g3
NtRp408
(dp409
g56
V10.1104/pp.105.062257
p410
sg52
VPLANT PHYSIOL
p411
sg54
V138
p412
sg88
(lp413
(VLARKINDALE
VJ
tp414
asg17
I2005
sg48
VLANT
p415
sbag1
(g2
g3
NtRp416
(dp417
g56
V[10.1104/pp.010320, 10.1104/pp.128.2.682]
p418
sg52
VPLANT PHYSIOL
p419
sg54
V128
p420
sg88
(lp421
(VLARKINDALE
VJ
tp422
asg17
I2002
sg48
VLANT
p423
sbag1
(g2
g3
NtRp424
(dp425
g56
Nsg52
VMOL CELL BIOL
p426
sg54
V18
p427
sg88
(lp428
(VLEE
VD H
tp429
asg17
I1998
sg48
V30
p430
sbag1
(g2
g3
NtRp431
(dp432
g56
V10.1104/pp.122.1.189
p433
sg52
VPLANT PHYSIOL
p434
sg54
V122
p435
sg88
(lp436
(VLEE
VG J
tp437
asg17
I2000
sg48
VLANT
p438
sbag1
(g2
g3
NtRp439
(dp440
g56
V10.1021/om000882a
p441
sg52
VORGANOMETALLICS
p442
sg54
V20
p443
sg88
(lp444
(VLEE
VH M
tp445
asg17
I2001
sg48
V794
p446
sbag1
(g2
g3
NtRp447
(dp448
g56
Nsg52
VIN PRESS PLANT J
p449
sg54
Nsg88
(lp450
(VLEE
VJ
tp451
asg17
I2006
sg48
Nsbag1
(g2
g3
NtRp452
(dp453
g56
V10.1105/tpc.104.027540
p454
sg52
VPLANT CELL
p455
sg54
V17
p456
sg88
(lp457
(VLEE
VU
tp458
asg17
I2005
sg48
VLANT
p459
sbag1
(g2
g3
NtRp460
(dp461
g56
V10.1104/pp.74.1.152
p462
sg52
VPLANT PHYSIOL
p463
sg54
V74
p464
sg88
(lp465
(VLIN
VC Y
tp466
asg17
I1984
sg48
VLANT
p467
sbag1
(g2
g3
NtRp468
(dp469
g56
V10.1016/S0959-437X(05)80135-2
p470
sg52
VCurr Opin Genet Dev
p471
sg54
V2
sg88
(lp472
(VLINDQUIST
VS
tp473
asg17
I1992
sg48
V748
p474
sbag1
(g2
g3
NtRp475
(dp476
g56
V10.1074/jbc.274.24.17219
p477
sg52
VJ BIOL CHEM
p478
sg54
V274
p479
sg88
(lp480
(VLIU
VP C C
tp481
asg17
I1999
sg48
V17219
p482
sbag1
(g2
g3
NtRp483
(dp484
g56
V10.1007/s00438-003-0954-8
p485
sg52
VMOL GENET GENOMICS
p486
sg54
V271
p487
sg88
(lp488
(VLOHMANN
VC
tp489
asg17
I2004
sg48
V11
p490
sbag1
(g2
g3
NtRp491
(dp492
g56
V10.1126/stke.2000.62.pe1
p493
sg52
VSci STKE
p494
sg54
V2000
p495
sg88
(lp496
(VLOS
VD A
tp497
asg17
I2000
sg48
Vpe1
p498
sbag1
(g2
g3
NtRp499
(dp500
g56
V10.1074/jbc.M001831200
p501
sg52
VJ BIOL CHEM
p502
sg54
V275
p503
sg88
(lp504
(VMAO
VY
tp505
asg17
I2000
sg48
V26066
p506
sbag1
(g2
g3
NtRp507
(dp508
g56
V10.1016/j.tibs.2003.09.002
p509
sg52
VTRENDS BIOCHEM SCI
p510
sg54
V28
p511
sg88
(lp512
(VMELCHIOR
VF
tp513
asg17
I2003
sg48
V612
p514
sbag1
(g2
g3
NtRp515
(dp516
g56
V10.1101/gad.228802
p517
sg52
VGENE DEV
p518
sg54
V16
p519
sg88
(lp520
(VMISHRA
VS K
tp521
asg17
I2002
sg48
V1555
p522
sbag1
(g2
g3
NtRp523
(dp524
g56
V10.1073/pnas.050078102
p525
sg52
VP NATL ACAD SCI USA
p526
sg54
V102
p527
sg88
(lp528
(VMIURA
VK
tp529
asg17
I2005
sg48
V7760
p530
sbag1
(g2
g3
NtRp531
(dp532
g56
V10.1101/gad.12.24.3788
p533
sg52
VGENE DEV
p534
sg54
V12
p535
sg88
(lp536
(VMORIMOTO
VR I
tp537
asg17
I1998
sg48
V3788
p538
sbag1
(g2
g3
NtRp539
(dp540
g56
V10.1054/csac.1998.0002
p541
sg52
VCELL STRESS CHAPERON
p542
sg54
V4
sg88
(lp543
(VNAKAI
VA
tp544
asg17
I1999
sg48
V86
p545
sbag1
(g2
g3
NtRp546
(dp547
g56
V10.1379/1466-1268(2001)006<0177:AATHST>2.0.CO;2
p548
sg52
VCELL STRESS CHAPERON
p549
sg54
V6
sg88
(lp550
(VNOVER
VL
tp551
asg17
I2001
sg48
V177
p552
sbag1
(g2
g3
NtRp553
(dp554
g56
V10.1104/pp.001362
p555
sg52
VPLANT PHYSIOL
p556
sg54
V129
p557
sg88
(lp558
(VPANCHUK
VI I
tp559
asg17
I2002
sg48
VLANT
p560
sbag1
(g2
g3
NtRp561
(dp562
g56
V10.1016/0092-8674(82)90249-5
p563
sg52
VCELL
p564
sg54
V30
p565
sg88
(lp566
(VPELHAM
VH R B
tp567
asg17
I1982
sg48
V517
p568
sbag1
(g2
g3
NtRp569
(dp570
g56
V10.1096/fj00-0294rev
p571
sg52
VFASEB J
p572
sg54
V15
p573
sg88
(lp574
(VPIRKKALA
VL
tp575
asg17
I2001
sg48
V1118
p576
sbag1
(g2
g3
NtRp577
(dp578
g56
V10.1105/tpc.12.4.479
p579
sg52
VPLANT CELL
p580
sg54
V12
p581
sg88
(lp582
(VQUEITSCH
VC
tp583
asg17
I2000
sg48
VLANT
p584
sbag1
(g2
g3
NtRp585
(dp586
g56
Nsg52
VSYM SOC EXP BIOL
p587
sg54
V42
p588
sg88
(lp589
(VQUINN
VP J
tp590
asg17
I1988
sg48
V237
p591
sbag1
(g2
g3
NtRp592
(dp593
g56
V10.1074/jbc.275.9.6252
p594
sg52
VJ BIOL CHEM
p595
sg54
V275
p596
sg88
(lp597
(VSAITOH
VH
tp598
asg17
I2000
sg48
V6252
p599
sbag1
(g2
g3
NtRp600
(dp601
g56
V10.1073/pnas.052559499
p602
sg52
VP NATL ACAD SCI USA
p603
sg54
V99
p604
sg88
(lp605
(VSCHMIDT
VD
tp606
asg17
I2002
sg48
V2872
p607
sbag1
(g2
g3
NtRp608
(dp609
g56
V10.1007/s00018-003-3129-1
p610
sg52
VCELL MOL LIFE SCI
p611
sg54
V60
p612
sg88
(lp613
(VSCHMIDT
VD
tp614
asg17
I2003
sg48
V2561
p615
sbag1
(g2
g3
NtRp616
(dp617
g56
V10.1104/pp.117.4.1135
p618
sg52
VPLANT PHYSIOL
p619
sg54
V117
p620
sg88
(lp621
(VSCHOFFL
VF
tp622
asg17
I1998
sg48
VLANT
p623
sbag1
(g2
g3
NtRp624
(dp625
g56
V10.1101/gad.1421006
p626
sg52
VGENE DEV
p627
sg54
V20
p628
sg88
(lp629
(VSHARROCKS
VA D
tp630
asg17
I2006
sg48
V754
p631
sbag1
(g2
g3
NtRp632
(dp633
g56
V10.1038/nri1667
p634
sg52
VNAT REV IMMUNOL
p635
sg54
V5
sg88
(lp636
(VSHUAI
VK
tp637
asg17
I2005
sg48
V593
p638
sbag1
(g2
g3
NtRp639
(dp640
g56
V10.1104/pp.118.3.1005
p641
sg52
VPLANT PHYSIOL
p642
sg54
V118
p643
sg88
(lp644
(VSTOROZHENKO
VS
tp645
asg17
I1998
sg48
VLANT
p646
sbag1
(g2
g3
NtRp647
(dp648
g56
V10.1074/jbc.M506794200
p649
sg52
VJ BIOL CHEM
p650
sg54
V280
p651
sg88
(lp652
(VTAKAHASHI
VY
tp653
asg17
I2005
sg48
V35822
p654
sbag1
(g2
g3
NtRp655
(dp656
g56
V10.1046/j.1365-313X.2003.01665.x
p657
sg52
VPLANT J
p658
sg54
V33
p659
sg88
(lp660
(VVAN
VWEES S C M
tp661
asg17
I2003
sg48
VLANT
p662
sbag1
(g2
g3
NtRp663
(dp664
g56
Nsg52
VANNU REV PLANT PHYS
p665
sg54
V42
p666
sg88
(lp667
(VVIERLING
VE
tp668
asg17
I1991
sg48
V570
p669
sbag1
(g2
g3
NtRp670
(dp671
g56
Nsg52
VMOL CELL BIOL
p672
sg54
V13
p673
sg88
(lp674
(VWESTWOOD
VJ T
tp675
asg17
I1993
sg48
V3481
p676
sbag1
(g2
g3
NtRp677
(dp678
g56
V10.1101/gad.11.10.1299
p679
sg52
VGENE DEV
p680
sg54
V11
p681
sg88
(lp682
(VZANDI
VE
tp683
asg17
I1997
sg48
V1299
p684
sbag1
(g2
g3
NtRp685
(dp686
g56
V10.1105/tpc.015842
p687
sg52
VPLANT CELL
p688
sg54
V15
p689
sg88
(lp690
(VZHANG
VY L
tp691
asg17
I2003
sg48
VLANT
p692
sbag1
(g2
g3
NtRp693
(dp694
g56
V10.1073/pnas.0500537102
p695
sg52
VP NATL ACAD SCI USA
p696
sg54
V102
p697
sg88
(lp698
(VZHAO
VX L
tp699
asg17
I2005
sg48
V4777
p700
sbag1
(g2
g3
NtRp701
(dp702
g56
V10.1111/j.1365-313X.2004.02180.x
p703
sg52
VPLANT J
p704
sg54
V39
p705
sg88
(lp706
(VZHOU
VF
tp707
asg17
I2004
sg48
VLANT
p708
sbag1
(g2
g3
NtRp709
(dp710
g56
V10.1016/S0092-8674(00)81588-3
p711
sg52
VCELL
p712
sg54
V94
p713
sg88
(lp714
(VZOU
VJ Y
tp715
asg17
I1998
sg48
V471
p716
sbag1
(g2
g3
NtRp717
(dp718
g56
Nsg52
VMOL CELL BIOL
p719
sg54
V14
p720
sg88
(lp721
(VZUO
VJ R
tp722
asg17
I1994
sg48
V7557
p723
sbasb.