ccopy_reg
_reconstructor
p1
(ctethne.classes.paper
Paper
p2
c__builtin__
object
p3
NtRp4
(dp5
S'publisherCity'
p6
VROCKVILLE
p7
sS'reprintAddress'
p8
VLevine, A (reprint author), Hebrew Univ Jerusalem, Dept Plant Sci, IL-91904 Jerusalem, Givat Ram, Israel.
p9
sS'WC'
p10
VPlant Sciences
p11
sS'GA'
p12
V175PA
p13
sS'abstract'
p14
VH2O2 is a widespread molecule in many biological systems. It is created enzymatically in living cells during various oxidation reactions and by leakage of electrons from the electron transport chains. Depending on the concentration H2O2 can induce cell protective responses, programmed cell death, or necrosis. Here we provide evidence that H2O2 may function as a developmental signal in the differentiation of secondary walls in cotton (Gossypium hirsutum) fibers. Three lines of evidence support this conclusion: (a) the period of H2O2 generation coincided with the onset of secondary wall deposition, (b) inhibition of H2O2 production or scavenging the available H2O2 from the system prevented the wall differentiation process, and (c) exogenous addition of H2O2 prematurely promoted secondary wall formation in young fibers. Furthermore, we provide support for the concept that H2O2 generation could be mediated by the expression of the small GTPase Rac, the accumulation of which was shown previously to be strongly induced during the onset of secondary wall differentiation. In support of Rac's role in the activation of NADPH oxidase and the generation of reactive oxygen species, we transformed soybean (Glycine max) and Arabidopsis cells with mutated Rac genes. Transformation with a dominantly activated cotton Rac13 gene resulted in constitutively higher levels of H2O2, whereas transformation with the antisense and especially with dominant-negative Rac constructs decreased the levels of H2O2.
p15
sS'pageEnd'
p16
I858
sS'publisherAddress'
p17
V15501 MONONA DRIVE, ROCKVILLE, MD 20855 USA
p18
sS'documentType'
p19
VArticle
p20
sS'subject'
p21
VPlant Sciences
p22
sS'isoSource'
p23
VPlant Physiol.
p24
sS'timesCited'
p25
(lp26
I153
aVZ9 188
p27
asS'PT'
p28
VJ
sS'title'
p29
VThe Involvement Of Hydrogen Peroxide In The Differentiation Of Secondary Walls In Cotton Fibers
p30
sS'ISSN'
p31
(lp32
V0032-0889
p33
aVJ9 PLANT PHYSIOL
p34
asS'authors_full'
p35
(lp36
(VPOTIKHA
VTS
tp37
a(VCOLLINS
VCC
tp38
a(VJOHNSON
VDI
tp39
a(VDELMER
VDP
tp40
a(VLEVINE
VA
tp41
asS'PG'
p42
I10
sS'PD'
p43
VMAR
p44
sS'pageStart'
p45
I849
sS'issue'
p46
I3
sS'journal'
p47
VPLANT PHYSIOLOGY
p48
sS'volume'
p49
V119
p50
sS'doi'
p51
V10.1104/pp.119.3.849
p52
sS'emailAddress'
p53
Valexl@leonardo.ls.huji.ac.il
p54
sS'authorAddress'
p55
(lp56
VHebrew Univ Jerusalem, Dept Plant Sci, IL-91904 Jerusalem, Givat Ram, Israel.
p57
aVUniv Vermont, Dept Microbiol & Mol Genet, Burlington, VT 05405 USA.
p58
aVUniv Calif Davis, Plant Biol Sect, Davis, CA 95616 USA.
p59
asS'date'
p60
I1999
sS'ER'
p61
V
sS'publisher'
p62
VAMER SOC PLANT PHYSIOLOGISTS
p63
sS'authorKeywords'
p64
(lp65
VHYPERSENSITIVE DISEASE RESISTANCE
p66
aVSYRINGAE PV PHASEOLICOLA
p67
aVINDUCED OXIDATIVE BURST
p68
aVNADPH OXIDASE
p69
aVPLASMA-MEMBRANE
p70
aVCELL-WALL
p71
aVHIGHER-PLANTS
p72
aVARABIDOPSIS-THALIANA
p73
aVSIGNAL-TRANSDUCTION
p74
aVRADICAL PRODUCTION
p75
asS'language'
p76
VEnglish
p77
sS'wosid'
p78
VWOS:000079102000005
p79
sS'citationCount'
p80
I64
sS'authors_init'
p81
(lp82
(VPOTIKHA
VT S
tp83
a(VCOLLINS
VC C
tp84
a(VJOHNSON
VD I
tp85
a(VDELMER
VD P
tp86
a(VLEVINE
VA
tp87
asS'citedReferences'
p88
(lp89
g1
(g2
g3
NtRp90
(dp91
g51
Nsg47
VBIOCHEM J
p92
sg49
V298
p93
sg81
(lp94
(VABO
VA
tp95
asg60
I1994
sg45
V585
p96
sbag1
(g2
g3
NtRp97
(dp98
g51
V10.1105/tpc.9.9.1559
p99
sg47
VPLANT CELL
p100
sg49
V9
sg81
(lp101
(VALLAN
VA C
tp102
asg60
I1997
sg45
VLANT
p103
sbag1
(g2
g3
NtRp104
(dp105
g51
V10.1007/s004250050276
p106
sg47
VPLANTA
p107
sg49
V204
p108
sg81
(lp109
(VALTAMURA
VM M
tp110
asg60
I1998
sg45
VLANTA
p111
sbag1
(g2
g3
NtRp112
(dp113
g51
V10.1104/pp.90.1.109
p114
sg47
VPLANT PHYSIOL
p115
sg49
V90
p116
sg81
(lp117
(VAPOSTOL
VI
tp118
asg60
I1989
sg45
VLANT
p119
sbag1
(g2
g3
NtRp120
(dp121
g51
V10.1094/Phyto-81-1504
p122
sg47
VPHYTOPATHOLOGY
p123
sg49
V81
p124
sg81
(lp125
(VBAKER
VC J
tp126
asg60
I1991
sg45
VHYTOPATHOLOGY
p127
sbag1
(g2
g3
NtRp128
(dp129
g51
V10.1016/S0074-7696(08)61300-5
p130
sg47
VINT REV CYTOL
p131
sg49
V89
p132
sg81
(lp133
(VBASRA
VA S
tp134
asg60
I1984
sg45
V65
p135
sbag1
(g2
g3
NtRp136
(dp137
g51
Nsg47
VCOTTON FIBER CELLULO
p138
sg49
Nsg81
(lp139
(VBEASLEY
VC A
tp140
asg60
I1992
sg45
V55
p141
sbag1
(g2
g3
NtRp142
(dp143
g51
Nsg47
VPLANT CELL
p144
sg49
V9
sg81
(lp145
(VBESTWICK
VC S
tp146
asg60
I1997
sg45
VLANT
p147
sbag1
(g2
g3
NtRp148
(dp149
g51
Nsg47
VPLANT PHYSIOL
p150
sg49
V108
p151
sg81
(lp152
(VBESTWICK
VC S
tp153
asg60
I1995
sg45
VLANT
p154
sbag1
(g2
g3
NtRp155
(dp156
g51
V10.3109/10715769509065273
p157
sg47
VFREE RADICAL RES
p158
sg49
V23
p159
sg81
(lp160
(VBOLWELL
VG P
tp161
asg60
I1995
sg45
V517
p162
sbag1
(g2
g3
NtRp163
(dp164
g51
V10.1007/BF00385148
p165
sg47
VPLANTA
p166
sg49
V152
p167
sg81
(lp168
(VBOLWELL
VG P
tp169
asg60
I1981
sg45
VLANTA
p170
sbag1
(g2
g3
NtRp171
(dp172
g51
V10.1016/0092-8674(92)90530-P
p173
sg47
VCELL
p174
sg49
V70
p175
sg81
(lp176
(VBRADLEY
VD J
tp177
asg60
I1992
sg45
V21
p178
sbag1
(g2
g3
NtRp179
(dp180
g51
V10.1016/0891-5849(95)00079-D
p181
sg47
VFREE RADICAL BIO MED
p182
sg49
V19
p183
sg81
(lp184
(VCHARLOUX
VC
tp185
asg60
I1995
sg45
V699
p186
sbag1
(g2
g3
NtRp187
(dp188
g51
V10.1007/BF02456612
p189
sg47
VMOL GEN GENET
p190
sg49
V248
p191
sg81
(lp192
(VDELMER
VD P
tp193
asg60
I1995
sg45
V43
p194
sbag1
(g2
g3
NtRp195
(dp196
g51
V10.1126/science.8036496
p197
sg47
VSCIENCE
p198
sg49
V265
p199
sg81
(lp200
(VDIEKMANN
VD
tp201
asg60
I1994
sg45
V531
p202
sbag1
(g2
g3
NtRp203
(dp204
g51
V10.1016/0304-4165(95)00156-5
p205
sg47
VBBA
p206
sg49
V1289
p207
sg81
(lp208
(VDWYER
VS C
tp209
asg60
I1996
sg45
V231
p210
sbag1
(g2
g3
NtRp211
(dp212
g51
Nsg47
VJ BIOL CHEM
p213
sg49
V271
p214
sg81
(lp215
(VFREEMAN
VJ L
tp216
asg60
I1996
sg45
V19794
p217
sbag1
(g2
g3
NtRp218
(dp219
g51
Nsg47
VINT REV CYTOL
p220
sg49
V136
p221
sg81
(lp222
(VFUKUDA
VH
tp223
asg60
I1992
sg45
V289
p224
sbag1
(g2
g3
NtRp225
(dp226
g51
V10.1146/annurev.arplant.47.1.299
p227
sg47
VANNU REV PLANT PHYS
p228
sg49
V47
p229
sg81
(lp230
(VFUKUDA
VH
tp231
asg60
I1996
sg45
V299
p232
sbag1
(g2
g3
NtRp233
(dp234
g51
V10.1046/j.1365-313X.1996.10030515.x
p235
sg47
VPLANT J
p236
sg49
V10
p237
sg81
(lp238
(VGROOM
VQ J
tp239
asg60
I1996
sg45
VLANT
p240
sbag1
(g2
g3
NtRp241
(dp242
g51
V10.1007/BF01279568
p243
sg47
VPROTOPLASMA
p244
sg49
V196
p245
sg81
(lp246
(VGROOVER
VA
tp247
asg60
I1997
sg45
VROTOPLASMA
p248
sbag1
(g2
g3
NtRp249
(dp250
g51
V10.1104/pp.83.4.1054
p251
sg47
VPLANT PHYSIOL
p252
sg49
V83
p253
sg81
(lp254
(VHAYASHI
VT
tp255
asg60
I1987
sg45
VLANT
p256
sbag1
(g2
g3
NtRp257
(dp258
g51
V10.1016/0168-9452(96)04364-6
p259
sg47
VPLANT SCI
p260
sg49
V115
p261
sg81
(lp262
(VHIDEG
VE
tp263
asg60
I1996
sg45
VLANT
p264
sbag1
(g2
g3
NtRp265
(dp266
g51
Nsg47
VPLANT PHYSIOL
p267
sg49
V104
p268
sg81
(lp269
(VIIYAMA
VK
tp270
asg60
I1994
sg45
VLANT
p271
sbag1
(g2
g3
NtRp272
(dp273
g51
V10.1126/science.275.5306.1649
p274
sg47
VSCIENCE
p275
sg49
V275
p276
sg81
(lp277
(VIRANI
VK
tp278
asg60
I1997
sg45
V1649
p279
sbag1
(g2
g3
NtRp280
(dp281
g51
V10.1073/pnas.94.9.4800
p282
sg47
VP NATL ACAD SCI USA
p283
sg49
V94
p284
sg81
(lp285
(VJABS
VT
tp286
asg60
I1997
sg45
V4800
p287
sbag1
(g2
g3
NtRp288
(dp289
g51
V10.1126/science.273.5283.1853
p290
sg47
VSCIENCE
p291
sg49
V273
p292
sg81
(lp293
(VJABS
VT
tp294
asg60
I1996
sg45
V1853
p295
sbag1
(g2
g3
NtRp296
(dp297
g51
V10.1105/tpc.10.2.255
p298
sg47
VPLANT CELL
p299
sg49
V10
p300
sg81
(lp301
(VKELLER
VT
tp302
asg60
I1998
sg45
VLANT
p303
sbag1
(g2
g3
NtRp304
(dp305
g51
V10.1016/S0014-5793(97)00038-0
p306
sg47
VFEBS LETT
p307
sg49
V403
p308
sg81
(lp309
(VKIEFFER
VF
tp310
asg60
I1997
sg45
V149
p311
sbag1
(g2
g3
NtRp312
(dp313
g51
Nsg47
VFASEB J
p314
sg49
V9
sg81
(lp315
(VKNOX
VJ P
tp316
asg60
I1995
sg45
V1004
p317
sbag1
(g2
g3
NtRp318
(dp319
g51
V10.1016/0925-4439(95)00011-R
p320
sg47
VBBA
p321
sg49
V1271
p322
sg81
(lp323
(VKORSMEYER
VS J
tp324
asg60
I1995
sg45
V63
p325
sbag1
(g2
g3
NtRp326
(dp327
g51
Nsg47
VPLANT PHYSIOL
p328
sg49
V102
p329
sg81
(lp330
(VLEGENDRE
VL
tp331
asg60
I1993
sg45
VLANT
p332
sbag1
(g2
g3
NtRp333
(dp334
g51
V10.1016/0092-8674(94)90544-4
p335
sg47
VCELL
p336
sg49
V79
p337
sg81
(lp338
(VLEVINE
VA
tp339
asg60
I1994
sg45
V583
p340
sbag1
(g2
g3
NtRp341
(dp342
g51
V10.1016/S0960-9822(02)00510-9
p343
sg47
VCURR BIOL
p344
sg49
V6
sg81
(lp345
(VLEVINE
VA
tp346
asg60
I1996
sg45
V427
p347
sbag1
(g2
g3
NtRp348
(dp349
g51
V10.1111/j.1399-3054.1996.tb00469.x
p350
sg47
VPHYSIOL PLANTARUM
p351
sg49
V96
p352
sg81
(lp353
(VLOW
VP S
tp354
asg60
I1996
sg45
VHYSIOL
p355
sbag1
(g2
g3
NtRp356
(dp357
g51
Nsg47
VPLANT PHYSIOL
p358
sg49
V63
p359
sg81
(lp360
(VMALTBY
VD
tp361
asg60
I1979
sg45
VLANT
p362
sbag1
(g2
g3
NtRp363
(dp364
g51
Nsg47
VPLANT PHYSIOL
p365
sg49
V105
p366
sg81
(lp367
(VMEHDY
VM C
tp368
asg60
I1994
sg45
VLANT
p369
sbag1
(g2
g3
NtRp370
(dp371
g51
V10.1104/pp.59.6.1088
p372
sg47
VPLANT PHYSIOL
p373
sg49
V59
p374
sg81
(lp375
(VMEINERT
VM C
tp376
asg60
I1977
sg45
VLANT
p377
sbag1
(g2
g3
NtRp378
(dp379
g51
V10.1016/S0031-9422(97)00133-7
p380
sg47
VPHYTOCHEMISTRY
p381
sg49
V45
p382
sg81
(lp383
(VMITHOFER
VA
tp384
asg60
I1997
sg45
VHYTOCHEMISTRY
p385
sbag1
(g2
g3
NtRp386
(dp387
g51
Nsg47
VPLANT PHYSIOL
p388
sg49
V110
p389
sg81
(lp390
(VMURPHY
VT M
tp391
asg60
I1996
sg45
VLANT
p392
sbag1
(g2
g3
NtRp393
(dp394
g51
Nsg47
VBIOCHEM J
p395
sg49
V290
p396
sg81
(lp397
(VODONNELL
VV B
tp398
asg60
I1993
sg45
V41
p399
sbag1
(g2
g3
NtRp400
(dp401
g51
V10.1007/BF00394872
p402
sg47
VPLANTA
p403
sg49
V174
p404
sg81
(lp405
(VPANTOJA
VO
tp406
asg60
I1988
sg45
VLANTA
p407
sbag1
(g2
g3
NtRp408
(dp409
g51
V10.1073/pnas.93.22.12637
p410
sg47
VP NATL ACAD SCI USA
p411
sg49
V93
p412
sg81
(lp413
(VPEAR
VJ R
tp414
asg60
I1996
sg45
V12637
p415
sbag1
(g2
g3
NtRp416
(dp417
g51
V10.1046/j.1365-313X.1995.7030453.x
p418
sg47
VPLANT J
p419
sg49
V7
sg81
(lp420
(VPOTIKHA
VT
tp421
asg60
I1995
sg45
VLANT
p422
sbag1
(g2
g3
NtRp423
(dp424
g51
V10.1046/j.1365-313X.1996.10061017.x
p425
sg47
VPLANT J
p426
sg49
V10
p427
sg81
(lp428
(VPRASAD
VT K
tp429
asg60
I1996
sg45
VLANT
p430
sbag1
(g2
g3
NtRp431
(dp432
g51
V10.1104/pp.110.1.125
p433
sg47
VPLANT PHYSIOL
p434
sg49
V110
p435
sg81
(lp436
(VRAO
VM V
tp437
asg60
I1996
sg45
VLANT
p438
sbag1
(g2
g3
NtRp439
(dp440
g51
V10.1016/0092-8674(92)90164-8
p441
sg47
VCELL
p442
sg49
V70
p443
sg81
(lp444
(VRIDLEY
VA J
tp445
asg60
I1992
sg45
V401
p446
sbag1
(g2
g3
NtRp447
(dp448
g51
V10.1006/abbi.1993.1222
p449
sg47
VARCH BIOCHEM BIOPHYS
p450
sg49
V302
p451
sg81
(lp452
(VROYALL
VJ A
tp453
asg60
I1993
sg45
V348
p454
sbag1
(g2
g3
NtRp455
(dp456
g51
Nsg47
VEUR J CELL BIOL
p457
sg49
V39
p458
sg81
(lp459
(VRYSER
VU
tp460
asg60
I1985
sg45
V236
p461
sbag1
(g2
g3
NtRp462
(dp463
g51
Nsg47
VPLANT PHYSIOL
p464
sg49
V104
p465
sg81
(lp466
(VSCHOPFER
VP
tp467
asg60
I1994
sg45
VLANT
p468
sbag1
(g2
g3
NtRp469
(dp470
g51
V10.1034/j.1399-3054.1997.1000208.x
p471
sg47
VPHYSIOL PLANTARUM
p472
sg49
V100
p473
sg81
(lp474
(VSCHRAUDNER
VM
tp475
asg60
I1997
sg45
VHYSIOL
p476
sbag1
(g2
g3
NtRp477
(dp478
g51
V10.1007/BF01326634
p479
sg47
VPROTOPLASMA
p480
sg49
V159
p481
sg81
(lp482
(VSEAGULL
VR W
tp483
asg60
I1990
sg45
VROTOPLASMA
p484
sbag1
(g2
g3
NtRp485
(dp486
g51
V10.1016/0968-0004(93)90051-N
p487
sg47
VTRENDS BIOCHEM SCI
p488
sg49
V18
p489
sg81
(lp490
(VSEGAL
VA W
tp491
asg60
I1993
sg45
V43
p492
sbag1
(g2
g3
NtRp493
(dp494
g51
Nsg47
VCOLORIMETRIC METHODS
p495
sg49
V2
sg81
(lp496
(VSNELL
VF D
tp497
asg60
I1949
sg45
V882
p498
sbag1
(g2
g3
NtRp499
(dp500
g51
Nsg47
VBIOCHEM J
p501
sg49
V318
p502
sg81
(lp503
(VSUNDARESAN
VM
tp504
asg60
I1996
sg45
V379
p505
sbag1
(g2
g3
NtRp506
(dp507
g51
V10.1034/j.1399-3054.1993.880421.x
p508
sg47
VPHYSIOL PLANTARUM
p509
sg49
V88
p510
sg81
(lp511
(VSVALHEIM
VO
tp512
asg60
I1993
sg45
VHYSIOL
p513
sbag1
(g2
g3
NtRp514
(dp515
g51
V10.1016/S0968-0004(96)10022-0
p516
sg47
VTRENDS BIOCHEM SCI
p517
sg49
V21
p518
sg81
(lp519
(VSYMONS
VM
tp520
asg60
I1996
sg45
V178
p521
sbag1
(g2
g3
NtRp522
(dp523
g51
V10.1073/pnas.92.10.4158
p524
sg47
VP NATL ACAD SCI USA
p525
sg49
V92
p526
sg81
(lp527
(VTENHAKEN
VR
tp528
asg60
I1995
sg45
V4158
p529
sbag1
(g2
g3
NtRp530
(dp531
g51
V10.1016/0022-1759(95)00152-Z
p532
sg47
VJ IMMUNOL METHODS
p533
sg49
V186
p534
sg81
(lp535
(VTRAYNER
VI D
tp536
asg60
I1995
sg45
V275
p537
sbag1
(g2
g3
NtRp538
(dp539
g51
V10.1016/0891-5849(94)90129-5
p540
sg47
VFREE RADICAL BIO MED
p541
sg49
V16
p542
sg81
(lp543
(VUBEZIO
VP
tp544
asg60
I1994
sg45
V509
p545
sbag1
(g2
g3
NtRp546
(dp547
g51
V10.1016/S0003-2697(69)80009-6
p548
sg47
VANAL BIOCHEM
p549
sg49
V32
p550
sg81
(lp551
(VUPDEGRAFDM
S''
tp552
asg60
I1969
sg45
V420
p553
sbag1
(g2
g3
NtRp554
(dp555
g51
Nsg47
VPLANT PHYSIOL
p556
sg49
V115
p557
sg81
(lp558
(VVANGESTELEN
VP
tp559
asg60
I1997
sg45
VLANT
p560
sbag1
(g2
g3
NtRp561
(dp562
g51
Nsg47
VJ BIOL CHEM
p563
sg49
V268
p564
sg81
(lp565
(VWEISS
VR H
tp566
asg60
I1993
sg45
V23049
p567
sbag1
(g2
g3
NtRp568
(dp569
g51
Nsg47
VPLANT CELL
p570
sg49
V9
sg81
(lp571
(VXING
VT
tp572
asg60
I1997
sg45
VLANT
p573
sbasb.