ccopy_reg
_reconstructor
p1
(ctethne.classes.paper
Paper
p2
c__builtin__
object
p3
NtRp4
(dp5
S'publisherCity'
p6
VROCKVILLE
p7
sS'reprintAddress'
p8
VTallman, G (reprint author), Willamette Univ, Dept Biol, 900 State St, Salem, OR 97301 USA.
p9
sS'WC'
p10
VPlant Sciences
p11
sS'GA'
p12
V710ZV
p13
sS'abstract'
p14
VWhen guard cell protoplasts (GCPs) of tree tobacco [Nicotiana glauca (Graham)] are cultured at 32degreesC with an auxin (1-napthaleneacetic acid) and a cytokinin (6-benzylaminopurine), they reenter the cell cycle, dedifferentiate, and divide. GCPs cultured similarly but at 38degreesC and with 0.1 muM +/- -cis,trans-abscisic acid (ABA) remain differentiated. GCPs cultured at 38degreesC without ABA dedifferentiate partially but do not divide. Cell survival after 1 week is 70% to 80% under all of these conditions. In this study, we show that GCPs cultured for 12 to 24 h at 38degreesC accumulate heat shock protein 70 and develop a thermotolerance that, upon transfer of cells to 32degreesC, enhances cell survival but inhibits cell cycle reentry, dedifferentiation, and division. GCPs dedifferentiating at 32degreesC require both 1-napthaleneacetic acid and 6-benzylaminopurine to survive, but thermotolerant GCPs cultured at 38degreesC +/- ABA do not require either hormone for survival. Pulse-labeling experiments using 5-bromo-2-deoxyuridine indicate that culture at 38degreesC ABA prevents dedifferentiation. of GCPs by blocking cell cycle reentry at G1/S. Cell cycle reentry at 32degreesC is accompanied by loss of a 41-kD polypeptide that cross-reacts with antibodies to rat (Rattus norvegicus) extracellular signal-regulated kinase 1; thermotolerant GCPs retain this polypeptide. A number of polypeptides unique to thermotolerant cells have been uncovered by Boolean analysis of two-dimensional gels and are targets for further analysis. GCPs of tree tobacco can be isolated in sufficient numbers and with the purity required to study plant cell thermotolerance and its relationship to plant cell survival, growth, dedifferentiation, and division in vitro.
p15
sS'pageEnd'
p16
I1940
sS'publisherAddress'
p17
V15501 MONONA DRIVE, ROCKVILLE, MD 20855 USA
p18
sS'documentType'
p19
VArticle
p20
sS'subject'
p21
VPlant Sciences
p22
sS'isoSource'
p23
VPlant Physiol.
p24
sS'timesCited'
p25
(lp26
I2
aVZ9 2
p27
asS'PT'
p28
VJ
sS'title'
p29
VThermotolerant Guard Cell Protoplasts Of Tree Tobacco Do Not Require Exogenous Hormones To Survive In Culture And Are Blocked From Reentering The Cell Cycle At The G1-To-S Transition
p30
sS'ISSN'
p31
(lp32
V0032-0889
p33
aVJ9 PLANT PHYSIOL
p34
asS'authors_full'
p35
(lp36
(VGUSHWA
VNN
tp37
a(VHAYASHI
VD
tp38
a(VKEMPER
VA
tp39
a(VABRAM
VB
tp40
a(VTAYLOR
VJE
tp41
a(VUPTON
VJ
tp42
a(VTAY
VCF
tp43
a(VFIEDLER
VS
tp44
a(VPULLEN
VS
tp45
a(VMILLER
VLP
tp46
a(VTALLMAN
VG
tp47
asS'PG'
p48
I16
sS'PD'
p49
VAUG
p50
sS'pageStart'
p51
I1925
sS'issue'
p52
I4
sS'journal'
p53
VPLANT PHYSIOLOGY
p54
sS'volume'
p55
V132
p56
sS'doi'
p57
V10.1104/pp.103.024067
p58
sS'authorAddress'
p59
(lp60
VWillamette Univ, Dept Biol, Salem, OR 97301 USA.
p61
aVUniv Lancaster, Dept Sci Biol, Inst Environm & Nat Sci, Lancaster LA1 4YQ, England.
p62
asS'date'
p63
I2003
sS'ER'
p64
V
sS'publisher'
p65
VAMER SOC PLANT BIOLOGISTS
p66
sS'authorKeywords'
p67
(lp68
VIMMOBILIZED PH GRADIENTS
p69
aVNICOTIANA-GLAUCA GRAHAM
p70
aVPROTEIN-KINASE
p71
aVHEAT-SHOCK
p72
aVSIGNAL-TRANSDUCTION
p73
aVABSCISIC-ACID
p74
aVMAP KINASE
p75
aV1-AMINOCYCLOPROPANE-1-CARBOXYLATE SYNTHASE
p76
aV2-DIMENSIONAL ELECTROPHORESIS
p77
aVSACCHAROMYCES-CEREVISIAE
p78
asS'language'
p79
VEnglish
p80
sS'wosid'
p81
VWOS:000184713400021
p82
sS'citationCount'
p83
I60
sS'authors_init'
p84
(lp85
(VGUSHWA
VN N
tp86
a(VHAYASHI
VD
tp87
a(VKEMPER
VA
tp88
a(VABRAM
VB
tp89
a(VTAYLOR
VJ E
tp90
a(VUPTON
VJ
tp91
a(VTAY
VC F
tp92
a(VFIEDLER
VS
tp93
a(VPULLEN
VS
tp94
a(VMILLER
VL P
tp95
a(VTALLMAN
VG
tp96
asS'citedReferences'
p97
(lp98
g1
(g2
g3
NtRp99
(dp100
g57
Nsg53
VSYM SOC EXP BIOL
p101
sg55
V42
p102
sg84
(lp103
(VFRANCIS
VD
tp104
asg63
I1988
sg51
V181
p105
sbag1
(g2
g3
NtRp106
(dp107
g57
Nsg53
VMETH MOL B
p108
sg55
V111
p109
sg84
(lp110
(VBOORSE
VG
tp111
asg63
I1999
sg51
V243
p112
sbag1
(g2
g3
NtRp113
(dp114
g57
V10.1006/abio.1976.9999
p115
sg53
VANAL BIOCHEM
p116
sg55
V72
p117
sg84
(lp118
(VBRADFORD
VM M
tp119
asg63
I1976
sg51
V248
p120
sbag1
(g2
g3
NtRp121
(dp122
g57
V10.1093/jexbot/51.343.197
p123
sg53
VJ EXP BOT
p124
sg55
V51
p125
sg84
(lp126
(VBURNETT
VE C
tp127
asg63
I2000
sg51
V197
p128
sbag1
(g2
g3
NtRp129
(dp130
g57
Nsg53
VJ CELL SCI
p131
sg55
V111
p132
sg84
(lp133
(VCALDERINI
VO
tp134
asg63
I1998
sg51
V3091
p135
sbag1
(g2
g3
NtRp136
(dp137
g57
V10.1007/s00425-002-0862-x
p138
sg53
VPLANTA
p139
sg55
V216
p140
sg84
(lp141
(VCARIMI
VF
tp142
asg63
I2003
sg51
VLANTA
p143
sbag1
(g2
g3
NtRp144
(dp145
g57
V10.1111/j.1365-3040.1991.tb01542.x
p146
sg53
VPLANT CELL ENVIRON
p147
sg55
V14
p148
sg84
(lp149
(VCUPPLES
VW
tp150
asg63
I1991
sg51
VLANT
p151
sbag1
(g2
g3
NtRp152
(dp153
g57
V10.1152/japplphysiol.01101.2001
p154
sg53
VJ APPL PHYSIOL
p155
sg55
V92
p156
sg84
(lp157
(VGABAI
VV L
tp158
asg63
I2002
sg51
V1743
p159
sbag1
(g2
g3
NtRp160
(dp161
g57
V10.1111/j.1399-3054.1981.tb04119.x
p162
sg53
VPHYSIOL PLANTARUM
p163
sg55
V53
p164
sg84
(lp165
(VGALBRAITH
VD W
tp166
asg63
I1981
sg51
VHYSIOL
p167
sbag1
(g2
g3
NtRp168
(dp169
g57
V10.1104/pp.119.2.375
p170
sg53
VPLANT PHYSIOL
p171
sg55
V119
p172
sg84
(lp173
(VGROOVER
VA
tp174
asg63
I1999
sg51
VLANT
p175
sbag1
(g2
g3
NtRp176
(dp177
g57
V10.1038/nbt0996-1133
p178
sg53
VNAT BIOTECHNOL
p179
sg55
V14
p180
sg84
(lp181
(VHALL
VR D
tp182
asg63
I1996
sg51
V1133
p183
sbag1
(g2
g3
NtRp184
(dp185
g57
Nsg53
VCANCER RES
p186
sg55
V62
p187
sg84
(lp188
(VHAQ
VR
tp189
asg63
I2002
sg51
V5076
p190
sbag1
(g2
g3
NtRp191
(dp192
g57
V10.1046/j.1365-2184.2000.00189.x
p193
sg53
VCELL PROLIFERAT
p194
sg55
V33
p195
sg84
(lp196
(VHELMBRECHT
VK
tp197
asg63
I2000
sg51
V341
p198
sbag1
(g2
g3
NtRp199
(dp200
g57
V10.1093/jexbot/52.361.1615
p201
sg53
VJ EXP BOT
p202
sg55
V52
p203
sg84
(lp204
(VHERBERT
VR J
tp205
asg63
I2001
sg51
V1615
p206
sbag1
(g2
g3
NtRp207
(dp208
g57
Nsg53
VCircular
p209
sg55
V347
p210
sg84
(lp211
(VHOAGLAND
VD R
tp212
asg63
I1938
sg51
Nsbag1
(g2
g3
NtRp213
(dp214
g57
Nsg53
VJ BIOL CHEM
p215
sg55
V270
p216
sg84
(lp217
(VINOUE
VA
tp218
asg63
I1995
sg51
V22571
p219
sbag1
(g2
g3
NtRp220
(dp221
g57
Nsg53
VJ FERMENT TECHNOL
p222
sg55
V55
p223
sg84
(lp224
(VKATO
VA
tp225
asg63
I1977
sg51
V207
p226
sbag1
(g2
g3
NtRp227
(dp228
g57
Nsg53
VPLANT CELL S
p229
sg55
Nsg84
(lp230
(VKEPINSKI
VS
tp231
asg63
I2002
sg51
VLANT
p232
sbag1
(g2
g3
NtRp233
(dp234
g57
Nsg53
VCANCER RES
p235
sg55
V62
p236
sg84
(lp237
(VKIM
VJ
tp238
asg63
I2002
sg51
V1549
p239
sbag1
(g2
g3
NtRp240
(dp241
g57
V10.1016/S1097-2765(02)00524-5
p242
sg53
VMOL CELL
p243
sg55
V9
sg84
(lp244
(VKONISHI
VY
tp245
asg63
I2002
sg51
V1005
p246
sbag1
(g2
g3
NtRp247
(dp248
g57
V10.1038/27240
p249
sg53
VNATURE
p250
sg55
V395
p251
sg84
(lp252
(VKOVTUN
VY
tp253
asg63
I1998
sg51
V716
p254
sbag1
(g2
g3
NtRp255
(dp256
g57
V10.1073/pnas.97.6.2940
p257
sg53
VP NATL ACAD SCI USA
p258
sg55
V97
p259
sg84
(lp260
(VKOVTUN
VY
tp261
asg63
I2000
sg51
V2940
p262
sbag1
(g2
g3
NtRp263
(dp264
g57
Nsg53
VCURR SCI INDIA
p265
sg55
V79
p266
sg84
(lp267
(VKRISHNAMURTHY
VK V
tp268
asg63
I2000
sg51
V1169
p269
sbag1
(g2
g3
NtRp270
(dp271
g57
V10.1105/tpc.001164
p272
sg53
VPLANT CELL
p273
sg55
V14
p274
sg84
(lp275
(VKRYSAN
VP J
tp276
asg63
I2002
sg51
VLANT
p277
sbag1
(g2
g3
NtRp278
(dp279
g57
V10.1007/PL00000707
p280
sg53
VCELL MOL LIFE SCI
p281
sg55
V57
p282
sg84
(lp283
(VKUHL
VN M
tp284
asg63
I2000
sg51
V450
p285
sbag1
(g2
g3
NtRp286
(dp287
g57
V10.1038/227680a0
p288
sg53
VNATURE
p289
sg55
V227
p290
sg84
(lp291
(VLAEMMLI
VU K
tp292
asg63
I1970
sg51
V680
p293
sbag1
(g2
g3
NtRp294
(dp295
g57
V10.1038/35081184
p296
sg53
VNATURE
p297
sg55
V411
p298
sg84
(lp299
(VLAM
VE
tp300
asg63
I2001
sg51
V848
p301
sbag1
(g2
g3
NtRp302
(dp303
g57
V10.1034/j.1399-3054.2000.100215.x
p304
sg53
VPHYSIOL PLANTARUM
p305
sg55
V108
p306
sg84
(lp307
(VLEE
VS
tp308
asg63
I2000
sg51
VHYSIOL
p309
sbag1
(g2
g3
NtRp310
(dp311
g57
V10.1046/j.1365-313x.1999.00579.x
p312
sg53
VPLANT J
p313
sg55
V20
p314
sg84
(lp315
(VMARTINEZ-GARCIA
VJ F
tp316
asg63
I1999
sg51
VLANT
p317
sbag1
(g2
g3
NtRp318
(dp319
g57
V10.1093/pcp/pce030
p320
sg53
VPLANT CELL PHYSIOL
p321
sg55
V42
p322
sg84
(lp323
(VMERRITT
VF
tp324
asg63
I2001
sg51
VLANT
p325
sbag1
(g2
g3
NtRp326
(dp327
g57
V10.1046/j.1365-313x.2000.00921.x
p328
sg53
VPLANT J
p329
sg55
V24
p330
sg84
(lp331
(VMOCKAITIS
VK
tp332
asg63
I2000
sg51
VLANT
p333
sbag1
(g2
g3
NtRp334
(dp335
g57
Nsg53
VPLANT PHYSIOL
p336
sg55
V113
p337
sg84
(lp338
(VMORI
VI C
tp339
asg63
I1997
sg51
VLANT
p340
sbag1
(g2
g3
NtRp341
(dp342
g57
V10.1046/j.1469-8137.2001.00167.x
p343
sg53
VNEW PHYTOL
p344
sg55
V151
p345
sg84
(lp346
(VMORRIS
VP C
tp347
asg63
I2001
sg51
V67
p348
sbag1
(g2
g3
NtRp349
(dp350
g57
V10.1016/S1360-1385(97)88387-2
p351
sg53
VTRENDS PLANT SCI
p352
sg55
V2
sg84
(lp353
(VMURRAY
VJ A H
tp354
asg63
I1997
sg51
V82
p355
sbag1
(g2
g3
NtRp356
(dp357
g57
Nsg53
VPLANT CELL CYCLE ITS
p358
sg55
Nsg84
(lp359
(VNAGATA
VT
tp360
asg63
I2001
sg51
VLANT
p361
sbag1
(g2
g3
NtRp362
(dp363
g57
Nsg53
VINT REV CYTOL
p364
sg55
V132
p365
sg84
(lp366
(VNAGATA
VT
tp367
asg63
I1992
sg51
V1
sbag1
(g2
g3
NtRp368
(dp369
g57
V10.1105/tpc.002550
p370
sg53
VPLANT CELL
p371
sg55
V14
p372
sg84
(lp373
(VNAKAGAMI
VH
tp374
asg63
I2002
sg51
VLANT
p375
sbag1
(g2
g3
NtRp376
(dp377
g57
V10.1016/S0014-5793(01)03098-8
p378
sg53
VFEBS LETT
p379
sg55
V508
p380
sg84
(lp381
(VPAN
VL
tp382
asg63
I2001
sg51
V375
p383
sbag1
(g2
g3
NtRp384
(dp385
g57
V10.1105/tpc.12.4.479
p386
sg53
VPLANT CELL
p387
sg55
V12
p388
sg84
(lp389
(VQUEITSCH
VC
tp390
asg63
I2000
sg51
VLANT
p391
sbag1
(g2
g3
NtRp392
(dp393
g57
V10.1002/elps.11501501223
p394
sg53
VELECTROPHORESIS
p395
sg55
V15
p396
sg84
(lp397
(VRABILLOUD
VT
tp398
asg63
I1994
sg51
V1552
p399
sbag1
(g2
g3
NtRp400
(dp401
g57
V10.1002/elps.1150180303
p402
sg53
VELECTROPHORESIS
p403
sg55
V18
p404
sg84
(lp405
(VRABILLOUD
VT
tp406
asg63
I1997
sg51
V307
p407
sbag1
(g2
g3
NtRp408
(dp409
g57
Nsg53
VPLANT PHYSIOL
p410
sg55
V109
p411
sg84
(lp412
(VROBERTS
VC
tp413
asg63
I1995
sg51
VLANT
p414
sbag1
(g2
g3
NtRp415
(dp416
g57
Nsg53
VMOL CELL BIOL
p417
sg55
V13
p418
sg84
(lp419
(VROWLEY
VA
tp420
asg63
I1993
sg51
V1034
p421
sbag1
(g2
g3
NtRp422
(dp423
g57
V10.1074/jbc.M110897200
p424
sg53
VJ BIOL CHEM
p425
sg55
V277
p426
sg84
(lp427
(VSAH
VJ F
tp428
asg63
I2002
sg51
V9728
p429
sbag1
(g2
g3
NtRp430
(dp431
g57
V10.1016/0168-9452(94)90057-4
p432
sg53
VPLANT SCI
p433
sg55
V97
p434
sg84
(lp435
(VSAHGAL
VP
tp436
asg63
I1994
sg51
VLANT
p437
sbag1
(g2
g3
NtRp438
(dp439
g57
Nsg53
VPLANT CELL PHYSIOL
p440
sg55
V40
p441
sg84
(lp442
(VSANO
VT
tp443
asg63
I1999
sg51
VLANT
p444
sbag1
(g2
g3
NtRp445
(dp446
g57
Nsg53
VPLANT CELL CYCLE ITS
p447
sg55
Nsg84
(lp448
(VSAUTER
VM
tp449
asg63
I2001
sg51
VLANT
p450
sbag1
(g2
g3
NtRp451
(dp452
g57
V10.1016/S0091-679X(08)61476-4
p453
sg53
VMETHOD CELL BIOL
p454
sg55
V49
p455
sg84
(lp456
(VSHIMAZAKI
VK I
tp457
asg63
I1995
sg51
V501
p458
sbag1
(g2
g3
NtRp459
(dp460
g57
V10.1016/S1097-2765(00)80230-0
p461
sg53
VMOL CELL
p462
sg55
V4
sg84
(lp463
(VSTEBBINS-BOAZ
VB
tp464
asg63
I1999
sg51
V1017
p465
sbag1
(g2
g3
NtRp466
(dp467
g57
V10.1093/jexbot/49.suppl_1.377
p468
sg53
VJ EXP BOT
p469
sg55
V49
p470
sg84
(lp471
(VTAYLOR
VJ E
tp472
asg63
I1998
sg51
V377
p473
sbag1
(g2
g3
NtRp474
(dp475
g57
V10.1073/pnas.121172998
p476
sg53
VP NATL ACAD SCI USA
p477
sg55
V98
p478
sg84
(lp479
(VTROTTER
VE W
tp480
asg63
I2001
sg51
V7313
p481
sbag1
(g2
g3
NtRp482
(dp483
g57
Nsg53
VP NATL ACAD SCI USA
p484
sg55
V87
p485
sg84
(lp486
(VVANDERSTRAETEN
VD
tp487
asg63
I1990
sg51
V4859
p488
sbag1
(g2
g3
NtRp489
(dp490
g57
V10.1046/j.1365-313X.1998.00231.x
p491
sg53
VPLANT J
p492
sg55
V15
p493
sg84
(lp494
(VWANG
VH
tp495
asg63
I1998
sg51
VLANT
p496
sbag1
(g2
g3
NtRp497
(dp498
g57
V10.1046/j.1365-313x.2000.00899.x
p499
sg53
VPLANT J
p500
sg55
V24
p501
sg84
(lp502
(VWANG
VH
tp503
asg63
I2000
sg51
VLANT
p504
sbag1
(g2
g3
NtRp505
(dp506
g57
V10.1016/0092-8674(95)90385-2
p507
sg53
VCELL
p508
sg55
V81
p509
sg84
(lp510
(VWEINBERG
VR A
tp511
asg63
I1995
sg51
V323
p512
sbag1
(g2
g3
NtRp513
(dp514
g57
V10.1034/j.1399-3054.1998.1020407.x
p515
sg53
VPHYSIOL PLANTARUM
p516
sg55
V102
p517
sg84
(lp518
(VWILSON
VC
tp519
asg63
I1998
sg51
VHYSIOL
p520
sbag1
(g2
g3
NtRp521
(dp522
g57
V10.1146/annurev.cellbio.11.1.441
p523
sg53
VANNU REV CELL DEV BI
p524
sg55
V11
p525
sg84
(lp526
(VWU
VC
tp527
asg63
I1995
sg51
V441
p528
sbag1
(g2
g3
NtRp529
(dp530
g57
V10.1073/pnas.89.6.2475
p531
sg53
VP NATL ACAD SCI USA
p532
sg55
V89
p533
sg84
(lp534
(VYIP
VW K
tp535
asg63
I1992
sg51
V2475
p536
sbag1
(g2
g3
NtRp537
(dp538
g57
V10.1074/jbc.M110608200
p539
sg53
VJ BIOL CHEM
p540
sg55
V277
p541
sg84
(lp542
(VYOON
VY M
tp543
asg63
I2002
sg51
V8412
p544
sbag1
(g2
g3
NtRp545
(dp546
g57
V10.1046/j.0014-2956.2001.02553.x
p547
sg53
VEUR J BIOCHEM
p548
sg55
V268
p549
sg84
(lp550
(VYOSIMICHI
VG
tp551
asg63
I2001
sg51
V6058
p552
sbasb.