ccopy_reg
_reconstructor
p1
(ctethne.classes.paper
Paper
p2
c__builtin__
object
p3
NtRp4
(dp5
S'publisherCity'
p6
VROCKVILLE
p7
sS'reprintAddress'
p8
VBerry, JO (reprint author), SUNY Buffalo, Dept Sci Biol, Buffalo, NY 14120 USA.
p9
sS'WC'
p10
VPlant Sciences
p11
sS'GA'
p12
V873XU
p13
sS'abstract'
p14
VMany aspects of photosynthetic gene expression are posttranscriptionally regulated in C-4 plants. To determine if RbcS mRNA untranslated regions (UTRs) in themselves could confer any characteristic C4 expression patterns, 5'- and 3'-UTRs of AhRbcS1 mRNA from the C-4 dicot amaranth were linked to a gusA reporter gene. These were constitutively transcribed from a cauliflower mosaic virus promoter and assayed for posttranscriptional expression patterns in transgenic lines of the C-4 dicot Flaveria bidentis. Three characteristic C-4 expression patterns were conferred by heterologous AhRbcS1 UTRs in transgenic F. bidentis. First, the AhRbcS1 UTRs conferred strong translational enhancement of gusA expression, relative to control constructs lacking these UTRs. Second, while the UTRs did not appear to confer tissue-specific expression when analyzed by beta-glucuronidase activity assays, differences in gusA mRNA accumulation were observed in leaves, stems, and roots. Third, the AhRbcS1 UTRs conferred preferential gusA expression (enzyme activity and gusA mRNA accumulation) in leaf bundle sheath cells. AhRbcS1 UTR-mediated translational enhancement was also observed in transgenic C-3 plants (tobacco [Nicotiana tabacum]) and in in vitro translation extracts. These mRNAs appear to be translated with different efficiencies in C-4 versus C-3 plants, indicating that processes determining overall translational efficiency may vary between these two categories of higher plants. Our findings suggest that the AhRbcS1 5'-UTR functions as a strong translational enhancer in leaves and other tissues, and may work synergistically with the 3'-UTR to modulate overall levels of Rubisco gene expression in different tissues and cell types of C-4 plants.
p15
sS'pageEnd'
p16
I3561
sS'publisherAddress'
p17
V15501 MONONA DRIVE, ROCKVILLE, MD 20855 USA
p18
sS'documentType'
p19
VArticle
p20
sS'subject'
p21
VPlant Sciences
p22
sS'isoSource'
p23
VPlant Physiol.
p24
sS'timesCited'
p25
(lp26
I16
aVZ9 16
p27
asS'PT'
p28
VJ
sS'title'
p29
VUntranslated Regions From C-4 Amaranth Ahrbcs1 Mrnas Confer Translational Enhancement And Preferential Bundle Sheath Cell Expression In Transgenic C-4 Flaveria Bidentis
p30
sS'ISSN'
p31
(lp32
V0032-0889
p33
aVJ9 PLANT PHYSIOL
p34
asS'authors_full'
p35
(lp36
(VPATEL
VM
tp37
a(VCOREY
VAC
tp38
a(VYIN
VLP
tp39
a(VALI
VSJ
tp40
a(VTAYLOR
VWC
tp41
a(VBERRY
VJO
tp42
asS'PG'
p43
I12
sS'PD'
p44
VNOV
p45
sS'pageStart'
p46
I3550
sS'issue'
p47
I3
sS'journal'
p48
VPLANT PHYSIOLOGY
p49
sS'volume'
p50
V136
p51
sS'doi'
p52
V10.1104/pp.104.051508
p53
sS'emailAddress'
p54
Vcamjob@buffalo.edu
p55
sS'authorAddress'
p56
(lp57
VSUNY Buffalo, Dept Sci Biol, Buffalo, NY 14120 USA.
p58
aVCapital Norma Univ, Dept Biol, Beijing 100037, Peoples R China.
p59
aVCSIRO, Div Plant Ind, Canberra, ACT 2601, Australia.
p60
asS'date'
p61
I2004
sS'ER'
p62
V
sS'publisher'
p63
VAMER SOC PLANT BIOLOGISTS
p64
sS'authorKeywords'
p65
(lp66
VENCODING RIBULOSE-1,5-BISPHOSPHATE CARBOXYLASE
p67
aVPHOTOSYNTHETIC GENE-EXPRESSION
p68
aV3 RBCS SUBFAMILIES
p69
aVVIRUS NS1 PROTEIN
p70
aVHIGHER-PLANTS
p71
aVPOSTTRANSCRIPTIONAL REGULATION
p72
aVNICOTIANA-PLUMBAGINIFOLIA
p73
aVORTHOPHOSPHATE DIKINASE
p74
aVPROMOTER ACTIVITY
p75
aVANTIFUNGAL TOXIN
p76
asS'language'
p77
VEnglish
p78
sS'wosid'
p79
VWOS:000225315600016
p80
sS'citationCount'
p81
I77
sS'authors_init'
p82
(lp83
(VPATEL
VM
tp84
a(VCOREY
VA C
tp85
a(VYIN
VL P
tp86
a(VALI
VS J
tp87
a(VTAYLOR
VW C
tp88
a(VBERRY
VJ O
tp89
asS'citedReferences'
p90
(lp91
g1
(g2
g3
NtRp92
(dp93
g52
V10.1023/A:1010684509008
p94
sg48
VPLANT MOL BIOL
p95
sg50
V46
p96
sg82
(lp97
(VALI
VS
tp98
asg61
I2001
sg46
VLANT
p99
sbag1
(g2
g3
NtRp100
(dp101
g52
V10.1023/A:1010669204137
p102
sg48
VPLANT MOL BIOL
p103
sg50
V46
p104
sg82
(lp105
(VALI
VS
tp106
asg61
I2001
sg46
VLANT
p107
sbag1
(g2
g3
NtRp108
(dp109
g52
Nsg48
VMETHOD ENZYMOL
p110
sg50
V153
p111
sg82
(lp112
(VAN
VG
tp113
asg61
I1987
sg46
V292
p114
sbag1
(g2
g3
NtRp115
(dp116
g52
V10.1073/pnas.89.8.3654
p117
sg48
VP NATL ACAD SCI USA
p118
sg50
V89
p119
sg82
(lp120
(VBANSAL
VK C
tp121
asg61
I1992
sg46
V3654
p122
sbag1
(g2
g3
NtRp123
(dp124
g52
V10.1046/j.1365-313X.1996.10040613.x
p125
sg48
VPLANT J
p126
sg50
V10
p127
sg82
(lp128
(VBATE
VN
tp129
asg61
I1996
sg46
VLANT
p130
sbag1
(g2
g3
NtRp131
(dp132
g52
Nsg48
VAUST J PLANT PHYSIOL
p133
sg50
V24
p134
sg82
(lp135
(VBERRY
VJ O
tp136
asg61
I1997
sg46
V423
p137
sbag1
(g2
g3
NtRp138
(dp139
g52
Nsg48
VPLANT CELL
p140
sg50
V2
sg82
(lp141
(VBERRY
VJ O
tp142
asg61
I1990
sg46
VLANT
p143
sbag1
(g2
g3
NtRp144
(dp145
g52
Nsg48
VMOL CELL BIOL
p146
sg50
V5
sg82
(lp147
(VBERRY
VJ O
tp148
asg61
I1985
sg46
V2238
p149
sbag1
(g2
g3
NtRp150
(dp151
g52
V10.1073/pnas.85.12.4190
p152
sg48
VP NATL ACAD SCI USA
p153
sg50
V85
p154
sg82
(lp155
(VBERRY
VJ O
tp156
asg61
I1988
sg46
V4190
p157
sbag1
(g2
g3
NtRp158
(dp159
g52
V10.1007/BF00015971
p160
sg48
VPLANT MOL BIOL
p161
sg50
V22
p162
sg82
(lp163
(VBOINSKI
VJ J
tp164
asg61
I1993
sg46
VLANT
p165
sbag1
(g2
g3
NtRp166
(dp167
g52
V10.1046/j.1365-313X.1994.6060949.x
p168
sg48
VPLANT J
p169
sg50
V6
sg82
(lp170
(VCHITTY
VJ A
tp171
asg61
I1994
sg46
VLANT
p172
sbag1
(g2
g3
NtRp173
(dp174
g52
V10.1017/S1355838200992264
p175
sg48
VRNA
p176
sg50
V6
sg82
(lp177
(VCHIZHIKOV
VV
tp178
asg61
I2000
sg46
V814
p179
sbag1
(g2
g3
NtRp180
(dp181
g52
Nsg48
VPlant Physiology
p182
sg50
V120
p183
sg82
(lp184
(VCOREY
VA C
tp185
asg61
I1999
sg46
Vlant
p186
sbag1
(g2
g3
NtRp187
(dp188
g52
Nsg48
VCURR BIOL
p189
sg50
V4
sg82
(lp190
(VCORY
VJ
tp191
asg61
I1994
sg46
V844
p192
sbag1
(g2
g3
NtRp193
(dp194
g52
Nsg48
VANNU REV PLANT PHYS
p195
sg50
V40
p196
sg82
(lp197
(VDEAN
VC
tp198
asg61
I1989
sg46
V415
p199
sbag1
(g2
g3
NtRp200
(dp201
g52
V10.1104/pp.101.3.801
p202
sg48
VPLANT PHYSIOL
p203
sg50
V101
p204
sg82
(lp205
(VDEDONDER
VA
tp206
asg61
I1993
sg46
VLANT
p207
sbag1
(g2
g3
NtRp208
(dp209
g52
Nsg48
VJ VIROL
p210
sg50
V69
p211
sg82
(lp212
(VDELALUNA
VS
tp213
asg61
I1995
sg46
V2427
p214
sbag1
(g2
g3
NtRp215
(dp216
g52
Nsg48
VBIOCH PLANTS COMPREH
p217
sg50
V8
sg82
(lp218
(VEDWARDS
VG E
tp219
asg61
I1981
sg46
V237
p220
sbag1
(g2
g3
NtRp221
(dp222
g52
Nsg48
VEMBO J
p223
sg50
V5
sg82
(lp224
(VFLUHR
VR
tp225
asg61
I1986
sg46
V2063
p226
sbag1
(g2
g3
NtRp227
(dp228
g52
Nsg48
VADV PHOTOSYNTHESIS P
p229
sg50
Nsg82
(lp230
(VFURBANK
VR T
tp231
asg61
I2000
sg46
V459
p232
sbag1
(g2
g3
NtRp233
(dp234
g52
Nsg48
VPLANT CELL
p235
sg50
V7
sg82
(lp236
(VFURBANK
VR T
tp237
asg61
I1995
sg46
VLANT
p238
sbag1
(g2
g3
NtRp239
(dp240
g52
V10.1007/s004380051216
p241
sg48
VMOL GEN GENET
p242
sg50
V263
p243
sg82
(lp244
(VGALILI
VS
tp245
asg61
I2000
sg46
V674
p246
sbag1
(g2
g3
NtRp247
(dp248
g52
V10.1016/S0168-9452(98)00187-3
p249
sg48
VPLANT SCI
p250
sg50
V139
p251
sg82
(lp252
(VGALILI
VS
tp253
asg61
I1998
sg46
VLANT
p254
sbag1
(g2
g3
NtRp255
(dp256
g52
Nsg48
VPLANT CELL
p257
sg50
V1
sg82
(lp258
(VGALLIE
VD R
tp259
asg61
I1989
sg46
VLANT
p260
sbag1
(g2
g3
NtRp261
(dp262
g52
V10.1093/nar/gkf457
p263
sg48
VNUCLEIC ACIDS RES
p264
sg50
V30
p265
sg82
(lp266
(VGALLIE
VD R
tp267
asg61
I2002
sg46
V3401
p268
sbag1
(g2
g3
NtRp269
(dp270
g52
V10.1146/annurev.arplant.44.1.77
p271
sg48
VANNU REV PLANT PHYS
p272
sg50
V44
p273
sg82
(lp274
(VGALLIE
VD R
tp275
asg61
I1993
sg46
V77
p276
sbag1
(g2
g3
NtRp277
(dp278
g52
V10.1007/BF00039381
p279
sg48
VPLANT MOL BIOL
p280
sg50
V32
p281
sg82
(lp282
(VGALLIE
VD R
tp283
asg61
I1996
sg46
VLANT
p284
sbag1
(g2
g3
NtRp285
(dp286
g52
V10.1016/S0378-1119(98)00318-7
p287
sg48
VGENE
p288
sg50
V216
p289
sg82
(lp290
(VGALLIE
VD R
tp291
asg61
I1998
sg46
V1
sbag1
(g2
g3
NtRp292
(dp293
g52
V10.1104/pp.106.3.929
p294
sg48
VPLANT PHYSIOL
p295
sg50
V106
p296
sg82
(lp297
(VGALLIE
VD R
tp298
asg61
I1994
sg46
VLANT
p299
sbag1
(g2
g3
NtRp300
(dp301
g52
Nsg48
VANNU REV GENET
p302
sg50
V28
p303
sg82
(lp304
(VGILLHAM
VN W
tp305
asg61
I1994
sg46
V71
p306
sbag1
(g2
g3
NtRp307
(dp308
g52
Nsg48
VPLANT CELL
p309
sg50
V2
sg82
(lp310
(VGILMARTIN
VP M
tp311
asg61
I1990
sg46
VLANT
p312
sbag1
(g2
g3
NtRp313
(dp314
g52
V10.1105/tpc.019729
p315
sg48
VPLANT CELL
p316
sg50
V16
p317
sg82
(lp318
(VGOWIK
VU
tp319
asg61
I2004
sg46
VLANT
p320
sbag1
(g2
g3
NtRp321
(dp322
g52
Nsg48
VBIOCHEM J
p323
sg50
V101
p324
sg82
(lp325
(VHATCH
VM D
tp326
asg61
I1966
sg46
V103
p327
sbag1
(g2
g3
NtRp328
(dp329
g52
Nsg48
VAUST J PLANT PHYSIOL
p330
sg50
V24
p331
sg82
(lp332
(VHATCH
VM D
tp333
asg61
I1997
sg46
V413
p334
sbag1
(g2
g3
NtRp335
(dp336
g52
V10.1105/tpc.5.5.553
p337
sg48
VPLANT CELL
p338
sg50
V5
sg82
(lp339
(VHENSEL
VL L
tp340
asg61
I1993
sg46
VLANT
p341
sbag1
(g2
g3
NtRp342
(dp343
g52
V10.1007/BF02667740
p344
sg48
VPLANT MOL BIOL REP
p345
sg50
V5
sg82
(lp346
(VJEFFERSON
VR
tp347
asg61
I1987
sg46
VLANT
p348
sbag1
(g2
g3
NtRp349
(dp350
g52
Nsg48
VPLANT CELL
p351
sg50
V7
sg82
(lp352
(VKINAL
VH
tp353
asg61
I1995
sg46
VLANT
p354
sbag1
(g2
g3
NtRp355
(dp356
g52
V10.1016/S0378-1119(99)00210-3
p357
sg48
VGENE
p358
sg50
V234
p359
sg82
(lp360
(VKOZAK
VM
tp361
asg61
I1999
sg46
V187
p362
sbag1
(g2
g3
NtRp363
(dp364
g52
V10.1111/j.1365-313X.1993.00817.x
p365
sg48
VPLANT J
p366
sg50
V3
sg82
(lp367
(VKRAPP
VA
tp368
asg61
I1993
sg46
VLANT
p369
sbag1
(g2
g3
NtRp370
(dp371
g52
V10.1007/BF00029605
p372
sg48
VPLANT MOL BIOL
p373
sg50
V25
p374
sg82
(lp375
(VKUBICKI
VA
tp376
asg61
I1994
sg46
VLANT
p377
sbag1
(g2
g3
NtRp378
(dp379
g52
V10.1093/jexbot/53.369.581
p380
sg48
VJ EXP BOT
p381
sg50
V53
p382
sg82
(lp383
(VLEEGOOD
VR C
tp384
asg61
I2002
sg46
V581
p385
sbag1
(g2
g3
NtRp386
(dp387
g52
V10.1105/tpc.12.7.1213
p388
sg48
VPLANT CELL
p389
sg50
V12
p390
sg82
(lp391
(VLING
VJ
tp392
asg61
I2000
sg46
VLANT
p393
sbag1
(g2
g3
NtRp394
(dp395
g52
Nsg48
VPLANT PHYSIOL
p396
sg50
V112
p397
sg82
(lp398
(VLONG
VJ J
tp399
asg61
I1996
sg46
VLANT
p400
sbag1
(g2
g3
NtRp401
(dp402
g52
V10.1016/S0168-9452(00)00195-3
p403
sg48
VPLANT SCI
p404
sg50
V154
p405
sg82
(lp406
(VLUKASZEWICZ
VM
tp407
asg61
I2000
sg46
VLANT
p408
sbag1
(g2
g3
NtRp409
(dp410
g52
V10.1007/BF00039489
p411
sg48
VPHOTOSYNTH RES
p412
sg50
V16
p413
sg82
(lp414
(VMANZARA
VT
tp415
asg61
I1988
sg46
VHOTOSYNTH
p416
sbag1
(g2
g3
NtRp417
(dp418
g52
V10.1146/annurev.arplant.52.1.297
p419
sg48
VANNU REV PLANT PHYS
p420
sg50
V52
p421
sg82
(lp422
(VMATSUOKA
VM
tp423
asg61
I2001
sg46
V297
p424
sbag1
(g2
g3
NtRp425
(dp426
g52
V10.1073/pnas.90.20.9586
p427
sg48
VP NATL ACAD SCI USA
p428
sg50
V90
p429
sg82
(lp430
(VMATSUOKA
VM
tp431
asg61
I1993
sg46
V9586
p432
sbag1
(g2
g3
NtRp433
(dp434
g52
V10.1146/annurev.pp.46.060195.001051
p435
sg48
VANNU REV PLANT PHYS
p436
sg50
V46
p437
sg82
(lp438
(VMAYFIELD
VS P
tp439
asg61
I1995
sg46
V147
p440
sbag1
(g2
g3
NtRp441
(dp442
g52
Nsg48
VPLANT PHYSIOL
p443
sg50
V114
p444
sg82
(lp445
(VMCCORMAC
VD
tp446
asg61
I1997
sg46
VLANT
p447
sbag1
(g2
g3
NtRp448
(dp449
g52
V10.1104/pp.107.4.1105
p450
sg48
VPLANT PHYSIOL
p451
sg50
V107
p452
sg82
(lp453
(VMEIER
VI
tp454
asg61
I1995
sg46
VLANT
p455
sbag1
(g2
g3
NtRp456
(dp457
g52
V10.1146/annurev.bi.52.070183.002451
p458
sg48
VANNU REV BIOCHEM
p459
sg50
V52
p460
sg82
(lp461
(VMIZIORKO
VH M
tp462
asg61
I1983
sg46
V507
p463
sbag1
(g2
g3
NtRp464
(dp465
g52
V10.1146/annurev.pp.43.060192.000325
p466
sg48
VANNU REV PLANT PHYS
p467
sg50
V43
p468
sg82
(lp469
(VNELSON
VT
tp470
asg61
I1992
sg46
V25
p471
sbag1
(g2
g3
NtRp472
(dp473
g52
V10.1104/pp.85.1.167
p474
sg48
VPLANT PHYSIOL
p475
sg50
V85
p476
sg82
(lp477
(VNIKOLAU
VB J
tp478
asg61
I1987
sg46
VLANT
p479
sbag1
(g2
g3
NtRp480
(dp481
g52
V10.1046/j.1365-313x.2000.00726.x
p482
sg48
VPLANT J
p483
sg50
V22
p484
sg82
(lp485
(VNOMURA
VM
tp486
asg61
I2000
sg46
VLANT
p487
sbag1
(g2
g3
NtRp488
(dp489
g52
V10.1023/A:1006461812053
p490
sg48
VPLANT MOL BIOL
p491
sg50
V44
p492
sg82
(lp493
(VNOMURA
VM
tp494
asg61
I2000
sg46
VLANT
p495
sbag1
(g2
g3
NtRp496
(dp497
g52
V10.1007/BF00020122
p498
sg48
VPLANT MOL BIOL
p499
sg50
V30
p500
sg82
(lp501
(VPARK
VC M
tp502
asg61
I1996
sg46
VLANT
p503
sbag1
(g2
g3
NtRp504
(dp505
g52
V10.1104/pp.100.4.1827
p506
sg48
VPLANT PHYSIOL
p507
sg50
V100
p508
sg82
(lp509
(VPITTO
VL
tp510
asg61
I1992
sg46
VLANT
p511
sbag1
(g2
g3
NtRp512
(dp513
g52
V10.1007/BF00430426
p514
sg48
VMOL GEN GENET
p515
sg50
V205
p516
sg82
(lp517
(VPOULSEN
VC
tp518
asg61
I1986
sg46
V193
p519
sbag1
(g2
g3
NtRp520
(dp521
g52
V10.1007/BF00340173
p522
sg48
VMOL GEN GENET
p523
sg50
V214
p524
sg82
(lp525
(VPOULSEN
VC
tp526
asg61
I1988
sg46
V16
p527
sbag1
(g2
g3
NtRp528
(dp529
g52
Nsg48
VPLANT PHYSIOL
p530
sg50
V111
p531
sg82
(lp532
(VRAMSPERGER
VV C
tp533
asg61
I1996
sg46
VLANT
p534
sbag1
(g2
g3
NtRp535
(dp536
g52
Nsg48
VPLANT CELL
p537
sg50
V8
sg82
(lp538
(VROTH
VR
tp539
asg61
I1996
sg46
VLANT
p540
sbag1
(g2
g3
NtRp541
(dp542
g52
V10.1104/pp.85.2.355
p543
sg48
VPLANT PHYSIOL
p544
sg50
V85
p545
sg82
(lp546
(VSAGE
VR F
tp547
asg61
I1987
sg46
VLANT
p548
sbag1
(g2
g3
NtRp549
(dp550
g52
V10.1028/JVI.76.3.1206-1212.2002
p551
sg48
VJ VIROL
p552
sg50
V76
p553
sg82
(lp554
(VSALVATORE
VM
tp555
asg61
I2002
sg46
V1206
p556
sbag1
(g2
g3
NtRp557
(dp558
g52
V10.1104/pp.126.4.1630
p559
sg48
VPLANT PHYSIOL
p560
sg50
V126
p561
sg82
(lp562
(VSAWANT
VS V
tp563
asg61
I2001
sg46
VLANT
p564
sbag1
(g2
g3
NtRp565
(dp566
g52
V10.1105/tpc.3.9.997
p567
sg48
VPLANT CELL
p568
sg50
V3
sg82
(lp569
(VSCHAFFNER
VA R
tp570
asg61
I1991
sg46
VLANT
p571
sbag1
(g2
g3
NtRp572
(dp573
g52
V10.1038/nature02361
p574
sg48
VNATURE
p575
sg50
V428
p576
sg82
(lp577
(VSCHNEIDER
VH
tp578
asg61
I2004
sg46
V553
p579
sbag1
(g2
g3
NtRp580
(dp581
g52
V10.1146/annurev.arplant.50.1.187
p582
sg48
VANNU REV PLANT PHYS
p583
sg50
V50
p584
sg82
(lp585
(VSHEEN
VJ
tp586
asg61
I1999
sg46
V187
p587
sbag1
(g2
g3
NtRp588
(dp589
g52
V10.1105/tpc.2.10.1027
p590
sg48
VPLANT CELL
p591
sg50
V2
sg82
(lp592
(VSHEEN
VJ
tp593
asg61
I1990
sg46
VLANT
p594
sbag1
(g2
g3
NtRp595
(dp596
g52
V10.1093/nar/18.11.3377
p597
sg48
VNUCLEIC ACIDS RES
p598
sg50
V18
p599
sg82
(lp600
(VSHIRLEY
VB W
tp601
asg61
I1990
sg46
V3377
p602
sbag1
(g2
g3
NtRp603
(dp604
g52
Nsg48
VPLANT SCI
p605
sg50
V165
p606
sg82
(lp607
(VSHOICHI
VS
tp608
asg61
I2003
sg46
VLANT
p609
sbag1
(g2
g3
NtRp610
(dp611
g52
Nsg48
VPLANT CELL
p612
sg50
V2
sg82
(lp613
(VSILVERTHORNE
VJ
tp614
asg61
I1990
sg46
VLANT
p615
sbag1
(g2
g3
NtRp616
(dp617
g52
V10.1016/S1360-1385(97)89953-0
p618
sg48
VTRENDS PLANT SCI
p619
sg50
V2
sg82
(lp620
(VSTERN
VD B
tp621
asg61
I1997
sg46
V308
p622
sbag1
(g2
g3
NtRp623
(dp624
g52
V10.1016/S1570-8659(05)80034-1
p625
sg48
VHDB NUMERICAL ANAL
p626
sg50
V1
sg82
(lp627
(VTHOMEE
VV
tp628
asg61
I1990
sg46
V5
sbag1
(g2
g3
NtRp629
(dp630
g52
V10.1073/pnas.91.18.8577
p631
sg48
VP NATL ACAD SCI USA
p632
sg50
V91
p633
sg82
(lp634
(VVIRET
VJ F
tp635
asg61
I1994
sg46
V8577
p636
sbag1
(g2
g3
NtRp637
(dp638
g52
V10.1016/0952-8180(92)90111-D
p639
sg48
VJ Clin Anesth
p640
sg50
V4
sg82
(lp641
(VWANG
VY
tp642
asg61
I1992
sg46
V4
sbag1
(g2
g3
NtRp643
(dp644
g52
Nsg48
VCHINESE CHEM LETT
p645
sg50
V4
sg82
(lp646
(VWANG
VZ G
tp647
asg61
I1993
sg46
V289
p648
sbag1
(g2
g3
NtRp649
(dp650
g52
V10.1105/tpc.3.12.1289
p651
sg48
VPLANT CELL
p652
sg50
V3
sg82
(lp653
(VWANNER
VL A
tp654
asg61
I1991
sg46
VLANT
p655
sbasb.