ccopy_reg
_reconstructor
p1
(ctethne.classes.paper
Paper
p2
c__builtin__
object
p3
NtRp4
(dp5
S'publisherCity'
p6
VROCKVILLE
p7
sS'reprintAddress'
p8
VSexton, TR (reprint author), Univ British Columbia, Dept Forest Sci, Vancouver, BC V6T 1Z4, Canada.
p9
sS'WC'
p10
VPlant Sciences
p11
sS'GA'
p12
V870IL
p13
sS'FX'
p14
(lp15
VThis work was supported by the Cooperative Research Centre for Forestry
p16
aV(funding for the molecular and association studies).
p17
asS'abstract'
p18
VThis association study of Eucalyptus pilularis populations provides empirical evidence for the role of Pectin Methylesterase (PME) in influencing solid wood characteristics of Eucalyptus. PME6 was primarily associated with the shrinkage and collapse of drying timber, which are phenotypic traits consistent with the role of pectin as a hydrophilic polysaccharide. PME7 was primarily associated with cellulose and pulp yield traits and had an inverse correlation with lignin content. Selection of specific alleles in these genes may be important for improving trees as sources of high-quality wood products. A heterozygote advantage was postulated for the PME7 loci and, in combination with haplotype blocks, may explain the absence of a homozygous class at all single-nucleotide polymorphisms investigated in this gene.
p19
sS'pageEnd'
p20
I541
sS'date'
p21
I2012
sS'documentType'
p22
VArticle
p23
sS'subject'
p24
VPlant Sciences
p25
sS'isoSource'
p26
VPlant Physiol.
p27
sS'timesCited'
p28
(lp29
I2
aVZ9 3
p30
asS'funding'
p31
(lp32
(VCooperative Research Centre for Forestry
Ntp33
asS'PT'
p34
VJ
sS'title'
p35
VPectin Methylesterase Genes Influence Solid Wood Properties Of Eucalyptus Pilularis
p36
sS'ISSN'
p37
(lp38
V0032-0889
p39
aVJ9 PLANT PHYSIOL
p40
asS'authors_full'
p41
(lp42
(VSEXTON
VTIMOTHY R
tp43
a(VHENRY
VROBERT J
tp44
a(VHARWOOD
VCHRIS E
tp45
a(VTHOMAS
VDANE S
tp46
a(VMCMANUS
VLUKE J
tp47
a(VRAYMOND
VCAROLYN
tp48
a(VHENSON
VMICHAEL
tp49
a(VSHEPHERD
VMERVYN
tp50
asS'PG'
p51
I11
sS'PD'
p52
VJAN
p53
sS'pageStart'
p54
I531
sS'issue'
p55
I1
sS'RI'
p56
(lp57
VHenry, Robert/B-5824-2008; Sexton, Timothy /H-5961-2012; CSIRO,
p58
aVSAF/H-3134-2013; Harwood, Chris /C-5060-2009
p59
asS'journal'
p60
VPLANT PHYSIOLOGY
p61
sS'volume'
p62
V158
p63
sS'doi'
p64
V10.1104/pp.111.181602
p65
sS'emailAddress'
p66
Vsexton.timothy@gmail.com
p67
sS'authorAddress'
p68
(lp69
V[Sexton, Timothy R.; Henry, Robert J.; Harwood, Chris E.; McManus, Luke J.; Shepherd, Mervyn] Cooperat Res Ctr Forestry, Hobart, Tas 7001, Australia.
p70
aV[Sexton, Timothy R.; Henry, Robert J.; Raymond, Carolyn; Shepherd, Mervyn] So Cross Univ, Lismore, NSW 2480, Australia.
p71
aV[Henry, Robert J.] Univ Queensland, Brisbane, Qld 4072, Australia.
p72
aV[Harwood, Chris E.] CSIRO Ecosyst Sci, Hobart, Tas 7001, Australia.
p73
aV[Thomas, Dane S.; Henson, Michael] Forests New S Wales, Land Management & Forestry Serv, Coffs Harbour, NSW 2450, Australia.
p74
aV[Thomas, Dane S.] Waite Res Precinct, S Australian Res & Dev Inst, Urrbrae, SA 5064, Australia.
p75
aV[McManus, Luke J.] Univ Melbourne, Forest Mol Biol & Genet Grp, Creswick, Vic 3363, Australia.
p76
aV[Henson, Michael] Eucalyptus Biz Ltd, Surrey GU236DX, England.
p77
asS'publisherAddress'
p78
V15501 MONONA DRIVE, ROCKVILLE, MD 20855 USA
p79
sS'ER'
p80
V
sS'publisher'
p81
VAMER SOC PLANT BIOLOGISTS
p82
sS'authorKeywords'
p83
(lp84
VASSOCIATION GENETICS
p85
aVCOMPLEX TRAITS
p86
aVMICROARRAY DATA
p87
aVPULP YIELD
p88
aVGLOBULUS
p89
aVGROWTH
p90
aVPOLYMORPHISMS
p91
aVSOFTWARE
p92
aVGENOMICS
p93
aVPOPULUS
p94
asS'OI'
p95
VHenry, Robert/0000-0002-4060-0292; 
p96
sS'language'
p97
VEnglish
p98
sS'wosid'
p99
VWOS:000298662500044
p100
sS'citationCount'
p101
I58
sS'authors_init'
p102
(lp103
(VSEXTON
VT R
tp104
a(VHENRY
VR J
tp105
a(VHARWOOD
VC E
tp106
a(VTHOMAS
VD S
tp107
a(VMCMANUS
VL J
tp108
a(VRAYMOND
VC
tp109
a(VHENSON
VM
tp110
a(VSHEPHERD
VM
tp111
asS'citedReferences'
p112
(lp113
g1
(g2
g3
NtRp114
(dp115
g64
V10.1007/s00425-004-1246-1
p116
sg60
VPLANTA
p117
sg62
V219
p118
sg102
(lp119
(VAL-QSOUS
VS
tp120
asg21
I2004
sg54
VLANTA
p121
sbag1
(g2
g3
NtRp122
(dp123
g64
V10.1016/j.plaphy.2011.02.020
p124
sg60
VPLANT PHYSIOL BIOCH
p125
sg62
V49
p126
sg102
(lp127
(VGOULAO
VL F
tp128
asg21
I2011
sg54
VLANT
p129
sbag1
(g2
g3
NtRp130
(dp131
g64
V10.1534/genetics.110.125781
p132
sg60
VGENETICS
p133
sg62
V188
p134
sg102
(lp135
(VBEAULIEU
VJ
tp136
asg21
I2011
sg54
V197
p137
sbag1
(g2
g3
NtRp138
(dp139
g64
Nsg60
VP145
p140
sg62
Nsg102
(lp141
(VBEAVIS
VWILLIAM D
tp142
asg21
I1998
sg54
V145
p143
sbag1
(g2
g3
NtRp144
(dp145
g64
Nsg60
VFOREST TREES AUSTR
p146
sg62
Nsg102
(lp147
(VBOLAND
VD J
tp148
asg21
I2006
sg54
Nsbag1
(g2
g3
NtRp149
(dp150
g64
V10.1093/bioinformatics/btm308
p151
sg60
VBIOINFORMATICS
p152
sg62
V23
p153
sg102
(lp154
(VBRADBURY
VP J
tp155
asg21
I2007
sg54
V2633
p156
sbag1
(g2
g3
NtRp157
(dp158
g64
Nsg60
VTRAIT ANAL ASS EVOLU
p159
sg62
Nsg102
(lp160
(VBUCKLER
VE
tp161
asg21
I2009
sg54
Nsbag1
(g2
g3
NtRp162
(dp163
g64
Nsg60
VMARKER ASSISTED SELE
p164
sg62
Nsg102
(lp165
(VBUTCHER
VP
tp166
asg21
I2007
sg54
V284
p167
sbag1
(g2
g3
NtRp168
(dp169
g64
V10.2307/2442382
p170
sg60
VAM J BOT
p171
sg62
V64
p172
sg102
(lp173
(VCARLQUIST
VS
tp174
asg21
I1977
sg54
V887
p175
sbag1
(g2
g3
NtRp176
(dp177
g64
Nsg60
VGENETICS
p178
sg62
V138
p179
sg102
(lp180
(VCHURCHILL
VG A
tp181
asg21
I1994
sg54
V963
p182
sbag1
(g2
g3
NtRp183
(dp184
g64
V10.1186/1471-2105-8-36
p185
sg60
VBMC BIOINFORMATICS
p186
sg62
V8
sg102
(lp187
(VDAVIDOVICH
VO
tp188
asg21
I2007
sg54
Nsbag1
(g2
g3
NtRp189
(dp190
g64
V10.1534/genetics.110.116582
p191
sg60
VGENETICS
p192
sg62
V185
p193
sg102
(lp194
(VDILLON
VS K
tp195
asg21
I2010
sg54
V1477
p196
sbag1
(g2
g3
NtRp197
(dp198
g64
V[10.1534/genetics.109.102350, 10.1534/genetics.108.102350]
p199
sg60
VGENETICS
p200
sg62
V182
p201
sg102
(lp202
(VECKERT
VA J
tp203
asg21
I2009
sg54
V1289
p204
sbag1
(g2
g3
NtRp205
(dp206
g64
Nsg60
VEUCALYPT DOMESTICATI
p207
sg62
Nsg102
(lp208
(VELDRIDGE
VK
tp209
asg21
I1993
sg54
Nsbag1
(g2
g3
NtRp210
(dp211
g64
V10.1007/BF02595811
p212
sg60
VTEST
p213
sg62
V12
p214
sg102
(lp215
(VGE
VY C
tp216
asg21
I2003
sg54
V1
sbag1
(g2
g3
NtRp217
(dp218
g64
V10.1038/nrg2575
p219
sg60
VNAT REV GENET
p220
sg62
V10
p221
sg102
(lp222
(VGODDARD
VM E
tp223
asg21
I2009
sg54
V381
p224
sbag1
(g2
g3
NtRp225
(dp226
g64
V10.1038/hdy.2008.21
p227
sg60
VHEREDITY
p228
sg62
V101
p229
sg102
(lp230
(VGONZALEZ-MARTINEZ
VS C
tp231
asg21
I2008
sg54
V19
p232
sbag1
(g2
g3
NtRp233
(dp234
g64
V10.1534/genetics.106.061127
p235
sg60
VGENETICS
p236
sg62
V175
p237
sg102
(lp238
(VGONZALEZ-MARTINEZ
VS C
tp239
asg21
I2007
sg54
V399
p240
sbag1
(g2
g3
NtRp241
(dp242
g64
V10.1093/treephys/tpq101
p243
sg60
VTREE PHYSIOL
p244
sg62
V31
p245
sg102
(lp246
(VGORTAN
VE
tp247
asg21
I2011
sg54
V48
p248
sbag1
(g2
g3
NtRp249
(dp250
g64
VDOI 10.1007/S11295-010-0328-4
p251
sg60
VTREE GENET GENOMES
p252
sg62
V7
sg102
(lp253
(VGRATTAPAGLIA
VD
tp254
asg21
I2011
sg54
V241
p255
sbag1
(g2
g3
NtRp256
(dp257
g64
V10.1186/1471-2229-11-65
p258
sg60
VBMC PLANT BIOL
p259
sg62
V11
p260
sg102
(lp261
(VGRATTAPAGLIA
VD
tp262
asg21
I2011
sg54
Nsbag1
(g2
g3
NtRp263
(dp264
g64
Nsg60
VMARKER ASSISTED SELE
p265
sg62
Nsg102
(lp266
(VGRATTAPAGLIA
VD
tp267
asg21
I2007
sg54
V252
p268
sbag1
(g2
g3
NtRp269
(dp270
g64
V10.1046/j.1471-8286.2002.00305.x
p271
sg60
VMOL ECOL NOTES
p272
sg62
V2
sg102
(lp273
(VHARDY
VO J
tp274
asg21
I2002
sg54
V618
p275
sbag1
(g2
g3
NtRp276
(dp277
g64
Nsg60
VAustralian Forestry
p278
sg62
V70
p279
sg102
(lp280
(VHENSON
VM
tp281
asg21
I2007
sg54
V4
sbag1
(g2
g3
NtRp282
(dp283
g64
V10.1073/pnas.261293398
p284
sg60
VP NATL ACAD SCI USA
p285
sg62
V98
p286
sg102
(lp287
(VHERTZBERG
VM
tp288
asg21
I2001
sg54
V14732
p289
sbag1
(g2
g3
NtRp290
(dp291
g64
V10.1111/j.1469-8137.2010.03380.x
p292
sg60
VNEW PHYTOL
p293
sg62
V188
p294
sg102
(lp295
(VHOLLIDAY
VJ A
tp296
asg21
I2010
sg54
V501
p297
sbag1
(g2
g3
NtRp298
(dp299
g64
V10.1534/genetics.107.082354
p300
sg60
VGENETICS
p301
sg62
V178
p302
sg102
(lp303
(VINGVARSSON
VP K
tp304
asg21
I2008
sg54
V2217
p305
sbag1
(g2
g3
NtRp306
(dp307
g64
Nsg60
VPLAN DEV DEPLOYING G
p308
sg62
Nsg102
(lp309
(VJOHNSON
VG I
tp310
asg21
I1997
sg54
VLAN
p311
sbag1
(g2
g3
NtRp312
(dp313
g64
Nsg60
V20 RES DIV FOR COMM
p314
sg62
Nsg102
(lp315
(VJOHNSON
VI G
tp316
asg21
I1993
sg54
Nsbag1
(g2
g3
NtRp317
(dp318
g64
V10.1104/pp.103.037960
p319
sg60
VPLANT PHYSIOL
p320
sg62
V135
p321
sg102
(lp322
(VKIRST
VM
tp323
asg21
I2004
sg54
VLANT
p324
sbag1
(g2
g3
NtRp325
(dp326
g64
V10.1111/j.1469-8137.2011.03769.x
p327
sg60
VNEW PHYTOL
p328
sg62
V191
p329
sg102
(lp330
(VKULHEIM
VC
tp331
asg21
I2011
sg54
V1041
p332
sbag1
(g2
g3
NtRp333
(dp334
g64
V10.2307/2445869
p335
sg60
VAM J BOT
p336
sg62
V82
p337
sg102
(lp338
(VLOISELLE
VB A
tp339
asg21
I1995
sg54
V1420
p340
sbag1
(g2
g3
NtRp341
(dp342
g64
Nsg60
VBIOCHEM J
p343
sg62
V279
p344
sg102
(lp345
(VMOUSTACAS
VA M
tp346
asg21
I1991
sg54
V351
p347
sbag1
(g2
g3
NtRp348
(dp349
g64
V10.1016/j.gde.2007.10.002
p350
sg60
VCURR OPIN GENET DEV
p351
sg62
V17
p352
sg102
(lp353
(VNEALE
VD B
tp354
asg21
I2007
sg54
V539
p355
sbag1
(g2
g3
NtRp356
(dp357
g64
V10.1016/j.plants.2004.05.006
p358
sg60
VTRENDS PLANT SCI
p359
sg62
V9
sg102
(lp360
(VNEALE
VD B
tp361
asg21
I2004
sg54
V325
p362
sbag1
(g2
g3
NtRp363
(dp364
g64
V10.1038/nrg2931
p365
sg60
VNAT REV GENET
p366
sg62
V12
p367
sg102
(lp368
(VNEALE
VD B
tp369
asg21
I2011
sg54
V111
p370
sbag1
(g2
g3
NtRp371
(dp372
g64
V10.1186/1471-2164-9-312
p373
sg60
VBMC GENOMICS
p374
sg62
V9
sg102
(lp375
(VNOVAES
VE
tp376
asg21
I2008
sg54
Nsbag1
(g2
g3
NtRp377
(dp378
g64
Nsg60
VNew Zealand Journal of Forestry Science
p379
sg62
V38
p380
sg102
(lp381
(VPELLETIER
VMARIECHANTALE
tp382
asg21
I2008
sg54
V194
p383
sbag1
(g2
g3
NtRp384
(dp385
g64
V10.1016/j.tplants.2007.04.001
p386
sg60
VTRENDS PLANT SCI
p387
sg62
V12
p388
sg102
(lp389
(VPELLOUX
VJ
tp390
asg21
I2007
sg54
V267
p391
sbag1
(g2
g3
NtRp392
(dp393
g64
V10.1086/302449
p394
sg60
VAM J HUM GENET
p395
sg62
V65
p396
sg102
(lp397
(VPRITCHARD
VJ K
tp398
asg21
I1999
sg54
V220
p399
sbag1
(g2
g3
NtRp400
(dp401
g64
V10.1016/S1369-5266(02)00240-6
p402
sg60
VCURR OPIN PLANT BIOL
p403
sg62
V5
sg102
(lp404
(VRAFALSKI
VA
tp405
asg21
I2002
sg54
V94
p406
sbag1
(g2
g3
NtRp407
(dp408
g64
Nsg60
VREVISITING EUCALYPTS
p409
sg62
Nsg102
(lp410
(VRAYMOND
VC
tp411
asg21
I2009
sg54
V13
p412
sbag1
(g2
g3
NtRp413
(dp414
g64
Nsg60
VAUST FORESTRY
p415
sg62
V73
p416
sg102
(lp417
(VRAYMOND
VC A
tp418
asg21
I2010
sg54
V91
p419
sbag1
(g2
g3
NtRp420
(dp421
g64
Nsg60
VIMPROVING DIMENSIONA
p422
sg62
Nsg102
(lp423
(VRAYMOND
VC A
tp424
asg21
I2008
sg54
V1
sbag1
(g2
g3
NtRp425
(dp426
g64
V10.1104/pp.124.1.231
p427
sg60
VPLANT PHYSIOL
p428
sg62
V124
p429
sg102
(lp430
(VREN
VC W
tp431
asg21
I2000
sg54
VLANT
p432
sbag1
(g2
g3
NtRp433
(dp434
g64
V10.1007/s00468-010-0464-3
p435
sg60
VTREES
p436
sg62
V24
p437
sg102
(lp438
(VROSNER
VS
tp439
asg21
I2010
sg54
V931
p440
sbag1
(g2
g3
NtRp441
(dp442
g64
V10.1007/s11032-009-9345-0
p443
sg60
VMOL BREEDING
p444
sg62
V25
p445
sg102
(lp446
(VSEXTON
VT R
tp447
asg21
I2010
sg54
V471
p448
sbag1
(g2
g3
NtRp449
(dp450
g64
Nsg60
VAUST FORESTRY
p451
sg62
V73
p452
sg102
(lp453
(VSEXTON
VT R
tp454
asg21
I2010
sg54
V254
p455
sbag1
(g2
g3
NtRp456
(dp457
g64
V10.1139/X10-049
p458
sg60
VCAN J FOREST RES
p459
sg62
V40
p460
sg102
(lp461
(VSHEPHERD
VM
tp462
asg21
I2010
sg54
V1051
p463
sbag1
(g2
g3
NtRp464
(dp465
g64
V10.1104/pp.107.111963
p466
sg60
VPLANT PHYSIOL
p467
sg62
V146
p468
sg102
(lp469
(VSIEDLECKA
VA
tp470
asg21
I2008
sg54
VLANT
p471
sbag1
(g2
g3
NtRp472
(dp473
g64
V10.1139/X10-035
p474
sg60
VCAN J FOREST RES
p475
sg62
V40
p476
sg102
(lp477
(VSTACKPOLE
VD J
tp478
asg21
I2010
sg54
V917
p479
sbag1
(g2
g3
NtRp480
(dp481
g64
V10.1007/s11295-009-0239-4
p482
sg60
VTREE GENET GENOMES
p483
sg62
V6
sg102
(lp484
(VSTACKPOLE
VD J
tp485
asg21
I2010
sg54
V179
p486
sbag1
(g2
g3
NtRp487
(dp488
g64
Nsg60
VAUST FORESTRY
p489
sg62
V74
p490
sg102
(lp491
(VTHAVAMANIKUMAR
VT
tp492
asg21
I2011
sg54
V23
p493
sbag1
(g2
g3
NtRp494
(dp495
g64
V10.1534/genetics.105.042028
p496
sg60
VGENETICS
p497
sg62
V171
p498
sg102
(lp499
(VTHUMMA
VB R
tp500
asg21
I2005
sg54
V1257
p501
sbag1
(g2
g3
NtRp502
(dp503
g64
V10.1534/genetics.109.106591
p504
sg60
VGENETICS
p505
sg62
V183
p506
sg102
(lp507
(VTHUMMA
VB R
tp508
asg21
I2009
sg54
V1153
p509
sbag1
(g2
g3
NtRp510
(dp511
g64
V10.1074/jbc.M011242200
p512
sg60
VJ BIOL CHEM
p513
sg62
V276
p514
sg102
(lp515
(VWILLATS
VW G T
tp516
asg21
I2001
sg54
V19404
p517
sbag1
(g2
g3
NtRp518
(dp519
g64
V10.1093/mp/ssp066
p520
sg60
VMOL PLANT
p521
sg62
V2
sg102
(lp522
(VWOLF
VS
tp523
asg21
I2009
sg54
V851
p524
sbag1
(g2
g3
NtRp525
(dp526
g64
V10.1038/ng1702
p527
sg60
VNAT GENET
p528
sg62
V38
p529
sg102
(lp530
(VYU
VJ M
tp531
asg21
I2006
sg54
V203
p532
sbasb.