ccopy_reg
_reconstructor
p1
(ctethne.classes.paper
Paper
p2
c__builtin__
object
p3
NtRp4
(dp5
S'publisherCity'
p6
VROCKVILLE
p7
sS'reprintAddress'
p8
VCarpita, NC (reprint author), Purdue Univ, Dept Bot & Plant Pathol, W Lafayette, IN 47907 USA.
p9
sS'WC'
p10
VPlant Sciences
p11
sS'GA'
p12
V528KK
p13
sS'FX'
p14
(lp15
VThis work was supported by the National Science Foundation Plant Genome
p16
aVResearch Program (grant no. DBI-0217552 to W. V., K. E. K., D. R. M., S.
p17
aVR. T., M. C. M., and N.C.C.) and the Office of Science, U. S. Department
p18
aVof Energy (grant no. DE-FG02-08ER64702 to N.C.C. and M. C. M.).
p19
asS'abstract'
p20
VGrass species represent a major source of food, feed, and fiber crops and potential feedstocks for biofuel production. Most of the biomass is contributed by cell walls that are distinct in composition from all other flowering plants. Identifying cell wall-related genes and their functions underpins a fundamental understanding of growth and development in these species. Toward this goal, we are building a knowledge base of the maize (Zea mays) genes involved in cell wall biology, their expression profiles, and the phenotypic consequences of mutation. Over 750 maize genes were annotated and assembled into gene families predicted to function in cell wall biogenesis. Comparative genomics of maize, rice (Oryza sativa), and Arabidopsis (Arabidopsis thaliana) sequences reveal differences in gene family structure between grass species and a reference eudicot species. Analysis of transcript profile data for cell wall genes in developing maize ovaries revealed that expression within families differed by up to 100-fold. When transcriptional analyses of developing ovaries before pollination from Arabidopsis, rice, and maize were contrasted, distinct sets of cell wall genes were expressed in grasses. These differences in gene family structure and expression between Arabidopsis and the grasses underscore the requirement for a grass-specific genetic model for functional analyses. A UniformMu population proved to be an important resource in both forward-and reverse-genetics approaches to identify hundreds of mutants in cell wall genes. A forward screen of field-grown lines by near-infrared spectroscopic screen of mature leaves yielded several dozen lines with heritable spectroscopic phenotypes. Pyrolysis-molecular beam mass spectrometry confirmed that several nir mutants had altered carbohydrate-lignin compositions.
p21
sS'pageEnd'
p22
I1728
sS'date'
p23
I2009
sS'documentType'
p24
VReview
p25
sS'subject'
p26
VPlant Sciences
p27
sS'isoSource'
p28
VPlant Physiol.
p29
sS'timesCited'
p30
(lp31
I36
aVZ9 39
p32
asS'funding'
p33
(lp34
(VNational Science Foundation
VDBI-0217552
tp35
a(VOffice of Science, U. S. Department of Energy
VDE-FG02-08ER64702
tp36
asS'PT'
p37
VJ
sS'title'
p38
VGenetic Resources For Maize Cell Wall Biology
p39
sS'ISSN'
p40
(lp41
V0032-0889
p42
aVJ9 PLANT PHYSIOL
p43
asS'authors_full'
p44
(lp45
(VPENNING
VBRYAN W
tp46
a(VHUNTER
VCHARLES T
tp47
a(VTAYENGWA
VREUBEN
tp48
a(VEVELAND
VANDREA L
tp49
a(VDUGARD
VCHRISTOPHER K
tp50
a(VOLEK
VANNA T
tp51
a(VVERMERRIS
VWILFRED
tp52
a(VKOCH
VKAREN E
tp53
a(VMCCARTY
VDONALD R
tp54
a(VDAVIS
VMARK F
tp55
a(VTHOMAS
VSTEVEN R
tp56
a(VMCCANN
VMAUREEN C
tp57
a(VCARPITA
VNICHOLAS C
tp58
asS'PG'
p59
I26
sS'PD'
p60
VDEC
p61
sS'pageStart'
p62
I1703
sS'issue'
p63
I4
sS'journal'
p64
VPLANT PHYSIOLOGY
p65
sS'volume'
p66
V151
p67
sS'doi'
p68
V10.1104/pp.109.136804
p69
sS'emailAddress'
p70
Vcarpita@purdue.edu
p71
sS'authorAddress'
p72
(lp73
V[Penning, Bryan W.; Dugard, Christopher K.; Olek, Anna T.; Carpita, Nicholas C.] Purdue Univ, Dept Bot & Plant Pathol, W Lafayette, IN 47907 USA.
p74
aV[Penning, Bryan W.; Dugard, Christopher K.; McCann, Maureen C.] Purdue Univ, Dept Biol Sci, W Lafayette, IN 47907 USA.
p75
aV[Hunter, Charles T., III; Eveland, Andrea L.; Koch, Karen E.; McCarty, Donald R.] Univ Florida, Dept Hort Sci, Gainesville, FL 32611 USA.
p76
aV[Tayengwa, Reuben; Vermerris, Wilfred] Univ Florida, Genet Inst, Gainesville, FL 32610 USA.
p77
aV[Tayengwa, Reuben; Vermerris, Wilfred] Univ Florida, Dept Agron, Gainesville, FL 32610 USA.
p78
aV[Davis, Mark F.; Thomas, Steven R.] Natl Bioenergy Ctr, Natl Renewable Energy Lab, Golden, CO 80401 USA.
p79
asS'publisherAddress'
p80
V15501 MONONA DRIVE, ROCKVILLE, MD 20855 USA
p81
sS'ER'
p82
V
sS'publisher'
p83
VAMER SOC PLANT BIOLOGISTS
p84
sS'authorKeywords'
p85
(lp86
VMULTIPLE SEQUENCE ALIGNMENT
p87
aVPECTIN METHYLESTERASE GENE
p88
aVD-GLUCURONATE 4-EPIMERASE
p89
aVCOBRA-LIKE PROTEIN
p90
aVARABIDOPSIS-THALIANA
p91
aVCELLULOSE SYNTHASE
p92
aVMOLECULAR CHARACTERIZATION
p93
aVRHAMNOGALACTURONAN-II
p94
aVLIGNIN BIOSYNTHESIS
p95
aVEXPRESSION ANALYSIS
p96
asS'language'
p97
VEnglish
p98
sS'wosid'
p99
VWOS:000272443500002
p100
sS'citationCount'
p101
I150
sS'authors_init'
p102
(lp103
(VPENNING
VB W
tp104
a(VHUNTER
VC T
tp105
a(VTAYENGWA
VR
tp106
a(VEVELAND
VA L
tp107
a(VDUGARD
VC K
tp108
a(VOLEK
VA T
tp109
a(VVERMERRIS
VW
tp110
a(VKOCH
VK E
tp111
a(VMCCARTY
VD R
tp112
a(VDAVIS
VM F
tp113
a(VTHOMAS
VS R
tp114
a(VMCCANN
VM C
tp115
a(VCARPITA
VN C
tp116
asS'citedReferences'
p117
(lp118
g1
(g2
g3
NtRp119
(dp120
g68
V10.1074/jbc.M512403200
p121
sg64
VJ BIOL CHEM
p122
sg66
V281
p123
sg102
(lp124
(VAHN
VJ W
tp125
asg23
I2006
sg62
V13708
p126
sbag1
(g2
g3
NtRp127
(dp128
g68
V10.1104/pp.121.3.715
p129
sg64
VPLANT PHYSIOL
p130
sg66
V121
p131
sg102
(lp132
(VAKAMATSU
VT
tp133
asg23
I1999
sg62
VLANT
p134
sbag1
(g2
g3
NtRp135
(dp136
g68
V10.1126/science.1086391
p137
sg64
VSCIENCE
p138
sg66
V301
p139
sg102
(lp140
(VALONSO
VJ M
tp141
asg23
I2003
sg62
V653
p142
sbag1
(g2
g3
NtRp143
(dp144
g68
V10.1006/jmbi.1990.9999
p145
sg64
VJ MOL BIOL
p146
sg66
V215
p147
sg102
(lp148
(VALTSCHUL
VS F
tp149
asg23
I1990
sg62
V403
p150
sbag1
(g2
g3
NtRp151
(dp152
g68
V10.1023/B:CELL.0000046417.84715.27
p153
sg64
VCELLULOSE
p154
sg66
V11
p155
sg102
(lp156
(VAPPENZELLER
VL
tp157
asg23
I2004
sg62
V287
p158
sbag1
(g2
g3
NtRp159
(dp160
g68
V10.1126/science.279.5351.717
p161
sg64
VSCIENCE
p162
sg66
V279
p163
sg102
(lp164
(VARIOLI
VT
tp165
asg23
I1998
sg62
V717
p166
sbag1
(g2
g3
NtRp167
(dp168
g68
V10.1534/genetics.106.066837
p169
sg64
VGENETICS
p170
sg66
V175
p171
sg102
(lp172
(VBAI
VL
tp173
asg23
I2007
sg62
V981
p174
sbag1
(g2
g3
NtRp175
(dp176
g68
V10.1093/nar/gkl887
p177
sg64
VNUCLEIC ACIDS RES
p178
sg66
V35
p179
sg102
(lp180
(VBARRETT
VT
tp181
asg23
I2007
sg62
VD760
p182
sbag1
(g2
g3
NtRp183
(dp184
g68
V10.1146/annurev.arplant.54.031902.134938
p185
sg64
VANNU REV PLANT BIOL
p186
sg66
V54
p187
sg102
(lp188
(VBOERJAN
VW
tp189
asg23
I2003
sg62
V519
p190
sbag1
(g2
g3
NtRp191
(dp192
g68
Nsg64
VPHYSICOCHEMICAL CHAR
p193
sg66
Nsg102
(lp194
(VBOON
VJ J
tp195
asg23
I1989
sg62
VHYSICOCHEMICAL
p196
sbag1
(g2
g3
NtRp197
(dp198
g68
V10.1104/pp.106.087262
p199
sg64
VPLANT PHYSIOL
p200
sg66
V143
p201
sg102
(lp202
(VBRADY
VS M
tp203
asg23
I2007
sg62
VLANT
p204
sbag1
(g2
g3
NtRp205
(dp206
g68
V10.1105/tpc.105.031542
p207
sg64
VPLANT CELL
p208
sg66
V17
p209
sg102
(lp210
(VBROWN
VD M
tp211
asg23
I2005
sg62
VLANT
p212
sbag1
(g2
g3
NtRp213
(dp214
g68
V10.1016/S0981-9428(00)00162-5
p215
sg64
VPLANT PHYSIOL BIOCH
p216
sg66
V38
p217
sg102
(lp218
(VBUCKERIDGE
VM S
tp219
asg23
I2000
sg62
VLANT
p220
sbag1
(g2
g3
NtRp221
(dp222
g68
V10.1105/tpc.008425
p223
sg64
VPLANT CELL
p224
sg66
V15
p225
sg102
(lp226
(VBURGET
VE G
tp227
asg23
I2003
sg62
VLANT
p228
sbag1
(g2
g3
NtRp229
(dp230
g68
V10.1126/science.1122975
p231
sg64
VSCIENCE
p232
sg66
V311
p233
sg102
(lp234
(VBURTON
VR A
tp235
asg23
I2006
sg62
V1940
p236
sbag1
(g2
g3
NtRp237
(dp238
g68
V10.1104/pp.103.032904
p239
sg64
VPLANT PHYSIOL
p240
sg66
V134
p241
sg102
(lp242
(VBURTON
VR A
tp243
asg23
I2004
sg62
VLANT
p244
sbag1
(g2
g3
NtRp245
(dp246
g68
V10.1046/j.1365-313X.2003.01729.x
p247
sg64
VPLANT J
p248
sg66
V34
p249
sg102
(lp250
(VCANO-DELGADO
VA
tp251
asg23
I2003
sg62
VLANT
p252
sbag1
(g2
g3
NtRp253
(dp254
g68
V10.1093/mp/ssn052
p255
sg64
VMOL PLANT
p256
sg66
V1
sg102
(lp257
(VCAO
VP J
tp258
asg23
I2008
sg62
V858
p259
sbag1
(g2
g3
NtRp260
(dp261
g68
V10.1104/pp.76.1.205
p262
sg64
VPLANT PHYSIOL
p263
sg66
V76
p264
sg102
(lp265
(VCARPITA
VN C
tp266
asg23
I1984
sg62
VLANT
p267
sbag1
(g2
g3
NtRp268
(dp269
g68
V10.1146/annurev.arplant.47.1.445
p270
sg64
VANNU REV PLANT PHYS
p271
sg66
V47
p272
sg102
(lp273
(VCARPITA
VN C
tp274
asg23
I1996
sg62
V445
p275
sbag1
(g2
g3
NtRp276
(dp277
g68
V10.1111/j.1365-313X.1993.tb00007.x
p278
sg64
VPLANT J
p279
sg66
V3
sg102
(lp280
(VCARPITA
VN C
tp281
asg23
I1993
sg62
VLANT
p282
sbag1
(g2
g3
NtRp283
(dp284
g68
V10.1016/j.tplants.2008.06.002
p285
sg64
VTRENDS PLANT SCI
p286
sg66
V13
p287
sg102
(lp288
(VCARPITA
VN C
tp289
asg23
I2008
sg62
V415
p290
sbag1
(g2
g3
NtRp291
(dp292
g68
V10.1105/tpc.108.059873
p293
sg64
VPLANT CELL
p294
sg66
V20
p295
sg102
(lp296
(VCAVALIER
VD M
tp297
asg23
I2008
sg62
VLANT
p298
sbag1
(g2
g3
NtRp299
(dp300
g68
V10.1093/nar/gkg500
p301
sg64
VNUCLEIC ACIDS RES
p302
sg66
V31
p303
sg102
(lp304
(VCHENNA
VR
tp305
asg23
I2003
sg62
V3497
p306
sbag1
(g2
g3
NtRp307
(dp308
g68
V10.1186/1471-2105-7-439
p309
sg64
VBMC BIOINFORMATICS
p310
sg66
V7
sg102
(lp311
(VCHEVENET
VF
tp312
asg23
I2006
sg62
Nsbag1
(g2
g3
NtRp313
(dp314
g68
V10.1007/s00425-006-0299-8
p315
sg64
VPLANTA
p316
sg66
V224
p317
sg102
(lp318
(VCHING
VA
tp319
asg23
I2006
sg62
VLANTA
p320
sbag1
(g2
g3
NtRp321
(dp322
g68
V10.1073/pnas.0703133104
p323
sg64
VP NATL ACAD SCI USA
p324
sg66
V104
p325
sg102
(lp326
(VCOCURON
VJ C
tp327
asg23
I2007
sg62
V8550
p328
sbag1
(g2
g3
NtRp329
(dp330
g68
V10.1093/nar/16.22.10881
p331
sg64
VNUCLEIC ACIDS RES
p332
sg66
V16
p333
sg102
(lp334
(VCORPET
VF
tp335
asg23
I1988
sg62
V10881
p336
sbag1
(g2
g3
NtRp337
(dp338
g68
V10.1038/35030000
p339
sg64
VNATURE
p340
sg66
V407
p341
sg102
(lp342
(VCOSGROVE
VD J
tp343
asg23
I2000
sg62
V321
p344
sbag1
(g2
g3
NtRp345
(dp346
g68
V10.1146/annurev.arplant.50.1.245
p347
sg64
VANNU REV PLANT PHYS
p348
sg66
V50
p349
sg102
(lp350
(VDELMER
VD P
tp351
asg23
I1999
sg62
V245
p352
sbag1
(g2
g3
NtRp353
(dp354
g68
V10.1126/science.1090908
p355
sg64
VSCIENCE
p356
sg66
V303
p357
sg102
(lp358
(VDHUGGA
VK S
tp359
asg23
I2004
sg62
V363
p360
sbag1
(g2
g3
NtRp361
(dp362
g68
V10.1073/pnas.94.14.7679
p363
sg64
VP NATL ACAD SCI USA
p364
sg66
V94
p365
sg102
(lp366
(VDHUGGA
VK S
tp367
asg23
I1997
sg62
V7679
p368
sbag1
(g2
g3
NtRp369
(dp370
g68
V10.1104/pp.125.4.2040
p371
sg64
VPLANT PHYSIOL
p372
sg66
V125
p373
sg102
(lp374
(VDOBLIN
VM S
tp375
asg23
I2001
sg62
VLANT
p376
sbag1
(g2
g3
NtRp377
(dp378
g68
V10.1104/pp.106.086363
p379
sg64
VPLANT PHYSIOL
p380
sg66
V142
p381
sg102
(lp382
(VDRAKAKAKI
VG
tp383
asg23
I2006
sg62
VLANT
p384
sbag1
(g2
g3
NtRp385
(dp386
g68
V10.1046/j.1365-313x.1999.00566.x
p387
sg64
VPLANT J
p388
sg66
V19
p389
sg102
(lp390
(VEDWARDS
VM E
tp391
asg23
I1999
sg62
VLANT
p392
sbag1
(g2
g3
NtRp393
(dp394
g68
V10.1105/tpc.105.036566
p395
sg64
VPLANT CELL
p396
sg66
V18
p397
sg102
(lp398
(VEGELUND
VJ
tp399
asg23
I2006
sg62
VLANT
p400
sbag1
(g2
g3
NtRp401
(dp402
g68
V10.1007/s11103-007-9162-y
p403
sg64
VPLANT MOL BIOL
p404
sg66
V64
p405
sg102
(lp406
(VEGELUND
VJ
tp407
asg23
I2007
sg62
VLANT
p408
sbag1
(g2
g3
NtRp409
(dp410
g68
V10.1105/tpc.002022
p411
sg64
VPLANT CELL
p412
sg66
V14
p413
sg102
(lp414
(VELLIS
VC
tp415
asg23
I2002
sg62
VLANT
p416
sbag1
(g2
g3
NtRp417
(dp418
g68
V10.1021/ef00002a001
p419
sg64
VENERG FUEL
p420
sg66
V1
sg102
(lp421
(VEVANS
VR J
tp422
asg23
I1987
sg62
V123
p423
sbag1
(g2
g3
NtRp424
(dp425
g68
V10.1104/pp.107.108597
p426
sg64
VPLANT PHYSIOL
p427
sg66
V146
p428
sg102
(lp429
(VEVELAND
VA L
tp430
asg23
I2008
sg62
VLANT
p431
sbag1
(g2
g3
NtRp432
(dp433
g68
V10.1105/tpc.12.12.2409
p434
sg64
VPLANT CELL
p435
sg66
V12
p436
sg102
(lp437
(VFAGARD
VM
tp438
asg23
I2000
sg62
VLANT
p439
sbag1
(g2
g3
NtRp440
(dp441
g68
V10.1073/pnas.102644799
p442
sg64
VP NATL ACAD SCI USA
p443
sg66
V99
p444
sg102
(lp445
(VFAIK
VA
tp446
asg23
I2002
sg62
V7797
p447
sbag1
(g2
g3
NtRp448
(dp449
g68
V10.1101/gad.188801
p450
sg64
VGENE DEV
p451
sg66
V15
p452
sg102
(lp453
(VFAVERY
VB
tp454
asg23
I2001
sg62
V79
p455
sbag1
(g2
g3
NtRp456
(dp457
g68
V10.1186/gb-2004-5-10-r82
p458
sg64
VGENOME BIOL
p459
sg66
V5
sg102
(lp460
(VFERNANDES
VJ
tp461
asg23
I2004
sg62
Nsbag1
(g2
g3
NtRp462
(dp463
g68
V10.1371/journal.pbio.0020207
p464
sg64
VPLOS BIOL
p465
sg66
V2
sg102
(lp466
(VFORTNA
VA
tp467
asg23
I2004
sg62
VLOS
p468
sbag1
(g2
g3
NtRp469
(dp470
g68
V10.1104/pp.106.085274
p471
sg64
VPLANT PHYSIOL
p472
sg66
V142
p473
sg102
(lp474
(VFRANCIS
VK E
tp475
asg23
I2006
sg62
VLANT
p476
sbag1
(g2
g3
NtRp477
(dp478
g68
V10.1046/j.1365-313X.2002.01267.x
p479
sg64
VPLANT J
p480
sg66
V30
p481
sg102
(lp482
(VFRANKE
VR
tp483
asg23
I2002
sg62
VLANT
p484
sbag1
(g2
g3
NtRp485
(dp486
g68
V10.1046/j.1365-313X.2002.01266.x
p487
sg64
VPLANT J
p488
sg66
V30
p489
sg102
(lp490
(VFRANKE
VR
tp491
asg23
I2002
sg62
VLANT
p492
sbag1
(g2
g3
NtRp493
(dp494
g68
V10.1007/s00425-005-1481-0
p495
sg64
VPLANTA
p496
sg66
V221
p497
sg102
(lp498
(VGIBEAUT
VD M
tp499
asg23
I2005
sg62
VLANTA
p500
sbag1
(g2
g3
NtRp501
(dp502
g68
V10.1104/pp.104.049965
p503
sg64
VPLANT PHYSIOL
p504
sg66
V136
p505
sg102
(lp506
(VGIRKE
VT
tp507
asg23
I2004
sg62
VLANT
p508
sbag1
(g2
g3
NtRp509
(dp510
g68
V10.1093/jxb/erm222
p511
sg64
VJ EXP BOT
p512
sg66
V58
p513
sg102
(lp514
(VGONZALEZ-CARRANZA
VZ H
tp515
asg23
I2007
sg62
V3719
p516
sbag1
(g2
g3
NtRp517
(dp518
g68
V10.1023/A:1023022825098
p519
sg64
VPLANT MOL BIOL
p520
sg66
V51
p521
sg102
(lp522
(VGOUJON
VT
tp523
asg23
I2003
sg62
VLANT
p524
sbag1
(g2
g3
NtRp525
(dp526
g68
V10.1104/pp.104.900198
p527
sg64
VPLANT PHYSIOL
p528
sg66
V141
p529
sg102
(lp530
(VGRENNAN
VA K
tp531
asg23
I2006
sg62
VLANT
p532
sbag1
(g2
g3
NtRp533
(dp534
g68
V10.1104/pp.106.086405
p535
sg64
VPLANT PHYSIOL
p536
sg66
V143
p537
sg102
(lp538
(VGUILLAUMIE
VS
tp539
asg23
I2007
sg62
VLANT
p540
sbag1
(g2
g3
NtRp541
(dp542
g68
V10.1371/journal.pgen.0030197
p543
sg64
VPLOS GENET
p544
sg66
V3
sg102
(lp545
(VHAHN
VM W
tp546
asg23
I2007
sg62
VLOS
p547
sbag1
(g2
g3
NtRp548
(dp549
g68
V10.1104/pp.105.072744
p550
sg64
VPLANT PHYSIOL
p551
sg66
V140
p552
sg102
(lp553
(VHARHOLT
VJ
tp554
asg23
I2006
sg62
VLANT
p555
sbag1
(g2
g3
NtRp556
(dp557
g68
Nsg64
VDEVELOPMENT
p558
sg66
V121
p559
sg102
(lp560
(VHAUSER
VM T
tp561
asg23
I1995
sg62
V1237
p562
sbag1
(g2
g3
NtRp563
(dp564
g68
V10.1104/pp.103.020016
p565
sg64
VPLANT PHYSIOL
p566
sg66
V132
p567
sg102
(lp568
(VHAZEN
VS P
tp569
asg23
I2003
sg62
VLANT
p570
sbag1
(g2
g3
NtRp571
(dp572
g68
V10.1104/pp.128.2.336
p573
sg64
VPLANT PHYSIOL
p574
sg66
V128
p575
sg102
(lp576
(VHAZEN
VS P
tp577
asg23
I2002
sg62
VLANT
p578
sbag1
(g2
g3
NtRp579
(dp580
g68
V10.1016/0003-9861(85)90570-3
p581
sg64
VARCH BIOCHEM BIOPHYS
p582
sg66
V241
p583
sg102
(lp584
(VHELLER
VW
tp585
asg23
I1985
sg62
V453
p586
sbag1
(g2
g3
NtRp587
(dp588
g68
V10.1074/jbc.M209362200
p589
sg64
VJ BIOL CHEM
p590
sg66
V278
p591
sg102
(lp592
(VHOFFMANN
VL
tp593
asg23
I2003
sg62
V95
p594
sbag1
(g2
g3
NtRp595
(dp596
g68
V10.1104/pp.123.4.1313
p597
sg64
VPLANT PHYSIOL
p598
sg66
V123
p599
sg102
(lp600
(VHOLLAND
VN
tp601
asg23
I2000
sg62
VLANT
p602
sbag1
(g2
g3
NtRp603
(dp604
g68
V10.1074/jbc.M611487200
p605
sg64
VJ BIOL CHEM
p606
sg66
V282
p607
sg102
(lp608
(VHRMOVA
VM
tp609
asg23
I2007
sg62
V12951
p610
sbag1
(g2
g3
NtRp611
(dp612
g68
V10.1007/s00239-004-0115-7
p613
sg64
VJ MOL EVOL
p614
sg66
V59
p615
sg102
(lp616
(VHUGHES
VA L
tp617
asg23
I2004
sg62
V827
p618
sbag1
(g2
g3
NtRp619
(dp620
g68
V10.1073/pnas.96.18.10045
p621
sg64
VP NATL ACAD SCI USA
p622
sg66
V96
p623
sg102
(lp624
(VHUMPHREYS
VJ M
tp625
asg23
I1999
sg62
V10045
p626
sbag1
(g2
g3
NtRp627
(dp628
g68
V10.1038/nature03895
p629
sg64
VNATURE
p630
sg66
V436
p631
sg102
(lp632
(VMATSUMOTO
VT
tp633
asg23
I2005
sg62
V793
p634
sbag1
(g2
g3
NtRp635
(dp636
g68
V10.1105/tpc.107.050906
p637
sg64
VPLANT CELL
p638
sg66
V20
p639
sg102
(lp640
(VJENSEN
VJ K
tp641
asg23
I2008
sg62
VLANT
p642
sbag1
(g2
g3
NtRp643
(dp644
g68
V10.1093/molbev/msm184
p645
sg64
VMOL BIOL EVOL
p646
sg66
V24
p647
sg102
(lp648
(VJOHNSON
VD A
tp649
asg23
I2007
sg62
V2412
p650
sbag1
(g2
g3
NtRp651
(dp652
g68
V10.1046/j.1365-313x.2001.01021.x
p653
sg64
VPLANT J
p654
sg66
V26
p655
sg102
(lp656
(VJONES
VL
tp657
asg23
I2001
sg62
VLANT
p658
sbag1
(g2
g3
NtRp659
(dp660
g68
V10.1042/BJ20050800
p661
sg64
VBIOCHEM J
p662
sg66
V391
p663
sg102
(lp664
(VKARKONEN
VA
tp665
asg23
I2005
sg62
V409
p666
sbag1
(g2
g3
NtRp667
(dp668
g68
Nsg64
VDISCRIMINANT ANAL SP
p669
sg66
Nsg102
(lp670
(VKEMSLEY
VE K
tp671
asg23
I1998
sg62
Nsbag1
(g2
g3
NtRp672
(dp673
g68
V10.1104/pp.106.091546
p674
sg64
VPLANT PHYSIOL
p675
sg66
V143
p676
sg102
(lp677
(VKIM
VC M
tp678
asg23
I2007
sg62
VLANT
p679
sbag1
(g2
g3
NtRp680
(dp681
g68
V10.1186/gb-2006-7-9r87
p682
sg64
VGENOME BIOL
p683
sg66
V7
sg102
(lp684
(VKIM
VJ
tp685
asg23
I2006
sg62
Nsbag1
(g2
g3
NtRp686
(dp687
g68
V10.1534/genetics.104.033738
p688
sg64
VGENETICS
p689
sg66
V169
p690
sg102
(lp691
(VKOLKMAN
VJ M
tp692
asg23
I2005
sg62
V981
p693
sbag1
(g2
g3
NtRp694
(dp695
g68
V10.1093/glycob/cwl081
p696
sg64
VGLYCOBIOLOGY
p697
sg66
V17
p698
sg102
(lp699
(VKONISHI
VT
tp700
asg23
I2007
sg62
V345
p701
sbag1
(g2
g3
NtRp702
(dp703
g68
V10.1101/gad.1331305
p704
sg64
VGENE DEV
p705
sg66
V19
p706
sg102
(lp707
(VKUBO
VM
tp708
asg23
I2005
sg62
V1855
p709
sbag1
(g2
g3
NtRp710
(dp711
g68
V10.1016/0003-9861(87)90339-0
p712
sg64
VARCH BIOCHEM BIOPHYS
p713
sg66
V258
p714
sg102
(lp715
(VKUHNL
VT
tp716
asg23
I1987
sg62
V226
p717
sbag1
(g2
g3
NtRp718
(dp719
g68
Nsg64
VBOT PLANT BIOL ITS R
p720
sg66
Nsg102
(lp721
(VLANGENHEIM
VJ H
tp722
asg23
I1982
sg62
Nsbag1
(g2
g3
NtRp723
(dp724
g68
V10.1023/B:PLAN.0000019074.60542.6c
p725
sg64
VPlant Mol Biol
p726
sg66
V53
p727
sg102
(lp728
(VLAO
VN G A T
tp729
asg23
I2003
sg62
Vlant
p730
sbag1
(g2
g3
NtRp731
(dp732
g68
V10.1093/pcp/pcm155
p733
sg64
VPLANT CELL PHYSIOL
p734
sg66
V48
p735
sg102
(lp736
(VLEE
VC H
tp737
asg23
I2007
sg62
VLANT
p738
sbag1
(g2
g3
NtRp739
(dp740
g68
V10.1104/pp.107.100891
p741
sg64
VPLANT PHYSIOL
p742
sg66
V144
p743
sg102
(lp744
(VLEE
VJ H
tp745
asg23
I2007
sg62
VLANT
p746
sbag1
(g2
g3
NtRp747
(dp748
g68
V10.1023/A:1014893521186
p749
sg64
VPLANT MOL BIOL
p750
sg66
V48
p751
sg102
(lp752
(VLEE
VM
tp753
asg23
I2002
sg62
VLANT
p754
sbag1
(g2
g3
NtRp755
(dp756
g68
V10.1105/tpc.011775
p757
sg64
VPLANT CELL
p758
sg66
V15
p759
sg102
(lp760
(VLI
VY H
tp761
asg23
I2003
sg62
VLANT
p762
sbag1
(g2
g3
NtRp763
(dp764
g68
V10.1073/pnas.0409179102
p765
sg64
VP NATL ACAD SCI USA
p766
sg66
V102
p767
sg102
(lp768
(VLIEPMAN
VA H
tp769
asg23
I2005
sg62
V2221
p770
sbag1
(g2
g3
NtRp771
(dp772
g68
V10.1007/s00425-006-0261-9
p773
sg64
VPLANTA
p774
sg66
V224
p775
sg102
(lp776
(VLOUVET
VR
tp777
asg23
I2006
sg62
VLANTA
p778
sbag1
(g2
g3
NtRp779
(dp780
g68
V10.1105/tpc.009837
p781
sg64
VPLANT CELL
p782
sg66
V15
p783
sg102
(lp784
(VMADSON
VM
tp785
asg23
I2003
sg62
VLANT
p786
sbag1
(g2
g3
NtRp787
(dp788
g68
V10.1080/11263500500059801
p789
sg64
VPLANT BIOSYST
p790
sg66
V139
p791
sg102
(lp792
(VMCCANN
VM C
tp793
asg23
I2005
sg62
VLANT
p794
sbag1
(g2
g3
NtRp795
(dp796
g68
Nsg64
VCYTOSKELETAL BASIS P
p797
sg66
Nsg102
(lp798
(VMCCANN
VM C
tp799
asg23
I1991
sg62
V109
p800
sbag1
(g2
g3
NtRp801
(dp802
g68
V10.1104/pp.106.093054
p803
sg64
VPLANT PHYSIOL
p804
sg66
V143
p805
sg102
(lp806
(VMCCANN
VM C
tp807
asg23
I2007
sg62
VLANT
p808
sbag1
(g2
g3
NtRp809
(dp810
g68
V10.1111/j.1365-313X.2005.02509.x
p811
sg64
VPLANT J
p812
sg66
V44
p813
sg102
(lp814
(VMCCARTY
VD R
tp815
asg23
I2005
sg62
VLANT
p816
sbag1
(g2
g3
NtRp817
(dp818
g68
V10.1073/pnas.93.14.6869
p819
sg64
VP NATL ACAD SCI USA
p820
sg66
V93
p821
sg102
(lp822
(VMEYER
VK
tp823
asg23
I1996
sg62
V6869
p824
sbag1
(g2
g3
NtRp825
(dp826
g68
V10.1104/pp.106.094995
p827
sg64
VPLANT PHYSIOL
p828
sg66
V144
p829
sg102
(lp830
(VMITCHELL
VR A C
tp831
asg23
I2007
sg62
VLANT
p832
sbag1
(g2
g3
NtRp833
(dp834
g68
V10.1104/pp.104.043745
p835
sg64
VPLANT PHYSIOL
p836
sg66
V135
p837
sg102
(lp838
(VMOLHOJ
VM
tp839
asg23
I2004
sg62
VLANT
p840
sbag1
(g2
g3
NtRp841
(dp842
g68
V10.1111/j.1365-313X.2007.03086.x
p843
sg64
VPLANT J
p844
sg66
V50
p845
sg102
(lp846
(VMOUILLE
VG
tp847
asg23
I2007
sg62
VLANT
p848
sbag1
(g2
g3
NtRp849
(dp850
g68
V10.1105/tpc.017509
p851
sg64
VPLANT CELL
p852
sg66
V16
p853
sg102
(lp854
(VNAIR
VR B
tp855
asg23
I2004
sg62
VLANT
p856
sbag1
(g2
g3
NtRp857
(dp858
g68
V10.1104/pp.105.074997
p859
sg64
VPLANT PHYSIOL
p860
sg66
V140
p861
sg102
(lp862
(VNGUEMA-ONA
VE
tp863
asg23
I2006
sg62
VLANT
p864
sbag1
(g2
g3
NtRp865
(dp866
g68
V10.1023/B:CELL.0000046339.48003.0e
p867
sg64
VCELLULOSE
p868
sg66
V11
p869
sg102
(lp870
(VNOBLES
VD R
tp871
asg23
I2004
sg62
V437
p872
sbag1
(g2
g3
NtRp873
(dp874
g68
V10.1038/nature07723
p875
sg64
VNATURE
p876
sg66
V457
p877
sg102
(lp878
(VPATERSON
VA H
tp879
asg23
I2009
sg62
V551
p880
sbag1
(g2
g3
NtRp881
(dp882
g68
V10.1073/pnas.93.22.12637
p883
sg64
VP NATL ACAD SCI USA
p884
sg66
V93
p885
sg102
(lp886
(VPEAR
VJ R
tp887
asg23
I1996
sg62
V12637
p888
sbag1
(g2
g3
NtRp889
(dp890
g68
V10.1105/tpc.106.049320
p891
sg64
VPLANT CELL
p892
sg66
V19
p893
sg102
(lp894
(VPENA
VM J
tp895
asg23
I2007
sg62
VLANT
p896
sbag1
(g2
g3
NtRp897
(dp898
g68
V10.1073/pnas.0503392102
p899
sg64
VP NATL ACAD SCI USA
p900
sg66
V102
p901
sg102
(lp902
(VPERSSON
VS
tp903
asg23
I2005
sg62
V8633
p904
sbag1
(g2
g3
NtRp905
(dp906
g68
V10.1007/s11103-008-9351-3
p907
sg64
VPLANT MOL BIOL
p908
sg66
V68
p909
sg102
(lp910
(VQU
VY M
tp911
asg23
I2008
sg62
VLANT
p912
sbag1
(g2
g3
NtRp913
(dp914
g68
V10.1126/science.1114736
p915
sg64
VSCIENCE
p916
sg66
V311
p917
sg102
(lp918
(VRAGAUSKAS
VA J
tp919
asg23
I2006
sg62
V484
p920
sbag1
(g2
g3
NtRp921
(dp922
g68
V10.1023/A:1010671129803
p923
sg64
VPLANT MOL BIOL
p924
sg66
V47
p925
sg102
(lp926
(VREITER
VW D
tp927
asg23
I2001
sg62
VLANT
p928
sbag1
(g2
g3
NtRp929
(dp930
g68
V10.1104/pp.103.028266
p931
sg64
VPLANT PHYSIOL
p932
sg66
V133
p933
sg102
(lp934
(VRHEE
VS Y
tp935
asg23
I2003
sg62
VLANT
p936
sbag1
(g2
g3
NtRp937
(dp938
g68
V10.1016/S0031-9422(00)84376-9
p939
sg64
VPHYTOCHEMISTRY
p940
sg66
V15
p941
sg102
(lp942
(VRHODES
VM J C
tp943
asg23
I1976
sg62
VHYTOCHEMISTRY
p944
sbag1
(g2
g3
NtRp945
(dp946
g68
Nsg64
VPlant Physiology 
p947
sg66
V113
p948
sg102
(lp949
(VROESLER
VJENS
tp950
asg23
I1997
sg62
Vlant
p951
sbag1
(g2
g3
NtRp952
(dp953
g68
V10.1105/tpc.104.023705
p954
sg64
VPLANT CELL
p955
sg66
V16
p956
sg102
(lp957
(VROHDE
VA
tp958
asg23
I2004
sg62
VLANT
p959
sbag1
(g2
g3
NtRp960
(dp961
g68
V10.1093/pcp/pcf171
p962
sg64
VPLANT CELL PHYSIOL
p963
sg66
V43
p964
sg102
(lp965
(VROSE
VJ K C
tp966
asg23
I2002
sg62
VLANT
p967
sbag1
(g2
g3
NtRp968
(dp969
g68
V10.1104/pp.007468
p970
sg64
VPLANT PHYSIOL
p971
sg66
V130
p972
sg102
(lp973
(VROUDIER
VF
tp974
asg23
I2002
sg62
VLANT
p975
sbag1
(g2
g3
NtRp976
(dp977
g68
V10.1105/tpc.105.031732.
p978
sg64
VPLANT CELL
p979
sg66
V17
p980
sg102
(lp981
(VROUDIER
VF
tp982
asg23
I2005
sg62
VLANT
p983
sbag1
(g2
g3
NtRp984
(dp985
g68
Nsg64
VMOL BIOL EVOL
p986
sg66
V4
sg102
(lp987
(VSAITOU
VN
tp988
asg23
I1987
sg62
V406
p989
sbag1
(g2
g3
NtRp990
(dp991
g68
V10.1186/gb-2005-6-12-242
p992
sg64
VGENOME BIOL
p993
sg66
V6
sg102
(lp994
(VSAMPEDRO
VJ
tp995
asg23
I2005
sg62
Nsbag1
(g2
g3
NtRp996
(dp997
g68
V10.1104/pp.127.4.1595
p998
sg64
VPLANT PHYSIOL
p999
sg66
V127
p1000
sg102
(lp1001
(VSARRIA
VR
tp1002
asg23
I2001
sg62
VLANT
p1003
sbag1
(g2
g3
NtRp1004
(dp1005
g68
V10.1111/j.1399-3054.2006.00834.x
p1006
sg64
VPHYSIOL PLANTARUM
p1007
sg66
V129
p1008
sg102
(lp1009
(VSCHELLER
VH V
tp1010
asg23
I2007
sg62
VHYSIOL
p1011
sbag1
(g2
g3
NtRp1012
(dp1013
g68
V10.1101/gad.879101
p1014
sg64
VGENE DEV
p1015
sg66
V15
p1016
sg102
(lp1017
(VSCHINDELMAN
VG
tp1018
asg23
I2001
sg62
V1115
p1019
sbag1
(g2
g3
NtRp1020
(dp1021
g68
V10.1126/science.1178534
p1022
sg64
VSCIENCE
p1023
sg66
V326
p1024
sg102
(lp1025
(VSCHNABLE
VP S
tp1026
asg23
I2009
sg62
V1112
p1027
sbag1
(g2
g3
NtRp1028
(dp1029
g68
V10.1074/jbc.M104047200
p1030
sg64
VJ BIOL CHEM
p1031
sg66
V276
p1032
sg102
(lp1033
(VSCHOCH
VG
tp1034
asg23
I2001
sg62
V36566
p1035
sbag1
(g2
g3
NtRp1036
(dp1037
g68
V10.1016/S0960-9822(02)01260-5
p1038
sg64
VCURR BIOL
p1039
sg66
V12
p1040
sg102
(lp1041
(VSEIFERT
VG J
tp1042
asg23
I2002
sg62
V1840
p1043
sbag1
(g2
g3
NtRp1044
(dp1045
g68
V10.1186/1471-2164-8-116
p1046
sg64
VBMC GENOMICS
p1047
sg66
V8
sg102
(lp1048
(VSETTLES
VA M
tp1049
asg23
I2007
sg62
Nsbag1
(g2
g3
NtRp1050
(dp1051
g68
V10.1105/tpc.105.030767
p1052
sg64
VPLANT CELL
p1053
sg66
V17
p1054
sg102
(lp1055
(VSIBOUT
VR
tp1056
asg23
I2005
sg62
VLANT
p1057
sbag1
(g2
g3
NtRp1058
(dp1059
g68
V10.1104/pp.107.102582
p1060
sg64
VPLANT PHYSIOL
p1061
sg66
V145
p1062
sg102
(lp1063
(VSINDHU
VA
tp1064
asg23
I2007
sg62
VLANT
p1065
sbag1
(g2
g3
NtRp1066
(dp1067
g68
V10.1073/pnas.0600120103
p1068
sg64
VP NATL ACAD SCI USA
p1069
sg66
V103
p1070
sg102
(lp1071
(VSTERLING
VJ D
tp1072
asg23
I2006
sg62
V5236
p1073
sbag1
(g2
g3
NtRp1074
(dp1075
g68
V10.1016/0014-5793(74)80769-6
p1076
sg64
VFEBS LETT
p1077
sg66
V42
p1078
sg102
(lp1079
(VSTOCKIGT
VJ
tp1080
asg23
I1974
sg62
V131
p1081
sbag1
(g2
g3
NtRp1082
(dp1083
g68
V10.1105/tpc.107.052985
p1084
sg64
VPLANT CELL
p1085
sg66
V19
p1086
sg102
(lp1087
(VSTRASSER
VR
tp1088
asg23
I2007
sg62
VLANT
p1089
sbag1
(g2
g3
NtRp1090
(dp1091
g68
V10.1111/j.1365-313X.2005.02620.x
p1092
sg64
VPLANT J
p1093
sg66
V45
p1094
sg102
(lp1095
(VSUZUKI
VM
tp1096
asg23
I2006
sg62
VLANT
p1097
sbag1
(g2
g3
NtRp1098
(dp1099
g68
V10.1104/pp.107.114108
p1100
sg64
VPLANT PHYSIOL
p1101
sg66
V146
p1102
sg102
(lp1103
(VSUZUKI
VM
tp1104
asg23
I2008
sg62
VLANT
p1105
sbag1
(g2
g3
NtRp1106
(dp1107
g68
V10.1093/nar/gkm965
p1108
sg64
VNUCLEIC ACIDS RES
p1109
sg66
V36
p1110
sg102
(lp1111
(VSWARBRECK
VD
tp1112
asg23
I2008
sg62
VD1009
p1113
sbag1
(g2
g3
NtRp1114
(dp1115
g68
V10.1104/pp.103.022442
p1116
sg64
VPLANT PHYSIOL
p1117
sg66
V133
p1118
sg102
(lp1119
(VTANAKA
VK
tp1120
asg23
I2003
sg62
VLANT
p1121
sbag1
(g2
g3
NtRp1122
(dp1123
g68
V10.1073/pnas.0337628100
p1124
sg64
VP NATL ACAD SCI USA
p1125
sg66
V100
p1126
sg102
(lp1127
(VTAYLOR
VN G
tp1128
asg23
I2003
sg62
V1450
p1129
sbag1
(g2
g3
NtRp1130
(dp1131
g68
Nsg64
VNATURE
p1132
sg66
V408
p1133
sg102
(lp1134
(VKAUL
VS
tp1135
asg23
I2000
sg62
V796
p1136
sbag1
(g2
g3
NtRp1137
(dp1138
g68
V10.1016/0008-6215(89)80041-2
p1139
sg64
VCARBOHYD RES
p1140
sg66
V185
p1141
sg102
(lp1142
(VTHOMAS
VJ R
tp1143
asg23
I1989
sg62
V261
p1144
sbag1
(g2
g3
NtRp1145
(dp1146
g68
V10.1385/ABAB:77:1-3:55
p1147
sg64
VAPPL BIOCHEM BIOTECH
p1148
sg66
V77
p1149
sg102
(lp1150
(VTUSKAN
VG
tp1151
asg23
I1999
sg62
V55
p1152
sbag1
(g2
g3
NtRp1153
(dp1154
g68
V10.1016/S0031-9422(00)83782-6
p1155
sg64
VPHYTOCHEMISTRY
p1156
sg66
V19
p1157
sg102
(lp1158
(VULBRICH
VB
tp1159
asg23
I1980
sg62
VHYTOCHEMISTRY
p1160
sbag1
(g2
g3
NtRp1161
(dp1162
g68
V10.1016/j.febslet.2004.06.005
p1163
sg64
VFEBS LETT
p1164
sg66
V569
p1165
sg102
(lp1166
(VUSADEL
VB
tp1167
asg23
I2004
sg62
V327
p1168
sbag1
(g2
g3
NtRp1169
(dp1170
g68
V10.1104/pp.106.092544
p1171
sg64
VPLANT PHYSIOL
p1172
sg66
V143
p1173
sg102
(lp1174
(VVALDIVIA
VE R
tp1175
asg23
I2007
sg62
VLANT
p1176
sbag1
(g2
g3
NtRp1177
(dp1178
g68
V10.1073/pnas.052450699
p1179
sg64
VP NATL ACAD SCI USA
p1180
sg66
V99
p1181
sg102
(lp1182
(VVANZIN
VG F
tp1183
asg23
I2002
sg62
V3340
p1184
sbag1
(g2
g3
NtRp1185
(dp1186
g68
V10.1023/A:1010631431620
p1187
sg64
VPLANT MOL BIOL
p1188
sg66
V47
p1189
sg102
(lp1190
(VVERGARA
VC E
tp1191
asg23
I2001
sg62
VLANT
p1192
sbag1
(g2
g3
NtRp1193
(dp1194
g68
V10.1016/S0168-9452(97)00068-X
p1195
sg64
VPLANT SCI
p1196
sg66
V125
p1197
sg102
(lp1198
(VVERICA
VJ A
tp1199
asg23
I1997
sg62
VLANT
p1200
sbag1
(g2
g3
NtRp1201
(dp1202
g68
V10.2135/cropsci2007.04.0013IPBS
p1203
sg64
VCROP SCI
p1204
sg66
V47
p1205
sg102
(lp1206
(VVERMERRIS
VW
tp1207
asg23
I2007
sg62
VS142
p1208
sbag1
(g2
g3
NtRp1209
(dp1210
g68
Nsg64
VPLANT CELL
p1211
sg66
V7
sg102
(lp1212
(VVIGNOLS
VF
tp1213
asg23
I1995
sg62
VLANT
p1214
sbag1
(g2
g3
NtRp1215
(dp1216
g68
V10.2135/cropsci2006.09.0563tpg
p1217
sg64
VCROP SCI
p1218
sg66
V47
p1219
sg102
(lp1220
(VWEIL
VC F
tp1221
asg23
I2007
sg62
VS60
p1222
sbag1
(g2
g3
NtRp1223
(dp1224
g68
Nsg64
VPLANT CELL
p1225
sg66
V7
sg102
(lp1226
(VXU
VW
tp1227
asg23
I1995
sg62
VLANT
p1228
sbag1
(g2
g3
NtRp1229
(dp1230
g68
V10.1073/pnas.0605979103
p1231
sg64
VP NATL ACAD SCI USA
p1232
sg66
V103
p1233
sg102
(lp1234
(VYENNAWAR
VN H
tp1235
asg23
I2006
sg62
V14664
p1236
sbag1
(g2
g3
NtRp1237
(dp1238
g68
V10.1104/pp.103.035261
p1239
sg64
VPLANT PHYSIOL
p1240
sg66
V134
p1241
sg102
(lp1242
(VYOKOYAMA
VR
tp1243
asg23
I2004
sg62
VLANT
p1244
sbag1
(g2
g3
NtRp1245
(dp1246
g68
V10.1007/s00425-005-1563-z
p1247
sg64
VPLANTA
p1248
sg66
V221
p1249
sg102
(lp1250
(VYONG
VW D
tp1251
asg23
I2005
sg62
VLANTA
p1252
sbag1
(g2
g3
NtRp1253
(dp1254
g68
V10.1534/genetics.107.074245
p1255
sg64
VGENETICS
p1256
sg66
V178
p1257
sg102
(lp1258
(VYU
VJ M
tp1259
asg23
I2008
sg62
V539
p1260
sbag1
(g2
g3
NtRp1261
(dp1262
g68
V10.1093/bioinformatics/17.9.847
p1263
sg64
VBIOINFORMATICS
p1264
sg66
V17
p1265
sg102
(lp1266
(VZDOBNOV
VE M
tp1267
asg23
I2001
sg62
V847
p1268
sbag1
(g2
g3
NtRp1269
(dp1270
g68
Nsg64
VAM J MED GENET B
p1271
sg66
V138B
p1272
sg102
(lp1273
(VZHANG
VF
tp1274
asg23
I2005
sg62
V141
p1275
sbag1
(g2
g3
NtRp1276
(dp1277
g68
V10.1105/tpc.105.035501
p1278
sg64
VPLANT CELL
p1279
sg66
V17
p1280
sg102
(lp1281
(VZHONG
VR Q
tp1282
asg23
I2005
sg62
VLANT
p1283
sbasb.