ccopy_reg
_reconstructor
p1
(ctethne.classes.paper
Paper
p2
c__builtin__
object
p3
NtRp4
(dp5
S'publisherCity'
p6
VROCKVILLE
p7
sS'reprintAddress'
p8
VPollard, M (reprint author), Michigan State Univ, Dept Plant Biol, E Lansing, MI 48824 USA.
p9
sS'WC'
p10
VPlant Sciences
p11
sS'GA'
p12
V187LO
p13
sS'abstract'
p14
VThe interface between plants and the environment is provided for aerial organs by epicuticular waxes that have been extensively studied. By contrast, little is known about the nature, biosynthesis, and role of waxes at the root-rhizosphere interface. Waxes isolated by rapid immersion of Arabidopsis (Arabidopsis thaliana) roots in organic solvents were rich in saturated C18-C22 alkyl esters of p-hydroxycinnamic acids, but also contained significant amounts of both alpha- and beta-isomers of monoacylglycerols with C22 and C24 saturated acyl groups and the corresponding free fatty acids. Production of these compounds in root waxes was positively correlated to the expression of sn-glycerol-3-P acyltransferase5 (GPAT5), a gene encoding an acyltransferase previously shown to be involved in aliphatic suberin synthesis. This suggests a direct metabolic relationship between suberin and some root waxes. Furthermore, when ectopically expressed in Arabidopsis, GPAT5 produced very-long-chain saturated monoacylglycerols and free fatty acids as novel components of cuticular waxes. The crystal morphology of stem waxes was altered and the load of total stem wax compounds was doubled, although the major components typical of the waxes found on wild-type plants decreased. These results strongly suggest that GPAT5 functions in vivo as an acyltransferase to a glycerol-containing acceptor and has access to the same pool of acyl intermediates and/or may be targeted to the same membrane domain as that of wax synthesis in aerial organs.
p15
sS'pageEnd'
p16
I1277
sS'date'
p17
I2007
sS'documentType'
p18
VArticle
p19
sS'subject'
p20
VPlant Sciences
p21
sS'isoSource'
p22
VPlant Physiol.
p23
sS'timesCited'
p24
(lp25
I29
aVZ9 29
p26
asS'PT'
p27
VJ
sS'title'
p28
VMonoacylglycerols Are Components Of Root Waxes And Can Be Produced In The Aerial Cuticle By Ectopic Expression Of A Suberin-Associated Acyltransferase
p29
sS'ISSN'
p30
(lp31
V0032-0889
p32
aVJ9 PLANT PHYSIOL
p33
asS'authors_full'
p34
(lp35
(VLI
VYONGHUA
tp36
a(VBEISSON
VFRED
tp37
a(VOHLROGGE
VJOHN
tp38
a(VPOLLARD
VMIKE
tp39
asS'PG'
p40
I11
sS'PD'
p41
VJUL
p42
sS'pageStart'
p43
I1267
sS'issue'
p44
I3
sS'RI'
p45
VLi, Yonghua/C-7047-2011
p46
sS'journal'
p47
VPLANT PHYSIOLOGY
p48
sS'volume'
p49
V144
p50
sS'doi'
p51
V10.1104/pp.107.099432
p52
sS'emailAddress'
p53
Vpollard9@msu.edu
p54
sS'authorAddress'
p55
VMichigan State Univ, Dept Plant Biol, E Lansing, MI 48824 USA.
p56
sS'publisherAddress'
p57
V15501 MONONA DRIVE, ROCKVILLE, MD 20855 USA
p58
sS'ER'
p59
V
sS'publisher'
p60
VAMER SOC PLANT BIOLOGISTS
p61
sS'authorKeywords'
p62
(lp63
VSOLANUM-TUBEROSUM L.
p64
aVGREEN COTTON FIBERS
p65
aVARABIDOPSIS-THALIANA
p66
aVCORK SUBERIN
p67
aVDROUGHT TOLERANCE
p68
aVCUTICULAR WAXES
p69
aVGENE-TRANSFER
p70
aVGLYCEROL
p71
aVPOTATO
p72
aVACID
p73
asS'language'
p74
VEnglish
p75
sS'wosid'
p76
VWOS:000247849400005
p77
sS'citationCount'
p78
I44
sS'authors_init'
p79
(lp80
(VLI
VY H
tp81
a(VBEISSON
VF
tp82
a(VOHLROGGE
VJ
tp83
a(VPOLLARD
VM
tp84
asS'citedReferences'
p85
(lp86
g1
(g2
g3
NtRp87
(dp88
g51
V10.1105/tpc.104.022897
p89
sg47
VPLANT CELL
p90
sg49
V16
p91
sg79
(lp92
(VAHARONI
VA
tp93
asg17
I2004
sg43
VLANT
p94
sbag1
(g2
g3
NtRp95
(dp96
g51
Nsg47
VCR ACAD SCI III
p97
sg49
V316
p98
sg79
(lp99
(VBECHTOLD
VN
tp100
asg17
I1993
sg43
V1194
p101
sbag1
(g2
g3
NtRp102
(dp103
g51
V10.1105/tpc.106.048033
p104
sg47
VPLANT CELL
p105
sg49
V19
p106
sg79
(lp107
(VBEISSON
VF
tp108
asg17
I2007
sg43
VLANT
p109
sbag1
(g2
g3
NtRp110
(dp111
g51
V10.1016/0031-9422(92)83695-U
p112
sg47
VPHYTOCHEMISTRY
p113
sg49
V31
p114
sg79
(lp115
(VBERNARDS
VM A
tp116
asg17
I1992
sg43
VHYTOCHEMISTRY
p117
sbag1
(g2
g3
NtRp118
(dp119
g51
V[10.1139/B02-017, 10.1139/b02-017]
p120
sg47
VCAN J BOT
p121
sg49
V80
p122
sg79
(lp123
(VBERNARDS
VM A
tp124
asg17
I2002
sg43
V227
p125
sbag1
(g2
g3
NtRp126
(dp127
g51
Nsg47
VJ BIOL CHEM
p128
sg49
V270
p129
sg79
(lp130
(VBERNARDS
VM A
tp131
asg17
I1995
sg43
V7382
p132
sbag1
(g2
g3
NtRp133
(dp134
g51
V10.1111/j.1365-313X.2004.02258.x
p135
sg47
VPLANT J
p136
sg49
V40
p137
sg79
(lp138
(VBONAVENTURE
VG
tp139
asg17
I2004
sg43
VLANT
p140
sbag1
(g2
g3
NtRp141
(dp142
g51
V10.1073/pnas.0305574101
p143
sg47
VP NATL ACAD SCI USA
p144
sg49
V101
p145
sg79
(lp146
(VBROUN
VP
tp147
asg17
I2004
sg43
V4706
p148
sbag1
(g2
g3
NtRp149
(dp150
g51
V10.3109/10520299109110562
p151
sg47
VBIOTECH HISTOCHEM
p152
sg49
V66
p153
sg79
(lp154
(VBRUNDRETT
VM C
tp155
asg17
I1991
sg43
V111
p156
sbag1
(g2
g3
NtRp157
(dp158
g51
V10.1111/j.1469-8137.1995.tb03061.x
p159
sg47
VNEW PHYTOL
p160
sg49
V131
p161
sg79
(lp162
(VDOLAN
VL
tp163
asg17
I1995
sg43
V121
p164
sbag1
(g2
g3
NtRp165
(dp166
g51
V10.1007/BF02395317
p167
sg47
VPLANTA
p168
sg49
V148
p169
sg79
(lp170
(VESPELIE
VK E
tp171
asg17
I1980
sg43
VLANTA
p172
sbag1
(g2
g3
NtRp173
(dp174
g51
V10.1016/j.phytochem.2005.09.027
p175
sg47
VPHYTOCHEMISTRY
p176
sg49
V66
p177
sg79
(lp178
(VFRANKE
VR
tp179
asg17
I2005
sg43
VHYTOCHEMISTRY
p180
sbag1
(g2
g3
NtRp181
(dp182
g51
V10.1515/hfsg.1997.51.3.225
p183
sg47
VHOLZFORSCHUNG
p184
sg49
V51
p185
sg79
(lp186
(VGRACA
VJ
tp187
asg17
I1997
sg43
V225
p188
sbag1
(g2
g3
NtRp189
(dp190
g51
V10.1016/S0031-9422(02)00212-1
p191
sg47
VPHYTOCHEMISTRY
p192
sg49
V61
p193
sg79
(lp194
(VGRACA
VJ
tp195
asg17
I2002
sg43
VHYTOCHEMISTRY
p196
sbag1
(g2
g3
NtRp197
(dp198
g51
V10.1021/jf0006123
p199
sg47
VJ AGR FOOD CHEM
p200
sg49
V48
p201
sg79
(lp202
(VGRACA
VJ
tp203
asg17
I2000
sg43
V5476
p204
sbag1
(g2
g3
NtRp205
(dp206
g51
V10.1021/bm060174u
p207
sg47
VBIOMACROMOLECULES
p208
sg49
V7
sg79
(lp209
(VGRACA
VJ
tp210
asg17
I2006
sg43
V2003
p211
sbag1
(g2
g3
NtRp212
(dp213
g51
V10.1515/HF.1999.066
p214
sg47
VHOLZFORSCHUNG
p215
sg49
V53
p216
sg79
(lp217
(VGRACA
VJ
tp218
asg17
I1999
sg43
V397
p219
sbag1
(g2
g3
NtRp220
(dp221
g51
Nsg47
VINTRO CHEM BIOCH FAT
p222
sg49
Nsg79
(lp223
(VGUNSTONE
VF D
tp224
asg17
I1967
sg43
V141
p225
sbag1
(g2
g3
NtRp226
(dp227
g51
Nsg47
VThe plant cuticle
p228
sg49
Nsg79
(lp229
(VHOLLOWAY
VP J
tp230
asg17
I1982
sg43
V1
sbag1
(g2
g3
NtRp231
(dp232
g51
Nsg47
VANNU PLANT REV
p233
sg49
V23
p234
sg79
(lp235
(VJETTER
VR
tp236
asg17
I2006
sg43
V145
p237
sbag1
(g2
g3
NtRp238
(dp239
g51
Nsg47
VADV BIOCHEM ENG BIOT
p240
sg49
V71
p241
sg79
(lp242
(VKOLATTUKUDY
VP E
tp243
asg17
I2001
sg43
V1
sbag1
(g2
g3
NtRp244
(dp245
g51
Nsg47
VBIOCH PLANTS
p246
sg49
V4
sg79
(lp247
(VKOLATTUKUDY
VP E
tp248
asg17
I1980
sg43
V571
p249
sbag1
(g2
g3
NtRp250
(dp251
g51
V10.1016/S0163-7827(02)00045-0
p252
sg47
VPROG LIPID RES
p253
sg49
V42
p254
sg79
(lp255
(VKUNST
VL
tp256
asg17
I2003
sg43
VROG
p257
sbag1
(g2
g3
NtRp258
(dp259
g51
V10.1016/j.phytochem.2006.02.015
p260
sg47
VPHYTOCHEMISTRY
p261
sg49
V67
p262
sg79
(lp263
(VLI
VY H
tp264
asg17
I2006
sg43
VHYTOCHEMISTRY
p265
sbag1
(g2
g3
NtRp266
(dp267
g51
V10.1006/pmpp.1998.0179
p268
sg47
VPHYSIOL MOL PLANT P
p269
sg49
V53
p270
sg79
(lp271
(VLULAI
VE C
tp272
asg17
I1998
sg43
VHYSIOL
p273
sbag1
(g2
g3
NtRp274
(dp275
g51
V10.1104/pp.119.3.1137
p276
sg47
VPLANT PHYSIOL
p277
sg49
V119
p278
sg79
(lp279
(VMOIRE
VL
tp280
asg17
I1999
sg43
VLANT
p281
sbag1
(g2
g3
NtRp282
(dp283
g51
V10.1016/j.phytochem.2006.09.011
p284
sg47
VPHYTOCHEMISTRY
p285
sg49
V67
p286
sg79
(lp287
(VMOLINA
VI
tp288
asg17
I2006
sg43
VHYTOCHEMISTRY
p289
sbag1
(g2
g3
NtRp290
(dp291
g51
V10.1111/j.1399-3054.1962.tb08052.x
p292
sg47
VPHYSIOL PLANTARUM
p293
sg49
V15
p294
sg79
(lp295
(VMURASHIGE
VT
tp296
asg17
I1962
sg43
VHYSIOL
p297
sbag1
(g2
g3
NtRp298
(dp299
g51
Nsg47
VMASS SPECTROSCOPY LI
p300
sg49
Nsg79
(lp301
(VMURPHY
VR C
tp302
asg17
I1993
sg43
V206
p303
sbag1
(g2
g3
NtRp304
(dp305
g51
V10.1016/j.pbi.2006.03.001
p306
sg47
VCURR OPIN PLANT BIOL
p307
sg49
V9
sg79
(lp308
(VNAWRATH
VC
tp309
asg17
I2006
sg43
V281
p310
sbag1
(g2
g3
NtRp311
(dp312
g51
V10.1199/tab.0021
p313
sg47
VArabidopsis Book
p314
sg49
V1
sg79
(lp315
(VNAWRATH
VCHRISTIANE
tp316
asg17
I2002
sg43
Ve0021
p317
sbag1
(g2
g3
NtRp318
(dp319
g51
V10.1086/297596
p320
sg47
VINT J PLANT SCI
p321
sg49
V159
p322
sg79
(lp323
(VRASHOTTE
VA M
tp324
asg17
I1998
sg43
V773
p325
sbag1
(g2
g3
NtRp326
(dp327
g51
V10.1016/S0031-9422(00)00513-6
p328
sg47
VPHYTOCHEMISTRY
p329
sg49
V57
p330
sg79
(lp331
(VRASHOTTE
VA M
tp332
asg17
I2001
sg43
VHYTOCHEMISTRY
p333
sbag1
(g2
g3
NtRp334
(dp335
g51
Nsg47
VMETHOD ENZYMOL
p336
sg49
V118
p337
sg79
(lp338
(VROGERS
VS G
tp339
asg17
I1986
sg43
V627
p340
sbag1
(g2
g3
NtRp341
(dp342
g51
V10.1515/HF.2006.028
p343
sg47
VHOLZFORSCHUNG
p344
sg49
V60
p345
sg79
(lp346
(VSANTOS
VS
tp347
asg17
I2006
sg43
V171
p348
sbag1
(g2
g3
NtRp349
(dp350
g51
V10.1016/S0031-9422(00)89721-6
p351
sg47
VPHYTOCHEMISTRY
p352
sg49
V36
p353
sg79
(lp354
(VSCHMUTZ
VA
tp355
asg17
I1994
sg43
VHYTOCHEMISTRY
p356
sbag1
(g2
g3
NtRp357
(dp358
g51
Nsg47
VPLANT PHYSIOL
p359
sg49
V110
p360
sg79
(lp361
(VSCHMUTZ
VA
tp362
asg17
I1996
sg43
VLANT
p363
sbag1
(g2
g3
NtRp364
(dp365
g51
V10.1007/BF00194445
p366
sg47
VPLANTA
p367
sg49
V189
p368
sg79
(lp369
(VSCHMUTZ
VA
tp370
asg17
I1993
sg43
VLANTA
p371
sbag1
(g2
g3
NtRp372
(dp373
g51
V10.1007/s00425-004-1364-9
p374
sg47
VPLANTA
p375
sg49
V220
p376
sg79
(lp377
(VSCHREIBER
VL
tp378
asg17
I2005
sg43
VLANTA
p379
sbag1
(g2
g3
NtRp380
(dp381
g51
V10.1021/jf00123a037
p382
sg47
VJ AGR FOOD CHEM
p383
sg49
V32
p384
sg79
(lp385
(VSEVERSON
VR F
tp386
asg17
I1984
sg43
V566
p387
sbag1
(g2
g3
NtRp388
(dp389
g51
V10.1007/BF00388840
p390
sg47
VPLANTA
p391
sg49
V146
p392
sg79
(lp393
(VSOLIDAY
VC L
tp394
asg17
I1979
sg43
VLANTA
p395
sbag1
(g2
g3
NtRp396
(dp397
g51
V10.1104/pp.105.070805
p398
sg47
VPLANT PHYSIOL
p399
sg49
V139
p400
sg79
(lp401
(VSUH
VM C
tp402
asg17
I2005
sg43
VLANT
p403
sbag1
(g2
g3
NtRp404
(dp405
g51
V10.1111/j.1365-313X.2005.02405.x
p406
sg47
VPLANT J
p407
sg49
V42
p408
sg79
(lp409
(VZHANG
VJ Y
tp410
asg17
I2005
sg43
VLANT
p411
sbag1
(g2
g3
NtRp412
(dp413
g51
V10.1105/tpc.012427
p414
sg47
VPLANT CELL
p415
sg49
V15
p416
sg79
(lp417
(VZHENG
VZ F
tp418
asg17
I2003
sg43
VLANT
p419
sbasb.