ccopy_reg
_reconstructor
p1
(ctethne.classes.paper
Paper
p2
c__builtin__
object
p3
NtRp4
(dp5
S'publisherCity'
p6
VROCKVILLE
p7
sS'reprintAddress'
p8
VFacanha, AR (reprint author), Univ Estadual Norte Fluminense, Lab Biol Celular & Tecidual, Ctr Biociencias Biotecnol, Avenida Alberto Lamego 2000, BR-28015620 Rio De Janeiro, Brazil.
p9
sS'WC'
p10
VPlant Sciences
p11
sS'GA'
p12
V628JL
p13
sS'abstract'
p14
VEarthworms (Eisenia foetida) produce humic substances that can influence plant growth by mechanisms that are not yet clear. In this work, we investigated the effects of humic acids (HAs) isolated from cattle manure earthworm compost on the earliest stages of lateral root development and on the plasma membrane H+-ATPase activity. These HAs enhance the root growth of maize (Zea mays) seedlings in conjunction with a marked proliferation of sites of lateral root emergence. They also stimulate the plasma membrane H+-ATPase activity, apparently associated with an ability to promote expression of this enzyme. In addition, structural analysis reveals the presence of exchangeable auxin groups in the macrostructure of the earthworm compost HA. These results may shed light on the hormonal activity that has been postulated for these humic substances.
p15
sS'pageEnd'
p16
I1957
sS'publisherAddress'
p17
V15501 MONONA DRIVE, ROCKVILLE, MD 20855 USA
p18
sS'documentType'
p19
VArticle
p20
sS'subject'
p21
VPlant Sciences
p22
sS'isoSource'
p23
VPlant Physiol.
p24
sS'timesCited'
p25
(lp26
I116
aVZ9 127
p27
asS'PT'
p28
VJ
sS'title'
p29
VHumic Acids Isolated From Earthworm Compost Enhance Root Elongation, Lateral Root Emergence, And Plasma Membrane H+-Atpase Activity In Maize Roots
p30
sS'ISSN'
p31
(lp32
V0032-0889
p33
aVJ9 PLANT PHYSIOL
p34
asS'authors_full'
p35
(lp36
(VCANELLAS
VLP
tp37
a(VOLIVARES
VFL
tp38
a(VOKOROKOVAFACANHA
VAL
tp39
a(VFACANHA
VAR
tp40
asS'PG'
p41
I7
sS'PD'
p42
VDEC
p43
sS'pageStart'
p44
I1951
sS'issue'
p45
I4
sS'journal'
p46
VPLANT PHYSIOLOGY
p47
sS'volume'
p48
V130
p49
sS'doi'
p50
V10.1104/pp.007088
p51
sS'authorAddress'
p52
(lp53
VUniv Estadual Norte Fluminense, Lab Biol Celular & Tecidual, Ctr Biociencias Biotecnol, BR-28015620 Rio De Janeiro, Brazil.
p54
aVUniv Estadual Norte Fluminense, Lab Solos, Ctr Ciencias Tecnol Agropecuarias, BR-28015620 Rio De Janeiro, Brazil.
p55
aVUniv Estadual Norte Fluminense, Lab Fisiol Bioquim Microrganismos, BR-28015620 Rio De Janeiro, Brazil.
p56
asS'date'
p57
I2002
sS'ER'
p58
V
sS'publisher'
p59
VAMER SOC PLANT BIOLOGISTS
p60
sS'authorKeywords'
p61
(lp62
VSOIL ORGANIC-MATTER
p63
aVNITRATE UPTAKE
p64
aVAUXIN
p65
aVSUBSTANCES
p66
aVGROWTH
p67
aVVESICLES
p68
aVCALIGINOSA
p69
aVCOMPLEXES
p70
aVFRACTIONS
p71
aVPROTEIN
p72
asS'language'
p73
VEnglish
p74
sS'wosid'
p75
VWOS:000179990100039
p76
sS'citationCount'
p77
I44
sS'authors_init'
p78
(lp79
(VCANELLAS
VL P
tp80
a(VOLIVARES
VF L
tp81
a(VOKOROKOVAFACANHA
VA L
tp82
a(VFACANHA
VA R
tp83
asS'citedReferences'
p84
(lp85
g1
(g2
g3
NtRp86
(dp87
g50
V10.1073/pnas.91.1.326
p88
sg46
VP NATL ACAD SCI USA
p89
sg48
V91
p90
sg78
(lp91
(VABEL
VS
tp92
asg57
I1994
sg44
V326
p93
sbag1
(g2
g3
NtRp94
(dp95
g50
V10.1046/j.0960-7412.2001.01217.x
p96
sg46
VPLANT J
p97
sg48
V29
p98
sg78
(lp99
(VBHALERAO
VR P
tp100
asg57
I2002
sg44
VLANT
p101
sbag1
(g2
g3
NtRp102
(dp103
g50
V10.1086/337308
p104
sg46
VBOT GAZ
p105
sg48
V143
p106
sg78
(lp107
(VBLAKELY
VL M
tp108
asg57
I1982
sg44
V341
p109
sbag1
(g2
g3
NtRp110
(dp111
g50
V10.1098/rspb.1917.0007
p112
sg46
VP R SOC LOND B
p113
sg48
V89
p114
sg78
(lp115
(VBOTTOMLEY
VW B
tp116
asg57
I1917
sg44
V481
p117
sbag1
(g2
g3
NtRp118
(dp119
g50
Nsg46
VCAN J SOIL SCI
p120
sg48
V64
p121
sg78
(lp122
(VCACCO
VG
tp123
asg57
I1984
sg44
V225
p124
sbag1
(g2
g3
NtRp125
(dp126
g50
V10.1105/tpc.13.4.843
p127
sg46
VPLANT CELL
p128
sg48
V13
p129
sg78
(lp130
(VCASIMIRO
VI
tp131
asg57
I2001
sg44
VLANT
p132
sbag1
(g2
g3
NtRp133
(dp134
g50
Nsg46
VHumic substances in soil and crop sciences
p135
sg48
Nsg78
(lp136
(VCHEN
VY
tp137
asg57
I1990
sg44
V161
p138
sbag1
(g2
g3
NtRp139
(dp140
g50
V10.1097/00010694-199911000-00002
p141
sg46
VSOIL SCI
p142
sg48
V164
p143
sg78
(lp144
(VCLAPP
VC E
tp145
asg57
I1999
sg44
V777
p146
sbag1
(g2
g3
NtRp147
(dp148
g50
V10.1016/S0038-0717(00)00196-6
p149
sg46
VSOIL BIOL BIOCHEM
p150
sg48
V33
p151
sg78
(lp152
(VCOZZOLINO
VA
tp153
asg57
I2001
sg44
V563
p154
sbag1
(g2
g3
NtRp155
(dp156
g50
Nsg46
VINSTRUMENTACAO AGROP
p157
sg48
Nsg78
(lp158
(VCRUVINEL
VP E
tp159
asg57
I1996
sg44
V91
p160
sbag1
(g2
g3
NtRp161
(dp162
g50
Nsg46
VBIOL FERT SOILS
p163
sg48
V4
sg78
(lp164
(VDELLAGNOLA
VG
tp165
asg57
I1987
sg44
V115
p166
sbag1
(g2
g3
NtRp167
(dp168
g50
V10.1104/pp.81.2.542
p169
sg46
VPLANT PHYSIOL
p170
sg48
V81
p171
sg78
(lp172
(VDEMICHELIS
VM I
tp173
asg57
I1986
sg44
VLANT
p174
sbag1
(g2
g3
NtRp175
(dp176
g50
Nsg46
VPLANT PHYSIOL
p177
sg48
V108
p178
sg78
(lp179
(VFACANHA
VA R
tp180
asg57
I1995
sg44
VLANT
p181
sbag1
(g2
g3
NtRp182
(dp183
g50
Nsg46
VJ BIOL CHEM
p184
sg48
V66
p185
sg78
(lp186
(VFISKE
VC H
tp187
asg57
I1925
sg44
V375
p188
sbag1
(g2
g3
NtRp189
(dp190
g50
Nsg46
VPLANT CELL
p191
sg48
V8
sg78
(lp192
(VFRIAS
VI
tp193
asg57
I1996
sg44
VLANT
p194
sbag1
(g2
g3
NtRp195
(dp196
g50
V10.1073/pnas.90.24.11442
p197
sg46
VP NATL ACAD SCI USA
p198
sg48
V90
p199
sg78
(lp200
(VGOLDSMITH
VM H M
tp201
asg57
I1993
sg44
V11442
p202
sbag1
(g2
g3
NtRp203
(dp204
g50
Nsg46
VPLANTA
p205
sg48
V185
p206
sg78
(lp207
(VHAGER
VA
tp208
asg57
I1991
sg44
VLANTA
p209
sbag1
(g2
g3
NtRp210
(dp211
g50
V10.1034/j.1399-3054.1998.1040304.x
p212
sg46
VPHYSIOL PLANTARUM
p213
sg48
V104
p214
sg78
(lp215
(VJAHN
VT
tp216
asg57
I1998
sg44
VHYSIOL
p217
sbag1
(g2
g3
NtRp218
(dp219
g50
Nsg46
VQUIM NOVA
p220
sg48
V22
p221
sg78
(lp222
(VLANDGRAF
VM D
tp223
asg57
I1999
sg44
V483
p224
sbag1
(g2
g3
NtRp225
(dp226
g50
Nsg46
VDEVELOPMENT
p227
sg48
V121
p228
sg78
(lp229
(VLASKOWSKI
VM J
tp230
asg57
I1995
sg44
V3303
p231
sbag1
(g2
g3
NtRp232
(dp233
g50
Nsg46
VJ BIOL CHEM
p234
sg48
V193
p235
sg78
(lp236
(VLOWRY
VO H
tp237
asg57
I1951
sg44
V265
p238
sbag1
(g2
g3
NtRp239
(dp240
g50
V10.1016/S0960-8524(96)00142-3
p241
sg46
VBIORESOURCE TECHNOL
p242
sg48
V59
p243
sg78
(lp244
(VMASCIANDARO
VG
tp245
asg57
I1997
sg44
V199
p246
sbag1
(g2
g3
NtRp247
(dp248
g50
V10.1016/S0005-2736(00)00128-0
p249
sg46
VBBA
p250
sg48
V1465
p251
sg78
(lp252
(VMORSOMME
VP
tp253
asg57
I2000
sg44
V1
sbag1
(g2
g3
NtRp254
(dp255
g50
Nsg46
VEMBO J
p256
sg48
V15
p257
sg78
(lp258
(VMORSOMME
VP
tp259
asg57
I1996
sg44
V5513
p260
sbag1
(g2
g3
NtRp261
(dp262
g50
V10.1016/S0038-0717(99)00049-8
p263
sg46
VSOIL BIOL BIOCHEM
p264
sg48
V31
p265
sg78
(lp266
(VMUSCOLO
VA
tp267
asg57
I1999
sg44
V1303
p268
sbag1
(g2
g3
NtRp269
(dp270
g50
V10.1016/S0038-0717(98)00005-4
p271
sg46
VSOIL BIOL BIOCHEM
p272
sg48
V30
p273
sg78
(lp274
(VMUSCOLO
VA
tp275
asg57
I1998
sg44
V1199
p276
sbag1
(g2
g3
NtRp277
(dp278
g50
V10.1016/0038-0717(94)90215-1
p279
sg46
VSOIL BIOL BIOCHEM
p280
sg48
V26
p281
sg78
(lp282
(VNARDI
VS
tp283
asg57
I1994
sg44
V1341
p284
sbag1
(g2
g3
NtRp285
(dp286
g50
V10.1016/0038-0717(91)90094-Z
p287
sg46
VSOIL BIOL BIOCHEM
p288
sg48
V23
p289
sg78
(lp290
(VNARDI
VS
tp291
asg57
I1991
sg44
V833
p292
sbag1
(g2
g3
NtRp293
(dp294
g50
V10.1016/S0045-6535(99)00488-9
p295
sg46
VCHEMOSPHERE
p296
sg48
V41
p297
sg78
(lp298
(VNARDI
VS
tp299
asg57
I2000
sg44
V653
p300
sbag1
(g2
g3
NtRp301
(dp302
g50
V10.1104/pp.121.3.905
p303
sg46
VPLANT PHYSIOL
p304
sg48
V121
p305
sg78
(lp306
(VPETERS
VW S
tp307
asg57
I1999
sg44
VLANT
p308
sbag1
(g2
g3
NtRp309
(dp310
g50
V10.1016/S0065-2113(02)75003-7
p311
sg46
VADV AGRON
p312
sg48
V75
p313
sg78
(lp314
(VPICCOLO
VA
tp315
asg57
I2002
sg44
V57
p316
sbag1
(g2
g3
NtRp317
(dp318
g50
V10.1023/A:1004752531903
p319
sg46
VPLANT SOIL
p320
sg48
V215
p321
sg78
(lp322
(VPINTON
VR
tp323
asg57
I1999
sg44
VLANT
p324
sbag1
(g2
g3
NtRp325
(dp326
g50
V10.1046/j.0028-646x.2001.00223.x
p327
sg46
VNEW PHYTOL
p328
sg48
V151
p329
sg78
(lp330
(VPIZZEGHELLO
VD
tp331
asg57
I2001
sg44
V647
p332
sbag1
(g2
g3
NtRp333
(dp334
g50
V10.1104/pp.99.4.1271
p335
sg46
VPLANT PHYSIOL
p336
sg48
V99
p337
sg78
(lp338
(VRAYLE
VD L
tp339
asg57
I1992
sg44
VLANT
p340
sbag1
(g2
g3
NtRp341
(dp342
g50
V10.1006/abio.1998.2977
p343
sg46
VANAL BIOCHEM
p344
sg48
V268
p345
sg78
(lp346
(VRETAMAL
VC A
tp347
asg57
I1999
sg44
V15
p348
sbag1
(g2
g3
NtRp349
(dp350
g50
V10.1046/j.1365-313X.1993.04010041.x
p351
sg46
VPLANT J
p352
sg48
V4
sg78
(lp353
(VRUCK
VA
tp354
asg57
I1993
sg44
VLANT
p355
sbag1
(g2
g3
NtRp356
(dp357
g50
Nsg46
VAGRONOMIC MONOGRAPH
p358
sg48
Nsg78
(lp359
(VSCHNITZER
VM
tp360
asg57
I1982
sg44
V581
p361
sbag1
(g2
g3
NtRp362
(dp363
g50
Nsg46
VSOIL SCI SOC AMER PROC
p364
sg48
V29
p365
sg78
(lp366
(VSCHNITZER
VM
tp367
asg57
I1965
sg44
V274
p368
sbag1
(g2
g3
NtRp369
(dp370
g50
V10.1007/s001140050222
p371
sg46
VNATURWISSENSCHAFTEN
p372
sg48
V82
p373
sg78
(lp374
(VSCHULTEN
VH R
tp375
asg57
I1995
sg44
V487
p376
sbag1
(g2
g3
NtRp377
(dp378
g50
Nsg46
VHUMUS CHEM GENESIS C
p379
sg48
Nsg78
(lp380
(VSTEVENSON
VF J
tp381
asg57
I1994
sg44
V188
p382
sbag1
(g2
g3
NtRp383
(dp384
g50
Nsg46
VANNU REV PLANT PHYS
p385
sg48
V36
p386
sg78
(lp387
(VSZE
VH
tp388
asg57
I1985
sg44
V175
p389
sbag1
(g2
g3
NtRp390
(dp391
g50
V10.1007/BF00010544
p392
sg46
VPLANT SOIL
p393
sg48
V153
p394
sg78
(lp395
(VVARANINI
VZ
tp396
asg57
I1993
sg44
VLANT
p397
sbag1
(g2
g3
NtRp398
(dp399
g50
Nsg46
VSoil organic matter and biological activity  Developments in Plant and Soil Sciences Vol
p400
sg48
Nsg78
(lp401
(VVAUGHAN
VD
tp402
asg57
I1985
sg44
V37
p403
sbag1
(g2
g3
NtRp404
(dp405
g50
V10.1016/S0038-0717(96)00201-5
p406
sg46
VSOIL BIOL BIOCHEM
p407
sg48
V29
p408
sg78
(lp409
(VVINCESLASAKPA
VM
tp410
asg57
I1997
sg44
V751
p411
sbasb.