ccopy_reg
_reconstructor
p1
(ctethne.classes.paper
Paper
p2
c__builtin__
object
p3
NtRp4
(dp5
S'publisherCity'
p6
VROCKVILLE
p7
sS'reprintAddress'
p8
VMeyer, RC (reprint author), Max Planck Inst Mol Plant Physiol, Golm, Germany.
p9
sS'WC'
p10
VPlant Sciences
p11
sS'GA'
p12
V812SY
p13
sS'abstract'
p14
VHeterosis has been widely used in agriculture to increase yield and to broaden adaptability of hybrid varieties and is applied to an increasing number of crop species. We performed a systematic survey of the extent and degree of heterosis for dry biomass in 63 Arabidopsis accessions crossed to three reference lines (Col-0, C24, and Nd). We detected a high heritability (69%) for biomass production in Arabidopsis. Among the 169 crosses analyzed, 29 exhibited significant mid-parent-heterosis for shoot biomass. Furthermore, we analyzed two divergent accessions, C24 and Col-0, the F-1 hybrids of which were shown to exhibit hybrid vigor, in more detail. In the combination Col-0/C24, heterosis for biomass was enhanced at higher light intensities; we found 51% to 66% mid-parent-heterosis at low and intermediate light intensities (60 and 120 mumol m(-2) s(-1)), and 161% at high light intensity (240 mumol m(-2) s(-1)). While at the low and intermediate light intensities relative growth rates of the hybrids were higher only in the early developmental phase (0-15 d after sowing [DAS]), at high light intensity the hybrids showed increased relative growth rates over the entire vegetative phase (until 25 DAS). An important finding was the early onset of heterosis for biomass; in the cross Col-0/C24, differences between parental and hybrid lines in leaf size and dry shoot mass could be detected as early as 10 DAS. The widespread occurrence of heterosis in the model plant Arabidopsis opens the possibility to investigate the genetic basis of this phenomenon using the tools of genetical genomics.
p15
sS'pageEnd'
p16
I1823
sS'publisherAddress'
p17
V15501 MONONA DRIVE, ROCKVILLE, MD 20855 USA
p18
sS'documentType'
p19
VArticle
p20
sS'subject'
p21
VPlant Sciences
p22
sS'isoSource'
p23
VPlant Physiol.
p24
sS'timesCited'
p25
(lp26
I65
aVZ9 70
p27
asS'PT'
p28
VJ
sS'title'
p29
VHeterosis Of Biomass Production In Arabidopsis. Establishment During Early Development
p30
sS'ISSN'
p31
(lp32
V0032-0889
p33
aVJ9 PLANT PHYSIOL
p34
asS'authors_full'
p35
(lp36
(VMEYER
VRC
tp37
a(VTORJEK
VO
tp38
a(VBECHER
VM
tp39
a(VALTMANN
VT
tp40
asS'PG'
p41
I11
sS'PD'
p42
VAPR
p43
sS'pageStart'
p44
I1813
sS'issue'
p45
I4
sS'journal'
p46
VPLANT PHYSIOLOGY
p47
sS'volume'
p48
V134
p49
sS'doi'
p50
V10.1104/pp.103.033001
p51
sS'emailAddress'
p52
Vmeyer@mpimp-golm.mpg.de
p53
sS'authorAddress'
p54
(lp55
VMax Planck Inst Mol Plant Physiol, Golm, Germany.
p56
aVUniv Potsdam, Dept Genet, Inst Biochem & Biol, Golm, Germany.
p57
asS'date'
p58
I2004
sS'ER'
p59
V
sS'publisher'
p60
VAMER SOC PLANT BIOLOGISTS
p61
sS'authorKeywords'
p62
(lp63
VMOLECULAR MARKER HETEROZYGOSITY
p64
aVOVERDOMINANT EPISTATIC LOCI
p65
aVPRIMARY GENETIC-BASIS
p66
aVRELATIVE GROWTH-RATE
p67
aVTHALIANA L HEYNH
p68
aVHYBRID PERFORMANCE
p69
aVLEAF-AREA
p70
aVCOMBINING ABILITY
p71
aVTROPICAL MAIZE
p72
aVINBRED LINES
p73
asS'language'
p74
VEnglish
p75
sS'wosid'
p76
VWOS:000220860400054
p77
sS'citationCount'
p78
I86
sS'authors_init'
p79
(lp80
(VMEYER
VR C
tp81
a(VTORJEK
VO
tp82
a(VBECHER
VM
tp83
a(VALTMANN
VT
tp84
asS'citedReferences'
p85
(lp86
g1
(g2
g3
NtRp87
(dp88
g50
V10.1073/pnas.96.8.4710
p89
sg46
VP NATL ACAD SCI USA
p90
sg48
V96
p91
sg79
(lp92
(VALONSO-BLANCO
VC
tp93
asg58
I1999
sg44
V4710
p94
sbag1
(g2
g3
NtRp95
(dp96
g50
V10.1023/A:1003056500991
p97
sg46
VEUPHYTICA
p98
sg48
V95
p99
sg79
(lp100
(VALZA
VJ O
tp101
asg58
I1997
sg44
V243
p102
sbag1
(g2
g3
NtRp103
(dp104
g50
V10.1046/j.1439-0523.1999.00387.x
p105
sg46
VPLANT BREEDING
p106
sg48
V118
p107
sg79
(lp108
(VANNICCHIARICO
VP
tp109
asg58
I1999
sg44
VLANT
p110
sbag1
(g2
g3
NtRp111
(dp112
g50
V10.1007/s004420100645
p113
sg46
VOECOLOGIA
p114
sg48
V128
p115
sg79
(lp116
(VANTUNEZ
VI
tp117
asg58
I2001
sg44
V172
p118
sbag1
(g2
g3
NtRp119
(dp120
g50
Nsg46
VANN BOT
p121
sg48
V1
sg79
(lp122
(VASHBY
VE
tp123
asg58
I1937
sg44
V11
p124
sbag1
(g2
g3
NtRp125
(dp126
g50
V10.1023/A:1022381008721
p127
sg46
VEUPHYTICA
p128
sg48
V130
p129
sg79
(lp130
(VBARBOSA
VA M M
tp131
asg58
I2003
sg44
V87
p132
sbag1
(g2
g3
NtRp133
(dp134
g50
V10.1046/j.0962-1083.2002.01466.x
p135
sg46
VMOL ECOL
p136
sg48
V11
p137
sg79
(lp138
(VBARTH
VS
tp139
asg58
I2002
sg44
V495
p140
sbag1
(g2
g3
NtRp141
(dp142
g50
V10.1038/sj.hdy.6800276
p143
sg46
VHEREDITY
p144
sg48
V91
p145
sg79
(lp146
(VBARTH
VS
tp147
asg58
I2003
sg44
V36
p148
sbag1
(g2
g3
NtRp149
(dp150
g50
Nsg46
V50 ARB VER OST PFLAN
p151
sg48
Nsg79
(lp152
(VBECKER
VH C
tp153
asg58
I1999
sg44
V141
p154
sbag1
(g2
g3
NtRp155
(dp156
g50
Nsg46
VCROP SCI
p157
sg48
V43
p158
sg79
(lp159
(VBETRAN
VF J
tp160
asg58
I2003
sg44
V797
p161
sbag1
(g2
g3
NtRp162
(dp163
g50
Nsg46
VZ ACKER PFLANZENBAU
p164
sg48
V159
p165
sg79
(lp166
(VBHATT
VJ G
tp167
asg58
I1987
sg44
V264
p168
sbag1
(g2
g3
NtRp169
(dp170
g50
V10.1105/tpc.13.7.1499
p171
sg46
VPLANT CELL
p172
sg48
V13
p173
sg79
(lp174
(VBOYES
VD C
tp175
asg58
I2001
sg44
VLANT
p176
sbag1
(g2
g3
NtRp177
(dp178
g50
Nsg46
VMOL GEN GENET
p179
sg48
V261
p180
sg79
(lp181
(VBREYNE
VP
tp182
asg58
I1999
sg44
V627
p183
sbag1
(g2
g3
NtRp184
(dp185
g50
V10.1007/s001220050583
p186
sg46
VTHEOR APPL GENET
p187
sg48
V95
p188
sg79
(lp189
(VCERNA
VF J
tp190
asg58
I1997
sg44
V460
p191
sbag1
(g2
g3
NtRp192
(dp193
g50
Nsg46
VCROP SCI
p194
sg48
V38
p195
sg79
(lp196
(VCHERES
VM T
tp197
asg58
I1998
sg44
V1476
p198
sbag1
(g2
g3
NtRp199
(dp200
g50
V10.1006/mgme.2000.3015
p201
sg46
VMOL GENET METAB
p202
sg48
V71
p203
sg79
(lp204
(VCOMINGS
VD E
tp205
asg58
I2000
sg44
V19
p206
sbag1
(g2
g3
NtRp207
(dp208
g50
Nsg46
VGENETICS
p209
sg48
V82
p210
sg79
(lp211
(VCOREY
VL A
tp212
asg58
I1976
sg44
V677
p213
sbag1
(g2
g3
NtRp214
(dp215
g50
Nsg46
VHeterosis
p216
sg48
Nsg79
(lp217
(VCROW
VJ F
tp218
asg58
I1952
sg44
V282
p219
sbag1
(g2
g3
NtRp220
(dp221
g50
V10.1016/S0981-9428(01)01246-3
p222
sg46
VPLANT PHYSIOL BIOCH
p223
sg48
V39
p224
sg79
(lp225
(VDE
VVIENNE D
tp226
asg58
I2001
sg44
VLANT
p227
sbag1
(g2
g3
NtRp228
(dp229
g50
Nsg46
VGENETICS
p230
sg48
V35
p231
sg79
(lp232
(VDOBZHANSKY
VT
tp233
asg58
I1950
sg44
V288
p234
sbag1
(g2
g3
NtRp235
(dp236
g50
V10.1111/j.1439-0523.1993.tb00638.x
p237
sg46
VPLANT BREEDING
p238
sg48
V111
p239
sg79
(lp240
(VECKER
VR
tp241
asg58
I1993
sg44
VLANT
p242
sbag1
(g2
g3
NtRp243
(dp244
g50
Nsg46
VARABIDOPSIS INFORMAT
p245
sg48
V11
p246
sg79
(lp247
(VELASMI
VH
tp248
asg58
I1974
sg44
V15
p249
sbag1
(g2
g3
NtRp250
(dp251
g50
Nsg46
VARABID INF SERV
p252
sg48
V12
p253
sg79
(lp254
(VELASMI
VH
tp255
asg58
I1975
sg44
V24
p256
sbag1
(g2
g3
NtRp257
(dp258
g50
Nsg46
VINTRO QUANTITATIVE G
p259
sg48
Nsg79
(lp260
(VFALCONER
VD S
tp261
asg58
I1996
sg44
Nsbag1
(g2
g3
NtRp262
(dp263
g50
Nsg46
V2 INT C QUANT GEN
p264
sg48
Nsg79
(lp265
(VGEIGER
VH H
tp266
asg58
I1988
sg44
Nsbag1
(g2
g3
NtRp267
(dp268
g50
Nsg46
VSTAT GENETICS PLANT
p269
sg48
V982
p270
sg79
(lp271
(VGRIFFING
VB
tp272
asg58
I1963
sg44
V368
p273
sbag1
(g2
g3
NtRp274
(dp275
g50
Nsg46
VGENETICS
p276
sg48
V68
p277
sg79
(lp278
(VGRIFFING
VB
tp279
asg58
I1971
sg44
V443
p280
sbag1
(g2
g3
NtRp281
(dp282
g50
VDOI 10.1111/J.1469-8137.2009.02874.X
p283
sg46
VNUCL ACIDS S SER
p284
sg48
V41
p285
sg79
(lp286
(VHALL
VT A
tp287
asg58
I1999
sg44
V95
p288
sbag1
(g2
g3
NtRp289
(dp290
g50
Nsg46
VJ HERED
p291
sg48
V44
p292
sg79
(lp293
(VHANEY
VW J
tp294
asg58
I1953
sg44
V10
p295
sbag1
(g2
g3
NtRp296
(dp297
g50
V10.1007/s001220050376
p298
sg46
VTHEOR APPL GENET
p299
sg48
V94
p300
sg79
(lp301
(VHELMS
VT
tp302
asg58
I1997
sg44
V20
p303
sbag1
(g2
g3
NtRp304
(dp305
g50
V10.1055/s-2003-44784
p306
sg46
VPLANT BIOLOGY
p307
sg48
V5
sg79
(lp308
(VHOFFMANN
VM H
tp309
asg58
I2003
sg44
VLANT
p310
sbag1
(g2
g3
NtRp311
(dp312
g50
Nsg46
VCROP SCI
p313
sg48
V39
p314
sg79
(lp315
(VHOI
VS W
tp316
asg58
I1999
sg44
V1055
p317
sbag1
(g2
g3
NtRp318
(dp319
g50
V10.1007/s001220050576
p320
sg46
VTHEOR APPL GENET
p321
sg48
V95
p322
sg79
(lp323
(VHONGTRAKUL
VV
tp324
asg58
I1997
sg44
V400
p325
sbag1
(g2
g3
NtRp326
(dp327
g50
V10.1016/S0168-9525(01)02310-1
p328
sg46
VTRENDS GENET
p329
sg48
V17
p330
sg79
(lp331
(VJANSEN
VR C
tp332
asg58
I2001
sg44
V388
p333
sbag1
(g2
g3
NtRp334
(dp335
g50
V10.1270/jsbbs.52.107
p336
sg46
VBREEDING SCI
p337
sg48
V52
p338
sg79
(lp339
(VJIANG
VT B
tp340
asg58
I2002
sg44
V107
p341
sbag1
(g2
g3
NtRp342
(dp343
g50
V10.1023/A:1003646016780
p344
sg46
VEUPHYTICA
p345
sg48
V107
p346
sg79
(lp347
(VJOYCE
VT A
tp348
asg58
I1999
sg44
V159
p349
sbag1
(g2
g3
NtRp350
(dp351
g50
Nsg46
VGENETICS AND EXPLOITATION OF HETEROSIS IN CROPS
p352
sg48
Nsg79
(lp353
(VLAMKEY
VK R
tp354
asg58
I1999
sg44
V31
p355
sbag1
(g2
g3
NtRp356
(dp357
g50
V10.1086/282203
p358
sg46
VAM NAT
p359
sg48
V96
p360
sg79
(lp361
(VLANGRIDGE
VJ
tp362
asg58
I1962
sg44
V5
sbag1
(g2
g3
NtRp363
(dp364
g50
Nsg46
VCROP SCI
p365
sg48
V31
p366
sg79
(lp367
(VLEHMANN
VJ W
tp368
asg58
I1991
sg44
V1111
p369
sbag1
(g2
g3
NtRp370
(dp371
g50
V10.1016/S0981-9428(00)80097-2
p372
sg46
VPLANT PHYSIOL BIOCH
p373
sg48
V37
p374
sg79
(lp375
(VLEISTER
VD
tp376
asg58
I1999
sg44
VLANT
p377
sbag1
(g2
g3
NtRp378
(dp379
g50
Nsg46
VGENETICS
p380
sg48
V158
p381
sg79
(lp382
(VLI
VZ K
tp383
asg58
I2001
sg44
V1737
p384
sbag1
(g2
g3
NtRp385
(dp386
g50
V10.1270/jsbbs.52.201
p387
sg46
VBREEDING SCI
p388
sg48
V52
p389
sg79
(lp390
(VLIU
VX C
tp391
asg58
I2002
sg44
V201
p392
sbag1
(g2
g3
NtRp393
(dp394
g50
V10.1046/j.1439-0523.1999.118002119.x
p395
sg46
VPLANT BREEDING
p396
sg48
V118
p397
sg79
(lp398
(VLIU
VZ Q
tp399
asg58
I1999
sg44
VLANT
p400
sbag1
(g2
g3
NtRp401
(dp402
g50
Nsg46
VGENETICS
p403
sg48
V158
p404
sg79
(lp405
(VLUO
VL J
tp406
asg58
I2001
sg44
V1755
p407
sbag1
(g2
g3
NtRp408
(dp409
g50
Nsg46
VPLANT PHYSIOL
p410
sg48
V109
p411
sg79
(lp412
(VLYNCH
VJ
tp413
asg58
I1995
sg44
VLANT
p414
sbag1
(g2
g3
NtRp415
(dp416
g50
Nsg46
VAdvances in Plant Sciences
p417
sg48
V15
p418
sg79
(lp419
(VMAKESH
VS
tp420
asg58
I2002
sg44
V597
p421
sbag1
(g2
g3
NtRp422
(dp423
g50
V10.1007/BF00333719
p424
sg46
VOECOLOGIA
p425
sg48
V108
p426
sg79
(lp427
(VMEERTS
VP
tp428
asg58
I1996
sg44
V438
p429
sbag1
(g2
g3
NtRp430
(dp431
g50
Nsg46
VGENETICS AND EXPLOITATION OF HETEROSIS IN CROPS
p432
sg48
Nsg79
(lp433
(VMELCHINGER
VA E
tp434
asg58
I1999
sg44
V99
p435
sbag1
(g2
g3
NtRp436
(dp437
g50
V10.1093/jexbot/49.324.1063
p438
sg46
VJ EXP BOT
p439
sg48
V49
p440
sg79
(lp441
(VMILBORROW
VB V
tp442
asg58
I1998
sg44
V1063
p443
sbag1
(g2
g3
NtRp444
(dp445
g50
V10.1023/A:1009633005390
p446
sg46
VMOL BREEDING
p447
sg48
V3
sg79
(lp448
(VMILBOURNE
VD
tp449
asg58
I1997
sg44
V127
p450
sbag1
(g2
g3
NtRp451
(dp452
g50
Nsg46
VIowa State Journal of Research
p453
sg48
V53
p454
sg79
(lp455
(VMILLER
VI L
tp456
asg58
I1979
sg44
V273
p457
sbag1
(g2
g3
NtRp458
(dp459
g50
Nsg46
VGENETICS
p460
sg48
V140
p461
sg79
(lp462
(VMITCHELLOLDS
VT
tp463
asg58
I1995
sg44
V1105
p464
sbag1
(g2
g3
NtRp465
(dp466
g50
Nsg46
VCROP SCI
p467
sg48
V43
p468
sg79
(lp469
(VMOHAMMADI
VS A
tp470
asg58
I2003
sg44
V1235
p471
sbag1
(g2
g3
NtRp472
(dp473
g50
Nsg46
VGENETICS
p474
sg48
V52
p475
sg79
(lp476
(VMOLL
VR H
tp477
asg58
I1965
sg44
V139
p478
sbag1
(g2
g3
NtRp479
(dp480
g50
V10.1007/s001220050061
p481
sg46
VTHEOR APPL GENET
p482
sg48
V100
p483
sg79
(lp484
(VMONFORTE
VA J
tp485
asg58
I2000
sg44
V471
p486
sbag1
(g2
g3
NtRp487
(dp488
g50
Nsg46
VIndian Journal of Genetics and Plant Breeding
p489
sg48
V57
p490
sg79
(lp491
(VMULGE
VRAVINDRA
tp492
asg58
I1997
sg44
V180
p493
sbag1
(g2
g3
NtRp494
(dp495
g50
V10.1104/pp.103.028662
p496
sg46
VPLANT PHYSIOL
p497
sg48
V133
p498
sg79
(lp499
(VMUSSIG
VC
tp500
asg58
I2003
sg44
VLANT
p501
sbag1
(g2
g3
NtRp502
(dp503
g50
V10.1023/A:1010545101345
p504
sg46
VPLANT SOIL
p505
sg48
V234
p506
sg79
(lp507
(VNARANG
VR A
tp508
asg58
I2001
sg44
VLANT
p509
sbag1
(g2
g3
NtRp510
(dp511
g50
V10.1023/A:1012221129762
p512
sg46
VEUPHYTICA
p513
sg48
V121
p514
sg79
(lp515
(VPARENTONI
VS N
tp516
asg58
I2001
sg44
V197
p517
sbag1
(g2
g3
NtRp518
(dp519
g50
Nsg46
VCAN J PLANT SCI
p520
sg48
V67
p521
sg79
(lp522
(VPAVLIKOVA
VE
tp523
asg58
I1987
sg44
V99
p524
sbag1
(g2
g3
NtRp525
(dp526
g50
Nsg46
VGENSTAT RELEASE 6 1
p527
sg48
Nsg79
(lp528
(VPAYNE
VR W
tp529
asg58
I2002
sg44
Nsbag1
(g2
g3
NtRp530
(dp531
g50
Nsg46
VGENETICS
p532
sg48
V162
p533
sg79
(lp534
(VPEREZ-PEREZ
VJ M
tp535
asg58
I2002
sg44
V893
p536
sbag1
(g2
g3
NtRp537
(dp538
g50
V10.1007/s001220050542
p539
sg46
VTHEOR APPL GENET
p540
sg48
V95
p541
sg79
(lp542
(VPRICE
VA H
tp543
asg58
I1997
sg44
V143
p544
sbag1
(g2
g3
NtRp545
(dp546
g50
V10.1016/S1161-0301(01)00109-5
p547
sg46
VEUR J AGRON
p548
sg48
V15
p549
sg79
(lp550
(VPRZULJ
VN
tp551
asg58
I2001
sg44
V241
p552
sbag1
(g2
g3
NtRp553
(dp554
g50
V10.1104/pp.006536
p555
sg46
VPLANT PHYSIOL
p556
sg48
V130
p557
sg79
(lp558
(VQUESADA
VV
tp559
asg58
I2002
sg44
VLANT
p560
sbag1
(g2
g3
NtRp561
(dp562
g50
Nsg46
VPHOTOSYNTHETICA
p563
sg48
V26
p564
sg79
(lp565
(VRAO
VN K S
tp566
asg58
I1992
sg44
VHOTOSYNTHETICA
p567
sbag1
(g2
g3
NtRp568
(dp569
g50
Nsg46
VZ VEREBUNGSL
p570
sg48
V93
p571
sg79
(lp572
(VREDEI
VG P
tp573
asg58
I1962
sg44
V164
p574
sbag1
(g2
g3
NtRp575
(dp576
g50
V10.1023/A:1016390107871
p577
sg46
VEUPHYTICA
p578
sg48
V126
p579
sg79
(lp580
(VREVILLA
VP
tp581
asg58
I2002
sg44
V259
p582
sbag1
(g2
g3
NtRp583
(dp584
g50
V10.1046/j.1439-0523.2001.00636.x
p585
sg46
VPLANT BREEDING
p586
sg48
V120
p587
sg79
(lp588
(VRIAZ
VA
tp589
asg58
I2001
sg44
VLANT
p590
sbag1
(g2
g3
NtRp591
(dp592
g50
V10.1023/A:1023050126901
p593
sg46
VEUPHYTICA
p594
sg48
V131
p595
sg79
(lp596
(VRIDAY
VH
tp597
asg58
I2003
sg44
V37
p598
sbag1
(g2
g3
NtRp599
(dp600
g50
Nsg46
VTHEOR APPL GENET
p601
sg48
V54
p602
sg79
(lp603
(VSHARMA
VR K
tp604
asg58
I1979
sg44
V11
p605
sbag1
(g2
g3
NtRp606
(dp607
g50
Nsg46
VGENETICS
p608
sg48
V33
p609
sg79
(lp610
(VSHULL
VG H
tp611
asg58
I1948
sg44
V439
p612
sbag1
(g2
g3
NtRp613
(dp614
g50
Nsg46
VTHEOR APPL GENET
p615
sg48
V80
p616
sg79
(lp617
(VSMITH
VO S
tp618
asg58
I1990
sg44
V833
p619
sbag1
(g2
g3
NtRp620
(dp621
g50
V10.1023/A:1004676605336
p622
sg46
VPLANT SOIL
p623
sg48
V215
p624
sg79
(lp625
(VSTITT
VM
tp626
asg58
I1999
sg44
VLANT
p627
sbag1
(g2
g3
NtRp628
(dp629
g50
Nsg46
VPHOTOSYNTHETICA
p630
sg48
V30
p631
sg79
(lp632
(VTITOK
VV V
tp633
asg58
I1994
sg44
VHOTOSYNTHETICA
p634
sbag1
(g2
g3
NtRp635
(dp636
g50
V10.1046/j.1365-313X.2003.01861.x
p637
sg46
VPLANT J
p638
sg48
V36
p639
sg79
(lp640
(VTORJEK
VO
tp641
asg58
I2003
sg44
VLANT
p642
sbag1
(g2
g3
NtRp643
(dp644
g50
Nsg46
VPHYSIOL PLANTARUM
p645
sg48
V94
p646
sg79
(lp647
(VTSAFTARIS
VS A
tp648
asg58
I1995
sg44
VHYSIOL
p649
sbag1
(g2
g3
NtRp650
(dp651
g50
V10.1093/pcp/pcf147
p652
sg46
VPLANT CELL PHYSIOL
p653
sg48
V43
p654
sg79
(lp655
(VTSUKAYA
VH
tp656
asg58
I2002
sg44
VLANT
p657
sbag1
(g2
g3
NtRp658
(dp659
g50
V10.1104/pp.103.022665
p660
sg46
VPLANT PHYSIOL
p661
sg48
V133
p662
sg79
(lp663
(VVANDENBUSSCHE
VF
tp664
asg58
I2003
sg44
VLANT
p665
sbag1
(g2
g3
NtRp666
(dp667
g50
Nsg46
VJournal of Genetics 
p668
sg48
V56
p669
sg79
(lp670
(VVERMA
VO P
tp671
asg58
I2002
sg44
V267
p672
sbag1
(g2
g3
NtRp673
(dp674
g50
V10.1007/s001220051092
p675
sg46
VTHEOR APPL GENET
p676
sg48
V98
p677
sg79
(lp678
(VVIRK
VP S
tp679
asg58
I1999
sg44
V462
p680
sbag1
(g2
g3
NtRp681
(dp682
g50
Nsg46
VGROWTH DIFFERENTIATI
p683
sg48
Nsg79
(lp684
(VWAREING
VP F
tp685
asg58
I1981
sg44
Nsbag1
(g2
g3
NtRp686
(dp687
g50
Nsg46
VCROP SCI
p688
sg48
V28
p689
sg79
(lp690
(VWELLS
VR
tp691
asg58
I1988
sg44
V522
p692
sbag1
(g2
g3
NtRp693
(dp694
g50
Nsg46
VGENETICS
p695
sg48
V140
p696
sg79
(lp697
(VXIAO
VJ H
tp698
asg58
I1995
sg44
V745
p699
sbag1
(g2
g3
NtRp700
(dp701
g50
V10.1073/pnas.94.17.9226
p702
sg46
VP NATL ACAD SCI USA
p703
sg48
V94
p704
sg79
(lp705
(VYU
VS B
tp706
asg58
I1997
sg44
V9226
p707
sbag1
(g2
g3
NtRp708
(dp709
g50
V10.1046/j.1439-0523.1999.118002139.x
p710
sg46
VPLANT BREEDING
p711
sg48
V118
p712
sg79
(lp713
(VZHAO
VM F
tp714
asg58
I1999
sg44
VLANT
p715
sbasb.