ccopy_reg
_reconstructor
p1
(ctethne.classes.paper
Paper
p2
c__builtin__
object
p3
NtRp4
(dp5
S'publisherCity'
p6
VROCKVILLE
p7
sS'WC'
p8
VPlant Sciences
p9
sS'pageEnd'
p10
I1057
sS'publisherAddress'
p11
V15501 MONONA DRIVE, ROCKVILLE, MD 20855 USA
p12
sS'documentType'
p13
VCorrection
p14
sS'subject'
p15
VPlant Sciences
p16
sS'isoSource'
p17
VPlant Physiol.
p18
sS'timesCited'
p19
(lp20
I0
aVZ9 0
p21
asS'PT'
p22
VJ
sS'title'
p23
VLinking Development And Determinancy With Organic Acid Efflux From Proteoid Roots Of White Lupin Grown With Low Phosphorus And Ambient Or Elevated Atmospheric Co2 Concentration (Vol 120, Pg 705, 1999)
p24
sS'ISSN'
p25
(lp26
V0032-0889
p27
aVJ9 PLANT PHYSIOL
p28
asS'authors_full'
p29
(lp30
(VWATT
VM
tp31
a(VEVANS
VJR
tp32
asS'PG'
p33
I1
sS'PD'
p34
VNOV
p35
sS'pageStart'
p36
I1057
sS'issue'
p37
I3
sS'RI'
p38
VWatt, Michelle/F-8941-2010
p39
sS'journal'
p40
VPLANT PHYSIOLOGY
p41
sS'volume'
p42
V121
p43
sS'GA'
p44
V256UX
p45
sS'date'
p46
I1999
sS'ER'
p47
V
sS'publisher'
p48
VAMER SOC PLANT PHYSIOLOGISTS
p49
sS'language'
p50
VEnglish
p51
sS'wosid'
p52
VWOS:000083745800042
p53
sS'citationCount'
p54
I1
sS'authors_init'
p55
(lp56
(VWATT
VM
tp57
a(VEVANS
VJ R
tp58
asS'citedReferences'
p59
(lp60
g1
(g2
g3
NtRp61
(dp62
S'doi'
p63
V10.1104/pp.120.3.705
p64
sg40
VPLANT PHYSIOL
p65
sg42
V120
p66
sg55
(lp67
(VWATT
VM
tp68
asg46
I1999
sg36
VLANT
p69
sbasb.