ccopy_reg
_reconstructor
p1
(ctethne.classes.paper
Paper
p2
c__builtin__
object
p3
NtRp4
(dp5
S'publisherCity'
p6
VROCKVILLE
p7
sS'reprintAddress'
p8
VTzfira, T (reprint author), SUNY Stony Brook, Dept Biochem & Cell Biol, Stony Brook, NY 11794 USA.
p9
sS'WC'
p10
VPlant Sciences
p11
sS'GA'
p12
V744QX
p13
sS'abstract'
p14
VAgrobacterium tumefaciens-mediated genetic transformation involves transfer of a single-stranded T-DNA molecule (T strand) into the host cell, followed by its integration into the plant genome. The molecular mechanism of T-DNA integration, the culmination point of the entire transformation process, remains largely obscure. Here, we studied the roles of doublestranded breaks (DSBs) and double-stranded T-DNA intermediates in the integration process. We produced transgenic tobacco (Nicotiana tabacum) plants carrying an I-SceI endonuclease recognition site that, upon cleavage with I-SceI, generates DSB. Then, we retransformed these plants with two A. tumefaciens strains: one that allows transient expression of I-SceI to induce DSB and the other that carries a T-DNA with the I-SceI site and an integration selection marker. Integration of this latter T-DNA as full-length and I-SceI-digested molecules into the DSB site was analyzed in the resulting plants. Of 620 transgenic plants, 16 plants integrated T-DNA into DSB at their I-SceI sites; because DSB induces DNA repair, these results suggest that the invading T-DNA molecules target to the DNA repair sites for integration. Furthermore, of these 16 plants, seven plants incorporated T-DNA digested with I-SceI, which cleaves only double-stranded DNA. Thus, T-strand molecules can be converted into double-stranded intermediates before their integration into the DSB sites within the host cell genome.
p15
sS'pageEnd'
p16
I1023
sS'publisherAddress'
p17
V15501 MONONA DRIVE, ROCKVILLE, MD 20855 USA
p18
sS'documentType'
p19
VArticle
p20
sS'subject'
p21
VPlant Sciences
p22
sS'isoSource'
p23
VPlant Physiol.
p24
sS'timesCited'
p25
(lp26
I51
aVZ9 62
p27
asS'PT'
p28
VJ
sS'title'
p29
VSite-Specific Integration Of Agrobacterium Tumefaciens T-Dna Via Double-Stranded Intermediates
p30
sS'ISSN'
p31
(lp32
V0032-0889
p33
aVJ9 PLANT PHYSIOL
p34
asS'authors_full'
p35
(lp36
(VTZFIRA
VT
tp37
a(VFRANKMAN
VLR
tp38
a(VVAIDYA
VM
tp39
a(VCITOVSKY
VV
tp40
asS'PG'
p41
I13
sS'PD'
p42
VNOV
p43
sS'pageStart'
p44
I1011
sS'issue'
p45
I3
sS'journal'
p46
VPLANT PHYSIOLOGY
p47
sS'volume'
p48
V133
p49
sS'doi'
p50
V10.1104/pp.103.032128
p51
sS'authorAddress'
p52
(lp53
VSUNY Stony Brook, Dept Biochem & Cell Biol, Stony Brook, NY 11794 USA.
p54
aVWesthampton Beach High Sch, Westhampton Beach, NY 11978 USA.
p55
asS'date'
p56
I2003
sS'ER'
p57
V
sS'publisher'
p58
VAMER SOC PLANT BIOLOGISTS
p59
sS'authorKeywords'
p60
(lp61
VPLANT-CELLS
p62
aVVIRD2 PROTEIN
p63
aVILLEGITIMATE RECOMBINATION
p64
aVBINDING-PROTEIN
p65
aVNUCLEAR-LOCALIZATION
p66
aVTRANSFERRED DNA
p67
aVVIRE2 PROTEINS
p68
aVIN-VITRO
p69
aVTOBACCO CHROMOSOME
p70
aVNICOTIANA-TABACUM
p71
asS'language'
p72
VEnglish
p73
sS'wosid'
p74
VWOS:000186644600008
p75
sS'citationCount'
p76
I87
sS'authors_init'
p77
(lp78
(VTZFIRA
VT
tp79
a(VFRANKMAN
VL R
tp80
a(VVAIDYA
VM
tp81
a(VCITOVSKY
VV
tp82
asS'citedReferences'
p83
(lp84
g1
(g2
g3
NtRp85
(dp86
g50
V10.1126/science.1086391
p87
sg46
VSCIENCE
p88
sg48
V301
p89
sg77
(lp90
(VALONSO
VJ M
tp91
asg56
I2003
sg44
V653
p92
sbag1
(g2
g3
NtRp93
(dp94
g50
V10.1073/pnas.1733208100
p95
sg46
VP NATL ACAD SCI USA
p96
sg48
V100
p97
sg77
(lp98
(VBAKO
VL
tp99
asg56
I2003
sg44
V10108
p100
sbag1
(g2
g3
NtRp101
(dp102
g50
V10.1073/pnas.88.6.2312
p103
sg46
VP NATL ACAD SCI USA
p104
sg48
V88
p105
sg77
(lp106
(VBOLSHOY
VA
tp107
asg56
I1991
sg44
V2312
p108
sbag1
(g2
g3
NtRp109
(dp110
g50
V10.1073/pnas.83.11.3746
p111
sg46
VP NATL ACAD SCI USA
p112
sg48
V83
p113
sg77
(lp114
(VBRESLAUER
VK J
tp115
asg56
I1986
sg44
V3746
p116
sbag1
(g2
g3
NtRp117
(dp118
g50
V10.1093/embo-reports/kvf237
p119
sg46
VEMBO REP
p120
sg48
V3
sg77
(lp121
(VBRUNAUD
VV
tp122
asg56
I2002
sg44
V1152
p123
sbag1
(g2
g3
NtRp124
(dp125
g50
V10.1073/pnas.93.26.15272
p126
sg46
VP NATL ACAD SCI USA
p127
sg48
V93
p128
sg77
(lp129
(VBUNDOCK
VP
tp130
asg56
I1996
sg44
V15272
p131
sbag1
(g2
g3
NtRp132
(dp133
g50
V10.1016/S0966-842X(00)01792-3
p134
sg46
VTRENDS MICROBIOL
p135
sg48
V8
sg77
(lp136
(VCHRISTIE
VP J
tp137
asg56
I2000
sg44
V354
p138
sbag1
(g2
g3
NtRp139
(dp140
g50
Nsg46
VJ BACTERIOL
p141
sg48
V170
p142
sg77
(lp143
(VCHRISTIE
VP J
tp144
asg56
I1988
sg44
V2659
p145
sbag1
(g2
g3
NtRp146
(dp147
g50
Nsg46
VJ BACTERIOL
p148
sg48
V179
p149
sg77
(lp150
(VCHRISTIE
VP J
tp151
asg56
I1997
sg44
V3085
p152
sbag1
(g2
g3
NtRp153
(dp154
g50
V10.1073/pnas.91.8.3210
p155
sg46
VP NATL ACAD SCI USA
p156
sg48
V91
p157
sg77
(lp158
(VCITOVSKY
VV
tp159
asg56
I1994
sg44
V3210
p160
sbag1
(g2
g3
NtRp161
(dp162
g50
V10.1126/science.240.4851.501
p163
sg46
VSCIENCE
p164
sg48
V240
p165
sg77
(lp166
(VCITOVSKY
VV
tp167
asg56
I1988
sg44
V501
p168
sbag1
(g2
g3
NtRp169
(dp170
g50
V10.1006/jmbi.1997.1230
p171
sg46
VJ MOL BIOL
p172
sg48
V271
p173
sg77
(lp174
(VCITOVSKY
VV
tp175
asg56
I1997
sg44
V718
p176
sbag1
(g2
g3
NtRp177
(dp178
g50
V10.1126/science.1615325
p179
sg46
VSCIENCE
p180
sg48
V256
p181
sg77
(lp182
(VCITOVSKY
VV
tp183
asg56
I1992
sg44
V1802
p184
sbag1
(g2
g3
NtRp185
(dp186
g50
V10.1073/pnas.86.4.1193
p187
sg46
VP NATL ACAD SCI USA
p188
sg48
V86
p189
sg77
(lp190
(VCITOVSKY
VV
tp191
asg56
I1989
sg44
V1193
p192
sbag1
(g2
g3
NtRp193
(dp194
g50
V10.1073/pnas.85.9.2909
p195
sg46
VP NATL ACAD SCI USA
p196
sg48
V85
p197
sg77
(lp198
(VDAS
VA
tp199
asg56
I1988
sg44
V2909
p200
sbag1
(g2
g3
NtRp201
(dp202
g50
Nsg46
VSubcell Biochem
p203
sg48
V29
p204
sg77
(lp205
(VDAS
VA
tp206
asg56
I1998
sg44
V343
p207
sbag1
(g2
g3
NtRp208
(dp209
g50
Nsg46
VTHEOR APPL GENET
p210
sg48
V82
p211
sg77
(lp212
(VDEBLOCK
VM
tp213
asg56
I1991
sg44
V257
p214
sbag1
(g2
g3
NtRp215
(dp216
g50
V10.1046/j.1365-313X.1999.00602.x
p217
sg46
VPLANT J
p218
sg48
V20
p219
sg77
(lp220
(VDE
VBUCK S
tp221
asg56
I1999
sg44
VLANT
p222
sbag1
(g2
g3
NtRp223
(dp224
g50
V10.1046/j.1365-313X.1997.11010015.x
p225
sg46
VPLANT J
p226
sg48
V11
p227
sg77
(lp228
(VDENEVE
VM
tp229
asg56
I1997
sg44
VLANT
p230
sbag1
(g2
g3
NtRp231
(dp232
g50
V10.1111/j.1365-2958.1993.tb01637.x
p233
sg46
VMOL MICROBIOL
p234
sg48
V8
sg77
(lp235
(VFILICHKIN
VS A
tp236
asg56
I1993
sg44
V915
p237
sbag1
(g2
g3
NtRp238
(dp239
g50
V10.1046/j.1365-313X.2003.01738.x
p240
sg46
VPLANT J
p241
sg48
V34
p242
sg77
(lp243
(VFRIESNER
VJ
tp244
asg56
I2003
sg44
VLANT
p245
sbag1
(g2
g3
NtRp246
(dp247
g50
Nsg46
VPLANT PHYSIOL BIOCH
p248
sg48
V32
p249
sg77
(lp250
(VGAUDIN
VV
tp251
asg56
I1994
sg44
VLANT
p252
sbag1
(g2
g3
NtRp253
(dp254
g50
V10.1016/S0958-1669(98)80120-1
p255
sg46
VCURR OPIN BIOTECH
p256
sg48
V9
sg77
(lp257
(VGELVIN
VS B
tp258
asg56
I1998
sg44
V227
p259
sbag1
(g2
g3
NtRp260
(dp261
g50
V10.1128/MMBR.67.1.16-37.2003
p262
sg46
VMICROBIOL MOL BIOL R
p263
sg48
V67
p264
sg77
(lp265
(VGELVIN
VS B
tp266
asg56
I2003
sg44
V16
p267
sbag1
(g2
g3
NtRp268
(dp269
g50
V10.1146/annurev.arplant.51.1.223
p270
sg46
VANNU REV PLANT PHYS
p271
sg48
V51
p272
sg77
(lp273
(VGELVIN
VS B
tp274
asg56
I2000
sg44
V223
p275
sbag1
(g2
g3
NtRp276
(dp277
g50
Nsg46
VJ BACTERIOL
p278
sg48
V180
p279
sg77
(lp280
(VGELVIN
VS B
tp281
asg56
I1998
sg44
V4300
p282
sbag1
(g2
g3
NtRp283
(dp284
g50
V10.1101/gad.5.2.287
p285
sg46
VGENE DEV
p286
sg48
V5
sg77
(lp287
(VGHEYSEN
VG
tp288
asg56
I1991
sg44
V287
p289
sbag1
(g2
g3
NtRp290
(dp291
g50
V10.1073/pnas.84.17.6169
p292
sg46
VP NATL ACAD SCI USA
p293
sg48
V84
p294
sg77
(lp295
(VGHEYSEN
VG
tp296
asg56
I1987
sg44
V6169
p297
sbag1
(g2
g3
NtRp298
(dp299
g50
V10.1073/pnas.84.24.9006
p300
sg46
VP NATL ACAD SCI USA
p301
sg48
V84
p302
sg77
(lp303
(VGIETL
VC
tp304
asg56
I1987
sg44
V9006
p305
sbag1
(g2
g3
NtRp306
(dp307
g50
Nsg46
VSCIENCE
p308
sg48
V227
p309
sg77
(lp310
(VHORSCH
VR B
tp311
asg56
I1985
sg44
V1229
p312
sbag1
(g2
g3
NtRp313
(dp314
g50
V10.1073/pnas.86.11.4017
p315
sg46
VP NATL ACAD SCI USA
p316
sg48
V86
p317
sg77
(lp318
(VHOWARD
VE A
tp319
asg56
I1989
sg44
V4017
p320
sbag1
(g2
g3
NtRp321
(dp322
g50
Nsg46
VUCLA SYM BI
p323
sg48
V129
p324
sg77
(lp325
(VHOWARD
VE
tp326
asg56
I1990
sg44
V1
sbag1
(g2
g3
NtRp327
(dp328
g50
V10.1016/0092-8674(92)90210-4
p329
sg46
VCELL
p330
sg48
V68
p331
sg77
(lp332
(VHOWARD
VE A
tp333
asg56
I1992
sg44
V109
p334
sbag1
(g2
g3
NtRp335
(dp336
g50
V10.1007/BF00015655
p337
sg46
VPLANT MOL BIOL
p338
sg48
V14
p339
sg77
(lp340
(VJANSSEN
VB J
tp341
asg56
I1990
sg44
VLANT
p342
sbag1
(g2
g3
NtRp343
(dp344
g50
V10.1016/0168-9525(96)10019-6
p345
sg46
VTRENDS GENET
p346
sg48
V12
p347
sg77
(lp348
(VJASIN
VM
tp349
asg56
I1996
sg44
V224
p350
sbag1
(g2
g3
NtRp351
(dp352
g50
V10.1073/pnas.91.2.694
p353
sg46
VP NATL ACAD SCI USA
p354
sg48
V91
p355
sg77
(lp356
(VJASPER
VF
tp357
asg56
I1994
sg44
V694
p358
sbag1
(g2
g3
NtRp359
(dp360
g50
Nsg46
VEMBO J
p361
sg48
V6
sg77
(lp362
(VJEFFERSON
VR A
tp363
asg56
I1987
sg44
V3901
p364
sbag1
(g2
g3
NtRp365
(dp366
g50
V10.1007/BF02667740
p367
sg46
VPLANT MOL BIOL REP
p368
sg48
V5
sg77
(lp369
(VJEFFERSON
VR
tp370
asg56
I1987
sg44
VLANT
p371
sbag1
(g2
g3
NtRp372
(dp373
g50
Nsg46
VMOL BIOL PLANT TUMOR
p374
sg48
Nsg77
(lp375
(VKAHL
VG
tp376
asg56
I1982
sg44
V211
p377
sbag1
(g2
g3
NtRp378
(dp379
g50
V10.1007/BF00020504
p380
sg46
VPLANT MOL BIOL
p381
sg48
V12
p382
sg77
(lp383
(VKOHLER
VF
tp384
asg56
I1989
sg44
VLANT
p385
sbag1
(g2
g3
NtRp386
(dp387
g50
V10.1046/j.1365-313x.1998.00330.x
p388
sg46
VPLANT J
p389
sg48
V16
p390
sg77
(lp391
(VKRIZKOVA
VL
tp392
asg56
I1998
sg44
VLANT
p393
sbag1
(g2
g3
NtRp394
(dp395
g50
V10.1046/j.1365-313X.2002.01368.x
p396
sg46
VPLANT J
p397
sg48
V31
p398
sg77
(lp399
(VKUMAR
VS
tp400
asg56
I2002
sg44
VLANT
p401
sbag1
(g2
g3
NtRp402
(dp403
g50
V10.1007/s004250100535
p404
sg46
VPLANTA
p405
sg48
V213
p406
sg77
(lp407
(VKUMAR
VS
tp408
asg56
I2001
sg44
VLANTA
p409
sbag1
(g2
g3
NtRp410
(dp411
g50
V10.1053/srao.2001.26912
p412
sg46
VSEMIN RADIAT ONCOL
p413
sg48
V11
p414
sg77
(lp415
(VLESKOV
VK S
tp416
asg56
I2001
sg44
V352
p417
sbag1
(g2
g3
NtRp418
(dp419
g50
Nsg46
VMOL GEN GENET
p420
sg48
V224
p421
sg77
(lp422
(VMATSUMOTO
VS
tp423
asg56
I1990
sg44
V309
p424
sbag1
(g2
g3
NtRp425
(dp426
g50
Nsg46
VEMBO J
p427
sg48
V10
p428
sg77
(lp429
(VMAYERHOFER
VR
tp430
asg56
I1991
sg44
V697
p431
sbag1
(g2
g3
NtRp432
(dp433
g50
V10.1023/A:1008909203852
p434
sg46
VTRANSGENIC RES
p435
sg48
V10
p436
sg77
(lp437
(VMCCORMAC
VA C
tp438
asg56
I2001
sg44
V143
p439
sbag1
(g2
g3
NtRp440
(dp441
g50
V10.1093/nar/18.6.1407
p442
sg46
VNUCLEIC ACIDS RES
p443
sg48
V18
p444
sg77
(lp445
(VMONTEILHET
VC
tp446
asg56
I1990
sg44
V1407
p447
sbag1
(g2
g3
NtRp448
(dp449
g50
V10.1006/jmbi.1999.2957
p450
sg46
VJ MOL BIOL
p451
sg48
V291
p452
sg77
(lp453
(VMULLER
VA E
tp454
asg56
I1999
sg44
V29
p455
sbag1
(g2
g3
NtRp456
(dp457
g50
V10.1111/j.1399-3054.1962.tb08052.x
p458
sg46
VPHYSIOL PLANTARUM
p459
sg48
V15
p460
sg77
(lp461
(VMURASHIGE
VT
tp462
asg56
I1962
sg44
VHYSIOL
p463
sbag1
(g2
g3
NtRp464
(dp465
g50
Nsg46
VPLANT CELL
p466
sg48
V8
sg77
(lp467
(VNARASIMHULU
VS B
tp468
asg56
I1996
sg44
VLANT
p469
sbag1
(g2
g3
NtRp470
(dp471
g50
V10.1073/pnas.90.24.11538
p472
sg46
VP NATL ACAD SCI USA
p473
sg48
V90
p474
sg77
(lp475
(VPANSEGRAU
VW
tp476
asg56
I1993
sg44
V11538
p477
sbag1
(g2
g3
NtRp478
(dp479
g50
V10.1093/emboj/17.1.325
p480
sg46
VEMBO J
p481
sg48
V17
p482
sg77
(lp483
(VPIPIRAS
VE
tp484
asg56
I1998
sg44
V325
p485
sbag1
(g2
g3
NtRp486
(dp487
g50
Nsg46
VGENETIC ENG CROP PLA
p488
sg48
Nsg77
(lp489
(VPOTRYKUS
VI
tp490
asg56
I1998
sg44
Nsbag1
(g2
g3
NtRp491
(dp492
g50
Nsg46
VPLANT J
p493
sg48
V13
p494
sg77
(lp495
(VPUCHTA
VH
tp496
asg56
I1998
sg44
VLANT
p497
sbag1
(g2
g3
NtRp498
(dp499
g50
V10.1007/BF00276932
p500
sg46
VMOL GEN GENET
p501
sg48
V239
p502
sg77
(lp503
(VROSSI
VL
tp504
asg56
I1993
sg44
V345
p505
sbag1
(g2
g3
NtRp506
(dp507
g50
V10.1093/emboj/17.20.6086
p508
sg46
VEMBO J
p509
sg48
V17
p510
sg77
(lp511
(VSALOMON
VS
tp512
asg56
I1998
sg44
V6086
p513
sbag1
(g2
g3
NtRp514
(dp515
g50
V10.1094/MPMI.2002.15.9.866
p516
sg46
VMOL PLANT MICROBE IN
p517
sg48
V15
p518
sg77
(lp519
(VSAVKA
VM A
tp520
asg56
I2002
sg44
V866
p521
sbag1
(g2
g3
NtRp522
(dp523
g50
Nsg46
VJ BIOL CHEM
p524
sg48
V270
p525
sg77
(lp526
(VSCHEIFFELE
VP
tp527
asg56
I1995
sg44
V1269
p528
sbag1
(g2
g3
NtRp529
(dp530
g50
Nsg46
VJ BACTERIOL
p531
sg48
V171
p532
sg77
(lp533
(VSEN
VP
tp534
asg56
I1989
sg44
V2573
p535
sbag1
(g2
g3
NtRp536
(dp537
g50
Nsg46
VPLANT CELL
p538
sg48
V8
sg77
(lp539
(VSHENG
VJ S
tp540
asg56
I1996
sg44
VLANT
p541
sbag1
(g2
g3
NtRp542
(dp543
g50
V10.1038/340190a0
p544
sg46
VNATURE
p545
sg48
V340
p546
sg77
(lp547
(VSTACHEL
VS E
tp548
asg56
I1989
sg44
V190
p549
sbag1
(g2
g3
NtRp550
(dp551
g50
Nsg46
VPLANT J
p552
sg48
V3
sg77
(lp553
(VSTOUGAARD
VJ
tp554
asg56
I1993
sg44
VLANT
p555
sbag1
(g2
g3
NtRp556
(dp557
g50
V10.1046/j.1365-313X.1997.11030353.x
p558
sg46
VPLANT J
p559
sg48
V11
p560
sg77
(lp561
(VTAKANO
VM
tp562
asg56
I1997
sg44
VLANT
p563
sbag1
(g2
g3
NtRp564
(dp565
g50
V10.1016/1360-1385(96)10020-0
p566
sg46
VTRENDS PLANT SCI
p567
sg48
V1
sg77
(lp568
(VTINLAND
VB
tp569
asg56
I1996
sg44
V178
p570
sbag1
(g2
g3
NtRp571
(dp572
g50
Nsg46
VGenet Eng 
p573
sg48
V17
p574
sg77
(lp575
(VTINLAND
VB
tp576
asg56
I1995
sg44
V209
p577
sbag1
(g2
g3
NtRp578
(dp579
g50
Nsg46
VEMBO J
p580
sg48
V14
p581
sg77
(lp582
(VTINLAND
VB
tp583
asg56
I1995
sg44
V3585
p584
sbag1
(g2
g3
NtRp585
(dp586
g50
V10.1073/pnas.91.17.8000
p587
sg46
VP NATL ACAD SCI USA
p588
sg48
V91
p589
sg77
(lp590
(VTINLAND
VB
tp591
asg56
I1994
sg44
V8000
p592
sbag1
(g2
g3
NtRp593
(dp594
g50
V10.1016/S0962-8924(01)02229-2
p595
sg46
VTRENDS CELL BIOL
p596
sg48
V12
p597
sg77
(lp598
(VTZFIRA
VT
tp599
asg56
I2002
sg44
V121
p600
sbag1
(g2
g3
NtRp601
(dp602
g50
V10.1046/j.1364-3703.2000.00026.x
p603
sg46
VMOL PLANT PATHOL
p604
sg48
V1
sg77
(lp605
(VTZFIRA
VT
tp606
asg56
I2000
sg44
V201
p607
sbag1
(g2
g3
NtRp608
(dp609
g50
V10.1093/emboj/20.13.3596
p610
sg46
VEMBO J
p611
sg48
V20
p612
sg77
(lp613
(VTZFIRA
VT
tp614
asg56
I2001
sg44
V3596
p615
sbag1
(g2
g3
NtRp616
(dp617
g50
V10.1023/A:1007484917759
p618
sg46
VPLANT MOL BIOL REP
p619
sg48
V15
p620
sg77
(lp621
(VTZFIRA
VT
tp622
asg56
I1997
sg44
VLANT
p623
sbag1
(g2
g3
NtRp624
(dp625
g50
V10.1146/annurev.micro.54.1.187
p626
sg46
VANNU REV MICROBIOL
p627
sg48
V54
p628
sg77
(lp629
(VTZFIRA
VT
tp630
asg56
I2000
sg44
V187
p631
sbag1
(g2
g3
NtRp632
(dp633
g50
V10.1093/emboj/20.22.6550
p634
sg46
VEMBO J
p635
sg48
V20
p636
sg77
(lp637
(VVAN
VATTIKUM H
tp638
asg56
I2001
sg44
V6550
p639
sbag1
(g2
g3
NtRp640
(dp641
g50
V10.1093/nar/gkg458
p642
sg46
VNUCLEIC ACIDS RES
p643
sg48
V31
p644
sg77
(lp645
(VVAN
VATTIKUM H
tp646
asg56
I2003
sg44
V4247
p647
sbag1
(g2
g3
NtRp648
(dp649
g50
Nsg46
VPLANT CELL
p650
sg48
V3
sg77
(lp651
(VVANDERKROL
VA R
tp652
asg56
I1991
sg44
VLANT
p653
sbag1
(g2
g3
NtRp654
(dp655
g50
V10.1126/science.290.5493.979
p656
sg46
VSCIENCE
p657
sg48
V290
p658
sg77
(lp659
(VVERGUNST
VA C
tp660
asg56
I2000
sg44
V979
p661
sbag1
(g2
g3
NtRp662
(dp663
g50
V10.1126/science.235.4788.587
p664
sg46
VSCIENCE
p665
sg48
V235
p666
sg77
(lp667
(VWANG
VK
tp668
asg56
I1987
sg44
V587
p669
sbag1
(g2
g3
NtRp670
(dp671
g50
Nsg46
VSCIENCE
p672
sg48
V242
p673
sg77
(lp674
(VWARD
VE R
tp675
asg56
I1988
sg44
V927
p676
sbag1
(g2
g3
NtRp677
(dp678
g50
V10.1016/0923-2508(94)90095-7
p679
sg46
VRES MICROBIOL
p680
sg48
V145
p681
sg77
(lp682
(VWINANS
VS C
tp683
asg56
I1994
sg44
V461
p684
sbag1
(g2
g3
NtRp685
(dp686
g50
Nsg46
VJ BACTERIOL
p687
sg48
V170
p688
sg77
(lp689
(VYOUNG
VC
tp690
asg56
I1988
sg44
V3367
p691
sbag1
(g2
g3
NtRp692
(dp693
g50
V10.1073/pnas.91.8.2994
p694
sg46
VP NATL ACAD SCI USA
p695
sg48
V91
p696
sg77
(lp697
(VYUSIBOV
VV M
tp698
asg56
I1994
sg44
V2994
p699
sbag1
(g2
g3
NtRp700
(dp701
g50
Nsg46
VJournal of Molecular and Applied Genetics
p702
sg48
V1
sg77
(lp703
(VZAMBRYSKI
VP
tp704
asg56
I1982
sg44
V361
p705
sbag1
(g2
g3
NtRp706
(dp707
g50
V10.1128/MCB.20.17.6317-6322.2000
p708
sg46
VMOL CELL BIOL
p709
sg48
V20
p710
sg77
(lp711
(VZIEMIENOWICZ
VA
tp712
asg56
I2000
sg44
V6317
p713
sbag1
(g2
g3
NtRp714
(dp715
g50
V10.1105/tpc.13.2.369
p716
sg46
VPLANT CELL
p717
sg48
V13
p718
sg77
(lp719
(VZIEMIENOWICZ
VA
tp720
asg56
I2001
sg44
VLANT
p721
sbag1
(g2
g3
NtRp722
(dp723
g50
V10.1080/713608150
p724
sg46
VCRIT REV PLANT SCI
p725
sg48
V16
p726
sg77
(lp727
(VZUPAN
VJ
tp728
asg56
I1997
sg44
V279
p729
sbag1
(g2
g3
NtRp730
(dp731
g50
V10.1046/j.1365-313x.2000.00808.x
p732
sg46
VPLANT J
p733
sg48
V23
p734
sg77
(lp735
(VZUPAN
VJ
tp736
asg56
I2000
sg44
VLANT
p737
sbasb.