ccopy_reg
_reconstructor
p1
(ctethne.classes.paper
Paper
p2
c__builtin__
object
p3
NtRp4
(dp5
S'publisherCity'
p6
VROCKVILLE
p7
sS'reprintAddress'
p8
VBednarek, SY (reprint author), Univ Wisconsin, Dept Biochem, 433 Babcock Dr, Madison, WI 53706 USA.
p9
sS'WC'
p10
VPlant Sciences
p11
sS'GA'
p12
V432LD
p13
sS'abstract'
p14
VDynamin and dynamin-like proteins are GTP-binding proteins involved in vesicle trafficking. In soybean, a 68-kD dynamin-like protein called phragmoplastin has been shown to be associated with the cell plate in dividing cells (Cu and Verma, 1996). Five ADL1 genes encoding dynamin-like proteins related to phragmoplastin have been identified in the completed Arabidopsis genome. Here we report that ADL1Ap is associated with punctate subcellular structures and with the cell plate in dividing cells. To assess the function of ADL1Ap we utilized a reverse genetic approach to isolate three separate Arabidoysis mutant lines containing T-DNA insertions in ADL1A. Homozygous adl1A seeds were shriveled and mutant seedlings arrested soon after germination, producing only two leaf primordia and severely stunted roots. Immunoblotting revealed that ADL1Ap expression was not detectable in the mutants. Despite the loss of ADL1Ap, the mutants did not display any defects in cytokinesis, and growth of the mutant seedlings could be rescued in tissue culture by the addition of sucrose. Although these sucrose-rescued plants displayed normal vegetative growth and flowered, they set very few seeds. Thus, ADL1Ap is critical for several stages of plant development, including embryogenesis, seedling development, and reproduction. We discuss the putative role of ADL1Ap in vesicular trafficking, cytokinesis, and other aspects of plant growth.
p15
sS'pageEnd'
p16
I68
sS'publisherAddress'
p17
V15501 MONONA DRIVE, ROCKVILLE, MD 20855 USA
p18
sS'documentType'
p19
VArticle
p20
sS'subject'
p21
VPlant Sciences
p22
sS'isoSource'
p23
VPlant Physiol.
p24
sS'timesCited'
p25
(lp26
I58
aVZ9 65
p27
asS'PT'
p28
VJ
sS'title'
p29
VThe Arabidopsis Cell Plate-Associated Dynamin-Like Protein, Adl1Ap, Is Required For Multiple Stages Of Plant Growth And Development
p30
sS'ISSN'
p31
(lp32
V0032-0889
p33
aVJ9 PLANT PHYSIOL
p34
asS'authors_full'
p35
(lp36
(VKANG
VBH
tp37
a(VBUSSE
VJS
tp38
a(VDICKEY
VC
tp39
a(VRANCOUR
VDM
tp40
a(VBEDNAREK
VSY
tp41
asS'PG'
p42
I22
sS'PD'
p43
VMAY
p44
sS'pageStart'
p45
I47
sS'issue'
p46
I1
sS'RI'
p47
VKang, Byung-Ho/F-5262-2013
p48
sS'journal'
p49
VPLANT PHYSIOLOGY
p50
sS'volume'
p51
V126
p52
sS'doi'
p53
V10.1104/pp.126.1.47
p54
sS'authorAddress'
p55
VUniv Wisconsin, Dept Biochem, Madison, WI 53706 USA.
p56
sS'date'
p57
I2001
sS'ER'
p58
V
sS'publisher'
p59
VAMER SOC PLANT PHYSIOLOGISTS
p60
sS'authorKeywords'
p61
(lp62
VGTP-BINDING-PROTEIN
p63
aVREGULATORY DNA ELEMENTS
p64
aVPLASMA-MEMBRANE
p65
aVSACCHAROMYCES-CEREVISIAE
p66
aVSECRETORY PATHWAYS
p67
aVTRANSPORT VESICLES
p68
aVGENE-EXPRESSION
p69
aVT-DNA
p70
aVTHALIANA
p71
aVCYTOKINESIS
p72
asS'language'
p73
VEnglish
p74
sS'wosid'
p75
VWOS:000168692300013
p76
sS'citationCount'
p77
I78
sS'authors_init'
p78
(lp79
(VKANG
VB H
tp80
a(VBUSSE
VJ S
tp81
a(VDICKEY
VC
tp82
a(VRANCOUR
VD M
tp83
a(VBEDNAREK
VS Y
tp84
asS'citedReferences'
p85
(lp86
g1
(g2
g3
NtRp87
(dp88
g53
V10.1007/PL00008594
p89
sg49
VMOL GEN GENET
p90
sg51
V253
p91
sg78
(lp92
(VASSAAD
VF F
tp93
asg57
I1996
sg45
V267
p94
sbag1
(g2
g3
NtRp95
(dp96
g53
Nsg49
VPLANT PHYSIOL BIOCH
p97
sg51
V30
p98
sg78
(lp99
(VAXELOS
VM
tp100
asg57
I1992
sg45
VLANT
p101
sbag1
(g2
g3
NtRp102
(dp103
g53
V10.1104/pp.114.1.315
p104
sg49
VPLANT PHYSIOL
p105
sg51
V114
p106
sg78
(lp107
(VBARPELED
VM
tp108
asg57
I1997
sg45
VLANT
p109
sbag1
(g2
g3
NtRp110
(dp111
g53
Nsg49
VPLANT J
p112
sg51
V2
sg78
(lp113
(VBAUMLEIN
VH
tp114
asg57
I1992
sg45
VLANT
p115
sbag1
(g2
g3
NtRp116
(dp117
g53
Nsg49
VPLANT CELL
p118
sg51
V2
sg78
(lp119
(VBEDNAREK
VS Y
tp120
asg57
I1990
sg45
VLANT
p121
sbag1
(g2
g3
NtRp122
(dp123
g53
Nsg49
VNAT CELL BIOL
p124
sg51
V1
sg78
(lp125
(VBLEAZARD
VW
tp126
asg57
I1999
sg45
V298
p127
sbag1
(g2
g3
NtRp128
(dp129
g53
V10.1046/j.1365-313X.1998.00208.x
p130
sg49
VPLANT J
p131
sg51
V15
p132
sg78
(lp133
(VBOEVINK
VP
tp134
asg57
I1998
sg45
VLANT
p135
sbag1
(g2
g3
NtRp136
(dp137
g53
V10.1086/314098
p138
sg49
VINT J PLANT SCI
p139
sg51
V160
p140
sg78
(lp141
(VBUSSE
VJ S
tp142
asg57
I1999
sg45
V1
sbag1
(g2
g3
NtRp143
(dp144
g53
Nsg49
VMOL BIOL CELL
p145
sg51
V9
sg78
(lp146
(VCAO
VH
tp147
asg57
I1998
sg45
V2595
p148
sbag1
(g2
g3
NtRp149
(dp150
g53
V10.1016/0959-440X(95)80041-7
p151
sg49
VCURR OPIN STRUC BIOL
p152
sg51
V5
sg78
(lp153
(VCHERNOMORDIK
VL V
tp154
asg57
I1995
sg45
V541
p155
sbag1
(g2
g3
NtRp156
(dp157
g53
V10.1046/j.1365-313x.1998.00343.x
p158
sg49
VPLANT J
p159
sg51
V16
p160
sg78
(lp161
(VCLOUGH
VS J
tp162
asg57
I1998
sg45
VLANT
p163
sbag1
(g2
g3
NtRp164
(dp165
g53
V10.1073/pnas.94.19.10209
p166
sg49
VP NATL ACAD SCI USA
p167
sg51
V94
p168
sg78
(lp169
(VCONWAY
VL J
tp170
asg57
I1997
sg45
V10209
p171
sbag1
(g2
g3
NtRp172
(dp173
g53
Nsg49
VPLANT CELL
p174
sg51
V7
sg78
(lp175
(VDEWITT
VN D
tp176
asg57
I1995
sg45
VLANT
p177
sbag1
(g2
g3
NtRp178
(dp179
g53
V10.1007/BF00032672
p180
sg49
VPLANT MOL BIOL
p181
sg51
V28
p182
sg78
(lp183
(VDOMBROWSKI
VJ E
tp184
asg57
I1995
sg45
VLANT
p185
sbag1
(g2
g3
NtRp186
(dp187
g53
Nsg49
VPLANT CELL
p188
sg51
V10
p189
sg78
(lp190
(VDREWS
VG N
tp191
asg57
I1998
sg45
VLANT
p192
sbag1
(g2
g3
NtRp193
(dp194
g53
V10.1007/BF00041385
p195
sg49
VPLANT MOL BIOL
p196
sg51
V32
p197
sg78
(lp198
(VELLERSTROM
VM
tp199
asg57
I1996
sg45
VLANT
p200
sbag1
(g2
g3
NtRp201
(dp202
g53
Nsg49
VPROTEIN SCI
p203
sg51
V8
sg78
(lp204
(VEMANUELSSON
VO
tp205
asg57
I1999
sg45
VROTEIN
p206
sbag1
(g2
g3
NtRp207
(dp208
g53
V10.1083/jcb.150.1.145
p209
sg49
VJ CELL BIOL
p210
sg51
V150
p211
sg78
(lp212
(VFISH
VK N
tp213
asg57
I2000
sg45
V145
p214
sbag1
(g2
g3
NtRp215
(dp216
g53
V10.1126/science.266.5185.605
p217
sg49
VSCIENCE
p218
sg51
V266
p219
sg78
(lp220
(VGOLDBERG
VR B
tp221
asg57
I1994
sg45
V605
p222
sbag1
(g2
g3
NtRp223
(dp224
g53
Nsg49
VV139
p225
sg51
V139
p226
sg78
(lp227
(VGOODBODY
VK C
tp228
asg57
I1994
sg45
V221
p229
sbag1
(g2
g3
NtRp230
(dp231
g53
V10.1083/jcb.128.6.1055
p232
sg49
VJ CELL BIOL
p233
sg51
V128
p234
sg78
(lp235
(VGOVINDAN
VB
tp236
asg57
I1995
sg45
V1055
p237
sbag1
(g2
g3
NtRp238
(dp239
g53
Nsg49
VEMBO J
p240
sg51
V15
p241
sg78
(lp242
(VGU
VX J
tp243
asg57
I1996
sg45
V695
p244
sbag1
(g2
g3
NtRp245
(dp246
g53
V10.1105/tpc.9.2.157
p247
sg49
VPLANT CELL
p248
sg51
V9
sg78
(lp249
(VGU
VX J
tp250
asg57
I1997
sg45
VLANT
p251
sbag1
(g2
g3
NtRp252
(dp253
g53
V10.1007/BF00014672
p254
sg49
VPLANT MOL BIOL
p255
sg51
V25
p256
sg78
(lp257
(VHAJDUKIEWICZ
VP
tp258
asg57
I1994
sg45
VLANT
p259
sbag1
(g2
g3
NtRp260
(dp261
g53
V10.1083/jcb.131.2.297
p262
sg49
VJ CELL BIOL
p263
sg51
V131
p264
sg78
(lp265
(VHARSAY
VE
tp266
asg57
I1995
sg45
V297
p267
sbag1
(g2
g3
NtRp268
(dp269
g53
V10.1007/BF00392124
p270
sg49
VPLANTA
p271
sg51
V169
p272
sg78
(lp273
(VHEATH
VJ D
tp274
asg57
I1986
sg45
VLANTA
p275
sbag1
(g2
g3
NtRp276
(dp277
g53
V10.1083/jcb.141.1.85
p278
sg49
VJ CELL BIOL
p279
sg51
V141
p280
sg78
(lp281
(VHENLEY
VJ R
tp282
asg57
I1998
sg45
V85
p283
sbag1
(g2
g3
NtRp284
(dp285
g53
V10.1016/S0092-8674(00)81060-0
p286
sg49
VCELL
p287
sg51
V84
p288
sg78
(lp289
(VSTAEHLIN
VL A
tp290
asg57
I1996
sg45
V821
p291
sbag1
(g2
g3
NtRp292
(dp293
g53
V10.1093/nar/27.1.297
p294
sg49
VNUCLEIC ACIDS RES
p295
sg51
V27
p296
sg78
(lp297
(VHIGO
VK
tp298
asg57
I1999
sg45
V297
p299
sbag1
(g2
g3
NtRp300
(dp301
g53
V10.1093/nar/26.1.358
p302
sg49
VNUCLEIC ACIDS RES
p303
sg51
V26
p304
sg78
(lp305
(VHIGO
VK
tp306
asg57
I1998
sg45
V358
p307
sbag1
(g2
g3
NtRp308
(dp309
g53
V10.1038/374190a0
p310
sg49
VNATURE
p311
sg51
V374
p312
sg78
(lp313
(VHINSHAW
VJ E
tp314
asg57
I1995
sg45
V190
p315
sbag1
(g2
g3
NtRp316
(dp317
g53
V10.1016/0092-8674(95)90078-0
p318
sg49
VCELL
p319
sg51
V81
p320
sg78
(lp321
(VIKONEN
VE
tp322
asg57
I1995
sg45
V571
p323
sbag1
(g2
g3
NtRp324
(dp325
g53
V10.1126/science.279.5350.573
p326
sg49
VSCIENCE
p327
sg51
V279
p328
sg78
(lp329
(VJONES
VS M
tp330
asg57
I1998
sg45
V573
p331
sbag1
(g2
g3
NtRp332
(dp333
g53
V10.1093/dnares/6.3.183
p334
sg49
VDNA Res
p335
sg51
V6
sg78
(lp336
(VKANEKO
VT
tp337
asg57
I1999
sg45
V183
p338
sbag1
(g2
g3
NtRp339
(dp340
g53
Nsg49
VPLANT MOL BIOL
p341
sg51
V38
p342
sg78
(lp343
(VKANG
VS G
tp344
asg57
I1998
sg45
VLANT
p345
sbag1
(g2
g3
NtRp346
(dp347
g53
V10.1105/tpc.11.12.2283
p348
sg49
VPLANT CELL
p349
sg51
V11
p350
sg78
(lp351
(VKRYSAN
VP J
tp352
asg57
I1999
sg45
VLANT
p353
sbag1
(g2
g3
NtRp354
(dp355
g53
V10.1073/pnas.93.15.8145
p356
sg49
VP NATL ACAD SCI USA
p357
sg51
V93
p358
sg78
(lp359
(VKRYSAN
VP J
tp360
asg57
I1996
sg45
V8145
p361
sbag1
(g2
g3
NtRp362
(dp363
g53
V10.1083/jcb.139.6.1485
p364
sg49
VJ CELL BIOL
p365
sg51
V139
p366
sg78
(lp367
(VLAUBER
VM H
tp368
asg57
I1997
sg45
V1485
p369
sbag1
(g2
g3
NtRp370
(dp371
g53
Nsg49
VJ BIOL CHEM
p372
sg51
V269
p373
sg78
(lp374
(VLIU
VJ P
tp375
asg57
I1994
sg45
V21043
p376
sbag1
(g2
g3
NtRp377
(dp378
g53
V10.1126/science.8052858
p379
sg49
VSCIENCE
p380
sg51
V265
p381
sg78
(lp382
(VLIU
VJ P
tp383
asg57
I1994
sg45
V970
p384
sbag1
(g2
g3
NtRp385
(dp386
g53
V10.1016/S0092-8674(00)80993-9
p387
sg49
VCELL
p388
sg51
V84
p389
sg78
(lp390
(VLUKOWITZ
VW
tp391
asg57
I1996
sg45
V61
p392
sbag1
(g2
g3
NtRp393
(dp394
g53
Nsg49
VCAN J BOT
p395
sg51
V69
p396
sg78
(lp397
(VMANSFIELD
VS G
tp398
asg57
I1991
sg45
V461
p399
sbag1
(g2
g3
NtRp400
(dp401
g53
Nsg49
VCAN J BOT
p402
sg51
V70
p403
sg78
(lp404
(VMANSFIELD
VS G
tp405
asg57
I1992
sg45
V151
p406
sbag1
(g2
g3
NtRp407
(dp408
g53
V10.1086/297347
p409
sg49
VINT J PLANT SCI
p410
sg51
V157
p411
sg78
(lp412
(VMANSFIELD
VS G
tp413
asg57
I1996
sg45
V280
p414
sbag1
(g2
g3
NtRp415
(dp416
g53
V10.1016/S1369-5266(98)80036-8
p417
sg49
VCURR OPIN PLANT BIOL
p418
sg51
V1
sg78
(lp419
(VMATSUOKA
VK
tp420
asg57
I1998
sg45
V463
p421
sbag1
(g2
g3
NtRp422
(dp423
g53
V10.1046/j.1365-313X.1995.8040613.x
p424
sg49
VPLANT J
p425
sg51
V8
sg78
(lp426
(VMCKINNEY
VE C
tp427
asg57
I1995
sg45
VLANT
p428
sbag1
(g2
g3
NtRp429
(dp430
g53
V10.1083/jcb.151.1.187
p431
sg49
VJ CELL BIOL
p432
sg51
V151
p433
sg78
(lp434
(VMCNIVEN
VM A
tp435
asg57
I2000
sg45
V187
p436
sbag1
(g2
g3
NtRp437
(dp438
g53
V10.1016/S0968-0004(99)01538-8
p439
sg49
VTRENDS BIOCHEM SCI
p440
sg51
V25
p441
sg78
(lp442
(VMCNIVEN
VM A
tp443
asg57
I2000
sg45
V115
p444
sbag1
(g2
g3
NtRp445
(dp446
g53
V10.1023/A:1006443731515
p447
sg49
VPLANT MOL BIOL
p448
sg51
V43
p449
sg78
(lp450
(VMEINS
VF
tp451
asg57
I2000
sg45
VLANT
p452
sbag1
(g2
g3
NtRp453
(dp454
g53
V10.1093/jexbot/51.343.317
p455
sg49
VJ EXP BOT
p456
sg51
V51
p457
sg78
(lp458
(VMIKAMI
VK
tp459
asg57
I2000
sg45
V317
p460
sbag1
(g2
g3
NtRp461
(dp462
g53
V10.1007/BF00634471
p463
sg49
VPLANTA
p464
sg51
V174
p465
sg78
(lp466
(VMOORE
VP J
tp467
asg57
I1988
sg45
VLANTA
p468
sbag1
(g2
g3
NtRp469
(dp470
g53
V10.1111/j.1399-3054.1962.tb08052.x
p471
sg49
VPHYSIOL PLANTARUM
p472
sg51
V15
p473
sg78
(lp474
(VMURASHIGE
VT
tp475
asg57
I1962
sg45
VHYSIOL
p476
sbag1
(g2
g3
NtRp477
(dp478
g53
V10.1104/pp.121.4.1127
p479
sg49
VPLANT PHYSIOL
p480
sg51
V121
p481
sg78
(lp482
(VNEBENFUHR
VA
tp483
asg57
I1999
sg45
VLANT
p484
sbag1
(g2
g3
NtRp485
(dp486
g53
V10.1083/jcb.129.1.35
p487
sg49
VJ CELL BIOL
p488
sg51
V129
p489
sg78
(lp490
(VNOTHWEHR
VS F
tp491
asg57
I1995
sg45
V35
p492
sbag1
(g2
g3
NtRp493
(dp494
g53
V10.1083/jcb.150.2.377
p495
sg49
VJ CELL BIOL
p496
sg51
V150
p497
sg78
(lp498
(VOCHOA
VG C
tp499
asg57
I2000
sg45
V377
p500
sbag1
(g2
g3
NtRp501
(dp502
g53
V10.1083/jcb.141.1.101
p503
sg49
VJ CELL BIOL
p504
sg51
V141
p505
sg78
(lp506
(VOH
VP
tp507
asg57
I1998
sg45
V101
p508
sbag1
(g2
g3
NtRp509
(dp510
g53
Nsg49
VEMBO J
p511
sg51
V17
p512
sg78
(lp513
(VPARK
VJ M
tp514
asg57
I1998
sg45
V859
p515
sbag1
(g2
g3
NtRp516
(dp517
g53
V10.1104/pp.115.2.763
p518
sg49
VPLANT PHYSIOL
p519
sg51
V115
p520
sg78
(lp521
(VPARK
VJ M
tp522
asg57
I1997
sg45
VLANT
p523
sbag1
(g2
g3
NtRp524
(dp525
g53
V10.1128/MCB.20.13.4513-4521.2000
p526
sg49
VMOL CELL BIOL
p527
sg51
V20
p528
sg78
(lp529
(VRIOU-KHAMLICHI
VC
tp530
asg57
I2000
sg45
V4513
p531
sbag1
(g2
g3
NtRp532
(dp533
g53
V10.1016/0092-8674(90)90070-U
p534
sg49
VCELL
p535
sg51
V61
p536
sg78
(lp537
(VROTHMAN
VJ H
tp538
asg57
I1990
sg45
V1063
p539
sbag1
(g2
g3
NtRp540
(dp541
g53
V10.1083/jcb.130.6.1345
p542
sg49
VJ CELL BIOL
p543
sg51
V130
p544
sg78
(lp545
(VSAMUELS
VA L
tp546
asg57
I1995
sg45
V1345
p547
sbag1
(g2
g3
NtRp548
(dp549
g53
V10.1083/jcb.147.4.699
p550
sg49
VJ CELL BIOL
p551
sg51
V147
p552
sg78
(lp553
(VSESAKI
VH
tp554
asg57
I1999
sg45
V699
p555
sbag1
(g2
g3
NtRp556
(dp557
g53
Nsg49
VNATURE
p558
sg51
V398
p559
sg78
(lp560
(VSEVER
VS
tp561
asg57
I1999
sg45
V481
p562
sbag1
(g2
g3
NtRp563
(dp564
g53
V10.1074/jbc.274.5.2780
p565
sg49
VJ BIOL CHEM
p566
sg51
V274
p567
sg78
(lp568
(VSHIN
VH W
tp569
asg57
I1999
sg45
V2780
p570
sbag1
(g2
g3
NtRp571
(dp572
g53
V10.1101/gr.6.5.454
p573
sg49
VGENOME RES
p574
sg51
V6
sg78
(lp575
(VSMITH
VR F
tp576
asg57
I1996
sg45
V454
p577
sbag1
(g2
g3
NtRp578
(dp579
g53
V10.1016/S0022-5320(69)90033-1
p580
sg49
VJ ULTRA MOL STRUCT R
p581
sg51
V26
p582
sg78
(lp583
(VSPURR
VA R
tp584
asg57
I1969
sg45
V31
p585
sbag1
(g2
g3
NtRp586
(dp587
g53
V10.1126/science.286.5438.316
p588
sg49
VSCIENCE
p589
sg51
V286
p590
sg78
(lp591
(VSTEINMANN
VT
tp592
asg57
I1999
sg45
V316
p593
sbag1
(g2
g3
NtRp594
(dp595
g53
V10.1016/S0092-8674(00)81207-6
p596
sg49
VCELL
p597
sg51
V93
p598
sg78
(lp599
(VSWEITZER
VS M
tp600
asg57
I1998
sg45
V1021
p601
sbag1
(g2
g3
NtRp602
(dp603
g53
V10.1038/374186a0
p604
sg49
VNATURE
p605
sg51
V374
p606
sg78
(lp607
(VTAKEI
VK
tp608
asg57
I1995
sg45
V186
p609
sbag1
(g2
g3
NtRp610
(dp611
g53
V10.1016/S0962-8924(98)01490-1
p612
sg49
VTRENDS CELL BIOL
p613
sg51
V9
sg78
(lp614
(VVAN
VD E R BLIEK A M
tp615
asg57
I1999
sg45
V96
p616
sbag1
(g2
g3
NtRp617
(dp618
g53
V10.1038/351411a0
p619
sg49
VNATURE
p620
sg51
V351
p621
sg78
(lp622
(VVANDERBLIEK
VA M
tp623
asg57
I1991
sg45
V411
p624
sbag1
(g2
g3
NtRp625
(dp626
g53
V10.1083/jcb.119.4.773
p627
sg49
VJ CELL BIOL
p628
sg51
V119
p629
sg78
(lp630
(VVATER
VC A
tp631
asg57
I1992
sg45
V773
p632
sbag1
(g2
g3
NtRp633
(dp634
g53
V10.1016/S1360-1385(96)80049-5
p635
sg49
VTRENDS PLANT SCI
p636
sg51
V1
sg78
(lp637
(VVERMA
VD P S
tp638
asg57
I1996
sg45
V145
p639
sbag1
(g2
g3
NtRp640
(dp641
g53
V10.1016/S0960-9822(00)00775-2
p642
sg49
VCURR BIOL
p643
sg51
V10
p644
sg78
(lp645
(VWAIZENEGGER
VI
tp646
asg57
I2000
sg45
V1371
p647
sbag1
(g2
g3
NtRp648
(dp649
g53
Nsg49
VSTAIN TECHNOL
p650
sg51
V47
p651
sg78
(lp652
(VWIDHOLM
VJ M
tp653
asg57
I1972
sg45
V189
p654
sbag1
(g2
g3
NtRp655
(dp656
g53
Nsg49
VEMBO J
p657
sg51
V12
p658
sg78
(lp659
(VWILSBACH
VK
tp660
asg57
I1993
sg45
V3049
p661
sbag1
(g2
g3
NtRp662
(dp663
g53
V10.1083/jcb.133.2.247
p664
sg49
VJ CELL BIOL
p665
sg51
V133
p666
sg78
(lp667
(VYOSHIMORI
VT
tp668
asg57
I1996
sg45
V247
p669
sbag1
(g2
g3
NtRp670
(dp671
g53
V10.1074/jbc.275.12.8779
p672
sg49
VJ BIOL CHEM
p673
sg51
V275
p674
sg78
(lp675
(VZHANG
VZ M
tp676
asg57
I2000
sg45
V8779
p677
sbasb.