ccopy_reg
_reconstructor
p1
(ctethne.classes.paper
Paper
p2
c__builtin__
object
p3
NtRp4
(dp5
S'publisherCity'
p6
VROCKVILLE
p7
sS'reprintAddress'
p8
VFranceschi, VR (reprint author), Washington State Univ, Sch Biol Sci, Pullman, WA 99164 USA.
p9
sS'WC'
p10
VPlant Sciences
p11
sS'GA'
p12
V848QO
p13
sS'abstract'
p14
VConifer stem pest resistance includes constitutive defenses that discourage invasion and inducible defenses, including phenolic and terpenoid resin synthesis. Recently, methyl jasmonate (MJ) was shown to induce conifer resin and phenolic defenses; however, it is not known if MJ is the direct effector or if there is a downstream signal. Exogenous applications of MJ, methyl salicylate, and ethylene were used to assess inducible defense signaling mechanisms in conifer stems. MJ and ethylene but not methyl salicylate caused enhanced phenolic synthesis in polyphenolic parenchyma cells, early sclereid lignification, and reprogramming of the cambial zone to form traumatic resin ducts in Pseudotsuga menziesii and Sequoiadendron giganteum. Similar responses in internodes above and below treated internodes indicate transport of a signal giving a systemic response. Studies focusing on P. menziesii showed MJ induced ethylene production earlier and 77-fold higher than wounding. Ethylene production was also induced in internodes above the MJ-treated internode. Pretreatment of R menziesii stems with the ethylene response inhibitor 1-methylcyclopropene inhibited MJ and wound responses. Wounding increased 1-aminocyclopropane-1-carboxylic acid (ACC) oxidase protein, but MJ treatment produced a higher and more rapid ACC oxidase increase. ACC oxidase was most abundant in ray parenchyma cells, followed by cambial zone cells and resin duct epithelia. The data show these MJ-induced defense responses are mediated by ethylene. The cambial zone xylem mother cells are reprogrammed to differentiate into resin-secreting epithelial cells by an MJ-induced ethylene burst, whereas polyphenolic parenchyma cells are activated to increase polyphenol production. The results also indicate a central role of ray parenchyma in ethylene-induced defense.
p15
sS'pageEnd'
p16
I2149
sS'date'
p17
I2004
sS'documentType'
p18
VReview
p19
sS'subject'
p20
VPlant Sciences
p21
sS'isoSource'
p22
VPlant Physiol.
p23
sS'timesCited'
p24
(lp25
I69
aVZ9 87
p26
asS'PT'
p27
VJ
sS'title'
p28
VMethyl Jasmonate-Induced Ethylene Production Is Responsible For Conifer Phloem Defense Responses And Reprogramming Of Stem Cambial Zone For Traumatic Resin Duct Formation
p29
sS'ISSN'
p30
(lp31
V0032-0889
p32
aVJ9 PLANT PHYSIOL
p33
asS'authors_full'
p34
(lp35
(VHUDGINS
VJW
tp36
a(VFRANCESCHI
VVR
tp37
asS'PG'
p38
I16
sS'PD'
p39
VAUG
p40
sS'pageStart'
p41
I2134
sS'issue'
p42
I4
sS'RI'
p43
VReglinski, Tony/C-7845-2011
p44
sS'journal'
p45
VPLANT PHYSIOLOGY
p46
sS'volume'
p47
V135
p48
sS'doi'
p49
V10.1104/pp.103.037929
p50
sS'emailAddress'
p51
Vvfrances@mail.wsu.edu
p52
sS'authorAddress'
p53
VWashington State Univ, Sch Biol Sci, Pullman, WA 99164 USA.
p54
sS'publisherAddress'
p55
V15501 MONONA DRIVE, ROCKVILLE, MD 20855 USA
p56
sS'ER'
p57
V
sS'publisher'
p58
VAMER SOC PLANT BIOLOGISTS
p59
sS'authorKeywords'
p60
(lp61
VSPRUCE PICEA-ABIES
p62
aV1-AMINOCYCLOPROPANE-1-CARBOXYLIC ACID OXIDASE
p63
aVSYSTEMIC ACQUIRED-RESISTANCE
p64
aVBEETLE-ASSOCIATED FUNGUS
p65
aVPYTHIUM-ULTIMUM TROW
p66
aVWHITE-PINE WEEVIL
p67
aVNORWAY SPRUCE
p68
aVDISEASE RESISTANCE
p69
aVPARENCHYMA CELLS
p70
aVBALSAMEA SHOOTS
p71
asS'language'
p72
VEnglish
p73
sS'wosid'
p74
VWOS:000223482400027
p75
sS'citationCount'
p76
I108
sS'authors_init'
p77
(lp78
(VHUDGINS
VJ W
tp79
a(VFRANCESCHI
VV R
tp80
asS'citedReferences'
p81
(lp82
g1
(g2
g3
NtRp83
(dp84
g49
Nsg45
VETHYLENE PLANT BIOL
p85
sg47
Nsg77
(lp86
(VABELES
VF B
tp87
asg17
I1992
sg41
V26
p88
sbag1
(g2
g3
NtRp89
(dp90
g49
V10.1139/x95-186
p91
sg45
VCAN J FOREST RES
p92
sg47
V25
p93
sg77
(lp94
(VALFARO
VR I
tp95
asg17
I1995
sg41
V1725
p96
sbag1
(g2
g3
NtRp97
(dp98
g49
V10.1046/j.1365-313X.2003.01727.x
p99
sg45
VPLANT J
p100
sg47
V34
p101
sg77
(lp102
(VANDERSSON-GUNNERAS
VS
tp103
asg17
I2003
sg41
VLANT
p104
sbag1
(g2
g3
NtRp105
(dp106
g49
V10.1111/j.1469-8137.1936.tb06864.x
p107
sg45
VNEW PHYTOL
p108
sg47
V35
p109
sg77
(lp110
(VBANNAN
VM W
tp111
asg17
I1936
sg41
V11
p112
sbag1
(g2
g3
NtRp113
(dp114
g49
Nsg45
VNEW ZEAL J FOR SCI
p115
sg47
V9
sg77
(lp116
(VBARKER
VJ E
tp117
asg17
I1979
sg41
V15
p118
sbag1
(g2
g3
NtRp119
(dp120
g49
V10.1146/annurev.cellbio.16.1.1
p121
sg45
VANNU REV CELL DEV BI
p122
sg47
V16
p123
sg77
(lp124
(VBLEECKER
VA B
tp125
asg17
I2000
sg41
V1
sbag1
(g2
g3
NtRp126
(dp127
g49
Nsg45
VP132
p128
sg47
Nsg77
(lp129
(VBOHLMANN
VJORG
tp130
asg17
I1999
sg41
V132
p131
sbag1
(g2
g3
NtRp132
(dp133
g49
Nsg45
VPLANT PHYSIOL BIOCH
p134
sg47
V35
p135
sg77
(lp136
(VBOIS
VE
tp137
asg17
I1997
sg41
VLANT
p138
sbag1
(g2
g3
NtRp139
(dp140
g49
Nsg45
VPLANT HORMONE ETHYLE
p141
sg47
Nsg77
(lp142
(VBOLLER
VI
tp143
asg17
I1991
sg41
VLANT
p144
sbag1
(g2
g3
NtRp145
(dp146
g49
V10.1023/A:1023833707382
p147
sg45
VJ CHEM ECOL
p148
sg47
V29
p149
sg77
(lp150
(VBONELLO
VP
tp151
asg17
I2003
sg41
V1167
p152
sbag1
(g2
g3
NtRp153
(dp154
g49
V10.1006/pmpp.1999.0218
p155
sg45
VPHYSIOL MOL PLANT P
p156
sg47
V55
p157
sg77
(lp158
(VBOSTOCK
VR M
tp159
asg17
I1999
sg41
VHYSIOL
p160
sbag1
(g2
g3
NtRp161
(dp162
g49
Nsg45
VPLANT PHYSIOL
p163
sg47
V109
p164
sg77
(lp165
(VBRIGNOLAS
VF
tp166
asg17
I1995
sg41
VLANT
p167
sbag1
(g2
g3
NtRp168
(dp169
g49
V10.1074/jbc.M105676200
p170
sg45
VJ BIOL CHEM
p171
sg47
V276
p172
sg77
(lp173
(VBROCK
VT G
tp174
asg17
I2001
sg41
V35071
p175
sbag1
(g2
g3
NtRp176
(dp177
g49
V10.1046/j.1365-313X.2003.01729.x
p178
sg45
VPLANT J
p179
sg47
V34
p180
sg77
(lp181
(VCANO-DELGADO
VA
tp182
asg17
I2003
sg41
VLANT
p183
sbag1
(g2
g3
NtRp184
(dp185
g49
V10.1016/S0168-9525(03)00138-0
p186
sg45
VTRENDS GENET
p187
sg47
V19
p188
sg77
(lp189
(VCHEONG
VJ J
tp190
asg17
I2003
sg41
V409
p191
sbag1
(g2
g3
NtRp192
(dp193
g49
Nsg45
VPHYSL GENETICS TREE
p194
sg47
Nsg77
(lp195
(VCHRISTIANSEN
VE
tp196
asg17
I1999
sg41
VHYSL
p197
sbag1
(g2
g3
NtRp198
(dp199
g49
V10.1093/pcp/pcf067
p200
sg45
VPLANT CELL PHYSIOL
p201
sg47
V43
p202
sg77
(lp203
(VCHUNG
VM C
tp204
asg17
I2002
sg41
VLANT
p205
sbag1
(g2
g3
NtRp206
(dp207
g49
V10.1146/annurev.arplant.48.1.355
p208
sg45
VANNU REV PLANT PHYS
p209
sg47
V48
p210
sg77
(lp211
(VCREELMAN
VR A
tp212
asg17
I1997
sg41
V355
p213
sbag1
(g2
g3
NtRp214
(dp215
g49
V10.1094/MPMI.2002.15.4.380
p216
sg45
VMOL PLANT MICROBE IN
p217
sg47
V15
p218
sg77
(lp219
(VDAVIS
VJ M
tp220
asg17
I2002
sg41
V380
p221
sbag1
(g2
g3
NtRp222
(dp223
g49
Nsg45
VMICROSC ACTA
p224
sg47
V83
p225
sg77
(lp226
(VDELCERRO
VM
tp227
asg17
I1980
sg41
V117
p228
sbag1
(g2
g3
NtRp229
(dp230
g49
V10.1093/jxb/48.2.201
p231
sg45
VJ EXP BOT
p232
sg47
V48
p233
sg77
(lp234
(VDOLAN
VL
tp235
asg17
I1997
sg41
V201
p236
sbag1
(g2
g3
NtRp237
(dp238
g49
V10.1007/s00468-003-0275-x
p239
sg45
VTREES
p240
sg47
V17
p241
sg77
(lp242
(VDU
VS
tp243
asg17
I2003
sg41
V522
p244
sbag1
(g2
g3
NtRp245
(dp246
g49
V10.1016/S1360-1385(97)86349-2
p247
sg45
VTRENDS PLANT SCI
p248
sg47
V2
sg77
(lp249
(VDURNER
VJ
tp250
asg17
I1997
sg41
V266
p251
sbag1
(g2
g3
NtRp252
(dp253
g49
Nsg45
VTREE PHYSIOL
p254
sg47
V15
p255
sg77
(lp256
(VEKLUND
VL
tp257
asg17
I1995
sg41
V27
p258
sbag1
(g2
g3
NtRp259
(dp260
g49
Nsg45
VTREE PHYSIOL
p261
sg47
V18
p262
sg77
(lp263
(VEKLUND
VL
tp264
asg17
I1998
sg41
V383
p265
sbag1
(g2
g3
NtRp266
(dp267
g49
V10.1034/j.1399-3054.1991.820308.x
p268
sg45
VPHYSIOL PLANTARUM
p269
sg47
V82
p270
sg77
(lp271
(VEKLUND
VL
tp272
asg17
I1991
sg41
VHYSIOL
p273
sbag1
(g2
g3
NtRp274
(dp275
g49
Nsg45
VTREE PHYSIOL
p276
sg47
V16
p277
sg77
(lp278
(VEKLUND
VL
tp279
asg17
I1996
sg41
V509
p280
sbag1
(g2
g3
NtRp281
(dp282
g49
Nsg45
VTREES
p283
sg47
V4
sg77
(lp284
(VEKLUND
VL
tp285
asg17
I1990
sg41
V150
p286
sbag1
(g2
g3
NtRp287
(dp288
g49
Nsg45
VPLANT PHYSIOL
p289
sg47
V102
p290
sg77
(lp291
(VEVERARD
VJ D
tp292
asg17
I1993
sg41
VLANT
p293
sbag1
(g2
g3
NtRp294
(dp295
g49
V10.1111/j.1469-8137.1979.tb02680.x
p296
sg45
VNEW PHYTOL
p297
sg47
V82
p298
sg77
(lp299
(VFAHN
VA
tp300
asg17
I1979
sg41
V537
p301
sbag1
(g2
g3
NtRp302
(dp303
g49
V10.1023/A:1020714403780
p304
sg45
VPLANT MOL BIOL
p305
sg47
V51
p306
sg77
(lp307
(VFALDT
VJ
tp308
asg17
I2003
sg41
VLANT
p309
sbag1
(g2
g3
NtRp310
(dp311
g49
V10.1007/s004250050278
p312
sg45
VPLANTA
p313
sg47
V204
p314
sg77
(lp315
(VFAN
VX T
tp316
asg17
I1998
sg41
VLANTA
p317
sbag1
(g2
g3
NtRp318
(dp319
g49
V10.1016/S1369-5266(03)00045-1
p320
sg45
VCURR OPIN PLANT BIOL
p321
sg47
V6
sg77
(lp322
(VFARMER
VE E
tp323
asg17
I2003
sg41
V372
p324
sbag1
(g2
g3
NtRp325
(dp326
g49
V10.2307/2446529
p327
sg45
VAM J BOT
p328
sg47
V85
p329
sg77
(lp330
(VFRANCESCHI
VV R
tp331
asg17
I1998
sg41
V601
p332
sbag1
(g2
g3
NtRp333
(dp334
g49
V10.2307/2656627
p335
sg45
VAM J BOT
p336
sg47
V87
p337
sg77
(lp338
(VFRANCESCHI
VV R
tp339
asg17
I2000
sg41
V314
p340
sbag1
(g2
g3
NtRp341
(dp342
g49
V10.3732/ajb.89.4.578
p343
sg45
VAM J BOT
p344
sg47
V89
p345
sg77
(lp346
(VFRANCESCHI
VV R
tp347
asg17
I2002
sg41
V578
p348
sbag1
(g2
g3
NtRp349
(dp350
g49
Nsg45
VPHYSIOL MOL PLANT P
p351
sg47
V28
p352
sg77
(lp353
(VFRANICH
VR A
tp354
asg17
I1986
sg41
VHYSIOL
p355
sbag1
(g2
g3
NtRp356
(dp357
g49
Nsg45
VSEED SCI RES
p358
sg47
V11
p359
sg77
(lp360
(VGOMEZ-JIMENEZ
VM D
tp361
asg17
I2001
sg41
V243
p362
sbag1
(g2
g3
NtRp363
(dp364
g49
V10.1046/j.1469-8137.2003.00839.x
p365
sg45
VNEW PHYTOL
p366
sg47
V159
p367
sg77
(lp368
(VHUDGINS
VJ W
tp369
asg17
I2003
sg41
V677
p370
sbag1
(g2
g3
NtRp371
(dp372
g49
Nsg45
VTREE PHYSIOL
p373
sg47
V24
p374
sg77
(lp375
(VHUDGINS
VJ W
tp376
asg17
I2004
sg41
V251
p377
sbag1
(g2
g3
NtRp378
(dp379
g49
Nsg45
VTREE PHYSIOL
p380
sg47
V23
p381
sg77
(lp382
(VHUDGINS
VJ W
tp383
asg17
I2003
sg41
V361
p384
sbag1
(g2
g3
NtRp385
(dp386
g49
V10.1023/A:1010299309157
p387
sg45
VBIOL PLANTARUM
p388
sg47
V44
p389
sg77
(lp390
(VIEVINSH
VG
tp391
asg17
I2001
sg41
V233
p392
sbag1
(g2
g3
NtRp393
(dp394
g49
Nsg45
VJ PLANT PHYSIOL
p395
sg47
V145
p396
sg77
(lp397
(VIEVINSH
VG
tp398
asg17
I1995
sg41
V308
p399
sbag1
(g2
g3
NtRp400
(dp401
g49
Nsg45
VTREE PHYSIOL
p402
sg47
V8
sg77
(lp403
(VINGEMARSSON
VB S M
tp404
asg17
I1991
sg41
V273
p405
sbag1
(g2
g3
NtRp406
(dp407
g49
Nsg45
VJ PLANT PHYSIOL
p408
sg47
V151
p409
sg77
(lp410
(VINGEMARSSON
VB S M
tp411
asg17
I1997
sg41
V711
p412
sbag1
(g2
g3
NtRp413
(dp414
g49
Nsg45
VACTA SOC BOT POL
p415
sg47
V69
p416
sg77
(lp417
(VJANAKOWSKI
VS
tp418
asg17
I2000
sg41
V11
p419
sbag1
(g2
g3
NtRp420
(dp421
g49
V10.1146/annurev.genet.32.1.227
p422
sg45
VANNU REV GENET
p423
sg47
V32
p424
sg77
(lp425
(VJOHNSON
VP R
tp426
asg17
I1998
sg41
V227
p427
sbag1
(g2
g3
NtRp428
(dp429
g49
V10.1016/S0031-9422(97)00422-6
p430
sg45
VPHYTOCHEMISTRY
p431
sg47
V47
p432
sg77
(lp433
(VKATOH
VS
tp434
asg17
I1998
sg41
VHYTOCHEMISTRY
p435
sbag1
(g2
g3
NtRp436
(dp437
g49
V10.1146/annurev.pp.44.060193.001435
p438
sg45
VANNU REV PLANT PHYS
p439
sg47
V44
p440
sg77
(lp441
(VKENDE
VH
tp442
asg17
I1993
sg41
V283
p443
sbag1
(g2
g3
NtRp444
(dp445
g49
Nsg45
VPLANT CELL PHYSIOL
p446
sg47
V39
p447
sg77
(lp448
(VKIM
VY S
tp449
asg17
I1998
sg41
VLANT
p450
sbag1
(g2
g3
NtRp451
(dp452
g49
Nsg45
VTREE PHYSIOL
p453
sg47
V22
p454
sg77
(lp455
(VKLINTBORG
VA
tp456
asg17
I2002
sg41
V59
p457
sbag1
(g2
g3
NtRp458
(dp459
g49
V10.1006/pmpp.1999.0205
p460
sg45
VPHYSIOL MOL PLANT P
p461
sg47
V55
p462
sg77
(lp463
(VKOZLOWSKI
VG
tp464
asg17
I1999
sg41
VHYSIOL
p465
sbag1
(g2
g3
NtRp466
(dp467
g49
V10.1023/A:1008620309431
p468
sg45
VEUR J PLANT PATHOL
p469
sg47
V104
p470
sg77
(lp471
(VKOZLOWSKI
VG
tp472
asg17
I1998
sg41
V225
p473
sbag1
(g2
g3
NtRp474
(dp475
g49
V10.1007/s00468-003-0266-y
p476
sg45
VTREES
p477
sg47
V18
p478
sg77
(lp479
(VKREKLING
VT
tp480
asg17
I2004
sg41
V1
sbag1
(g2
g3
NtRp481
(dp482
g49
Nsg45
VFLORA
p483
sg47
V195
p484
sg77
(lp485
(VKREKLING
VT
tp486
asg17
I2000
sg41
V354
p487
sbag1
(g2
g3
NtRp488
(dp489
g49
Nsg45
VTREE PHYSIOL
p490
sg47
V23
p491
sg77
(lp492
(VKROKENE
VP
tp493
asg17
I2003
sg41
V191
p494
sbag1
(g2
g3
NtRp495
(dp496
g49
Nsg45
VMOKUZAI GAKKAISHI
p497
sg47
V47
p498
sg77
(lp499
(VKUSUMOTO
VD
tp500
asg17
I2001
sg41
V1
sbag1
(g2
g3
NtRp501
(dp502
g49
Nsg45
VNEW PHYTOL
p503
sg47
V10
p504
sg77
(lp505
(VKUSUMOTO
VD
tp506
asg17
I2003
sg41
V1469
p507
sbag1
(g2
g3
NtRp508
(dp509
g49
V10.1016/S0764-4469(99)80103-6
p510
sg45
VCR ACAD SCI III
p511
sg47
V322
p512
sg77
(lp513
(VLACHAUD
VS
tp514
asg17
I1999
sg41
V633
p515
sbag1
(g2
g3
NtRp516
(dp517
g49
Nsg45
VPLANT RESINS CHEM EV
p518
sg47
Nsg77
(lp519
(VLANGENHIEM
VJ H
tp520
asg17
Nsg41
VLANT
p521
sbag1
(g2
g3
NtRp522
(dp523
g49
V10.1104/pp.103.022574
p524
sg45
VPLANT PHYSIOL
p525
sg47
V132
p526
sg77
(lp527
(VLEE
VJ H
tp528
asg17
I2003
sg41
VLANT
p529
sbag1
(g2
g3
NtRp530
(dp531
g49
V10.1007/BF02897151
p532
sg45
VBOT REV
p533
sg47
V61
p534
sg77
(lp535
(VLEVYADUN
VS
tp536
asg17
I1995
sg41
V45
p537
sbag1
(g2
g3
NtRp538
(dp539
g49
Nsg45
VEUR J FOREST PATHOL
p540
sg47
V26
p541
sg77
(lp542
(VLIEUTIER
VF
tp543
asg17
I1996
sg41
V145
p544
sbag1
(g2
g3
NtRp545
(dp546
g49
Nsg45
VP281
p547
sg47
Nsg77
(lp548
(VLITTLE
VC H ANTHONY
tp549
asg17
I1995
sg41
V281
p550
sbag1
(g2
g3
NtRp551
(dp552
g49
V10.1007/s004680050230
p553
sg45
VTREES
p554
sg47
V13
p555
sg77
(lp556
(VLITTLE
VC H A
tp557
asg17
I1999
sg41
V173
p558
sbag1
(g2
g3
NtRp559
(dp560
g49
V10.1104/pp.011001
p561
sg45
VPLANT PHYSIOL
p562
sg47
V129
p563
sg77
(lp564
(VMARTIN
VD
tp565
asg17
I2002
sg41
VLANT
p566
sbag1
(g2
g3
NtRp567
(dp568
g49
V10.1104/pp.103.021196
p569
sg45
VPLANT PHYSIOL
p570
sg47
V132
p571
sg77
(lp572
(VMARTIN
VD M
tp573
asg17
I2003
sg41
VLANT
p574
sbag1
(g2
g3
NtRp575
(dp576
g49
V10.1016/S0968-0004(99)01532-7
p577
sg45
VTRENDS BIOCHEM SCI
p578
sg47
V25
p579
sg77
(lp580
(VMCDOWELL
VJ M
tp581
asg17
I2000
sg41
V79
p582
sbag1
(g2
g3
NtRp583
(dp584
g49
V10.1104/pp.103.022723
p585
sg45
VPLANT PHYSIOL
p586
sg47
V133
p587
sg77
(lp588
(VMCKAY
VS A B
tp589
asg17
I2003
sg41
VLANT
p590
sbag1
(g2
g3
NtRp591
(dp592
g49
V10.1073/pnas.90.16.7490
p593
sg45
VP NATL ACAD SCI USA
p594
sg47
V90
p595
sg77
(lp596
(VMUELLER
VM J
tp597
asg17
I1993
sg41
V7490
p598
sbag1
(g2
g3
NtRp599
(dp600
g49
V10.2307/2656626
p601
sg45
VAM J BOT
p602
sg47
V87
p603
sg77
(lp604
(VNAGY
VN E
tp605
asg17
I2000
sg41
V302
p606
sbag1
(g2
g3
NtRp607
(dp608
g49
V10.1146/annurev.py.30.090192.002101
p609
sg45
VANNU REV PHYTOPATHOL
p610
sg47
V30
p611
sg77
(lp612
(VNICHOLSON
VR L
tp613
asg17
I1992
sg41
V369
p614
sbag1
(g2
g3
NtRp615
(dp616
g49
V10.1126/science.274.5294.1914
p617
sg45
VSCIENCE
p618
sg47
V274
p619
sg77
(lp620
(VODONNELL
VP J
tp621
asg17
I1996
sg41
V1914
p622
sbag1
(g2
g3
NtRp623
(dp624
g49
V10.1046/j.1365-313x.2000.00709.x
p625
sg45
VPLANT J
p626
sg47
V22
p627
sg77
(lp628
(VOHTA
VM
tp629
asg17
I2000
sg41
VLANT
p630
sbag1
(g2
g3
NtRp631
(dp632
g49
Nsg45
VPLANT CELL
p633
sg47
V5
sg77
(lp634
(VONEILL
VS D
tp635
asg17
I1993
sg41
VLANT
p636
sbag1
(g2
g3
NtRp637
(dp638
g49
Nsg45
VHISTOCHEM CELL BIOL
p639
sg47
V114
p640
sg77
(lp641
(VORBEA
VA
tp642
asg17
I2000
sg41
V393
p643
sbag1
(g2
g3
NtRp644
(dp645
g49
V10.1105/tpc.10.12.2103
p646
sg45
VPLANT CELL
p647
sg47
V10
p648
sg77
(lp649
(VPENNINCKX
VIAMA
tp650
asg17
I1998
sg41
VLANT
p651
sbag1
(g2
g3
NtRp652
(dp653
g49
Nsg45
VP 4 LIGHTW RES COORD
p654
sg47
Nsg77
(lp655
(VPETERSON
VW H
tp656
asg17
I1977
sg41
V78
p657
sbag1
(g2
g3
NtRp658
(dp659
g49
V10.1016/S1360-1385(99)01401-6
p660
sg45
VTRENDS PLANT SCI
p661
sg47
V4
sg77
(lp662
(VPHILLIPS
VM A
tp663
asg17
I1999
sg41
V184
p664
sbag1
(g2
g3
NtRp665
(dp666
g49
V10.1105/tpc.10.9.1571
p667
sg45
VPLANT CELL
p668
sg47
V10
p669
sg77
(lp670
(VPIETERSE
VC M J
tp671
asg17
I1998
sg41
VLANT
p672
sbag1
(g2
g3
NtRp673
(dp674
g49
V10.1104/pp.123.3.959
p675
sg45
VPLANT PHYSIOL
p676
sg47
V123
p677
sg77
(lp678
(VPLOMION
VC
tp679
asg17
I2000
sg41
VLANT
p680
sbag1
(g2
g3
NtRp681
(dp682
g49
Nsg45
VTREE PHYSIOL
p683
sg47
V15
p684
sg77
(lp685
(VPOPP
VM P
tp686
asg17
I1995
sg41
V807
p687
sbag1
(g2
g3
NtRp688
(dp689
g49
V10.1007/BF02318973
p690
sg45
VPLANT CELL TISS ORG
p691
sg47
V47
p692
sg77
(lp693
(VPOPP
VM P
tp694
asg17
I1997
sg41
VLANT
p695
sbag1
(g2
g3
NtRp696
(dp697
g49
V10.1093/jexbot/49.329.1909
p698
sg45
VJ EXP BOT
p699
sg47
V49
p700
sg77
(lp701
(VRAMASSAMY
VS
tp702
asg17
I1998
sg41
V1909
p703
sbag1
(g2
g3
NtRp704
(dp705
g49
Nsg45
VCAN J BOTANY
p706
sg47
V45
p707
sg77
(lp708
(VREID
VR W
tp709
asg17
I1967
sg41
V1115
p710
sbag1
(g2
g3
NtRp711
(dp712
g49
V10.1093/pcp/pcd017
p713
sg45
VPLANT CELL PHYSIOL
p714
sg47
V41
p715
sg77
(lp716
(VRICHARD
VS
tp717
asg17
I2000
sg41
VLANT
p718
sbag1
(g2
g3
NtRp719
(dp720
g49
Nsg45
VPLANTA
p721
sg47
V192
p722
sg77
(lp723
(VROMBALDI
VC
tp724
asg17
I1994
sg41
VLANTA
p725
sbag1
(g2
g3
NtRp726
(dp727
g49
V10.1139/cjfr-28-4-596
p728
sg45
VCAN J FOREST RES
p729
sg47
V28
p730
sg77
(lp731
(VRUEL
VJ J
tp732
asg17
I1998
sg41
V596
p733
sbag1
(g2
g3
NtRp734
(dp735
g49
V10.1105/tpc.8.10.1809
p736
sg45
VPLANT CELL
p737
sg47
V8
sg77
(lp738
(VRYALS
VJ A
tp739
asg17
I1996
sg41
VLANT
p740
sbag1
(g2
g3
NtRp741
(dp742
g49
Nsg45
VNATO ASI SER
p743
sg47
Nsg77
(lp744
(VSANIEWSKI
VM
tp745
asg17
I1997
sg41
V39
p746
sbag1
(g2
g3
NtRp747
(dp748
g49
V10.1007/s003440010002
p749
sg45
VJ PLANT GROWTH REGUL
p750
sg47
V20
p751
sg77
(lp752
(VSAVIDGE
VR A
tp753
asg17
I2001
sg41
V52
p754
sbag1
(g2
g3
NtRp755
(dp756
g49
V10.1016/S0031-9422(00)97531-9
p757
sg45
VPHYTOCHEMISTRY
p758
sg47
V31
p759
sg77
(lp760
(VSCHULTZ
VT P
tp761
asg17
I1992
sg41
VHYTOCHEMISTRY
p762
sbag1
(g2
g3
NtRp763
(dp764
g49
V10.1016/S0014-5793(00)02049-4
p765
sg45
VFEBS LETT
p766
sg47
V482
p767
sg77
(lp768
(VSEREGELYES
VC
tp769
asg17
I2000
sg41
V125
p770
sbag1
(g2
g3
NtRp771
(dp772
g49
V10.1016/S0981-9428(02)01389-X
p773
sg45
VPLANT PHYSIOL BIOCH
p774
sg47
V40
p775
sg77
(lp776
(VSHIBATA
VK
tp777
asg17
I2002
sg41
VLANT
p778
sbag1
(g2
g3
NtRp779
(dp780
g49
V10.1146/annurev.phyto.35.1.235
p781
sg45
VANNU REV PHYTOPATHOL
p782
sg47
V35
p783
sg77
(lp784
(VSTICHER
VL
tp785
asg17
I1997
sg41
V235
p786
sbag1
(g2
g3
NtRp787
(dp788
g49
V10.1111/j.1399-3054.1986.tb02413.x
p789
sg45
VPHYSIOL PLANTARUM
p790
sg47
V66
p791
sg77
(lp792
(VTELEWSKI
VF W
tp793
asg17
I1986
sg41
VHYSIOL
p794
sbag1
(g2
g3
NtRp795
(dp796
g49
V10.1104/pp.72.1.177
p797
sg45
VPLANT PHYSIOL
p798
sg47
V72
p799
sg77
(lp800
(VTELEWSKI
VF W
tp801
asg17
I1983
sg41
VLANT
p802
sbag1
(g2
g3
NtRp803
(dp804
g49
Nsg45
VTREE PHYSIOL
p805
sg47
V18
p806
sg77
(lp807
(VTOMLIN
VE S
tp808
asg17
I1998
sg41
V21
p809
sbag1
(g2
g3
NtRp810
(dp811
g49
V10.1146/annurev.arplant.52.1.689
p812
sg45
VANNU REV PLANT PHYS
p813
sg47
V52
p814
sg77
(lp815
(VTRAPP
VS
tp816
asg17
I2001
sg41
V689
p817
sbag1
(g2
g3
NtRp818
(dp819
g49
Nsg45
VPlant Molecular Biology Reporter
p820
sg47
V12
p821
sg77
(lp822
(VLOON
VL C V A N
tp823
asg17
I1994
sg41
Vlant
p824
sbag1
(g2
g3
NtRp825
(dp826
g49
V10.1146/annurev.py.18.090180.001355
p827
sg45
VANNU REV PHYTOPATHOL
p828
sg47
V18
p829
sg77
(lp830
(VVANCE
VC P
tp831
asg17
I1980
sg41
V259
p832
sbag1
(g2
g3
NtRp833
(dp834
g49
V10.1007/s004680000082
p835
sg45
VTREES
p836
sg47
V15
p837
sg77
(lp838
(VVIIRI
VH
tp839
asg17
I2001
sg41
V112
p840
sbag1
(g2
g3
NtRp841
(dp842
g49
V10.1007/s004250050434
p843
sg45
VPLANTA
p844
sg47
V206
p845
sg77
(lp846
(VWATANABE
VT
tp847
asg17
I1998
sg41
VLANTA
p848
sbag1
(g2
g3
NtRp849
(dp850
g49
V10.1111/j.1095-8339.1969.tb01974.x
p851
sg45
VBotanical Journal of the Linnean Society
p852
sg47
V62
p853
sg77
(lp854
(VWERKER
VE
tp855
asg17
I1969
sg41
V379
p856
sbag1
(g2
g3
NtRp857
(dp858
g49
V10.1007/s004680050069
p859
sg45
VTREES
p860
sg47
V11
p861
sg77
(lp862
(VWU
VH
tp863
asg17
I1997
sg41
V135
p864
sbag1
(g2
g3
NtRp865
(dp866
g49
V10.1105/tpc.6.8.1077
p867
sg45
VPLANT CELL
p868
sg47
V6
sg77
(lp869
(VXU
VY
tp870
asg17
I1994
sg41
VLANT
p871
sbag1
(g2
g3
NtRp872
(dp873
g49
V10.1093/jxb/38.2.293
p874
sg45
VJ EXP BOT
p875
sg47
V38
p876
sg77
(lp877
(VYAMAMOTO
VF
tp878
asg17
I1987
sg41
V293
p879
sbag1
(g2
g3
NtRp880
(dp881
g49
V10.1016/S0014-5793(03)00809-3
p882
sg45
VFEBS LETT
p883
sg47
V550
p884
sg77
(lp885
(VYANEZ
VA J
tp886
asg17
I2003
sg41
V35
p887
sbasb.