ccopy_reg
_reconstructor
p1
(ctethne.classes.paper
Paper
p2
c__builtin__
object
p3
NtRp4
(dp5
S'publisherCity'
p6
VROCKVILLE
p7
sS'reprintAddress'
p8
VGustafson, JP (reprint author), Univ Missouri, Dept Agron, Columbia, MO 65211 USA.
p9
sS'WC'
p10
VPlant Sciences
p11
sS'GA'
p12
V628JL
p13
sS'abstract'
p14
VTo understand the mechanisms responsible for aluminum (Al) toxicity and tolerance in plants, an expressed sequence tag (EST) approach was used to analyze changes in gene expression in roots of rye (Secale cereale L. cv Blanco) under Al stress. Two cDNA libraries were constructed (Al stressed and unstressed), and a total of 1,194 and 774 ESTs were generated, respectively. The putative proteins encoded by these cDNAs were uncovered by Basic Local Alignment Search Tool searches, and those ESTs showing similarity to proteins of known function were classified according to 13 different functional categories. A total of 671 known function genes were used to analyze the gene expression patterns in rye cv Blanco root tips under Al stress. Many of the previously identified Al-responsive genes showed expression differences between the libraries within 6 h of Al stress. Certain genes were selected, and their expression profiles were studied during a 48-h period using northern analysis. A total of 13 novel genes involved in cell elongation and division (tonoplast aquaporin and ubiquitin-like protein SMT3), oxidative stress (glutathione peroxidase, glucose-6-phosphate-dehydrogenase, and ascorbate peroxidase), iron metabolism (iron deficiency-specific proteins IDS3a, IDS3b, and IDS1; S-adenosyl methionine synthase; and methionine synthase), and other cellular mechanisms (pathogenesis-related protein 1.2, heme oxygenase, and epoxide hydrolase) were demonstrated to be regulated by Al stress. These genes provide new insights about the response of Al-tolerant plants to toxic levels of Al.
p15
sS'pageEnd'
p16
I1716
sS'publisherAddress'
p17
V15501 MONONA DRIVE, ROCKVILLE, MD 20855 USA
p18
sS'documentType'
p19
VArticle
p20
sS'subject'
p21
VPlant Sciences
p22
sS'isoSource'
p23
VPlant Physiol.
p24
sS'timesCited'
p25
(lp26
I47
aVZ9 57
p27
asS'PT'
p28
VJ
sS'title'
p29
VExpressed Sequence Tag-Based Gene Expression Analysis Under Aluminum Stress In Rye
p30
sS'ISSN'
p31
(lp32
V0032-0889
p33
aVJ9 PLANT PHYSIOL
p34
asS'authors_full'
p35
(lp36
(VMILLA
VMAR
tp37
a(VBUTLER
VE
tp38
a(VHUETE
VAR
tp39
a(VWILSON
VCF
tp40
a(VANDERSON
VO
tp41
a(VGUSTAFSON
VJP
tp42
asS'PG'
p43
I11
sS'PD'
p44
VDEC
p45
sS'pageStart'
p46
I1706
sS'issue'
p47
I4
sS'journal'
p48
VPLANT PHYSIOLOGY
p49
sS'volume'
p50
V130
p51
sS'doi'
p52
V10.1104/pp.009969
p53
sS'authorAddress'
p54
(lp55
VUniv Missouri, Dept Agron, Columbia, MO 65211 USA.
p56
aVUniv Missouri, Dept Biochem, Columbia, MO 65211 USA.
p57
aVUniv Missouri, USDA ARS, Plant Genet Res Unit, Columbia, MO 65211 USA.
p58
aVUniv Calif Davis, Genet Resources Conservat Program, Davis, CA 95616 USA.
p59
aVUSDA ARS, Western Reg Res Ctr, Pacific W Area, Albany, CA 94710 USA.
p60
asS'date'
p61
I2002
sS'ER'
p62
V
sS'publisher'
p63
VAMER SOC PLANT BIOLOGISTS
p64
sS'authorKeywords'
p65
(lp66
VWHEAT TRITICUM-AESTIVUM
p67
aVPOSSIBLE INVOLVEMENT
p68
aVOXIDATIVE STRESS
p69
aVHEME OXYGENASE
p70
aVTOBACCO CELLS
p71
aVBARLEY ROOTS
p72
aVCLONING
p73
aVCDNA
p74
aVTOXICITY
p75
aVPLANTS
p76
asS'language'
p77
VEnglish
p78
sS'wosid'
p79
VWOS:000179990100014
p80
sS'citationCount'
p81
I51
sS'authors_init'
p82
(lp83
(VMILLA
VM A R
tp84
a(VBUTLER
VE
tp85
a(VHUETE
VA R
tp86
a(VWILSON
VC F
tp87
a(VANDERSON
VO
tp88
a(VGUSTAFSON
VJ P
tp89
asS'citedReferences'
p90
(lp91
g1
(g2
g3
NtRp92
(dp93
g52
V10.1006/jmbi.1990.9999
p94
sg48
VJ MOL BIOL
p95
sg50
V215
p96
sg82
(lp97
(VALTSCHUL
VS F
tp98
asg61
I1990
sg46
V403
p99
sbag1
(g2
g3
NtRp100
(dp101
g52
Nsg48
VGENETICS
p102
sg50
V157
p103
sg82
(lp104
(VAUGER
VD L
tp105
asg61
I2001
sg46
V1711
p106
sbag1
(g2
g3
NtRp107
(dp108
g52
V10.1046/j.1471-4159.2001.00608.x
p109
sg48
VJ NEUROCHEM
p110
sg50
V79
p111
sg82
(lp112
(VBERG
VD
tp113
asg61
I2001
sg46
V225
p114
sbag1
(g2
g3
NtRp115
(dp116
g52
V10.1104/pp.121.2.479
p117
sg48
VPLANT PHYSIOL
p118
sg50
V121
p119
sg82
(lp120
(VBROSCHE
VM
tp121
asg61
I1999
sg46
VLANT
p122
sbag1
(g2
g3
NtRp123
(dp124
g52
V10.1034/j.1399-3054.1998.1020102.x
p125
sg48
VPHYSIOL PLANTARUM
p126
sg50
V102
p127
sg82
(lp128
(VCHANG
VY C
tp129
asg61
I1998
sg46
VHYSIOL
p130
sbag1
(g2
g3
NtRp131
(dp132
g52
V10.1104/pp.117.4.1143
p133
sg48
VPLANT PHYSIOL
p134
sg50
V117
p135
sg82
(lp136
(VCHAUMONT
VF
tp137
asg61
I1998
sg46
VLANT
p138
sbag1
(g2
g3
NtRp139
(dp140
g52
V10.1021/bi00591a005
p141
sg48
VBIOCHEMISTRY
p142
sg50
V18
p143
sg82
(lp144
(VCHIRGWIN
VJ M
tp145
asg61
I1979
sg46
V5294
p146
sbag1
(g2
g3
NtRp147
(dp148
g52
V10.1104/pp.114.4.1453
p149
sg48
VPLANT PHYSIOL
p150
sg50
V114
p151
sg82
(lp152
(VCRUZORTEGA
VR
tp153
asg61
I1997
sg46
VLANT
p154
sbag1
(g2
g3
NtRp155
(dp156
g52
Nsg48
VPLANT PHYSIOL
p157
sg50
V107
p158
sg82
(lp159
(VDELHAIZE
VE
tp160
asg61
I1995
sg46
VLANT
p161
sbag1
(g2
g3
NtRp162
(dp163
g52
V10.1074/jbc.274.11.7082
p164
sg48
VJ BIOL CHEM
p165
sg50
V274
p166
sg82
(lp167
(VDELHAIZE
VE
tp168
asg61
I1999
sg46
V7082
p169
sbag1
(g2
g3
NtRp170
(dp171
g52
Nsg48
VGENOME RES
p172
sg50
V8
sg82
(lp173
(VEWING
VB
tp174
asg61
I1998
sg46
V186
p175
sbag1
(g2
g3
NtRp176
(dp177
g52
V10.1034/j.1399-3054.1995.930103.x
p178
sg48
VPHYSIOL PLANTARUM
p179
sg50
V93
p180
sg82
(lp181
(VEZAKI
VB
tp182
asg61
I1995
sg46
VHYSIOL
p183
sbag1
(g2
g3
NtRp184
(dp185
g52
V10.1111/j.1399-3054.1996.tb00178.x
p186
sg48
VPHYSIOL PLANTARUM
p187
sg50
V96
p188
sg82
(lp189
(VEZAKI
VB
tp190
asg61
I1996
sg46
VHYSIOL
p191
sbag1
(g2
g3
NtRp192
(dp193
g52
V10.1023/A:1005844016688
p194
sg48
VPLANT MOL BIOL
p195
sg50
V34
p196
sg82
(lp197
(VFERGUSON
VD L
tp198
asg61
I1997
sg46
VLANT
p199
sbag1
(g2
g3
NtRp200
(dp201
g52
V10.1007/s004250050352
p202
sg48
VPLANTA
p203
sg50
V205
p204
sg82
(lp205
(VHAMEL
VF
tp206
asg61
I1998
sg46
VLANTA
p207
sbag1
(g2
g3
NtRp208
(dp209
g52
V10.1104/pp.125.4.2068
p210
sg48
VPLANT PHYSIOL
p211
sg50
V125
p212
sg82
(lp213
(VHAMILTON
VC A
tp214
asg61
I2001
sg46
VLANT
p215
sbag1
(g2
g3
NtRp216
(dp217
g52
Nsg48
VBIOTECHNIQUES
p218
sg50
V6
sg82
(lp219
(VHERRIN
VD L
tp220
asg61
I1988
sg46
V196
p221
sbag1
(g2
g3
NtRp222
(dp223
g52
Nsg48
VPLANTA
p224
sg50
V188
p225
sg82
(lp226
(VHUANG
VJ W W
tp227
asg61
I1992
sg46
VLANTA
p228
sbag1
(g2
g3
NtRp229
(dp230
g52
V10.1073/pnas.220431297
p231
sg48
VP NATL ACAD SCI USA
p232
sg50
V97
p233
sg82
(lp234
(VJIANG
VH P
tp235
asg61
I2000
sg46
V12684
p236
sbag1
(g2
g3
NtRp237
(dp238
g52
Nsg48
VPLANT CELL
p239
sg50
V7
sg82
(lp240
(VJONES
VD L
tp241
asg61
I1995
sg46
VLANT
p242
sbag1
(g2
g3
NtRp243
(dp244
g52
V10.1046/j.1365-313x.2000.00648.x
p245
sg48
VPLANT J
p246
sg50
V21
p247
sg82
(lp248
(VKARLSSON
VM
tp249
asg61
I2000
sg46
VLANT
p250
sbag1
(g2
g3
NtRp251
(dp252
g52
V10.1007/BF00009577
p253
sg48
VPLANT SOIL
p254
sg50
V171
p255
sg82
(lp256
(VKELTJENS
VW G
tp257
asg61
I1995
sg46
VLANT
p258
sbag1
(g2
g3
NtRp259
(dp260
g52
V10.1073/pnas.92.18.8303
p261
sg48
VP NATL ACAD SCI USA
p262
sg50
V92
p263
sg82
(lp264
(VLEE
VN H
tp265
asg61
I1995
sg46
V8303
p266
sbag1
(g2
g3
NtRp267
(dp268
g52
V10.1104/pp.111.2.577
p269
sg48
VPLANT PHYSIOL
p270
sg50
V111
p271
sg82
(lp272
(VLIM
VC O
tp273
asg61
I1996
sg46
VLANT
p274
sbag1
(g2
g3
NtRp275
(dp276
g52
V10.1105/tpc.13.6.1453
p277
sg48
VPLANT CELL
p278
sg50
V13
p279
sg82
(lp280
(VLIU
VK
tp281
asg61
I2001
sg46
VLANT
p282
sbag1
(g2
g3
NtRp283
(dp284
g52
Nsg48
VPLANT PHYSIOL
p285
sg50
V112
p286
sg82
(lp287
(VLUKASZEWSKI
VK M
tp288
asg61
I1996
sg46
VLANT
p289
sbag1
(g2
g3
NtRp290
(dp291
g52
Nsg48
V1998 YEAST GEN MOL B
p292
sg50
Nsg82
(lp293
(VMELUH
VP B
tp294
asg61
I1998
sg46
V300
p295
sbag1
(g2
g3
NtRp296
(dp297
g52
V10.1034/j.1399-3054.1992.850302.x
p298
sg48
VPHYSIOL PLANTARUM
p299
sg50
V85
p300
sg82
(lp301
(VMINOCHA
VR
tp302
asg61
I1992
sg46
VHYSIOL
p303
sbag1
(g2
g3
NtRp304
(dp305
g52
V10.1023/A:1006491521586
p306
sg48
VPLANT MOL BIOL
p307
sg50
V44
p308
sg82
(lp309
(VNAKANISHI
VH
tp310
asg61
I2000
sg46
VLANT
p311
sbag1
(g2
g3
NtRp312
(dp313
g52
V10.1007/BF00040651
p314
sg48
VPLANT MOL BIOL
p315
sg50
V17
p316
sg82
(lp317
(VOKUMURA
VN
tp318
asg61
I1991
sg46
VLANT
p319
sbag1
(g2
g3
NtRp320
(dp321
g52
V10.1016/S0742-8413(00)00133-X
p322
sg48
VCOMP BIOCHEM PHYS C
p323
sg50
V127
p324
sg82
(lp325
(VOSSOLA
VJ O
tp326
asg61
I2000
sg46
V91
p327
sbag1
(g2
g3
NtRp328
(dp329
g52
V10.1038/3947
p330
sg48
VNAT MED
p331
sg50
V4
sg82
(lp332
(VPLATT
VJ L
tp333
asg61
I1998
sg46
V1364
p334
sbag1
(g2
g3
NtRp335
(dp336
g52
Nsg48
VPLANT PHYSIOL
p337
sg50
V114
p338
sg82
(lp339
(VRAGLAND
VM
tp340
asg61
I1997
sg46
VLANT
p341
sbag1
(g2
g3
NtRp342
(dp343
g52
V10.1093/jexbot/52.354.25
p344
sg48
VJ EXP BOT
p345
sg50
V52
p346
sg82
(lp347
(VRANIERI
VA
tp348
asg61
I2001
sg46
V25
p349
sbag1
(g2
g3
NtRp350
(dp351
g52
V10.1104/pp.116.1.409
p352
sg48
VPLANT PHYSIOL
p353
sg50
V116
p354
sg82
(lp355
(VRICHARDS
VK D
tp356
asg61
I1998
sg46
VLANT
p357
sbag1
(g2
g3
NtRp358
(dp359
g52
V10.1016/0168-9452(94)90145-7
p360
sg48
VPLANT SCI
p361
sg50
V98
p362
sg82
(lp363
(VRICHARDS
VK D
tp364
asg61
I1994
sg46
VLANT
p365
sbag1
(g2
g3
NtRp366
(dp367
g52
V10.1104/pp.105.4.1455
p368
sg48
VPLANT PHYSIOL
p369
sg50
V105
p370
sg82
(lp371
(VRICHARDS
VK D
tp372
asg61
I1994
sg46
VLANT
p373
sbag1
(g2
g3
NtRp374
(dp375
g52
V10.1046/j.1365-3040.2000.00586.x
p376
sg48
VPLANT CELL ENVIRON
p377
sg50
V23
p378
sg82
(lp379
(VSAVENSTRAND
VH
tp380
asg61
I2000
sg46
VLANT
p381
sbag1
(g2
g3
NtRp382
(dp383
g52
V10.1104/pp.119.3.1073
p384
sg48
VPLANT PHYSIOL
p385
sg50
V119
p386
sg82
(lp387
(VSIVAGURU
VM
tp388
asg61
I1999
sg46
VLANT
p389
sbag1
(g2
g3
NtRp390
(dp391
g52
V10.1007/BF01587612
p392
sg48
VPLANT SOIL
p393
sg50
V167
p394
sg82
(lp395
(VSLASKI
VJ J
tp396
asg61
I1994
sg46
VLANT
p397
sbag1
(g2
g3
NtRp398
(dp399
g52
V10.1093/pcp/pce085
p400
sg48
VPLANT CELL PHYSIOL
p401
sg50
V42
p402
sg82
(lp403
(VSMART
VL B
tp404
asg61
I2001
sg46
VLANT
p405
sbag1
(g2
g3
NtRp406
(dp407
g52
V10.1104/pp.103.3.855
p408
sg48
VPLANT PHYSIOL
p409
sg50
V103
p410
sg82
(lp411
(VSNOWDEN
VK C
tp412
asg61
I1993
sg46
VLANT
p413
sbag1
(g2
g3
NtRp414
(dp415
g52
V10.1046/j.1365-313X.1994.6020251.x
p416
sg48
VPLANT J
p417
sg50
V6
sg82
(lp418
(VSTAPLETON
VA
tp419
asg61
I1994
sg46
VLANT
p420
sbag1
(g2
g3
NtRp421
(dp422
g52
Nsg48
VMOL CELL BIOL
p423
sg50
V19
p424
sg82
(lp425
(VTANAKA
VK
tp426
asg61
I1999
sg46
V8660
p427
sbag1
(g2
g3
NtRp428
(dp429
g52
Nsg48
VSOIL SCI PLANT NUTR
p430
sg50
V46
p431
sg82
(lp432
(VYAMAGUCHI
VH
tp433
asg61
I2000
sg46
V1
sbag1
(g2
g3
NtRp434
(dp435
g52
V10.1023/A:1005735322577
p436
sg48
VPLANT MOL BIOL
p437
sg50
V35
p438
sg82
(lp439
(VYAMAMOTO
VK
tp440
asg61
I1997
sg46
VLANT
p441
sbag1
(g2
g3
NtRp442
(dp443
g52
V10.1104/pp.125.1.199
p444
sg48
VPLANT PHYSIOL
p445
sg50
V125
p446
sg82
(lp447
(VYAMAMOTO
VY
tp448
asg61
I2001
sg46
VLANT
p449
sbag1
(g2
g3
NtRp450
(dp451
g52
V10.1104/pp.128.1.63
p452
sg48
VPLANT PHYSIOL
p453
sg50
V128
p454
sg82
(lp455
(VYAMAMOTO
VY
tp456
asg61
I2002
sg46
VLANT
p457
sbag1
(g2
g3
NtRp458
(dp459
g52
V10.1016/S0378-1119(97)00577-5
p460
sg48
VGENE
p461
sg50
V206
p462
sg82
(lp463
(VYU
VL H
tp464
asg61
I1998
sg46
V29
p465
sbag1
(g2
g3
NtRp466
(dp467
g52
Nsg48
VJ PLANT PHYSIOL
p468
sg50
V144
p469
sg82
(lp470
(VZHANG
VG C
tp471
asg61
I1994
sg46
V229
p472
sbag1
(g2
g3
NtRp473
(dp474
g52
Nsg48
VGENETICS
p475
sg50
V157
p476
sg82
(lp477
(VZHU
VH
tp478
asg61
I2001
sg46
V1057
p479
sbasb.