ccopy_reg
_reconstructor
p1
(ctethne.classes.paper
Paper
p2
c__builtin__
object
p3
NtRp4
(dp5
S'publisherCity'
p6
VROCKVILLE
p7
sS'reprintAddress'
p8
VGunatilaka, AAL (reprint author), Univ Arizona, Coll Agr & Life Sci, Off Arid Lands Studies, Southwest Ctr Nat Prod Res, Tucson, AZ 85706 USA.
p9
sS'WC'
p10
VPlant Sciences
p11
sS'GA'
p12
V207XU
p13
sS'abstract'
p14
VThe molecular chaperone HEAT SHOCK PROTEIN90 (HSP90) is essential for the maturation of key regulatory proteins in eukaryotes and for the response to temperature stress. Earlier, we have reported that fungi living in association with plants of the Sonoran desert produce small molecule inhibitors of mammalian HSP90. Here, we address whether elaboration of the HSP90 inhibitor monocillin I (MON) by the rhizosphere fungus Paraphaeosphaeria quadriseptata affects plant HSP90 and plant environmental responsiveness. We demonstrate that MON binds Arabidopsis (Arabidopsis thaliana) HSP90 and can inhibit the function of HSP90 in lysates of wheat (Triticum aestivum) germ. MON treatment of Arabidopsis seedlings induced HSP101 and HSP70, conserved components of the stress response. Application of MON, or growth in the presence of MON, allowed Arabidopsis wild type but not AtHSP101 knockout mutant seedlings to survive otherwise lethal temperature stress. Finally, cocultivation of P. quadriseptata with Arabidopsis enhanced plant heat stress tolerance. These data demonstrate that HSP90-inhibitory compounds produced by fungi can influence plant growth and responses to the environment.
p15
sS'pageEnd'
p16
I182
sS'publisherAddress'
p17
V15501 MONONA DRIVE, ROCKVILLE, MD 20855 USA
p18
sS'documentType'
p19
VArticle
p20
sS'subject'
p21
VPlant Sciences
p22
sS'isoSource'
p23
VPlant Physiol.
p24
sS'timesCited'
p25
(lp26
I31
aVZ9 36
p27
asS'PT'
p28
VJ
sS'title'
p29
VA Rhizosphere Fungus Enhances Arabidopsis Thermotolerance Through Production Of An Hsp90 Inhibitor
p30
sS'ISSN'
p31
(lp32
V0032-0889
p33
aVJ9 PLANT PHYSIOL
p34
asS'authors_full'
p35
(lp36
(VMCLELLAN
VCATHERINE A
tp37
a(VTURBYVILLE
VTHOMAS J
tp38
a(VWIJERATNE
VE M KITHSIRI
tp39
a(VKERSCHEN
VARTHUR
tp40
a(VVIERLING
VELIZABETH
tp41
a(VQUEITSCH
VCHRISTINE
tp42
a(VWHITESELL
VLUKE
tp43
a(VGUNATILAKA
VA A LESLIE
tp44
asS'PG'
p45
I9
sS'PD'
p46
VSEP
p47
sS'pageStart'
p48
I174
sS'issue'
p49
I1
sS'journal'
p50
VPLANT PHYSIOLOGY
p51
sS'volume'
p52
V145
p53
sS'doi'
p54
V10.1104/pp.107.101808
p55
sS'emailAddress'
p56
Vleslieg@ag.arizona.edu
p57
sS'authorAddress'
p58
(lp59
VUniv Arizona, Coll Agr & Life Sci, Off Arid Lands Studies, Southwest Ctr Nat Prod Res, Tucson, AZ 85706 USA.
p60
aVHarvard Univ, FAS Ctr Syst Biol, Cambridge, MA 02138 USA.
p61
aVUniv Arizona, Dept Biochem & Mol Biophys, Tucson, AZ 85721 USA.
p62
aVWhitehead Inst Biomed Res, Cambridge, MA 02142 USA.
p63
asS'date'
p64
I2007
sS'ER'
p65
V
sS'publisher'
p66
VAMER SOC PLANT BIOLOGISTS
p67
sS'authorKeywords'
p68
(lp69
VMORPHOLOGICAL EVOLUTION
p70
aVTRANSCRIPTION FACTOR
p71
aVFIREFLY LUCIFERASE
p72
aVMONOCILLIN-I
p73
aVPLANT
p74
aVCHAPERONE
p75
aVPROTEINS
p76
aVCOMPLEX
p77
aVSTRESS
p78
aVACTIVATION
p79
asS'language'
p80
VEnglish
p81
sS'wosid'
p82
VWOS:000249285200016
p83
sS'citationCount'
p84
I36
sS'authors_init'
p85
(lp86
(VMCLELLAN
VC A
tp87
a(VTURBYVILLE
VT J
tp88
a(VWIJERATNE
VE M K
tp89
a(VKERSCHEN
VA
tp90
a(VVIERLING
VE
tp91
a(VQUEITSCH
VC
tp92
a(VWHITESELL
VL
tp93
a(VGUNATILAKA
VA A L
tp94
asS'citedReferences'
p95
(lp96
g1
(g2
g3
NtRp97
(dp98
g54
Nsg50
VCAN J MICROBIOL
p99
sg52
V26
p100
sg85
(lp101
(VAYER
VW A
tp102
asg64
I1980
sg48
V766
p103
sbag1
(g2
g3
NtRp104
(dp105
g54
V10.1016/j.pbi.2004.05.009
p106
sg50
VCURR OPIN PLANT BIOL
p107
sg52
V7
sg85
(lp108
(VBELKHADIR
VY
tp109
asg64
I2004
sg48
V391
p110
sbag1
(g2
g3
NtRp111
(dp112
g54
V10.1379/1466-1268(2003)8<93:EOAUDH>2.0.CO;2
p113
sg50
VCELL STRESS CHAPERON
p114
sg52
V8
sg85
(lp115
(VDAVID
VC L
tp116
asg64
I2003
sg48
V93
p117
sbag1
(g2
g3
NtRp118
(dp119
g54
V10.1038/171344a0
p120
sg50
VNATURE
p121
sg52
V171
p122
sg85
(lp123
(VDELMOTTE
VP
tp124
asg64
I1953
sg48
V344
p125
sbag1
(g2
g3
NtRp126
(dp127
g54
V10.1128/AEM.69.7.3758-3766.2003
p128
sg50
VAPPL ENVIRON MICROB
p129
sg52
V69
p130
sg85
(lp131
(VGOMES
VN C M
tp132
asg64
I2003
sg48
V3758
p133
sbag1
(g2
g3
NtRp134
(dp135
g54
V10.1021/np058128n
p136
sg50
VJ NAT PROD
p137
sg52
V69
p138
sg85
(lp139
(VGUNATILAKA
VA A L
tp140
asg64
I2006
sg48
V509
p141
sbag1
(g2
g3
NtRp142
(dp143
g54
V10.1074/jbc.M105931200
p144
sg50
VJ BIOL CHEM
p145
sg52
V276
p146
sg85
(lp147
(VGUO
VY L
tp148
asg64
I2001
sg48
V45791
p149
sbag1
(g2
g3
NtRp150
(dp151
g54
V10.1073/pnas.97.8.4392
p152
sg50
VP NATL ACAD SCI USA
p153
sg52
V97
p154
sg85
(lp155
(VHONG
VS W
tp156
asg64
I2000
sg48
V4392
p157
sbag1
(g2
g3
NtRp158
(dp159
g54
V10.1038/7036
p160
sg50
VNAT BIOTECHNOL
p161
sg52
V17
p162
sg85
(lp163
(VKASUGA
VM
tp164
asg64
I1999
sg48
V287
p165
sbag1
(g2
g3
NtRp166
(dp167
g54
V10.1016/j.febslet.2004.04.043
p168
sg50
VFEBS LETT
p169
sg52
V566
p170
sg85
(lp171
(VKERSCHEN
VA
tp172
asg64
I2004
sg48
V223
p173
sbag1
(g2
g3
NtRp174
(dp175
g54
Nsg50
VEMBO J
p176
sg52
V13
p177
sg85
(lp178
(VKOLB
VV A
tp179
asg64
I1994
sg48
V3631
p180
sbag1
(g2
g3
NtRp181
(dp182
g54
V10.1379/1466-1268(2001)006<0238:THFOPI>2.0.CO;2
p183
sg50
VCELL STRESS CHAPERON
p184
sg52
V6
sg85
(lp185
(VKRISHNA
VP
tp186
asg64
I2001
sg48
V238
p187
sbag1
(g2
g3
NtRp188
(dp189
g54
V10.1126/science.1136237
p190
sg50
VSCIENCE
p191
sg52
V315
p192
sg85
(lp193
(VMARQUEZ
VL M
tp194
asg64
I2007
sg48
V513
p195
sbag1
(g2
g3
NtRp196
(dp197
g54
V10.1111/j.1365-313X.2005.02500.x
p198
sg50
VPLANT J
p199
sg52
V43
p200
sg85
(lp201
(VNOUTOSHI
VY
tp202
asg64
I2005
sg48
VLANT
p203
sbag1
(g2
g3
NtRp204
(dp205
g54
Nsg50
VJ ANTIBIOT
p206
sg52
V32
p207
sg85
(lp208
(VOMURA
VS
tp209
asg64
I1979
sg48
V255
p210
sbag1
(g2
g3
NtRp211
(dp212
g54
V10.1007/PL00012491
p213
sg50
VCELL MOL LIFE SCI
p214
sg52
V59
p215
sg85
(lp216
(VPICARD
VD
tp217
asg64
I2002
sg48
V1640
p218
sbag1
(g2
g3
NtRp219
(dp220
g54
Nsg50
VEXP BIOL MED
p221
sg52
V228
p222
sg85
(lp223
(VPRATT
VW B
tp224
asg64
I2003
sg48
V111
p225
sbag1
(g2
g3
NtRp226
(dp227
g54
V10.1105/tpc.12.4.479
p228
sg50
VPLANT CELL
p229
sg52
V12
p230
sg85
(lp231
(VQUEITSCH
VC
tp232
asg64
I2000
sg48
VLANT
p233
sbag1
(g2
g3
NtRp234
(dp235
g54
V10.1038/nature749
p236
sg50
VNATURE
p237
sg52
V417
p238
sg85
(lp239
(VQUEITSCH
VC
tp240
asg64
I2002
sg48
V618
p241
sbag1
(g2
g3
NtRp242
(dp243
g54
V10.1073/pnas.0606840103
p244
sg50
VP NATL ACAD SCI USA
p245
sg52
V103
p246
sg85
(lp247
(VRINEHART
VJ P
tp248
asg64
I2006
sg48
V14223
p249
sbag1
(g2
g3
NtRp250
(dp251
g54
V10.1021/jm980403y
p252
sg50
VJ MED CHEM
p253
sg52
V42
p254
sg85
(lp255
(VROE
VS M
tp256
asg64
I1999
sg48
V260
p257
sbag1
(g2
g3
NtRp258
(dp259
g54
V10.1038/24550
p260
sg50
VNATURE
p261
sg52
V396
p262
sg85
(lp263
(VRUTHERFORD
VS L
tp264
asg64
I1998
sg48
V336
p265
sbag1
(g2
g3
NtRp266
(dp267
g54
V10.1016/j.pbi.2004.11.012
p268
sg50
VCURR OPIN PLANT BIOL
p269
sg52
V8
sg85
(lp270
(VSANGSTER
VT A
tp271
asg64
I2005
sg48
V86
p272
sbag1
(g2
g3
NtRp273
(dp274
g54
V10.1002/bies.20020
p275
sg50
VBIOESSAYS
p276
sg52
V26
p277
sg85
(lp278
(VSANGSTER
VT A
tp279
asg64
I2004
sg48
V348
p280
sbag1
(g2
g3
NtRp281
(dp282
g54
V10.1210/me.13.9.1435
p283
sg50
VMOL ENDOCRINOL
p284
sg52
V13
p285
sg85
(lp286
(VSCHULTE
VT W
tp287
asg64
I1999
sg48
V1435
p288
sbag1
(g2
g3
NtRp289
(dp290
g54
V[10.1016/j.cub.2003.12.017, 10.1016/S0960-9822(03)00928-X]
p291
sg50
VCURR BIOL
p292
sg52
V14
p293
sg85
(lp294
(VSCHULZE-LEFERT
VP
tp295
asg64
I2004
sg48
VR22
p296
sbag1
(g2
g3
NtRp297
(dp298
g54
V10.1038/ng1067
p299
sg50
VNAT GENET
p300
sg52
V33
p301
sg85
(lp302
(VSOLLARS
VV
tp303
asg64
I2003
sg48
V70
p304
sbag1
(g2
g3
NtRp305
(dp306
g54
V10.1021/bi9615396
p307
sg50
VBIOCHEMISTRY
p308
sg52
V35
p309
sg85
(lp310
(VTHULASIRAMAN
VV
tp311
asg64
I1996
sg48
V13443
p312
sbag1
(g2
g3
NtRp313
(dp314
g54
V10.1021/np058095b
p315
sg50
VJ NAT PROD
p316
sg52
V69
p317
sg85
(lp318
(VTURBYVILLE
VT J
tp319
asg64
I2006
sg48
V178
p320
sbag1
(g2
g3
NtRp321
(dp322
g54
Nsg50
VADV EXP MED BIOL
p323
sg52
V594
p324
sg85
(lp325
(VVOELLMY
VR
tp326
asg64
I2007
sg48
V89
p327
sbag1
(g2
g3
NtRp328
(dp329
g54
V10.1073/pnas.91.18.8324
p330
sg50
VP NATL ACAD SCI USA
p331
sg52
V91
p332
sg85
(lp333
(VWHITESELL
VL
tp334
asg64
I1994
sg48
V8324
p335
sbag1
(g2
g3
NtRp336
(dp337
g54
V10.1038/nrc1716
p338
sg50
VNAT REV CANCER
p339
sg52
V5
sg85
(lp340
(VWHITESELL
VL
tp341
asg64
I2005
sg48
V761
p342
sbag1
(g2
g3
NtRp343
(dp344
g54
Nsg50
VJ ANTIBIOT
p345
sg52
V57
p346
sg85
(lp347
(VWIJERATNE
VE M K
tp348
asg64
I2004
sg48
V541
p349
sbag1
(g2
g3
NtRp350
(dp351
g54
V10.1371/journal.pgen.0030043
p352
sg50
VPLOS GENET
p353
sg52
V3
sg85
(lp354
(VYEYATI
VP L
tp355
asg64
I2007
sg48
VLOS
p356
sbag1
(g2
g3
NtRp357
(dp358
g54
V10.1083/jcb.200104079
p359
sg50
VJ CELL BIOL
p360
sg52
V154
p361
sg85
(lp362
(VYOUNG
VJ C
tp363
asg64
I2001
sg48
V267
p364
sbag1
(g2
g3
NtRp365
(dp366
g54
V10.1016/S0092-8674(00)81588-3
p367
sg50
VCELL
p368
sg52
V94
p369
sg85
(lp370
(VZOU
VJ Y
tp371
asg64
I1998
sg48
V471
p372
sbasb.