ccopy_reg
_reconstructor
p1
(ctethne.classes.paper
Paper
p2
c__builtin__
object
p3
NtRp4
(dp5
S'publisherCity'
p6
VROCKVILLE
p7
sS'reprintAddress'
p8
VWalter, MH (reprint author), Leibniz Inst Pflanzenbiochem, Abt Sekundaerstoffwechsel, D-06120 Halle Saale, Germany.
p9
sS'WC'
p10
VPlant Sciences
p11
sS'GA'
p12
V776GK
p13
sS'abstract'
p14
VColonization of plant roots by symbiotic arbuscular mycorrhizal fungi frequently leads to the accumulation of several apocarotenoids. The corresponding carotenoid precursors originate from the plastidial 2-C-methyl-D-erythritol 4-phosphate pathway. We have cloned and characterized 1-deoxy-D-xylulose 5-phosphate reductoisomerase (DXR), catalyzing the first committed step of the pathway, from maize (Zea mays). Functional identification was accomplished by heterologous expression of sequences coding for the mature protein in Escherichia coli. DXR is up-regulated in maize roots during mycorrhization as shown at transcript and protein levels, but is also abundant in leaves and young seedlings. Inspection of sequenced genomes and expressed sequence tag (EST) databases argue for a single-copy DXR gene. Immunolocalization studies in mycorrhizal roots using affinity-purified antibodies revealed a DXR localization in plastids around the main symbiotic structures, the arbuscules. DXR protein accumulation is tightly correlated with arbuscule development. The highest level of DXR protein is reached around maturity and initial senescence of these structures. We further demonstrate the formation of a DXR-containing plastidial network around arbuscules, which is highly interconnected in the mature, functional state of the arbuscules. Our findings imply a functional role of a still unknown nature for the apocarotenoids or their respective carotenoid precursors in the arbuscular life cycle.
p15
sS'pageEnd'
p16
I624
sS'date'
p17
I2004
sS'documentType'
p18
VArticle
p19
sS'subject'
p20
VPlant Sciences
p21
sS'isoSource'
p22
VPlant Physiol.
p23
sS'timesCited'
p24
(lp25
I53
aVZ9 65
p26
asS'PT'
p27
VJ
sS'title'
p28
VCloning, Characterization, And Immunolocalization Of A Mycorrhiza-Inducible 1-Deoxy-D-Xylulose 5-Phosphate Reductoisomerase In Arbuscule-Containing Cells Of Maize
p29
sS'ISSN'
p30
(lp31
V0032-0889
p32
aVJ9 PLANT PHYSIOL
p33
asS'authors_full'
p34
(lp35
(VHANS
VJ
tp36
a(VHAUSE
VB
tp37
a(VSTRACK
VD
tp38
a(VWALTER
VMH
tp39
asS'PG'
p40
I11
sS'PD'
p41
VFEB
p42
sS'pageStart'
p43
I614
sS'issue'
p44
I2
sS'RI'
p45
VWalter, Michael/F-4397-2012
p46
sS'journal'
p47
VPLANT PHYSIOLOGY
p48
sS'volume'
p49
V134
p50
sS'doi'
p51
V10.1104/pp.103.032342
p52
sS'emailAddress'
p53
Vmhwalter@ipb-halle.de
p54
sS'authorAddress'
p55
VLeibniz Inst Pflanzenbiochem, Abt Sekundaerstoffwechsel, D-06120 Halle Saale, Germany.
p56
sS'publisherAddress'
p57
V15501 MONONA DRIVE, ROCKVILLE, MD 20855 USA
p58
sS'ER'
p59
V
sS'publisher'
p60
VAMER SOC PLANT BIOLOGISTS
p61
sS'authorKeywords'
p62
(lp63
VSESQUITERPENOID CYCLOHEXENONE DERIVATIVES
p64
aVMETHYLERYTHRITOL PHOSPHATE-PATHWAY
p65
aVHOST-ENDOPHYTE INTERACTIONS
p66
aVISOPRENOID BIOSYNTHESIS
p67
aVTERPENOID BIOSYNTHESIS
p68
aV2-C-METHYL-D-ERYTHRITOL 4-PHOSPHATE
p69
aVISOPENTENYL DIPHOSPHATE
p70
aVHETEROLOGOUS EXPRESSION
p71
aVNONMEVALONATE PATHWAY
p72
aVARABIDOPSIS-THALIANA
p73
asS'language'
p74
VEnglish
p75
sS'wosid'
p76
VWOS:000189108100008
p77
sS'citationCount'
p78
I54
sS'authors_init'
p79
(lp80
(VHANS
VJ
tp81
a(VHAUSE
VB
tp82
a(VSTRACK
VD
tp83
a(VWALTER
VM H
tp84
asS'citedReferences'
p85
(lp86
g1
(g2
g3
NtRp87
(dp88
g51
V10.1111/j.1469-8137.1988.tb00273.x
p89
sg47
VNEW PHYTOL
p90
sg49
V110
p91
sg79
(lp92
(VALEXANDER
VT
tp93
asg17
I1988
sg43
V363
p94
sbag1
(g2
g3
NtRp95
(dp96
g51
V10.1073/pnas.94.20.10600
p97
sg47
VP NATL ACAD SCI USA
p98
sg49
V94
p99
sg79
(lp100
(VARIGONI
VD
tp101
asg17
I1997
sg43
V10600
p102
sbag1
(g2
g3
NtRp103
(dp104
g51
V10.1007/s005720100097
p105
sg47
VMYCORRHIZA
p106
sg49
V11
p107
sg79
(lp108
(VAUGE
VR M
tp109
asg17
I2001
sg43
V3
sbag1
(g2
g3
NtRp110
(dp111
g51
V10.1104/pp.003798
p112
sg47
VPLANT PHYSIOL
p113
sg49
V129
p114
sg79
(lp115
(VCARRETERO-PAULET
VL
tp116
asg17
I2002
sg43
VLANT
p117
sbag1
(g2
g3
NtRp118
(dp119
g51
V10.1094/MPMI.1998.11.10.1017
p120
sg47
VMOL PLANT MICROBE IN
p121
sg49
V11
p122
sg79
(lp123
(VCORDIER
VC
tp124
asg17
I1998
sg43
V1017
p125
sbag1
(g2
g3
NtRp126
(dp127
g51
V10.1093/nar/gkg082
p128
sg47
VNUCLEIC ACIDS RES
p129
sg49
V31
p130
sg79
(lp131
(VDONG
VQ F
tp132
asg17
I2003
sg43
V244
p133
sbag1
(g2
g3
NtRp134
(dp135
g51
V10.1016/S1360-1385(00)01812-4
p136
sg47
VTRENDS PLANT SCI
p137
sg49
V6
sg79
(lp138
(VEISENREICH
VW
tp139
asg17
I2001
sg43
V78
p140
sbag1
(g2
g3
NtRp141
(dp142
g51
Nsg47
VPROTEIN SCI
p143
sg49
V8
sg79
(lp144
(VEMANUELSSON
VO
tp145
asg17
I1999
sg43
VROTEIN
p146
sbag1
(g2
g3
NtRp147
(dp148
g51
V10.1016/0003-2697(78)90749-2
p149
sg47
VANAL BIOCHEM
p150
sg49
V89
p151
sg79
(lp152
(VESEN
VA
tp153
asg17
I1978
sg43
V264
p154
sbag1
(g2
g3
NtRp155
(dp156
g51
V10.1093/pcp/pcf029
p157
sg47
VPLANT CELL PHYSIOL
p158
sg49
V43
p159
sg79
(lp160
(VFESTER
VT
tp161
asg17
I2002
sg43
VLANT
p162
sbag1
(g2
g3
NtRp163
(dp164
g51
V10.1007/s00425-002-0917-z
p165
sg47
VPLANTA
p166
sg49
V216
p167
sg79
(lp168
(VFESTER
VT
tp169
asg17
I2002
sg43
VLANTA
p170
sbag1
(g2
g3
NtRp171
(dp172
g51
Nsg47
VPLANT CELL
p173
sg49
V8
sg79
(lp174
(VGIANINAZZIPEARSON
VV
tp175
asg17
I1996
sg43
VLANT
p176
sbag1
(g2
g3
NtRp177
(dp178
g51
V10.1111/j.1469-8137.1991.tb00945.x
p179
sg47
VNEW PHYTOL
p180
sg49
V117
p181
sg79
(lp182
(VGIANINAZZIPEARSON
VV
tp183
asg17
I1991
sg43
V61
p184
sbag1
(g2
g3
NtRp185
(dp186
g51
V10.1111/j.1469-8137.1996.tb04340.x
p187
sg47
VNEW PHYTOL
p188
sg49
V133
p189
sg79
(lp190
(VGIANINAZZIPEARSON
VV
tp191
asg17
I1996
sg43
V45
p192
sbag1
(g2
g3
NtRp193
(dp194
g51
VDOI 10.1111/J.1469-8137.2009.02874.X
p195
sg47
VNUCL ACIDS S SER
p196
sg49
V41
p197
sg79
(lp198
(VHALL
VT A
tp199
asg17
I1999
sg43
V95
p200
sbag1
(g2
g3
NtRp201
(dp202
g51
V10.1016/S0005-2736(99)00173-X
p203
sg47
VBBA
p204
sg49
V1461
p205
sg79
(lp206
(VHARA
VM
tp207
asg17
I1999
sg43
V147
p208
sbag1
(g2
g3
NtRp209
(dp210
g51
V10.1093/jexbot/50.suppl_1.1013
p211
sg47
VJ EXP BOT
p212
sg49
V50
p213
sg79
(lp214
(VHARRISON
VM J
tp215
asg17
I1999
sg43
V1013
p216
sbag1
(g2
g3
NtRp217
(dp218
g51
V10.1105/tpc.004861
p219
sg47
VPLANT CELL
p220
sg49
V14
p221
sg79
(lp222
(VHARRISON
VM J
tp223
asg17
I2002
sg43
VLANT
p224
sbag1
(g2
g3
NtRp225
(dp226
g51
V10.1104/pp.006007
p227
sg47
VPLANT PHYSIOL
p228
sg49
V130
p229
sg79
(lp230
(VHAUSE
VB
tp231
asg17
I2002
sg43
VLANT
p232
sbag1
(g2
g3
NtRp233
(dp234
g51
V10.1074/jbc.M302526200
p235
sg47
VJ BIOL CHEM
p236
sg49
V278
p237
sg79
(lp238
(VHEMMERLIN
VA
tp239
asg17
I2003
sg43
V26666
p240
sbag1
(g2
g3
NtRp241
(dp242
g51
Nsg47
VJournal of Agricultural Research
p243
sg49
V29
p244
sg79
(lp245
(VJONES
VF R
tp246
asg17
I1924
sg43
V459
p247
sbag1
(g2
g3
NtRp248
(dp249
g51
Nsg47
VCAN J MICROBIOL
p250
sg49
V21
p251
sg79
(lp252
(VKINDEN
VD A
tp253
asg17
I1975
sg43
V1930
p254
sbag1
(g2
g3
NtRp255
(dp256
g51
Nsg47
VCAN J MICROBIOL
p257
sg49
V22
p258
sg79
(lp259
(VKINDEN
VD A
tp260
asg17
I1976
sg43
V64
p261
sbag1
(g2
g3
NtRp262
(dp263
g51
V10.1016/0031-9422(94)00538-5
p264
sg47
VPHYTOCHEMISTRY
p265
sg49
V38
p266
sg79
(lp267
(VKLINGNER
VA
tp268
asg17
I1995
sg43
VHYTOCHEMISTRY
p269
sbag1
(g2
g3
NtRp270
(dp271
g51
V10.1126/science.276.5321.2039
p272
sg47
VSCIENCE
p273
sg49
V276
p274
sg79
(lp275
(VKOHLER
VR H
tp276
asg17
I1997
sg43
V2039
p277
sbag1
(g2
g3
NtRp278
(dp279
g51
V10.1016/S0040-4039(98)01755-9
p280
sg47
VTETRAHEDRON LETT
p281
sg49
V39
p282
sg79
(lp283
(VKUZUYAMA
VT
tp284
asg17
I1998
sg43
V7913
p285
sbag1
(g2
g3
NtRp286
(dp287
g51
V10.1016/S0040-4039(98)00802-8
p288
sg47
VTETRAHEDRON LETT
p289
sg49
V39
p290
sg79
(lp291
(VKUZUYAMA
VT
tp292
asg17
I1998
sg43
V4509
p293
sbag1
(g2
g3
NtRp294
(dp295
g51
V10.1023/A:1023005504702
p296
sg47
VPLANT MOL BIOL
p297
sg49
V51
p298
sg79
(lp299
(VLANGE
VB M
tp300
asg17
I2003
sg43
VLANT
p301
sbag1
(g2
g3
NtRp302
(dp303
g51
V10.1006/abbi.1999.1168
p304
sg47
VARCH BIOCHEM BIOPHYS
p305
sg49
V365
p306
sg79
(lp307
(VLANGE
VB M
tp308
asg17
I1999
sg43
V170
p309
sbag1
(g2
g3
NtRp310
(dp311
g51
V10.1046/j.1365-313x.2000.00764.x
p312
sg47
VPLANT J
p313
sg49
V22
p314
sg79
(lp315
(VLOIS
VL M
tp316
asg17
I2000
sg43
VLANT
p317
sbag1
(g2
g3
NtRp318
(dp319
g51
V10.1073/pnas.141237298
p320
sg47
VP NATL ACAD SCI USA
p321
sg49
V98
p322
sg79
(lp323
(VMAHMOUD
VS S
tp324
asg17
I2001
sg43
V8915
p325
sbag1
(g2
g3
NtRp326
(dp327
g51
V10.1104/pp.109.2.465
p328
sg47
VPLANT PHYSIOL
p329
sg49
V109
p330
sg79
(lp331
(VMAIER
VW
tp332
asg17
I1995
sg43
VLANT
p333
sbag1
(g2
g3
NtRp334
(dp335
g51
V10.1007/s004250050100
p336
sg47
VPLANTA
p337
sg49
V202
p338
sg79
(lp339
(VMAIER
VW
tp340
asg17
I1997
sg43
VLANTA
p341
sbag1
(g2
g3
NtRp342
(dp343
g51
V10.1016/S0040-4039(97)10673-6
p344
sg47
VTETRAHEDRON LETT
p345
sg49
V39
p346
sg79
(lp347
(VMAIER
VW
tp348
asg17
I1998
sg43
V521
p349
sbag1
(g2
g3
NtRp350
(dp351
g51
V10.1016/S0031-9422(00)00047-9
p352
sg47
VPHYTOCHEMISTRY
p353
sg49
V54
p354
sg79
(lp355
(VMAIER
VW
tp356
asg17
I2000
sg43
VHYTOCHEMISTRY
p357
sbag1
(g2
g3
NtRp358
(dp359
g51
V10.1007/s004250050526
p360
sg47
VPLANTA
p361
sg49
V207
p362
sg79
(lp363
(VMAIER
VW
tp364
asg17
I1999
sg43
VLANTA
p365
sbag1
(g2
g3
NtRp366
(dp367
g51
V10.1002/elps.1150091105
p368
sg47
VELECTROPHORESIS
p369
sg49
V9
sg79
(lp370
(VMEYER
VY
tp371
asg17
I1988
sg43
V704
p372
sbag1
(g2
g3
NtRp373
(dp374
g51
V10.1016/S0014-5793(00)02014-7
p375
sg47
VFEBS LETT
p376
sg49
V481
p377
sg79
(lp378
(VMILLER
VB
tp379
asg17
I2000
sg43
V221
p380
sbag1
(g2
g3
NtRp381
(dp382
g51
V10.1104/pp.007138
p383
sg47
VPLANT PHYSIOL
p384
sg49
V130
p385
sg79
(lp386
(VRODRIGUEZ-CONCEPCION
VM
tp387
asg17
I2002
sg43
VLANT
p388
sbag1
(g2
g3
NtRp389
(dp390
g51
V10.1046/j.1365-313x.2001.01089.x
p391
sg47
VPLANT J
p392
sg49
V27
p393
sg79
(lp394
(VRODRIGUEZ-CONCEPCION
VM
tp395
asg17
I2001
sg43
VLANT
p396
sbag1
(g2
g3
NtRp397
(dp398
g51
Nsg47
VBIOCHEM J
p399
sg49
V295
p400
sg79
(lp401
(VROHMER
VM
tp402
asg17
I1993
sg43
V517
p403
sbag1
(g2
g3
NtRp404
(dp405
g51
V10.1007/s004250050565
p406
sg47
VPLANTA
p407
sg49
V208
p408
sg79
(lp409
(VSALZER
VP
tp410
asg17
I1999
sg43
VLANTA
p411
sbag1
(g2
g3
NtRp412
(dp413
g51
Nsg47
VMOL CLONING LAB MANU
p414
sg49
Nsg79
(lp415
(VSAMBROOK
VJ
tp416
asg17
I1989
sg43
Nsbag1
(g2
g3
NtRp417
(dp418
g51
V10.1017/S0953756201005196
p419
sg47
VMYCOL RES
p420
sg49
V105
p421
sg79
(lp422
(VSCHUSSLER
VA
tp423
asg17
I2001
sg43
V1413
p424
sbag1
(g2
g3
NtRp425
(dp426
g51
Nsg47
VTHESIS EIDGENOSSISCH
p427
sg49
Nsg79
(lp428
(VSCHWARZ
VM
tp429
asg17
I1994
sg43
Nsbag1
(g2
g3
NtRp430
(dp431
g51
V10.1016/S0014-5793(99)00849-2
p432
sg47
VFEBS LETT
p433
sg49
V455
p434
sg79
(lp435
(VSCHWENDER
VJ
tp436
asg17
I1999
sg43
V140
p437
sbag1
(g2
g3
NtRp438
(dp439
g51
Nsg47
VMYCORRHIZAL SYMBIOSI
p440
sg49
Nsg79
(lp441
(VSMITH
VS E
tp442
asg17
I1997
sg43
Nsbag1
(g2
g3
NtRp443
(dp444
g51
V10.1023/A:1025695032113
p445
sg47
VJ CHEM ECOL
p446
sg49
V29
p447
sg79
(lp448
(VSTRACK
VD
tp449
asg17
I2003
sg43
V1955
p450
sbag1
(g2
g3
NtRp451
(dp452
g51
V10.1006/abbi.1999.1437
p453
sg47
VARCH BIOCHEM BIOPHYS
p454
sg49
V371
p455
sg79
(lp456
(VSUJAK
VA
tp457
asg17
I1999
sg43
V301
p458
sbag1
(g2
g3
NtRp459
(dp460
g51
V10.1073/pnas.95.17.9879
p461
sg47
VP NATL ACAD SCI USA
p462
sg49
V95
p463
sg79
(lp464
(VTAKAHASHI
VS
tp465
asg17
I1998
sg43
V9879
p466
sbag1
(g2
g3
NtRp467
(dp468
g51
V10.1016/S1360-1385(97)01120-5
p469
sg47
VTRENDS PLANT SCI
p470
sg49
V2
sg79
(lp471
(VTOBIN
VE M
tp472
asg17
I1997
sg43
V405
p473
sbag1
(g2
g3
NtRp474
(dp475
g51
V10.1016/S0167-4781(00)00240-2
p476
sg47
VBBA
p477
sg49
V1517
p478
sg79
(lp479
(VVEAU
VB
tp480
asg17
I2000
sg43
V159
p481
sbag1
(g2
g3
NtRp482
(dp483
g51
V10.1046/j.1365-313x.2000.00708.x
p484
sg47
VPLANT J
p485
sg49
V21
p486
sg79
(lp487
(VWALTER
VM H
tp488
asg17
I2000
sg43
VLANT
p489
sbag1
(g2
g3
NtRp490
(dp491
g51
V10.1046/j.1365-313X.2002.01352.x
p492
sg47
VPLANT J
p493
sg49
V31
p494
sg79
(lp495
(VWALTER
VM H
tp496
asg17
I2002
sg43
VLANT
p497
sbasb.