ccopy_reg
_reconstructor
p1
(ctethne.classes.paper
Paper
p2
c__builtin__
object
p3
NtRp4
(dp5
S'publisherCity'
p6
VROCKVILLE
p7
sS'reprintAddress'
p8
VBuell, CR (reprint author), Inst Genom Res, Rockville, MD 20850 USA.
p9
sS'WC'
p10
VPlant Sciences
p11
sS'GA'
p12
V925AE
p13
sS'abstract'
p14
VWe have developed a rice ( Oryza sativa) genome annotation database ( Osa1) that provides structural and functional annotation for this emerging model species. Using the sequence of O. sativa subsp. japonica cv Nipponbare from the International Rice Genome Sequencing Project, pseudomolecules, or virtual contigs, of the 12 rice chromosomes were constructed. Our most recent release, version 3, represents our third build of the pseudomolecules and is composed of 98% finished sequence. Genes were identified using a series of computational methods developed for Arabidopsis ( Arabidopsis thaliana) that were modified for use with the rice genome. In release 3 of our annotation, we identified 57,915 genes, of which 14,196 are related to transposable elements. Of these 43,719 nontransposable element- related genes, 18,545 ( 42.4%) were annotated with a putative function, 5,777 ( 13.2%) were annotated as encoding an expressed protein with no known function, and the remaining 19,397 ( 44.4%) were annotated as encoding a hypothetical protein. Multiple splice forms ( 5,873) were detected for 2,538 genes, resulting in a total of 61,250 gene models in the rice genome. We incorporated experimental evidence into 18,252 gene models to improve the quality of the structural annotation. A series of functional data types has been annotated for the rice genome that includes alignment with genetic markers, assignment of gene ontologies, identification of flanking sequence tags, alignment with homologs from related species, and syntenic mapping with other cereal species. All structural and functional annotation data are available through interactive search and display windows as well as through download of flat files. To integrate the data with other genome projects, the annotation data are available through a Distributed Annotation System and a Genome Browser.
p15
sS'pageEnd'
p16
I26
sS'publisherAddress'
p17
V15501 MONONA DRIVE, ROCKVILLE, MD 20855 USA
p18
sS'documentType'
p19
VArticle
p20
sS'subject'
p21
VPlant Sciences
p22
sS'isoSource'
p23
VPlant Physiol.
p24
sS'timesCited'
p25
(lp26
I3
aVZ9 3
p27
asS'PT'
p28
VJ
sS'title'
p29
VThe Institute For Genomic Research Osa1 Rice Genome Annotation Database
p30
sS'ISSN'
p31
(lp32
V0032-0889
p33
aVJ9 PLANT PHYSIOL
p34
asS'authors_full'
p35
(lp36
(VYUAN
VQP
tp37
a(VSHU
VOY
tp38
a(VWANG
VAH
tp39
a(VZHU
VW
tp40
a(VMAITI
VR
tp41
a(VLIN
VHN
tp42
a(VHAMILTON
VJ
tp43
a(VHAAS
VB
tp44
a(VSULTANA
VR
tp45
a(VCHEUNG
VF
tp46
a(VWORTMAN
VJ
tp47
a(VBUELL
VCR
tp48
asS'PG'
p49
I9
sS'PD'
p50
VMAY
p51
sS'pageStart'
p52
I17
sS'issue'
p53
I1
sS'journal'
p54
VPLANT PHYSIOLOGY
p55
sS'volume'
p56
V138
p57
sS'doi'
p58
V10.1104/pp.104.059063
p59
sS'emailAddress'
p60
Vrbuell@tigr.org
p61
sS'authorAddress'
p62
VInst Genom Res, Rockville, MD 20850 USA.
p63
sS'date'
p64
I2005
sS'ER'
p65
V
sS'publisher'
p66
VAMER SOC PLANT BIOLOGISTS
p67
sS'authorKeywords'
p68
(lp69
VARABIDOPSIS GENOME
p70
aVDRAFT SEQUENCE
p71
aVMAP
p72
aVPREDICTION
p73
aVINSERTION
p74
aVGENES
p75
aVSITES
p76
aVDNA
p77
aVIDENTIFICATION
p78
aVMUTAGENESIS
p79
asS'language'
p80
VEnglish
p81
sS'wosid'
p82
VWOS:000229023100003
p83
sS'citationCount'
p84
I37
sS'authors_init'
p85
(lp86
(VYUAN
VQ P
tp87
a(VSHU
VO Y
tp88
a(VWANG
VA H
tp89
a(VZHU
VW
tp90
a(VMAITI
VR
tp91
a(VLIN
VH N
tp92
a(VHAMILTON
VJ
tp93
a(VHAAS
VB
tp94
a(VSULTANA
VR
tp95
a(VCHEUNG
VF
tp96
a(VWORTMAN
VJ
tp97
a(VBUELL
VC R
tp98
asS'citedReferences'
p99
(lp100
g1
(g2
g3
NtRp101
(dp102
g58
VDOI 10.1007/BF02672069
p103
sg54
VPLANT MOL BIOL REP
p104
sg56
V9
sg85
(lp105
(VARUMUGANATHAN
VK
tp106
asg64
I1991
sg52
VLANT
p107
sbag1
(g2
g3
NtRp108
(dp109
g58
V10.1104/pp.125.3.1164
p110
sg54
VPLANT PHYSIOL
p111
sg56
V125
p112
sg85
(lp113
(VBARRY
VG F
tp114
asg64
I2001
sg52
VLANT
p115
sbag1
(g2
g3
NtRp116
(dp117
g58
V10.1093/nar/30.1.276
p118
sg54
VNUCLEIC ACIDS RES
p119
sg56
V30
p120
sg85
(lp121
(VBATEMAN
VA
tp122
asg64
I2002
sg52
V276
p123
sbag1
(g2
g3
NtRp124
(dp125
g58
V10.1006/jmbi.1997.0951
p126
sg54
VJ MOL BIOL
p127
sg56
V268
p128
sg85
(lp129
(VBURGE
VC
tp130
asg64
I1997
sg52
V78
p131
sbag1
(g2
g3
NtRp132
(dp133
g58
Nsg54
VGENETICS
p134
sg56
V138
p135
sg85
(lp136
(VCAUSSE
VM A
tp137
asg64
I1994
sg52
V1251
p138
sbag1
(g2
g3
NtRp139
(dp140
g58
V10.1186/1471-2105-2-7
p141
sg54
VBMC Bioinformatics
p142
sg56
V2
sg85
(lp143
(VDOWELL
VR D
tp144
asg64
I2001
sg52
V7
sbag1
(g2
g3
NtRp145
(dp146
g58
V10.1073/pnas.95.5.1971
p147
sg54
VP NATL ACAD SCI USA
p148
sg56
V95
p149
sg85
(lp150
(VGALE
VM D
tp151
asg64
I1998
sg52
V1971
p152
sbag1
(g2
g3
NtRp153
(dp154
g58
V10.1126/science.1068275
p155
sg54
VSCIENCE
p156
sg56
V296
p157
sg85
(lp158
(VGOFF
VS A
tp159
asg64
I2002
sg52
V92
p160
sbag1
(g2
g3
NtRp161
(dp162
g58
V10.1023/A:1010607318694
p163
sg54
VPLANT MOL BIOL
p164
sg56
V46
p165
sg85
(lp166
(VGRECO
VR
tp167
asg64
I2001
sg52
VLANT
p168
sbag1
(g2
g3
NtRp169
(dp170
g58
V10.1093/nar/gkg770
p171
sg54
VNUCLEIC ACIDS RES
p172
sg56
V31
p173
sg85
(lp174
(VHAAS
VB J
tp175
asg64
I2003
sg52
V5654
p176
sbag1
(g2
g3
NtRp177
(dp178
g58
Nsg54
VGENETICS
p179
sg56
V148
p180
sg85
(lp181
(VHARUSHIMA
VY
tp182
asg64
I1998
sg52
V479
p183
sbag1
(g2
g3
NtRp184
(dp185
g58
V10.1006/geno.1997.4984
p186
sg54
VGENOMICS
p187
sg56
V46
p188
sg85
(lp189
(VHUANG
VX Q
tp190
asg64
I1997
sg52
V37
p191
sbag1
(g2
g3
NtRp192
(dp193
g58
V10.1038/nature02953
p194
sg54
VNATURE
p195
sg56
V431
p196
sg85
(lp197
(VJIANG
VN
tp198
asg64
I2004
sg52
V569
p199
sbag1
(g2
g3
NtRp200
(dp201
g58
V10.1093/bioinformatics/bth019
p202
sg54
VBIOINFORMATICS
p203
sg56
V20
p204
sg85
(lp205
(VJURETIC
VN
tp206
asg64
I2004
sg52
V155
p207
sbag1
(g2
g3
NtRp208
(dp209
g58
V[10.1101/gr.229202, 10.1101/gr.229202. Article published online before March 2002]
p210
sg54
VGENOME RES
p211
sg56
V12
p212
sg85
(lp213
(VKENT
VW J
tp214
asg64
I2002
sg52
V656
p215
sbag1
(g2
g3
NtRp216
(dp217
g58
V10.1126/science.1081288
p218
sg54
VSCIENCE
p219
sg56
V301
p220
sg85
(lp221
(VKIKUCHI
VS
tp222
asg64
I2003
sg52
V376
p223
sbag1
(g2
g3
NtRp224
(dp225
g58
V10.1111/j.1365-313X.2004.02116.x
p226
sg54
VPLANT J
p227
sg56
V39
p228
sg85
(lp229
(VKIM
VC M
tp230
asg64
I2004
sg52
VLANT
p231
sbag1
(g2
g3
NtRp232
(dp233
g58
V10.1006/jmbi.2000.4315
p234
sg54
VJ MOL BIOL
p235
sg56
V305
p236
sg85
(lp237
(VKROGH
VA
tp238
asg64
I2001
sg52
V567
p239
sbag1
(g2
g3
NtRp240
(dp241
g58
V10.1093/nar/25.5.955
p242
sg54
VNUCLEIC ACIDS RES
p243
sg56
V25
p244
sg85
(lp245
(VLOWE
VT M
tp246
asg64
I1997
sg52
V955
p247
sbag1
(g2
g3
NtRp248
(dp249
g58
V10.1093/nar/26.4.1107
p250
sg54
VNUCLEIC ACIDS RES
p251
sg56
V26
p252
sg85
(lp253
(VLUKASHIN
VA V
tp254
asg64
I1998
sg52
V1107
p255
sbag1
(g2
g3
NtRp256
(dp257
g58
V10.1105/tpc.012559
p258
sg54
VPLANT CELL
p259
sg56
V15
p260
sg85
(lp261
(VMIYAO
VA
tp262
asg64
I2003
sg52
VLANT
p263
sbag1
(g2
g3
NtRp264
(dp265
g58
V10.1093/nar/gkg046
p266
sg54
VNUCLEIC ACIDS RES
p267
sg56
V31
p268
sg85
(lp269
(VMULDER
VN J
tp270
asg64
I2003
sg52
V315
p271
sbag1
(g2
g3
NtRp272
(dp273
g58
V10.1093/protein/10.1.1
p274
sg54
VPROTEIN ENG
p275
sg56
V10
p276
sg85
(lp277
(VNIELSEN
VH
tp278
asg64
I1997
sg52
VROTEIN
p279
sbag1
(g2
g3
NtRp280
(dp281
g58
V10.1093/nar/gkh099
p282
sg54
VNUCLEIC ACIDS RES
p283
sg56
V32
p284
sg85
(lp285
(VOUYANG
VS
tp286
asg64
I2004
sg52
VD360
p287
sbag1
(g2
g3
NtRp288
(dp289
g58
V10.1093/nar/29.5.1185
p290
sg54
VNUCLEIC ACIDS RES
p291
sg56
V29
p292
sg85
(lp293
(VPERTEA
VM
tp294
asg64
I2001
sg52
V1185
p295
sbag1
(g2
g3
NtRp296
(dp297
g58
V10.1534/genetics.104.034868
p298
sg54
VGENETICS
p299
sg56
V168
p300
sg85
(lp301
(VQI
VL L
tp302
asg64
I2004
sg52
V701
p303
sbag1
(g2
g3
NtRp304
(dp305
g58
V10.1093/nar/29.1.159
p306
sg54
VNUCLEIC ACIDS RES
p307
sg56
V29
p308
sg85
(lp309
(VQUACKENBUSH
VJ
tp310
asg64
I2001
sg52
V159
p311
sbag1
(g2
g3
NtRp312
(dp313
g58
V10.1101/gr.10.4.516
p314
sg54
VGENOME RES
p315
sg56
V10
p316
sg85
(lp317
(VSALAMOV
VA A
tp318
asg64
I2000
sg52
V516
p319
sbag1
(g2
g3
NtRp320
(dp321
g58
V10.1111/j.1365-313X.2004.02145.x
p322
sg54
VPLANT J
p323
sg56
V39
p324
sg85
(lp325
(VSALLAUD
VC
tp326
asg64
I2004
sg52
VLANT
p327
sbag1
(g2
g3
NtRp328
(dp329
g58
V10.1016/S1369-5266(99)00047-3
p330
sg54
VCURR OPIN PLANT BIOL
p331
sg56
V3
sg85
(lp332
(VSASAKI
VT
tp333
asg64
I2000
sg52
V138
p334
sbag1
(g2
g3
NtRp335
(dp336
g58
Nsg54
VGENOME RES
p337
sg56
V10
p338
sg85
(lp339
(VSTEIN
VL D
tp340
asg64
I2002
sg52
V1599
p341
sbag1
(g2
g3
NtRp342
(dp343
g58
Nsg54
VNATURE
p344
sg56
V25
p345
sg85
(lp346
(VTHE
VGENE ONTOLOGY CONSORTIUM
tp347
asg64
I2005
sg52
V25
p348
sbag1
(g2
g3
NtRp349
(dp350
g58
V10.1104/pp.103.022251
p351
sg54
VPLANT PHYSIOL
p352
sg56
V132
p353
sg85
(lp354
(VWORTMAN
VJ R
tp355
asg64
I2003
sg52
VLANT
p356
sbag1
(g2
g3
NtRp357
(dp358
g58
V10.1105/tpc.010274
p359
sg54
VPLANT CELL
p360
sg56
V14
p361
sg85
(lp362
(VWU
VJ Z
tp363
asg64
I2002
sg52
VLANT
p364
sbag1
(g2
g3
NtRp365
(dp366
g58
V10.1126/science.1068037
p367
sg54
VSCIENCE
p368
sg56
V296
p369
sg85
(lp370
(VYU
VJ
tp371
asg64
I2002
sg52
V79
p372
sbag1
(g2
g3
NtRp373
(dp374
g58
Nsg54
VNUCLEIC ACIDS RES
p375
sg56
V31
p376
sg85
(lp377
(VYUAN
VQ
tp378
asg64
I2001
sg52
V229
p379
sbag1
(g2
g3
NtRp380
(dp381
g58
V10.1093/bioinformatics/17.9.847
p382
sg54
VBIOINFORMATICS
p383
sg56
V17
p384
sg85
(lp385
(VZDOBNOV
VE M
tp386
asg64
I2001
sg52
V847
p387
sbasb.