ccopy_reg
_reconstructor
p1
(ctethne.classes.paper
Paper
p2
c__builtin__
object
p3
NtRp4
(dp5
S'publisherCity'
p6
VROCKVILLE
p7
sS'reprintAddress'
p8
VBuell, CR (reprint author), Michigan State Univ, Dept Plant Biol, E Lansing, MI 48824 USA.
p9
sS'WC'
p10
VPlant Sciences
p11
sS'GA'
p12
V391VE
p13
sS'pageEnd'
p14
I116
sS'publisherAddress'
p15
V15501 MONONA DRIVE, ROCKVILLE, MD 20855 USA
p16
sS'documentType'
p17
VEditorial Material
p18
sS'subject'
p19
VPlant Sciences
p20
sS'isoSource'
p21
VPlant Physiol.
p22
sS'timesCited'
p23
(lp24
I11
aVZ9 11
p25
asS'PT'
p26
VJ
sS'title'
p27
VPoaceae Genomes: Going From Unattainable To Becoming A Model Clade For Comparative Plant Genomics
p28
sS'ISSN'
p29
(lp30
V0032-0889
p31
aVJ9 PLANT PHYSIOL
p32
asS'authors_full'
p33
(lp34
(VBUELL
VC ROBIN
tp35
asS'PG'
p36
I6
sS'PD'
p37
VJAN
p38
sS'pageStart'
p39
I111
sS'issue'
p40
I1
sS'journal'
p41
VPLANT PHYSIOLOGY
p42
sS'volume'
p43
V149
p44
sS'doi'
p45
V10.1104/pp.108.128926
p46
sS'emailAddress'
p47
Vbuell@msu.edu
p48
sS'authorAddress'
p49
VMichigan State Univ, Dept Plant Biol, E Lansing, MI 48824 USA.
p50
sS'date'
p51
I2009
sS'ER'
p52
V
sS'publisher'
p53
VAMER SOC PLANT BIOLOGISTS
p54
sS'authorKeywords'
p55
(lp56
VRICE GENOME
p57
aVCELL TRANSCRIPTOME
p58
aVDRAFT SEQUENCE
p59
aVMAIZE GENOME
p60
aVORYZA
p61
aVSELECTION
p62
aVALIGNMENT
p63
aVMAP
p64
asS'language'
p65
VEnglish
p66
sS'wosid'
p67
VWOS:000262261500015
p68
sS'citationCount'
p69
I25
sS'authors_init'
p70
(lp71
(VBUELL
VC R
tp72
asS'citedReferences'
p73
(lp74
g1
(g2
g3
NtRp75
(dp76
g45
V10.1038/NMETH1111
p77
sg41
VNAT METHODS
p78
sg43
V4
sg70
(lp79
(VALBERT
VT J
tp80
asg51
I2007
sg39
V903
p81
sbag1
(g2
g3
NtRp82
(dp83
g45
VDOI 10.1007/BF02672069
p84
sg41
VPLANT MOL BIOL REP
p85
sg43
V9
sg70
(lp86
(VARUMUGANATHAN
VK
tp87
asg51
I1991
sg39
VLANT
p88
sbag1
(g2
g3
NtRp89
(dp90
g45
V10.1104/pp.125.3.1164
p91
sg41
VPLANT PHYSIOL
p92
sg43
V125
p93
sg70
(lp94
(VBARRY
VG F
tp95
asg51
I2001
sg39
VLANT
p96
sbag1
(g2
g3
NtRp97
(dp98
g45
V10.1371/journal.pbio.0030013
p99
sg41
VPLOS BIOL
p100
sg43
V3
sg70
(lp101
(VBEDELL
VJ A
tp102
asg51
I2005
sg39
VLOS
p103
sbag1
(g2
g3
NtRp104
(dp105
g45
V10.1038/nmeth.1223
p106
sg41
VNAT METHODS
p107
sg43
V5
sg70
(lp108
(VCLOONAN
VN
tp109
asg51
I2008
sg39
V613
p110
sbag1
(g2
g3
NtRp111
(dp112
g45
V10.1101/gr.9.10.950
p113
sg41
VGENOME RES
p114
sg43
V9
sg70
(lp115
(VEWING
VR M
tp116
asg51
I1999
sg39
V950
p117
sbag1
(g2
g3
NtRp118
(dp119
g45
V10.1126/science.1068275
p120
sg41
VSCIENCE
p121
sg43
V296
p122
sg70
(lp123
(VGOFF
VS A
tp124
asg51
I2002
sg39
V92
p125
sbag1
(g2
g3
NtRp126
(dp127
g45
V10.1093/nar/gkg770
p128
sg41
VNUCLEIC ACIDS RES
p129
sg43
V31
p130
sg70
(lp131
(VHAAS
VB J
tp132
asg51
I2003
sg39
V5654
p133
sbag1
(g2
g3
NtRp134
(dp135
g45
Nsg41
VGENETICS
p136
sg43
V148
p137
sg70
(lp138
(VHARUSHIMA
VY
tp139
asg51
I1998
sg39
V479
p140
sbag1
(g2
g3
NtRp141
(dp142
g45
V10.1038/ng.2007.42
p143
sg41
VNAT GENET
p144
sg43
V39
p145
sg70
(lp146
(VHODGES
VE
tp147
asg51
I2007
sg39
V1522
p148
sbag1
(g2
g3
NtRp149
(dp150
g45
V10.1038/ng.195
p151
sg41
VNAT GENET
p152
sg43
V40
p153
sg70
(lp154
(VHOLT
VK E
tp155
asg51
I2008
sg39
V987
p156
sbag1
(g2
g3
NtRp157
(dp158
g45
V10.1038/nature03895
p159
sg41
VNATURE
p160
sg43
V436
p161
sg70
(lp162
(VMATSUMOTO
VT
tp163
asg51
I2005
sg39
V793
p164
sbag1
(g2
g3
NtRp165
(dp166
g45
V10.1186/gb-2008-9-2-r45
p167
sg41
VGENOME BIOL
p168
sg43
V9
sg70
(lp169
(VKIM
VH
tp170
asg51
I2008
sg39
Nsbag1
(g2
g3
NtRp171
(dp172
g45
V10.1038/nature03959
p173
sg41
VNATURE
p174
sg43
V437
p175
sg70
(lp176
(VMARGULIES
VM
tp177
asg51
I2005
sg39
V376
p178
sbag1
(g2
g3
NtRp179
(dp180
g45
V10.1104/pp.106.077313
p181
sg41
VPLANT PHYSIOL
p182
sg43
V141
p183
sg70
(lp184
(VMCNALLY
VK L
tp185
asg51
I2006
sg39
VLANT
p186
sbag1
(g2
g3
NtRp187
(dp188
g45
V10.1038/NMETH1109
p189
sg41
VNAT METHODS
p190
sg43
V4
sg70
(lp191
(VOKOU
VD T
tp192
asg51
I2007
sg39
V907
p193
sbag1
(g2
g3
NtRp194
(dp195
g45
V10.1126/science.1091265
p196
sg41
VSCIENCE
p197
sg43
V302
p198
sg70
(lp199
(VPALMER
VL E
tp200
asg51
I2003
sg39
V2115
p201
sbag1
(g2
g3
NtRp202
(dp203
g45
V10.1016/j.ygeno.2008.05.011
p204
sg41
VGENOMICS
p205
sg43
V92
p206
sg70
(lp207
(VROSENKRANZ
VR
tp208
asg51
I2008
sg39
V187
p209
sbag1
(g2
g3
NtRp210
(dp211
g45
V10.1126/science.274.5288.765
p212
sg41
VSCIENCE
p213
sg43
V274
p214
sg70
(lp215
(VSANMIGUEL
VP
tp216
asg51
I1996
sg39
V765
p217
sbag1
(g2
g3
NtRp218
(dp219
g45
V[10.1038/nmeth.1249, 10.1038/NMETH.1249]
p220
sg41
VNAT METHODS
p221
sg43
V5
sg70
(lp222
(VSARIN
VS
tp223
asg51
I2008
sg39
V865
p224
sbag1
(g2
g3
NtRp225
(dp226
g45
Nsg41
VCHROMOSOMA
p227
sg43
V50
p228
sg70
(lp229
(VSMITH
VD B
tp230
asg51
I1975
sg39
V223
p231
sbag1
(g2
g3
NtRp232
(dp233
g45
V10.1126/science.1090047
p234
sg41
VSCIENCE
p235
sg43
V302
p236
sg70
(lp237
(VWHITELAW
VC A
tp238
asg51
I2003
sg39
V2118
p239
sbag1
(g2
g3
NtRp240
(dp241
g45
V10.1023/A:1005735322577
p242
sg41
VPLANT MOL BIOL
p243
sg43
V35
p244
sg70
(lp245
(VYAMAMOTO
VK
tp246
asg51
I1997
sg39
VLANT
p247
sbag1
(g2
g3
NtRp248
(dp249
g45
V10.1371/journal.pbio.0030038
p250
sg41
VPLOS BIOL
p251
sg43
V3
sg70
(lp252
(VYU
VJ
tp253
asg51
I2005
sg39
VLOS
p254
sbag1
(g2
g3
NtRp255
(dp256
g45
V10.1126/science.1068037
p257
sg41
VSCIENCE
p258
sg43
V296
p259
sg70
(lp260
(VYU
VJ
tp261
asg51
I2002
sg39
V79
p262
sbasb.