ccopy_reg
_reconstructor
p1
(ctethne.classes.paper
Paper
p2
c__builtin__
object
p3
NtRp4
(dp5
S'publisherCity'
p6
VROCKVILLE
p7
sS'reprintAddress'
p8
VGeldner, N (reprint author), Univ Lausanne, Dept Plant Mol Biol, CH-1015 Lausanne, Switzerland.
p9
sS'WC'
p10
VPlant Sciences
p11
sS'GA'
p12
V333WR
p13
sS'pageEnd'
p14
I1574
sS'publisherAddress'
p15
V15501 MONONA DRIVE, ROCKVILLE, MD 20855 USA
p16
sS'documentType'
p17
VArticle
p18
sS'subject'
p19
VPlant Sciences
p20
sS'isoSource'
p21
VPlant Physiol.
p22
sS'timesCited'
p23
(lp24
I54
aVZ9 56
p25
asS'PT'
p26
VJ
sS'title'
p27
VPlant Receptors Go Endosomal: A Moving View On Signal Transduction
p28
sS'ISSN'
p29
(lp30
V0032-0889
p31
aVJ9 PLANT PHYSIOL
p32
asS'authors_full'
p33
(lp34
(VGELDNER
VNIKO
tp35
a(VROBATZEK
VSILKE
tp36
asS'PG'
p37
I10
sS'PD'
p38
VAUG
p39
sS'pageStart'
p40
I1565
sS'issue'
p41
I4
sS'RI'
p42
VRobatzek, Silke/B-6844-2013
p43
sS'journal'
p44
VPLANT PHYSIOLOGY
p45
sS'volume'
p46
V147
p47
sS'doi'
p48
V10.1104/pp.108.120287
p49
sS'emailAddress'
p50
Vniko.geldner@unil.ch
p51
sS'authorAddress'
p52
(lp53
V[Geldner, Niko] Univ Lausanne, Dept Plant Mol Biol, CH-1015 Lausanne, Switzerland.
p54
aV[Robatzek, Silke] Max Planck Inst Plant Breeding Res, D-50829 Cologne, Germany.
p55
asS'date'
p56
I2008
sS'ER'
p57
V
sS'publisher'
p58
VAMER SOC PLANT BIOLOGISTS
p59
sS'authorKeywords'
p60
(lp61
VARABIDOPSIS-THALIANA
p62
aVPROTEIN PHOSPHATASE
p63
aVEXTRACELLULAR DOMAIN
p64
aVDISEASE RESISTANCE
p65
aVENDOCYTIC PATHWAY
p66
aVTOBACCO CELLS
p67
aVREPEAT DOMAIN
p68
aVKINASE BRI1
p69
aVGENE FAMILY
p70
aVELICITOR
p71
asS'language'
p72
VEnglish
p73
sS'wosid'
p74
VWOS:000258184800012
p75
sS'citationCount'
p76
I71
sS'authors_init'
p77
(lp78
(VGELDNER
VN
tp79
a(VROBATZEK
VS
tp80
asS'citedReferences'
p81
(lp82
g1
(g2
g3
NtRp83
(dp84
g48
V10.1038/ncb1369
p85
sg44
VNAT CELL BIOL
p86
sg46
V8
sg77
(lp87
(VABAS
VL
tp88
asg56
I2006
sg40
V249
p89
sbag1
(g2
g3
NtRp90
(dp91
g48
V10.1105/tpc.105.036814
p92
sg44
VPLANT CELL
p93
sg46
V17
p94
sg77
(lp95
(VALBRECHT
VC
tp96
asg56
I2005
sg40
VLANT
p97
sbag1
(g2
g3
NtRp98
(dp99
g48
V10.1093/pcp/pcm132
p100
sg44
VPLANT CELL PHYSIOL
p101
sg46
V48
p102
sg77
(lp103
(VALI
VG S
tp104
asg56
I2007
sg40
VLANT
p105
sbag1
(g2
g3
NtRp106
(dp107
g48
V10.1111/j.1365-313X.2005.02631.x
p108
sg44
VPLANT J
p109
sg46
V45
p110
sg77
(lp111
(VBARGMANN
VB O R
tp112
asg56
I2006
sg40
VLANT
p113
sbag1
(g2
g3
NtRp114
(dp115
g48
V10.1074/jbc.M102390200
p116
sg44
VJ BIOL CHEM
p117
sg46
V276
p118
sg77
(lp119
(VBAUER
VZ
tp120
asg56
I2001
sg40
V45669
p121
sbag1
(g2
g3
NtRp122
(dp123
g48
V10.1038/nature05999
p124
sg44
VNATURE
p125
sg46
V448
p126
sg77
(lp127
(VCHINCHILLA
VD
tp128
asg56
I2007
sg40
V497
p129
sbag1
(g2
g3
NtRp130
(dp131
g48
V10.1105/tpc.105.036731
p132
sg44
VPLANT CELL
p133
sg46
V17
p134
sg77
(lp135
(VCOLCOMBET
VJ
tp136
asg56
I2005
sg40
VLANT
p137
sbag1
(g2
g3
NtRp138
(dp139
g48
V10.1016/j.cub.2007.01.052
p140
sg44
VCURR BIOL
p141
sg46
V17
p142
sg77
(lp143
(VDHONUKSHE
VP
tp144
asg56
I2007
sg40
V520
p145
sbag1
(g2
g3
NtRp146
(dp147
g48
V10.1021/bi061763n
p148
sg44
VBIOCHEMISTRY
p149
sg46
V46
p150
sg77
(lp151
(VDING
VZ
tp152
asg56
I2007
sg40
V2684
p153
sbag1
(g2
g3
NtRp154
(dp155
g48
V10.1074/jbc.M304474200
p156
sg44
VJ BIOL CHEM
p157
sg46
V278
p158
sg77
(lp159
(VDUAN
VL
tp160
asg56
I2003
sg40
V28950
p161
sbag1
(g2
g3
NtRp162
(dp163
g48
V10.1126/science.1143562
p164
sg44
VSCIENCE
p165
sg46
V317
p166
sg77
(lp167
(VESCOBAR-RESTREPO
VJ M
tp168
asg56
I2007
sg40
V656
p169
sbag1
(g2
g3
NtRp170
(dp171
g48
V10.1074/jbc.M308552200
p172
sg44
VJ BIOL CHEM
p173
sg46
V279
p174
sg77
(lp175
(VFLIEGMANN
VJ
tp176
asg56
I2004
sg40
V1132
p177
sbag1
(g2
g3
NtRp178
(dp179
g48
V10.1101/gad.1561307
p180
sg44
VGENE DEV
p181
sg46
V21
p182
sg77
(lp183
(VGELDNER
VN
tp184
asg56
I2007
sg40
V1598
p185
sbag1
(g2
g3
NtRp186
(dp187
g48
V10.1038/35096571
p188
sg44
VNATURE
p189
sg46
V413
p190
sg77
(lp191
(VGELDNER
VN
tp192
asg56
I2001
sg40
V425
p193
sbag1
(g2
g3
NtRp194
(dp195
g48
V10.1105/tpc.104.029975
p196
sg44
VPLANT CELL
p197
sg46
V17
p198
sg77
(lp199
(VGIFFORD
VM L
tp200
asg56
I2005
sg40
VLANT
p201
sbag1
(g2
g3
NtRp202
(dp203
g48
V10.1105/tpc.13.5.1155
p204
sg44
VPLANT CELL
p205
sg46
V13
p206
sg77
(lp207
(VGOMEZ-GOMEZ
VL
tp208
asg56
I2001
sg40
VLANT
p209
sbag1
(g2
g3
NtRp210
(dp211
g48
V10.1111/j.1469-8137.2004.01245.x
p212
sg44
VNEW PHYTOL
p213
sg46
V165
p214
sg77
(lp215
(VGROSS
VA
tp216
asg56
I2005
sg40
V215
p217
sbag1
(g2
g3
NtRp218
(dp219
g48
V10.1038/35096054
p220
sg44
VNAT REV MOL CELL BIO
p221
sg46
V2
sg77
(lp222
(VGRUENBERG
VJ
tp223
asg56
I2001
sg40
V721
p224
sbag1
(g2
g3
NtRp225
(dp226
g48
V10.1016/j.cub.2007.05.036
p227
sg44
VCURR BIOL
p228
sg46
V17
p229
sg77
(lp230
(VHE
VK
tp231
asg56
I2007
sg40
V1109
p232
sbag1
(g2
g3
NtRp233
(dp234
g48
V10.1073/pnas.0705306104
p235
sg44
VP NATL ACAD SCI USA
p236
sg46
V104
p237
sg77
(lp238
(VHEESE
VA
tp239
asg56
I2007
sg40
V12217
p240
sbag1
(g2
g3
NtRp241
(dp242
g48
V10.1083/jcb.141.2.349
p243
sg44
VJ CELL BIOL
p244
sg46
V141
p245
sg77
(lp246
(VHICKE
VL
tp247
asg56
I1998
sg40
V349
p248
sbag1
(g2
g3
NtRp249
(dp250
g48
V10.1016/j.bcp.2004.01.003
p251
sg44
VBIOCHEM PHARMACOL
p252
sg46
V67
p253
sg77
(lp254
(VHOLLER
VD
tp255
asg56
I2004
sg40
V1013
p256
sbag1
(g2
g3
NtRp257
(dp258
g48
V10.1186/1742-4682-2-43
p259
sg44
VTHEOR BIOL MED MODEL
p260
sg46
V2
sg77
(lp261
(VHOWE
VC L
tp262
asg56
I2005
sg40
Nsbag1
(g2
g3
NtRp263
(dp264
g48
V10.1016/j.cell.2007.08.040
p265
sg44
VCELL
p266
sg46
V130
p267
sg77
(lp268
(VJAILLAIS
VY
tp269
asg56
I2007
sg40
V1057
p270
sbag1
(g2
g3
NtRp271
(dp272
g48
V10.1038/sj.emboj.7601222
p273
sg44
VEMBO J
p274
sg46
V25
p275
sg77
(lp276
(VJOHNSEN
VI B
tp277
asg56
I2006
sg40
V3335
p278
sbag1
(g2
g3
NtRp279
(dp280
g48
V10.1146/annurev.cellbio.20.082503.103057
p281
sg44
VANNU REV CELL DEV BI
p282
sg46
V20
p283
sg77
(lp284
(VJURGENS
VG
tp285
asg56
I2004
sg40
V481
p286
sbag1
(g2
g3
NtRp287
(dp288
g48
V10.1073/pnas.0508882103
p289
sg44
VP NATL ACAD SCI USA
p290
sg46
V103
p291
sg77
(lp292
(VKAKU
VH
tp293
asg56
I2006
sg40
V11086
p294
sbag1
(g2
g3
NtRp295
(dp296
g48
V10.1105/tpc.105.039412
p297
sg44
VPLANT CELL
p298
sg46
V18
p299
sg77
(lp300
(VKARLOVA
VR
tp301
asg56
I2006
sg40
VLANT
p302
sbag1
(g2
g3
NtRp303
(dp304
g48
V10.1073/pnas.091114198
p305
sg44
VP NATL ACAD SCI USA
p306
sg46
V98
p307
sg77
(lp308
(VKAWCHUK
VL M
tp309
asg56
I2001
sg40
V6511
p310
sbag1
(g2
g3
NtRp311
(dp312
g48
V10.1016/j.cub.2007.05.046
p313
sg44
VCURR BIOL
p314
sg46
V17
p315
sg77
(lp316
(VKEMMERLING
VB
tp317
asg56
I2007
sg40
V1116
p318
sbag1
(g2
g3
NtRp319
(dp320
g48
V10.1038/nature03227
p321
sg44
VNATURE
p322
sg46
V433
p323
sg77
(lp324
(VKINOSHITA
VT
tp325
asg56
I2005
sg40
V167
p326
sbag1
(g2
g3
NtRp327
(dp328
g48
V10.1242/jcs.02968
p329
sg44
VJ CELL SCI
p330
sg46
V119
p331
sg77
(lp332
(VKOHORN
VB D
tp333
asg56
I2006
sg40
V2282
p334
sbag1
(g2
g3
NtRp335
(dp336
g48
V10.1016/j.addr.2003.07.003
p337
sg44
VADV DRUG DELIVER REV
p338
sg46
V55
p339
sg77
(lp340
(VKURTEN
VR C
tp341
asg56
I2003
sg40
V1405
p342
sbag1
(g2
g3
NtRp343
(dp344
g48
V10.1007/s00709-005-0111-9
p345
sg44
VPROTOPLASMA
p346
sg46
V226
p347
sg77
(lp348
(VKWAAITAAL
VMACJ
tp349
asg56
I2005
sg40
VROTOPLASMA
p350
sbag1
(g2
g3
NtRp351
(dp352
g48
V10.1179/096805104225006525
p353
sg44
VJ ENDOTOXIN RES
p354
sg46
V10
p355
sg77
(lp356
(VLATZ
VE
tp357
asg56
I2004
sg40
V406
p358
sbag1
(g2
g3
NtRp359
(dp360
g48
V10.1104/pp.107.111716
p361
sg44
VPLANT PHYSIOL
p362
sg46
V146
p363
sg77
(lp364
(VLEBORGNE-CASTEL
VN
tp365
asg56
I2008
sg40
VLANT
p366
sbag1
(g2
g3
NtRp367
(dp368
g48
V10.1038/ncb1401
p369
sg44
VNAT CELL BIOL
p370
sg46
V8
sg77
(lp371
(VLEE
VC S
tp372
asg56
I2006
sg40
V477
p373
sbag1
(g2
g3
NtRp374
(dp375
g48
V10.1016/S0092-8674(02)00812-7
p376
sg44
VCELL
p377
sg46
V110
p378
sg77
(lp379
(VLI
VJ
tp380
asg56
I2002
sg40
V213
p381
sbag1
(g2
g3
NtRp382
(dp383
g48
V10.1126/science.1069607
p384
sg44
VSCIENCE
p385
sg46
V296
p386
sg77
(lp387
(VMATSUBAYASHI
VY
tp388
asg56
I2002
sg40
V1470
p389
sbag1
(g2
g3
NtRp390
(dp391
g48
V10.1016/j.cellbi.2005.09.003
p392
sg44
VCELL BIOL INT
p393
sg46
V30
p394
sg77
(lp395
(VMELIKOVA
VM S
tp396
asg56
I2006
sg40
V31
p397
sbag1
(g2
g3
NtRp398
(dp399
g48
V10.1016/j.ceb.2004.06.005
p400
sg44
VCURR OPIN CELL BIOL
p401
sg46
V16
p402
sg77
(lp403
(VMIACZYNSKA
VM
tp404
asg56
I2004
sg40
V400
p405
sbag1
(g2
g3
NtRp406
(dp407
g48
V10.1073/pnas.0705147104
p408
sg44
VP NATL ACAD SCI USA
p409
sg46
V104
p410
sg77
(lp411
(VMIYA
VA
tp412
asg56
I2007
sg40
V19613
p413
sbag1
(g2
g3
NtRp414
(dp415
g48
V10.1111/j.1365-313X.2007.03384.x
p416
sg44
VPLANT J
p417
sg46
V53
p418
sg77
(lp419
(VMOLENDIJK
VA J
tp420
asg56
I2008
sg40
VLANT
p421
sbag1
(g2
g3
NtRp422
(dp423
g48
V10.1073/pnas.0705186104
p424
sg44
VP NATL ACAD SCI USA
p425
sg46
V104
p426
sg77
(lp427
(VNAITHANI
VS
tp428
asg56
I2007
sg40
V12211
p429
sbag1
(g2
g3
NtRp430
(dp431
g48
V10.1126/science.1150083
p432
sg44
VSCIENCE
p433
sg46
V319
p434
sg77
(lp435
(VOGAWA
VM
tp436
asg56
I2008
sg40
V294
p437
sbag1
(g2
g3
NtRp438
(dp439
g48
V10.1111/j.1365-313X.2006.02909.x
p440
sg44
VPLANT J
p441
sg46
V48
p442
sg77
(lp443
(VORTIZ-ZAPATER
VE
tp444
asg56
I2006
sg40
VLANT
p445
sbag1
(g2
g3
NtRp446
(dp447
g48
V10.1038/sj.emboj.7601826
p448
sg44
VEMBO J
p449
sg46
V26
p450
sg77
(lp451
(VRADUTOIU
VS
tp452
asg56
I2007
sg40
V3923
p453
sbag1
(g2
g3
NtRp454
(dp455
g48
V10.1101/gad.366506
p456
sg44
VGENE DEV
p457
sg46
V20
p458
sg77
(lp459
(VROBATZEK
VS
tp460
asg56
I2006
sg40
V537
p461
sbag1
(g2
g3
NtRp462
(dp463
g48
V10.1023/A:1020774503820
p464
sg44
VDokl Biol Sci
p465
sg46
V386
p466
sg77
(lp467
(VROMANENKO
VA S
tp468
asg56
I2002
sg40
V451
p469
sbag1
(g2
g3
NtRp470
(dp471
g48
V10.1105/tpc.022475
p472
sg44
VPLANT CELL
p473
sg46
V16
p474
sg77
(lp475
(VRON
VM
tp476
asg56
I2004
sg40
VLANT
p477
sbag1
(g2
g3
NtRp478
(dp479
g48
V10.1105/tpc.104.025387
p480
sg44
VPLANT CELL
p481
sg46
V16
p482
sg77
(lp483
(VRUSSINOVA
VE
tp484
asg56
I2004
sg40
VLANT
p485
sbag1
(g2
g3
NtRp486
(dp487
g48
V10.1074/jbc.M608792200
p488
sg44
VJ BIOL CHEM
p489
sg46
V282
p490
sg77
(lp491
(VSERRANO
VM
tp492
asg56
I2007
sg40
V6803
p493
sbag1
(g2
g3
NtRp494
(dp495
g48
V10.1101/gad.220402
p496
sg44
VGENE DEV
p497
sg46
V16
p498
sg77
(lp499
(VSHAH
VK
tp500
asg56
I2002
sg40
V1707
p501
sbag1
(g2
g3
NtRp502
(dp503
g48
V10.1073/pnas.181141598
p504
sg44
VP NATL ACAD SCI USA
p505
sg46
V98
p506
sg77
(lp507
(VSHIU
VS H
tp508
asg56
I2001
sg40
V10763
p509
sbag1
(g2
g3
NtRp510
(dp511
g48
V10.1111/j.1365-313X.2007.03314.x
p512
sg44
VPLANT J
p513
sg46
V53
p514
sg77
(lp515
(VSILADY
VR A
tp516
asg56
I2008
sg40
VLANT
p517
sbag1
(g2
g3
NtRp518
(dp519
g48
V10.1016/j.cell.2006.04.045
p520
sg44
VCELL
p521
sg46
V126
p522
sg77
(lp523
(VSLESSAREVA
VJ E
tp524
asg56
I2006
sg40
V191
p525
sbag1
(g2
g3
NtRp526
(dp527
g48
V10.1038/nature00841
p528
sg44
VNATURE
p529
sg46
V417
p530
sg77
(lp531
(VSTRACKE
VS
tp532
asg56
I2002
sg40
V959
p533
sbag1
(g2
g3
NtRp534
(dp535
g48
V10.1073/pnas.0502060102
p536
sg44
VP NATL ACAD SCI USA
p537
sg46
V102
p538
sg77
(lp539
(VTAKANO
VJ
tp540
asg56
I2005
sg40
V12276
p541
sbag1
(g2
g3
NtRp542
(dp543
g48
V10.1016/S1534-5807(02)00364-7
p544
sg44
VDEV CELL
p545
sg46
V3
sg77
(lp546
(VTEIS
VD
tp547
asg56
I2002
sg40
V803
p548
sbag1
(g2
g3
NtRp549
(dp550
g48
V10.1083/jcb.200607025
p551
sg44
VJ CELL BIOL
p552
sg46
V175
p553
sg77
(lp554
(VTEIS
VD
tp555
asg56
I2006
sg40
V861
p556
sbag1
(g2
g3
NtRp557
(dp558
g48
V10.1105/tpc.11.3.393
p559
sg44
VPLANT CELL
p560
sg46
V11
p561
sg77
(lp562
(VTROTOCHAUD
VA E
tp563
asg56
I1999
sg40
VLANT
p564
sbag1
(g2
g3
NtRp565
(dp566
g48
V10.1111/j.1365-313X.2004.02249.x
p567
sg44
VPLANT J
p568
sg46
V40
p569
sg77
(lp570
(VUEDA
VT
tp571
asg56
I2004
sg40
VLANT
p572
sbag1
(g2
g3
NtRp573
(dp574
g48
V10.1104/pp.103.023846
p575
sg44
VPLANT PHYSIOL
p576
sg46
V133
p577
sg77
(lp578
(VVANOOSTHUYSE
VV
tp579
asg56
I2003
sg40
VLANT
p580
sbag1
(g2
g3
NtRp581
(dp582
g48
V10.1146/annurev.cellbio.21.090704.151241
p583
sg44
VANNU REV CELL DEV BI
p584
sg46
V21
p585
sg77
(lp586
(VVERT
VG
tp587
asg56
I2005
sg40
V177
p588
sbag1
(g2
g3
NtRp589
(dp590
g48
V10.1016/j.ceb.2007.04.021
p591
sg44
VCURR OPIN CELL BIOL
p592
sg46
V19
p593
sg77
(lp594
(VVON
VZASTROW M
tp595
asg56
I2007
sg40
V436
p596
sbag1
(g2
g3
NtRp597
(dp598
g48
V10.1105/tpc.105.031393
p599
sg44
VPLANT CELL
p600
sg46
V17
p601
sg77
(lp602
(VWANG
VX F
tp603
asg56
I2005
sg40
VLANT
p604
sbag1
(g2
g3
NtRp605
(dp606
g48
V10.1005/tpc.106.046730
p607
sg44
VPLANT CELL
p608
sg46
V18
p609
sg77
(lp610
(VWANG
VY S
tp611
asg56
I2006
sg40
VLANT
p612
sbag1
(g2
g3
NtRp613
(dp614
g48
V10.1073/pnas.0631728100
p615
sg44
VP NATL ACAD SCI USA
p616
sg46
V100
p617
sg77
(lp618
(VWENGIER
VD
tp619
asg56
I2003
sg40
V6860
p620
sbag1
(g2
g3
NtRp621
(dp622
g48
V10.1073/pnas.0603729103
p623
sg44
VP NATL ACAD SCI USA
p624
sg46
V103
p625
sg77
(lp626
(VYAMAGUCHI
VY
tp627
asg56
I2006
sg40
V10104
p628
sbag1
(g2
g3
NtRp629
(dp630
g48
V10.1105/tpc.107.052035
p631
sg44
VPLANT CELL
p632
sg46
V19
p633
sg77
(lp634
(VYIN
VX J
tp635
asg56
I2007
sg40
VLANT
p636
sbag1
(g2
g3
NtRp637
(dp638
g48
V10.1016/j.cell.2006.03.037
p639
sg44
VCELL
p640
sg46
V125
p641
sg77
(lp642
(VZIPFEL
VC
tp643
asg56
I2006
sg40
V749
p644
sbasb.