ccopy_reg
_reconstructor
p1
(ctethne.classes.paper
Paper
p2
c__builtin__
object
p3
NtRp4
(dp5
S'publisherCity'
p6
VROCKVILLE
p7
sS'reprintAddress'
p8
VTaylor, LP (reprint author), Washington State Univ, Sch Mol Biosci, Pullman, WA 99163 USA.
p9
sS'WC'
p10
VPlant Sciences
p11
sS'GA'
p12
V325FX
p13
sS'abstract'
p14
VPetunia (Petunia hybrida) pollen requires flavonols (Fl) to germinate. Adding kaempferol to Fl-deficient pollen causes rapid and synchronous germination and tube outgrowth. We exploited this system to identify genes responsive to Fls and to examine the changes in gene expression that occur during the first 0.5 h of pollen germination. We used a subtracted library and differential screening to identify 22 petunia germinating pollen clones. All but two were expressed exclusively in pollen and half of the clones were rare or low abundance cDNAs. RNA gel-blot analysis showed that the steady-state transcript levels of all the clones were increased in response to kaempferol. The sequences showing the greatest response to kaempferol encode proteins that have regulatory or signaling functions and include S/D4, a leucine-rich repeat protein, S/D1, a LIM-domain protein, and D14, a putative Zn finger protein with a heme-binding site. Eight of the clones were novel including S/D10, a cDNA only expressed very late in pollen development and highly up-regulated during the first 0.5 h of germination. The translation product of the S/D3 cDNA shares some features with a neuropeptide that regulates guidance and growth in the tips of extending axons. This study confirmed that the bulk of pollen mRNA accumulates well before germination, but that specific sequences are transcribed during the earliest moments of Fl-induced pollen germination.
p15
sS'pageEnd'
p16
I710
sS'publisherAddress'
p17
V15501 MONONA DRIVE, ROCKVILLE, MD 20855 USA
p18
sS'documentType'
p19
VArticle
p20
sS'subject'
p21
VPlant Sciences
p22
sS'isoSource'
p23
VPlant Physiol.
p24
sS'timesCited'
p25
(lp26
I45
aVZ9 55
p27
asS'PT'
p28
VJ
sS'title'
p29
VIsolation And Characterization Of Cdnas Expressed In The Early Stages Of Flavonol-Induced Pollen Germination In Petunia
p30
sS'ISSN'
p31
(lp32
V0032-0889
p33
aVJ9 PLANT PHYSIOL
p34
asS'authors_full'
p35
(lp36
(VGUYON
VVN
tp37
a(VASTWOOD
VJD
tp38
a(VGARNER
VEC
tp39
a(VDUNKER
VAK
tp40
a(VTAYLOR
VLP
tp41
asS'PG'
p42
I12
sS'PD'
p43
VJUN
p44
sS'pageStart'
p45
I699
sS'issue'
p46
I2
sS'journal'
p47
VPLANT PHYSIOLOGY
p48
sS'volume'
p49
V123
p50
sS'doi'
p51
V10.1104/pp.123.2.699
p52
sS'authorAddress'
p53
VWashington State Univ, Sch Mol Biosci, Pullman, WA 99163 USA.
p54
sS'date'
p55
I2000
sS'ER'
p56
V
sS'publisher'
p57
VAMER SOC PLANT PHYSIOLOGISTS
p58
sS'authorKeywords'
p59
(lp60
VPROTEIN SECONDARY STRUCTURE
p61
aVLEUCINE-RICH REPEAT
p62
aVCONDITIONAL MALE-FERTILITY
p63
aVTUBE GROWTH
p64
aVCHALCONE SYNTHASE
p65
aVARABINOGALACTAN-PROTEINS
p66
aVSTRUCTURE PREDICTION
p67
aVMESSENGER-RNAS
p68
aVSEQUENCE
p69
aVGENE
p70
asS'language'
p71
VEnglish
p72
sS'wosid'
p73
VWOS:000087666500029
p74
sS'citationCount'
p75
I59
sS'authors_init'
p76
(lp77
(VGUYON
VV N
tp78
a(VASTWOOD
VJ D
tp79
a(VGARNER
VE C
tp80
a(VDUNKER
VA K
tp81
a(VTAYLOR
VL P
tp82
asS'citedReferences'
p83
(lp84
g1
(g2
g3
NtRp85
(dp86
g51
V10.1093/nar/25.1.217
p87
sg47
VNUCLEIC ACIDS RES
p88
sg49
V25
p89
sg76
(lp90
(VBAIROCH
VA
tp91
asg55
I1997
sg45
V217
p92
sbag1
(g2
g3
NtRp93
(dp94
g51
V10.1007/s004970050172
p95
sg47
VSEX PLANT REPROD
p96
sg49
V12
p97
sg76
(lp98
(VBALTZ
VR
tp99
asg55
I1999
sg45
V60
p100
sbag1
(g2
g3
NtRp101
(dp102
g51
V10.1105/tpc.4.12.1465
p103
sg47
VPLANT CELL
p104
sg49
V4
sg76
(lp105
(VBALTZ
VR
tp106
asg55
I1992
sg45
VLANT
p107
sbag1
(g2
g3
NtRp108
(dp109
g51
V10.1016/S0166-2236(98)01288-0
p110
sg47
VTRENDS NEUROSCI
p111
sg49
V22
p112
sg76
(lp113
(VCHAKRAVARTHY
VB
tp114
asg55
I1999
sg45
V12
p115
sbag1
(g2
g3
NtRp116
(dp117
g51
V10.1007/BF00484464
p118
sg47
VBIOCHEM GENET
p119
sg49
V15
p120
sg76
(lp121
(VCHEN
VS M
tp122
asg55
I1977
sg45
V333
p123
sbag1
(g2
g3
NtRp124
(dp125
g51
Nsg47
VJ BIOL CHEM
p126
sg49
V271
p127
sg76
(lp128
(VCORSI
VA K
tp129
asg55
I1996
sg45
V30299
p130
sbag1
(g2
g3
NtRp131
(dp132
g51
Nsg47
VCR ACAD SCI III
p133
sg49
V318
p134
sg76
(lp135
(VDAWID
VI B
tp136
asg55
I1995
sg45
V295
p137
sbag1
(g2
g3
NtRp138
(dp139
g51
V10.1016/S0168-9525(98)01424-3
p140
sg47
VTRENDS GENET
p141
sg49
V14
p142
sg76
(lp143
(VDAWID
VI B
tp144
asg55
I1998
sg45
V156
p145
sbag1
(g2
g3
NtRp146
(dp147
g51
V10.1093/nar/12.1Part1.387
p148
sg47
VNUCLEIC ACIDS RES
p149
sg49
V12
p150
sg76
(lp151
(VDEVEREUX
VJ
tp152
asg55
I1984
sg45
V387
p153
sbag1
(g2
g3
NtRp154
(dp155
g51
V10.1038/357655a0
p156
sg47
VNATURE
p157
sg49
V357
p158
sg76
(lp159
(VFISHER
VR F
tp160
asg55
I1992
sg45
V655
p161
sbag1
(g2
g3
NtRp162
(dp163
g51
Nsg47
VPLANT CELL
p164
sg49
V11
p165
sg76
(lp166
(VFRANKLIN-TONG
VV E
tp167
asg55
I1999
sg45
VLANT
p168
sbag1
(g2
g3
NtRp169
(dp170
g51
Nsg47
VJ BIOL CHEM
p171
sg49
V271
p172
sg76
(lp173
(VGAMBY
VC
tp174
asg55
I1996
sg45
V26698
p175
sbag1
(g2
g3
NtRp176
(dp177
g51
Nsg47
VGENOME INFORMATICS
p178
sg49
V9
sg76
(lp179
(VGARNER
VE
tp180
asg55
I1998
sg45
V210
p181
sbag1
(g2
g3
NtRp182
(dp183
g51
Nsg47
VMETHOD ENZYMOL
p184
sg49
V266
p185
sg76
(lp186
(VGARNIER
VJ
tp187
asg55
I1996
sg45
V540
p188
sbag1
(g2
g3
NtRp189
(dp190
g51
V10.1104/pp.110.4.1231
p191
sg47
VPLANT PHYSIOL
p192
sg49
V110
p193
sg76
(lp194
(VGERSTER
VJ
tp195
asg55
I1996
sg45
VLANT
p196
sbag1
(g2
g3
NtRp197
(dp198
g51
Nsg47
VFOCUS
p199
sg49
V3
sg76
(lp200
(VGRUBER
VC E
tp201
asg55
I1993
sg45
V59
p202
sbag1
(g2
g3
NtRp203
(dp204
g51
V10.1093/bioinformatics/15.5.413
p205
sg47
VBIOINFORMATICS
p206
sg49
V15
p207
sg76
(lp208
(VGUERMEUR
VY
tp209
asg55
I1999
sg45
V413
p210
sbag1
(g2
g3
NtRp211
(dp212
g51
V10.1006/geno.1994.1018
p213
sg47
VGENOMICS
p214
sg49
V19
p215
sg76
(lp216
(VHENIKOFF
VS
tp217
asg55
I1994
sg45
V97
p218
sbag1
(g2
g3
NtRp219
(dp220
g51
V10.1111/j.1365-313X.1992.00257.x
p221
sg47
VPLANT J
p222
sg49
V2
sg76
(lp223
(VHODGE
VR
tp224
asg55
I1992
sg45
VLANT
p225
sbag1
(g2
g3
NtRp226
(dp227
g51
Nsg47
VADV BOT RES
p228
sg49
V24
p229
sg76
(lp230
(VJONES
VD A
tp231
asg55
I1997
sg45
V89
p232
sbag1
(g2
g3
NtRp233
(dp234
g51
Nsg47
VPLANT CELL
p235
sg49
V8
sg76
(lp236
(VKAO
VC Y
tp237
asg55
I1996
sg45
VLANT
p238
sbag1
(g2
g3
NtRp239
(dp240
g51
V10.1016/0022-2836(90)90154-E
p241
sg47
VJ MOL BIOL
p242
sg49
V214
p243
sg76
(lp244
(VKNELLER
VD G
tp245
asg55
I1990
sg45
V171
p246
sbag1
(g2
g3
NtRp247
(dp248
g51
V10.1016/S1360-1385(99)01392-8
p249
sg47
VTRENDS PLANT SCI
p250
sg49
V4
sg76
(lp251
(VKNOX
VP
tp252
asg55
I1999
sg45
V123
p253
sbag1
(g2
g3
NtRp254
(dp255
g51
V10.1016/0968-0004(94)90090-6
p256
sg47
VTRENDS BIOCHEM SCI
p257
sg49
V19
p258
sg76
(lp259
(VKOBE
VB
tp260
asg55
I1994
sg45
V415
p261
sbag1
(g2
g3
NtRp262
(dp263
g51
V10.1016/S0092-8674(00)80357-8
p264
sg47
VCELL
p265
sg49
V90
p266
sg76
(lp267
(VLI
VJ M
tp268
asg55
I1997
sg45
V929
p269
sbag1
(g2
g3
NtRp270
(dp271
g51
V10.1016/S0968-0004(97)01168-7
p272
sg47
VTRENDS BIOCHEM SCI
p273
sg49
V23
p274
sg76
(lp275
(VMACKAY
VJ P
tp276
asg55
I1998
sg45
V1
sbag1
(g2
g3
NtRp277
(dp278
g51
Nsg47
VACTA SOC BOT POL
p279
sg49
V50
p280
sg76
(lp281
(VMASCARENHAS
VJ P
tp282
asg55
I1981
sg45
V13
p283
sbag1
(g2
g3
NtRp284
(dp285
g51
Nsg47
VANNU REV PLANT PHYS
p286
sg49
V41
p287
sg76
(lp288
(VMASCARENHAS
VJ P
tp289
asg55
I1990
sg45
V317
p290
sbag1
(g2
g3
NtRp291
(dp292
g51
Nsg47
VPLANT CELL
p293
sg49
V5
sg76
(lp294
(VMASCARENHAS
VJ P
tp295
asg55
I1993
sg45
VLANT
p296
sbag1
(g2
g3
NtRp297
(dp298
g51
Nsg47
VFLAVONOIDS ADV RES 1
p299
sg49
Nsg76
(lp300
(VMIDDLETON
VJ R E
tp301
asg55
I1993
sg45
V619
p302
sbag1
(g2
g3
NtRp303
(dp304
g51
V10.1074/jbc.274.48.34011
p305
sg47
VJ BIOL CHEM
p306
sg49
V274
p307
sg76
(lp308
(VMILLER
VK D
tp309
asg55
I1999
sg45
V34011
p310
sbag1
(g2
g3
NtRp311
(dp312
g51
V10.1073/pnas.89.15.7213
p313
sg47
VP NATL ACAD SCI USA
p314
sg49
V89
p315
sg76
(lp316
(VMO
VY Y
tp317
asg55
I1992
sg45
V7213
p318
sbag1
(g2
g3
NtRp319
(dp320
g51
Nsg47
VPLANT CELL
p321
sg49
V6
sg76
(lp322
(VMU
VJ H
tp323
asg55
I1994
sg45
VLANT
p324
sbag1
(g2
g3
NtRp325
(dp326
g51
V10.1105/tpc.10.3.319
p327
sg47
VPLANT CELL
p328
sg49
V10
p329
sg76
(lp330
(VMUSCHIETTI
VJ
tp331
asg55
I1998
sg45
VLANT
p332
sbag1
(g2
g3
NtRp333
(dp334
g51
V10.1016/0968-0004(90)90177-D
p335
sg47
VTRENDS BIOCHEM SCI
p336
sg49
V15
p337
sg76
(lp338
(VONEIL
VK T
tp339
asg55
I1990
sg45
V59
p340
sbag1
(g2
g3
NtRp341
(dp342
g51
Nsg47
VPLANT PHYSIOL
p343
sg49
V102
p344
sg76
(lp345
(VPOLLAK
VP E
tp346
asg55
I1993
sg45
VLANT
p347
sbag1
(g2
g3
NtRp348
(dp349
g51
Nsg47
VSEX PLANT REPROD
p350
sg49
V8
sg76
(lp351
(VPOLLAK
VP E
tp352
asg55
I1995
sg45
V231
p353
sbag1
(g2
g3
NtRp354
(dp355
g51
V10.1016/S0168-9452(97)04576-7
p356
sg47
VPLANT SCI
p357
sg49
V124
p358
sg76
(lp359
(VQIU
VX
tp360
asg55
I1997
sg45
VLANT
p361
sbag1
(g2
g3
NtRp362
(dp363
g51
Nsg47
VFASEB J
p364
sg49
V11
p365
sg76
(lp366
(VRHOADS
VA R
tp367
asg55
I1997
sg45
V331
p368
sbag1
(g2
g3
NtRp369
(dp370
g51
V10.1109/ICNN.1997.611643
p371
sg47
VP IEEE INT C NEUR NE
p372
sg49
V1
sg76
(lp373
(VROMERO
VP
tp374
asg55
I1997
sg45
V90
p375
sbag1
(g2
g3
NtRp376
(dp377
g51
V10.1073/pnas.92.8.3086
p378
sg47
VP NATL ACAD SCI USA
p379
sg49
V92
p380
sg76
(lp381
(VRUBINSTEIN
VA L
tp382
asg55
I1995
sg45
V3086
p383
sbag1
(g2
g3
NtRp384
(dp385
g51
Nsg47
VEUR J CELL BIOL
p386
sg49
V61
p387
sg76
(lp388
(VRUTTEN
VT L M
tp389
asg55
I1993
sg45
V247
p390
sbag1
(g2
g3
NtRp391
(dp392
g51
Nsg47
VPOLLEN BIOL BIOCH MA
p393
sg49
Nsg76
(lp394
(VSTANLEY
VR G
tp395
asg55
I1974
sg45
VOLLEN
p396
sbag1
(g2
g3
NtRp397
(dp398
g51
Nsg47
VPLANT J
p399
sg49
V5
sg76
(lp400
(VSTEINMAYR
VM
tp401
asg55
I1994
sg45
VLANT
p402
sbag1
(g2
g3
NtRp403
(dp404
g51
Nsg47
VJ HERED
p405
sg49
V83
p406
sg76
(lp407
(VTAYLOR
VL P
tp408
asg55
I1992
sg45
V11
p409
sbag1
(g2
g3
NtRp410
(dp411
g51
V10.1146/annurev.arplant.48.1.461
p412
sg47
VANNU REV PLANT PHYS
p413
sg49
V48
p414
sg76
(lp415
(VTAYLOR
VL P
tp416
asg55
I1997
sg45
V461
p417
sbag1
(g2
g3
NtRp418
(dp419
g51
Nsg47
VANN BOT
p420
sg49
V54
p421
sg76
(lp422
(VTHURLING
VN
tp423
asg55
I1984
sg45
V681
p424
sbag1
(g2
g3
NtRp425
(dp426
g51
V10.1104/pp.108.3.903
p427
sg47
VPLANT PHYSIOL
p428
sg49
V108
p429
sg76
(lp430
(VVOGT
VT
tp431
asg55
I1995
sg45
VLANT
p432
sbag1
(g2
g3
NtRp433
(dp434
g51
V10.1016/0031-9422(94)00703-V
p435
sg47
VPHYTOCHEMISTRY
p436
sg49
V38
p437
sg76
(lp438
(VVOGT
VT
tp439
asg55
I1995
sg45
VHYTOCHEMISTRY
p440
sbag1
(g2
g3
NtRp441
(dp442
g51
Nsg47
VPLANT CELL
p443
sg49
V6
sg76
(lp444
(VVOGT
VT
tp445
asg55
I1994
sg45
VLANT
p446
sbag1
(g2
g3
NtRp447
(dp448
g51
Nsg47
VTHEOR APPL GENET
p449
sg49
V75
p450
sg76
(lp451
(VWILLING
VR P
tp452
asg55
I1988
sg45
V751
p453
sbag1
(g2
g3
NtRp454
(dp455
g51
V10.1104/pp.75.3.865
p456
sg47
VPLANT PHYSIOL
p457
sg49
V75
p458
sg76
(lp459
(VWILLING
VR P
tp460
asg55
I1984
sg45
VLANT
p461
sbag1
(g2
g3
NtRp462
(dp463
g51
Nsg47
VMETHOD ENZYMOL
p464
sg49
V266
p465
sg76
(lp466
(VWOOTTON
VJ C
tp467
asg55
I1996
sg45
V554
p468
sbag1
(g2
g3
NtRp469
(dp470
g51
V10.1006/jmbi.1999.3110
p471
sg47
VJ MOL BIOL
p472
sg49
V293
p473
sg76
(lp474
(VWRIGHT
VP E
tp475
asg55
I1999
sg45
V321
p476
sbag1
(g2
g3
NtRp477
(dp478
g51
Nsg47
VGENOME INFORMATICS
p479
sg49
V9
sg76
(lp480
(VXIE
VQ
tp481
asg55
I1998
sg45
V193
p482
sbag1
(g2
g3
NtRp483
(dp484
g51
V10.1007/s004250050127
p485
sg47
VPLANTA
p486
sg49
V202
p487
sg76
(lp488
(VXU
VP
tp489
asg55
I1997
sg45
VLANTA
p490
sbag1
(g2
g3
NtRp491
(dp492
g51
V10.1046/j.1365-313X.1994.6020201.x
p493
sg47
VPLANT J
p494
sg49
V6
sg76
(lp495
(VYLSTRA
VB
tp496
asg55
I1994
sg45
VLANT
p497
sbag1
(g2
g3
NtRp498
(dp499
g51
Nsg47
VBIOCHEM CELL BIOL
p500
sg49
V72
p501
sg76
(lp502
(VZHANG
VM J
tp503
asg55
I1994
sg45
V109
p504
sbag1
(g2
g3
NtRp505
(dp506
g51
V10.1038/341345a0
p507
sg47
VNATURE
p508
sg49
V341
p509
sg76
(lp510
(VZUBER
VM X
tp511
asg55
I1989
sg45
V345
p512
sbasb.