ccopy_reg
_reconstructor
p1
(ctethne.classes.paper
Paper
p2
c__builtin__
object
p3
NtRp4
(dp5
S'publisherCity'
p6
VROCKVILLE
p7
sS'reprintAddress'
p8
VMeinke, D (reprint author), Oklahoma State Univ, Dept Bot, Stillwater, OK 74078 USA.
p9
sS'WC'
p10
VPlant Sciences
p11
sS'GA'
p12
V247PZ
p13
sS'abstract'
p14
VWe identify here the Arabidopsis (Arabidopsis thaliana) gene encoding the third enzyme in the biotin biosynthetic pathway, dethiobiotin synthetase (BIO3; At5g57600). This gene is positioned immediately upstream of BIO1, which is known to be associated with the second reaction in the pathway. Reverse genetic analysis demonstrates that bio3 insertion mutants have a similar phenotype to the bio1 and bio2 auxotrophs identified using forward genetic screens for arrested embryos rescued on enriched nutrient medium. Unexpectedly, bio3 and bio1 mutants define a single genetic complementation group. Reverse transcription-polymerase chain reaction analysis demonstrates that separate BIO3 and BIO1 transcripts and two different types of chimeric BIO3-BIO1 transcripts are produced. Consistent with genetic data, one of the fused transcripts is monocistronic and encodes a bifunctional fusion protein. A splice variant is bicistronic, with distinct but overlapping reading frames. The dual functionality of the monocistronic transcript was confirmed by complementing the orthologous auxotrophs of Escherichia coli (bioD and bioA). BIO3-BIO1 transcripts from other plants provide further evidence for differential splicing, existence of a fusion protein, and localization of both enzymatic reactions to mitochondria. In contrast to most biosynthetic enzymes in eukaryotes, which are encoded by genes dispersed throughout the genome, biotin biosynthesis in Arabidopsis provides an intriguing example of a bifunctional locus that catalyzes two sequential reactions in the same metabolic pathway. This complex locus exhibits several unusual features that distinguish it from biotin operons in bacteria and from other genes known to encode bifunctional enzymes in plants.
p15
sS'pageEnd'
p16
I73
sS'publisherAddress'
p17
V15501 MONONA DRIVE, ROCKVILLE, MD 20855 USA
p18
sS'documentType'
p19
VArticle
p20
sS'subject'
p21
VPlant Sciences
p22
sS'isoSource'
p23
VPlant Physiol.
p24
sS'timesCited'
p25
(lp26
I20
aVZ9 20
p27
asS'PT'
p28
VJ
sS'title'
p29
VA Bifunctional Locus (Bio3-Bio1) Required For Biotin Biosynthesis In Arabidopsis
p30
sS'ISSN'
p31
(lp32
V0032-0889
p33
aVJ9 PLANT PHYSIOL
p34
asS'authors_full'
p35
(lp36
(VMURALLA
VROSANNA
tp37
a(VCHEN
VELVE
tp38
a(VSWEENEY
VCOLLEEN
tp39
a(VGRAY
VJENNIFER A
tp40
a(VDICKERMAN
VALLAN
tp41
a(VNIKOLAU
VBASIL J
tp42
a(VMEINKE
VDAVID
tp43
asS'PG'
p44
I14
sS'PD'
p45
VJAN
p46
sS'pageStart'
p47
I60
sS'issue'
p48
I1
sS'journal'
p49
VPLANT PHYSIOLOGY
p50
sS'volume'
p51
V146
p52
sS'doi'
p53
V10.1104/pp.107.107409
p54
sS'emailAddress'
p55
Vmeinke@okstate.edu
p56
sS'authorAddress'
p57
(lp58
V[Muralla, Rosanna; Sweeney, Colleen; Meinke, David] Oklahoma State Univ, Dept Bot, Stillwater, OK 74078 USA.
p59
aV[Chen, Elve; Gray, Jennifer A.; Nikolau, Basil J.] Iowa State Univ, Dept Biochem Biophys & Mol Biol, Ames, IA 50011 USA.
p60
aV[Dickerman, Allan] Virginia Polytech Inst & State Univ, Virginia Bioinformat Inst, Blacksburg, VA 24061 USA.
p61
asS'date'
p62
I2008
sS'ER'
p63
V
sS'publisher'
p64
VAMER SOC PLANT BIOLOGISTS
p65
sS'authorKeywords'
p66
(lp67
VESCHERICHIA-COLI
p68
aVEMBRYO DEVELOPMENT
p69
aVINSERTIONAL MUTAGENESIS
p70
aVGENOME SEQUENCE
p71
aVTHALIANA
p72
aVGENE
p73
aVPROTEIN
p74
aVCDNA
p75
aVAUXOTROPH
p76
aVSYNTHASE
p77
asS'language'
p78
VEnglish
p79
sS'wosid'
p80
VWOS:000252093100006
p81
sS'citationCount'
p82
I49
sS'authors_init'
p83
(lp84
(VMURALLA
VR
tp85
a(VCHEN
VE
tp86
a(VSWEENEY
VC
tp87
a(VGRAY
VJ A
tp88
a(VDICKERMAN
VA
tp89
a(VNIKOLAU
VB J
tp90
a(VMEINKE
VD
tp91
asS'citedReferences'
p92
(lp93
g1
(g2
g3
NtRp94
(dp95
g53
V10.1126/science.1086391
p96
sg49
VSCIENCE
p97
sg51
V301
p98
sg83
(lp99
(VALONSO
VJ M
tp100
asg62
I2003
sg47
V653
p101
sbag1
(g2
g3
NtRp102
(dp103
g53
V10.1093/nar/25.17.3389
p104
sg49
VNUCLEIC ACIDS RES
p105
sg51
V25
p106
sg83
(lp107
(VALTSCHUL
VS F
tp108
asg62
I1997
sg47
V3389
p109
sbag1
(g2
g3
NtRp110
(dp111
g53
V10.1007/s11103-006-9034-x
p112
sg49
VPLANT MOL BIOL
p113
sg51
V62
p114
sg83
(lp115
(VARNAL
VN
tp116
asg62
I2006
sg47
VLANT
p117
sbag1
(g2
g3
NtRp118
(dp119
g53
V10.1002/ps.1427
p120
sg49
VPEST MANAG SCI
p121
sg51
V63
p122
sg83
(lp123
(VASHKENAZI
VT
tp124
asg62
I2007
sg47
VEST
p125
sbag1
(g2
g3
NtRp126
(dp127
g53
V10.1038/msb4100050
p128
sg49
VMOL SYST BIOL
p129
sg51
V2
sg83
(lp130
(VBABA
VT
tp131
asg62
I2006
sg47
Nsbag1
(g2
g3
NtRp132
(dp133
g53
V10.1016/S0014-5793(97)01458-0
p134
sg49
VFEBS LETT
p135
sg51
V419
p136
sg83
(lp137
(VBALDET
VP
tp138
asg62
I1997
sg47
V206
p139
sbag1
(g2
g3
NtRp140
(dp141
g53
V10.1111/j.1365-313X.2005.02580.x
p142
sg49
VPLANT J
p143
sg51
V44
p144
sg83
(lp145
(VBERG
VM
tp146
asg62
I2005
sg47
VLANT
p147
sbag1
(g2
g3
NtRp148
(dp149
g53
V10.1093/bfgp/3.3.199
p150
sg49
VBriefings in Functional Genomics 
p151
sg51
V3
sg83
(lp152
(VBLUMENTHAL
VTHOMAS
tp153
asg62
I2004
sg47
V199
p154
sbag1
(g2
g3
NtRp155
(dp156
g53
V10.1101/gr.1515604
p157
sg49
VGENOME RES
p158
sg51
V14
p159
sg83
(lp160
(VCASTELLI
VV
tp161
asg62
I2004
sg47
V406
p162
sbag1
(g2
g3
NtRp163
(dp164
g53
V10.1093/nar/16.22.10881
p165
sg49
VNUCLEIC ACIDS RES
p166
sg51
V16
p167
sg83
(lp168
(VCORPET
VF
tp169
asg62
I1988
sg47
V10881
p170
sbag1
(g2
g3
NtRp171
(dp172
g53
Nsg49
VESCHERICHIA COLI SAL
p173
sg51
Nsg83
(lp174
(VDEMOLL
VE
tp175
asg62
I1996
sg47
V704
p176
sbag1
(g2
g3
NtRp177
(dp178
g53
V10.1073/pnas.0604795103
p179
sg49
VP NATL ACAD SCI USA
p180
sg51
V103
p181
sg83
(lp182
(VDERELLE
VE
tp183
asg62
I2006
sg47
V11647
p184
sbag1
(g2
g3
NtRp185
(dp186
g53
Nsg49
VBIOCHEM J
p187
sg51
V234
p188
sg83
(lp189
(VDUNCAN
VK
tp190
asg62
I1986
sg47
V49
p191
sbag1
(g2
g3
NtRp192
(dp193
g53
V10.1038/nprot.2007.131
p194
sg49
VNAT PROTOC
p195
sg51
V2
sg83
(lp196
(VEMANUELSSON
VO
tp197
asg62
I2007
sg47
V953
p198
sbag1
(g2
g3
NtRp199
(dp200
g53
V10.1534/genetics.107.074963
p201
sg49
VGENETICS
p202
sg51
V177
p203
sg83
(lp204
(VHALL
VC
tp205
asg62
I2007
sg47
V2293
p206
sbag1
(g2
g3
NtRp207
(dp208
g53
Nsg49
VNUCLEIC ACIDS RES
p209
sg51
V33
p210
sg83
(lp211
(VHEAZLEWOOD
VJ L
tp212
asg62
I2005
sg47
VD605
p213
sbag1
(g2
g3
NtRp214
(dp215
g53
V10.1104/pp.104.041061
p216
sg49
VPLANT PHYSIOL
p217
sg51
V135
p218
sg83
(lp219
(VHENIKOFF
VS
tp220
asg62
I2004
sg47
VLANT
p221
sbag1
(g2
g3
NtRp222
(dp223
g53
V10.1105/tpc.6.2.265
p224
sg49
VPLANT CELL
p225
sg51
V6
sg83
(lp226
(VILAG
VL L
tp227
asg62
I1994
sg47
VLANT
p228
sbag1
(g2
g3
NtRp229
(dp230
g53
V10.1104/pp.123.3.795
p231
sg49
VPLANT PHYSIOL
p232
sg51
V123
p233
sg83
(lp234
(VLUKOWITZ
VW
tp235
asg62
I2000
sg47
VLANT
p236
sbag1
(g2
g3
NtRp237
(dp238
g53
Nsg49
VGENE
p239
sg51
V138
p240
sg83
(lp241
(VMARUYAMA
VK
tp242
asg62
I1994
sg47
V171
p243
sbag1
(g2
g3
NtRp244
(dp245
g53
V10.1038/nature02398
p246
sg49
VNATURE
p247
sg51
V428
p248
sg83
(lp249
(VMATSUZAKI
VM
tp250
asg62
I2004
sg47
V653
p251
sbag1
(g2
g3
NtRp252
(dp253
g53
Nsg49
VGENETICS
p254
sg51
V159
p255
sg83
(lp256
(VMCELVER
VJ
tp257
asg62
I2001
sg47
V1751
p258
sbag1
(g2
g3
NtRp259
(dp260
g53
V10.1006/jmbi.1996.0399
p261
sg49
VJ MOL BIOL
p262
sg51
V260
p263
sg83
(lp264
(VMIROUX
VB
tp265
asg62
I1996
sg47
V289
p266
sbag1
(g2
g3
NtRp267
(dp268
g53
V10.1104/pp.104.053991
p269
sg49
VPLANT PHYSIOL
p270
sg51
V137
p271
sg83
(lp272
(VMISUMI
VO
tp273
asg62
I2005
sg47
VLANT
p274
sbag1
(g2
g3
NtRp275
(dp276
g53
V10.1016/j.tplants.2004.03.005
p277
sg49
VTRENDS PLANT SCI
p278
sg51
V9
sg83
(lp279
(VMOORE
VB D
tp280
asg62
I2004
sg47
V221
p281
sbag1
(g2
g3
NtRp282
(dp283
g53
V10.1104/pp.107.096511
p284
sg49
VPLANT PHYSIOL
p285
sg51
V144
p286
sg83
(lp287
(VMURALLA
VR
tp288
asg62
I2007
sg47
VLANT
p289
sbag1
(g2
g3
NtRp290
(dp291
g53
V10.1016/S0003-9861(03)00156-5
p292
sg49
VARCH BIOCHEM BIOPHYS
p293
sg51
V414
p294
sg83
(lp295
(VNIKOLAU
VB J
tp296
asg62
I2003
sg47
V211
p297
sbag1
(g2
g3
NtRp298
(dp299
g53
V10.1093/nar/27.1.29
p300
sg49
VNUCLEIC ACIDS RES
p301
sg51
V27
p302
sg83
(lp303
(VOGATA
VH
tp304
asg62
I1999
sg47
V29
p305
sbag1
(g2
g3
NtRp306
(dp307
g53
V10.1007/BF00273921
p308
sg49
VMOL GEN GENET
p309
sg51
V227
p310
sg83
(lp311
(VPATTON
VD A
tp312
asg62
I1991
sg47
V337
p313
sbag1
(g2
g3
NtRp314
(dp315
g53
V10.1104/pp.116.3.935
p316
sg49
VPLANT PHYSIOL
p317
sg51
V116
p318
sg83
(lp319
(VPATTON
VD A
tp320
asg62
I1998
sg47
VLANT
p321
sbag1
(g2
g3
NtRp322
(dp323
g53
V10.1007/BF02172516
p324
sg49
VMOL GEN GENET
p325
sg51
V251
p326
sg83
(lp327
(VPATTON
VD A
tp328
asg62
I1996
sg47
V261
p329
sbag1
(g2
g3
NtRp330
(dp331
g53
V10.1074/jbc.M302154200
p332
sg49
VJ BIOL CHEM
p333
sg51
V278
p334
sg83
(lp335
(VPICCIOCCHI
VA
tp336
asg62
I2003
sg47
V24966
p337
sbag1
(g2
g3
NtRp338
(dp339
g53
V10.1104/pp.105.070144
p340
sg49
VPLANT PHYSIOL
p341
sg51
V139
p342
sg83
(lp343
(VPINON
VV
tp344
asg62
I2005
sg47
VLANT
p345
sbag1
(g2
g3
NtRp346
(dp347
g53
V10.1007/s11120-007-9167-z
p348
sg49
VPHOTOSYNTH RES
p349
sg51
V92
p350
sg83
(lp351
(VREBEILLE
VF
tp352
asg62
I2007
sg47
VHOTOSYNTH
p353
sbag1
(g2
g3
NtRp354
(dp355
g53
V10.1101/gr.314502
p356
sg49
VGENOME RES
p357
sg51
V12
p358
sg83
(lp359
(VRODIONOV
VD A
tp360
asg62
I2002
sg47
V1507
p361
sbag1
(g2
g3
NtRp362
(dp363
g53
V10.1104/pp.117.1.263
p364
sg49
VPLANT PHYSIOL
p365
sg51
V117
p366
sg83
(lp367
(VROOSENS
VNHCJ
tp368
asg62
I1998
sg47
VLANT
p369
sbag1
(g2
g3
NtRp370
(dp371
g53
V10.1016/S0012-1606(89)80047-8
p372
sg49
VDEV BIOL
p373
sg51
V131
p374
sg83
(lp375
(VSCHNEIDER
VT
tp376
asg62
I1989
sg47
V161
p377
sbag1
(g2
g3
NtRp378
(dp379
g53
V10.1105/tpc.13.6.1427
p380
sg49
VPLANT CELL
p381
sg51
V13
p382
sg83
(lp383
(VSCHOMBURG
VF M
tp384
asg62
I2001
sg47
VLANT
p385
sbag1
(g2
g3
NtRp386
(dp387
g53
V10.1126/science.1071006
p388
sg49
VSCIENCE
p389
sg51
V296
p390
sg83
(lp391
(VSEKI
VM
tp392
asg62
I2002
sg47
V141
p393
sbag1
(g2
g3
NtRp394
(dp395
g53
V10.1105/tpc.004630
p396
sg49
VPLANT CELL
p397
sg51
V14
p398
sg83
(lp399
(VSESSIONS
VA
tp400
asg62
I2002
sg47
VLANT
p401
sbag1
(g2
g3
NtRp402
(dp403
g53
Nsg49
VTHESIS OKLAHOMA STAT
p404
sg51
Nsg83
(lp405
(VSHELLHAMMER
VA J
tp406
asg62
I1991
sg47
Nsbag1
(g2
g3
NtRp407
(dp408
g53
V10.1104/pp.93.3.1162
p409
sg49
VPLANT PHYSIOL
p410
sg51
V93
p411
sg83
(lp412
(VSHELLHAMMER
VJ
tp413
asg62
I1990
sg47
VLANT
p414
sbag1
(g2
g3
NtRp415
(dp416
g53
V10.1007/s00253-002-1186-2
p417
sg49
VAPPL MICROBIOL BIOT
p418
sg51
V61
p419
sg83
(lp420
(VSTREIT
VW R
tp421
asg62
I2003
sg47
V21
p422
sbag1
(g2
g3
NtRp423
(dp424
g53
V10.1093/nar/gkh053
p425
sg49
VNUCLEIC ACIDS RES
p426
sg51
V32
p427
sg83
(lp428
(VSUHRE
VK
tp429
asg62
I2004
sg47
VD273
p430
sbag1
(g2
g3
NtRp431
(dp432
g53
V10.1104/pp.005660
p433
sg49
VPLANT PHYSIOL
p434
sg51
V130
p435
sg83
(lp436
(VTANG
VG L
tp437
asg62
I2002
sg47
VLANT
p438
sbag1
(g2
g3
NtRp439
(dp440
g53
V10.1261/rna.7114505
p441
sg49
VRNA
p442
sg51
V11
p443
sg83
(lp444
(VTHIMMAPURAM
VJ
tp445
asg62
I2005
sg47
V128
p446
sbag1
(g2
g3
NtRp447
(dp448
g53
V10.1104/pp.104.045179
p449
sg49
VPLANT PHYSIOL
p450
sg51
V135
p451
sg83
(lp452
(VTZAFRIR
VI
tp453
asg62
I2004
sg47
VLANT
p454
sbag1
(g2
g3
NtRp455
(dp456
g53
V10.1104/pp.110.3.1021
p457
sg49
VPLANT PHYSIOL
p458
sg51
V110
p459
sg83
(lp460
(VWEAVER
VL M
tp461
asg62
I1996
sg47
VLANT
p462
sbag1
(g2
g3
NtRp463
(dp464
g53
V10.1104/pp.105.060376
p465
sg49
VPLANT PHYSIOL
p466
sg51
V138
p467
sg83
(lp468
(VZHANG
VP F
tp469
asg62
I2005
sg47
VLANT
p470
sbasb.