ccopy_reg
_reconstructor
p1
(ctethne.classes.paper
Paper
p2
c__builtin__
object
p3
NtRp4
(dp5
S'publisherCity'
p6
VROCKVILLE
p7
sS'reprintAddress'
p8
VSumner, LW (reprint author), Samuel Roberts Noble Fdn Inc, Div Plant Biol, Ardmore, OK 73401 USA.
p9
sS'WC'
p10
VPlant Sciences
p11
sS'GA'
p12
V514XQ
p13
sS'FX'
p14
(lp15
VThis work was supported by the National Science Foundation Plant Genome
p16
aVResearch Program (grant no. DBI-0109732).
p17
asS'abstract'
p18
VMetabolic profiling of elicited barrel medic (Medicago truncatula) cell cultures using high-performance liquid chromatography coupled to photodiode and mass spectrometry detection revealed the accumulation of the aurone hispidol (6-hydroxy-2-[(4-hydroxyphenyl)methylidene]-1-benzofuran-3-one) as a major response to yeast elicitor. Parallel, large-scale transcriptome profiling indicated that three peroxidases, MtPRX1, MtPRX2, and MtPRX3, were coordinately induced with the accumulation of hispidol. MtPRX1 and MtPRX2 exhibited aurone synthase activity based upon in vitro substrate specificity and product profiles of recombinant proteins expressed in Escherichia coli. Hispidol possessed significant antifungal activity relative to other M. truncatula phenylpropanoids tested but has not been reported in this species before and was not found in differentiated roots in which high levels of the peroxidase transcripts accumulated. We propose that hispidol is formed in cell cultures by metabolic spillover when the pool of its precursor, isoliquiritigenin, builds up as a result of an imbalance between the upstream and downstream segments of the phenylpropanoid pathway, reflecting the plasticity of plant secondary metabolism. The results illustrate that integration of metabolomics and transcriptomics in genetically reprogrammed plant cell cultures is a powerful approach for the discovery of novel bioactive secondary metabolites and the mechanisms underlying their generation.
p19
sS'pageEnd'
p20
I1113
sS'date'
p21
I2009
sS'documentType'
p22
VArticle
p23
sS'subject'
p24
VPlant Sciences
p25
sS'isoSource'
p26
VPlant Physiol.
p27
sS'timesCited'
p28
(lp29
I13
aVZ9 13
p30
asS'funding'
p31
(lp32
(VNational Science Foundation
VDBI-0109732
tp33
asS'PT'
p34
VJ
sS'title'
p35
VIntegrated Metabolite And Transcript Profiling Identify A Biosynthetic Mechanism For Hispidol In Medicago Truncatula Cell Cultures
p36
sS'ISSN'
p37
(lp38
V0032-0889
p39
aVJ9 PLANT PHYSIOL
p40
asS'authors_full'
p41
(lp42
(VFARAG
VMOHAMED A
tp43
a(VDEAVOURS
VBETTINA E
tp44
a(VDE FATIMA
VANGELO
tp45
a(VNAOUMKINA
VMARINA
tp46
a(VDIXON
VRICHARD A
tp47
a(VSUMNER
VLLOYD W
tp48
asS'PG'
p49
I18
sS'PD'
p50
VNOV
p51
sS'pageStart'
p52
I1096
sS'issue'
p53
I3
sS'RI'
p54
VDE FATIMA, ANGELO/I-2565-2012; Sumner, Lloyd/A-3270-2013
p55
sS'journal'
p56
VPLANT PHYSIOLOGY
p57
sS'volume'
p58
V151
p59
sS'doi'
p60
V10.1104/pp.109.141481
p61
sS'emailAddress'
p62
Vlwsumner@noble.org
p63
sS'authorAddress'
p64
(lp65
V[Farag, Mohamed A.; Deavours, Bettina E.; Naoumkina, Marina; Dixon, Richard A.; Sumner, Lloyd W.] Samuel Roberts Noble Fdn Inc, Div Plant Biol, Ardmore, OK 73401 USA.
p66
aV[Farag, Mohamed A.] Cairo Univ, Fac Pharm, Dept Pharmacognosy, Cairo 11562, Egypt.
p67
aV[Deavours, Bettina E.] Colorado State Univ, Dept Biol, Ft Collins, CO 80523 USA.
p68
aV[de Fatima, Angelo] Univ Fed Minas Gerais, Inst Ciencias Exatas, Dept Quim, BR-31270901 Belo Horizonte, MG, Brazil.
p69
asS'publisherAddress'
p70
V15501 MONONA DRIVE, ROCKVILLE, MD 20855 USA
p71
sS'ER'
p72
V
sS'publisher'
p73
VAMER SOC PLANT BIOLOGISTS
p74
sS'authorKeywords'
p75
(lp76
VMINIMUM REPORTING STANDARDS
p77
aVMELILOTI NODULATION GENES
p78
aVPOLYPHENOL OXIDASE
p79
aVFUNCTIONAL GENOMICS
p80
aVARABIDOPSIS-THALIANA
p81
aVSYSTEMATIC IDENTIFICATION
p82
aVISOFLAVONOID BIOSYNTHESIS
p83
aVAUREUSIDIN SYNTHASE
p84
aVSUSPENSION CULTURES
p85
aVANIONIC PEROXIDASE
p86
asS'language'
p87
VEnglish
p88
sS'wosid'
p89
VWOS:000271430500016
p90
sS'citationCount'
p91
I69
sS'authors_init'
p92
(lp93
(VFARAG
VM A
tp94
a(VDEAVOURS
VB E
tp95
a(VDE FATIMA
VA
tp96
a(VNAOUMKINA
VM
tp97
a(VDIXON
VR A
tp98
a(VSUMNER
VL W
tp99
asS'citedReferences'
p100
(lp101
g1
(g2
g3
NtRp102
(dp103
g60
V10.1071/FP02096
p104
sg56
VFUNCT PLANT BIOL
p105
sg58
V30
p106
sg92
(lp107
(VBARCELO
VA R
tp108
asg21
I2003
sg52
V577
p109
sbag1
(g2
g3
NtRp110
(dp111
g60
Nsg56
VSECONDARY PRODUCTS P
p112
sg58
Nsg92
(lp113
(VBARZ
VW
tp114
asg21
I1990
sg52
V79
p115
sbag1
(g2
g3
NtRp116
(dp117
g60
V10.1111/j.1365-313X.2008.03519.x
p118
sg56
VPLANT J
p119
sg58
V55
p120
sg92
(lp121
(VBENEDITO
VV A
tp122
asg21
I2008
sg52
VLANT
p123
sbag1
(g2
g3
NtRp124
(dp125
g60
V10.1016/j.tplants.2004.07.004
p126
sg56
VTRENDS PLANT SCI
p127
sg58
V9
sg92
(lp128
(VBINO
VR J
tp129
asg21
I2004
sg52
V418
p130
sbag1
(g2
g3
NtRp131
(dp132
g60
V10.1016/0885-5765(92)90020-V
p133
sg56
VPHYSIOL MOL PLANT P
p134
sg58
V41
p135
sg92
(lp136
(VBLOUNT
VJ W
tp137
asg21
I1992
sg52
VHYSIOL
p138
sbag1
(g2
g3
NtRp139
(dp140
g60
V10.1111/j.1432-1033.1975.tb09814.x
p141
sg56
VEUR J BIOCHEM
p142
sg58
V50
p143
sg92
(lp144
(VBOLAND
VM J
tp145
asg21
I1975
sg52
V383
p146
sbag1
(g2
g3
NtRp147
(dp148
g60
V10.2174/0929867033456468
p149
sg56
VCURR MED CHEM
p150
sg58
V10
p151
sg92
(lp152
(VBOUMENDJEL
VA
tp153
asg21
I2003
sg52
V2621
p154
sbag1
(g2
g3
NtRp155
(dp156
g60
Nsg56
VANAL BIOCHEM
p157
sg58
V72
p158
sg92
(lp159
(VBRADFORD
VM M
tp160
asg21
I1976
sg52
V254
p161
sbag1
(g2
g3
NtRp162
(dp163
g60
V10.1093/jxb/eri058
p164
sg56
VJ EXP BOT
p165
sg58
V56
p166
sg92
(lp167
(VBROECKLING
VC D
tp168
asg21
I2005
sg52
V323
p169
sbag1
(g2
g3
NtRp170
(dp171
g60
V10.1021/ac0521596
p172
sg56
VANAL CHEM
p173
sg58
V78
p174
sg92
(lp175
(VBROECKLING
VC D
tp176
asg21
I2006
sg52
V4334
p177
sbag1
(g2
g3
NtRp178
(dp179
g60
V10.1105/tpc.104.027078
p180
sg56
VPLANT CELL
p181
sg58
V16
p182
sg92
(lp183
(VCARTER
VC
tp184
asg21
I2004
sg52
VLANT
p185
sbag1
(g2
g3
NtRp186
(dp187
g60
V10.1094/MPMI.1997.10.7.861
p188
sg56
VMOL PLANT MICROBE IN
p189
sg58
V10
p190
sg92
(lp191
(VCHITTOOR
VJ M
tp192
asg21
I1997
sg52
V861
p193
sbag1
(g2
g3
NtRp194
(dp195
g60
V10.1016/S1369-5266(99)80053-3
p196
sg56
VCURR OPIN PLANT BIOL
p197
sg58
V2
sg92
(lp198
(VCOOK
VD R
tp199
asg21
I1999
sg52
V301
p200
sbag1
(g2
g3
NtRp201
(dp202
g60
V10.1104/pp.105.063743
p203
sg56
VPLANT PHYSIOL
p204
sg58
V139
p205
sg92
(lp206
(VCZECHOWSKI
VT
tp207
asg21
I2005
sg52
VLANT
p208
sbag1
(g2
g3
NtRp209
(dp210
g60
V10.1104/pp.102.017319
p211
sg56
VPLANT PHYSIOL
p212
sg58
V131
p213
sg92
(lp214
(VDIXON
VR A
tp215
asg21
I2003
sg52
VLANT
p216
sbag1
(g2
g3
NtRp217
(dp218
g60
V10.1104/pp.107.108431
p219
sg56
VPLANT PHYSIOL
p220
sg58
V146
p221
sg92
(lp222
(VFARAG
VM A
tp223
asg21
I2008
sg52
VLANT
p224
sbag1
(g2
g3
NtRp225
(dp226
g60
V10.1016/j.phytochem.2006.10.023
p227
sg56
VPHYTOCHEMISTRY
p228
sg58
V68
p229
sg92
(lp230
(VFARAG
VM A
tp231
asg21
I2007
sg52
VHYTOCHEMISTRY
p232
sbag1
(g2
g3
NtRp233
(dp234
g60
V10.1007/s11306-007-0070-6
p235
sg56
VMETABOLOMICS
p236
sg58
V3
sg92
(lp237
(VFIEHN
VO
tp238
asg21
I2007
sg52
V175
p239
sbag1
(g2
g3
NtRp240
(dp241
g60
V10.1007/s11306-007-0068-0
p242
sg56
VMETABOLOMICS
p243
sg58
V3
sg92
(lp244
(VFIEHN
VO
tp245
asg21
I2007
sg52
V195
p246
sbag1
(g2
g3
NtRp247
(dp248
g60
V10.1016/j.pbi.2005.03.004
p249
sg56
VCURR OPIN PLANT BIOL
p250
sg58
V8
sg92
(lp251
(VFRIDMAN
VE
tp252
asg21
I2005
sg52
V242
p253
sbag1
(g2
g3
NtRp254
(dp255
g60
V10.1093/aob/mch107
p256
sg56
VANN BOT
p257
sg58
V94
p258
sg92
(lp259
(VGOMEZ-VASQUEZ
VR
tp260
asg21
I2004
sg52
V87
p261
sbag1
(g2
g3
NtRp262
(dp263
g60
V10.1073/pnas.1032967100
p264
sg56
VP NATL ACAD SCI USA
p265
sg58
V100
p266
sg92
(lp267
(VGOOSSENS
VA
tp268
asg21
I2003
sg52
V8595
p269
sbag1
(g2
g3
NtRp270
(dp271
g60
V10.1104/pp.107.096958
p272
sg56
VPLANT PHYSIOL
p273
sg58
V144
p274
sg92
(lp275
(VHERNANDEZ
VG
tp276
asg21
I2007
sg52
VLANT
p277
sbag1
(g2
g3
NtRp278
(dp279
g60
V10.1074/jbc.M502332200
p280
sg56
VJ BIOL CHEM
p281
sg58
V280
p282
sg92
(lp283
(VHIRAI
VM Y
tp284
asg21
I2005
sg52
V25590
p285
sbag1
(g2
g3
NtRp286
(dp287
g60
V10.1073/pnas.0403218101
p288
sg56
VP NATL ACAD SCI USA
p289
sg58
V101
p290
sg92
(lp291
(VHIRAI
VM Y
tp292
asg21
I2004
sg52
V10205
p293
sbag1
(g2
g3
NtRp294
(dp295
g60
V10.1016/0168-9452(94)90211-9
p296
sg56
VPLANT SCI
p297
sg58
V103
p298
sg92
(lp299
(VKAJITA
VS
tp300
asg21
I1994
sg52
VLANT
p301
sbag1
(g2
g3
NtRp302
(dp303
g60
V10.1104/pp.104.052142
p304
sg56
VPLANT PHYSIOL
p305
sg58
V136
p306
sg92
(lp307
(VKAPLAN
VF
tp308
asg21
I2004
sg52
VLANT
p309
sbag1
(g2
g3
NtRp310
(dp311
g60
V10.1007/BF00293146
p312
sg56
VMOL GEN GENET
p313
sg58
V247
p314
sg92
(lp315
(VKAWALLECK
VP
tp316
asg21
I1995
sg52
V444
p317
sbag1
(g2
g3
NtRp318
(dp319
g60
Nsg56
VPLANT PHYSIOL
p320
sg58
V114
p321
sg92
(lp322
(VLAGRIMINI
VL M
tp323
asg21
I1997
sg52
VLANT
p324
sbag1
(g2
g3
NtRp325
(dp326
g60
V10.1146/annurev.arplant.48.1.251
p327
sg56
VANNU REV PLANT PHYS
p328
sg58
V48
p329
sg92
(lp330
(VLAMB
VC
tp331
asg21
I1997
sg52
V251
p332
sbag1
(g2
g3
NtRp333
(dp334
g60
V10.1074/mcp.D500005-MCP200
p335
sg56
VMOL CELL PROTEOMICS
p336
sg58
V4
sg92
(lp337
(VLEI
VZ
tp338
asg21
I2005
sg52
V1812
p339
sbag1
(g2
g3
NtRp340
(dp341
g60
Nsg56
VSYSTEMATIC IDENTIFIC
p342
sg58
Nsg92
(lp343
(VMABRY
VT J
tp344
asg21
I1970
sg52
Nsbag1
(g2
g3
NtRp345
(dp346
g60
V10.1007/BF01972880
p347
sg56
VTRANSGENIC RES
p348
sg58
V5
sg92
(lp349
(VMCINTYRE
VC L
tp350
asg21
I1996
sg52
V263
p351
sbag1
(g2
g3
NtRp352
(dp353
g60
V10.1016/0014-5793(95)01448-9
p354
sg56
VFEBS LETT
p355
sg58
V378
p356
sg92
(lp357
(VMEHLHORN
VH
tp358
asg21
I1996
sg52
V203
p359
sbag1
(g2
g3
NtRp360
(dp361
g60
V10.1021/jf0002995
p362
sg56
VJ AGR FOOD CHEM
p363
sg58
V48
p364
sg92
(lp365
(VMIRANDA
VC L
tp366
asg21
I2000
sg52
V3876
p367
sbag1
(g2
g3
NtRp368
(dp369
g60
V10.1016/S0014-5793(01)02529-7
p370
sg56
VFEBS LETT
p371
sg58
V499
p372
sg92
(lp373
(VNAKAYAMA
VT
tp374
asg21
I2001
sg52
V107
p375
sbag1
(g2
g3
NtRp376
(dp377
g60
V10.1126/science.290.5494.1163
p378
sg56
VSCIENCE
p379
sg58
V290
p380
sg92
(lp381
(VNAKAYAMA
VT
tp382
asg21
I2000
sg52
V1163
p383
sbag1
(g2
g3
NtRp384
(dp385
g60
V10.1073/pnas.0708697104
p386
sg56
VP NATL ACAD SCI USA
p387
sg58
V104
p388
sg92
(lp389
(VNAOUMKINA
VM
tp390
asg21
I2007
sg52
V17909
p391
sbag1
(g2
g3
NtRp392
(dp393
g60
V10.1111/j.1365-313X.2005.02625.x
p394
sg56
VPLANT J
p395
sg58
V45
p396
sg92
(lp397
(VONO
VE
tp398
asg21
I2006
sg52
VLANT
p399
sbag1
(g2
g3
NtRp400
(dp401
g60
V10.1016/S0031-9422(00)95189-6
p402
sg56
VPHYTOCHEMISTRY
p403
sg58
V30
p404
sg92
(lp405
(VPARE
VP W
tp406
asg21
I1991
sg52
VHYTOCHEMISTRY
p407
sbag1
(g2
g3
NtRp408
(dp409
g60
V10.1016/j.phytochem.2004.06.023
p410
sg56
VPHYTOCHEMISTRY
p411
sg58
V65
p412
sg92
(lp413
(VPASSARDI
VF
tp414
asg21
I2004
sg52
VHYTOCHEMISTRY
p415
sbag1
(g2
g3
NtRp416
(dp417
g60
V10.1126/science.3738520
p418
sg56
VSCIENCE
p419
sg58
V233
p420
sg92
(lp421
(VPETERS
VN K
tp422
asg21
I1986
sg52
V977
p423
sbag1
(g2
g3
NtRp424
(dp425
g60
V10.1104/pp.88.2.396
p426
sg56
VPLANT PHYSIOL
p427
sg58
V88
p428
sg92
(lp429
(VPETERS
VN K
tp430
asg21
I1988
sg52
VLANT
p431
sbag1
(g2
g3
NtRp432
(dp433
g60
V10.1093/nar/29.9.e45
p434
sg56
VNUCLEIC ACIDS RES
p435
sg58
V29
p436
sg92
(lp437
(VPFAFFL
VM W
tp438
asg21
I2001
sg52
Nsbag1
(g2
g3
NtRp439
(dp440
g60
V10.1104/pp.122.4.1119
p441
sg56
VPLANT PHYSIOL
p442
sg58
V122
p443
sg92
(lp444
(VQUIROGA
VM
tp445
asg21
I2000
sg52
VLANT
p446
sbag1
(g2
g3
NtRp447
(dp448
g60
V10.1104/pp.104.054502
p449
sg56
VPLANT PHYSIOL
p450
sg58
V137
p451
sg92
(lp452
(VRALSTON
VL
tp453
asg21
I2005
sg52
VLANT
p454
sbag1
(g2
g3
NtRp455
(dp456
g60
V10.1016/S0304-3940(02)01423-4
p457
sg56
VNEUROSCI LETT
p458
sg58
V339
p459
sg92
(lp460
(VRAMAKERS
VC
tp461
asg21
I2003
sg52
V62
p462
sbag1
(g2
g3
NtRp463
(dp464
g60
Nsg56
VBIOCHEM J
p465
sg58
V127
p466
sg92
(lp467
(VRATHMELL
VW G
tp468
asg21
I1972
sg52
V125
p469
sbag1
(g2
g3
NtRp470
(dp471
g60
Nsg56
VMOL CLONING LAB MANU
p472
sg58
Nsg92
(lp473
(VSAMBROOK
VJ
tp474
asg21
I2001
sg52
Nsbag1
(g2
g3
NtRp475
(dp476
g60
V[10.1104/pp.106.096446, 10.1104/pp.107.096446]
p477
sg56
VPLANT PHYSIOL
p478
sg58
V143
p479
sg92
(lp480
(VSCHAARSCHMIDT
VS
tp481
asg21
I2007
sg52
VLANT
p482
sbag1
(g2
g3
NtRp483
(dp484
g60
V10.1021/ja01572a057
p485
sg56
VJ AM CHEM SOC
p486
sg58
V79
p487
sg92
(lp488
(VSHIMOKORIYAMA
VM
tp489
asg21
I1957
sg52
V4199
p490
sbag1
(g2
g3
NtRp491
(dp492
g60
V10.1016/B978-012214674-9/50011-4
p493
sg56
VPLANT BIOCH
p494
sg58
Nsg92
(lp495
(VSTRACK
VD
tp496
asg21
I1997
sg52
VLANT
p497
sbag1
(g2
g3
NtRp498
(dp499
g60
V10.1104/pp.104.047449
p500
sg56
VPLANT PHYSIOL
p501
sg58
V136
p502
sg92
(lp503
(VSULLIVAN
VM L
tp504
asg21
I2004
sg52
VLANT
p505
sbag1
(g2
g3
NtRp506
(dp507
g60
V10.2135/cropsci2005.06-0132
p508
sg56
VCROP SCI
p509
sg58
V46
p510
sg92
(lp511
(VSULLIVAN
VM L
tp512
asg21
I2006
sg52
V662
p513
sbag1
(g2
g3
NtRp514
(dp515
g60
V10.1007/s11306-007-0082-2
p516
sg56
VMETABOLOMICS
p517
sg58
V3
sg92
(lp518
(VSUMNER
VL W
tp519
asg21
I2007
sg52
V211
p520
sbag1
(g2
g3
NtRp521
(dp522
g60
V10.1016/S0031-9422(02)00708-2
p523
sg56
VPHYTOCHEMISTRY
p524
sg58
V62
p525
sg92
(lp526
(VSUMNER
VL W
tp527
asg21
I2003
sg52
VHYTOCHEMISTRY
p528
sbag1
(g2
g3
NtRp529
(dp530
g60
V10.1007/s00425-004-1387-2
p531
sg56
VPLANTA
p532
sg58
V220
p533
sg92
(lp534
(VSUZUKI
VH
tp535
asg21
I2005
sg52
VLANTA
p536
sbag1
(g2
g3
NtRp537
(dp538
g60
Nsg56
VJ EXP BIOL
p539
sg58
V172
p540
sg92
(lp541
(VTAIZ
VL
tp542
asg21
I1992
sg52
V113
p543
sbag1
(g2
g3
NtRp544
(dp545
g60
V10.1093/pcp/pcd025
p546
sg56
VPLANT CELL PHYSIOL
p547
sg58
V41
p548
sg92
(lp549
(VTAKAHAMA
VU
tp550
asg21
I2000
sg52
VLANT
p551
sbag1
(g2
g3
NtRp552
(dp553
g60
V10.1038/nbt0303-247
p554
sg56
VNAT BIOTECHNOL
p555
sg58
V21
p556
sg92
(lp557
(VTAYLOR
VC F
tp558
asg21
I2003
sg52
V247
p559
sbag1
(g2
g3
NtRp560
(dp561
g60
V10.1111/j.1365-313X.2005.02371.x
p562
sg56
VPLANT J
p563
sg58
V42
p564
sg92
(lp565
(VTOHGE
VT
tp566
asg21
I2005
sg52
VLANT
p567
sbag1
(g2
g3
NtRp568
(dp569
g60
Nsg56
VPLANT CELL
p570
sg58
V6
sg92
(lp571
(VVANETTEN
VH D
tp572
asg21
I1994
sg52
VLANT
p573
sbag1
(g2
g3
NtRp574
(dp575
g60
V10.1073/pnas.0303415101
p576
sg56
VP NATL ACAD SCI USA
p577
sg58
V101
p578
sg92
(lp579
(VWECKWERTH
VW
tp580
asg21
I2004
sg52
V7809
p581
sbag1
(g2
g3
NtRp582
(dp583
g60
V10.1046/j.1432-1033.2002.03311.x
p584
sg56
VEUR J BIOCHEM
p585
sg58
V269
p586
sg92
(lp587
(VWELINDER
VK G
tp588
asg21
I2002
sg52
V6063
p589
sbag1
(g2
g3
NtRp590
(dp591
g60
V10.1016/S0031-9422(00)97113-9
p592
sg56
VPHYTOCHEMISTRY
p593
sg58
V15
p594
sg92
(lp595
(VWILSON
VJ M
tp596
asg21
I1976
sg52
VHYTOCHEMISTRY
p597
sbag1
(g2
g3
NtRp598
(dp599
g60
V10.1016/S0031-9422(00)86085-9
p600
sg56
VPHYTOCHEMISTRY
p601
sg58
V6
sg92
(lp602
(VWONG
VE
tp603
asg21
I1967
sg52
VHYTOCHEMISTRY
p604
sbag1
(g2
g3
NtRp605
(dp606
g60
V10.1105/tpc.108.058040
p607
sg56
VPLANT CELL
p608
sg58
V20
p609
sg92
(lp610
(VYONEKURA-SAKAKIBARA
VK
tp611
asg21
I2008
sg52
VLANT
p612
sbag1
(g2
g3
NtRp613
(dp614
g60
V10.1104/pp.104.057034
p615
sg56
VPLANT PHYSIOL
p616
sg58
V137
p617
sg92
(lp618
(VYOUNG
VN D
tp619
asg21
I2005
sg52
VLANT
p620
sbag1
(g2
g3
NtRp621
(dp622
g60
V10.1146/annurev.biochem.72.121801.161511
p623
sg56
VANNU REV BIOCHEM
p624
sg58
V72
p625
sg92
(lp626
(VZHU
VH
tp627
asg21
I2003
sg52
V783
p628
sbasb.