ccopy_reg
_reconstructor
p1
(ctethne.classes.paper
Paper
p2
c__builtin__
object
p3
NtRp4
(dp5
S'publisherCity'
p6
VROCKVILLE
p7
sS'reprintAddress'
p8
VRoux, SJ (reprint author), Univ Texas Austin, Sect Mol Cell & Dev Biol, Austin, TX 78712 USA.
p9
sS'WC'
p10
VPlant Sciences
p11
sS'GA'
p12
V551XL
p13
sS'FX'
p14
(lp15
VThis work was supported by the National Science Foundation (grant no.
p16
aV0718890 to S.J.R.) and by grants to Z.J.C. from the National Science
p17
aVFoundation (grant no. DBI0624077) and Cotton Incorporated (grant no.
p18
aV07-161).
p19
asS'abstract'
p20
VEctoapyrase enzymes remove the terminal phosphate from extracellular nucleoside tri- and diphosphates. In Arabidopsis (Arabidopsis thaliana), two ectoapyrases, AtAPY1 and AtAPY2, have been implicated as key modulators of growth. In fibers of cotton (Gossypium hirsutum), transcript levels for GhAPY1 and GhAPY2, two closely related ectoapyrases that have high sequence similarity to AtAPY1 and AtAPY2, are up-regulated when fibers enter their rapid growth phase. In an ovule culture system, fibers release ATP as they grow, and when their ectoapyrase activity is blocked by the addition of polyclonal anti-apyrase antibodies or by two different small molecule inhibitors, the medium ATP level rises and fiber growth is suppressed. High concentrations of the poorly hydrolyzable nucleotides ATP gamma S and ADP beta S applied to the medium inhibit fiber growth, and low concentrations of them stimulate growth, but treatment with adenosine 5'-O-thiomonophosphate causes no change in the growth rate. Both the inhibition and stimulation of growth by applied nucleotides can be blocked by an antagonist that blocks purinoceptors in animal cells, and by adenosine. Treatment of cotton ovule cultures with ATP gamma S induces increased levels of ethylene, and two ethylene antagonists, aminovinylglycine and silver nitrate, block both the growth stimulatory and growth inhibitory effects of applied nucleotides. In addition, the ethylene precursor, 1-aminocyclopropane-1-carboxylic acid, lowers the concentration of nucleotide needed to promote fiber growth. These data indicate that ectoapyrases and extracellular nucleotides play a significant role in regulating cotton fiber growth and that ethylene is a likely downstream component of the signaling pathway.
p21
sS'pageEnd'
p22
I1083
sS'date'
p23
I2010
sS'documentType'
p24
VArticle
p25
sS'subject'
p26
VPlant Sciences
p27
sS'isoSource'
p28
VPlant Physiol.
p29
sS'timesCited'
p30
(lp31
I22
aVZ9 22
p32
asS'funding'
p33
(lp34
(VNational Science Foundation
V0718890, DBI0624077
tp35
a(VCotton Incorporated
V07-161
tp36
asS'PT'
p37
VJ
sS'title'
p38
VApyrase (Nucleoside Triphosphate-Diphosphohydrolase) And Extracellular Nucleotides Regulate Cotton Fiber Elongation In Cultured Ovules
p39
sS'ISSN'
p40
(lp41
V0032-0889
p42
aVJ9 PLANT PHYSIOL
p43
asS'authors_full'
p44
(lp45
(VCLARK
VGREG
tp46
a(VTORRES
VJONATHAN
tp47
a(VFINLAYSON
VSCOTT
tp48
a(VGUAN
VXUEYING
tp49
a(VHANDLEY
VCRAIG
tp50
a(VLEE
VJINSUK
tp51
a(VKAYS
VJULIA E
tp52
a(VCHEN
VZ JEFFERY
tp53
a(VROUX
VSTANLEY J
tp54
asS'PG'
p55
I11
sS'PD'
p56
VFEB
p57
sS'pageStart'
p58
I1073
sS'issue'
p59
I2
sS'journal'
p60
VPLANT PHYSIOLOGY
p61
sS'volume'
p62
V152
p63
sS'doi'
p64
V10.1104/pp.109.147637
p65
sS'emailAddress'
p66
Vsroux@uts.cc.utexas.edu
p67
sS'authorAddress'
p68
V[Clark, Greg; Torres, Jonathan; Finlayson, Scott; Guan, Xueying; Handley, Craig; Lee, Jinsuk; Kays, Julia E.; Chen, Z. Jeffery; Roux, Stanley J.] Univ Texas Austin, Sect Mol Cell & Dev Biol, Austin, TX 78712 USA.
p69
sS'publisherAddress'
p70
V15501 MONONA DRIVE, ROCKVILLE, MD 20855 USA
p71
sS'ER'
p72
V
sS'publisher'
p73
VAMER SOC PLANT BIOLOGISTS
p74
sS'authorKeywords'
p75
(lp76
VGENE-EXPRESSION
p77
aVCELL ELONGATION
p78
aVNITRIC-OXIDE
p79
aVARABIDOPSIS-THALIANA
p80
aVPOLLEN GERMINATION
p81
aVNADPH OXIDASE
p82
aVP2X RECEPTOR
p83
aVGROWTH
p84
aVATP
p85
aVETHYLENE
p86
asS'language'
p87
VEnglish
p88
sS'wosid'
p89
VWOS:000274246600056
p90
sS'citationCount'
p91
I58
sS'authors_init'
p92
(lp93
(VCLARK
VG
tp94
a(VTORRES
VJ
tp95
a(VFINLAYSON
VS
tp96
a(VGUAN
VX Y
tp97
a(VHANDLEY
VC
tp98
a(VLEE
VJ
tp99
a(VKAYS
VJ E
tp100
a(VCHEN
VZ J
tp101
a(VROUX
VS J
tp102
asS'citedReferences'
p103
(lp104
g1
(g2
g3
NtRp105
(dp106
g64
V10.1016/S0074-7696(08)61300-5
p107
sg60
VINT REV CYTOL
p108
sg62
V89
p109
sg92
(lp110
(VBASRA
VA S
tp111
asg23
I1984
sg58
V65
p112
sbag1
(g2
g3
NtRp113
(dp114
g64
V10.1016/j.jmb.2004.05.028
p115
sg60
VJ MOL BIOL
p116
sg62
V340
p117
sg92
(lp118
(VBENDTSEN
VJ D
tp119
asg23
I2004
sg58
V783
p120
sbag1
(g2
g3
NtRp121
(dp122
g64
Nsg60
VBLOOD
p123
sg62
V87
p124
sg92
(lp125
(VBENGTSSON
VT
tp126
asg23
I1996
sg58
V4411
p127
sbag1
(g2
g3
NtRp128
(dp129
g64
V10.1038/nrd2605
p130
sg60
VNAT REV DRUG DISCOV
p131
sg62
V7
sg92
(lp132
(VBURNSTOCK
VG
tp133
asg23
I2008
sg58
V575
p134
sbag1
(g2
g3
NtRp135
(dp136
g64
V10.1002/(SICI)1098-2299(199611/12)39:3/4<204::AID-DDR2>3.0.CO;2-V
p137
sg60
VDRUG DEVELOP RES
p138
sg62
V39
p139
sg92
(lp140
(VBURNSTOCK
VG
tp141
asg23
I1996
sg58
V204
p142
sbag1
(g2
g3
NtRp143
(dp144
g64
V10.1111/j.1365-313X.2008.03644.x
p145
sg60
VPLANT J
p146
sg62
V56
p147
sg92
(lp148
(VCARDENAS
VL
tp149
asg23
I2008
sg58
VLANT
p150
sbag1
(g2
g3
NtRp151
(dp152
g64
V10.1104/pp.107.107672
p153
sg60
VPLANT PHYSIOL
p154
sg62
V145
p155
sg92
(lp156
(VCHEN
VZ J
tp157
asg23
I2007
sg58
VLANT
p158
sbag1
(g2
g3
NtRp159
(dp160
g64
V10.1016/j.plantsci.2009.05.004
p161
sg60
VPLANT SCI
p162
sg62
V177
p163
sg92
(lp164
(VCLARK
VG
tp165
asg23
I2009
sg58
VLANT
p166
sbag1
(g2
g3
NtRp167
(dp168
g64
V10.1146/annurev.arplant.50.1.391
p169
sg60
VANNU REV PLANT PHYS
p170
sg62
V50
p171
sg92
(lp172
(VCOSGROVE
VD J
tp173
asg23
I1999
sg58
V391
p174
sbag1
(g2
g3
NtRp175
(dp176
g64
Nsg60
VJ IMMUNOL
p177
sg62
V135
p178
sg92
(lp179
(VCRONSTEIN
VB N
tp180
asg23
I1985
sg58
V1366
p181
sbag1
(g2
g3
NtRp182
(dp183
g64
V10.1104/pp.103.024091
p184
sg60
VPLANT PHYSIOL
p185
sg62
V133
p186
sg92
(lp187
(VDEMIDCHIK
VV
tp188
asg23
I2003
sg58
VLANT
p189
sbag1
(g2
g3
NtRp190
(dp191
g64
V10.1111/j.1365-313X.2009.03830.x
p192
sg60
VPLANT J
p193
sg62
V58
p194
sg92
(lp195
(VDEMIDCHIK
VV
tp196
asg23
I2009
sg58
VLANT
p197
sbag1
(g2
g3
NtRp198
(dp199
g64
V10.1038/nature01485
p200
sg60
VNATURE
p201
sg62
V422
p202
sg92
(lp203
(VFOREMAN
VJ
tp204
asg23
I2003
sg58
V442
p205
sbag1
(g2
g3
NtRp206
(dp207
g64
V10.1104/pp.107.106518
p208
sg60
VPLANT PHYSIOL
p209
sg62
V145
p210
sg92
(lp211
(VFORESI
VN P
tp212
asg23
I2007
sg58
VLANT
p213
sbag1
(g2
g3
NtRp214
(dp215
g64
V10.1074/jbc.M801512200
p216
sg60
VJ BIOL CHEM
p217
sg62
V283
p218
sg92
(lp219
(VFOUNTAIN
VS J
tp220
asg23
I2008
sg58
V15122
p221
sbag1
(g2
g3
NtRp222
(dp223
g64
V10.1038/nature05926
p224
sg60
VNATURE
p225
sg62
V448
p226
sg92
(lp227
(VFOUNTAIN
VS J
tp228
asg23
I2007
sg58
V200
p229
sbag1
(g2
g3
NtRp230
(dp231
g64
V10.1016/j.plantsci.2007.04.008
p232
sg60
VPLANT SCI
p233
sg62
V173
p234
sg92
(lp235
(VGAO
VP
tp236
asg23
I2007
sg58
VLANT
p237
sbag1
(g2
g3
NtRp238
(dp239
g64
V10.1105/tpc.104.023945
p240
sg60
VPLANT CELL
p241
sg62
V16
p242
sg92
(lp243
(VJETER
VC R
tp244
asg23
I2004
sg58
VLANT
p245
sbag1
(g2
g3
NtRp246
(dp247
g64
V10.1007/s10327-002-0003-1
p248
sg60
VJournal of General Plant Pathology
p249
sg62
V69
p250
sg92
(lp251
(VKAWAHARA
VTOMOHARU
tp252
asg23
I2003
sg58
V33
p253
sbag1
(g2
g3
NtRp254
(dp255
g64
V10.1104/pp.127.4.1361
p256
sg60
VPLANT PHYSIOL
p257
sg62
V127
p258
sg92
(lp259
(VKIM
VH J
tp260
asg23
I2001
sg58
VLANT
p261
sbag1
(g2
g3
NtRp262
(dp263
g64
V10.1104/pp.106.085670
p264
sg60
VPLANT PHYSIOL
p265
sg62
V142
p266
sg92
(lp267
(VKIM
VS Y
tp268
asg23
I2006
sg58
VLANT
p269
sbag1
(g2
g3
NtRp270
(dp271
g64
Nsg60
VACTA BIOCHIM POL
p272
sg62
V55
p273
sg92
(lp274
(VKOZAKIEWICZ
VA
tp275
asg23
I2008
sg58
V141
p276
sbag1
(g2
g3
NtRp277
(dp278
g64
V10.1093/aob/mcm232
p279
sg60
VANN BOT
p280
sg62
V100
p281
sg92
(lp282
(VLEE
VJ J
tp283
asg23
I2007
sg58
V1391
p284
sbag1
(g2
g3
NtRp285
(dp286
g64
V10.1007/s00425-005-0098-7
p287
sg60
VPLANTA
p288
sg62
V223
p289
sg92
(lp290
(VLEE
VJ J
tp291
asg23
I2006
sg58
VLANTA
p292
sbag1
(g2
g3
NtRp293
(dp294
g64
V10.1016/0022-1759(82)90046-1
p295
sg60
VJ IMMUNOL METHODS
p296
sg62
V52
p297
sg92
(lp298
(VMARTIN
VL N
tp299
asg23
I1982
sg58
V205
p300
sbag1
(g2
g3
NtRp301
(dp302
g64
V10.1105/tpc.109.069260
p303
sg60
VPLANT CELL
p304
sg62
V21
p305
sg92
(lp306
(VMCKENNA
VS T
tp307
asg23
I2009
sg58
VLANT
p308
sbag1
(g2
g3
NtRp309
(dp310
g64
V10.1111/j.1432-1033.1993.tb17658.x
p311
sg60
VEUR J BIOCHEM
p312
sg62
V212
p313
sg92
(lp314
(VORTIZ
VB
tp315
asg23
I1993
sg58
V263
p316
sbag1
(g2
g3
NtRp317
(dp318
g64
V10.1016/j.tplants.2006.02.006
p319
sg60
VTRENDS PLANT SCI
p320
sg62
V11
p321
sg92
(lp322
(VPIERIK
VR
tp323
asg23
I2006
sg58
V176
p324
sbag1
(g2
g3
NtRp325
(dp326
g64
V10.1242/dev.01153
p327
sg60
VDEVELOPMENT
p328
sg62
V131
p329
sg92
(lp330
(VPRADO
VA M
tp331
asg23
I2004
sg58
V2707
p332
sbag1
(g2
g3
NtRp333
(dp334
g64
V10.1105/tpc.107.054437
p335
sg60
VPLANT CELL
p336
sg62
V19
p337
sg92
(lp338
(VQIN
VY M
tp339
asg23
I2007
sg58
VLANT
p340
sbag1
(g2
g3
NtRp341
(dp342
g64
V10.1093/jxb/erp091
p343
sg60
VJ EXP BOT
p344
sg62
V60
p345
sg92
(lp346
(VREICHLER
VS A
tp347
asg23
I2009
sg58
V2129
p348
sbag1
(g2
g3
NtRp349
(dp350
g64
V10.1104/pp.108.117564
p351
sg60
VPLANT PHYSIOL
p352
sg62
V147
p353
sg92
(lp354
(VRIEWE
VD
tp355
asg23
I2008
sg58
VLANT
p356
sbag1
(g2
g3
NtRp357
(dp358
g64
Nsg60
VCommunication in Plants
p359
sg62
Nsg92
(lp360
(VROUX
VS J
tp361
asg23
I2006
sg58
V221
p362
sbag1
(g2
g3
NtRp363
(dp364
g64
V10.1016/i.tplants.2007.09.003
p365
sg60
VTRENDS PLANT SCI
p366
sg62
V12
p367
sg92
(lp368
(VROUX
VS J
tp369
asg23
I2007
sg58
V522
p370
sbag1
(g2
g3
NtRp371
(dp372
g64
V10.1046/j.1365-313X.2003.01684.x
p373
sg60
VPLANT J
p374
sg62
V33
p375
sg92
(lp376
(VSAIBO
VN J M
tp377
asg23
I2003
sg58
VLANT
p378
sbag1
(g2
g3
NtRp379
(dp380
g64
V10.1016/j.bbamcr.2008.09.014
p381
sg60
VBBA
p382
sg62
V1793
p383
sg92
(lp384
(VSCHICKER
VK
tp385
asg23
I2009
sg58
V325
p386
sbag1
(g2
g3
NtRp387
(dp388
g64
V10.1105/tpc.105.040303
p389
sg60
VPLANT CELL
p390
sg62
V18
p391
sg92
(lp392
(VSHI
VY H
tp393
asg23
I2006
sg58
VLANT
p394
sbag1
(g2
g3
NtRp395
(dp396
g64
V10.1104/pp.109.135459
p397
sg60
VPLANT PHYSIOL
p398
sg62
V150
p399
sg92
(lp400
(VSINGH
VB
tp401
asg23
I2009
sg58
VLANT
p402
sbag1
(g2
g3
NtRp403
(dp404
g64
V10.1073/pnas.94.6.2756
p405
sg60
VP NATL ACAD SCI USA
p406
sg62
V94
p407
sg92
(lp408
(VSMALLE
VJ
tp409
asg23
I1997
sg58
V2756
p410
sbag1
(g2
g3
NtRp411
(dp412
g64
V10.1021/bi9820457
p413
sg60
VBIOCHEMISTRY
p414
sg62
V38
p415
sg92
(lp416
(VSMITH
VT M
tp417
asg23
I1999
sg58
V321
p418
sbag1
(g2
g3
NtRp419
(dp420
g64
V10.1104/pp.105.073072
p421
sg60
VPLANT PHYSIOL
p422
sg62
V140
p423
sg92
(lp424
(VSONG
VC J
tp425
asg23
I2006
sg58
VLANT
p426
sbag1
(g2
g3
NtRp427
(dp428
g64
V10.1104/pp.102.014308
p429
sg60
VPLANT PHYSIOL
p430
sg62
V131
p431
sg92
(lp432
(VSTEINEBRUNNER
VI
tp433
asg23
I2003
sg58
VLANT
p434
sbag1
(g2
g3
NtRp435
(dp436
g64
V10.1016/S0981-9428(00)01209-2
p437
sg60
VPLANT PHYSIOL BIOCH
p438
sg62
V38
p439
sg92
(lp440
(VSTEINEBRUNNER
VI
tp441
asg23
I2000
sg58
VLANT
p442
sbag1
(g2
g3
NtRp443
(dp444
g64
V10.1186/1471-2229-7-22
p445
sg60
VBMC PLANT BIOL
p446
sg62
V7
sg92
(lp447
(VTALIERCIO
VE W
tp448
asg23
I2007
sg58
Nsbag1
(g2
g3
NtRp449
(dp450
g64
V10.1104/pp.013672
p451
sg60
VPLANT PHYSIOL
p452
sg62
V131
p453
sg92
(lp454
(VTANG
VW Q
tp455
asg23
I2003
sg58
VLANT
p456
sbag1
(g2
g3
NtRp457
(dp458
g64
Nsg60
VCAN J BOT
p459
sg62
V73
p460
sg92
(lp461
(VTIWARI
VS C
tp462
asg23
I1995
sg58
V746
p463
sbag1
(g2
g3
NtRp464
(dp465
g64
V10.1111/j.1529-8817.2008.00602.x
p466
sg60
VJ PHYCOL
p467
sg62
V44
p468
sg92
(lp469
(VTORRES
VJ
tp470
asg23
I2008
sg58
V1504
p471
sbag1
(g2
g3
NtRp472
(dp473
g64
V10.1104/pp.010850
p474
sg60
VPLANT PHYSIOL
p475
sg62
V131
p476
sg92
(lp477
(VVANDENBUSSCHE
VF
tp478
asg23
I2003
sg58
VLANT
p479
sbag1
(g2
g3
NtRp480
(dp481
g64
V10.1105/tpc.104.024844
p482
sg60
VPLANT CELL
p483
sg62
V16
p484
sg92
(lp485
(VWANG
VS
tp486
asg23
I2004
sg58
VLANT
p487
sbag1
(g2
g3
NtRp488
(dp489
g64
V10.1016/j.febslet.2009.07.007
p490
sg60
VFEBS LETT
p491
sg62
V583
p492
sg92
(lp493
(VWEERASINGHE
VR R
tp494
asg23
I2009
sg58
V2521
p495
sbag1
(g2
g3
NtRp496
(dp497
g64
V10.1111/J.1399-3054.2005.00514
p498
sg60
VPHYSIOL PLANTARUM
p499
sg62
V124
p500
sg92
(lp501
(VWILKINS
VT A
tp502
asg23
I2005
sg58
VHYSIOL
p503
sbag1
(g2
g3
NtRp504
(dp505
g64
V10.1038/nbt809
p506
sg60
VNAT BIOTECHNOL
p507
sg62
V21
p508
sg92
(lp509
(VWINDSOR
VB
tp510
asg23
I2003
sg58
V428
p511
sbag1
(g2
g3
NtRp512
(dp513
g64
Nsg60
VBIOTECHNIQUES
p514
sg62
V33
p515
sg92
(lp516
(VWINDSOR
VJ B
tp517
asg23
I2002
sg58
V1024
p518
sbag1
(g2
g3
NtRp519
(dp520
g64
V10.1007/s11103-007-9184-5
p521
sg60
VPLANT MOL BIOL
p522
sg62
V64
p523
sg92
(lp524
(VWOLF
VC
tp525
asg23
I2007
sg58
VLANT
p526
sbag1
(g2
g3
NtRp527
(dp528
g64
V10.1104/pp.107.097568
p529
sg60
VPLANT PHYSIOL
p530
sg62
V144
p531
sg92
(lp532
(VWU
VJ
tp533
asg23
I2007
sg58
VLANT
p534
sbag1
(g2
g3
NtRp535
(dp536
g64
V10.1093/jxb/ern242
p537
sg60
VJ EXP BOT
p538
sg62
V59
p539
sg92
(lp540
(VWU
VS J
tp541
asg23
I2008
sg58
V4007
p542
sbag1
(g2
g3
NtRp543
(dp544
g64
V10.1016/S0005-2736(00)00165-6
p545
sg60
VBBA
p546
sg62
V1466
p547
sg92
(lp548
(VYEGUTKIN
VG G
tp549
asg23
I2000
sg58
V234
p550
sbag1
(g2
g3
NtRp551
(dp552
g64
V10.1073/pnas.0802535105
p553
sg60
VP NATL ACAD SCI USA
p554
sg62
V105
p555
sg92
(lp556
(VZEBISCH
VM
tp557
asg23
I2008
sg58
V6882
p558
sbasb.