ccopy_reg
_reconstructor
p1
(ctethne.classes.paper
Paper
p2
c__builtin__
object
p3
NtRp4
(dp5
S'publisherCity'
p6
VROCKVILLE
p7
sS'reprintAddress'
p8
VPeng, JR (reprint author), Inst Mol & Cell Biol, Funct Genom Lab, Singapore 138673, Singapore.
p9
sS'WC'
p10
VPlant Sciences
p11
sS'GA'
p12
V093IL
p13
sS'abstract'
p14
VSevere Arabidopsis (Arabidopsis thaliana) gibberellin (GA)-deficient mutant ga1-3 fails to germinate and is impaired in floral organ development. In contrast, the ga1-3 gai-t6 rga-t2 rgl1-1 rgl2-1 mutant confers GA-independent seed germination and floral development. This fact suggests that GA-regulated transcriptomes for seed germination and floral development are DELLA dependent. However, it is currently not known if all GA-regulated genes are GA regulated in a DELLA-dependent fashion and if a similar set of DELLA-regulated genes is mobilized to repress both seed germination and floral development. Here, we compared the global gene expression patterns in the imbibed seeds and unopened flower buds of the ga1-3 mutant with that of the wild type and of the ga1-3 gai-t6 rga- t2 rgl1-1 rgl2-1 mutant. We found that about one-half of total GA-regulated genes are apparently regulated in a DELLA-dependent fashion, suggesting that there might be a DELLA-independent or partially-dependent component of GA-dependent gene regulation. A cross-comparison based on gene identity revealed that the GA-regulated DELLA-dependent transcriptomes in the imbibed seeds and flower buds are distinct from each other. Detailed ontology analysis showed that, on one hand, DELLAs differentially regulate the expression of different individual members of a gene family to run similar biochemical pathways in seeds and flower. Meanwhile, DELLAs control many functionally different genes to run specific pathways in seeds or flower buds to mark the two different developmental processes. Our data shown here not only confirm many previous reports but also single out some novel aspects of DELLA functions that are instructive to our future research.
p15
sS'pageEnd'
p16
I525
sS'date'
p17
I2006
sS'documentType'
p18
VArticle
p19
sS'subject'
p20
VPlant Sciences
p21
sS'isoSource'
p22
VPlant Physiol.
p23
sS'timesCited'
p24
(lp25
I92
aVZ9 96
p26
asS'PT'
p27
VJ
sS'title'
p28
VGibberellin Mobilizes Distinct Della-Dependent Transcriptomes To Regulate Seed Germination And Floral Development In Arabidopsis
p29
sS'ISSN'
p30
(lp31
V0032-0889
p32
aVJ9 PLANT PHYSIOL
p33
asS'authors_full'
p34
(lp35
(VCAO
VDONGNI
tp36
a(VCHENG
VHUI
tp37
a(VWU
VWEI
tp38
a(VSOO
VHUI MENG
tp39
a(VPENG
VJINRONG
tp40
asS'PG'
p41
I17
sS'PD'
p42
VOCT
p43
sS'pageStart'
p44
I509
sS'issue'
p45
I2
sS'RI'
p46
VASTAR, IMCB/E-2320-2012
p47
sS'journal'
p48
VPLANT PHYSIOLOGY
p49
sS'volume'
p50
V142
p51
sS'doi'
p52
V10.1104/pp.106.082289
p53
sS'emailAddress'
p54
Vpengjr@imcb.a-star.edu.sg
p55
sS'authorAddress'
p56
VInst Mol & Cell Biol, Funct Genom Lab, Singapore 138673, Singapore.
p57
sS'publisherAddress'
p58
V15501 MONONA DRIVE, ROCKVILLE, MD 20855 USA
p59
sS'ER'
p60
V
sS'publisher'
p61
VAMER SOC PLANT BIOLOGISTS
p62
sS'authorKeywords'
p63
(lp64
VSIGNAL-TRANSDUCTION PATHWAY
p65
aVGENE-EXPRESSION
p66
aVPLANT-GROWTH
p67
aVGENOME-WIDE
p68
aVFLOWER DEVELOPMENT
p69
aVRESPONSE FACTORS
p70
aVPROTEIN
p71
aVTHALIANA
p72
aVFAMILY
p73
aVREPRESSOR
p74
asS'language'
p75
VEnglish
p76
sS'wosid'
p77
VWOS:000241161900011
p78
sS'citationCount'
p79
I73
sS'authors_init'
p80
(lp81
(VCAO
VD N
tp82
a(VCHENG
VH
tp83
a(VWU
VW
tp84
a(VSOO
VH M
tp85
a(VPENG
VJ R
tp86
asS'citedReferences'
p87
(lp88
g1
(g2
g3
NtRp89
(dp90
g52
V10.1105/tpc.015685
p91
sg48
VPLANT CELL
p92
sg50
V15
p93
sg80
(lp94
(VACHARD
VP
tp95
asg17
I2003
sg44
VLANT
p96
sbag1
(g2
g3
NtRp97
(dp98
g52
V10.1126/science.1118642
p99
sg48
VSCIENCE
p100
sg50
V311
p101
sg80
(lp102
(VACHARD
VP
tp103
asg17
I2006
sg44
V91
p104
sbag1
(g2
g3
NtRp105
(dp106
g52
V10.1242/dev.01206
p107
sg48
VDEVELOPMENT
p108
sg50
V131
p109
sg80
(lp110
(VACHARD
VP
tp111
asg17
I2004
sg44
V3357
p112
sbag1
(g2
g3
NtRp113
(dp114
g52
V10.1016/j.plipres.2004.09.002
p115
sg48
VPROG LIPID RES
p116
sg50
V43
p117
sg80
(lp118
(VAKOH
VC C
tp119
asg17
I2004
sg44
VROG
p120
sbag1
(g2
g3
NtRp121
(dp122
g52
V10.1016/j.bbaexp.2005.05.011
p123
sg48
VBBA
p124
sg50
V1730
p125
sg80
(lp126
(VALI-BENALI
VM A
tp127
asg17
I2005
sg44
V56
p128
sbag1
(g2
g3
NtRp129
(dp130
g52
V10.1104/pp.105.074435
p131
sg48
VPLANT PHYSIOL
p132
sg50
V140
p133
sg80
(lp134
(VBETHKE
VP C
tp135
asg17
I2006
sg44
VLANT
p136
sbag1
(g2
g3
NtRp137
(dp138
g52
V10.1105/tpc.9.7.1055
p139
sg48
VPLANT CELL
p140
sg50
V9
sg80
(lp141
(VBEWLEY
VJ D
tp142
asg17
I1997
sg44
VLANT
p143
sbag1
(g2
g3
NtRp144
(dp145
g52
V10.1038/416847a
p146
sg48
VNATURE
p147
sg50
V416
p148
sg80
(lp149
(VBOSS
VP K
tp150
asg17
I2002
sg44
V847
p151
sbag1
(g2
g3
NtRp152
(dp153
g52
V10.1007/s00425-005-0057-3
p154
sg48
VPLANTA
p155
sg50
V223
p156
sg80
(lp157
(VCAO
VD N
tp158
asg17
I2005
sg44
VLANTA
p159
sbag1
(g2
g3
NtRp160
(dp161
g52
V10.1016/S1535-6108(02)00033-8
p162
sg48
VCANCER CELL
p163
sg50
V1
sg80
(lp164
(VCHAN
VT O
tp165
asg17
I2002
sg44
V181
p166
sbag1
(g2
g3
NtRp167
(dp168
g52
V10.1104/pp.104.900122
p169
sg48
VPLANT PHYSIOL
p170
sg50
V136
p171
sg80
(lp172
(VCHANG
VC R
tp173
asg17
I2004
sg44
VLANT
p174
sbag1
(g2
g3
NtRp175
(dp176
g52
V10.1093/jexbot/53.367.215
p177
sg48
VJ EXP BOT
p178
sg50
V53
p179
sg80
(lp180
(VCHEN
VF
tp181
asg17
I2002
sg44
V215
p182
sbag1
(g2
g3
NtRp183
(dp184
g52
V10.1104/pp.124.3.1265
p185
sg48
VPLANT PHYSIOL
p186
sg50
V124
p187
sg80
(lp188
(VCHEN
VF
tp189
asg17
I2000
sg44
VLANT
p190
sbag1
(g2
g3
NtRp191
(dp192
g52
V10.1242/dev.00992
p193
sg48
VDEVELOPMENT
p194
sg50
V131
p195
sg80
(lp196
(VCHENG
VH
tp197
asg17
I2004
sg44
V1055
p198
sbag1
(g2
g3
NtRp199
(dp200
g52
V10.1105/tpc.020958
p201
sg48
VPLANT CELL
p202
sg50
V16
p203
sg80
(lp204
(VDILL
VA
tp205
asg17
I2004
sg44
VLANT
p206
sbag1
(g2
g3
NtRp207
(dp208
g52
Nsg48
VGENETICS
p209
sg50
V159
p210
sg80
(lp211
(VDILL
VA
tp212
asg17
I2001
sg44
V777
p213
sbag1
(g2
g3
NtRp214
(dp215
g52
V10.1016/S1360-1385(00)01600-9
p216
sg48
VTRENDS PLANT SCI
p217
sg50
V5
sg80
(lp218
(VEULGEM
VT
tp219
asg17
I2000
sg44
V199
p220
sbag1
(g2
g3
NtRp221
(dp222
g52
V10.1038/nature01387
p223
sg48
VNATURE
p224
sg50
V421
p225
sg80
(lp226
(VFU
VX D
tp227
asg17
I2003
sg44
V740
p228
sbag1
(g2
g3
NtRp229
(dp230
g52
V10.1105/tpc.021386
p231
sg48
VPLANT CELL
p232
sg50
V16
p233
sg80
(lp234
(VFU
VX D
tp235
asg17
I2004
sg44
VLANT
p236
sbag1
(g2
g3
NtRp237
(dp238
g52
V10.1105/tpc.006197
p239
sg48
VPLANT CELL
p240
sg50
V14
p241
sg80
(lp242
(VFU
VX D
tp243
asg17
I2002
sg44
VLANT
p244
sbag1
(g2
g3
NtRp245
(dp246
g52
V10.1105/tpc.12.3.393
p247
sg48
VPLANT CELL
p248
sg50
V12
p249
sg80
(lp250
(VFUJIMOTO
VS Y
tp251
asg17
I2000
sg44
VLANT
p252
sbag1
(g2
g3
NtRp253
(dp254
g52
V10.1104/pp.010918
p255
sg48
VPLANT PHYSIOL
p256
sg50
V129
p257
sg80
(lp258
(VGUBLER
VF
tp259
asg17
I2002
sg44
VLANT
p260
sbag1
(g2
g3
NtRp261
(dp262
g52
V10.1016/j.pbi.2003.11.011
p263
sg48
VCURR OPIN PLANT BIOL
p264
sg50
V7
sg80
(lp265
(VGUO
VH W
tp266
asg17
I2004
sg44
V40
p267
sbag1
(g2
g3
NtRp268
(dp269
g52
V10.1126/science.1083217
p270
sg48
VSCIENCE
p271
sg50
V299
p272
sg80
(lp273
(VHARBERD
VN P
tp274
asg17
I2003
sg44
V1853
p275
sbag1
(g2
g3
NtRp276
(dp277
g52
V10.1105/tpc.105.039958
p278
sg48
VPLANT CELL
p279
sg50
V18
p280
sg80
(lp281
(VHARTWECK
VL M
tp282
asg17
I2006
sg44
VLANT
p283
sbag1
(g2
g3
NtRp284
(dp285
g52
V10.1093/molbev/msg088
p286
sg48
VMOL BIOL EVOL
p287
sg50
V20
p288
sg80
(lp289
(VHEIM
VM A
tp290
asg17
I2003
sg44
V735
p291
sbag1
(g2
g3
NtRp292
(dp293
g52
V10.1111/j.1365-313X.2005.02512.x
p294
sg48
VPLANT J
p295
sg50
V44
p296
sg80
(lp297
(VHUSSAIN
VA
tp298
asg17
I2005
sg44
VLANT
p299
sbag1
(g2
g3
NtRp300
(dp301
g52
V10.1105/tpc.010319
p302
sg48
VPLANT CELL
p303
sg50
V14
p304
sg80
(lp305
(VITOH
VH
tp306
asg17
I2002
sg44
VLANT
p307
sbag1
(g2
g3
NtRp308
(dp309
g52
V10.1007/s11103-005-0909-z
p310
sg48
VPLANT MOL BIOL
p311
sg50
V59
p312
sg80
(lp313
(VKAMISUGI
VY
tp314
asg17
I2005
sg44
VLANT
p315
sbag1
(g2
g3
NtRp316
(dp317
g52
Nsg48
VPLANT CELL
p318
sg50
V16
p319
sg80
(lp320
(VKANEKO
VM
tp321
asg17
I2003
sg44
VLANT
p322
sbag1
(g2
g3
NtRp323
(dp324
g52
Nsg48
VGENETICS
p325
sg50
V159
p326
sg80
(lp327
(VKING
VK E
tp328
asg17
I2001
sg44
V767
p329
sbag1
(g2
g3
NtRp330
(dp331
g52
V10.1007/BF00265176
p332
sg48
VTHEOR APPL GENET
p333
sg50
V58
p334
sg80
(lp335
(VKOORNNEEF
VM
tp336
asg17
I1980
sg44
V257
p337
sbag1
(g2
g3
NtRp338
(dp339
g52
V10.1038/nrg1675
p340
sg48
VNAT REV GENET
p341
sg50
V6
sg80
(lp342
(VKRIZEK
VB A
tp343
asg17
I2005
sg44
V688
p344
sbag1
(g2
g3
NtRp345
(dp346
g52
V10.1074/jbc.M111955200
p347
sg48
VJ BIOL CHEM
p348
sg50
V277
p349
sg80
(lp350
(VLECLERE
VS
tp351
asg17
I2002
sg44
V20446
p352
sbag1
(g2
g3
NtRp353
(dp354
g52
V10.1101/gad.969002
p355
sg48
VGENE DEV
p356
sg50
V16
p357
sg80
(lp358
(VLEE
VS C
tp359
asg17
I2002
sg44
V646
p360
sbag1
(g2
g3
NtRp361
(dp362
g52
V10.1023/A:1015255030047
p363
sg48
VPLANT MOL BIOL
p364
sg50
V49
p365
sg80
(lp366
(VLISCUM
VE
tp367
asg17
I2002
sg44
VLANT
p368
sbag1
(g2
g3
NtRp369
(dp370
g52
V10.1101/gad.12.14.2175
p371
sg48
VGENE DEV
p372
sg50
V12
p373
sg80
(lp374
(VLUSCHNIG
VC
tp375
asg17
I1998
sg44
V2175
p376
sbag1
(g2
g3
NtRp377
(dp378
g52
V10.1038/82521
p379
sg48
VNAT GENET
p380
sg50
V26
p381
sg80
(lp382
(VMALECK
VK
tp383
asg17
I2000
sg44
V403
p384
sbag1
(g2
g3
NtRp385
(dp386
g52
V10.1104/pp.105.068544
p387
sg48
VPLANT PHYSIOL
p388
sg50
V139
p389
sg80
(lp390
(VMCGRATH
VK C
tp391
asg17
I2005
sg44
VLANT
p392
sbag1
(g2
g3
NtRp393
(dp394
g52
V10.1130/G21033.1
p395
sg48
VGEOLOGY
p396
sg50
V33
p397
sg80
(lp398
(VMILLER
VG
tp399
asg17
I2005
sg44
V65
p400
sbag1
(g2
g3
NtRp401
(dp402
g52
V10.1016/S1369-5266(03)00055-4
p403
sg48
VCURR OPIN PLANT BIOL
p404
sg50
V6
sg80
(lp405
(VMORRIS
VE R
tp406
asg17
I2003
sg44
V339
p407
sbag1
(g2
g3
NtRp408
(dp409
g52
V10.1111/j.1365-313X.2006.02748.x
p410
sg48
VPLANT J
p411
sg50
V46
p412
sg80
(lp413
(VNAKAJIMA
VM
tp414
asg17
I2006
sg44
VLANT
p415
sbag1
(g2
g3
NtRp416
(dp417
g52
V10.1023/A:1006104205959
p418
sg48
VPLANT MOL BIOL
p419
sg50
V39
p420
sg80
(lp421
(VNEUTEBOOM
VL W
tp422
asg17
I1999
sg44
VLANT
p423
sbag1
(g2
g3
NtRp424
(dp425
g52
V10.1105/tpc.011650
p426
sg48
VPLANT CELL
p427
sg50
V15
p428
sg80
(lp429
(VOGAWA
VM
tp430
asg17
I2003
sg44
VLANT
p431
sbag1
(g2
g3
NtRp432
(dp433
g52
V10.1105/tpc.13.8.1959
p434
sg48
VPLANT CELL
p435
sg50
V13
p436
sg80
(lp437
(VOHTA
VM
tp438
asg17
I2001
sg44
VLANT
p439
sbag1
(g2
g3
NtRp440
(dp441
g52
Nsg48
VPLANT CELL
p442
sg50
V14
p443
sg80
(lp444
(VOLSZEWSKI
VN
tp445
asg17
I2002
sg44
VLANT
p446
sbag1
(g2
g3
NtRp447
(dp448
g52
V10.1016/j.cub.2005.11.010
p449
sg48
VCURR BIOL
p450
sg50
V15
p451
sg80
(lp452
(VPENFIELD
VS
tp453
asg17
I2005
sg44
V1998
p454
sbag1
(g2
g3
NtRp455
(dp456
g52
V10.1016/S1369-5266(02)00279-0
p457
sg48
VCURR OPIN PLANT BIOL
p458
sg50
V5
sg80
(lp459
(VPENG
VJ R
tp460
asg17
I2002
sg44
V376
p461
sbag1
(g2
g3
NtRp462
(dp463
g52
V10.1101/gad.11.23.3194
p464
sg48
VGENE DEV
p465
sg50
V11
p466
sg80
(lp467
(VPENG
VJ R
tp468
asg17
I1997
sg44
V3194
p469
sbag1
(g2
g3
NtRp470
(dp471
g52
V10.1038/22307
p472
sg48
VNATURE
p473
sg50
V400
p474
sg80
(lp475
(VPENG
VJ R
tp476
asg17
I1999
sg44
V256
p477
sbag1
(g2
g3
NtRp478
(dp479
g52
V10.1042/0264-6021:3590575
p480
sg48
VBIOCHEM J
p481
sg50
V359
p482
sg80
(lp483
(VPETIT
VJ M
tp484
asg17
I2001
sg44
V575
p485
sbag1
(g2
g3
NtRp486
(dp487
g52
V10.1046/j.1365-313X.1999.00431.x
p488
sg48
VPLANT J
p489
sg50
V18
p490
sg80
(lp491
(VPYSH
VL D
tp492
asg17
I1999
sg44
VLANT
p493
sbag1
(g2
g3
NtRp494
(dp495
g52
V10.1023/A:1026403215270
p496
sg48
VPLANT MOL BIOL
p497
sg50
V40
p498
sg80
(lp499
(VRAYNAL
VM
tp500
asg17
I1999
sg44
VLANT
p501
sbag1
(g2
g3
NtRp502
(dp503
g52
V10.1146/annurev.arplant.52.1.67
p504
sg48
VANNU REV PLANT PHYS
p505
sg50
V52
p506
sg80
(lp507
(VRICHARDS
VD E
tp508
asg17
I2001
sg44
V67
p509
sbag1
(g2
g3
NtRp510
(dp511
g52
V10.1002/(SICI)1521-1878(200006)22:6<573::AID-BIES10>3.0.CO;2-H
p512
sg48
VBIOESSAYS
p513
sg50
V22
p514
sg80
(lp515
(VRICHARDS
VD E
tp516
asg17
I2000
sg44
V573
p517
sbag1
(g2
g3
NtRp518
(dp519
g52
V10.1126/science.290.5499.2105
p520
sg48
VSCIENCE
p521
sg50
V290
p522
sg80
(lp523
(VRIECHMANN
VJ L
tp524
asg17
I2000
sg44
V2105
p525
sbag1
(g2
g3
NtRp526
(dp527
g52
V10.1126/science.1081077
p528
sg48
VSCIENCE
p529
sg50
V299
p530
sg80
(lp531
(VSASAKI
VA
tp532
asg17
I2003
sg44
V1896
p533
sbag1
(g2
g3
NtRp534
(dp535
g52
V10.1023/A:1006007315718
p536
sg48
VPLANT MOL BIOL
p537
sg50
V38
p538
sg80
(lp539
(VSHI
VL F
tp540
asg17
I1998
sg44
VLANT
p541
sbag1
(g2
g3
NtRp542
(dp543
g52
V10.1105/tpc.10.2.155
p544
sg48
VPLANT CELL
p545
sg50
V10
p546
sg80
(lp547
(VSILVERSTONE
VA L
tp548
asg17
I1998
sg44
VLANT
p549
sbag1
(g2
g3
NtRp550
(dp551
g52
V10.1105/tpc.13.7.1555
p552
sg48
VPLANT CELL
p553
sg50
V13
p554
sg80
(lp555
(VSILVERSTONE
VA L
tp556
asg17
I2001
sg44
VLANT
p557
sbag1
(g2
g3
NtRp558
(dp559
g52
V10.1105/tpc.104.026690
p560
sg48
VPLANT CELL
p561
sg50
V17
p562
sg80
(lp563
(VSTASWICK
VP E
tp564
asg17
I2005
sg44
VLANT
p565
sbag1
(g2
g3
NtRp566
(dp567
g52
V10.1146/annurev.arplant.55.031903.141753
p568
sg48
VANNU REV PLANT BIOL
p569
sg50
V55
p570
sg80
(lp571
(VSUN
VT P
tp572
asg17
I2004
sg44
V197
p573
sbag1
(g2
g3
NtRp574
(dp575
g52
V10.1105/tpc.6.10.1509
p576
sg48
VPLANT CELL
p577
sg50
V6
sg80
(lp578
(VSUN
VT P
tp579
asg17
I1994
sg44
VLANT
p580
sbag1
(g2
g3
NtRp581
(dp582
g52
V10.1007/BF00020246
p583
sg48
VPLANT MOL BIOL
p584
sg50
V28
p585
sg80
(lp586
(VTAGUE
VB W
tp587
asg17
I1995
sg44
VLANT
p588
sbag1
(g2
g3
NtRp589
(dp590
g52
V10.1104/pp.104.039578
p591
sg48
VPLANT PHYSIOL
p592
sg50
V135
p593
sg80
(lp594
(VTYLER
VL
tp595
asg17
I2004
sg44
VLANT
p596
sbag1
(g2
g3
NtRp597
(dp598
g52
V10.1038/nature04028
p599
sg48
VNATURE
p600
sg50
V437
p601
sg80
(lp602
(VUEGUCHI-TANAKA
VM
tp603
asg17
I2005
sg44
V693
p604
sbag1
(g2
g3
NtRp605
(dp606
g52
V10.1073/pnas.190309197
p607
sg48
VP NATL ACAD SCI USA
p608
sg50
V97
p609
sg80
(lp610
(VUNO
VY
tp611
asg17
I2000
sg44
V11632
p612
sbag1
(g2
g3
NtRp613
(dp614
g52
V10.1105/tpc.105.033076
p615
sg48
VPLANT CELL
p616
sg50
V17
p617
sg80
(lp618
(VWANG
VJ W
tp619
asg17
I2005
sg44
VLANT
p620
sbag1
(g2
g3
NtRp621
(dp622
g52
V10.1105/tpc.010325
p623
sg48
VPLANT CELL
p624
sg50
V14
p625
sg80
(lp626
(VWEN
VC K
tp627
asg17
I2002
sg44
VLANT
p628
sbag1
(g2
g3
NtRp629
(dp630
g52
V10.1104/pp.100.1.403
p631
sg48
VPLANT PHYSIOL
p632
sg50
V100
p633
sg80
(lp634
(VWILSON
VR N
tp635
asg17
I1992
sg44
VLANT
p636
sbag1
(g2
g3
NtRp637
(dp638
g52
V10.1105/tpc.018143
p639
sg48
VPLANT CELL
p640
sg50
V16
p641
sg80
(lp642
(VYAMAUCHI
VY
tp643
asg17
I2004
sg44
VLANT
p644
sbag1
(g2
g3
NtRp645
(dp646
g52
V10.1073/pnas.0402377101
p647
sg48
VP NATL ACAD SCI USA
p648
sg50
V101
p649
sg80
(lp650
(VYU
VH
tp651
asg17
I2004
sg44
V7827
p652
sbag1
(g2
g3
NtRp653
(dp654
g52
V10.1073/pnas.91.13.6050
p655
sg48
VP NATL ACAD SCI USA
p656
sg50
V91
p657
sg80
(lp658
(VYUAN
VM
tp659
asg17
I1994
sg44
V6050
p660
sbasb.