ccopy_reg
_reconstructor
p1
(ctethne.classes.paper
Paper
p2
c__builtin__
object
p3
NtRp4
(dp5
S'publisherCity'
p6
VROCKVILLE
p7
sS'reprintAddress'
p8
VLarkins, BA (reprint author), Univ Arizona, Dept Plant Sci, Tucson, AZ 85721 USA.
p9
sS'WC'
p10
VPlant Sciences
p11
sS'GA'
p12
V391VE
p13
sS'pageEnd'
p14
I26
sS'publisherAddress'
p15
V15501 MONONA DRIVE, ROCKVILLE, MD 20855 USA
p16
sS'documentType'
p17
VEditorial Material
p18
sS'subject'
p19
VPlant Sciences
p20
sS'isoSource'
p21
VPlant Physiol.
p22
sS'timesCited'
p23
(lp24
I66
aVZ9 72
p25
asS'PT'
p26
VJ
sS'title'
p27
VThe Development Of Endosperm In Grasses
p28
sS'ISSN'
p29
(lp30
V0032-0889
p31
aVJ9 PLANT PHYSIOL
p32
asS'authors_full'
p33
(lp34
(VSABELLI
VPAOLO A
tp35
a(VLARKINS
VBRIAN A
tp36
asS'PG'
p37
I13
sS'PD'
p38
VJAN
p39
sS'pageStart'
p40
I14
sS'issue'
p41
I1
sS'journal'
p42
VPLANT PHYSIOLOGY
p43
sS'volume'
p44
V149
p45
sS'doi'
p46
V10.1104/pp.108.129437
p47
sS'emailAddress'
p48
Vlarkins@ag.arizona.edu
p49
sS'authorAddress'
p50
V[Sabelli, Paolo A.; Larkins, Brian A.] Univ Arizona, Dept Plant Sci, Tucson, AZ 85721 USA.
p51
sS'date'
p52
I2009
sS'ER'
p53
V
sS'publisher'
p54
VAMER SOC PLANT BIOLOGISTS
p55
sS'authorKeywords'
p56
(lp57
VPROGRAMMED CELL-DEATH
p58
aVMAIZE ZEA-MAYS
p59
aVEMBRYO SURROUNDING REGION
p60
aVCYCLIN-DEPENDENT KINASE
p61
aVSEED STORAGE PROTEINS
p62
aVWHEAT CARYOPSIS DEVELOPMENT
p63
aVGENE-EXPRESSION
p64
aVABSCISIC-ACID
p65
aVCEREAL ENDOSPERM
p66
aVTRANSCRIPTIONAL ACTIVATOR
p67
asS'language'
p68
VEnglish
p69
sS'wosid'
p70
VWOS:000262261500004
p71
sS'citationCount'
p72
I166
sS'authors_init'
p73
(lp74
(VSABELLI
VP A
tp75
a(VLARKINS
VB A
tp76
asS'citedReferences'
p77
(lp78
g1
(g2
g3
NtRp79
(dp80
g46
V10.1073/pnas.88.19.8602
p81
sg42
VP NATL ACAD SCI USA
p82
sg44
V88
p83
sg73
(lp84
(VALDERSON
VA
tp85
asg52
I1991
sg40
V8602
p86
sbag1
(g2
g3
NtRp87
(dp88
g46
V10.1007/s11103-005-3479-1
p89
sg42
VPLANT MOL BIOL
p90
sg44
V58
p91
sg73
(lp92
(VBALANDIN
VM
tp93
asg52
I2005
sg40
VLANT
p94
sbag1
(g2
g3
NtRp95
(dp96
g46
V10.1104/pp.106.087056
p97
sg42
VPLANT PHYSIOL
p98
sg44
V142
p99
sg73
(lp100
(VBARROCO
VR M
tp101
asg52
I2006
sg40
VLANT
p102
sbag1
(g2
g3
NtRp103
(dp104
g46
V10.1104/pp.103.027466
p105
sg42
VPLANT PHYSIOL
p106
sg44
V134
p107
sg73
(lp108
(VBATE
VN J
tp109
asg52
I2004
sg40
VLANT
p110
sbag1
(g2
g3
NtRp111
(dp112
g46
V10.1007/s00412-006-0068-2
p113
sg42
VCHROMOSOMA
p114
sg44
V115
p115
sg73
(lp116
(VBAUER
VM J
tp117
asg52
I2006
sg40
V383
p118
sbag1
(g2
g3
NtRp119
(dp120
g46
V10.1104/pp.125.2.818
p121
sg42
VPLANT PHYSIOL
p122
sg44
V125
p123
sg73
(lp124
(VBECKLES
VD M
tp125
asg52
I2001
sg40
VLANT
p126
sbag1
(g2
g3
NtRp127
(dp128
g46
V10.1006/scdb.2001.0268
p129
sg42
VSEMIN CELL DEV BIOL
p130
sg44
V12
p131
sg73
(lp132
(VBECRAFT
VP W
tp133
asg52
I2001
sg40
V387
p134
sbag1
(g2
g3
NtRp135
(dp136
g46
Nsg42
VDEVELOPMENT
p137
sg44
V127
p138
sg73
(lp139
(VBECRAFT
VP W
tp140
asg52
I2000
sg40
V4039
p141
sbag1
(g2
g3
NtRp142
(dp143
g46
V10.1126/science.273.5280.1406
p144
sg42
VSCIENCE
p145
sg44
V273
p146
sg73
(lp147
(VBECRAFT
VP W
tp148
asg52
I1996
sg40
V1406
p149
sbag1
(g2
g3
NtRp150
(dp151
g46
Nsg42
VDEVELOPMENT
p152
sg44
V129
p153
sg73
(lp154
(VBECRAFT
VP W
tp155
asg52
I2002
sg40
V5217
p156
sbag1
(g2
g3
NtRp157
(dp158
g46
V10.1098/rstb.1975.0083
p159
sg42
VPHILOS T ROY SOC B
p160
sg44
V272
p161
sg73
(lp162
(VBENNETT
VM D
tp163
asg52
I1975
sg40
VHILOS
p164
sbag1
(g2
g3
NtRp165
(dp166
g46
V10.1093/jxb/erf010
p167
sg42
VJ EXP BOT
p168
sg44
V53
p169
sg73
(lp170
(VBONELLO
VJ F
tp171
asg52
I2002
sg40
V1559
p172
sbag1
(g2
g3
NtRp173
(dp174
g46
V10.1055/s-2004-817908
p175
sg42
VPLANT BIOLOGY
p176
sg44
V6
sg73
(lp177
(VBORISJUK
VL
tp178
asg52
I2004
sg40
VLANT
p179
sbag1
(g2
g3
NtRp180
(dp181
g46
V10.1007/BF00289966
p182
sg42
VTHEOR APPL GENET
p183
sg44
V74
p184
sg73
(lp185
(VBOSNES
VM
tp186
asg52
I1987
sg40
V177
p187
sbag1
(g2
g3
NtRp188
(dp189
g46
V10.1038/266348a0
p190
sg42
VNATURE
p191
sg44
V266
p192
sg73
(lp193
(VBROCKLEHURST
VP A
tp194
asg52
I1977
sg40
V348
p195
sbag1
(g2
g3
NtRp196
(dp197
g46
Nsg42
VPLANT CELL
p198
sg44
V6
sg73
(lp199
(VBROWN
VR C
tp200
asg52
I1994
sg40
VLANT
p201
sbag1
(g2
g3
NtRp202
(dp203
g46
V10.1104/pp.106.091454
p204
sg42
VPLANT PHYSIOL
p205
sg44
V143
p206
sg73
(lp207
(VCAO
VX Y
tp208
asg52
I2007
sg40
VLANT
p209
sbag1
(g2
g3
NtRp210
(dp211
g46
Nsg42
VDEVELOPMENT
p212
sg44
V121
p213
sg73
(lp214
(VCHARLTON
VW L
tp215
asg52
I1995
sg40
V3089
p216
sbag1
(g2
g3
NtRp217
(dp218
g46
V10.1073/pnas.91.11.4867
p219
sg42
VP NATL ACAD SCI USA
p220
sg44
V91
p221
sg73
(lp222
(VCHAUDHURI
VS
tp223
asg52
I1994
sg40
V4867
p224
sbag1
(g2
g3
NtRp225
(dp226
g46
Nsg42
VANN BOT
p227
sg44
V58
p228
sg73
(lp229
(VCHOJECKI
VA J S
tp230
asg52
I1986
sg40
V809
p231
sbag1
(g2
g3
NtRp232
(dp233
g46
Nsg42
VANN BOT
p234
sg44
V58
p235
sg73
(lp236
(VCHOJECKI
VA J S
tp237
asg52
I1986
sg40
V819
p238
sbag1
(g2
g3
NtRp239
(dp240
g46
V10.1093/jxb/erj215
p241
sg42
VJ EXP BOT
p242
sg44
V57
p243
sg73
(lp244
(VCHONO
VM
tp245
asg52
I2006
sg40
V2421
p246
sbag1
(g2
g3
NtRp247
(dp248
g46
V10.1104/pp.126.3.939
p249
sg42
VPLANT PHYSIOL
p250
sg44
V126
p251
sg73
(lp252
(VCOCK
VJ M
tp253
asg52
I2001
sg40
VLANT
p254
sbag1
(g2
g3
NtRp255
(dp256
g46
V10.1104/pp.105.063917
p257
sg42
VPLANT PHYSIOL
p258
sg44
V138
p259
sg73
(lp260
(VCOELHO
VC M
tp261
asg52
I2005
sg40
VLANT
p262
sbag1
(g2
g3
NtRp263
(dp264
g46
Nsg42
VSEED PROTEINS
p265
sg44
Nsg73
(lp266
(VCOLEMAN
VC E
tp267
asg52
I1999
sg40
V109
p268
sbag1
(g2
g3
NtRp269
(dp270
g46
V10.1073/pnas.94.13.7094
p271
sg42
VP NATL ACAD SCI USA
p272
sg44
V94
p273
sg73
(lp274
(VCOLEMAN
VC E
tp275
asg52
I1997
sg40
V7094
p276
sbag1
(g2
g3
NtRp277
(dp278
g46
V10.1046/j.1365-3040.1999.00424.x
p279
sg42
VPLANT CELL ENVIRON
p280
sg44
V22
p281
sg73
(lp282
(VCOMMURI
VP D
tp283
asg52
I1999
sg40
VLANT
p284
sbag1
(g2
g3
NtRp285
(dp286
g46
V10.2307/2437917
p287
sg42
VAM J BOT
p288
sg44
V38
p289
sg73
(lp290
(VCOOPER
VD C
tp291
asg52
I1951
sg40
V702
p292
sbag1
(g2
g3
NtRp293
(dp294
g46
V10.1007/7089_2007_109
p295
sg42
VENDOSPERM
p296
sg44
V8
sg73
(lp297
(VCOSSEGAL
VM
tp298
asg52
I2007
sg40
V57
p299
sbag1
(g2
g3
NtRp300
(dp301
g46
V10.1242/dev.00692
p302
sg42
VDEVELOPMENT
p303
sg44
V130
p304
sg73
(lp305
(VCOSTA
VL M
tp306
asg52
I2003
sg40
V5009
p307
sbag1
(g2
g3
NtRp308
(dp309
g46
V10.1105/tpc.006759
p310
sg42
VPLANT CELL
p311
sg44
V15
p312
sg73
(lp313
(VDANILEVSKAYA
VO N
tp314
asg52
I2003
sg40
VLANT
p315
sbag1
(g2
g3
NtRp316
(dp317
g46
V10.1007/BF00996242
p318
sg42
VPLANT SYST EVOL
p319
sg44
V125
p320
sg73
(lp321
(VDESHPANDE
VP K
tp322
asg52
I1976
sg40
VLANT
p323
sbag1
(g2
g3
NtRp324
(dp325
g46
Nsg42
VGENETICS
p326
sg44
V160
p327
sg73
(lp328
(VDILKES
VB P
tp329
asg52
I2002
sg40
V1163
p330
sbag1
(g2
g3
NtRp331
(dp332
g46
V10.1007/BF00019474
p333
sg42
VPLANT MOL BIOL
p334
sg44
V31
p335
sg73
(lp336
(VDOAN
VD N P
tp337
asg52
I1996
sg40
VLANT
p338
sbag1
(g2
g3
NtRp339
(dp340
g46
V10.1093/jxb/erl290
p341
sg42
VJ EXP BOT
p342
sg44
V58
p343
sg73
(lp344
(VDOLFINI
VS
tp345
asg52
I2007
sg40
V1197
p346
sbag1
(g2
g3
NtRp347
(dp348
g46
V10.1105/tpc.105.034058
p349
sg42
VPLANT CELL
p350
sg44
V17
p351
sg73
(lp352
(VDREA
VS
tp353
asg52
I2005
sg40
VLANT
p354
sbag1
(g2
g3
NtRp355
(dp356
g46
Nsg42
VCROP SCI
p357
sg44
V41
p358
sg73
(lp359
(VENGELEN-EIGLES
VG
tp360
asg52
I2001
sg40
V1114
p361
sbag1
(g2
g3
NtRp362
(dp363
g46
V10.1093/nar/13.20.7327
p364
sg42
VNUCLEIC ACIDS RES
p365
sg44
V13
p366
sg73
(lp367
(VFORDE
VB G
tp368
asg52
I1985
sg40
V7327
p369
sbag1
(g2
g3
NtRp370
(dp371
g46
Nsg42
VMOL GEN GENET
p372
sg44
V256
p373
sg73
(lp374
(VGAVAZZI
VG
tp375
asg52
I1997
sg40
V223
p376
sbag1
(g2
g3
NtRp377
(dp378
g46
Nsg42
VCAN J BOT
p379
sg44
V70
p380
sg73
(lp381
(VGIESE
VH
tp382
asg52
I1992
sg40
V313
p383
sbag1
(g2
g3
NtRp384
(dp385
g46
Nsg42
VPLANT PHYSIOL
p386
sg44
V106
p387
sg73
(lp388
(VGIROUX
VM J
tp389
asg52
I1994
sg40
VLANT
p390
sbag1
(g2
g3
NtRp391
(dp392
g46
V10.1105/tpc.010365
p393
sg42
VPLANT CELL
p394
sg44
V14
p395
sg73
(lp396
(VGOMEZ
VE
tp397
asg52
I2002
sg40
VLANT
p398
sbag1
(g2
g3
NtRp399
(dp400
g46
V10.1126/science.269.5228.1262
p401
sg42
VSCIENCE
p402
sg44
V269
p403
sg73
(lp404
(VGRAFI
VG
tp405
asg52
I1995
sg40
V1262
p406
sbag1
(g2
g3
NtRp407
(dp408
g46
V10.1073/pnas.93.17.8962
p409
sg42
VP NATL ACAD SCI USA
p410
sg44
V93
p411
sg73
(lp412
(VGRAFI
VG
tp413
asg52
I1996
sg40
V8962
p414
sbag1
(g2
g3
NtRp415
(dp416
g46
V10.1104/pp.106.080945
p417
sg42
VPLANT PHYSIOL
p418
sg44
V141
p419
sg73
(lp420
(VGRUIS
VD
tp421
asg52
I2006
sg40
VLANT
p422
sbag1
(g2
g3
NtRp423
(dp424
g46
V10.1046/j.1365-313X.2003.01852.x
p425
sg42
VPLANT J
p426
sg44
V36
p427
sg73
(lp428
(VGUO
VM
tp429
asg52
I2003
sg40
VLANT
p430
sbag1
(g2
g3
NtRp431
(dp432
g46
V10.1016/j.tplants.2007.06.003
p433
sg42
VTRENDS PLANT SCI
p434
sg44
V12
p435
sg73
(lp436
(VGUTIERREZ
VL
tp437
asg52
I2007
sg40
V294
p438
sbag1
(g2
g3
NtRp439
(dp440
g46
V10.1105/tpc.019778
p441
sg42
VPLANT CELL
p442
sg44
V16
p443
sg73
(lp444
(VGUTIERREZ-MARCOS
VJ F
tp445
asg52
I2004
sg40
VLANT
p446
sbag1
(g2
g3
NtRp447
(dp448
g46
V10.1038/ng1828
p449
sg42
VNAT GENET
p450
sg44
V38
p451
sg73
(lp452
(VGUTIERREZ-MARCOS
VJ F
tp453
asg52
I2006
sg40
V876
p454
sbag1
(g2
g3
NtRp455
(dp456
g46
V10.1105/tpc.105.039594
p457
sg42
VPLANT CELL
p458
sg44
V19
p459
sg73
(lp460
(VGUTIERREZ-MARCOS
VJ F
tp461
asg52
I2007
sg40
VLANT
p462
sbag1
(g2
g3
NtRp463
(dp464
g46
V10.1534/genetics.106.059709
p465
sg42
VGENETICS
p466
sg44
V174
p467
sg73
(lp468
(VGUTIERREZ-MARCOS
VJ F
tp469
asg52
I2006
sg40
V317
p470
sbag1
(g2
g3
NtRp471
(dp472
g46
V10.1098/rstb.2003.1292
p473
sg42
VPHILOS T ROY SOC B
p474
sg44
V358
p475
sg73
(lp476
(VGUTIERREZ-MARCOS
VJ F
tp477
asg52
I2003
sg40
VHILOS
p478
sbag1
(g2
g3
NtRp479
(dp480
g46
V10.1016/0168-9452(89)90083-6
p481
sg42
VPLANT SCI
p482
sg44
V62
p483
sg73
(lp484
(VHALFORD
VN G
tp485
asg52
I1989
sg40
VLANT
p486
sbag1
(g2
g3
NtRp487
(dp488
g46
V10.1007/7089_2007_114
p489
sg42
VENDOSPERM
p490
sg44
V8
sg73
(lp491
(VHALFORD
VN G
tp492
asg52
I2007
sg40
V195
p493
sbag1
(g2
g3
NtRp494
(dp495
g46
V10.1046/j.1467-7652.2003.00046.x
p496
sg42
VPLANT BIOTECHNOL J
p497
sg44
V1
sg73
(lp498
(VHALFORD
VN G
tp499
asg52
I2003
sg40
VLANT
p500
sbag1
(g2
g3
NtRp501
(dp502
g46
V10.1007/7089_2007_116
p503
sg42
VENDOSPERM
p504
sg44
V8
sg73
(lp505
(VHANNAH
VL C
tp506
asg52
I2007
sg40
V179
p507
sbag1
(g2
g3
NtRp508
(dp509
g46
V10.1126/science.1099859
p510
sg42
VSCIENCE
p511
sg44
V305
p512
sg73
(lp513
(VHATSUGAI
VN
tp514
asg52
I2004
sg40
V855
p515
sbag1
(g2
g3
NtRp516
(dp517
g46
Nsg42
VPLANT CELL
p518
sg44
V11
p519
sg73
(lp520
(VHERMAN
VE M
tp521
asg52
I1999
sg40
VLANT
p522
sbag1
(g2
g3
NtRp523
(dp524
g46
V10.1007/s11103-007-9160-0
p525
sg42
VPLANT MOL BIOL
p526
sg44
V64
p527
sg73
(lp528
(VHERMON
VP
tp529
asg52
I2007
sg40
VLANT
p530
sbag1
(g2
g3
NtRp531
(dp532
g46
V10.1101/gad.9.20.2459
p533
sg42
VGENE DEV
p534
sg44
V9
sg73
(lp535
(VHOECKER
VU
tp536
asg52
I1995
sg40
V2459
p537
sbag1
(g2
g3
NtRp538
(dp539
g46
V10.1046/j.1365-313X.1999.00521.x
p540
sg42
VPLANT J
p541
sg44
V19
p542
sg73
(lp543
(VHOECKER
VU
tp544
asg52
I1999
sg40
VLANT
p545
sbag1
(g2
g3
NtRp546
(dp547
g46
Nsg42
VMAYDICA
p548
sg44
V51
p549
sg73
(lp550
(VHOLDING
VD R
tp551
asg52
I2006
sg40
V243
p552
sbag1
(g2
g3
NtRp553
(dp554
g46
V10.1105/tpc.107/053538
p555
sg42
VPLANT CELL
p556
sg44
V19
p557
sg73
(lp558
(VHOLDING
VD R
tp559
asg52
I2007
sg40
VLANT
p560
sbag1
(g2
g3
NtRp561
(dp562
g46
V10.1016/j.cell.2008.02.018
p563
sg42
VCELL
p564
sg44
V132
p565
sg73
(lp566
(VHUH
VJ H
tp567
asg52
I2008
sg40
V735
p568
sbag1
(g2
g3
NtRp569
(dp570
g46
V10.1105/tpc.003905
p571
sg42
VPLANT CELL
p572
sg44
V14
p573
sg73
(lp574
(VHUNTER
VB G
tp575
asg52
I2002
sg40
VLANT
p576
sbag1
(g2
g3
NtRp577
(dp578
g46
V10.1146/annurev.genet.40.110405.090431
p579
sg42
VANNU REV GENET
p580
sg44
V40
p581
sg73
(lp582
(VINZE
VD
tp583
asg52
I2006
sg40
V77
p584
sbag1
(g2
g3
NtRp585
(dp586
g46
V10.1126/science.1089056
p587
sg42
VSCIENCE
p588
sg44
V302
p589
sg73
(lp590
(VJAENICKE-DESPRES
VV
tp591
asg52
I2003
sg40
V1206
p592
sbag1
(g2
g3
NtRp593
(dp594
g46
V10.1111/j.1399-3054.2008.01106.x
p595
sg42
VPHYSIOL PLANTARUM
p596
sg44
V134
p597
sg73
(lp598
(VJAIN
VM
tp599
asg52
I2008
sg40
VHYSIOL
p600
sbag1
(g2
g3
NtRp601
(dp602
g46
V10.1016/j.jplph.2006.12.003
p603
sg42
VJ PLANT PHYSIOL
p604
sg44
V165
p605
sg73
(lp606
(VJAIN
VM
tp607
asg52
I2008
sg40
V331
p608
sbag1
(g2
g3
NtRp609
(dp610
g46
V10.1016/S1369-5266(03)00042-6
p611
sg42
VCURR OPIN PLANT BIOL
p612
sg44
V6
sg73
(lp613
(VJAMES
VM G
tp614
asg52
I2003
sg40
V215
p615
sbag1
(g2
g3
NtRp616
(dp617
g46
Nsg42
VCROP SCI
p618
sg44
V15
p619
sg73
(lp620
(VJARVI
VA J
tp621
asg52
I1975
sg40
V363
p622
sbag1
(g2
g3
NtRp623
(dp624
g46
Nsg42
VCROP SCI
p625
sg44
V36
p626
sg73
(lp627
(VJONES
VR J
tp628
asg52
I1996
sg40
V301
p629
sbag1
(g2
g3
NtRp630
(dp631
g46
V10.1371/journal.pbio.0060194
p632
sg42
VPLOS BIOL
p633
sg44
V6
sg73
(lp634
(VJULLIEN
VP E
tp635
asg52
I2008
sg40
VLOS
p636
sbag1
(g2
g3
NtRp637
(dp638
g46
V10.1016/j.plaphy.2005.06.004
p639
sg42
VPLANT PHYSIOL BIOCH
p640
sg44
V43
p641
sg73
(lp642
(VKANEGAE
VH
tp643
asg52
I2005
sg40
VLANT
p644
sbag1
(g2
g3
NtRp645
(dp646
g46
Nsg42
VGENETICS
p647
sg44
V66
p648
sg73
(lp649
(VKERMICLE
VJ L
tp650
asg52
I1970
sg40
V69
p651
sbag1
(g2
g3
NtRp652
(dp653
g46
V10.2307/2438703
p654
sg42
VAM J BOT
p655
sg44
V39
p656
sg73
(lp657
(VKIESSELBACH
VT A
tp658
asg52
I1952
sg40
V561
p659
sbag1
(g2
g3
NtRp660
(dp661
g46
Nsg42
VSTRUCTURE REPROD COR
p662
sg44
Nsg73
(lp663
(VKIESSELBACH
VT A
tp664
asg52
I1999
sg40
Nsbag1
(g2
g3
NtRp665
(dp666
g46
Nsg42
VRES B U NEBRASKA COL
p667
sg44
V161
p668
sg73
(lp669
(VKIESSELBACH
VT A
tp670
asg52
I1949
sg40
Nsbag1
(g2
g3
NtRp671
(dp672
g46
V10.1104/pp.103.031310
p673
sg42
VPLANT PHYSIOL
p674
sg44
V134
p675
sg73
(lp676
(VKIM
VC S
tp677
asg52
I2004
sg40
VLANT
p678
sbag1
(g2
g3
NtRp679
(dp680
g46
V10.1016/j.jcs.2005.09.004
p681
sg42
VJ CEREAL SCI
p682
sg44
V43
p683
sg73
(lp684
(VKLADNIK
VA
tp685
asg52
I2006
sg40
V209
p686
sbag1
(g2
g3
NtRp687
(dp688
g46
Nsg42
VINT REV CYTOL
p689
sg44
V112
p690
sg73
(lp691
(VKOWLES
VR
tp692
asg52
I1988
sg40
V97
p693
sbag1
(g2
g3
NtRp694
(dp695
g46
V10.1073/pnas.82.20.7010
p696
sg42
VP NATL ACAD SCI USA
p697
sg44
V82
p698
sg73
(lp699
(VKOWLES
VR V
tp700
asg52
I1985
sg40
V7010
p701
sbag1
(g2
g3
NtRp702
(dp703
g46
Nsg42
VGENOME
p704
sg44
V35
p705
sg73
(lp706
(VKOWLES
VR V
tp707
asg52
I1992
sg40
V68
p708
sbag1
(g2
g3
NtRp709
(dp710
g46
V10.1139/g97-803
p711
sg42
VGENOME
p712
sg44
V40
p713
sg73
(lp714
(VKOWLES
VR V
tp715
asg52
I1997
sg40
V798
p716
sbag1
(g2
g3
NtRp717
(dp718
g46
V10.1016/0022-2836(85)90017-8
p719
sg42
VJ MOL BIOL
p720
sg44
V183
p721
sg73
(lp722
(VKREIS
VM
tp723
asg52
I1985
sg40
V499
p724
sbag1
(g2
g3
NtRp725
(dp726
g46
V10.1007/BF00392095
p727
sg42
VPLANTA
p728
sg44
V169
p729
sg73
(lp730
(VKRISHNAN
VH B
tp731
asg52
I1986
sg40
VLANTA
p732
sbag1
(g2
g3
NtRp733
(dp734
g46
V10.1093/pcp/pci506
p735
sg42
VPLANT CELL PHYSIOL
p736
sg44
V46
p737
sg73
(lp738
(VKURATA
VN
tp739
asg52
I2005
sg40
VLANT
p740
sbag1
(g2
g3
NtRp741
(dp742
g46
V10.1093/jexbot/52.355.183
p743
sg42
VJ EXP BOT
p744
sg44
V52
p745
sg73
(lp746
(VLARKINS
VB A
tp747
asg52
I2001
sg40
V183
p748
sbag1
(g2
g3
NtRp749
(dp750
g46
V10.1104/pp.62.2.256
p751
sg42
VPLANT PHYSIOL
p752
sg44
V62
p753
sg73
(lp754
(VLARKINS
VB A
tp755
asg52
I1978
sg40
VLANT
p756
sbag1
(g2
g3
NtRp757
(dp758
g46
V10.1007/s00122-008-0799-y
p759
sg42
VTHEOR APPL GENET
p760
sg44
V117
p761
sg73
(lp762
(VLAUDENCIA-CHINGCUANCO
VD L
tp763
asg52
I2008
sg40
V555
p764
sbag1
(g2
g3
NtRp765
(dp766
g46
V10.1007/s11103-006-9114-y
p767
sg42
VPLANT MOL BIOL
p768
sg44
V63
p769
sg73
(lp770
(VLAUDENCIA-CHINGCUANCO
VD L
tp771
asg52
I2007
sg40
VLANT
p772
sbag1
(g2
g3
NtRp773
(dp774
g46
V10.1046/j.1365-313X.2002.01491.x
p775
sg42
VPLANT J
p776
sg44
V32
p777
sg73
(lp778
(VLEBLANC
VO
tp779
asg52
I2002
sg40
VLANT
p780
sbag1
(g2
g3
NtRp781
(dp782
g46
Nsg42
VSEED PROTEINS
p783
sg44
Nsg73
(lp784
(VLEITE
VA
tp785
asg52
I1999
sg40
V141
p786
sbag1
(g2
g3
NtRp787
(dp788
g46
V10.1105/tpc.022178
p789
sg42
VPLANT CELL
p790
sg44
V16
p791
sg73
(lp792
(VLEIVA-NETO
VJ T
tp793
asg52
I2004
sg40
VLANT
p794
sbag1
(g2
g3
NtRp795
(dp796
g46
V10.1007/s00425-003-1116-2
p797
sg42
VPLANTA
p798
sg44
V218
p799
sg73
(lp800
(VLID
VS E
tp801
asg52
I2004
sg40
VLANTA
p802
sbag1
(g2
g3
NtRp803
(dp804
g46
V10.1073/pnas.042098799
p805
sg42
VP NATL ACAD SCI USA
p806
sg44
V99
p807
sg73
(lp808
(VLID
VS E
tp809
asg52
I2002
sg40
V5460
p810
sbag1
(g2
g3
NtRp811
(dp812
g46
Nsg42
VGENETICS
p813
sg44
V107
p814
sg73
(lp815
(VLIN
VB Y
tp816
asg52
I1984
sg40
V103
p817
sbag1
(g2
g3
NtRp818
(dp819
g46
Nsg42
VCAN J GENET CYTOL
p820
sg44
V20
p821
sg73
(lp822
(VLIN
VB Y
tp823
asg52
I1978
sg40
V249
p824
sbag1
(g2
g3
NtRp825
(dp826
g46
Nsg42
VPLANT CELL
p827
sg44
V5
sg73
(lp828
(VLOPES
VM A
tp829
asg52
I1993
sg40
VLANT
p830
sbag1
(g2
g3
NtRp831
(dp832
g46
V10.1007/BF00290717
p833
sg42
VMOL GEN GENET
p834
sg44
V246
p835
sg73
(lp836
(VLUND
VG
tp837
asg52
I1995
sg40
V716
p838
sbag1
(g2
g3
NtRp839
(dp840
g46
V10.1046/j.1365-313X.1995.8040571.x
p841
sg42
VPLANT J
p842
sg44
V8
sg73
(lp843
(VLUND
VG
tp844
asg52
I1995
sg40
VLANT
p845
sbag1
(g2
g3
NtRp846
(dp847
g46
V10.1023/B:PLAN.0000023672.37089.00
p848
sg42
VPLANT MOL BIOL
p849
sg44
V53
p850
sg73
(lp851
(VMAGNARD
VJ L
tp852
asg52
I2003
sg40
VLANT
p853
sbag1
(g2
g3
NtRp854
(dp855
g46
V10.1007/s11103-008-9325-5
p856
sg42
VPLANT MOL BIOL
p857
sg44
V67
p858
sg73
(lp859
(VMARZABAL
VP
tp860
asg52
I2008
sg40
VLANT
p861
sbag1
(g2
g3
NtRp862
(dp863
g46
V10.1105/tpc.1.5.523
p864
sg42
VPLANT CELL
p865
sg44
V1
sg73
(lp866
(VMCCARTY
VD R
tp867
asg52
I1989
sg40
VLANT
p868
sbag1
(g2
g3
NtRp869
(dp870
g46
V10.2307/2997143
p871
sg42
VBULL TORREY BOT CLUB
p872
sg44
V81
p873
sg73
(lp874
(VNARAYANASWAMI
VS
tp875
asg52
I1954
sg40
V288
p876
sbag1
(g2
g3
NtRp877
(dp878
g46
Nsg42
VAdvances in Cereal Science and Technology
p879
sg44
V3
sg73
(lp880
(VNELSON
VO E
tp881
asg52
I1980
sg40
V41
p882
sbag1
(g2
g3
NtRp883
(dp884
g46
Nsg42
VGENETICS
p885
sg44
V95
p886
sg73
(lp887
(VNEUFFER
VM G
tp888
asg52
I1980
sg40
V929
p889
sbag1
(g2
g3
NtRp890
(dp891
g46
V10.1007/7089_2007_107
p892
sg42
VENDOSPERM
p893
sg44
V8
sg73
(lp894
(VNGUYEN
VH N
tp895
asg52
I2007
sg40
V21
p896
sbag1
(g2
g3
NtRp897
(dp898
g46
V10.1038/ng1694
p899
sg42
VNAT GENET
p900
sg44
V38
p901
sg73
(lp902
(VNOWACK
VM K
tp903
asg52
I2006
sg40
V63
p904
sbag1
(g2
g3
NtRp905
(dp906
g46
V10.1104/pp.97.1.154
p907
sg42
VPLANT PHYSIOL
p908
sg44
V97
p909
sg73
(lp910
(VOBER
VE S
tp911
asg52
I1991
sg40
VLANT
p912
sbag1
(g2
g3
NtRp913
(dp914
g46
V10.1146/annurev.arplant.54.031902.134812
p915
sg42
VANNU REV PLANT BIOL
p916
sg44
V54
p917
sg73
(lp918
(VOFFLER
VC E
tp919
asg52
I2003
sg40
V431
p920
sbag1
(g2
g3
NtRp921
(dp922
g46
Nsg42
VJ BIOL CHEM
p923
sg44
V260
p924
sg73
(lp925
(VOKITA
VT W
tp926
asg52
I1985
sg40
V8203
p927
sbag1
(g2
g3
NtRp928
(dp929
g46
V10.1016/S1369-5266(02)00304-7
p930
sg42
VCURR OPIN PLANT BIOL
p931
sg44
V5
sg73
(lp932
(VOKITA
VT W
tp933
asg52
I2002
sg40
V553
p934
sbag1
(g2
g3
NtRp935
(dp936
g46
V10.1146/annurev.arplant.52.1.233
p937
sg42
VANNU REV PLANT PHYS
p938
sg44
V52
p939
sg73
(lp940
(VOLSEN
VO A
tp941
asg52
I2001
sg40
V233
p942
sbag1
(g2
g3
NtRp943
(dp944
g46
V10.1016/S1360-1385(99)01431-4
p945
sg42
VTRENDS PLANT SCI
p946
sg44
V4
sg73
(lp947
(VOLSEN
VO A
tp948
asg52
I1999
sg40
V253
p949
sbag1
(g2
g3
NtRp950
(dp951
g46
V10.1105/tpc.017111
p952
sg42
VPLANT CELL
p953
sg44
V16
p954
sg73
(lp955
(VOLSEN
VO A
tp956
asg52
I2004
sg40
VLANT
p957
sbag1
(g2
g3
NtRp958
(dp959
g46
Nsg42
VENDOSPERM DEV MOL BI
p960
sg44
V8
sg73
(lp961
(VOLSEN
VO A
tp962
asg52
I2007
sg40
Nsbag1
(g2
g3
NtRp963
(dp964
g46
V10.1093/aob/mcn017
p965
sg42
VANN BOT
p966
sg44
V101
p967
sg73
(lp968
(VPENNINGTON
VP D
tp969
asg52
I2008
sg40
V833
p970
sbag1
(g2
g3
NtRp971
(dp972
g46
V10.1007/BF01279474
p973
sg42
VPROTOPLASMA
p974
sg44
V203
p975
sg73
(lp976
(VPOLIZZI
VE
tp977
asg52
I1998
sg40
VROTOPLASMA
p978
sbag1
(g2
g3
NtRp979
(dp980
g46
V10.1105/tpc.106.041335
p981
sg42
VPLANT CELL
p982
sg44
V18
p983
sg73
(lp984
(VRADCHUK
VV
tp985
asg52
I2006
sg40
VLANT
p986
sbag1
(g2
g3
NtRp987
(dp988
g46
Nsg42
VANN BOT
p989
sg44
V64
p990
sg73
(lp991
(VRAMACHANDRAN
VC
tp992
asg52
I1989
sg40
V459
p993
sbag1
(g2
g3
NtRp994
(dp995
g46
Nsg42
VJ AGRIC RES
p996
sg44
V53
p997
sg73
(lp998
(VRANDOLPH
VL F
tp999
asg52
I1936
sg40
V0881
p1000
sbag1
(g2
g3
NtRp1001
(dp1002
g46
Nsg42
VMAYDICA
p1003
sg44
V28
p1004
sg73
(lp1005
(VREDDY
VV M
tp1006
asg52
I1983
sg40
V339
p1007
sbag1
(g2
g3
NtRp1008
(dp1009
g46
V10.1111/j.1365-313X.2005.02352.x
p1010
sg42
VPLANT J
p1011
sg44
V42
p1012
sg73
(lp1013
(VROLLETSCHEK
VH
tp1014
asg52
I2005
sg40
VLANT
p1015
sbag1
(g2
g3
NtRp1016
(dp1017
g46
V10.2307/2443665
p1018
sg42
VAM J BOT
p1019
sg44
V71
p1020
sg73
(lp1021
(VROST
VT L
tp1022
asg52
I1984
sg40
V948
p1023
sbag1
(g2
g3
NtRp1024
(dp1025
g46
Nsg42
VTHEOR APPL GENET
p1026
sg44
V83
p1027
sg73
(lp1028
(VSABELLI
VP A
tp1029
asg52
I1991
sg40
V209
p1030
sbag1
(g2
g3
NtRp1031
(dp1032
g46
V10.1002/9780470988923.ch13
p1033
sg42
VCELL CYCLE CONTROL P
p1034
sg44
Nsg73
(lp1035
(VSABELLI
VP A
tp1036
asg52
I2007
sg40
V294
p1037
sbag1
(g2
g3
NtRp1038
(dp1039
g46
Nsg42
VMAYDICA
p1040
sg44
V50
p1041
sg73
(lp1042
(VSABELLI
VP A
tp1043
asg52
I2005
sg40
V485
p1044
sbag1
(g2
g3
NtRp1045
(dp1046
g46
V10.4161/cc.5.4.2428
p1047
sg42
VCELL CYCLE
p1048
sg44
V5
sg73
(lp1049
(VSABELLI
VP A
tp1050
asg52
I2006
sg40
V352
p1051
sbag1
(g2
g3
NtRp1052
(dp1053
g46
V10.1007/7089_2007_123
p1054
sg42
VCELL DIVISION CONTRO
p1055
sg44
V9
sg73
(lp1056
(VSABELLI
VP A
tp1057
asg52
I2008
sg40
V75
p1058
sbag1
(g2
g3
NtRp1059
(dp1060
g46
V10.1073/pnas.0506160102
p1061
sg42
VP NATL ACAD SCI USA
p1062
sg44
V102
p1063
sg73
(lp1064
(VSABELLI
VP A
tp1065
asg52
I2005
sg40
V13005
p1066
sbag1
(g2
g3
NtRp1067
(dp1068
g46
Nsg42
VJPN J BREED
p1069
sg44
V31
p1070
sg73
(lp1071
(VSATOH
VH
tp1072
asg52
I1981
sg40
V316
p1073
sbag1
(g2
g3
NtRp1074
(dp1075
g46
Nsg42
VGENETICS
p1076
sg44
V136
p1077
sg73
(lp1078
(VSCANLON
VM J
tp1079
asg52
I1994
sg40
V281
p1080
sbag1
(g2
g3
NtRp1081
(dp1082
g46
V10.1073/pnas.87.1.46
p1083
sg42
VP NATL ACAD SCI USA
p1084
sg44
V87
p1085
sg73
(lp1086
(VSCHMIDT
VR J
tp1087
asg52
I1990
sg40
V46
p1088
sbag1
(g2
g3
NtRp1089
(dp1090
g46
Nsg42
VPLANT CELL
p1091
sg44
V4
sg73
(lp1092
(VSCHMIDT
VR J
tp1093
asg52
I1992
sg40
VLANT
p1094
sbag1
(g2
g3
NtRp1095
(dp1096
g46
V10.1017/S1479262108986512
p1097
sg42
VPlant Genetic Resources Characterization and Utilization
p1098
sg44
V6
sg73
(lp1099
(VSHAPTER
VF M
tp1100
asg52
I2008
sg40
Vlant
p1101
sbag1
(g2
g3
NtRp1102
(dp1103
g46
V10.1073/pnas.0732023100
p1104
sg42
VP NATL ACAD SCI USA
p1105
sg44
V100
p1106
sg73
(lp1107
(VSHEN
VB
tp1108
asg52
I2003
sg40
V6552
p1109
sbag1
(g2
g3
NtRp1110
(dp1111
g46
V10.1016/S0065-2660(03)01003-4
p1112
sg42
VADV GENET
p1113
sg44
V49
p1114
sg73
(lp1115
(VSHEWRY
VP R
tp1116
asg52
I2003
sg40
V111
p1117
sbag1
(g2
g3
NtRp1118
(dp1119
g46
V10.1093/jexbot/53.370.947
p1120
sg42
VJ EXP BOT
p1121
sg44
V53
p1122
sg73
(lp1123
(VSHEWRY
VP R
tp1124
asg52
I2002
sg40
V947
p1125
sbag1
(g2
g3
NtRp1126
(dp1127
g46
Nsg42
VSEED TECHNOLOGY ITS
p1128
sg44
Nsg73
(lp1129
(VSHEWRY
VP R
tp1130
asg52
I2000
sg40
V42
p1131
sbag1
(g2
g3
NtRp1132
(dp1133
g46
V10.1016/S1369-5266(99)80039-9
p1134
sg42
VCURR OPIN PLANT BIOL
p1135
sg44
V2
sg73
(lp1136
(VSMITH
VA M
tp1137
asg52
I1999
sg40
V223
p1138
sbag1
(g2
g3
NtRp1139
(dp1140
g46
V10.1104/pp.107.111781
p1141
sg42
VPLANT PHYSIOL
p1142
sg44
V146
p1143
sg73
(lp1144
(VSREENIVASULU
VN
tp1145
asg52
I2008
sg40
VLANT
p1146
sbag1
(g2
g3
NtRp1147
(dp1148
g46
V10.1111/j.1365-313X.2006.02789.x
p1149
sg42
VPLANT J
p1150
sg44
V47
p1151
sg73
(lp1152
(VSREENIVASULU
VN
tp1153
asg52
I2006
sg40
VLANT
p1154
sbag1
(g2
g3
NtRp1155
(dp1156
g46
V10.1046/j.1365-313X.2003.01981.x
p1157
sg42
VPLANT J
p1158
sg44
V37
p1159
sg73
(lp1160
(VSREENIVASULU
VN
tp1161
asg52
I2004
sg40
VLANT
p1162
sbag1
(g2
g3
NtRp1163
(dp1164
g46
V10.1023/A:1006315625486
p1165
sg42
VPLANT MOL BIOL
p1166
sg44
V41
p1167
sg73
(lp1168
(VSUN
VY J
tp1169
asg52
I1999
sg40
VLANT
p1170
sbag1
(g2
g3
NtRp1171
(dp1172
g46
V10.1073/pnas.96.7.4180
p1173
sg42
VP NATL ACAD SCI USA
p1174
sg44
V96
p1175
sg73
(lp1176
(VSUN
VY J
tp1177
asg52
I1999
sg40
V4180
p1178
sbag1
(g2
g3
NtRp1179
(dp1180
g46
Nsg42
VCLONAL BASIS DEV
p1181
sg44
Nsg73
(lp1182
(VSUSSEX
VI M
tp1183
asg52
I1978
sg40
V217
p1184
sbag1
(g2
g3
NtRp1185
(dp1186
g46
V10.2307/2483625
p1187
sg42
VB TORREY BOT CLUB
p1188
sg44
V98
p1189
sg73
(lp1190
(VTERRELL
VE E
tp1191
asg52
I1971
sg40
V264
p1192
sbag1
(g2
g3
NtRp1193
(dp1194
g46
V10.1105/tpc.106.048868
p1195
sg42
VPLANT CELL
p1196
sg44
V19
p1197
sg73
(lp1198
(VTIAN
VQ
tp1199
asg52
I2007
sg40
VLANT
p1200
sbag1
(g2
g3
NtRp1201
(dp1202
g46
Nsg42
VMOL CELL BIOL
p1203
sg44
V14
p1204
sg73
(lp1205
(VUEDA
VT
tp1206
asg52
I1994
sg40
V4350
p1207
sbag1
(g2
g3
NtRp1208
(dp1209
g46
V10.1073/pnas.94.14.7685
p1210
sg42
VP NATL ACAD SCI USA
p1211
sg44
V94
p1212
sg73
(lp1213
(VVICENTECARBAJOSA
VJ
tp1214
asg52
I1997
sg40
V7685
p1215
sbag1
(g2
g3
NtRp1216
(dp1217
g46
V10.1387/ijdb.052046jc
p1218
sg42
VINT J DEV BIOL
p1219
sg44
V49
p1220
sg73
(lp1221
(VVICENTE-CARBAJOSA
VJ
tp1222
asg52
I2005
sg40
V645
p1223
sbag1
(g2
g3
NtRp1224
(dp1225
g46
V10.1104/pp.001826
p1226
sg42
VPLANT PHYSIOL
p1227
sg44
V129
p1228
sg73
(lp1229
(VVILHAR
VB
tp1230
asg52
I2002
sg40
VLANT
p1231
sbag1
(g2
g3
NtRp1232
(dp1233
g46
V10.1186/1471-2164-9-121
p1234
sg42
VBMC GENOMICS
p1235
sg44
V9
sg73
(lp1236
(VWAN
VY F
tp1237
asg52
I2008
sg40
Nsbag1
(g2
g3
NtRp1238
(dp1239
g46
V10.1093/pcp/pch210
p1240
sg42
VPLANT CELL PHYSIOL
p1241
sg44
V45
p1242
sg73
(lp1243
(VWASHIDA
VH
tp1244
asg52
I2004
sg40
VLANT
p1245
sbag1
(g2
g3
NtRp1246
(dp1247
g46
V10.2307/2435927
p1248
sg42
VAM J BOT
p1249
sg44
V17
p1250
sg73
(lp1251
(VWEATHERWAX
VP
tp1252
asg52
I1930
sg40
V371
p1253
sbag1
(g2
g3
NtRp1254
(dp1255
g46
V10.1007/BF02104739
p1256
sg42
VJ MOL EVOL
p1257
sg44
V20
p1258
sg73
(lp1259
(VWILSON
VD R
tp1260
asg52
I1984
sg40
V330
p1261
sbag1
(g2
g3
NtRp1262
(dp1263
g46
V10.1007/s11103-004-3414-x
p1264
sg42
VPLANT MOL BIOL
p1265
sg44
V56
p1266
sg73
(lp1267
(VWISNIEWSKI
VJ P
tp1268
asg52
I2004
sg40
VLANT
p1269
sbag1
(g2
g3
NtRp1270
(dp1271
g46
V10.1515/BC.1999.116
p1272
sg42
VBIOL CHEM
p1273
sg44
V380
p1274
sg73
(lp1275
(VWOBUS
VU
tp1276
asg52
I1999
sg40
V937
p1277
sbag1
(g2
g3
NtRp1278
(dp1279
g46
V10.1016/S1369-5266(99)80007-7
p1280
sg42
VCURR OPIN PLANT BIOL
p1281
sg44
V2
sg73
(lp1282
(VWOBUS
VU
tp1283
asg52
I1999
sg40
V33
p1284
sbag1
(g2
g3
NtRp1285
(dp1286
g46
V10.1105/tpc.13.10.2297
p1287
sg42
VPLANT CELL
p1288
sg44
V13
p1289
sg73
(lp1290
(VWOO
VY M
tp1291
asg52
I2001
sg40
VLANT
p1292
sbag1
(g2
g3
NtRp1293
(dp1294
g46
V10.1073/pnas.0807026105
p1295
sg42
VP NATL ACAD SCI USA
p1296
sg44
V105
p1297
sg73
(lp1298
(VXU
VJ H
tp1299
asg52
I2008
sg40
V14330
p1300
sbag1
(g2
g3
NtRp1301
(dp1302
g46
Nsg42
VPLANT CELL PHYSIOL
p1303
sg44
V27
p1304
sg73
(lp1305
(VYAMAGATA
VH
tp1306
asg52
I1986
sg40
VLANT
p1307
sbag1
(g2
g3
NtRp1308
(dp1309
g46
V10.1023/A:1026588408152
p1310
sg42
VPLANT MOL BIOL
p1311
sg44
V44
p1312
sg73
(lp1313
(VYOUNG
VT E
tp1314
asg52
I2000
sg40
VLANT
p1315
sbag1
(g2
g3
NtRp1316
(dp1317
g46
Nsg42
VPLANT PHYSIOL
p1318
sg44
V115
p1319
sg73
(lp1320
(VYOUNG
VT E
tp1321
asg52
I1997
sg40
VLANT
p1322
sbag1
(g2
g3
NtRp1323
(dp1324
g46
V10.1023/A:1006333103342
p1325
sg42
VPLANT MOL BIOL
p1326
sg44
V42
p1327
sg73
(lp1328
(VYOUNG
VT E
tp1329
asg52
I2000
sg40
VLANT
p1330
sbasb.