ccopy_reg
_reconstructor
p1
(ctethne.classes.paper
Paper
p2
c__builtin__
object
p3
NtRp4
(dp5
S'publisherCity'
p6
VROCKVILLE
p7
sS'reprintAddress'
p8
VAltmann, T (reprint author), Max Planck Inst Mol Pflanzenphysiol, Dept Willmitzer, Muhlenberg 1, D-14476 Golm, Germany.
p9
sS'WC'
p10
VPlant Sciences
p11
sS'GA'
p12
V385BV
p13
sS'abstract'
p14
VThe morphological and physiological characteristics of Arabidopsis accessions differing in their phosphate acquisition efficiencies (PAEs) when grown on a sparingly soluble phosphate source (hydroxylapatite) were analyzed. A set of 36 accessions was subjected to an initial PAE evaluation following cultivation on synthetic, agarose-solidified media containing potassium phosphate (soluble) or hydroxylapatite (sparingly soluble). From the five most divergent accessions identified in this way, C24, Co, and Cal exhibited high PAEs, whereas Col-0 and Te exhibited low PAEs. These five accessions were analyzed in detail. Significant differences were found in root morphology, phosphate uptake kinetics, organic acid release, rhizosphere acidification, and the ability of roots to penetrate substrates. Long root hairs at high densities, high uptake per unit root length, and high substrate penetration ability in the efficient accessions C24 and Co mediate their high PAEs. The third accession with high PAE, Gal, exhibits a high shoot-to-root ratio, long roots with long root hairs, and rhizosphere acidification. These results are consistent with previous observations and highlight the suitability of using Arabidopsis accessions to identify and isolate genes determining the PAL in plants.
p15
sS'pageEnd'
p16
I1799
sS'publisherAddress'
p17
V15501 MONONA DRIVE, ROCKVILLE, MD 20855 USA
p18
sS'documentType'
p19
VArticle
p20
sS'subject'
p21
VPlant Sciences
p22
sS'isoSource'
p23
VPlant Physiol.
p24
sS'timesCited'
p25
(lp26
I58
aVZ9 70
p27
asS'PT'
p28
VJ
sS'title'
p29
VAnalysis Of Phosphate Acquisition Efficiency In Different Arabidopsis Accessions
p30
sS'ISSN'
p31
(lp32
V0032-0889
p33
aVJ9 PLANT PHYSIOL
p34
asS'authors_full'
p35
(lp36
(VNARANG
VRA
tp37
a(VBRUENE
VA
tp38
a(VALTMANN
VT
tp39
asS'PG'
p40
I14
sS'PD'
p41
VDEC
p42
sS'pageStart'
p43
I1786
sS'issue'
p44
I4
sS'journal'
p45
VPLANT PHYSIOLOGY
p46
sS'volume'
p47
V124
p48
sS'doi'
p49
V10.1104/pp.124.4.1786
p50
sS'authorAddress'
p51
VMax Planck Inst Mol Pflanzenphysiol, Dept Willmitzer, D-14476 Golm, Germany.
p52
sS'date'
p53
I2000
sS'ER'
p54
V
sS'publisher'
p55
VAMER SOC PLANT PHYSIOLOGISTS
p56
sS'authorKeywords'
p57
(lp58
VROOT HAIRS
p59
aVPHOSPHORUS ACQUISITION
p60
aVTRANSPORTER GENES
p61
aVLUPINUS-ALBUS
p62
aVWHITE LUPIN
p63
aVRAPE PLANTS
p64
aVTHALIANA
p65
aVSOIL
p66
aVRHIZOSPHERE
p67
aVDEFICIENT
p68
asS'language'
p69
VEnglish
p70
sS'wosid'
p71
VWOS:000165982500041
p72
sS'citationCount'
p73
I69
sS'authors_init'
p74
(lp75
(VNARANG
VR A
tp76
a(VBRUENE
VA
tp77
a(VALTMANN
VT
tp78
asS'citedReferences'
p79
(lp80
g1
(g2
g3
NtRp81
(dp82
g49
Nsg45
VMETHOD ENZYMOL
p83
sg47
Nsg74
(lp84
(VAMES
VB N
tp85
asg53
I1966
sg43
V115
p86
sbag1
(g2
g3
NtRp87
(dp88
g49
Nsg45
VROLE PHOSPHORUS AGR
p89
sg47
Nsg74
(lp90
(VANDERSON
VG
tp91
asg53
I1980
sg43
V411
p92
sbag1
(g2
g3
NtRp93
(dp94
g49
Nsg45
VAGRON J
p95
sg47
V72
p96
sg74
(lp97
(VANGHINONI
VI
tp98
asg53
I1980
sg43
V685
p99
sbag1
(g2
g3
NtRp100
(dp101
g49
Nsg45
VSOIL NUTR BIOAVAILAB
p102
sg47
Nsg74
(lp103
(VBARBER
VS A
tp104
asg53
I1995
sg43
Nsbag1
(g2
g3
NtRp105
(dp106
g49
V10.1021/jf60127a017
p107
sg45
VJ AGR FOOD CHEM
p108
sg47
V11
p109
sg74
(lp110
(VBARBER
VS A
tp111
asg53
I1963
sg43
V204
p112
sbag1
(g2
g3
NtRp113
(dp114
g49
Nsg45
VAM SOC AGRONOMY SPEC
p115
sg47
V49
p116
sg74
(lp117
(VBARBER
VS A
tp118
asg53
I1984
sg43
Nsbag1
(g2
g3
NtRp119
(dp120
g49
V10.1046/j.1365-313X.1994.6050673.x
p121
sg45
VPLANT J
p122
sg47
V6
sg74
(lp123
(VBARIOLA
VP A
tp124
asg53
I1994
sg43
VLANT
p125
sbag1
(g2
g3
NtRp126
(dp127
g49
Nsg45
VPLANT ROOTS HIDDEN H
p128
sg47
Nsg74
(lp129
(VBARYOSEF
VB
tp130
asg53
I1996
sg43
VLANT
p131
sbag1
(g2
g3
NtRp132
(dp133
g49
V10.1111/j.1365-3040.1996.tb00386.x
p134
sg45
VPLANT CELL ENVIRON
p135
sg47
V19
p136
sg74
(lp137
(VBATES
VT R
tp138
asg53
I1996
sg43
VLANT
p139
sbag1
(g2
g3
NtRp140
(dp141
g49
V10.1023/A:1004240706284
p142
sg45
VPLANT SOIL
p143
sg47
V189
p144
sg74
(lp145
(VBENGOUGH
VA G
tp146
asg53
I1997
sg43
VLANT
p147
sbag1
(g2
g3
NtRp148
(dp149
g49
V10.1007/BF00011330
p150
sg45
VPLANT SOIL
p151
sg47
V172
p152
sg74
(lp153
(VBOEUFTREMBLAY
VV
tp154
asg53
I1995
sg43
VLANT
p155
sbag1
(g2
g3
NtRp156
(dp157
g49
Nsg45
VNEW ZEAL J AGR RES
p158
sg47
V23
p159
sg74
(lp160
(VCARADUS
VJ R
tp161
asg53
I1980
sg43
V75
p162
sbag1
(g2
g3
NtRp163
(dp164
g49
V10.1104/pp.121.2.429
p165
sg45
VPLANT PHYSIOL
p166
sg47
V121
p167
sg74
(lp168
(VCHUNG
VH J
tp169
asg53
I1999
sg43
VLANT
p170
sbag1
(g2
g3
NtRp171
(dp172
g49
V10.1007/s004250050394
p173
sg45
VPLANTA
p174
sg47
V206
p175
sg74
(lp176
(VDARAM
VP
tp177
asg53
I1998
sg43
VLANTA
p178
sbag1
(g2
g3
NtRp179
(dp180
g49
Nsg45
VPLANT PHYSIOL
p181
sg47
V107
p182
sg74
(lp183
(VDELHAIZE
VE
tp184
asg53
I1995
sg43
VLANT
p185
sbag1
(g2
g3
NtRp186
(dp187
g49
V10.1111/j.1365-3040.1989.tb01942.x
p188
sg45
VPLANT CELL ENVIRON
p189
sg47
V12
p190
sg74
(lp191
(VDINKELAKER
VB
tp192
asg53
I1989
sg43
VLANT
p193
sbag1
(g2
g3
NtRp194
(dp195
g49
V10.1046/j.1365-3040.1999.00500.x
p196
sg45
VPLANT CELL ENVIRON
p197
sg47
V22
p198
sg74
(lp199
(VDONG
VB
tp200
asg53
I1999
sg43
VLANT
p201
sbag1
(g2
g3
NtRp202
(dp203
g49
V10.1007/BF00411136
p204
sg45
VPLANTA
p205
sg47
V160
p206
sg74
(lp207
(VDREW
VM C
tp208
asg53
I1984
sg43
VLANTA
p209
sbag1
(g2
g3
NtRp210
(dp211
g49
V10.1104/pp.90.4.1275
p212
sg45
VPLANT PHYSIOL
p213
sg47
V90
p214
sg74
(lp215
(VDUFF
VS M G
tp216
asg53
I1989
sg43
VLANT
p217
sbag1
(g2
g3
NtRp218
(dp219
g49
Nsg45
VAUST J PLANT PHYSIOL
p220
sg47
V24
p221
sg74
(lp222
(VDUNLOP
VJ
tp223
asg53
I1997
sg43
V623
p224
sbag1
(g2
g3
NtRp225
(dp226
g49
Nsg45
VNEW ZEAL J AGR RES
p227
sg47
V20
p228
sg74
(lp229
(VEVANS
VP S
tp230
asg53
I1977
sg43
V331
p231
sbag1
(g2
g3
NtRp232
(dp233
g49
Nsg45
VPLANT SOIL
p234
sg47
V132
p235
sg74
(lp236
(VFOHSE
VD
tp237
asg53
I1991
sg43
VLANT
p238
sbag1
(g2
g3
NtRp239
(dp240
g49
V10.1023/A:1004346412006
p241
sg45
VPLANT SOIL
p242
sg47
V198
p243
sg74
(lp244
(VGAHOONIA
VT S
tp245
asg53
I1998
sg43
VLANT
p246
sbag1
(g2
g3
NtRp247
(dp248
g49
V10.1023/A:1004270201418
p249
sg45
VPLANT SOIL
p250
sg47
V191
p251
sg74
(lp252
(VGAHOONIA
VT S
tp253
asg53
I1997
sg43
VLANT
p254
sbag1
(g2
g3
NtRp255
(dp256
g49
V10.1017/CBO9780511600395.003
p257
sg45
VSOC EXP BIOL SEMIN S
p258
sg47
V49
p259
sg74
(lp260
(VGOLDSTEIN
VA H
tp261
asg53
I1992
sg43
V25
p262
sbag1
(g2
g3
NtRp263
(dp264
g49
Nsg45
VANNU REV PLANT PHYS
p265
sg47
V45
p266
sg74
(lp267
(VGREEN
VP J
tp268
asg53
I1994
sg43
V421
p269
sbag1
(g2
g3
NtRp270
(dp271
g49
V10.1111/j.1469-8137.1982.tb03290.x
p272
sg45
VNEW PHYTOL
p273
sg47
V91
p274
sg74
(lp275
(VHEDLEY
VM J
tp276
asg53
I1982
sg43
V31
p277
sbag1
(g2
g3
NtRp278
(dp279
g49
Nsg45
V347 CIRC CAL AGR EXP
p280
sg47
Nsg74
(lp281
(VHOAGLAND
VD R
tp282
asg53
I1938
sg43
Nsbag1
(g2
g3
NtRp283
(dp284
g49
Nsg45
VNEW PHYTOL
p285
sg47
V122
p286
sg74
(lp287
(VHOFFLAND
VE
tp288
asg53
I1992
sg43
V675
p289
sbag1
(g2
g3
NtRp290
(dp291
g49
V10.1007/BF02280175
p292
sg45
VPLANT SOIL
p293
sg47
V113
p294
sg74
(lp295
(VHOFFLAND
VE
tp296
asg53
I1989
sg43
VLANT
p297
sbag1
(g2
g3
NtRp298
(dp299
g49
V10.1071/S96047
p300
sg45
VAUST J SOIL RES
p301
sg47
V35
p302
sg74
(lp303
(VHOLFORD
VI C R
tp304
asg53
I1997
sg43
V227
p305
sbag1
(g2
g3
NtRp306
(dp307
g49
V10.1080/01904169809365428
p308
sg45
VJ PLANT NUTR
p309
sg47
V21
p310
sg74
(lp311
(VHONDA
VC
tp312
asg53
I1998
sg43
V601
p313
sbag1
(g2
g3
NtRp314
(dp315
g49
Nsg45
VZ PFLANZ BODENKUNDE
p316
sg47
V159
p317
sg74
(lp318
(VHORST
VW J
tp319
asg53
I1996
sg43
V155
p320
sbag1
(g2
g3
NtRp321
(dp322
g49
V10.1080/01904169609365204
p323
sg45
VJ PLANT NUTR
p324
sg47
V19
p325
sg74
(lp326
(VJEONG
VB R
tp327
asg53
I1996
sg43
V1343
p328
sbag1
(g2
g3
NtRp329
(dp330
g49
Nsg45
VPLANT PHYSIOL
p331
sg47
V112
p332
sg74
(lp333
(VJOHNSON
VJ F
tp334
asg53
I1996
sg43
VLANT
p335
sbag1
(g2
g3
NtRp336
(dp337
g49
V10.1007/BF00009493
p338
sg45
VPLANT SOIL
p339
sg47
V158
p340
sg74
(lp341
(VJONES
VD L
tp342
asg53
I1994
sg43
VLANT
p343
sbag1
(g2
g3
NtRp344
(dp345
g49
V10.1007/BF00009256
p346
sg45
VPLANT SOIL
p347
sg47
V124
p348
sg74
(lp349
(VJUNGK
VA
tp350
asg53
I1990
sg43
VLANT
p351
sbag1
(g2
g3
NtRp352
(dp353
g49
V10.2307/2445435
p354
sg45
VAM J BOT
p355
sg47
V80
p356
sg74
(lp357
(VKARLSSON
VB H
tp358
asg53
I1993
sg43
V646
p359
sbag1
(g2
g3
NtRp360
(dp361
g49
Nsg45
VJ SOIL SCI
p362
sg47
V37
p363
sg74
(lp364
(VKETER
VJ K A
tp365
asg53
I1986
sg43
V89
p366
sbag1
(g2
g3
NtRp367
(dp368
g49
V10.1007/BF00009189
p369
sg45
VPLANT SOIL
p370
sg47
V133
p371
sg74
(lp372
(VKRANNITZ
VP G
tp373
asg53
I1991
sg43
VLANT
p374
sbag1
(g2
g3
NtRp375
(dp376
g49
V10.1104/pp.110.3.743
p377
sg45
VPLANT PHYSIOL
p378
sg47
V110
p379
sg74
(lp380
(VLARSEN
VP B
tp381
asg53
I1996
sg43
VLANT
p382
sbag1
(g2
g3
NtRp383
(dp384
g49
Nsg45
VANN BOT
p385
sg47
V50
p386
sg74
(lp387
(VLEE
VR B
tp388
asg53
I1982
sg43
V199
p389
sbag1
(g2
g3
NtRp390
(dp391
g49
Nsg45
VPLANT SOIL
p392
sg47
V27
p393
sg74
(lp394
(VLEWIS
VD G
tp395
asg53
I1967
sg43
VLANT
p396
sbag1
(g2
g3
NtRp397
(dp398
g49
V10.1080/01904169909365679
p399
sg45
VJ PLANT NUTR
p400
sg47
V22
p401
sg74
(lp402
(VLIAO
VH
tp403
asg53
I1999
sg43
V877
p404
sbag1
(g2
g3
NtRp405
(dp406
g49
V10.1104/pp.85.2.315
p407
sg45
VPLANT PHYSIOL
p408
sg47
V85
p409
sg74
(lp410
(VLIPTON
VD S
tp411
asg53
I1987
sg43
VLANT
p412
sbag1
(g2
g3
NtRp413
(dp414
g49
V10.1104/pp.116.1.91
p415
sg45
VPLANT PHYSIOL
p416
sg47
V116
p417
sg74
(lp418
(VLIU
VC M
tp419
asg53
I1998
sg43
VLANT
p420
sbag1
(g2
g3
NtRp421
(dp422
g49
V10.1104/pp.98.4.1472
p423
sg45
VPLANT PHYSIOL
p424
sg47
V98
p425
sg74
(lp426
(VLOFFLER
VA
tp427
asg53
I1992
sg43
VLANT
p428
sbag1
(g2
g3
NtRp429
(dp430
g49
Nsg45
VPLANT PHYSIOL
p431
sg47
V109
p432
sg74
(lp433
(VLYNCH
VJ
tp434
asg53
I1995
sg43
VLANT
p435
sbag1
(g2
g3
NtRp436
(dp437
g49
Nsg45
VCROP SCI
p438
sg47
V33
p439
sg74
(lp440
(VLYNCH
VJ
tp441
asg53
I1993
sg43
V1253
p442
sbag1
(g2
g3
NtRp443
(dp444
g49
Nsg45
VMINERAL NUTR HIGHER
p445
sg47
Nsg74
(lp446
(VMARSCHNER
VH
tp447
asg53
I1988
sg43
Nsbag1
(g2
g3
NtRp448
(dp449
g49
Nsg45
VZ PFLANZENPHYSIOL
p450
sg47
V111
p451
sg74
(lp452
(VMARSCHNER
VH
tp453
asg53
I1983
sg43
V241
p454
sbag1
(g2
g3
NtRp455
(dp456
g49
V10.1007/BF02376789
p457
sg45
VPLANT SOIL
p458
sg47
V105
p459
sg74
(lp460
(VMOORBY
VH
tp461
asg53
I1988
sg43
VLANT
p462
sbag1
(g2
g3
NtRp463
(dp464
g49
V10.1111/j.1399-3054.1962.tb08052.x
p465
sg45
VPHYSIOL PLANTARUM
p466
sg47
V15
p467
sg74
(lp468
(VMURASHIGE
VT
tp469
asg53
I1962
sg43
VHYSIOL
p470
sbag1
(g2
g3
NtRp471
(dp472
g49
V10.1023/A:1004380832118
p473
sg45
VPLANT SOIL
p474
sg47
V211
p475
sg74
(lp476
(VNEUMANN
VG
tp477
asg53
I1999
sg43
VLANT
p478
sbag1
(g2
g3
NtRp479
(dp480
g49
V10.1007/s004250050572
p481
sg45
VPLANTA
p482
sg47
V208
p483
sg74
(lp484
(VNEUMANN
VG
tp485
asg53
I1999
sg43
VLANTA
p486
sbag1
(g2
g3
NtRp487
(dp488
g49
V10.1007/BF01347964
p489
sg45
VPLANT SOIL
p490
sg47
V25
p491
sg74
(lp492
(VNYE
VP H
tp493
asg53
I1966
sg43
VLANT
p494
sbag1
(g2
g3
NtRp495
(dp496
g49
Nsg45
VPLANT SOIL
p497
sg47
V158
p498
sg74
(lp499
(VPLASSARD
VC
tp500
asg53
I1999
sg43
VLANT
p501
sbag1
(g2
g3
NtRp502
(dp503
g49
V10.1104/pp.97.3.1087
p504
sg45
VPLANT PHYSIOL
p505
sg47
V97
p506
sg74
(lp507
(VPOIRIER
VY
tp508
asg53
I1991
sg43
VLANT
p509
sbag1
(g2
g3
NtRp510
(dp511
g49
Nsg45
VAGRON J
p512
sg47
V78
p513
sg74
(lp514
(VPOTHULURI
VJ V
tp515
asg53
I1986
sg43
V991
p516
sbag1
(g2
g3
NtRp517
(dp518
g49
V10.1080/01904169709365240
p519
sg45
VJ PLANT NUTR
p520
sg47
V20
p521
sg74
(lp522
(VRAO
VI M
tp523
asg53
I1997
sg43
V155
p524
sbag1
(g2
g3
NtRp525
(dp526
g49
V10.1016/S1161-0301(97)00061-0
p527
sg45
VEUR J AGRON
p528
sg47
V8
sg74
(lp529
(VROMER
VW
tp530
asg53
I1998
sg43
V215
p531
sbag1
(g2
g3
NtRp532
(dp533
g49
Nsg45
VTHESIS NATL COLOMBIA
p534
sg47
Nsg74
(lp535
(VSADEGHIAN
VS
tp536
asg53
I1991
sg43
Nsbag1
(g2
g3
NtRp537
(dp538
g49
V10.1104/pp.116.2.447
p539
sg45
VPLANT PHYSIOL
p540
sg47
V116
p541
sg74
(lp542
(VSCHACHTMAN
VD P
tp543
asg53
I1998
sg43
VLANT
p544
sbag1
(g2
g3
NtRp545
(dp546
g49
Nsg45
VPLANT CELL
p547
sg47
V2
sg74
(lp548
(VSCHIEFELBEIN
VJ W
tp549
asg53
I1990
sg43
VLANT
p550
sbag1
(g2
g3
NtRp551
(dp552
g49
V10.1023/A:1004681229442
p553
sg45
VPLANT SOIL
p554
sg47
V209
p555
sg74
(lp556
(VSCHOTTELNDREIER
VM
tp557
asg53
I1999
sg43
VLANT
p558
sbag1
(g2
g3
NtRp559
(dp560
g49
Nsg45
VPLANT CELL PHYSIOL
p561
sg47
V36
p562
sg74
(lp563
(VSHIMOGAWARA
VK
tp564
asg53
I1995
sg43
VLANT
p565
sbag1
(g2
g3
NtRp566
(dp567
g49
Nsg45
VGENETIC ASPECTS PLAN
p568
sg47
Nsg74
(lp569
(VSMITH
VA D
tp570
asg53
I1993
sg43
V221
p571
sbag1
(g2
g3
NtRp572
(dp573
g49
V10.1046/j.1365-3040.1997.d01-4.x
p574
sg45
VPLANT CELL ENVIRON
p575
sg47
V20
p576
sg74
(lp577
(VTRULL
VM C
tp578
asg53
I1997
sg43
VLANT
p579
sbag1
(g2
g3
NtRp580
(dp581
g49
Nsg45
VROOT ECOLOGY ITS PRA
p582
sg47
Nsg74
(lp583
(VVANDENBOOGAARD
VH A G
tp584
asg53
I1992
sg43
V189
p585
sbasb.