ccopy_reg
_reconstructor
p1
(ctethne.classes.paper
Paper
p2
c__builtin__
object
p3
NtRp4
(dp5
S'publisherCity'
p6
VROCKVILLE
p7
sS'WC'
p8
VPlant Sciences
p9
sS'pageEnd'
p10
I1105
sS'publisherAddress'
p11
V15501 MONONA DRIVE, ROCKVILLE, MD 20855 USA
p12
sS'documentType'
p13
VCorrection
p14
sS'subject'
p15
VPlant Sciences
p16
sS'isoSource'
p17
VPlant Physiol.
p18
sS'timesCited'
p19
(lp20
I0
aVZ9 0
p21
asS'PT'
p22
VJ
sS'title'
p23
VPositive Fluorescent Selection Permits Precise, Rapid, And In-Depth Overexpression Analysis In Plant Protoplasts. (Vol 149, Pg 1231, 2009)
p24
sS'ISSN'
p25
(lp26
V0032-0889
p27
aVJ9 PLANT PHYSIOL
p28
asS'authors_full'
p29
(lp30
(VBARGMANN
VB O R
tp31
a(VBIRNBAUM
VK D
tp32
asS'PG'
p33
I1
sS'PD'
p34
VJUN
p35
sS'pageStart'
p36
I1105
sS'issue'
p37
I2
sS'journal'
p38
VPLANT PHYSIOLOGY
p39
sS'volume'
p40
V150
p41
sS'GA'
p42
V454EB
p43
sS'date'
p44
I2009
sS'ER'
p45
V
sS'publisher'
p46
VAMER SOC PLANT BIOLOGISTS
p47
sS'doi'
p48
V10.1104/pp.109.900292
p49
sS'language'
p50
VEnglish
p51
sS'wosid'
p52
VWOS:000266663700047
p53
sS'citationCount'
p54
I1
sS'authors_init'
p55
(lp56
(VBARGMANN
VB O R
tp57
a(VBIRNBAUM
VK D
tp58
asS'citedReferences'
p59
(lp60
g1
(g2
g3
NtRp61
(dp62
g48
V10.1104/pp.108.133975
p63
sg38
VPLANT PHYSIOL
p64
sg40
V149
p65
sg55
(lp66
(VBARGMANN
VB O R
tp67
asg44
I2009
sg36
VLANT
p68
sbasb.