ccopy_reg
_reconstructor
p1
(ctethne.classes.paper
Paper
p2
c__builtin__
object
p3
NtRp4
(dp5
S'publisherCity'
p6
VROCKVILLE
p7
sS'reprintAddress'
p8
VHannah, LC (reprint author), Univ Florida, Program Plant Mol & Cellular Biol & Hort Sci, Gainesville, FL 32610 USA.
p9
sS'WC'
p10
VPlant Sciences
p11
sS'GA'
p12
V490RS
p13
sS'FX'
p14
(lp15
VThis work was supported by the National Science Foundation (grant nos.
p16
aVIBN-0444031 and IOS-0815104 to L. C. H.) and the U. S. Department of
p17
aVAgriculture Competitive Grants Program (grant nos. 2006-35100-17220 and
p18
aV2008-35318-18649 to L. C. H.).
p19
asS'abstract'
p20
VADP-glucose pyrophosphorylase (AGPase) catalyzes a rate-limiting step in glycogen and starch synthesis in bacteria and plants, respectively. Plant AGPase consists of two large and two small subunits that were derived by gene duplication. AGPase large subunits have functionally diverged, leading to different kinetic and allosteric properties. Amino acid changes that could account for these differences were identified previously by evolutionary analysis. In this study, these large subunit residues were mapped onto a modeled structure of the maize (Zea mays) endosperm enzyme. Surprisingly, of 29 amino acids identified via evolutionary considerations, 17 were located at subunit interfaces. Fourteen of the 29 amino acids were mutagenized in the maize endosperm large subunit (SHRUNKEN-2 [SH2]), and resulting variants were expressed in Escherichia coli with the maize endosperm small subunit (BT2). Comparisons of the amount of glycogen produced in E. coli, and the kinetic and allosteric properties of the variants with wild-type SH2/BT2, indicate that 11 variants differ from the wild type in enzyme properties or in vivo glycogen level. More interestingly, six of nine residues located at subunit interfaces exhibit altered allosteric properties. These results indicate that the interfaces between the large and small subunits are important for the allosteric properties of AGPase, and changes at these interfaces contribute to AGPase functional specialization. Our results also demonstrate that evolutionary analysis can greatly facilitate enzyme structure-function analyses.
p21
sS'pageEnd'
p22
I77
sS'date'
p23
I2009
sS'documentType'
p24
VArticle
p25
sS'subject'
p26
VPlant Sciences
p27
sS'isoSource'
p28
VPlant Physiol.
p29
sS'timesCited'
p30
(lp31
I8
aVZ9 8
p32
asS'funding'
p33
(lp34
(VNational Science Foundation
VIBN-0444031, IOS-0815104
tp35
a(VU. S. Department of Agriculture Competitive
V2006-35100-17220, 2008-35318-18649
tp36
asS'PT'
p37
VJ
sS'title'
p38
VPhylogenetic Analysis Of Adp-Glucose Pyrophosphorylase Subunits Reveals A Role Of Subunit Interfaces In The Allosteric Properties Of The Enzyme
p39
sS'ISSN'
p40
(lp41
V0032-0889
p42
aVJ9 PLANT PHYSIOL
p43
asS'authors_full'
p44
(lp45
(VGEORGELIS
VNIKOLAOS
tp46
a(VSHAW
VJANINE R
tp47
a(VHANNAH
VL CURTIS
tp48
asS'PG'
p49
I11
sS'PD'
p50
VSEP
p51
sS'pageStart'
p52
I67
sS'issue'
p53
I1
sS'journal'
p54
VPLANT PHYSIOLOGY
p55
sS'volume'
p56
V151
p57
sS'doi'
p58
V10.1104/pp.109.138933
p59
sS'emailAddress'
p60
Vhannah@mail.ifas.ufl.edu
p61
sS'authorAddress'
p62
V[Georgelis, Nikolaos; Shaw, Janine R.; Hannah, L. Curtis] Univ Florida, Program Plant Mol & Cellular Biol & Hort Sci, Gainesville, FL 32610 USA.
p63
sS'publisherAddress'
p64
V15501 MONONA DRIVE, ROCKVILLE, MD 20855 USA
p65
sS'ER'
p66
V
sS'publisher'
p67
VAMER SOC PLANT BIOLOGISTS
p68
sS'authorKeywords'
p69
(lp70
VAMINO-ACID SITES
p71
aVMAIZE ENDOSPERM
p72
aVPOTATO-TUBER
p73
aVESCHERICHIA-COLI
p74
aVFUNCTIONAL DIVERGENCE
p75
aVDIRECTED MUTAGENESIS
p76
aVSTARCH SYNTHESIS
p77
aVHEAT-STABILITY
p78
aVSWISS-MODEL
p79
aVPROTEIN
p80
asS'language'
p81
VEnglish
p82
sS'wosid'
p83
VWOS:000269522200006
p84
sS'citationCount'
p85
I61
sS'authors_init'
p86
(lp87
(VGEORGELIS
VN
tp88
a(VSHAW
VJ R
tp89
a(VHANNAH
VL C
tp90
asS'citedReferences'
p91
(lp92
g1
(g2
g3
NtRp93
(dp94
g58
V10.1093/pcp/pci101
p95
sg54
VPLANT CELL PHYSIOL
p96
sg56
V46
p97
sg86
(lp98
(VAKIHIRO
VT
tp99
asg23
I2005
sg52
VLANT
p100
sbag1
(g2
g3
NtRp101
(dp102
g58
V10.1093/bioinformatics/bti770
p103
sg54
VBIOINFORMATICS
p104
sg56
V22
p105
sg86
(lp106
(VARNOLD
VK
tp107
asg23
I2006
sg52
V195
p108
sbag1
(g2
g3
NtRp109
(dp110
g58
V10.1074/mbc.M413540200
p111
sg54
VJ BIOL CHEM
p112
sg56
V280
p113
sg86
(lp114
(VBALLICORA
VM A
tp115
asg23
I2005
sg52
V10189
p116
sbag1
(g2
g3
NtRp117
(dp118
g58
V10.1128/JB.00481-07
p119
sg54
VJ BACTERIOL
p120
sg56
V189
p121
sg86
(lp122
(VBALLICORA
VM A
tp123
asg23
I2007
sg52
V5325
p124
sbag1
(g2
g3
NtRp125
(dp126
g58
V10.1104/pp.118.1.265
p127
sg54
VPLANT PHYSIOL
p128
sg56
V118
p129
sg86
(lp130
(VBALLICORA
VM A
tp131
asg23
I1998
sg52
VLANT
p132
sbag1
(g2
g3
NtRp133
(dp134
g58
V10.1074/jbc.M607088200
p135
sg54
VJ BIOL CHEM
p136
sg56
V281
p137
sg86
(lp138
(VBEJAR
VC M
tp139
asg23
I2006
sg52
V40473
p140
sbag1
(g2
g3
NtRp141
(dp142
g58
V10.1093/molbev/msi146
p143
sg54
VMOL BIOL EVOL
p144
sg56
V22
p145
sg86
(lp146
(VBISHOP
VJ G
tp147
asg23
I2005
sg52
V1531
p148
sbag1
(g2
g3
NtRp149
(dp150
g58
V10.1104/pp.107.109942
p151
sg54
VPLANT PHYSIOL
p152
sg56
V146
p153
sg86
(lp154
(VBOEHLEIN
VS K
tp155
asg23
I2008
sg52
VLANT
p156
sbag1
(g2
g3
NtRp157
(dp158
g58
V10.1104/pp.105.060699
p159
sg54
VPLANT PHYSIOL
p160
sg56
V138
p161
sg86
(lp162
(VBOEHLEIN
VS K
tp163
asg23
I2005
sg52
VLANT
p164
sbag1
(g2
g3
NtRp165
(dp166
g58
V10.1104/pp.108.126862
p167
sg54
VPLANT PHYSIOL
p168
sg56
V149
p169
sg86
(lp170
(VBOEHLEIN
VS K
tp171
asg23
I2009
sg52
VLANT
p172
sbag1
(g2
g3
NtRp173
(dp174
g58
V10.1007/s00425-003-1000-0
p175
sg54
VPLANTA
p176
sg56
V217
p177
sg86
(lp178
(VBURGER
VB T
tp179
asg23
I2003
sg52
VLANTA
p180
sbag1
(g2
g3
NtRp181
(dp182
g58
V10.1007/s00239-008-9172-7
p183
sg54
VJ MOL EVOL
p184
sg56
V67
p185
sg86
(lp186
(VCAVATORTA
VJ R
tp187
asg23
I2008
sg52
V551
p188
sbag1
(g2
g3
NtRp189
(dp190
g58
V10.1074/jbc.M709906200
p191
sg54
VJ BIOL CHEM
p192
sg56
V283
p193
sg86
(lp194
(VCOURVILLE
VP
tp195
asg23
I2008
sg52
V9651
p196
sbag1
(g2
g3
NtRp197
(dp198
g58
V10.1074/jbc.M304280200
p199
sg54
VJournal of Biological Chemistry
p200
sg56
V278
p201
sg86
(lp202
(VCREVILLEN
VPEDRO
tp203
asg23
I2003
sg52
V28508
p204
sbag1
(g2
g3
NtRp205
(dp206
g58
V10.1074/jbc.M411713200
p207
sg54
VJ BIOL CHEM
p208
sg56
V280
p209
sg86
(lp210
(VCREVILLEN
VP
tp211
asg23
I2005
sg52
V8143
p212
sbag1
(g2
g3
NtRp213
(dp214
g58
V10.1111/j.1365-313X.2004.02315.x
p215
sg54
VPLANT J
p216
sg56
V41
p217
sg86
(lp218
(VCROSS
VJ M
tp219
asg23
I2005
sg52
VLANT
p220
sbag1
(g2
g3
NtRp221
(dp222
g58
V10.1104/pp.103.036699
p223
sg54
VPLANT PHYSIOL
p224
sg56
V135
p225
sg86
(lp226
(VCROSS
VJ M
tp227
asg23
I2004
sg52
VLANT
p228
sbag1
(g2
g3
NtRp229
(dp230
g58
V10.1074/jbc.M107408200
p231
sg54
VJ BIOL CHEM
p232
sg56
V276
p233
sg86
(lp234
(VFRUEAUF
VJ B
tp235
asg23
I2001
sg52
V46319
p236
sbag1
(g2
g3
NtRp237
(dp238
g58
V10.1046/j.1365-313X.2003.01643.x
p239
sg54
VPLANT J
p240
sg56
V33
p241
sg86
(lp242
(VFRUEAUF
VJ B
tp243
asg23
I2003
sg52
VLANT
p244
sbag1
(g2
g3
NtRp245
(dp246
g58
V10.1104/pp.117.3.989
p247
sg54
VPLANT PHYSIOL
p248
sg56
V117
p249
sg86
(lp250
(VFU
VY B
tp251
asg23
I1998
sg52
VLANT
p252
sbag1
(g2
g3
NtRp253
(dp254
g58
V10.1016/j.plantsci.2008.04.005
p255
sg54
VPLANT SCI
p256
sg56
V175
p257
sg86
(lp258
(VGEORGELIS
VN
tp259
asg23
I2008
sg52
VLANT
p260
sbag1
(g2
g3
NtRp261
(dp262
g58
V10.1105/tpc.106.049676
p263
sg54
VPLANT CELL
p264
sg56
V19
p265
sg86
(lp266
(VGEORGELIS
VN
tp267
asg23
I2007
sg52
VLANT
p268
sbag1
(g2
g3
NtRp269
(dp270
g58
V10.1186/1471-2148-8-232
p271
sg54
VBMC EVOL BIOL
p272
sg56
V8
sg86
(lp273
(VGEORGELIS
VN
tp274
asg23
I2008
sg52
Nsbag1
(g2
g3
NtRp275
(dp276
g58
V10.1073/pnas.93.4.1509
p277
sg54
VP NATL ACAD SCI USA
p278
sg56
V93
p279
sg86
(lp280
(VGREENE
VT W
tp281
asg23
I1996
sg52
V1509
p282
sbag1
(g2
g3
NtRp283
(dp284
g58
V10.1104/pp.112.3.1315
p285
sg54
VPLANT PHYSIOL
p286
sg56
V112
p287
sg86
(lp288
(VGREENE
VT W
tp289
asg23
I1996
sg52
VLANT
p290
sbag1
(g2
g3
NtRp291
(dp292
g58
V10.1073/pnas.95.17.10322
p293
sg54
VP NATL ACAD SCI USA
p294
sg56
V95
p295
sg86
(lp296
(VGREENE
VT W
tp297
asg23
I1998
sg52
V10322
p298
sbag1
(g2
g3
NtRp299
(dp300
g58
V10.1105/tpc.10.8.1295
p301
sg54
VPLANT CELL
p302
sg56
V10
p303
sg86
(lp304
(VGREENE
VT W
tp305
asg23
I1998
sg52
VLANT
p306
sbag1
(g2
g3
NtRp307
(dp308
g58
V10.1073/pnas.95.22.13342
p309
sg54
VP NATL ACAD SCI USA
p310
sg56
V95
p311
sg86
(lp312
(VGREENE
VT W
tp313
asg23
I1998
sg52
V13342
p314
sbag1
(g2
g3
NtRp315
(dp316
g58
V10.1093/molbev/msg171
p317
sg54
VMOL BIOL EVOL
p318
sg56
V20
p319
sg86
(lp320
(VGRIBALDO
VS
tp321
asg23
I2003
sg52
V1754
p322
sbag1
(g2
g3
NtRp323
(dp324
g58
V10.1093/bioinformatics/18.3.500
p325
sg54
VBIOINFORMATICS
p326
sg56
V18
p327
sg86
(lp328
(VGU
VX
tp329
asg23
I2002
sg52
V500
p330
sbag1
(g2
g3
NtRp331
(dp332
g58
V10.1093/molbev/msl056
p333
sg54
VMOL BIOL EVOL
p334
sg56
V23
p335
sg86
(lp336
(VGU
VX
tp337
asg23
I2006
sg52
V1937
p338
sbag1
(g2
g3
NtRp339
(dp340
g58
V10.1007/BF00485834
p341
sg54
VBIOCHEM GENET
p342
sg56
V14
p343
sg86
(lp344
(VHANNAH
VL C
tp345
asg23
I1976
sg52
V547
p346
sbag1
(g2
g3
NtRp347
(dp348
g58
Nsg54
VMAYDICA
p349
sg56
V50
p350
sg86
(lp351
(VHANNAH
VL C
tp352
asg23
I2005
sg52
V497
p353
sbag1
(g2
g3
NtRp354
(dp355
g58
Nsg54
VMANUAL METHODS GEN B
p356
sg56
Nsg86
(lp357
(VHANSON
VR S
tp358
asg23
I1981
sg52
V328
p359
sbag1
(g2
g3
NtRp360
(dp361
g58
V10.1016/j.febslet.2004.12.067
p362
sg54
VFEBS LETT
p363
sg56
V579
p364
sg86
(lp365
(VHWANG
VS K
tp366
asg23
I2005
sg52
V983
p367
sbag1
(g2
g3
NtRp368
(dp369
g58
V10.1074/jbc.M707447200
p370
sg54
VJ BIOL CHEM
p371
sg56
V283
p372
sg86
(lp373
(VHWANG
VS K
tp374
asg23
I2008
sg52
V6640
p375
sbag1
(g2
g3
NtRp376
(dp377
g58
V10.1016/j.phytochem.2006.11.027
p378
sg54
VPHYTOCHEMISTRY
p379
sg56
V68
p380
sg86
(lp381
(VHWANG
VS K
tp382
asg23
I2007
sg52
VHYTOCHEMISTRY
p383
sbag1
(g2
g3
NtRp384
(dp385
g58
V10.1016/j.febslet.2006.11.029
p386
sg54
VFEBS LETT
p387
sg56
V580
p388
sg86
(lp389
(VHWANG
VS K
tp390
asg23
I2006
sg52
V6741
p391
sbag1
(g2
g3
NtRp392
(dp393
g58
Nsg54
VJ BIOL CHEM
p394
sg56
V268
p395
sg86
(lp396
(VIGLESIAS
VA A
tp397
asg23
I1993
sg52
V1081
p398
sbag1
(g2
g3
NtRp399
(dp400
g58
V10.1126/science.1132067
p401
sg54
VSCIENCE
p402
sg56
V316
p403
sg86
(lp404
(VISHII
VN
tp405
asg23
I2007
sg52
V593
p406
sbag1
(g2
g3
NtRp407
(dp408
g58
V10.1038/sj.emboj.7600551
p409
sg54
VEMBO J
p410
sg56
V24
p411
sg86
(lp412
(VJIN
VX S
tp413
asg23
I2005
sg52
V694
p414
sbag1
(g2
g3
NtRp415
(dp416
g58
V10.1074/jbc.M106310200
p417
sg54
VJ BIOL CHEM
p418
sg56
V276
p419
sg86
(lp420
(VKAVAKLI
VI H
tp421
asg23
I2001
sg52
V40834
p422
sbag1
(g2
g3
NtRp423
(dp424
g58
V10.1006/bbrc.2001.4416
p425
sg54
VBIOCHEM BIOPH RES CO
p426
sg56
V281
p427
sg86
(lp428
(VKAVAKLI
VI H
tp429
asg23
I2001
sg52
V783
p430
sbag1
(g2
g3
NtRp431
(dp432
g58
V10.1016/j.bbrc.2007.07.162
p433
sg54
VBIOCHEM BIOPH RES CO
p434
sg56
V362
p435
sg86
(lp436
(VKIM
VD
tp437
asg23
I2007
sg52
V301
p438
sbag1
(g2
g3
NtRp439
(dp440
g58
V10.1093/bib/5.2.150
p441
sg54
VBRIEF BIOINFORM
p442
sg56
V5
sg86
(lp443
(VKUMAR
VS
tp444
asg23
I2004
sg52
V150
p445
sbag1
(g2
g3
NtRp446
(dp447
g58
V10.1016/S0031-9422(97)00578-5
p448
sg54
VPHYTOCHEMISTRY
p449
sg56
V47
p450
sg86
(lp451
(VLAUGHLIN
VM J
tp452
asg23
I1998
sg52
VHYTOCHEMISTRY
p453
sbag1
(g2
g3
NtRp454
(dp455
g58
V10.1104/pp.105.067637
p456
sg54
VPLANT PHYSIOL
p457
sg56
V139
p458
sg86
(lp459
(VLINEBARGER
VC R L
tp460
asg23
I2005
sg52
VLANT
p461
sbag1
(g2
g3
NtRp462
(dp463
g58
V10.1038/356083a0
p464
sg54
VNATURE
p465
sg56
V356
p466
sg86
(lp467
(VLUTHY
VR
tp468
asg23
I1992
sg52
V83
p469
sbag1
(g2
g3
NtRp470
(dp471
g58
Nsg54
VJ GEN MICROBIOL
p472
sg56
V71
p473
sg86
(lp474
(VMOSES
VV
tp475
asg23
I1972
sg52
V181
p476
sbag1
(g2
g3
NtRp477
(dp478
g58
Nsg54
VGENETICS
p479
sg56
V148
p480
sg86
(lp481
(VNIELSEN
VR
tp482
asg23
I1998
sg52
V929
p483
sbag1
(g2
g3
NtRp484
(dp485
g58
V10.1073/pnas.0600849103
p486
sg54
VP NATL ACAD SCI USA
p487
sg56
V103
p488
sg86
(lp489
(VNORRGARD
VM A
tp490
asg23
I2006
sg52
V4876
p491
sbag1
(g2
g3
NtRp492
(dp493
g58
V10.1093/jxb/eri292
p494
sg54
VJ EXP BOT
p495
sg56
V56
p496
sg86
(lp497
(VOHDAN
VT
tp498
asg23
I2005
sg52
V3229
p499
sbag1
(g2
g3
NtRp500
(dp501
g58
V10.1002/jcc.20084
p502
sg54
VJ COMPUT CHEM
p503
sg56
V25
p504
sg86
(lp505
(VPETTERSEN
VE F
tp506
asg23
I2004
sg52
V1605
p507
sbag1
(g2
g3
NtRp508
(dp509
g58
V10.1080/1521654031000123330
p510
sg54
VIUBMB LIFE
p511
sg56
V55
p512
sg86
(lp513
(VPHILIPPE
VH
tp514
asg23
I2003
sg52
V257
p515
sbag1
(g2
g3
NtRp516
(dp517
g58
V10.1093/nar/gkg520
p518
sg54
VNUCLEIC ACIDS RES
p519
sg56
V31
p520
sg86
(lp521
(VSCHWEDE
VT
tp522
asg23
I2003
sg52
V3381
p523
sbag1
(g2
g3
NtRp524
(dp525
g58
V10.1529/biophysj.107.123042
p526
sg54
VBIOPHYS J
p527
sg56
V95
p528
sg86
(lp529
(VTUNCEL
VA
tp530
asg23
I2008
sg52
V3628
p531
sbag1
(g2
g3
NtRp532
(dp533
g58
V10.1073/pnas.75.5.2244
p534
sg54
VP NATL ACAD SCI USA
p535
sg56
V75
p536
sg86
(lp537
(VUGURBIL
VK
tp538
asg23
I1978
sg52
V2244
p539
sbag1
(g2
g3
NtRp540
(dp541
g58
V10.1104/pp.108.122846
p542
sg54
VPLANT PHYSIOL
p543
sg56
V148
p544
sg86
(lp545
(VVENTRIGLIA
VT
tp546
asg23
I2008
sg52
VLANT
p547
sbag1
(g2
g3
NtRp548
(dp549
g58
V10.1016/0263-7855(90)80070-V
p550
sg54
VJ MOL GRAPHICS
p551
sg56
V8
sg86
(lp552
(VVRIEND
VG
tp553
asg23
I1990
sg52
V52
p554
sbag1
(g2
g3
NtRp555
(dp556
g58
Nsg54
VGENETICS
p557
sg56
V155
p558
sg86
(lp559
(VYANG
VZ H
tp560
asg23
I2000
sg52
V431
p561
sbag1
(g2
g3
NtRp562
(dp563
g58
Nsg54
VCOMPUT APPL BIOSCI
p564
sg56
V13
p565
sg86
(lp566
(VYANG
VZ H
tp567
asg23
I1997
sg52
V555
p568
sbasb.