ccopy_reg
_reconstructor
p1
(ctethne.classes.paper
Paper
p2
c__builtin__
object
p3
NtRp4
(dp5
S'publisherCity'
p6
VROCKVILLE
p7
sS'reprintAddress'
p8
VSmall, GD (reprint author), Univ S Dakota, Cellular & Mol Biol Grp, Vermillion, SD 57069 USA.
p9
sS'WC'
p10
VPlant Sciences
p11
sS'GA'
p12
V812SY
p13
sS'abstract'
p14
VCryptochromes are proteins related to DNA photolyases and have been shown to function as blue-light photoreceptors and to play important roles in circadian rhythms in both plants and animals. The CPH1 gene from Chlamydomonas reinhardtii was originally predicted to encode a putative cryptochrome protein of 867 amino acids with a predicted molecular mass of 91 kD (Small et al., 1995). However, western blotting with antibodies specific to the CPH1 protein revealed the presence of two proteins that migrate at apparent molecular mass of approximately 126 and 143 kD. A reexamination of the assigned intronexon boundaries has shown that the previously assigned intron 7 is in fact part of exon 7 which leads to a predicted protein of 1,007 amino acids corresponding to a size of 104.6 kD. The two forms of CPH1 that migrate slower on SDS-PAGE presumably result from unknown posttranslational modifications. In C. reinhardtii cells synchronized by light to dark cycles, the two slow migrating forms of CPH1 protein accumulate in the dark and disappear rapidly in the light. Both red and blue light are effective at inducing the degradation of the CPH1 proteins. Proteasomes are implicated because degradation is inhibited by MG132, a proteasome inhibitor. Studies with deletion mutants indicate that the C-terminal region is important for both the posttranslational modification and the protein's stability under both light and dark conditions.
p15
sS'pageEnd'
p16
I1554
sS'publisherAddress'
p17
V15501 MONONA DRIVE, ROCKVILLE, MD 20855 USA
p18
sS'documentType'
p19
VArticle
p20
sS'subject'
p21
VPlant Sciences
p22
sS'isoSource'
p23
VPlant Physiol.
p24
sS'timesCited'
p25
(lp26
I19
aVZ9 19
p27
asS'PT'
p28
VJ
sS'title'
p29
VThe Cph1 Gene Of Chlamydomonas Reinhardtii Encodes Two Forms Of Cryptochrome Whose Levels Are Controlled By Light-Induced Proteolysis
p30
sS'ISSN'
p31
(lp32
V0032-0889
p33
aVJ9 PLANT PHYSIOL
p34
asS'authors_full'
p35
(lp36
(VREISDORPH
VNA
tp37
a(VSMALL
VGD
tp38
asS'PG'
p39
I9
sS'PD'
p40
VAPR
p41
sS'pageStart'
p42
I1546
sS'issue'
p43
I4
sS'journal'
p44
VPLANT PHYSIOLOGY
p45
sS'volume'
p46
V134
p47
sS'doi'
p48
V10.1104/pp.103.031930
p49
sS'emailAddress'
p50
Vgsmall@usd.edu
p51
sS'authorAddress'
p52
VUniv S Dakota, Cellular & Mol Biol Grp, Vermillion, SD 57069 USA.
p53
sS'date'
p54
I2004
sS'ER'
p55
V
sS'publisher'
p56
VAMER SOC PLANT BIOLOGISTS
p57
sS'authorKeywords'
p58
(lp59
VADIANTUM-CAPILLUS-VENERIS
p60
aVHUMAN PHOTOLYASE HOMOLOG
p61
aVCIRCADIAN CLOCK
p62
aVPHOTORECEPTOR FAMILY
p63
aVSIGNAL-TRANSDUCTION
p64
aVPROTEIN
p65
aVEXPRESSION
p66
aVDROSOPHILA
p67
aVCRY1
p68
aVTRANSCRIPTION
p69
asS'language'
p70
VEnglish
p71
sS'wosid'
p72
VWOS:000220860400030
p73
sS'citationCount'
p74
I36
sS'authors_init'
p75
(lp76
(VREISDORPH
VN A
tp77
a(VSMALL
VG D
tp78
asS'citedReferences'
p79
(lp80
g1
(g2
g3
NtRp81
(dp82
g48
Nsg44
VPLANT CELL
p83
sg46
V10
p84
sg75
(lp85
(VAHMAD
VM
tp86
asg54
I1998
sg42
VLANT
p87
sbag1
(g2
g3
NtRp88
(dp89
g48
V10.1038/366162a0
p90
sg44
VNATURE
p91
sg46
V366
p92
sg75
(lp93
(VAHMAD
VM
tp94
asg54
I1993
sg42
V162
p95
sbag1
(g2
g3
NtRp96
(dp97
g48
V10.1016/S1097-2765(00)80094-5
p98
sg44
VMOL CELL
p99
sg46
V1
sg75
(lp100
(VAHMAD
VM
tp101
asg54
I1998
sg42
V939
p102
sbag1
(g2
g3
NtRp103
(dp104
g48
V10.1046/j.1365-313X.1995.08050653.x
p105
sg44
VPLANT J
p106
sg46
V8
sg75
(lp107
(VAHMAD
VM
tp108
asg54
I1995
sg42
VLANT
p109
sbag1
(g2
g3
NtRp110
(dp111
g48
V10.1016/S1097-2765(03)00008-X
p112
sg44
VMOL CELL
p113
sg46
V11
p114
sg75
(lp115
(VBRUDLER
VR
tp116
asg54
I2003
sg42
V59
p117
sbag1
(g2
g3
NtRp118
(dp119
g48
V10.1126/science.284.5415.760
p120
sg44
VSCIENCE
p121
sg46
V284
p122
sg75
(lp123
(VCASHMORE
VA R
tp124
asg54
I1999
sg42
V760
p125
sbag1
(g2
g3
NtRp126
(dp127
g48
V10.1105/tpc.12.12.2499
p128
sg44
VPLANT CELL
p129
sg46
V12
p130
sg75
(lp131
(VDEVLIN
VP F
tp132
asg54
I2000
sg42
VLANT
p133
sbag1
(g2
g3
NtRp134
(dp135
g48
V10.1016/S0092-8674(00)81637-2
p136
sg44
VCELL
p137
sg46
V95
p138
sg75
(lp139
(VEMERY
VP
tp140
asg54
I1998
sg42
V669
p141
sbag1
(g2
g3
NtRp142
(dp143
g48
Nsg44
VJ CELL BIOL
p144
sg46
V129
p145
sg75
(lp146
(VGOTO
VK J
tp147
asg54
I1991
sg42
V1061
p148
sbag1
(g2
g3
NtRp149
(dp150
g48
V10.1126/science.279.5355.1360
p151
sg44
VSCIENCE
p152
sg46
V279
p153
sg75
(lp154
(VGUO
VH W
tp155
asg54
I1998
sg42
V1360
p156
sbag1
(g2
g3
NtRp157
(dp158
g48
Nsg44
VCHLAMYDOMONAS SOURCE
p159
sg46
Nsg75
(lp160
(VHARRIS
VE
tp161
asg54
I1989
sg42
Nsbag1
(g2
g3
NtRp162
(dp163
g48
V10.1105/tpc.12.1.81
p164
sg44
VPLANT CELL
p165
sg46
V12
p166
sg75
(lp167
(VIMAIZUMI
VT
tp168
asg54
I2000
sg42
VLANT
p169
sbag1
(g2
g3
NtRp170
(dp171
g48
V10.1007/BF00040834
p172
sg44
VPLANT MOL BIOL
p173
sg46
V31
p174
sg75
(lp175
(VJACOBSHAGEN
VS
tp176
asg54
I1996
sg42
VLANT
p177
sbag1
(g2
g3
NtRp178
(dp179
g48
Nsg44
VMOL GEN GENET
p180
sg46
V259
p181
sg75
(lp182
(VKANEGAE
VT
tp183
asg54
I1998
sg42
V345
p184
sbag1
(g2
g3
NtRp185
(dp186
g48
V10.1023/A:1026519718992
p187
sg44
VPLANT MOL BIOL
p188
sg46
V44
p189
sg75
(lp190
(VKAWAZOE
VR
tp191
asg54
I2000
sg42
VLANT
p192
sbag1
(g2
g3
NtRp193
(dp194
g48
V10.1073/pnas.87.3.1228
p195
sg44
VP NATL ACAD SCI USA
p196
sg46
V87
p197
sg75
(lp198
(VKINDLE
VK L
tp199
asg54
I1990
sg42
V1228
p200
sbag1
(g2
g3
NtRp201
(dp202
g48
V10.1093/nar/26.22.5086
p203
sg44
VNUCLEIC ACIDS RES
p204
sg46
V26
p205
sg75
(lp206
(VKOBAYASHI
VK
tp207
asg54
I1998
sg42
V5086
p208
sbag1
(g2
g3
NtRp209
(dp210
g48
V10.1104/pp.95.1.197
p211
sg44
VPLANT PHYSIOL
p212
sg46
V95
p213
sg75
(lp214
(VKONDO
VT
tp215
asg54
I1991
sg42
VLANT
p216
sbag1
(g2
g3
NtRp217
(dp218
g48
V10.1016/S0092-8674(00)81014-4
p219
sg44
VCELL
p220
sg46
V98
p221
sg75
(lp222
(VKUME
VK
tp223
asg54
I1999
sg42
V193
p224
sbag1
(g2
g3
NtRp225
(dp226
g48
V10.1146/annurev.arplant.54.110901.160901
p227
sg44
VANNU REV PLANT BIOL
p228
sg46
V54
p229
sg75
(lp230
(VLIN
VC T
tp231
asg54
I2003
sg42
V469
p232
sbag1
(g2
g3
NtRp233
(dp234
g48
V10.1073/pnas.95.5.2686
p235
sg44
VP NATL ACAD SCI USA
p236
sg46
V95
p237
sg75
(lp238
(VLIN
VC T
tp239
asg54
I1998
sg42
V2686
p240
sbag1
(g2
g3
NtRp241
(dp242
g48
V10.1007/BF00023558
p243
sg44
VPLANT MOL BIOL
p244
sg46
V24
p245
sg75
(lp246
(VMATTERS
VG L
tp247
asg54
I1994
sg42
VLANT
p248
sbag1
(g2
g3
NtRp249
(dp250
g48
Nsg44
VPLANT PHYSIOL
p251
sg46
V112
p252
sg75
(lp253
(VPAN
VJ M
tp254
asg54
I1996
sg42
VLANT
p255
sbag1
(g2
g3
NtRp256
(dp257
g48
Nsg44
VMOL GEN GENET
p258
sg46
V221
p259
sg75
(lp260
(VSCHLOSS
VJ A
tp261
asg54
I1990
sg42
V443
p262
sbag1
(g2
g3
NtRp263
(dp264
g48
V10.1046/j.1365-313x.2000.00652.x
p265
sg44
VPLANT J
p266
sg46
V21
p267
sg75
(lp268
(VSCHRODA
VM
tp269
asg54
I2000
sg42
VLANT
p270
sbag1
(g2
g3
NtRp271
(dp272
g48
Nsg44
VPLANT CELL
p273
sg46
V11
p274
sg75
(lp275
(VSCHRODA
VM
tp276
asg54
I1999
sg42
VLANT
p277
sbag1
(g2
g3
NtRp278
(dp279
g48
V10.1038/nature00815
p280
sg44
VNATURE
p281
sg46
V417
p282
sg75
(lp283
(VSHALITIN
VD
tp284
asg54
I2002
sg42
V763
p285
sbag1
(g2
g3
NtRp286
(dp287
g48
V10.1007/BF00020393
p288
sg44
VPLANT MOL BIOL
p289
sg46
V28
p290
sg75
(lp291
(VSMALL
VG D
tp292
asg54
I1995
sg42
VLANT
p293
sbag1
(g2
g3
NtRp294
(dp295
g48
V10.1126/science.282.5393.1488
p296
sg44
VSCIENCE
p297
sg46
V282
p298
sg75
(lp299
(VSOMERS
VD E
tp300
asg54
I1998
sg42
V1488
p301
sbag1
(g2
g3
NtRp302
(dp303
g48
V10.1016/S0092-8674(00)81638-4
p304
sg44
VCELL
p305
sg46
V95
p306
sg75
(lp307
(VSTANEWSKY
VR
tp308
asg54
I1998
sg42
V681
p309
sbag1
(g2
g3
NtRp310
(dp311
g48
V10.1126/science.272.5258.109
p312
sg44
VSCIENCE
p313
sg46
V272
p314
sg75
(lp315
(VTODO
VT
tp316
asg54
I1996
sg42
V109
p317
sbag1
(g2
g3
NtRp318
(dp319
g48
Nsg44
VNATURE
p320
sg46
V398
p321
sg75
(lp322
(VVAN
VD E R HORST G T J
tp323
asg54
I1999
sg42
V627
p324
sbag1
(g2
g3
NtRp325
(dp326
g48
V10.1006/geno.1996.0539
p327
sg44
VGENOMICS
p328
sg46
V37
p329
sg75
(lp330
(VVANDERSPEK
VP J
tp331
asg54
I1996
sg42
V177
p332
sbag1
(g2
g3
NtRp333
(dp334
g48
V10.1080/01677060215306
p335
sg44
VJ NEUROGENET
p336
sg46
V16
p337
sg75
(lp338
(VVAN
VGELDER R N
tp339
asg54
I2002
sg42
V181
p340
sbag1
(g2
g3
NtRp341
(dp342
g48
V10.1126/science.1079536
p343
sg44
VSCIENCE
p344
sg46
V299
p345
sg75
(lp346
(VVAN
VGELDER R N
tp347
asg54
I2003
sg42
V222
p348
sbag1
(g2
g3
NtRp349
(dp350
g48
V10.1016/S0092-8674(00)00184-7
p351
sg44
VCELL
p352
sg46
V103
p353
sg75
(lp354
(VYANG
VH Q
tp355
asg54
I2000
sg42
V815
p356
sbasb.