ccopy_reg
_reconstructor
p1
(ctethne.classes.paper
Paper
p2
c__builtin__
object
p3
NtRp4
(dp5
S'publisherCity'
p6
VROCKVILLE
p7
sS'reprintAddress'
p8
VRep, M (reprint author), Univ Amsterdam, Swammerdam Inst Life Sci, POB 94062, NL-1090 GB Amsterdam, Netherlands.
p9
sS'WC'
p10
VPlant Sciences
p11
sS'GA'
p12
V605BC
p13
sS'abstract'
p14
VThe protein content of tomato (Lycopersicon esculentum) xylem sap was found to change dramatically upon infection with the vascular wilt fungus Fusarium oxysporum. Peptide mass fingerprinting and mass spectrometric sequencing were used to identify the most abundant proteins appearing during compatible or incompatible interactions. A new member of the PR-5 family was identified that accumulated early in both types of interaction. Other pathogenesis-related proteins appeared in compatible interactions only, concomitantly with disease development. This study demonstrates the feasibility of using proteomics for the identification of known and novel proteins in xylem sap, and provides insights into plant-pathogen interactions in vascular wilt diseases.
p15
sS'pageEnd'
p16
I917
sS'date'
p17
I2002
sS'documentType'
p18
VArticle
p19
sS'subject'
p20
VPlant Sciences
p21
sS'isoSource'
p22
VPlant Physiol.
p23
sS'timesCited'
p24
(lp25
I87
aVZ9 96
p26
asS'PT'
p27
VJ
sS'title'
p28
VMass Spectrometric Identification Of Isoforms Of Pr Proteins In Xylem Sap Of Fungus-Infected Tomato
p29
sS'ISSN'
p30
(lp31
V0032-0889
p32
aVJ9 PLANT PHYSIOL
p33
asS'authors_full'
p34
(lp35
(VREP
VM
tp36
a(VDEKKER
VHL
tp37
a(VVOSSEN
VJH
tp38
a(VDE BOER
VAD
tp39
a(VHOUTERMAN
VPM
tp40
a(VSPEIJER
VD
tp41
a(VBACK
VJW
tp42
a(VDE KOSTER
VCG
tp43
a(VCORNELISSEN
VBJC
tp44
asS'PG'
p45
I14
sS'PD'
p46
VOCT
p47
sS'pageStart'
p48
I904
sS'issue'
p49
I2
sS'RI'
p50
VBack, JW/B-3641-2009
p51
sS'journal'
p52
VPLANT PHYSIOLOGY
p53
sS'volume'
p54
V130
p55
sS'doi'
p56
V10.1104/pp.007427
p57
sS'authorAddress'
p58
(lp59
VUniv Amsterdam, Swammerdam Inst Life Sci, NL-1090 GB Amsterdam, Netherlands.
p60
aVUniv Amsterdam, Swammerdam Inst Life Sci, NL-1018 WV Amsterdam, Netherlands.
p61
aVUniv Amsterdam, Acad Med Ctr, NL-1105 AZ Amsterdam, Netherlands.
p62
asS'publisherAddress'
p63
V15501 MONONA DRIVE, ROCKVILLE, MD 20855 USA
p64
sS'ER'
p65
V
sS'publisher'
p66
VAMER SOC PLANT BIOLOGISTS
p67
sS'authorKeywords'
p68
(lp69
VPATHOGENESIS-RELATED PROTEINS
p70
aVVERTICILLIUM-ALBO-ATRUM
p71
aVSYN FULVIA-FULVA
p72
aVF-SP LYCOPERSICI
p73
aVPHYTOPHTHORA-INFESTANS
p74
aVCLADOSPORIUM-FULVUM
p75
aVIMMUNOGOLD LOCALIZATION
p76
aVACQUIRED-RESISTANCE
p77
aVNUCLEOTIDE-SEQUENCE
p78
aVANTIFUNGAL ACTIVITY
p79
asS'OI'
p80
VBack, JW/0000-0002-1310-4373
p81
sS'language'
p82
VEnglish
p83
sS'wosid'
p84
VWOS:000178654700035
p85
sS'citationCount'
p86
I59
sS'authors_init'
p87
(lp88
(VREP
VM
tp89
a(VDEKKER
VH L
tp90
a(VVOSSEN
VJ H
tp91
a(VDE BOER
VA D
tp92
a(VHOUTERMAN
VP M
tp93
a(VSPEIJER
VD
tp94
a(VBACK
VJ W
tp95
a(VDE KOSTER
VC G
tp96
a(VCORNELISSEN
VB J C
tp97
asS'citedReferences'
p98
(lp99
g1
(g2
g3
NtRp100
(dp101
g56
V10.1016/0168-9452(96)04420-2
p102
sg52
VPLANT SCI
p103
sg54
V118
p104
sg87
(lp105
(VABAD
VL R
tp106
asg17
I1996
sg48
VLANT
p107
sbag1
(g2
g3
NtRp108
(dp109
g56
V10.1073/pnas.90.15.7327
p110
sg52
VP NATL ACAD SCI USA
p111
sg54
V90
p112
sg87
(lp113
(VALEXANDER
VD
tp114
asg17
I1993
sg48
V7327
p115
sbag1
(g2
g3
NtRp116
(dp117
g56
Nsg52
VADV BOT RES
p118
sg54
V21
p119
sg87
(lp120
(VBECKMAN
VC H
tp121
asg17
I1995
sg48
V35
p122
sbag1
(g2
g3
NtRp123
(dp124
g56
Nsg52
VNATO ASI SERIES H
p125
sg54
V28
p126
sg87
(lp127
(VBECKMAN
VC H
tp128
asg17
I1989
sg48
Nsbag1
(g2
g3
NtRp129
(dp130
g56
V10.1016/S0885-5765(05)80116-X
p131
sg52
VPHYSIOL MOL PLANT P
p132
sg54
V38
p133
sg87
(lp134
(VBENHAMOU
VN
tp135
asg17
I1991
sg48
VHYSIOL
p136
sbag1
(g2
g3
NtRp137
(dp138
g56
Nsg52
VPLANT CELL
p139
sg54
V1
sg87
(lp140
(VBENHAMOU
VN
tp141
asg17
I1989
sg48
VLANT
p142
sbag1
(g2
g3
NtRp143
(dp144
g56
V10.1023/A:1006039016393
p145
sg52
VPLANT MOL BIOL
p146
sg54
V38
p147
sg87
(lp148
(VCECCARDI
VT L
tp149
asg17
I1998
sg48
VLANT
p150
sbag1
(g2
g3
NtRp151
(dp152
g56
V10.1016/0885-5765(89)90007-6
p153
sg52
VPHYSIOL MOL PLANT P
p154
sg54
V35
p155
sg87
(lp156
(VCHRIST
VU
tp157
asg17
I1989
sg48
VHYSIOL
p158
sbag1
(g2
g3
NtRp159
(dp160
g56
V10.1038/321531a0
p161
sg52
VNATURE
p162
sg54
V321
p163
sg87
(lp164
(VCORNELISSEN
VB J C
tp165
asg17
I1986
sg48
V531
p166
sbag1
(g2
g3
NtRp167
(dp168
g56
Nsg52
VIN PRESS PLANT CELL
p169
sg54
Nsg87
(lp170
(VDEBOER
VA H
tp171
asg17
I2003
sg48
Nsbag1
(g2
g3
NtRp172
(dp173
g56
Nsg52
VPHYSIOL MOL PLANT P
p174
sg54
V28
p175
sg87
(lp176
(VDEWIT
VPJGM
tp177
asg17
I1986
sg48
VHYSIOL
p178
sbag1
(g2
g3
NtRp179
(dp180
g56
Nsg52
VPHYSIOL MOL PLANT P
p181
sg54
V29
p182
sg87
(lp183
(VDEWIT
VPJGM
tp184
asg17
I1986
sg48
VHYSIOL
p185
sbag1
(g2
g3
NtRp186
(dp187
g56
V10.1007/BF00029854
p188
sg52
VPLANT MOL BIOL
p189
sg54
V24
p190
sg87
(lp191
(VDOMINGO
VC
tp192
asg17
I1994
sg48
VLANT
p193
sbag1
(g2
g3
NtRp194
(dp195
g56
Nsg52
VFunctional and Integrative Genomics
p196
sg54
V1
sg87
(lp197
(VEMSLIE
VKERRY R
tp198
asg17
I2000
sg48
V12
p199
sbag1
(g2
g3
NtRp200
(dp201
g56
V10.1006/pmpp.1995.1031
p202
sg52
VPHYSIOL MOL PLANT P
p203
sg54
V46
p204
sg87
(lp205
(VGAO
VH R
tp206
asg17
I1995
sg48
VHYSIOL
p207
sbag1
(g2
g3
NtRp208
(dp209
g56
V10.1023/A:1005893119263
p210
sg52
VPLANT MOL BIOL
p211
sg54
V34
p212
sg87
(lp213
(VHU
VX
tp214
asg17
I1997
sg48
VLANT
p215
sbag1
(g2
g3
NtRp216
(dp217
g56
Nsg52
VFOREST CHRON
p218
sg54
V75
p219
sg87
(lp220
(VHUBBES
VT
tp221
asg17
I1999
sg48
V265
p222
sbag1
(g2
g3
NtRp223
(dp224
g56
Nsg52
VZ PFLANZENK PFLANZEN
p225
sg54
V107
p226
sg87
(lp227
(VJEUN
VY C
tp228
asg17
I2000
sg48
V352
p229
sbag1
(g2
g3
NtRp230
(dp231
g56
V10.1023/A:1006213324555
p232
sg52
VPLANT MOL BIOL
p233
sg54
V40
p234
sg87
(lp235
(VJIA
VY L
tp236
asg17
I1999
sg48
VLANT
p237
sbag1
(g2
g3
NtRp238
(dp239
g56
V10.1104/pp.89.3.945
p240
sg52
VPLANT PHYSIOL
p241
sg54
V89
p242
sg87
(lp243
(VJOOSTEN
VMHAJ
tp244
asg17
I1989
sg48
VLANT
p245
sbag1
(g2
g3
NtRp246
(dp247
g56
V10.1104/pp.94.2.585
p248
sg52
VPLANT PHYSIOL
p249
sg54
V94
p250
sg87
(lp251
(VJOOSTEN
VMHAJ
tp252
asg17
I1990
sg48
VLANT
p253
sbag1
(g2
g3
NtRp254
(dp255
g56
V10.1007/BF00014946
p256
sg52
VPLANT MOL BIOL
p257
sg54
V10
p258
sg87
(lp259
(VKING
VG J
tp260
asg17
I1988
sg48
VLANT
p261
sbag1
(g2
g3
NtRp262
(dp263
g56
Nsg52
VJ BIOCHEM
p264
sg54
V125
p265
sg87
(lp266
(VKITAJIMA
VS
tp267
asg17
I1999
sg48
V1
sbag1
(g2
g3
NtRp268
(dp269
g56
V10.1111/j.1439-0434.1993.tb01319.x
p270
sg52
VJ PHYTOPATHOL
p271
sg54
V137
p272
sg87
(lp273
(VKROON
VB A M
tp274
asg17
I1993
sg48
V1
sbag1
(g2
g3
NtRp275
(dp276
g56
V10.1007/PL00008156
p277
sg52
VPLANTA
p278
sg54
V210
p279
sg87
(lp280
(VKUHN
VA J
tp281
asg17
I2000
sg48
VLANTA
p282
sbag1
(g2
g3
NtRp283
(dp284
g56
Nsg52
VPLANT CELL PHYSIOL
p285
sg54
V38
p286
sg87
(lp287
(VLIANG
VJ S
tp288
asg17
I1997
sg48
VLANT
p289
sbag1
(g2
g3
NtRp290
(dp291
g56
Nsg52
VEMBO J
p292
sg54
V4
sg87
(lp293
(VLUCAS
VJ
tp294
asg17
I1985
sg48
V2745
p295
sbag1
(g2
g3
NtRp296
(dp297
g56
V10.1271/bbb.65.1883
p298
sg52
VBIOSCI BIOTECH BIOCH
p299
sg54
V65
p300
sg87
(lp301
(VMASUDA
VS
tp302
asg17
I2001
sg48
V1883
p303
sbag1
(g2
g3
NtRp304
(dp305
g56
V10.1104/pp.88.3.936
p306
sg52
VPLANT PHYSIOL
p307
sg54
V88
p308
sg87
(lp309
(VMAUCH
VF
tp310
asg17
I1988
sg48
VLANT
p311
sbag1
(g2
g3
NtRp312
(dp313
g56
Nsg52
VINT J PEPT PROT RES
p314
sg54
V28
p315
sg87
(lp316
(VMEINWALD
VY C
tp317
asg17
I1986
sg48
V79
p318
sbag1
(g2
g3
NtRp319
(dp320
g56
V10.1007/BF00014542
p321
sg52
VPLANT MOL BIOL
p322
sg54
V21
p323
sg87
(lp324
(VMELCHERS
VL S
tp325
asg17
I1993
sg48
VLANT
p326
sbag1
(g2
g3
NtRp327
(dp328
g56
V10.1094/PHYTO.1999.89.2.156
p329
sg52
VPHYTOPATHOLOGY
p330
sg54
V89
p331
sg87
(lp332
(VMES
VJ J
tp333
asg17
I1999
sg48
VHYTOPATHOLOGY
p334
sbag1
(g2
g3
NtRp335
(dp336
g56
V10.1046/j.1365-313x.2000.00765.x
p337
sg52
VPLANT J
p338
sg54
V23
p339
sg87
(lp340
(VMES
VJ J
tp341
asg17
I2000
sg48
VLANT
p342
sbag1
(g2
g3
NtRp343
(dp344
g56
Nsg52
VCAN J MICROBIOL
p345
sg54
V41
p346
sg87
(lp347
(VNEMEC
VS
tp348
asg17
I1995
sg48
V515
p349
sbag1
(g2
g3
NtRp350
(dp351
g56
V10.1016/0048-4059(79)90024-9
p352
sg52
VPHYSIOL PLANT PATHOL
p353
sg54
V14
p354
sg87
(lp355
(VNETZER
VD
tp356
asg17
I1979
sg48
VHYSIOL
p357
sbag1
(g2
g3
NtRp358
(dp359
g56
V10.1104/pp.108.1.17
p360
sg52
VPLANT PHYSIOL
p361
sg54
V108
p362
sg87
(lp363
(VNIDERMAN
VT
tp364
asg17
I1995
sg48
VLANT
p365
sbag1
(g2
g3
NtRp366
(dp367
g56
V10.1007/BF00015674
p368
sg52
VPLANT MOL BIOL
p369
sg54
V11
p370
sg87
(lp371
(VPAYNE
VG
tp372
asg17
I1988
sg48
VLANT
p373
sbag1
(g2
g3
NtRp374
(dp375
g56
V10.1016/0048-4059(82)90074-1
p376
sg52
VPHYSIOL PLANT PATHOL
p377
sg54
V21
p378
sg87
(lp379
(VPEGG
VG F
tp380
asg17
I1982
sg48
VHYSIOL
p381
sbag1
(g2
g3
NtRp382
(dp383
g56
Nsg52
VPHYSIOL PLANT PATHOL
p384
sg54
V19
p385
sg87
(lp386
(VPEGG
VG F
tp387
asg17
I1981
sg48
VHYSIOL
p388
sbag1
(g2
g3
NtRp389
(dp390
g56
V10.1016/0885-5765(87)90072-5
p391
sg52
VPHYSIOL MOL PLANT P
p392
sg54
V31
p393
sg87
(lp394
(VPIERPOINT
VW S
tp395
asg17
I1987
sg48
VHYSIOL
p396
sbag1
(g2
g3
NtRp397
(dp398
g56
V10.1093/nar/29.1.159
p399
sg52
VNUCLEIC ACIDS RES
p400
sg54
V29
p401
sg87
(lp402
(VQUACKENBUSH
VJ
tp403
asg17
I2001
sg48
V159
p404
sbag1
(g2
g3
NtRp405
(dp406
g56
V10.1104/pp.102.3.939
p407
sg52
VPLANT PHYSIOL
p408
sg54
V102
p409
sg87
(lp410
(VRODRIGO
VI
tp411
asg17
I1993
sg48
VLANT
p412
sbag1
(g2
g3
NtRp413
(dp414
g56
V10.1007/BF00015088
p415
sg52
VPLANT MOL BIOL
p416
sg54
V16
p417
sg87
(lp418
(VRODRIGO
VI
tp419
asg17
I1991
sg48
VLANT
p420
sbag1
(g2
g3
NtRp421
(dp422
g56
V10.1007/BF00028909
p423
sg52
VPLANT MOL BIOL
p424
sg54
V20
p425
sg87
(lp426
(VRUIZMEDRANO
VR
tp427
asg17
I1992
sg48
VLANT
p428
sbag1
(g2
g3
NtRp429
(dp430
g56
Nsg52
VPLANT CELL PHYSIOL
p431
sg54
V33
p432
sg87
(lp433
(VSATOH
VS
tp434
asg17
I1992
sg48
VLANT
p435
sbag1
(g2
g3
NtRp436
(dp437
g56
V10.1046/j.1469-8137.2001.00034.x
p438
sg52
VNEW PHYTOL
p439
sg54
V149
p440
sg87
(lp441
(VSATTELMACHER
VB
tp442
asg17
I2001
sg48
V167
p443
sbag1
(g2
g3
NtRp444
(dp445
g56
V10.1016/0003-2697(87)90587-2
p446
sg52
VANAL BIOCHEM
p447
sg54
V166
p448
sg87
(lp449
(VSCHAGGER
VH
tp450
asg17
I1987
sg48
V368
p451
sbag1
(g2
g3
NtRp452
(dp453
g56
Nsg52
VPLANT PHYSIOL
p454
sg54
V101
p455
sg87
(lp456
(VSELABUURLAGE
VM B
tp457
asg17
I1993
sg48
VLANT
p458
sbag1
(g2
g3
NtRp459
(dp460
g56
V10.1021/ac950914h
p461
sg52
VANAL CHEM
p462
sg54
V68
p463
sg87
(lp464
(VSHEVCHENKO
VA
tp465
asg17
I1996
sg48
V850
p466
sbag1
(g2
g3
NtRp467
(dp468
g56
V10.1080/07352680490484569
p469
sg52
VCRIT REV PLANT SCI
p470
sg54
V13
p471
sg87
(lp472
(VSIMMONS
VC R
tp473
asg17
I1994
sg48
V325
p474
sbag1
(g2
g3
NtRp475
(dp476
g56
Nsg52
VINT J ONCOL
p477
sg54
V12
p478
sg87
(lp479
(VSIMONE
VG
tp480
asg17
I1998
sg48
V1055
p481
sbag1
(g2
g3
NtRp482
(dp483
g56
V10.1016/0300-9084(93)90100-7
p484
sg52
VBIOCHIMIE
p485
sg54
V75
p486
sg87
(lp487
(VSTINTZI
VA
tp488
asg17
I1993
sg48
V687
p489
sbag1
(g2
g3
NtRp490
(dp491
g56
V10.1105/tpc.4.6.645
p492
sg52
VPLANT CELL
p493
sg54
V4
sg87
(lp494
(VUKNES
VS
tp495
asg17
I1992
sg48
VLANT
p496
sbag1
(g2
g3
NtRp497
(dp498
g56
Nsg52
VPLANT MOL BIOL
p499
sg54
V20
p500
sg87
(lp501
(VVANKAN
VJ A L
tp502
asg17
I1992
sg48
VLANT
p503
sbag1
(g2
g3
NtRp504
(dp505
g56
V10.1006/pmpp.1999.0213
p506
sg52
VPHYSIOL MOL PLANT P
p507
sg54
V55
p508
sg87
(lp509
(VVAN
VLOON L C
tp510
asg17
I1999
sg48
VHYSIOL
p511
sbag1
(g2
g3
NtRp512
(dp513
g56
V10.1023/A:1008767830202
p514
sg52
VEUR J PLANT PATHOL
p515
sg54
V105
p516
sg87
(lp517
(VVAN
VPELTHEERSCHAP H
tp518
asg17
I1999
sg48
V681
p519
sbag1
(g2
g3
NtRp520
(dp521
g56
V10.1105/tpc.3.6.619
p522
sg52
VPLANT CELL
p523
sg54
V3
sg87
(lp524
(VWOLOSHUK
VC P
tp525
asg17
I1991
sg48
VLANT
p526
sbag1
(g2
g3
NtRp527
(dp528
g56
Nsg52
VPHYSIOL PLANT PATHOL
p529
sg54
V19
p530
sg87
(lp531
(VYOUNG
VD H
tp532
asg17
I1981
sg48
VHYSIOL
p533
sbag1
(g2
g3
NtRp534
(dp535
g56
V10.1104/pp.107.4.1333
p536
sg52
VPLANT PHYSIOL
p537
sg54
V107
p538
sg87
(lp539
(VYOUNG
VS A
tp540
asg17
I1995
sg48
VLANT
p541
sbasb.