ccopy_reg
_reconstructor
p1
(ctethne.classes.paper
Paper
p2
c__builtin__
object
p3
NtRp4
(dp5
S'publisherCity'
p6
VROCKVILLE
p7
sS'reprintAddress'
p8
VGreen, PJ (reprint author), Michigan State Univ, Dept Biochem, E Lansing, MI 48824 USA.
p9
sS'WC'
p10
VPlant Sciences
p11
sS'GA'
p12
V493YN
p13
sS'abstract'
p14
VSequencing of the Arabidopsis genome has led to the identification of thousands of new putative genes based on the predicted proteins they encode. Genes encoding tRNAs, ribosomal RNAs, and small nucleolar RNAs have also been annotated; however, a potentially important class of genes has largely escaped previous annotation efforts. These genes correspond to RNAs that lack significant open reading frames and encode RNA as their final product. Accumulating evidence indicates that such "non-coding RNAs" (ncRNAs) can play critical roles in a wide range of cellular processes, including chromosomal silencing, transcriptional regulation, developmental control, and responses to stress. Approximately 15 putative Arabidopsis ncRNAs have been reported in the literature or have been annotated. Although several have homologs in other plant species, all appear to be plant specific, with the exception of signal recognition particle RNA. Conversely, none of the ncRNAs reported from yeast or animal systems have homologs in Arabidopsis or other plants. To identify additional genes that are likely to encode ncRNAs, we used computational tools to filter protein-coding genes from genes corresponding to 20,000 expressed sequence tag clones. Using this strategy, we identified 19 clones with characteristics of ncRNAs, nine putative peptide-coding RNAs with open reading frames smaller than 100 amino acids, and 11 that could not be differentiated between the two categories. Again, none of these clones had homologs outside the plant kingdom, suggesting that most Arabidopsis ncRNAs are likely plant specific. These data indicate that ncRNAs represent a significant and underdeveloped aspect of Arabidopsis genomics that deserves further study.
p15
sS'pageEnd'
p16
I776
sS'publisherAddress'
p17
V15501 MONONA DRIVE, ROCKVILLE, MD 20855 USA
p18
sS'documentType'
p19
VArticle
p20
sS'subject'
p21
VPlant Sciences
p22
sS'isoSource'
p23
VPlant Physiol.
p24
sS'timesCited'
p25
(lp26
I54
aVZ9 61
p27
asS'PT'
p28
VJ
sS'title'
p29
VIdentification And Analysis Of Arabidopsis Expressed Sequence Tags Characteristic Of Non-Coding Rnas
p30
sS'ISSN'
p31
(lp32
V0032-0889
p33
aVJ9 PLANT PHYSIOL
p34
asS'authors_full'
p35
(lp36
(VMACINTOSH
VGC
tp37
a(VWILKERSON
VC
tp38
a(VGREEN
VPJ
tp39
asS'PG'
p40
I12
sS'PD'
p41
VNOV
p42
sS'pageStart'
p43
I765
sS'issue'
p44
I3
sS'journal'
p45
VPLANT PHYSIOLOGY
p46
sS'volume'
p47
V127
p48
sS'doi'
p49
V10.1104/pp.127.3.765
p50
sS'emailAddress'
p51
Vgreen@msu.edu
p52
sS'authorAddress'
p53
(lp54
VMichigan State Univ, Dept Biochem, E Lansing, MI 48824 USA.
p55
aVMichigan State Univ, Dept Energy Plant Res Lab, E Lansing, MI 48824 USA.
p56
asS'date'
p57
I2001
sS'ER'
p58
V
sS'publisher'
p59
VAMER SOC PLANT BIOLOGISTS
p60
sS'authorKeywords'
p61
(lp62
VDOSAGE COMPENSATION
p63
aVMALE DROSOPHILA
p64
aVX-CHROMOSOME
p65
aVGENE
p66
aVTHALIANA
p67
aVDNA
p68
aVANTISENSE
p69
aVDATABASE
p70
aVENOD40
p71
aVYEAST
p72
asS'language'
p73
VEnglish
p74
sS'wosid'
p75
VWOS:000172251200011
p76
sS'citationCount'
p77
I55
sS'authors_init'
p78
(lp79
(VMACINTOSH
VG C
tp80
a(VWILKERSON
VC
tp81
a(VGREEN
VP J
tp82
asS'citedReferences'
p83
(lp84
g1
(g2
g3
NtRp85
(dp86
g49
Nsg45
VNATURE
p87
sg47
V407
p88
sg78
(lp89
(VAKHTAR
VA
tp90
asg57
I2000
sg43
V405
p91
sbag1
(g2
g3
NtRp92
(dp93
g49
Nsg45
VRNA WORLD
p94
sg47
Nsg78
(lp95
(VALTMAN
VS
tp96
asg57
I1999
sg43
V351
p97
sbag1
(g2
g3
NtRp98
(dp99
g49
V10.1093/nar/25.17.3389
p100
sg45
VNUCLEIC ACIDS RES
p101
sg47
V25
p102
sg78
(lp103
(VALTSCHUL
VS F
tp104
asg57
I1997
sg43
V3389
p105
sbag1
(g2
g3
NtRp106
(dp107
g49
V10.1006/jmbi.1990.9999
p108
sg45
VJ MOL BIOL
p109
sg47
V215
p110
sg78
(lp111
(VALTSCHUL
VS F
tp112
asg57
I1990
sg43
V403
p113
sbag1
(g2
g3
NtRp114
(dp115
g49
V10.1016/S0092-8674(00)81886-3
p116
sg45
VCELL
p117
sg47
V88
p118
sg78
(lp119
(VAMREIN
VH
tp120
asg57
I1997
sg43
V459
p121
sbag1
(g2
g3
NtRp122
(dp123
g49
V10.1111/j.1432-1033.1997.t01-1-00635.x
p124
sg45
VEUR J BIOCHEM
p125
sg47
V244
p126
sg78
(lp127
(VARENDS
VS
tp128
asg57
I1997
sg43
V635
p129
sbag1
(g2
g3
NtRp130
(dp131
g49
V10.1038/79594
p132
sg45
VNAT STRUCT BIOL
p133
sg47
V7
sg78
(lp134
(VBLACKBURN
VE H
tp135
asg57
I2000
sg43
V847
p136
sbag1
(g2
g3
NtRp137
(dp138
g49
V10.1104/pp.119.1.241
p139
sg45
VPLANT PHYSIOL
p140
sg47
V119
p141
sg78
(lp142
(VBURLEIGH
VS H
tp143
asg57
I1999
sg43
VLANT
p144
sbag1
(g2
g3
NtRp145
(dp146
g49
V10.1016/S0378-1119(98)00326-6
p147
sg45
VGENE
p148
sg47
V216
p149
sg78
(lp150
(VBURLEIGH
VS M
tp151
asg57
I1998
sg43
V47
p152
sbag1
(g2
g3
NtRp153
(dp154
g49
V10.1038/82816
p155
sg45
VNAT STRUCT BIOL
p156
sg47
V7
sg78
(lp157
(VCAPRARA
VM G
tp158
asg57
I2000
sg43
V831
p159
sbag1
(g2
g3
NtRp160
(dp161
g49
V10.1104/pp.123.2.423
p162
sg45
VPLANT PHYSIOL
p163
sg47
V123
p164
sg78
(lp165
(VCHORY
VJ
tp166
asg57
I2000
sg43
VLANT
p167
sbag1
(g2
g3
NtRp168
(dp169
g49
Nsg45
VEMBO J
p170
sg47
V13
p171
sg78
(lp172
(VCRESPI
VM D
tp173
asg57
I1994
sg43
V5099
p174
sbag1
(g2
g3
NtRp175
(dp176
g49
V10.1126/science.278.5338.680
p177
sg45
VSCIENCE
p178
sg47
V278
p179
sg78
(lp180
(VDERISI
VJ L
tp181
asg57
I1997
sg43
V680
p182
sbag1
(g2
g3
NtRp183
(dp184
g49
V10.1016/S0959-437X(99)00022-2
p185
sg45
VCURR OPIN GENET DEV
p186
sg47
V9
sg78
(lp187
(VEDDY
VS R
tp188
asg57
I1999
sg43
V695
p189
sbag1
(g2
g3
NtRp190
(dp191
g49
V10.1093/nar/29.1.189
p192
sg45
VNUCLEIC ACIDS RES
p193
sg47
V29
p194
sg78
(lp195
(VERDMANN
VV A
tp196
asg57
I2001
sg43
V189
p197
sbag1
(g2
g3
NtRp198
(dp199
g49
V10.1093/nar/28.1.197
p200
sg45
VNUCLEIC ACIDS RES
p201
sg47
V28
p202
sg78
(lp203
(VERDMANN
VV A
tp204
asg57
I2000
sg43
V197
p205
sbag1
(g2
g3
NtRp206
(dp207
g49
V10.1073/pnas.96.26.14813
p208
sg45
VP NATL ACAD SCI USA
p209
sg47
V96
p210
sg78
(lp211
(VFITZGERALD
VM S
tp212
asg57
I1999
sg43
V14813
p213
sbag1
(g2
g3
NtRp214
(dp215
g49
V10.1104/pp.124.4.1570
p216
sg45
VPLANT PHYSIOL
p217
sg47
V124
p218
sg78
(lp219
(VGIRKE
VT
tp220
asg57
I2000
sg43
VLANT
p221
sbag1
(g2
g3
NtRp222
(dp223
g49
V10.1126/science.274.5287.546
p224
sg45
VSCIENCE
p225
sg47
V274
p226
sg78
(lp227
(VGOFFEAU
VA
tp228
asg57
I1996
sg43
V546
p229
sbag1
(g2
g3
NtRp230
(dp231
g49
V10.1093/nar/29.1.169
p232
sg45
VNUCLEIC ACIDS RES
p233
sg47
V29
p234
sg78
(lp235
(VGORODKIN
VJ
tp236
asg57
I2001
sg43
V169
p237
sbag1
(g2
g3
NtRp238
(dp239
g49
V10.1016/S0378-1119(99)00403-5
p240
sg45
VGENE
p241
sg47
V239
p242
sg78
(lp243
(VKATO
VA
tp244
asg57
I1999
sg43
V309
p245
sbag1
(g2
g3
NtRp246
(dp247
g49
V10.1038/7734
p248
sg45
VNAT GENET
p249
sg47
V21
p250
sg78
(lp251
(VLEE
VJ T
tp252
asg57
I1999
sg43
V400
p253
sbag1
(g2
g3
NtRp254
(dp255
g49
V10.1016/0092-8674(93)90529-Y
p256
sg45
VCELL
p257
sg47
V75
p258
sg78
(lp259
(VLEE
VR C
tp260
asg57
I1993
sg43
V843
p261
sbag1
(g2
g3
NtRp262
(dp263
g49
V10.1023/A:1005729309569
p264
sg45
VPLANT MOL BIOL
p265
sg47
V33
p266
sg78
(lp267
(VLIU
VC M
tp268
asg57
I1997
sg43
VLANT
p269
sbag1
(g2
g3
NtRp270
(dp271
g49
V10.1126/science.283.5405.1168
p272
sg45
VSCIENCE
p273
sg47
V283
p274
sg78
(lp275
(VLOWE
VT M
tp276
asg57
I1999
sg43
V1168
p277
sbag1
(g2
g3
NtRp278
(dp279
g49
V10.1093/nar/25.5.955
p280
sg45
VNUCLEIC ACIDS RES
p281
sg47
V25
p282
sg78
(lp283
(VLOWE
VT M
tp284
asg57
I1997
sg43
V955
p285
sbag1
(g2
g3
NtRp286
(dp287
g49
V10.1093/nar/26.4.1107
p288
sg45
VNUCLEIC ACIDS RES
p289
sg47
V26
p290
sg78
(lp291
(VLUKASHIN
VA V
tp292
asg57
I1998
sg43
V1107
p293
sbag1
(g2
g3
NtRp294
(dp295
g49
V10.1046/j.1365-313x.2000.00893.x
p296
sg45
VPLANT J
p297
sg47
V24
p298
sg78
(lp299
(VMARTIN
VA C
tp300
asg57
I2000
sg43
VLANT
p301
sbag1
(g2
g3
NtRp302
(dp303
g49
V10.1016/S0092-8674(00)81885-1
p304
sg45
VCELL
p305
sg47
V88
p306
sg78
(lp307
(VMELLER
VV H
tp308
asg57
I1997
sg43
V445
p309
sbag1
(g2
g3
NtRp310
(dp311
g49
V10.1016/S0960-9822(00)00528-5
p312
sg45
VCURR BIOL
p313
sg47
V10
p314
sg78
(lp315
(VMOSS
VE G
tp316
asg57
I2000
sg43
VR436
p317
sbag1
(g2
g3
NtRp318
(dp319
g49
V10.1104/pp.106.4.1241
p320
sg45
VPLANT PHYSIOL
p321
sg47
V106
p322
sg78
(lp323
(VNEWMAN
VT
tp324
asg57
I1994
sg43
VLANT
p325
sbag1
(g2
g3
NtRp326
(dp327
g49
V10.1093/nar/25.22.4619
p328
sg45
VNUCLEIC ACIDS RES
p329
sg47
V25
p330
sg78
(lp331
(VOLIVAS
VW M
tp332
asg57
I1997
sg43
V4619
p333
sbag1
(g2
g3
NtRp334
(dp335
g49
V10.1016/S0092-8674(00)81155-1
p336
sg45
VCELL
p337
sg47
V93
p338
sg78
(lp339
(VPANNING
VB
tp340
asg57
I1998
sg43
V305
p341
sbag1
(g2
g3
NtRp342
(dp343
g49
V10.1038/35040556
p344
sg45
VNATURE
p345
sg47
V408
p346
sg78
(lp347
(VPASQUINELLI
VA E
tp348
asg57
I2000
sg43
V86
p349
sbag1
(g2
g3
NtRp350
(dp351
g49
V10.1093/bioinformatics/15.11.887
p352
sg45
VBIOINFORMATICS
p353
sg47
V15
p354
sg78
(lp355
(VPAVY
VN
tp356
asg57
I1999
sg43
V887
p357
sbag1
(g2
g3
NtRp358
(dp359
g49
V10.1016/S0196-9781(00)00226-6
p360
sg45
VPEPTIDES
p361
sg47
V21
p362
sg78
(lp363
(VREINSCHEID
VR K
tp364
asg57
I2000
sg43
VEPTIDES
p365
sbag1
(g2
g3
NtRp366
(dp367
g49
V10.1104/pp.125.1.65
p368
sg45
VPLANT PHYSIOL
p369
sg47
V125
p370
sg78
(lp371
(VRYAN
VC A
tp372
asg57
I2001
sg43
VLANT
p373
sbag1
(g2
g3
NtRp374
(dp375
g49
V10.1101/gr.10.4.516
p376
sg45
VGENOME RES
p377
sg47
V10
p378
sg78
(lp379
(VSALAMOV
VA A
tp380
asg57
I2000
sg43
V516
p381
sbag1
(g2
g3
NtRp382
(dp383
g49
V10.1104/pp.124.3.935
p384
sg45
VPLANT PHYSIOL
p385
sg47
V124
p386
sg78
(lp387
(VSCHOPFER
VC R
tp388
asg57
I2000
sg43
VLANT
p389
sbag1
(g2
g3
NtRp390
(dp391
g49
V10.1128/MCB.21.1.354-366.2001
p392
sg45
VMOL CELL BIOL
p393
sg47
V21
p394
sg78
(lp395
(VSOUSA
VC
tp396
asg57
I2001
sg43
V354
p397
sbag1
(g2
g3
NtRp398
(dp399
g49
V10.1007/BF00042035
p400
sg45
VPLANT MOL BIOL
p401
sg47
V28
p402
sg78
(lp403
(VTAYLOR
VC B
tp404
asg57
I1995
sg43
VLANT
p405
sbag1
(g2
g3
NtRp406
(dp407
g49
V10.1007/BF00020478
p408
sg45
VPLANT MOL BIOL
p409
sg47
V32
p410
sg78
(lp411
(VTERAMOTO
VH
tp412
asg57
I1996
sg43
VLANT
p413
sbag1
(g2
g3
NtRp414
(dp415
g49
Nsg45
VPLANTA
p416
sg47
V196
p417
sg78
(lp418
(VTERAMOTO
VH
tp419
asg57
I1995
sg43
VLANTA
p420
sbag1
(g2
g3
NtRp421
(dp422
g49
V10.1016/S0378-1119(98)00286-8
p423
sg45
VGENE
p424
sg47
V215
p425
sg78
(lp426
(VTERRYN
VN
tp427
asg57
I1998
sg43
V11
p428
sbag1
(g2
g3
NtRp429
(dp430
g49
V10.1016/S1360-1385(00)01696-4
p431
sg45
VTRENDS PLANT SCI
p432
sg47
V5
sg78
(lp433
(VTERRYN
VN
tp434
asg57
I2000
sg43
V394
p435
sbag1
(g2
g3
NtRp436
(dp437
g49
Nsg45
VNATURE
p438
sg47
V408
p439
sg78
(lp440
(VKAUL
VS
tp441
asg57
I2000
sg43
V796
p442
sbag1
(g2
g3
NtRp443
(dp444
g49
Nsg45
VPlant Physiology 
p445
sg47
V113
p446
sg78
(lp447
(VVAN
VHOOF AMBRO
tp448
asg57
I1997
sg43
Vlant
p449
sbag1
(g2
g3
NtRp450
(dp451
g49
V10.1126/science.273.5273.370
p452
sg45
VSCIENCE
p453
sg47
V273
p454
sg78
(lp455
(VVANDESANDE
VK
tp456
asg57
I1996
sg43
V370
p457
sbag1
(g2
g3
NtRp458
(dp459
g49
V10.1016/S0092-8674(00)81845-0
p460
sg45
VCELL
p461
sg47
V88
p462
sg78
(lp463
(VVELCULESCU
VV E
tp464
asg57
I1997
sg43
V243
p465
sbag1
(g2
g3
NtRp466
(dp467
g49
V10.1126/science.287.5456.1212
p468
sg45
VSCIENCE
p469
sg47
V287
p470
sg78
(lp471
(VWALTER
VP
tp472
asg57
I2000
sg43
V1212
p473
sbag1
(g2
g3
NtRp474
(dp475
g49
V10.1016/0092-8674(94)90426-X
p476
sg45
VCELL
p477
sg47
V78
p478
sg78
(lp479
(VWATANABE
VY
tp480
asg57
I1994
sg43
V487
p481
sbag1
(g2
g3
NtRp482
(dp483
g49
V10.1104/pp.122.4.1003
p484
sg45
VPLANT PHYSIOL
p485
sg47
V122
p486
sg78
(lp487
(VWEIGEL
VD
tp488
asg57
I2000
sg43
VLANT
p489
sbag1
(g2
g3
NtRp490
(dp491
g49
V10.1104/pp.124.4.1582
p492
sg45
VPLANT PHYSIOL
p493
sg47
V124
p494
sg78
(lp495
(VWHITE
VJ A
tp496
asg57
I2000
sg43
VLANT
p497
sbag1
(g2
g3
NtRp498
(dp499
g49
Nsg45
VJ CLIN PATHOL
p500
sg47
V54
p501
sg78
(lp502
(VWILDSMITH
VS E
tp503
asg57
I2001
sg43
V8
sbag1
(g2
g3
NtRp504
(dp505
g49
V10.1038/386228a0
p506
sg45
VNATURE
p507
sg47
V386
p508
sg78
(lp509
(VWILLARD
VH
tp510
asg57
I1997
sg43
V228
p511
sbasb.