ccopy_reg
_reconstructor
p1
(ctethne.classes.paper
Paper
p2
c__builtin__
object
p3
NtRp4
(dp5
S'publisherCity'
p6
VROCKVILLE
p7
sS'reprintAddress'
p8
VWang, GL (reprint author), Ohio State Univ, Dept Plant Pathol, Columbus, OH 43210 USA.
p9
sS'WC'
p10
VPlant Sciences
p11
sS'GA'
p12
V479XZ
p13
sS'FX'
p14
(lp15
VThis work was supported by the National Science Foundation-Plant Genome
p16
aVResearch Program (grant no. 0605017).
p17
asS'abstract'
p18
VWith the recent availability of complete genomic sequences of many organisms, high-throughput and cost-efficient systems for gene cloning and functional analysis are in great demand. Although site-specific recombination-based cloning systems, such as Gateway cloning technology, are extremely useful for efficient transfer of DNA fragments into multiple destination vectors, the two-step cloning process is time consuming and expensive. Here, we report a zero background TA cloning system that provides simple and high-efficiency direct cloning of PCR-amplified DNA fragments with almost no self-ligation. The improved T-vector system takes advantage of the restriction enzyme XcmI to generate a T-overhang after digestion and the negative selection marker gene ccdB to eliminate the self-ligation background after transformation. We demonstrate the feasibility and flexibility of the technology by developing a set of transient and stable transformation vectors for constitutive gene expression, gene silencing, protein tagging, protein subcellular localization detection, and promoter fragment activity analysis in plants. Because the system can be easily adapted for developing specialized expression vectors for other organisms, zero background TA provides a general, cost-efficient, and high-throughput platform that complements the Gateway cloning system for gene cloning and functional genomics.
p19
sS'pageEnd'
p20
I1121
sS'date'
p21
I2009
sS'documentType'
p22
VArticle
p23
sS'subject'
p24
VPlant Sciences
p25
sS'isoSource'
p26
VPlant Physiol.
p27
sS'timesCited'
p28
(lp29
I37
aVZ9 41
p30
asS'funding'
p31
(lp32
(VNational Science Foundation-Plant Genome Research Program
V0605017
tp33
asS'PT'
p34
VJ
sS'title'
p35
VA Versatile Zero Background T-Vector System For Gene Cloning And Functional Genomics
p36
sS'ISSN'
p37
(lp38
V0032-0889
p39
aVJ9 PLANT PHYSIOL
p40
asS'authors_full'
p41
(lp42
(VCHEN
VSONGBIAO
tp43
a(VSONGKUMARN
VPATTAVIPHA
tp44
a(VLIU
VJIANLI
tp45
a(VWANG
VGUOLIANG
tp46
asS'PG'
p47
I11
sS'PD'
p48
VJUL
p49
sS'pageStart'
p50
I1111
sS'issue'
p51
I3
sS'journal'
p52
VPLANT PHYSIOLOGY
p53
sS'volume'
p54
V150
p55
sS'doi'
p56
V10.1104/pp.109.137125
p57
sS'emailAddress'
p58
Vwang.620@osu.edu
p59
sS'authorAddress'
p60
(lp61
V[Chen, Songbiao; Songkumarn, Pattavipha; Liu, Jianli; Wang, Guo-Liang] Ohio State Univ, Dept Plant Pathol, Columbus, OH 43210 USA.
p62
aV[Wang, Guo-Liang] Hunan Agr Univ, Hunan Prov Key Lab Crop Germplasm Innovat & Utili, Changsha 410128, Hunan, Peoples R China.
p63
asS'publisherAddress'
p64
V15501 MONONA DRIVE, ROCKVILLE, MD 20855 USA
p65
sS'ER'
p66
V
sS'publisher'
p67
VAMER SOC PLANT BIOLOGISTS
p68
sS'authorKeywords'
p69
(lp70
VARTIFICIAL MICRORNAS
p71
aVPCR PRODUCTS
p72
aVRECOMBINATIONAL CLONING
p73
aVARABIDOPSIS-THALIANA
p74
aVVIRUS-RESISTANCE
p75
aVBINARY VECTORS
p76
aVDNA
p77
aVEXPRESSION
p78
aVPLANTS
p79
aVRICE
p80
asS'language'
p81
VEnglish
p82
sS'wosid'
p83
VWOS:000268696800002
p84
sS'citationCount'
p85
I41
sS'authors_init'
p86
(lp87
(VCHEN
VS B
tp88
a(VSONGKUMARN
VP
tp89
a(VLIU
VJ L
tp90
a(VWANG
VG L
tp91
asS'citedReferences'
p92
(lp93
g1
(g2
g3
NtRp94
(dp95
g56
V10.1016/0022-2836(92)90629-X
p96
sg52
VJ MOL BIOL
p97
sg54
V226
p98
sg86
(lp99
(VBERNARD
VP
tp100
asg21
I1992
sg50
V735
p101
sbag1
(g2
g3
NtRp102
(dp103
g56
V10.1016/j.ab.2006.08.015
p104
sg52
VANAL BIOCHEM
p105
sg54
V358
p106
sg86
(lp107
(VCHEN
VQ J
tp108
asg21
I2006
sg50
V120
p109
sbag1
(g2
g3
NtRp110
(dp111
g56
V10.1111/j.1364-3703.2006.00346.x
p112
sg52
VMOL PLANT PATHOL
p113
sg54
V7
sg86
(lp114
(VCHEN
VS B
tp115
asg21
I2006
sg50
V417
p116
sbag1
(g2
g3
NtRp117
(dp118
g56
V10.1007/BF00020010
p119
sg52
VPLANT MOL BIOL
p120
sg54
V18
p121
sg86
(lp122
(VCHRISTENSEN
VA H
tp123
asg21
I1992
sg50
VLANT
p124
sbag1
(g2
g3
NtRp125
(dp126
g56
V10.1046/j.1365-313x.1998.00343.x
p127
sg52
VPLANT J
p128
sg54
V16
p129
sg86
(lp130
(VCLOUGH
VS J
tp131
asg21
I1998
sg50
VLANT
p132
sbag1
(g2
g3
NtRp133
(dp134
g56
V10.1104/pp.103.027979
p135
sg52
VPLANT PHYSIOL
p136
sg54
V133
p137
sg86
(lp138
(VCURTIS
VM D
tp139
asg21
I2003
sg50
VLANT
p140
sbag1
(g2
g3
NtRp141
(dp142
g56
V10.1186/1746-4811-4-3
p143
sg52
VPLANT METHODS
p144
sg54
V4
sg86
(lp145
(VDUBIN
VM J
tp146
asg21
I2008
sg50
VLANT
p147
sbag1
(g2
g3
NtRp148
(dp149
g56
V10.1111/j.1365-313X.2005.02617.x
p150
sg52
VPLANT J
p151
sg54
V45
p152
sg86
(lp153
(VEARLEY
VK W
tp154
asg21
I2006
sg50
VLANT
p155
sbag1
(g2
g3
NtRp156
(dp157
g56
V10.1093/nar/gkn167
p158
sg52
VNUCLEIC ACIDS RES
p159
sg54
V36
p160
sg86
(lp161
(VFU
VC L
tp162
asg21
I2008
sg50
Nsbag1
(g2
g3
NtRp163
(dp164
g56
V10.1046/j.1365-313X.2002.01360.x
p165
sg52
VPLANT J
p166
sg54
V31
p167
sg86
(lp168
(VGOODIN
VM M
tp169
asg21
I2002
sg50
VLANT
p170
sbag1
(g2
g3
NtRp171
(dp172
g56
V10.1046/j.1365-313X.2003.01723.x
p173
sg52
VPLANT J
p174
sg54
V34
p175
sg86
(lp176
(VGUO
VH S
tp177
asg21
I2003
sg50
VLANT
p178
sbag1
(g2
g3
NtRp179
(dp180
g56
V10.1101/gr.143000
p181
sg52
VGENOME RES
p182
sg54
V10
p183
sg86
(lp184
(VHARTLEY
VJ L
tp185
asg21
I2000
sg50
V1788
p186
sbag1
(g2
g3
NtRp187
(dp188
g56
V10.1016/S1046-2023(03)00036-7
p189
sg52
VMETHODS
p190
sg54
V30
p191
sg86
(lp192
(VHELLIWELL
VC
tp193
asg21
I2003
sg50
V289
p194
sbag1
(g2
g3
NtRp195
(dp196
g56
V10.1046/j.1365-313X.1994.6020271.x
p197
sg52
VPLANT J
p198
sg54
V6
sg86
(lp199
(VHIEI
VY
tp200
asg21
I1994
sg50
VLANT
p201
sbag1
(g2
g3
NtRp202
(dp203
g56
V10.1016/j.tplants.2006.01.006
p204
sg52
VTRENDS PLANT SCI
p205
sg54
V11
p206
sg86
(lp207
(VHILSON
VP
tp208
asg21
I2006
sg50
V133
p209
sbag1
(g2
g3
NtRp210
(dp211
g56
V10.1104/pp.107.111575
p212
sg52
VPLANT PHYSIOL
p213
sg54
V145
p214
sg86
(lp215
(VHIMMELBACH
VA
tp216
asg21
I2007
sg50
VLANT
p217
sbag1
(g2
g3
NtRp218
(dp219
g56
V10.1093/nar/19.5.1156
p220
sg52
VNUCLEIC ACIDS RES
p221
sg54
V19
p222
sg86
(lp223
(VHOLTON
VT A
tp224
asg21
I1991
sg50
V1156
p225
sbag1
(g2
g3
NtRp226
(dp227
g56
V10.1016/0378-1119(93)90361-6
p228
sg52
VGENE
p229
sg54
V130
p230
sg86
(lp231
(VICHIHARA
VY
tp232
asg21
I1993
sg50
V153
p233
sbag1
(g2
g3
NtRp234
(dp235
g56
Nsg52
VEMBO J
p236
sg54
V6
sg86
(lp237
(VJEFFERSON
VR A
tp238
asg21
I1987
sg50
V3901
p239
sbag1
(g2
g3
NtRp240
(dp241
g56
V10.1104/pp.107.106989
p242
sg52
VPLANT PHYSIOL
p243
sg54
V145
p244
sg86
(lp245
(VKARIMI
VM
tp246
asg21
I2007
sg50
VLANT
p247
sbag1
(g2
g3
NtRp248
(dp249
g56
V10.1016/j.tplants.2005.01.008
p250
sg52
VTRENDS PLANT SCI
p251
sg54
V10
p252
sg86
(lp253
(VKARIMI
VM
tp254
asg21
I2005
sg50
V103
p255
sbag1
(g2
g3
NtRp256
(dp257
g56
V10.1104/pp.107.110411
p258
sg52
VPLANT PHYSIOL
p259
sg54
V145
p260
sg86
(lp261
(VKARIMI
VM
tp262
asg21
I2007
sg50
VLANT
p263
sbag1
(g2
g3
NtRp264
(dp265
g56
V10.1016/S1360-1385(02)02251-3
p266
sg52
VTRENDS PLANT SCI
p267
sg54
V7
sg86
(lp268
(VKARIMI
VM
tp269
asg21
I2002
sg50
V193
p270
sbag1
(g2
g3
NtRp271
(dp272
g56
V10.1093/nar/19.16.4560
p273
sg52
VNUCLEIC ACIDS RES
p274
sg54
V19
p275
sg86
(lp276
(VKOVALIC
VD
tp277
asg21
I1991
sg50
V4560
p278
sbag1
(g2
g3
NtRp279
(dp280
g56
V10.1111/j.1672-9072.2007.00442.x
p281
sg52
VJ INTEGR PLANT BIOL
p282
sg54
V49
p283
sg86
(lp284
(VLEI
VZ Y
tp285
asg21
I2007
sg50
V556
p286
sbag1
(g2
g3
NtRp287
(dp288
g56
V10.1093/nar/19.5.1154
p289
sg52
VNUCLEIC ACIDS RES
p290
sg54
V19
p291
sg86
(lp292
(VMARCHUK
VD
tp293
asg21
I1991
sg50
V1154
p294
sbag1
(g2
g3
NtRp295
(dp296
g56
V10.1101/gr.2528804
p297
sg52
VGENOME RES
p298
sg54
V14
p299
sg86
(lp300
(VMARSISCHKY
VG
tp301
asg21
I2004
sg50
V2020
p302
sbag1
(g2
g3
NtRp303
(dp304
g56
V10.1038/nbt0791-657
p305
sg52
VBIO
p306
sg54
V9
sg86
(lp307
(VMEAD
VD A
tp308
asg21
I1991
sg50
V657
p309
sbag1
(g2
g3
NtRp310
(dp311
g56
V10.1093/pcp/pch048
p312
sg52
VPLANT CELL PHYSIOL
p313
sg54
V45
p314
sg86
(lp315
(VMIKI
VD
tp316
asg21
I2004
sg50
VLANT
p317
sbag1
(g2
g3
NtRp318
(dp319
g56
V10.1016/0022-2836(92)91024-J
p320
sg52
VJ MOL BIOL
p321
sg54
V225
p322
sg86
(lp323
(VMIKI
VT
tp324
asg21
I1992
sg50
V39
p325
sbag1
(g2
g3
NtRp326
(dp327
g56
V10.1038/nbt1255
p328
sg52
VNAT BIOTECHNOL
p329
sg54
V24
p330
sg86
(lp331
(VNIU
VQ W
tp332
asg21
I2006
sg50
V1420
p333
sbag1
(g2
g3
NtRp334
(dp335
g56
V10.1038/313810a0
p336
sg52
VNATURE
p337
sg54
V313
p338
sg86
(lp339
(VODELL
VJ T
tp340
asg21
I1985
sg50
V810
p341
sbag1
(g2
g3
NtRp342
(dp343
g56
V10.1111/j.1365-313X.2007.03328.x
p344
sg52
VPLANT J
p345
sg54
V53
p346
sg86
(lp347
(VOSSOWSKI
VS
tp348
asg21
I2008
sg50
VLANT
p349
sbag1
(g2
g3
NtRp350
(dp351
g56
Nsg52
VMOL CLONING LAB MANU
p352
sg54
Nsg86
(lp353
(VSAMBROOK
VJ
tp354
asg21
I2001
sg50
Nsbag1
(g2
g3
NtRp355
(dp356
g56
V10.1105/tpc.105.039834
p357
sg52
VPLANT CELL
p358
sg54
V18
p359
sg86
(lp360
(VSCHWAB
VR
tp361
asg21
I2006
sg50
VLANT
p362
sbag1
(g2
g3
NtRp363
(dp364
g56
V10.1038/35030305
p365
sg52
VNATURE
p366
sg54
V407
p367
sg86
(lp368
(VSMITH
VN A
tp369
asg21
I2000
sg50
V319
p370
sbag1
(g2
g3
NtRp371
(dp372
g56
V10.1105/tpc.108.058610
p373
sg52
VPLANT CELL
p374
sg54
V20
p375
sg86
(lp376
(VVEGA-SANCHEZ
VM E
tp377
asg21
I2008
sg50
VLANT
p378
sbag1
(g2
g3
NtRp379
(dp380
g56
V10.1371/journal.pone.0001829
p381
sg52
VPLOS ONE
p382
sg54
V3
sg86
(lp383
(VWARTHMANN
VN
tp384
asg21
I2008
sg50
VLOS
p385
sbag1
(g2
g3
NtRp386
(dp387
g56
V10.1073/pnas.95.23.13959
p388
sg52
VP NATL ACAD SCI USA
p389
sg54
V95
p390
sg86
(lp391
(VWATERHOUSE
VP M
tp392
asg21
I1998
sg50
V13959
p393
sbag1
(g2
g3
NtRp394
(dp395
g56
V10.1016/j.cbpa.2008.01.024
p396
sg52
VCURR OPIN CHEM BIOL
p397
sg54
V12
p398
sg86
(lp399
(VYASHIRODA
VY
tp400
asg21
I2008
sg50
V55
p401
sbag1
(g2
g3
NtRp402
(dp403
g56
V10.1007/s001220050060
p404
sg52
VTHEOR APPL GENET
p405
sg54
V100
p406
sg86
(lp407
(VYIN
VZ
tp408
asg21
I2000
sg50
V461
p409
sbasb.