ccopy_reg
_reconstructor
p1
(ctethne.classes.paper
Paper
p2
c__builtin__
object
p3
NtRp4
(dp5
S'publisherCity'
p6
VROCKVILLE
p7
sS'reprintAddress'
p8
VGroover, A (reprint author), Forest Serv, Inst Forest Genet, Pacific SW Res Stn, USDA, Davis, CA 95616 USA.
p9
sS'WC'
p10
VPlant Sciences
p11
sS'GA'
p12
V812SY
p13
sS'abstract'
p14
VWe report a gene discovery system for poplar trees based on gene and enhancer traps. Gene and enhancer trap vectors carrying the beta-glucuronidase (GUS) reporter gene were inserted into the poplar genome via Agrobacterium tumefaciens transformation, where they reveal the expression pattern of genes at or near the insertion sites. Because GUS expression phenotypes are dominant and are scored in primary transformants, this system does not require rounds of sexual recombination, a typical barrier to developmental genetic studies in trees. Gene and enhancer trap lines defining genes expressed during primary and secondary vascular development were identified and characterized. Collectively, the vascular gene expression patterns revealed that approximately 40% of genes expressed in leaves were expressed exclusively in the veins, indicating that a large set of genes is required for vascular development and function. Also, significant overlap was found between the sets of genes responsible for development and function of secondary vascular tissues of stems and primary vascular tissues in other organs of the plant, likely reflecting the common evolutionary origin of these tissues. Chromosomal DNA flanking insertion sites was amplified by thermal asymmetric interlaced PCR and sequenced and used to identify insertion sites by reference to the nascent Populus trichocarpa genome sequence. Extension of the system was demonstrated through isolation of full-length cDNAs for five genes of interest, including a new class of vascular-expressed gene tagged by enhancer trap line cET-1-pop1-145. Poplar gene and enhancer traps provide a new resource that allows plant biologists to directly reference the poplar genome sequence and identify novel genes of interest in forest biology.
p15
sS'pageEnd'
p16
I1751
sS'publisherAddress'
p17
V15501 MONONA DRIVE, ROCKVILLE, MD 20855 USA
p18
sS'documentType'
p19
VArticle
p20
sS'subject'
p21
VPlant Sciences
p22
sS'isoSource'
p23
VPlant Physiol.
p24
sS'timesCited'
p25
(lp26
I31
aVZ9 37
p27
asS'PT'
p28
VJ
sS'title'
p29
VGene And Enhancer Trap Tagging Of Vascular-Expressed Genes In Poplar Trees
p30
sS'ISSN'
p31
(lp32
V0032-0889
p33
aVJ9 PLANT PHYSIOL
p34
asS'authors_full'
p35
(lp36
(VGROOVER
VA
tp37
a(VFONTANA
VJR
tp38
a(VDUPPER
VG
tp39
a(VMA
VCP
tp40
a(VMARTIENSSEN
VR
tp41
a(VSTRAUSS
VS
tp42
a(VMEILAN
VR
tp43
asS'PG'
p44
I10
sS'PD'
p45
VAPR
p46
sS'pageStart'
p47
I1742
sS'issue'
p48
I4
sS'journal'
p49
VPLANT PHYSIOLOGY
p50
sS'volume'
p51
V134
p52
sS'doi'
p53
V10.1104/pp.103.034330
p54
sS'emailAddress'
p55
Vagroover@fs.fed.us
p56
sS'authorAddress'
p57
(lp58
VForest Serv, Inst Forest Genet, Pacific SW Res Stn, USDA, Davis, CA 95616 USA.
p59
aVForest Serv, Inst Forest Genet, Pacific SW Res Stn, USDA, Placerville, CA 95667 USA.
p60
aVOregon State Univ, Dept Forest Sci, Corvallis, OR 97331 USA.
p61
aVCold Spring Harbor Lab, Cold Spring Harbor, NY 11724 USA.
p62
asS'date'
p63
I2004
sS'ER'
p64
V
sS'publisher'
p65
VAMER SOC PLANT BIOLOGISTS
p66
sS'authorKeywords'
p67
(lp68
VPLANT DEVELOPMENT
p69
aVARABIDOPSIS
p70
aVPOPULUS
p71
asS'language'
p72
VEnglish
p73
sS'wosid'
p74
VWOS:000220860400047
p75
sS'citationCount'
p76
I16
sS'authors_init'
p77
(lp78
(VGROOVER
VA
tp79
a(VFONTANA
VJ R
tp80
a(VDUPPER
VG
tp81
a(VMA
VC P
tp82
a(VMARTIENSSEN
VR
tp83
a(VSTRAUSS
VS
tp84
a(VMEILAN
VR
tp85
asS'citedReferences'
p86
(lp87
g1
(g2
g3
NtRp88
(dp89
g53
V10.1016/S1369-5266(00)00145-X
p90
sg49
VCURR OPIN PLANT BIOL
p91
sg51
V4
sg77
(lp92
(VBOUCHE
VN
tp93
asg63
I2001
sg47
V111
p94
sbag1
(g2
g3
NtRp95
(dp96
g53
V10.1007/s003440000030
p97
sg49
VJ PLANT GROWTH REGUL
p98
sg51
V19
p99
sg77
(lp100
(VBRADSHAW
VH D
tp101
asg63
I2000
sg47
V306
p102
sbag1
(g2
g3
NtRp103
(dp104
g53
V10.1104/pp.103.020354
p105
sg49
VPLANT PHYSIOL
p106
sg51
V132
p107
sg77
(lp108
(VBUSOV
VV B
tp109
asg63
I2003
sg47
VLANT
p110
sbag1
(g2
g3
NtRp111
(dp112
g53
V10.1104/pp.103.020099
p113
sg49
VPLANT PHYSIOL
p114
sg51
V132
p115
sg77
(lp116
(VGROOVER
VA T
tp117
asg63
I2003
sg47
VLANT
p118
sbag1
(g2
g3
NtRp119
(dp120
g53
Nsg49
VDEVELOPMENT
p121
sg51
V125
p122
sg77
(lp123
(VGU
VQ
tp124
asg63
I1998
sg47
V1509
p125
sbag1
(g2
g3
NtRp126
(dp127
g53
VDOI 10.1111/J.1469-8137.2009.02874.X
p128
sg49
VNUCL ACIDS S SER
p129
sg51
V41
p130
sg77
(lp131
(VHALL
VT A
tp132
asg63
I1999
sg47
V95
p133
sbag1
(g2
g3
NtRp134
(dp135
g53
V10.1007/s002990050019
p136
sg49
VPLANT CELL REP
p137
sg51
V19
p138
sg77
(lp139
(VHAN
VK H
tp140
asg63
I2000
sg47
VLANT
p141
sbag1
(g2
g3
NtRp142
(dp143
g53
V10.1023/A:1023919331037
p144
sg49
VPLANT MOL BIOL
p145
sg51
V52
p146
sg77
(lp147
(VJOHANSSON
VA M
tp148
asg63
I2003
sg47
VLANT
p149
sbag1
(g2
g3
NtRp150
(dp151
g53
V10.1126/science.286.5446.1962
p152
sg49
VSCIENCE
p153
sg51
V286
p154
sg77
(lp155
(VKARDAILSKY
VI
tp156
asg63
I1999
sg47
V1962
p157
sbag1
(g2
g3
NtRp158
(dp159
g53
V10.1105/tpc.11.12.2283
p160
sg49
VPLANT CELL
p161
sg51
V11
p162
sg77
(lp163
(VKRYSAN
VP J
tp164
asg63
I1999
sg47
VLANT
p165
sbag1
(g2
g3
NtRp166
(dp167
g53
V10.1105/tpc.9.7.1121
p168
sg49
VPLANT CELL
p169
sg51
V9
sg77
(lp170
(VNELSON
VT
tp171
asg63
I1997
sg47
VLANT
p172
sbag1
(g2
g3
NtRp173
(dp174
g53
V10.1073/pnas.97.3.1311
p175
sg49
VP NATL ACAD SCI USA
p176
sg51
V97
p177
sg77
(lp178
(VPRUITT
VR E
tp179
asg63
I2000
sg47
V1311
p180
sbag1
(g2
g3
NtRp181
(dp182
g53
V10.1105/tpc.004630
p183
sg49
VPLANT CELL
p184
sg51
V14
p185
sg77
(lp186
(VSESSIONS
VA
tp187
asg63
I2002
sg47
VLANT
p188
sbag1
(g2
g3
NtRp189
(dp190
g53
V10.1105/tpc.12.7.1007
p191
sg49
VPLANT CELL
p192
sg51
V12
p193
sg77
(lp194
(VSPRINGER
VP S
tp195
asg63
I2000
sg47
VLANT
p196
sbag1
(g2
g3
NtRp197
(dp198
g53
V10.1126/science.7754372
p199
sg49
VSCIENCE
p200
sg51
V268
p201
sg77
(lp202
(VSPRINGER
VP S
tp203
asg63
I1995
sg47
V877
p204
sbag1
(g2
g3
NtRp205
(dp206
g53
V10.1101/gad.9.14.1797
p207
sg49
VGENE DEV
p208
sg51
V9
sg77
(lp209
(VSUNDARESAN
VV
tp210
asg63
I1995
sg47
V1797
p211
sbasb.