ccopy_reg
_reconstructor
p1
(ctethne.classes.paper
Paper
p2
c__builtin__
object
p3
NtRp4
(dp5
S'publisherCity'
p6
VROCKVILLE
p7
sS'reprintAddress'
p8
VDanon, A (reprint author), Weizmann Inst Sci, Dept Plant Sci, IL-76100 Rehovot, Israel.
p9
sS'WC'
p10
VPlant Sciences
p11
sS'GA'
p12
V414DI
p13
sS'FX'
p14
(lp15
VThis work was supported by the Israeli Science Foundation, by the
p16
aVMinerva Foundation, and by the Charles W. and Tillie K. Lubin Center for
p17
aVPlant Biotechnology at theWeizmann Institute of Science.
p18
asS'abstract'
p19
VThe reduction and the formation of regulatory disulfide bonds serve as a key signaling element in chloroplasts. Members of the thioredoxin (Trx) superfamily of oxidoreductases play a major role in these processes. We have characterized a small family of plant-specific Trxs in Arabidopsis (Arabidopsis thaliana) that are rich in cysteine and histidine residues and are typified by a variable noncanonical redox active site. We found that the redox midpoint potential of three selected family members is significantly less reducing than that of the classic Trxs. Assays of subcellular localization demonstrated that all proteins are localized to the chloroplast. Selected members showed high activity, contingent on a dithiol electron donor, toward the chloroplast 2-cysteine peroxiredoxin A and poor activity toward the chloroplast NADP-malate dehydrogenase. The expression profile of the family members suggests that they have distinct roles. The intermediate redox midpoint potential value of the atypical Trxs might imply adaptability to function in modulating the redox state of chloroplast proteins with regulatory disulfides.
p20
sS'pageEnd'
p21
I1250
sS'date'
p22
I2009
sS'documentType'
p23
VArticle
p24
sS'subject'
p25
VPlant Sciences
p26
sS'isoSource'
p27
VPlant Physiol.
p28
sS'timesCited'
p29
(lp30
I16
aVZ9 21
p31
asS'funding'
p32
(lp33
(VIsraeli Science Foundation
Ntp34
a(VMinerva Foundation
Ntp35
a(VCharles W. and Tillie K. Lubin Center for Plant Biotechnology at theWeizmann Institute of Science
Ntp36
asS'PT'
p37
VJ
sS'title'
p38
VA Small Family Of Chloroplast Atypical Thioredoxins
p39
sS'ISSN'
p40
(lp41
V0032-0889
p42
aVJ9 PLANT PHYSIOL
p43
asS'authors_full'
p44
(lp45
(VDANGOOR
VINBAL
tp46
a(VPELEDZEHAVI
VHADAS
tp47
a(VLEVITAN
VALEXANDER
tp48
a(VPASAND
VOHAD
tp49
a(VDANON
VAVIHAI
tp50
asS'PG'
p51
I11
sS'PD'
p52
VMAR
p53
sS'pageStart'
p54
I1240
sS'issue'
p55
I3
sS'journal'
p56
VPLANT PHYSIOLOGY
p57
sS'volume'
p58
V149
p59
sS'doi'
p60
V10.1104/pp.108.128314
p61
sS'emailAddress'
p62
Vavihai.danon@weizmann.ac.il
p63
sS'authorAddress'
p64
V[Dangoor, Inbal; Peled-Zehavi, Hadas; Levitan, Alexander; Pasand, Ohad; Danon, Avihai] Weizmann Inst Sci, Dept Plant Sci, IL-76100 Rehovot, Israel.
p65
sS'publisherAddress'
p66
V15501 MONONA DRIVE, ROCKVILLE, MD 20855 USA
p67
sS'ER'
p68
V
sS'publisher'
p69
VAMER SOC PLANT BIOLOGISTS
p70
sS'authorKeywords'
p71
(lp72
VPROTEIN DISULFIDE-ISOMERASE
p73
aVESCHERICHIA-COLI THIOREDOXIN
p74
aVBOND FORMATION
p75
aVCHLAMYDOMONAS-REINHARDTII
p76
aVPLASTIDIAL THIOREDOXINS
p77
aVTOBACCO CHLOROPLASTS
p78
aVTHYLAKOID LUMEN
p79
aVCXXC-MOTIF
p80
aVARABIDOPSIS
p81
aVREDUCTION
p82
asS'language'
p83
VEnglish
p84
sS'wosid'
p85
VWOS:000263843700004
p86
sS'citationCount'
p87
I55
sS'authors_init'
p88
(lp89
(VDANGOOR
VI
tp90
a(VPELEDZEHAVI
VH
tp91
a(VLEVITAN
VA
tp92
a(VPASAND
VO
tp93
a(VDANON
VA
tp94
asS'citedReferences'
p95
(lp96
g1
(g2
g3
NtRp97
(dp98
g60
V10.1016/S0014-5793(02)03342-2
p99
sg56
VFEBS LETT
p100
sg58
V529
p101
sg88
(lp102
(VARONSSON
VH
tp103
asg22
I2002
sg54
V215
p104
sbag1
(g2
g3
NtRp105
(dp106
g60
V10.1074/jbc.272.49.30780
p107
sg56
VJ BIOL CHEM
p108
sg58
V272
p109
sg88
(lp110
(VASLUND
VF
tp111
asg22
I1997
sg54
V30780
p112
sbag1
(g2
g3
NtRp113
(dp114
g60
V10.1111/j.1467-7652.2007.00298.x
p115
sg56
VPLANT BIOTECHNOL J
p116
sg58
V6
sg88
(lp117
(VBALLY
VJ
tp118
asg22
I2008
sg54
VLANT
p119
sbag1
(g2
g3
NtRp120
(dp121
g60
V10.1146/annurev.pp.31.060180.002013
p122
sg56
VANNU REV PLANT PHYS
p123
sg58
V31
p124
sg88
(lp125
(VBUCHANAN
VB B
tp126
asg22
I1980
sg54
V341
p127
sbag1
(g2
g3
NtRp128
(dp129
g60
V10.1146/annurev.arplant.56.032604.144246
p130
sg56
VANNU REV PLANT BIOL
p131
sg58
V56
p132
sg88
(lp133
(VBUCHANAN
VB B
tp134
asg22
I2005
sg54
V187
p135
sbag1
(g2
g3
NtRp136
(dp137
g60
V10.1006/jmbi.2000.4006
p138
sg56
VJ MOL BIOL
p139
sg58
V302
p140
sg88
(lp141
(VCAPITANI
VG
tp142
asg22
I2000
sg54
V135
p143
sbag1
(g2
g3
NtRp144
(dp145
g60
V10.1016/j.pbiomolbio.2005.06.012
p146
sg56
VPROG BIOPHYS MOL BIO
p147
sg58
V91
p148
sg88
(lp149
(VCARVALHO
VA P
tp150
asg22
I2006
sg54
VROG
p151
sbag1
(g2
g3
NtRp152
(dp153
g60
Nsg56
VEMBO J
p154
sg58
V15
p155
sg88
(lp156
(VCHIVERS
VP T
tp157
asg22
I1996
sg54
V2659
p158
sbag1
(g2
g3
NtRp159
(dp160
g60
V10.1093/bioinformatics/btg430
p161
sg56
VBIOINFORMATICS
p162
sg58
V20
p163
sg88
(lp164
(VCLAMP
VM
tp165
asg22
I2004
sg54
V426
p166
sbag1
(g2
g3
NtRp167
(dp168
g60
V10.1046/j.1365-313x.1998.00343.x
p169
sg56
VPLANT J
p170
sg58
V16
p171
sg88
(lp172
(VCLOUGH
VS J
tp173
asg22
I1998
sg54
VLANT
p174
sbag1
(g2
g3
NtRp175
(dp176
g60
V10.1074/jbc.M203028200
p177
sg56
VJ BIOL CHEM
p178
sg58
V277
p179
sg88
(lp180
(VCOLLET
VJ F
tp181
asg22
I2002
sg54
V26886
p182
sbag1
(g2
g3
NtRp183
(dp184
g60
V10.1074/jbc.M302077200
p185
sg56
VJ BIOL CHEM
p186
sg58
V278
p187
sg88
(lp188
(VCOLLIN
VV
tp189
asg22
I2003
sg54
V23747
p190
sbag1
(g2
g3
NtRp191
(dp192
g60
V10.1104/pp.104.052233
p193
sg56
VPLANT PHYSIOL
p194
sg58
V136
p195
sg88
(lp196
(VCOLLIN
VV
tp197
asg22
I2004
sg54
VLANT
p198
sbag1
(g2
g3
NtRp199
(dp200
g60
V10.1002/(SICI)1097-0134(19990301)34:4<508::AID-PROT10>3.0.CO;2-4
p201
sg56
VPROTEINS
p202
sg58
V34
p203
sg88
(lp204
(VCUFF
VJ A
tp205
asg22
I1999
sg54
VROTEINS
p206
sbag1
(g2
g3
NtRp207
(dp208
g60
V10.1016/S0968-0004(02)02066-2
p209
sg56
VTRENDS BIOCHEM SCI
p210
sg58
V27
p211
sg88
(lp212
(VDANON
VA
tp213
asg22
I2002
sg54
V197
p214
sbag1
(g2
g3
NtRp215
(dp216
g60
V10.1128/JB.182.3.723-727.2000
p217
sg56
VJ BACTERIOL
p218
sg58
V182
p219
sg88
(lp220
(VDEBARBIEUX
VL
tp221
asg22
I2000
sg54
V723
p222
sbag1
(g2
g3
NtRp223
(dp224
g60
V10.1073/pnas.0604795103
p225
sg56
VP NATL ACAD SCI USA
p226
sg58
V103
p227
sg88
(lp228
(VDERELLE
VE
tp229
asg22
I2006
sg54
V11647
p230
sbag1
(g2
g3
NtRp231
(dp232
g60
V10.1093/jxb/erj160
p233
sg56
VJ EXP BOT
p234
sg58
V57
p235
sg88
(lp236
(VDIETZ
VK J
tp237
asg22
I2006
sg54
V1697
p238
sbag1
(g2
g3
NtRp239
(dp240
g60
V10.1006/jmbi.2000.3903
p241
sg56
VJ MOL BIOL
p242
sg58
V300
p243
sg88
(lp244
(VEMANUELSSON
VO
tp245
asg22
I2000
sg54
V1005
p246
sbag1
(g2
g3
NtRp247
(dp248
g60
Nsg56
VPHYLIP PHYLOGENY INF
p249
sg58
Nsg88
(lp250
(VFELSENSTEIN
VJ
tp251
asg22
I2005
sg54
VHYLIP
p252
sbag1
(g2
g3
NtRp253
(dp254
g60
V10.1021/bi982783v
p255
sg56
VBIOCHEMISTRY
p256
sg58
V38
p257
sg88
(lp258
(VHIRASAWA
VM
tp259
asg22
I1999
sg54
V5200
p260
sbag1
(g2
g3
NtRp261
(dp262
g60
Nsg56
VJ BIOL CHEM
p263
sg58
V254
p264
sg88
(lp265
(VHOLMGREN
VA
tp266
asg22
I1979
sg54
V9627
p267
sbag1
(g2
g3
NtRp268
(dp269
g60
Nsg56
VBIOCHEM SOC T
p270
sg58
V33
p271
sg88
(lp272
(VHOLMGREN
VA
tp273
asg22
I2005
sg54
V1375
p274
sbag1
(g2
g3
NtRp275
(dp276
g60
V10.1104/pp.104.056507
p277
sg56
VPLANT PHYSIOL
p278
sg58
V137
p279
sg88
(lp280
(VHOUSTON
VN L
tp281
asg22
I2005
sg54
VLANT
p282
sbag1
(g2
g3
NtRp283
(dp284
g60
V10.1016/S1359-0278(98)00024-8
p285
sg56
VFOLD DES
p286
sg58
V3
sg88
(lp287
(VHUBER-WUNDERLICH
VM
tp288
asg22
I1998
sg54
V161
p289
sbag1
(g2
g3
NtRp290
(dp291
g60
V10.1104/pp.68.2.300
p292
sg56
VPLANT PHYSIOL
p293
sg58
V68
p294
sg88
(lp295
(VJACQUOT
VJ P P
tp296
asg22
I1981
sg54
VLANT
p297
sbag1
(g2
g3
NtRp298
(dp299
g60
Nsg56
VJ BIOL CHEM
p300
sg58
V266
p301
sg88
(lp302
(VKRAUSE
VG
tp303
asg22
I1991
sg54
V4056
p304
sbag1
(g2
g3
NtRp305
(dp306
g60
V10.1046/j.1432-1327.1998.2550185.x
p307
sg56
VEUR J BIOCHEM
p308
sg58
V255
p309
sg88
(lp310
(VKRIMM
VI
tp311
asg22
I1998
sg54
V185
p312
sbag1
(g2
g3
NtRp313
(dp314
g60
V10.1105/tpc.13.11.2539
p315
sg56
VPLANT CELL
p316
sg58
V13
p317
sg88
(lp318
(VLENNARTZ
VK
tp319
asg22
I2001
sg54
VLANT
p320
sbag1
(g2
g3
NtRp321
(dp322
g60
V10.1073/pnas.0500676102
p323
sg56
VP NATL ACAD SCI USA
p324
sg58
V102
p325
sg88
(lp326
(VLEVITAN
VA
tp327
asg22
I2005
sg54
V6225
p328
sbag1
(g2
g3
NtRp329
(dp330
g60
V10.1021/bi00077a018
p331
sg56
VBIOCHEMISTRY
p332
sg58
V32
p333
sg88
(lp334
(VLUNDSTROM
VJ
tp335
asg22
I1993
sg54
V6649
p336
sbag1
(g2
g3
NtRp337
(dp338
g60
Nsg56
VJ BIOL CHEM
p339
sg58
V267
p340
sg88
(lp341
(VLUNDSTROM
VJ
tp342
asg22
I1992
sg54
V9047
p343
sbag1
(g2
g3
NtRp344
(dp345
g60
V10.1016/S0969-2126(01)00154-X
p346
sg56
VSTRUCTURE
p347
sg58
V3
sg88
(lp348
(VMARTIN
VJ L
tp349
asg22
I1995
sg54
V245
p350
sbag1
(g2
g3
NtRp351
(dp352
g60
V10.1042/0264-6021:3590065
p353
sg56
VBIOCHEM J
p354
sg58
V359
p355
sg88
(lp356
(VMENCHISE
VV
tp357
asg22
I2001
sg54
V65
p358
sbag1
(g2
g3
NtRp359
(dp360
g60
V10.1016/j.bbamcr.2007.10.017
p361
sg56
VBBA
p362
sg58
V1783
p363
sg88
(lp364
(VMEYER
VY
tp365
asg22
I2008
sg54
V589
p366
sbag1
(g2
g3
NtRp367
(dp368
g60
V10.1016/S1360-1385(99)01475-2
p369
sg56
VTRENDS PLANT SCI
p370
sg58
V4
sg88
(lp371
(VMEYER
VY
tp372
asg22
I1999
sg54
V388
p373
sbag1
(g2
g3
NtRp374
(dp375
g60
V10.1101/gr.2275604
p376
sg56
VGENOME RES
p377
sg58
V14
p378
sg88
(lp379
(VMEYERS
VB C
tp380
asg22
I2004
sg54
V1641
p381
sbag1
(g2
g3
NtRp382
(dp383
g60
Nsg56
VPROTEIN SCI
p384
sg58
V7
sg88
(lp385
(VMOSSNER
VE
tp386
asg22
I1998
sg54
VROTEIN
p387
sbag1
(g2
g3
NtRp388
(dp389
g60
V10.1074/jbc.M605938200
p390
sg56
VJ BIOL CHEM
p391
sg58
V281
p392
sg88
(lp393
(VMOTOHASHI
VK
tp394
asg22
I2006
sg54
V35039
p395
sbag1
(g2
g3
NtRp396
(dp397
g60
V10.1016/j.bbamcr.2004.02.012
p398
sg56
VBBA
p399
sg58
V1694
p400
sg88
(lp401
(VNAKAMOTO
VH
tp402
asg22
I2004
sg54
V111
p403
sbag1
(g2
g3
NtRp404
(dp405
g60
V10.1089/152308603768295140
p406
sg56
VANTIOXID REDOX SIGN
p407
sg58
V5
sg88
(lp408
(VORTENBERG
VR
tp409
asg22
I2003
sg54
V403
p410
sbag1
(g2
g3
NtRp411
(dp412
g60
Nsg56
VCOMPUT APPL BIOSCI
p413
sg58
V12
p414
sg88
(lp415
(VPAGE
VR D M
tp416
asg22
I1996
sg54
V357
p417
sbag1
(g2
g3
NtRp418
(dp419
g60
V10.1105/tpc.106.041541
p420
sg56
VPLANT CELL
p421
sg58
V18
p422
sg88
(lp423
(VPEREZ-RUIZ
VJ M
tp424
asg22
I2006
sg54
VLANT
p425
sbag1
(g2
g3
NtRp426
(dp427
g60
V10.1104/pp.104.057935
p428
sg56
VPLANT PHYSIOL
p429
sg58
V138
p430
sg88
(lp431
(VPINA
VC
tp432
asg22
I2005
sg54
VLANT
p433
sbag1
(g2
g3
NtRp434
(dp435
g60
V10.1016/j.resmic.2004.05.005
p436
sg56
VRES MICROBIOL
p437
sg58
V155
p438
sg88
(lp439
(VPORAT
VA
tp440
asg22
I2004
sg54
V617
p441
sbag1
(g2
g3
NtRp442
(dp443
g60
V10.1074/jbc.M705291200
p444
sg56
VJ BIOL CHEM
p445
sg58
V282
p446
sg88
(lp447
(VQUAN
VS
tp448
asg22
I2007
sg54
V28823
p449
sbag1
(g2
g3
NtRp450
(dp451
g60
V10.1089/ars.2007.1931
p452
sg56
VANTIOXID REDOX SIGN
p453
sg58
V10
p454
sg88
(lp455
(VSCHURMANN
VP
tp456
asg22
I2008
sg54
V1235
p457
sbag1
(g2
g3
NtRp458
(dp459
g60
Nsg56
VTRANSIENT EXPRESSION
p460
sg58
Nsg88
(lp461
(VSHEEN
VJ
tp462
asg22
I2002
sg54
Nsbag1
(g2
g3
NtRp463
(dp464
g60
V10.1038/73796
p465
sg56
VNAT BIOTECHNOL
p466
sg58
V18
p467
sg88
(lp468
(VSTAUB
VJ M
tp469
asg22
I2000
sg54
V333
p470
sbag1
(g2
g3
NtRp471
(dp472
g60
V10.1093/nar/25.24.4876
p473
sg56
VNUCLEIC ACIDS RES
p474
sg58
V25
p475
sg88
(lp476
(VTHOMPSON
VJ D
tp477
asg22
I1997
sg54
V4876
p478
sbag1
(g2
g3
NtRp479
(dp480
g60
V10.1016/j.tibs.2004.05.005
p481
sg56
VTRENDS BIOCHEM SCI
p482
sg58
V29
p483
sg88
(lp484
(VTOLEDANO
VM B
tp485
asg22
I2004
sg54
V351
p486
sbag1
(g2
g3
NtRp487
(dp488
g60
V10.1128/MCB.20.4.1116-1123.2000
p489
sg56
VMOL CELL BIOL
p490
sg58
V20
p491
sg88
(lp492
(VTREBITSH
VT
tp493
asg22
I2000
sg54
V1116
p494
sbag1
(g2
g3
NtRp495
(dp496
g60
V10.1016/j.plantsci.2008.05.011
p497
sg56
VPLANT SCI
p498
sg58
V175
p499
sg88
(lp500
(VWITTENBERG
VG
tp501
asg22
I2008
sg54
VLANT
p502
sbag1
(g2
g3
NtRp503
(dp504
g60
V10.1021/bi00070a016
p505
sg56
VBIOCHEMISTRY
p506
sg58
V32
p507
sg88
(lp508
(VZAPUN
VA
tp509
asg22
I1993
sg54
V5083
p510
sbag1
(g2
g3
NtRp511
(dp512
g60
V10.1104/pp.104.046367
p513
sg56
VPLANT PHYSIOL
p514
sg58
V136
p515
sg88
(lp516
(VZIMMERMANN
VP
tp517
asg22
I2004
sg54
VLANT
p518
sbasb.