ccopy_reg
_reconstructor
p1
(ctethne.classes.paper
Paper
p2
c__builtin__
object
p3
NtRp4
(dp5
S'publisherCity'
p6
VROCKVILLE
p7
sS'reprintAddress'
p8
VVarotto, S (reprint author), Univ Padua, Dept Environm Agron & Crop Prod, I-35020 Legnaro, Italy.
p9
sS'WC'
p10
VPlant Sciences
p11
sS'GA'
p12
V578XG
p13
sS'FX'
p14
(lp15
VThis work was supported by the Progetti di Ricerca di Interesse
p16
aVNazionale Project of Italian Ministero dell'Istruzione, dell'Universita
p17
aVe della Ricerca.
p18
asS'abstract'
p19
VTo study the influence of PINFORMED1 (PIN1)-mediated auxin transport during embryogenesis and endosperm development in monocots, the expression pattern of the three identified ZmPIN1 genes was determined at the transcript level. Localization of the corresponding proteins was also analyzed during maize (Zea mays) kernel development. An anti-indole-3-acetic acid (IAA) monoclonal antibody was used to visualize IAA distribution and correlate the direction of auxin active transport, mediated by ZmPIN1 proteins, with the actual amount of auxin present in maize kernels at different developmental stages. ZmPIN1 genes are expressed in the endosperm soon after double fertilization occurs; however, unlike other tissues, the ZmPIN1 proteins were never polarly localized in the plasma membrane of endosperm cells. ZmPIN1 transcripts and proteins also colocalize in developing embryos, and the ZmPIN1 proteins are polarly localized in the embryo cell plasma membrane from the first developmental stages, indicating the existence of ZmPIN1-mediated auxin fluxes. Auxin distribution visualization indicates that the aleurone, the basal endosperm transfer layer, and the embryo-surrounding region accumulate free auxin, which also has a maximum in the kernel maternal chalaza. During embryogenesis, polar auxin transport always correlates with the differentiation of embryo tissues and the definition of the embryo organs. On the basis of these reports and of the observations on tissue differentiation and IAA distribution in defective endosperm-B18 mutant and in N-1-naphthylphthalamic acid-treated kernels, a model for ZmPIN1-mediated transport of auxin and the related auxin fluxes during maize kernel development is proposed. Common features between this model and the model previously proposed for Arabidopsis (Arabidopsis thaliana) are discussed.
p20
sS'pageEnd'
p21
I1390
sS'date'
p22
I2010
sS'documentType'
p23
VArticle
p24
sS'subject'
p25
VPlant Sciences
p26
sS'isoSource'
p27
VPlant Physiol.
p28
sS'timesCited'
p29
(lp30
I15
aVZ9 17
p31
asS'funding'
p32
(lp33
(VItalian Ministero dell'Istruzione, dell'Universita e della Ricerca
Ntp34
asS'PT'
p35
VJ
sS'title'
p36
VZmpin1-Mediated Auxin Transport Is Related To Cellular Differentiation During Maize Embryogenesis And Endosperm Development
p37
sS'ISSN'
p38
(lp39
V0032-0889
p40
aVJ9 PLANT PHYSIOL
p41
asS'authors_full'
p42
(lp43
(VFORESTAN
VCRISTIAN
tp44
a(VMEDA
VSILVIA
tp45
a(VVAROTTO
VSERENA
tp46
asS'PG'
p47
I18
sS'PD'
p48
VMAR
p49
sS'pageStart'
p50
I1373
sS'issue'
p51
I3
sS'journal'
p52
VPLANT PHYSIOLOGY
p53
sS'volume'
p54
V152
p55
sS'doi'
p56
V10.1104/pp.109.150193
p57
sS'emailAddress'
p58
Vserena.varotto@unipd.it
p59
sS'authorAddress'
p60
V[Forestan, Cristian; Meda, Silvia; Varotto, Serena] Univ Padua, Dept Environm Agron & Crop Prod, I-35020 Legnaro, Italy.
p61
sS'publisherAddress'
p62
V15501 MONONA DRIVE, ROCKVILLE, MD 20855 USA
p63
sS'ER'
p64
V
sS'publisher'
p65
VAMER SOC PLANT BIOLOGISTS
p66
sS'authorKeywords'
p67
(lp68
VINDOLE-ACETIC-ACID
p69
aVPLANT DEVELOPMENT
p70
aVPIN PROTEINS
p71
aVZEA-MAYS
p72
aVFATE SPECIFICATION
p73
aVPATTERN-FORMATION
p74
aVGENE-EXPRESSION
p75
aVP-GLYCOPROTEIN
p76
aVTRANSFER CELLS
p77
aVARABIDOPSIS
p78
asS'language'
p79
VEnglish
p80
sS'wosid'
p81
VWOS:000276329500022
p82
sS'citationCount'
p83
I56
sS'authors_init'
p84
(lp85
(VFORESTAN
VC
tp86
a(VMEDA
VS
tp87
a(VVAROTTO
VS
tp88
asS'citedReferences'
p89
(lp90
g1
(g2
g3
NtRp91
(dp92
g56
V10.1104/pp.003228
p93
sg52
VPLANT PHYSIOL
p94
sg54
V130
p95
sg84
(lp96
(VAVSIAN-KRETCHMER
VO
tp97
asg22
I2002
sg50
VLANT
p98
sbag1
(g2
g3
NtRp99
(dp100
g56
V10.1007/s11103-005-3479-1
p101
sg52
VPLANT MOL BIOL
p102
sg54
V58
p103
sg84
(lp104
(VBALANDIN
VM
tp105
asg22
I2005
sg50
VLANT
p106
sbag1
(g2
g3
NtRp107
(dp108
g56
V10.1007/s00425-008-0823-0
p109
sg52
VPLANTA
p110
sg54
V229
p111
sg84
(lp112
(VBARRERO
VC
tp113
asg22
I2009
sg50
VLANTA
p114
sbag1
(g2
g3
NtRp115
(dp116
g56
V10.1006/scdb.2001.0268
p117
sg52
VSEMIN CELL DEV BIOL
p118
sg54
V12
p119
sg84
(lp120
(VBECRAFT
VP W
tp121
asg22
I2001
sg50
V387
p122
sbag1
(g2
g3
NtRp123
(dp124
g56
V10.1016/S0092-8674(03)00924-3
p125
sg52
VCELL
p126
sg54
V115
p127
sg84
(lp128
(VBENKOVA
VE
tp129
asg22
I2003
sg50
V591
p130
sbag1
(g2
g3
NtRp131
(dp132
g56
V10.1105/tpc.106.040782
p133
sg52
VPLANT CELL
p134
sg54
V19
p135
sg84
(lp136
(VBLAKESLEE
VJ J
tp137
asg22
I2007
sg50
VLANT
p138
sbag1
(g2
g3
NtRp139
(dp140
g56
V10.1038/nature03184
p141
sg52
VNATURE
p142
sg54
V433
p143
sg84
(lp144
(VBLILOU
VI
tp145
asg22
I2005
sg50
V39
p146
sbag1
(g2
g3
NtRp147
(dp148
g56
V10.1016/S0378-1119(01)00503-0
p149
sg52
VGENE
p150
sg54
V271
p151
sg84
(lp152
(VBOMMERT
VP
tp153
asg22
I2001
sg50
V131
p154
sbag1
(g2
g3
NtRp155
(dp156
g56
V10.1016/S0378-1119(00)00088-3
p157
sg52
VGENE
p158
sg54
V246
p159
sg84
(lp160
(VBONELLO
VJ F
tp161
asg22
I2000
sg50
V219
p162
sbag1
(g2
g3
NtRp163
(dp164
g56
V10.1242/jcs.02847
p165
sg52
VJ CELL SCI
p166
sg54
V119
p167
sg84
(lp168
(VBOUTTE
VY
tp169
asg22
I2006
sg50
V1255
p170
sbag1
(g2
g3
NtRp171
(dp172
g56
V10.1104/pp.106.080119
p173
sg52
VPLANT PHYSIOL
p174
sg54
V142
p175
sg84
(lp176
(VCARRARO
VN
tp177
asg22
I2006
sg50
VLANT
p178
sbag1
(g2
g3
NtRp179
(dp180
g56
V10.1016/j.tplants.2007.11.010
p181
sg52
VTRENDS PLANT SCI
p182
sg54
V13
p183
sg84
(lp184
(VCHANDLER
VJ
tp185
asg22
I2008
sg50
V78
p186
sbag1
(g2
g3
NtRp187
(dp188
g56
V10.1016/j.gde.2007.04.012
p189
sg52
VCURR OPIN GENET DEV
p190
sg54
V17
p191
sg84
(lp192
(VDE
VSMET I
tp193
asg22
I2007
sg50
V337
p194
sbag1
(g2
g3
NtRp195
(dp196
g56
V10.1007/PL00008189
p197
sg52
VDEV GENES EVOL
p198
sg54
V210
p199
sg84
(lp200
(VELSTER
VR
tp201
asg22
I2000
sg50
V300
p202
sbag1
(g2
g3
NtRp203
(dp204
g56
Nsg52
VP29
p205
sg54
Nsg84
(lp206
(VFELDMAN
VL
tp207
asg22
I1994
sg50
V29
p208
sbag1
(g2
g3
NtRp209
(dp210
g56
V10.1046/j.1365-313X.1996.9050659.x
p211
sg52
VPLANT J
p212
sg54
V9
sg84
(lp213
(VFISCHER
VC
tp214
asg22
I1996
sg50
VLANT
p215
sbag1
(g2
g3
NtRp216
(dp217
g56
V10.1046/j.1365-313x.2001.01013.x
p218
sg52
VPLANT J
p219
sg54
V26
p220
sg84
(lp221
(VFISCHER-IGLESIAS
VC
tp222
asg22
I2001
sg50
VLANT
p223
sbag1
(g2
g3
NtRp224
(dp225
g56
V10.1038/nature02085
p226
sg52
VNATURE
p227
sg54
V426
p228
sg84
(lp229
(VFRIML
VJ
tp230
asg22
I2003
sg50
V147
p231
sbag1
(g2
g3
NtRp232
(dp233
g56
V10.1016/S1369-5266(02)00003-1
p234
sg52
VCURR OPIN PLANT BIOL
p235
sg54
V6
sg84
(lp236
(VFRIML
VJ
tp237
asg22
I2003
sg50
V7
sbag1
(g2
g3
NtRp238
(dp239
g56
Nsg52
VNATURE
p240
sg54
V415
p241
sg84
(lp242
(VFRIML
VJ
tp243
asg22
I2002
sg50
V806
p244
sbag1
(g2
g3
NtRp245
(dp246
g56
V10.1126/science.1100618
p247
sg52
VSCIENCE
p248
sg54
V306
p249
sg84
(lp250
(VFRIML
VJ
tp251
asg22
I2004
sg50
V862
p252
sbag1
(g2
g3
NtRp253
(dp254
g56
V10.1016/S0092-8674(02)00656-6
p255
sg52
VCELL
p256
sg54
V108
p257
sg84
(lp258
(VFRIML
VJ
tp259
asg22
I2002
sg50
V661
p260
sbag1
(g2
g3
NtRp261
(dp262
g56
V10.1111/j.1365-313X.2005.02519.x
p263
sg52
VPLANT J
p264
sg54
V44
p265
sg84
(lp266
(VGEISLER
VM
tp267
asg22
I2005
sg50
VLANT
p268
sbag1
(g2
g3
NtRp269
(dp270
g56
V10.1016/j.febslet.2005.11.054
p271
sg52
VFEBS LETT
p272
sg54
V580
p273
sg84
(lp274
(VGEISLER
VM
tp275
asg22
I2006
sg50
V1094
p276
sbag1
(g2
g3
NtRp277
(dp278
g56
V10.1242/dev.00926
p279
sg52
VDEVELOPMENT
p280
sg54
V131
p281
sg84
(lp282
(VGELDNER
VN
tp283
asg22
I2004
sg50
V389
p284
sbag1
(g2
g3
NtRp285
(dp286
g56
V10.1016/j.cub.2005.09.052
p287
sg52
VCURR BIOL
p288
sg54
V15
p289
sg84
(lp290
(VHEISLER
VM G
tp291
asg22
I2005
sg50
V1899
p292
sbag1
(g2
g3
NtRp293
(dp294
g56
V10.1186/gb-2007-8-2-r19
p295
sg52
VGENOME BIOL
p296
sg54
V8
sg84
(lp297
(VHELLEMANS
VJ
tp298
asg22
I2007
sg50
Nsbag1
(g2
g3
NtRp299
(dp300
g56
Nsg52
VPLANT CELL
p301
sg54
V7
sg84
(lp302
(VHUEROS
VG
tp303
asg22
I1995
sg50
VLANT
p304
sbag1
(g2
g3
NtRp305
(dp306
g56
Nsg52
VPLANT PHYSIOL
p307
sg54
V103
p308
sg84
(lp309
(VLUR
VH S
tp310
asg22
I1993
sg50
VLANT
p311
sbag1
(g2
g3
NtRp312
(dp313
g56
V10.1093/emboj/18.8.2066
p314
sg52
VEMBO J
p315
sg54
V18
p316
sg84
(lp317
(VMARCHANT
VA
tp318
asg22
I1999
sg50
V2066
p319
sbag1
(g2
g3
NtRp320
(dp321
g56
V10.1104/pp.107.098558
p322
sg52
VPLANT PHYSIOL
p323
sg54
V144
p324
sg84
(lp325
(VMCSTEEN
VP
tp326
asg22
I2007
sg50
VLANT
p327
sbag1
(g2
g3
NtRp328
(dp329
g56
V10.1016/j.cell.2007.07.033
p330
sg52
VCELL
p331
sg54
V130
p332
sg84
(lp333
(VMICHNIEWICZ
VM
tp334
asg22
I2007
sg50
V1044
p335
sbag1
(g2
g3
NtRp336
(dp337
g56
V10.1111/j.1365-313X.2006.02848.x
p338
sg52
VPLANT J
p339
sg54
V48
p340
sg84
(lp341
(VMUNIZ
VL M
tp342
asg22
I2006
sg50
VLANT
p343
sbag1
(g2
g3
NtRp344
(dp345
g56
V10.1093/pcp/pcn092
p346
sg52
VPLANT CELL PHYSIOL
p347
sg54
V49
p348
sg84
(lp349
(VNAGASHIMA
VA
tp350
asg22
I2008
sg50
VLANT
p351
sbag1
(g2
g3
NtRp352
(dp353
g56
V10.1105/tpc.13.11.2441
p354
sg52
VPLANT CELL
p355
sg54
V13
p356
sg84
(lp357
(VNOH
VB
tp358
asg22
I2001
sg50
VLANT
p359
sbag1
(g2
g3
NtRp360
(dp361
g56
V10.1146/annurev.arplant.52.1.233
p362
sg52
VANNU REV PLANT PHYS
p363
sg54
V52
p364
sg84
(lp365
(VOLSEN
VO A
tp366
asg22
I2001
sg50
V233
p367
sbag1
(g2
g3
NtRp368
(dp369
g56
V10.1046/j.1365-313X.1997.12010235.x
p370
sg52
VPLANT J
p371
sg54
V12
p372
sg84
(lp373
(VOPSAHLFERSTAD
VH G
tp374
asg22
I1997
sg50
VLANT
p375
sbag1
(g2
g3
NtRp376
(dp377
g56
V10.1007/s11032-008-9196-0
p378
sg52
VMOL BREEDING
p379
sg54
V22
p380
sg84
(lp381
(VPASINI
VL
tp382
asg22
I2008
sg50
V527
p383
sbag1
(g2
g3
NtRp384
(dp385
g56
V10.1105/tpc.108.059634
p386
sg52
VPLANT CELL
p387
sg54
V21
p388
sg84
(lp389
(VPEER
VW A
tp390
asg22
I2009
sg50
VLANT
p391
sbag1
(g2
g3
NtRp392
(dp393
g56
V10.1126/science.1123542
p394
sg52
VSCIENCE
p395
sg54
V312
p396
sg84
(lp397
(VPETRASEK
VJ
tp398
asg22
I2006
sg50
V914
p399
sbag1
(g2
g3
NtRp400
(dp401
g56
Nsg52
VNUCLEIC ACIDS RES
p402
sg54
V29
p403
sg84
(lp404
(VPFAFFL
VM W
tp405
asg22
I2001
sg50
V45
p406
sbag1
(g2
g3
NtRp407
(dp408
g56
Nsg52
VJ AGRIC RES
p409
sg54
V53
p410
sg84
(lp411
(VRANDOLPH
VL F
tp412
asg22
I1936
sg50
V0881
p413
sbag1
(g2
g3
NtRp414
(dp415
g56
V10.1038/nature02081
p416
sg52
VNATURE
p417
sg54
V426
p418
sg84
(lp419
(VREINHARDT
VD
tp420
asg22
I2003
sg50
V255
p421
sbag1
(g2
g3
NtRp422
(dp423
g56
V10.1016/S0092-8674(00)81535-4
p424
sg52
VCELL
p425
sg54
V99
p426
sg84
(lp427
(VSABATINI
VS
tp428
asg22
I1999
sg50
V463
p429
sbag1
(g2
g3
NtRp430
(dp431
g56
Nsg52
VDEV GENETICS EPIGENE
p432
sg54
Nsg84
(lp433
(VSLOCOMBE
VS
tp434
asg22
I1999
sg50
V185
p435
sbag1
(g2
g3
NtRp436
(dp437
g56
V10.1126/science.286.5438.316
p438
sg52
VSCIENCE
p439
sg54
V286
p440
sg84
(lp441
(VSTEINMANN
VT
tp442
asg22
I1999
sg50
V316
p443
sbag1
(g2
g3
NtRp444
(dp445
g56
V10.1007/s00018-006-6116-5
p446
sg52
VCELL MOL LIFE SCI
p447
sg54
V63
p448
sg84
(lp449
(VTANAKA
VH
tp450
asg22
I2006
sg50
V2738
p451
sbag1
(g2
g3
NtRp452
(dp453
g56
V10.1105/tpc.105.035816
p454
sg52
VPLANT CELL
p455
sg54
V17
p456
sg84
(lp457
(VTERASAKA
VK
tp458
asg22
I2005
sg50
VLANT
p459
sbag1
(g2
g3
NtRp460
(dp461
g56
V10.1016/S0168-9452(01)00345-4
p462
sg52
VPLANT SCI
p463
sg54
V160
p464
sg84
(lp465
(VTHOMPSON
VR D
tp466
asg22
I2001
sg50
VLANT
p467
sbag1
(g2
g3
NtRp468
(dp469
g56
Nsg52
VMAYDICA
p470
sg54
V29
p471
sg84
(lp472
(VTORTI
VG
tp473
asg22
I1984
sg50
V335
p474
sbag1
(g2
g3
NtRp475
(dp476
g56
V10.1007/BF00288997
p477
sg52
VTHEOR APPL GENET
p478
sg54
V72
p479
sg84
(lp480
(VTORTI
VG
tp481
asg22
I1986
sg50
V602
p482
sbag1
(g2
g3
NtRp483
(dp484
g56
V10.1104/pp.103.025403
p485
sg52
VPLANT PHYSIOL
p486
sg54
V133
p487
sg84
(lp488
(VVAROTTO
VS
tp489
asg22
I2003
sg50
VLANT
p490
sbag1
(g2
g3
NtRp491
(dp492
g56
V10.1242/dev.02027
p493
sg52
VDEVELOPMENT
p494
sg54
V132
p495
sg84
(lp496
(VVIETEN
VA
tp497
asg22
I2005
sg50
V4521
p498
sbag1
(g2
g3
NtRp499
(dp500
g56
V10.1007/BF00385542
p501
sg52
VPLANTA
p502
sg54
V153
p503
sg84
(lp504
(VWEILER
VE W
tp505
asg22
I1981
sg50
VLANTA
p506
sbag1
(g2
g3
NtRp507
(dp508
g56
V10.3732/ajb.94.11.1745
p509
sg52
VAM J BOT
p510
sg54
V94
p511
sg84
(lp512
(VWU
VX T
tp513
asg22
I2007
sg50
V1745
p514
sbag1
(g2
g3
NtRp515
(dp516
g56
V10.1007/s11103-005-7702-x
p517
sg52
VPLANT MOL BIOL
p518
sg54
V58
p519
sg84
(lp520
(VZIMMERMANN
VR
tp521
asg22
I2005
sg50
VLANT
p522
sbasb.