ccopy_reg
_reconstructor
p1
(ctethne.classes.paper
Paper
p2
c__builtin__
object
p3
NtRp4
(dp5
S'publisherCity'
p6
VROCKVILLE
p7
sS'reprintAddress'
p8
VFlavell, R (reprint author), Ceres Inc, Malibu, CA 90265 USA.
p9
sS'WC'
p10
VPlant Sciences
p11
sS'GA'
p12
V717FU
p13
sS'pageEnd'
p14
I1121
sS'publisherAddress'
p15
V15501 MONONA DRIVE, ROCKVILLE, MD 20855 USA
p16
sS'documentType'
p17
VBiographical-Item
p18
sS'subject'
p19
VPlant Sciences
p20
sS'isoSource'
p21
VPlant Physiol.
p22
sS'timesCited'
p23
(lp24
I0
aVZ9 0
p25
asS'PT'
p26
VJ
sS'title'
p27
VTransformation Of Plant Science In Our Time - The Contribution Of Jozef S. Schell (1935-2003)
p28
sS'ISSN'
p29
(lp30
V0032-0889
p31
aVJ9 PLANT PHYSIOL
p32
asS'authors_full'
p33
(lp34
(VFLAVELL
VR
tp35
asS'PG'
p36
I3
sS'PD'
p37
VJUL
p38
sS'pageStart'
p39
I1119
sS'issue'
p40
I3
sS'journal'
p41
VPLANT PHYSIOLOGY
p42
sS'volume'
p43
V132
p44
sS'authorAddress'
p45
VCeres Inc, Malibu, CA 90265 USA.
p46
sS'date'
p47
I2003
sS'ER'
p48
V
sS'publisher'
p49
VAMER SOC PLANT BIOLOGISTS
p50
sS'doi'
p51
V10.1104/pp.900084
p52
sS'language'
p53
VEnglish
p54
sS'wosid'
p55
VWOS:000185076800001
p56
sS'citationCount'
p57
I1
sS'authors_init'
p58
(lp59
(VFLAVELL
VR
tp60
asS'citedReferences'
p61
(lp62
g1
(g2
g3
NtRp63
(dp64
g51
Nsg41
VPUBLICATION LIST
p65
sg43
Nsg58
(lp66
(VSCHELL
VJ S
tp67
asg47
Nsg39
VUBLICATION
p68
sbasb.