ccopy_reg
_reconstructor
p1
(ctethne.classes.paper
Paper
p2
c__builtin__
object
p3
NtRp4
(dp5
S'publisherCity'
p6
VROCKVILLE
p7
sS'reprintAddress'
p8
VHoekstra, FA (reprint author), Agr Univ Wageningen, Lab Plant Physiol, Arboretumlaan 4, NL-6703 BD Wageningen, Netherlands.
p9
sS'WC'
p10
VPlant Sciences
p11
sS'GA'
p12
V196VR
p13
sS'abstract'
p14
VAbscisic acid-pretreated carrot (Daucus carota) somatic embryos survive dehydration upon slow drying, but fast drying leads to poor survival of the embryos. To determine whether the acquisition of desiccation tolerance is associated with changes in the physical stability of the cytoplasm, in situ Fourier transform infrared microspectroscopy was used. Although protein denaturation temperatures were similar in the embryos after slow or fast drying, the extent of the denaturation was greater after fast drying. Slowly dried embryos are in a glassy state at room temperature, and no clearly defined glassy matrix was observed in the rapidly dried embryos. At room temperature the average strength of hydrogen bonding was much weaker in the rapidly dried than in the slowly dried embryos. We interpreted the molecular packing to be "less tight" in the rapidly dried embryos. Whereas sucrose (Suc) is the major soluble carbohydrate after fast drying, upon slow drying the trisaccharide umbelliferose accumulates at the expense of Sue. The possibly protective role of umbelliferose was tested on protein and phospholipid model systems, using Suc as a reference. Both umbelliferose and Suc form a stable glass with drying: They depress the transition temperature of dry liposomal membranes equally well, they both prevent leakage from dry liposomes after rehydration, and they protect a polypeptide that is desiccation sensitive. The similar protection properties in model systems and the apparent interchangeability of both sugars in viable, dry somatic embryos suggest no special role of umbelliferose in the improved physical stability of the slowly dried embryos. Also, during slow drying LEA (late-embryogenesis abundant) transcripts are expressed. We suggest that LEA proteins embedded in the glassy matrix confer stability to these slowly dried embryos.
p15
sS'pageEnd'
p16
I163
sS'publisherAddress'
p17
V15501 MONONA DRIVE, ROCKVILLE, MD 20855 USA
p18
sS'documentType'
p19
VArticle
p20
sS'subject'
p21
VPlant Sciences
p22
sS'isoSource'
p23
VPlant Physiol.
p24
sS'timesCited'
p25
(lp26
I34
aVZ9 45
p27
asS'PT'
p28
VJ
sS'title'
p29
VChanged Properties Of The Cytoplasmic Matrix Associated With Desiccation Tolerance Of Dried Carrot Somatic Embryos. An In Situ Fourier Transform Infrared Spectroscopic Study
p30
sS'ISSN'
p31
(lp32
V0032-0889
p33
aVJ9 PLANT PHYSIOL
p34
asS'authors_full'
p35
(lp36
(VWOLKERS
VWF
tp37
a(VTETTEROO
VFAA
tp38
a(VALBERDA
VM
tp39
a(VHOEKSTRA
VFA
tp40
asS'PG'
p41
I11
sS'PD'
p42
VMAY
p43
sS'pageStart'
p44
I153
sS'issue'
p45
I1
sS'journal'
p46
VPLANT PHYSIOLOGY
p47
sS'volume'
p48
V120
p49
sS'doi'
p50
V10.1104/pp.120.1.153
p51
sS'emailAddress'
p52
Vfolkert.hoekstra@algem.pf.wau.nl
p53
sS'authorAddress'
p54
(lp55
VAgr Univ Wageningen, Lab Plant Physiol, NL-6703 BD Wageningen, Netherlands.
p56
aVIncotec, NL-1601 BL Enkhuizen, Netherlands.
p57
asS'date'
p58
I1999
sS'ER'
p59
V
sS'publisher'
p60
VAMER SOC PLANT BIOLOGISTS
p61
sS'authorKeywords'
p62
(lp63
VPROTEIN SECONDARY STRUCTURE
p64
aVCONFORMATIONAL TRANSITIONS
p65
aVMATURATION PROTEINS
p66
aVGLASS-TRANSITION
p67
aVSOYBEAN SEEDS
p68
aVDRYING RATE
p69
aVSTABILITY
p70
aVSUGARS
p71
aVSTABILIZATION
p72
aVMEMBRANES
p73
asS'language'
p74
VEnglish
p75
sS'wosid'
p76
VWOS:000080329200017
p77
sS'citationCount'
p78
I47
sS'authors_init'
p79
(lp80
(VWOLKERS
VW F
tp81
a(VTETTEROO
VF A A
tp82
a(VALBERDA
VM
tp83
a(VHOEKSTRA
VF A
tp84
asS'citedReferences'
p85
(lp86
g1
(g2
g3
NtRp87
(dp88
g50
V10.1111/j.1365-2621.1996.tb14196.x
p89
sg46
VJ FOOD SCI
p90
sg48
V61
p91
sg79
(lp92
(VBELL
VL N
tp93
asg58
I1996
sg44
V372
p94
sbag1
(g2
g3
NtRp95
(dp96
g50
Nsg46
VSEED SCI RES
p97
sg48
V5
sg79
(lp98
(VBERNALLUGO
VI
tp99
asg58
I1995
sg44
V75
p100
sbag1
(g2
g3
NtRp101
(dp102
g50
V10.1104/pp.96.3.868
p103
sg46
VPLANT PHYSIOL
p104
sg48
V96
p105
sg79
(lp106
(VBLACKMAN
VS A
tp107
asg58
I1991
sg44
VLANT
p108
sbag1
(g2
g3
NtRp109
(dp110
g50
V10.1104/pp.100.1.225
p111
sg46
VPLANT PHYSIOL
p112
sg48
V100
p113
sg79
(lp114
(VBLACKMAN
VS A
tp115
asg58
I1992
sg44
VLANT
p116
sbag1
(g2
g3
NtRp117
(dp118
g50
V10.1104/pp.86.3.754
p119
sg46
VPLANT PHYSIOL
p120
sg48
V86
p121
sg79
(lp122
(VCAFFREY
VM
tp123
asg58
I1988
sg44
VLANT
p124
sbag1
(g2
g3
NtRp125
(dp126
g50
V10.1016/0011-2240(87)90049-6
p127
sg46
VCRYOBIOLOGY
p128
sg48
V24
p129
sg79
(lp130
(VCARPENTER
VJ F
tp131
asg58
I1987
sg44
V455
p132
sbag1
(g2
g3
NtRp133
(dp134
g50
V10.1021/bi00435a044
p135
sg46
VBIOCHEMISTRY
p136
sg48
V28
p137
sg79
(lp138
(VCARPENTER
VJ F
tp139
asg58
I1989
sg44
V3916
p140
sbag1
(g2
g3
NtRp141
(dp142
g50
V10.1007/BF00027338
p143
sg46
VPLANT MOL BIOL
p144
sg48
V13
p145
sg79
(lp146
(VCLOSE
VT J
tp147
asg58
I1989
sg44
VLANT
p148
sbag1
(g2
g3
NtRp149
(dp150
g50
V10.1016/0005-2736(95)00287-1
p151
sg46
VBBA
p152
sg48
V1280
p153
sg79
(lp154
(VCROWE
VJ H
tp155
asg58
I1996
sg44
V187
p156
sbag1
(g2
g3
NtRp157
(dp158
g50
Nsg46
VANNU REV PHYSIOL
p159
sg48
V54
p160
sg79
(lp161
(VCROWE
VJ H
tp162
asg58
I1992
sg44
V570
p163
sbag1
(g2
g3
NtRp164
(dp165
g50
Nsg46
VBIOCHEM J
p166
sg48
V242
p167
sg79
(lp168
(VCROWE
VJ H
tp169
asg58
I1987
sg44
V1
sbag1
(g2
g3
NtRp170
(dp171
g50
Nsg46
VHDB PHYSL 13
p172
sg48
VII
p173
sg79
(lp174
(VCROWE
VJ H
tp175
asg58
I1997
sg44
V1445
p176
sbag1
(g2
g3
NtRp177
(dp178
g50
V10.1126/science.223.4637.701
p179
sg46
VSCIENCE
p180
sg48
V223
p181
sg79
(lp182
(VCROWE
VJ H
tp183
asg58
I1984
sg44
V701
p184
sbag1
(g2
g3
NtRp185
(dp186
g50
V10.1016/0005-2736(88)90077-6
p187
sg46
VBIOCHIM BIOPHYS ACTA
p188
sg48
V939
p189
sg79
(lp190
(VCROWE
VJ H
tp191
asg58
I1988
sg44
V327
p192
sbag1
(g2
g3
NtRp193
(dp194
g50
V10.1006/cryo.1997.2020
p195
sg46
VCRYOBIOLOGY
p196
sg48
V35
p197
sg79
(lp198
(VCROWE
VJ H
tp199
asg58
I1997
sg44
V20
p200
sbag1
(g2
g3
NtRp201
(dp202
g50
V10.1006/cryo.1994.1043
p203
sg46
VCRYOBIOLOGY
p204
sg48
V31
p205
sg79
(lp206
(VCROWE
VJ H
tp207
asg58
I1994
sg44
V355
p208
sbag1
(g2
g3
NtRp209
(dp210
g50
V10.1016/0014-4827(68)90403-5
p211
sg46
VEXP CELL RES
p212
sg48
V50
p213
sg79
(lp214
(VGAMBORG
VO L
tp215
asg58
I1968
sg44
V151
p216
sbag1
(g2
g3
NtRp217
(dp218
g50
V10.1016/S0300-9629(96)00273-3
p219
sg46
VCOMP BIOCHEM PHYS A
p220
sg48
V117
p221
sg79
(lp222
(VGOLOVINA
VE A
tp223
asg58
I1997
sg44
V343
p224
sbag1
(g2
g3
NtRp225
(dp226
g50
Nsg46
VNATO ADV SCI I A
p227
sg48
V187
p228
sg79
(lp229
(VHOEKSTRA
VF A
tp230
asg58
I1989
sg44
V71
p231
sbag1
(g2
g3
NtRp232
(dp233
g50
Nsg46
VBIOCHEM PHYSIOL PFL
p234
sg48
V169
p235
sg79
(lp236
(VHOPF
VH
tp237
asg58
I1976
sg44
V5
sbag1
(g2
g3
NtRp238
(dp239
g50
V10.1016/0168-9452(95)04155-N
p240
sg46
VPLANT SCI
p241
sg48
V109
p242
sg79
(lp243
(VHORBOWICZ
VM
tp244
asg58
I1995
sg44
VLANT
p245
sbag1
(g2
g3
NtRp246
(dp247
g50
Nsg46
VSeed Science Research
p248
sg48
V4
sg79
(lp249
(VHORBOWICZ
VMARCIN
tp250
asg58
I1994
sg44
V385
p251
sbag1
(g2
g3
NtRp252
(dp253
g50
V10.1007/BF00041175
p254
sg46
VPLANT MOL BIOL
p255
sg48
V29
p256
sg79
(lp257
(VHSING
VY C
tp258
asg58
I1995
sg44
VLANT
p259
sbag1
(g2
g3
NtRp260
(dp261
g50
V10.1016/0167-4838(89)90121-0
p262
sg46
VBIOCHIM BIOPHYS ACTA
p263
sg48
V998
p264
sg79
(lp265
(VJACKSON
VM
tp266
asg58
I1989
sg44
V75
p267
sbag1
(g2
g3
NtRp268
(dp269
g50
Nsg46
VINT J FOOD SCI TECH
p270
sg48
V28
p271
sg79
(lp272
(VKALICHEVSKY
VM T
tp273
asg58
I1993
sg44
V139
p274
sbag1
(g2
g3
NtRp275
(dp276
g50
Nsg46
VJ BIOL CHEM
p277
sg48
V256
p278
sg79
(lp279
(VKLAUSNER
VR D
tp280
asg58
I1981
sg44
V5879
p281
sbag1
(g2
g3
NtRp282
(dp283
g50
Nsg46
VSeed Science Research
p284
sg48
V4
sg79
(lp285
(VLEOPOLD
VA CARL
tp286
asg58
I1994
sg44
V267
p287
sbag1
(g2
g3
NtRp288
(dp289
g50
Nsg46
VBIOPHYS J
p290
sg48
V65
p291
sg79
(lp292
(VPRESTRELSKI
VS J
tp293
asg58
I1993
sg44
V661
p294
sbag1
(g2
g3
NtRp295
(dp296
g50
V10.1016/0003-2697(80)90489-3
p297
sg46
VANAL BIOCHEM
p298
sg48
V107
p299
sg79
(lp300
(VREDGWELL
VR J
tp301
asg58
I1980
sg44
V44
p302
sbag1
(g2
g3
NtRp303
(dp304
g50
Nsg46
VPHASE TRANSITIONS FO
p305
sg48
Nsg79
(lp306
(VROOS
VY H
tp307
asg58
I1995
sg44
VHASE
p308
sbag1
(g2
g3
NtRp309
(dp310
g50
Nsg46
VMOL CLONING LAB MANU
p311
sg48
Nsg79
(lp312
(VSAMBROOK
VJ
tp313
asg58
I1989
sg44
Nsbag1
(g2
g3
NtRp314
(dp315
g50
Nsg46
VADV EXP MED BIOL
p316
sg48
Nsg79
(lp317
(VSLADE
VL
tp318
asg58
I1991
sg44
V29
p319
sbag1
(g2
g3
NtRp320
(dp321
g50
Nsg46
VSeed Science Research
p322
sg48
V4
sg79
(lp323
(VTETTEROO
VF A A
tp324
asg58
I1994
sg44
V203
p325
sbag1
(g2
g3
NtRp326
(dp327
g50
V10.1007/BF01282548
p328
sg46
VPROTOPLASMA
p329
sg48
V202
p330
sg79
(lp331
(VTETTEROO
VF A A
tp332
asg58
I1998
sg44
VROTOPLASMA
p333
sbag1
(g2
g3
NtRp334
(dp335
g50
Nsg46
VJ PLANT PHYSIOL
p336
sg48
V145
p337
sg79
(lp338
(VTETTEROO
VF A A
tp339
asg58
I1995
sg44
V349
p340
sbag1
(g2
g3
NtRp341
(dp342
g50
Nsg46
VPLANT PHYSIOL
p343
sg48
V111
p344
sg79
(lp345
(VTETTEROO
VF A A
tp346
asg58
I1996
sg44
VLANT
p347
sbag1
(g2
g3
NtRp348
(dp349
g50
V10.1002/bip.1969.360080306
p350
sg46
VBIOPOLYMERS
p351
sg48
V8
sg79
(lp352
(VTIFFANY
VM L
tp353
asg58
I1969
sg44
V347
p354
sbag1
(g2
g3
NtRp355
(dp356
g50
Nsg46
VPLANT PHYSIOL
p357
sg48
V104
p358
sg79
(lp359
(VVANBILSEN
VDGJL
tp360
asg58
I1994
sg44
VLANT
p361
sbag1
(g2
g3
NtRp362
(dp363
g50
Nsg46
VSEED DEV GERMINATION
p364
sg48
Nsg79
(lp365
(VVERTUCCI
VC W
tp366
asg58
I1995
sg44
V237
p367
sbag1
(g2
g3
NtRp368
(dp369
g50
Nsg46
VACTA HORTIC
p370
sg48
V215
p371
sg79
(lp372
(VWEGES
VR
tp373
asg58
I1987
sg44
V173
p374
sbag1
(g2
g3
NtRp375
(dp376
g50
V10.1104/pp.89.3.977
p377
sg46
VPLANT PHYSIOL
p378
sg48
V89
p379
sg79
(lp380
(VWILLIAMS
VR J
tp381
asg58
I1989
sg44
VLANT
p382
sbag1
(g2
g3
NtRp383
(dp384
g50
V10.1104/pp.116.3.1169
p385
sg46
VPLANT PHYSIOL
p386
sg48
V116
p387
sg79
(lp388
(VWOLKERS
VW F
tp389
asg58
I1998
sg44
VLANT
p390
sbag1
(g2
g3
NtRp391
(dp392
g50
V10.1016/S0304-4165(97)00085-8
p393
sg46
VBBA
p394
sg48
V1379
p395
sg79
(lp396
(VWOLKERS
VW F
tp397
asg58
I1998
sg44
V83
p398
sbag1
(g2
g3
NtRp399
(dp400
g50
Nsg46
VPLANT PHYSIOL
p401
sg48
V109
p402
sg79
(lp403
(VWOLKERS
VW F
tp404
asg58
I1995
sg44
VLANT
p405
sbag1
(g2
g3
NtRp406
(dp407
g50
V10.1016/S0304-4165(98)00059-2
p408
sg46
VBBA
p409
sg48
V1425
p410
sg79
(lp411
(VWOLKERS
VW F
tp412
asg58
I1998
sg44
V127
p413
sbag1
(g2
g3
NtRp414
(dp415
g50
V10.1016/S0300-9629(96)00274-5
p416
sg46
VCOMP BIOCHEM PHYS A
p417
sg48
V117
p418
sg79
(lp419
(VWOLKERS
VW F
tp420
asg58
I1997
sg44
V349
p421
sbag1
(g2
g3
NtRp422
(dp423
g50
V10.1046/j.1365-313x.1998.00277.x
p424
sg46
VPLANT J
p425
sg48
V16
p426
sg79
(lp427
(VWOLKERS
VW F
tp428
asg58
I1998
sg44
VLANT
p429
sbasb.