ccopy_reg
_reconstructor
p1
(ctethne.classes.paper
Paper
p2
c__builtin__
object
p3
NtRp4
(dp5
S'publisherCity'
p6
VROCKVILLE
p7
sS'reprintAddress'
p8
VBeerhues, L (reprint author), Tech Univ Carolo Wilhelmina Braunschweig, Inst Pharmaceut Biol, D-38106 Braunschweig, Germany.
p9
sS'WC'
p10
VPlant Sciences
p11
sS'GA'
p12
V030QC
p13
sS'FX'
p14
VThis work was supported by the Deutsche Forschungsgemeinschaft.
p15
sS'abstract'
p16
VAlthough a number of plant natural products are derived from benzoic acid, the biosynthesis of this structurally simple precursor is poorly understood. Hypericum calycinum cell cultures accumulate a benzoic acid-derived xanthone phytoalexin, hyperxanthone E, in response to elicitor treatment. Using a subtracted complementary DNA (cDNA) library and sequence information about conserved coenzyme A (CoA) ligase motifs, a cDNA encoding cinnamate: CoA ligase (CNL) was isolated. This enzyme channels metabolic flux from the general phenylpropanoid pathway into benzenoid metabolism. HcCNL preferred cinnamic acid as a substrate but failed to activate benzoic acid. Enzyme activity was strictly dependent on the presence of Mg2+ and K+ at optimum concentrations of 2.5 and 100 mM, respectively. Coordinated increases in the Phe ammonia-lyase and HcCNL transcript levels preceded the accumulation of hyperxanthone E in cell cultures of H. calycinum after the addition of the elicitor. HcCNL contained a carboxyl-terminal type 1 peroxisomal targeting signal made up by the tripeptide Ser-Arg-Leu, which directed an amino-terminal reporter fusion to the peroxisomes. Masking the targeting signal by carboxyl-terminal reporter fusion led to cytoplasmic localization. A phylogenetic tree consisted of two evolutionarily distinct clusters. One cluster was formed by CoA ligases related to benzenoid metabolism, including HcCNL. The other cluster comprised 4-coumarate:CoA ligases from spermatophytes, ferns, and mosses, indicating divergence of the two clades prior to the divergence of the higher plant lineages.
p17
sS'pageEnd'
p18
I1280
sS'date'
p19
I2012
sS'documentType'
p20
VArticle
p21
sS'subject'
p22
VPlant Sciences
p23
sS'isoSource'
p24
VPlant Physiol.
p25
sS'timesCited'
p26
(lp27
I0
aVZ9 0
p28
asS'funding'
p29
(lp30
(VDeutsche Forschungsgemeinschaft
Ntp31
asS'PT'
p32
VJ
sS'title'
p33
VCinnamate: Coa Ligase Initiates The Biosynthesis Of A Benzoate-Derived Xanthone Phytoalexin In Hypericum Calycinum Cell Cultures
p34
sS'ISSN'
p35
(lp36
V0032-0889
p37
aVJ9 PLANT PHYSIOL
p38
asS'authors_full'
p39
(lp40
(VGAID
VMARIAM M
tp41
a(VSIRCAR
VDEBABRATA
tp42
a(VMUELLER
VANDREAS
tp43
a(VBEUERLE
VTILL
tp44
a(VLIU
VBENYE
tp45
a(VERNST
VLUDGER
tp46
a(VHAENSCH
VROBERT
tp47
a(VBEERHUES
VLUDGER
tp48
asS'PG'
p49
I14
sS'PD'
p50
VNOV
p51
sS'pageStart'
p52
I1267
sS'issue'
p53
I3
sS'journal'
p54
VPLANT PHYSIOLOGY
p55
sS'volume'
p56
V160
p57
sS'doi'
p58
V10.1104/pp.112.204180
p59
sS'emailAddress'
p60
Vl.beerhues@tu-bs.de
p61
sS'authorAddress'
p62
(lp63
V[Gaid, Mariam M.; Sircar, Debabrata; Mueller, Andreas; Beuerle, Till; Liu, Benye; Beerhues, Ludger] Tech Univ Carolo Wilhelmina Braunschweig, Inst Pharmaceut Biol, D-38106 Braunschweig, Germany.
p64
aV[Ernst, Ludger] Tech Univ Carolo Wilhelmina Braunschweig, Cent Nucl Magnet Resonance Lab, Dept Chem, D-38106 Braunschweig, Germany.
p65
aV[Haensch, Robert] Tech Univ Carolo Wilhelmina Braunschweig, Inst Plant Biol, D-38106 Braunschweig, Germany.
p66
asS'publisherAddress'
p67
V15501 MONONA DRIVE, ROCKVILLE, MD 20855 USA
p68
sS'ER'
p69
V
sS'publisher'
p70
VAMER SOC PLANT BIOLOGISTS
p71
sS'authorKeywords'
p72
(lp73
VCOENZYME-A LIGASE
p74
aVSALICYLIC-ACID
p75
aVCENTAURIUM-ERYTHRAEA
p76
aVARABIDOPSIS-THALIANA
p77
aVISOCHORISMATE SYNTHASE
p78
aVHYDROXYBENZOIC ACID
p79
aVP-HYDROXYBENZOATE
p80
aVPLANT VOLATILES
p81
aVPETUNIA FLOWERS
p82
aVDAUCUS-CAROTA
p83
asS'language'
p84
VEnglish
p85
sS'wosid'
p86
VWOS:000310584200010
p87
sS'citationCount'
p88
I73
sS'authors_init'
p89
(lp90
(VGAID
VM M
tp91
a(VSIRCAR
VD
tp92
a(VMULLER
VA
tp93
a(VBEUERLE
VT
tp94
a(VLIU
VB Y
tp95
a(VERNST
VL
tp96
a(VHANSCH
VR
tp97
a(VBEERHUES
VL
tp98
asS'citedReferences'
p99
(lp100
g1
(g2
g3
NtRp101
(dp102
g58
V10.1007/s004250100657
p103
sg54
VPLANTA
p104
sg56
V214
p105
sg89
(lp106
(VABD
VELMAWLA A M A
tp107
asg19
I2002
sg52
VLANTA
p108
sbag1
(g2
g3
NtRp109
(dp110
g58
V10.1007/s004250000394
p111
sg54
VPLANTA
p112
sg56
V212
p113
sg89
(lp114
(VABD
VELMAWLA A M A
tp115
asg19
I2001
sg52
VLANTA
p116
sbag1
(g2
g3
NtRp117
(dp118
g58
V10.1515/BC.2000.021
p119
sg54
VBIOL CHEM
p120
sg56
V381
p121
sg89
(lp122
(VBARILLAS
VW
tp123
asg19
I2000
sg52
V155
p124
sbag1
(g2
g3
NtRp125
(dp126
g58
V10.1007/s004250050109
p127
sg54
VPLANTA
p128
sg56
V202
p129
sg89
(lp130
(VBARILLAS
VW
tp131
asg19
I1997
sg52
VLANTA
p132
sbag1
(g2
g3
NtRp133
(dp134
g58
Nsg54
VPLANTA
p135
sg56
V197
p136
sg89
(lp137
(VBEERHUES
VL
tp138
asg19
I1995
sg52
VLANTA
p139
sbag1
(g2
g3
NtRp140
(dp141
g58
V10.1016/j.phytochem.2009.06.017
p142
sg54
VPHYTOCHEMISTRY
p143
sg56
V70
p144
sg89
(lp145
(VBEERHUES
VL
tp146
asg19
I2009
sg52
VHYTOCHEMISTRY
p147
sbag1
(g2
g3
NtRp148
(dp149
g58
Nsg54
VMED AROMATIC PLANT S
p150
sg56
V5
sg89
(lp151
(VBEERHUES
VL
tp152
asg19
I2011
sg52
V70
p153
sbag1
(g2
g3
NtRp154
(dp155
g58
Nsg54
VPLANT CELL
p156
sg56
V11
p157
sg89
(lp158
(VBENDAHMANE
VA
tp159
asg19
I1999
sg52
VLANT
p160
sbag1
(g2
g3
NtRp161
(dp162
g58
V10.1006/abio.2001.5574
p163
sg54
VANAL BIOCHEM
p164
sg56
V302
p165
sg89
(lp166
(VBEUERLE
VT
tp167
asg19
I2002
sg52
V305
p168
sbag1
(g2
g3
NtRp169
(dp170
g58
V10.1016/S0003-9861(02)00026-7
p171
sg54
VARCH BIOCHEM BIOPHYS
p172
sg56
V400
p173
sg89
(lp174
(VBEUERLE
VT
tp175
asg19
I2002
sg52
V258
p176
sbag1
(g2
g3
NtRp177
(dp178
g58
V10.1104/pp.104.045468
p179
sg54
VPLANT PHYSIOL
p180
sg56
V135
p181
sg89
(lp182
(VBOATRIGHT
VJ
tp183
asg19
I2004
sg52
VLANT
p184
sbag1
(g2
g3
NtRp185
(dp186
g58
V10.1006/abio.1976.9999
p187
sg54
VANAL BIOCHEM
p188
sg56
V72
p189
sg89
(lp190
(VBRADFORD
VM M
tp191
asg19
I1976
sg52
V248
p192
sbag1
(g2
g3
NtRp193
(dp194
g58
V10.1111/j.1399-3054.2009.01282.x
p195
sg54
VPHYSIOL PLANTARUM
p196
sg56
V137
p197
sg89
(lp198
(VCAMPOS
VM D
tp199
asg19
I2009
sg52
VHYSIOL
p200
sbag1
(g2
g3
NtRp201
(dp202
g58
V10.1016/j.febslet.2007.12.039
p203
sg54
VFEBS LETT
p204
sg56
V582
p205
sg89
(lp206
(VCATINOT
VJ
tp207
asg19
I2008
sg52
V473
p208
sbag1
(g2
g3
NtRp209
(dp210
g58
V10.1093/jxb/ers153
p211
sg54
VJ EXP BOT
p212
sg56
V63
p213
sg89
(lp214
(VCOLQUHOUN
VT A
tp215
asg19
I2012
sg52
V4821
p216
sbag1
(g2
g3
NtRp217
(dp218
g58
Nsg54
VMED AROMATIC PLANT S
p219
sg56
V5
sg89
(lp220
(VCROCKETT
VS L
tp221
asg19
I2011
sg52
V1
sbag1
(g2
g3
NtRp222
(dp223
g58
Nsg54
VMED NATURAL PRODUCTS
p224
sg56
Nsg89
(lp225
(VDEWICK
VP M
tp226
asg19
I2009
sg52
Nsbag1
(g2
g3
NtRp227
(dp228
g58
V10.1016/j.copbio.2008.02.011
p229
sg54
VCURR OPIN BIOTECH
p230
sg56
V19
p231
sg89
(lp232
(VDUDAREVA
VN
tp233
asg19
I2008
sg52
V181
p234
sbag1
(g2
g3
NtRp235
(dp236
g58
V10.1046/j.1365-313X.1999.00491.x
p237
sg54
VPLANT J
p238
sg56
V19
p239
sg89
(lp240
(VEHLTING
VJ
tp241
asg19
I1999
sg52
VLANT
p242
sbag1
(g2
g3
NtRp243
(dp244
g58
V10.1016/j.phytochem.2008.10.016
p245
sg54
VPHYTOCHEMISTRY
p246
sg56
V70
p247
sg89
(lp248
(VFRANKLIN
VG
tp249
asg19
I2009
sg52
VHYTOCHEMISTRY
p250
sbag1
(g2
g3
NtRp251
(dp252
g58
V10.1016/S0031-9422(00)88979-7
p253
sg54
VPHYTOCHEMISTRY
p254
sg56
V15
p255
sg89
(lp256
(VFRENCH
VC J
tp257
asg19
I1976
sg52
VHYTOCHEMISTRY
p258
sbag1
(g2
g3
NtRp259
(dp260
g58
V10.1007/BF00280412
p261
sg54
VMOL GEN GENET
p262
sg56
V242
p263
sg89
(lp264
(VFULDA
VM
tp265
asg19
I1994
sg52
V241
p266
sbag1
(g2
g3
NtRp267
(dp268
g58
V10.1016/j.jplph.2009.03.003
p269
sg54
VJ PLANT PHYSIOL
p270
sg56
V166
p271
sg89
(lp272
(VGAID
VM M
tp273
asg19
I2009
sg52
V1343
p274
sbag1
(g2
g3
NtRp275
(dp276
g58
V10.1016/j.jplph.2010.11.021
p277
sg54
VJ PLANT PHYSIOL
p278
sg56
V168
p279
sg89
(lp280
(VGAID
VM M
tp281
asg19
I2011
sg52
V944
p282
sbag1
(g2
g3
NtRp283
(dp284
g58
V10.1016/0378-1119(95)00825-X
p285
sg54
VGENE
p286
sg56
V170
p287
sg89
(lp288
(VGORLACH
VJ
tp289
asg19
I1996
sg52
V145
p290
sbag1
(g2
g3
NtRp291
(dp292
g58
Nsg54
VZ NATURFORSCH PT B
p293
sg56
VB
sg89
(lp294
(VGROSS
VG G
tp295
asg19
I1966
sg52
V683
p296
sbag1
(g2
g3
NtRp297
(dp298
g58
Nsg54
VBIOCH PLANTS COMPREH
p299
sg56
V7
sg89
(lp300
(VHANSON
VK
tp301
asg19
I1981
sg52
V577
p302
sbag1
(g2
g3
NtRp303
(dp304
g58
V10.1104/pp.109.135848
p305
sg54
VPLANT PHYSIOL
p306
sg56
V150
p307
sg89
(lp308
(VIBDAH
VM
tp309
asg19
I2009
sg52
VLANT
p310
sbag1
(g2
g3
NtRp311
(dp312
g58
V10.1111/j.1438-8677.2008.00160.x
p313
sg54
VPLANT BIOLOGY
p314
sg56
V11
p315
sg89
(lp316
(VIBDAH
VM
tp317
asg19
I2009
sg52
VLANT
p318
sbag1
(g2
g3
NtRp319
(dp320
g58
V10.1007/s004250000377
p321
sg54
VPLANTA
p322
sg56
V212
p323
sg89
(lp324
(VJARVIS
VA P
tp325
asg19
I2000
sg52
VLANTA
p326
sbag1
(g2
g3
NtRp327
(dp328
g58
V10.1128/JB.185.1.20-27.2003
p329
sg54
VJ BACTERIOL
p330
sg56
V185
p331
sg89
(lp332
(VKANEKO
VM
tp333
asg19
I2003
sg52
V20
p334
sbag1
(g2
g3
NtRp335
(dp336
g58
V10.1105/tpc.112.097519
p337
sg54
VPLANT CELL
p338
sg56
V24
p339
sg89
(lp340
(VKLEMPIEN
VA
tp341
asg19
I2012
sg52
VLANT
p342
sbag1
(g2
g3
NtRp343
(dp344
g58
V10.1007/BF00016484
p345
sg54
VPLANT MOL BIOL
p346
sg56
V26
p347
sg89
(lp348
(VKLESSIG
VD F
tp349
asg19
I1994
sg52
VLANT
p350
sbag1
(g2
g3
NtRp351
(dp352
g58
V10.1111/j.1365-313X.2007.03205.x
p353
sg54
VPLANT J
p354
sg56
V51
p355
sg89
(lp356
(VKLIEBENSTEIN
VD J
tp357
asg19
I2007
sg52
VLANT
p358
sbag1
(g2
g3
NtRp359
(dp360
g58
V10.1016/j.phytochem.2004.11.003
p361
sg54
VPHYTOCHEMISTRY
p362
sg56
V66
p363
sg89
(lp364
(VKLINGAUF
VP
tp365
asg19
I2005
sg52
VHYTOCHEMISTRY
p366
sbag1
(g2
g3
NtRp367
(dp368
g58
V10.1105/tpc.13.10.2333
p369
sg54
VPLANT CELL
p370
sg56
V13
p371
sg89
(lp372
(VKOLOSOVA
VN
tp373
asg19
I2001
sg52
VLANT
p374
sbag1
(g2
g3
NtRp375
(dp376
g58
Nsg54
VPLANT MOL BIOL
p377
sg56
V31
p378
sg89
(lp379
(VKUMAR
VA
tp380
asg19
I2003
sg52
VLANT
p381
sbag1
(g2
g3
NtRp382
(dp383
g58
V10.1104/pp.112.1.193
p384
sg54
VPLANT PHYSIOL
p385
sg56
V112
p386
sg89
(lp387
(VLEE
VD
tp388
asg19
I1996
sg52
VLANT
p389
sbag1
(g2
g3
NtRp390
(dp391
g58
Nsg54
VPLANT J IN PRESS
p392
sg56
Nsg89
(lp393
(VLEE
VS
tp394
asg19
I2012
sg52
VLANT
p395
sbag1
(g2
g3
NtRp396
(dp397
g58
V10.1111/j.1399-3054.1965.tb06874.x
p398
sg54
VPHYSIOL PLANTARUM
p399
sg56
V18
p400
sg89
(lp401
(VLINSMAIEEM
S''
tp402
asg19
I1965
sg52
VHYSIOL
p403
sbag1
(g2
g3
NtRp404
(dp405
g58
V10.1046/j.1365-313X.2003.01771.x
p406
sg54
VPLANT J
p407
sg56
V34
p408
sg89
(lp409
(VLIU
VB Y
tp410
asg19
I2003
sg52
VLANT
p411
sbag1
(g2
g3
NtRp412
(dp413
g58
V10.1111/j.1365-313X.2009.03864.x
p414
sg54
VPLANT J
p415
sg56
V59
p416
sg89
(lp417
(VLONG
VM C
tp418
asg19
I2009
sg52
VLANT
p419
sbag1
(g2
g3
NtRp420
(dp421
g58
Nsg54
VPLANT PHYSIOL
p422
sg56
V106
p423
sg89
(lp424
(VLOSCHER
VR
tp425
asg19
I1994
sg52
VLANT
p426
sbag1
(g2
g3
NtRp427
(dp428
g58
Nsg54
VPLANT CELL REP
p429
sg56
V14
p430
sg89
(lp431
(VMORENO
VP R H
tp432
asg19
I1994
sg52
VLANT
p433
sbag1
(g2
g3
NtRp434
(dp435
g58
V10.1016/S0022-2836(03)00318-8
p436
sg54
VJ MOL BIOL
p437
sg56
V328
p438
sg89
(lp439
(VNEUBERGER
VG
tp440
asg19
I2003
sg52
V567
p441
sbag1
(g2
g3
NtRp442
(dp443
g58
V10.1055/s-2004-815730
p444
sg54
VPLANT BIOLOGY
p445
sg56
V6
sg89
(lp446
(VNOWAK
VK
tp447
asg19
I2004
sg52
VLANT
p448
sbag1
(g2
g3
NtRp449
(dp450
g58
V10.1105/tpc.106.046227
p451
sg54
VPLANT CELL
p452
sg56
V18
p453
sg89
(lp454
(VORLOVA
VI
tp455
asg19
I2006
sg52
VLANT
p456
sbag1
(g2
g3
NtRp457
(dp458
g58
V10.1016/S1369-5266(02)00251-0
p459
sg54
VCURR OPIN PLANT BIOL
p460
sg56
V5
sg89
(lp461
(VPICHERSKY
VE
tp462
asg19
I2002
sg52
V237
p463
sbag1
(g2
g3
NtRp464
(dp465
g58
V10.1126/science.237.4822.1601
p466
sg54
VSCIENCE
p467
sg56
V237
p468
sg89
(lp469
(VRASKIN
VI
tp470
asg19
I1987
sg52
V1601
p471
sbag1
(g2
g3
NtRp472
(dp473
g58
V10.1104/pp.118.2.565
p474
sg54
VPLANT PHYSIOL
p475
sg56
V118
p476
sg89
(lp477
(VRIBNICKY
VD M
tp478
asg19
I1998
sg52
VLANT
p479
sbag1
(g2
g3
NtRp480
(dp481
g58
V10.1091/mbc-E04-03-0188
p482
sg54
VMOL BIOL CELL
p483
sg56
V15
p484
sg89
(lp485
(VROTTENSTEINER
VH
tp486
asg19
I2004
sg52
V3406
p487
sbag1
(g2
g3
NtRp488
(dp489
g58
V10.1074/jbc.M413578200
p490
sg54
VJ BIOL CHEM
p491
sg56
V280
p492
sg89
(lp493
(VSCHNEIDER
VK
tp494
asg19
I2005
sg52
V13962
p495
sbag1
(g2
g3
NtRp496
(dp497
g58
V10.1073/pnas.1430550100
p498
sg54
VP NATL ACAD SCI USA
p499
sg56
V100
p500
sg89
(lp501
(VSCHNEIDER
VK
tp502
asg19
I2003
sg52
V8601
p503
sbag1
(g2
g3
NtRp504
(dp505
g58
Nsg54
VPLANTA
p506
sg56
V188
p507
sg89
(lp508
(VSCHNITZLER
VJ P
tp509
asg19
I1992
sg52
VLANTA
p510
sbag1
(g2
g3
NtRp511
(dp512
g58
V10.1016/0031-9422(92)83275-4
p513
sg54
VPHYTOCHEMISTRY
p514
sg56
V31
p515
sg89
(lp516
(VSIEWEKE
VH J
tp517
asg19
I1992
sg52
VHYTOCHEMISTRY
p518
sbag1
(g2
g3
NtRp519
(dp520
g58
V10.1016/j.jplph.2007.05.005
p521
sg54
VJ PLANT PHYSIOL
p522
sg56
V165
p523
sg89
(lp524
(VSIRCAR
VD
tp525
asg19
I2008
sg52
V407
p526
sbag1
(g2
g3
NtRp527
(dp528
g58
Nsg54
VZ NATURFORSCH C
p529
sg56
V30
p530
sg89
(lp531
(VSTOCKIGT
VJ
tp532
asg19
I1975
sg52
V352
p533
sbag1
(g2
g3
NtRp534
(dp535
g58
V10.1074/jbc.M100355200
p536
sg54
VJ BIOL CHEM
p537
sg56
V276
p538
sg89
(lp539
(VSTUIBLE
VH P
tp540
asg19
I2001
sg52
V26893
p541
sbag1
(g2
g3
NtRp542
(dp543
g58
V10.1093/molbev/msr121
p544
sg54
VMOL BIOL EVOL
p545
sg56
V28
p546
sg89
(lp547
(VTAMURA
VK
tp548
asg19
I2011
sg52
V2731
p549
sbag1
(g2
g3
NtRp550
(dp551
g58
V10.1021/np040024+
p552
sg54
VJ NAT PROD
p553
sg56
V67
p554
sg89
(lp555
(VTANAKA
VN
tp556
asg19
I2004
sg52
V1870
p557
sbag1
(g2
g3
NtRp558
(dp559
g58
V10.1016/S0031-9422(00)85147-X
p560
sg54
VPhytochemistry 
p561
sg56
V9
sg89
(lp562
(VTHRELFALL
VD R
tp563
asg19
I1970
sg52
Vhytochemistry
p564
sbag1
(g2
g3
NtRp565
(dp566
g58
V10.1111/j.1365-313X.2009.03953.x
p567
sg54
VPLANT J
p568
sg56
V60
p569
sg89
(lp570
(VVAN
VMOERKERCKE A
tp571
asg19
I2009
sg52
VLANT
p572
sbag1
(g2
g3
NtRp573
(dp574
g58
V10.1016/S0167-4838(97)00163-5
p575
sg54
VBBA
p576
sg56
V1382
p577
sg89
(lp578
(VVESSEY
VD A
tp579
asg19
I1998
sg52
V243
p580
sbag1
(g2
g3
NtRp581
(dp582
g58
V10.1002/(SICI)1099-0461(2000)14:3<162::AID-JBT6>3.0.CO;2-8
p583
sg54
VJ BIOCHEM MOL TOXIC
p584
sg56
V14
p585
sg89
(lp586
(VVESSEY
VD A
tp587
asg19
I2000
sg52
V162
p588
sbag1
(g2
g3
NtRp589
(dp590
g58
V10.1093/mp/ssp106
p591
sg54
VMOL PLANT
p592
sg56
V3
sg89
(lp593
(VVOGT
VT
tp594
asg19
I2010
sg52
V2
sbag1
(g2
g3
NtRp595
(dp596
g58
V10.1046/j.1365-313X.2003.01676.x
p597
sg54
VPLANT J
p598
sg56
V33
p599
sg89
(lp600
(VVOINNET
VO
tp601
asg19
I2003
sg52
VLANT
p602
sbag1
(g2
g3
NtRp603
(dp604
g58
Nsg54
VEUR J ORG CHEM
p605
sg56
Nsg89
(lp606
(VWANG
VC Z
tp607
asg19
I2001
sg52
V1459
p608
sbag1
(g2
g3
NtRp609
(dp610
g58
V10.1034/j.1399-3054.1996.980210.x
p611
sg54
VPHYSIOL PLANTARUM
p612
sg56
V98
p613
sg89
(lp614
(VWERBROUCK
VS P O
tp615
asg19
I1996
sg52
VHYSIOL
p616
sbag1
(g2
g3
NtRp617
(dp618
g58
V10.1074/jbc.272.41.25474
p619
sg54
VJ BIOL CHEM
p620
sg56
V272
p621
sg89
(lp622
(VWERNER
VI
tp623
asg19
I1997
sg52
V25474
p624
sbag1
(g2
g3
NtRp625
(dp626
g58
V10.1038/35107108
p627
sg54
VNATURE
p628
sg56
V414
p629
sg89
(lp630
(VWILDERMUTH
VM C
tp631
asg19
I2001
sg52
V562
p632
sbag1
(g2
g3
NtRp633
(dp634
g58
V10.1016/j.pbi.2006.03.006
p635
sg54
VCURR OPIN PLANT BIOL
p636
sg56
V9
sg89
(lp637
(VWILDERMUTH
VM C
tp638
asg19
I2006
sg52
V288
p639
sbag1
(g2
g3
NtRp640
(dp641
g58
V10.1038/nature10625
p642
sg54
VNATURE
p643
sg56
V480
p644
sg89
(lp645
(VYOUNG
VN D
tp646
asg19
I2011
sg52
V520
p647
sbag1
(g2
g3
NtRp648
(dp649
g58
Nsg54
VP97
p650
sg56
Nsg89
(lp651
(VZUCKERKANDL
VEMILE
tp652
asg19
I1965
sg52
V97
p653
sbasb.