ccopy_reg
_reconstructor
p1
(ctethne.classes.paper
Paper
p2
c__builtin__
object
p3
NtRp4
(dp5
S'publisherCity'
p6
VROCKVILLE
p7
sS'reprintAddress'
p8
VRadchuk, VV (reprint author), Leibniz Inst Pflanzengenet & Kulturpflanzenforsch, D-06466 Gatersleben, Germany.
p9
sS'WC'
p10
VPlant Sciences
p11
sS'GA'
p12
V439XT
p13
sS'FX'
p14
(lp15
VThis work was supported by the German Ministry of Education and Research
p16
aVwithin the German Plant Genome Initiative (grant nos. GABI-SEEDII, FKZ
p17
aV0313115 and GABI-sysSEED, FKZ 0315044A).
p18
asS'abstract'
p19
VBarley (Hordeum vulgare) grains synthesize starch as the main storage compound. However, some starch is degraded already during caryopsis development. We studied temporal and spatial expression patterns of genes coding for enzymes of starch synthesis and degradation. These profiles coupled with measurements of selected enzyme activities and metabolites have allowed us to propose a role for starch degradation in maternal and filial tissues of developing grains. Early maternal pericarp functions as a major short-term starch storage tissue, possibly ensuring sink strength of the young caryopsis. Gene expression patterns and enzyme activities suggest two different pathways for starch degradation in maternal tissues. One pathway possibly occurs via alpha-amylases 1 and 4 and beta-amylase 1 in pericarp, nucellus, and nucellar projection, tissues that undergo programmed cell death. Another pathway is deducted for living pericarp and chlorenchyma cells, where transient starch breakdown correlates with expression of chloroplast-localized beta-amylases 5, 6, and 7, glucan, water dikinase 1, phosphoglucan, water dikinase, isoamylase 3, and disproportionating enzyme. The suite of genes involved in starch synthesis in filial starchy endosperm is much more complex than in pericarp and involves several endosperm-specific genes. Transient starch turnover occurs in transfer cells, ensuring the maintenance of sink strength in filial tissues and the reallocation of sugars into more proximal regions of the starchy endosperm. Starch is temporally accumulated also in aleurone cells, where it is degraded during the seed filling period, to be replaced by storage proteins and lipids.
p20
sS'pageEnd'
p21
I204
sS'date'
p22
I2009
sS'documentType'
p23
VArticle
p24
sS'subject'
p25
VPlant Sciences
p26
sS'isoSource'
p27
VPlant Physiol.
p28
sS'timesCited'
p29
(lp30
I25
aVZ9 26
p31
asS'funding'
p32
(lp33
(VGerman Ministry of Education and Research
VGABI-SEEDII, FKZ 0313115, GABI-sysSEED, FKZ 0315044A
tp34
asS'PT'
p35
VJ
sS'title'
p36
VSpatiotemporal Profiling Of Starch Biosynthesis And Degradation In The Developing Barley Grain
p37
sS'ISSN'
p38
(lp39
V0032-0889
p40
aVJ9 PLANT PHYSIOL
p41
asS'authors_full'
p42
(lp43
(VRADCHUK
VVOLODYMYR V
tp44
a(VBORISJUK
VLUDMILLA
tp45
a(VSREENIVASULU
VNESE
tp46
a(VMERX
VKATHLEEN
tp47
a(VMOCK
VHANSPETER
tp48
a(VROLLETSCHEK
VHARDY
tp49
a(VWOBUS
VULRICH
tp50
a(VWESCHKE
VWINFRIEDE
tp51
asS'PG'
p52
I15
sS'PD'
p53
VMAY
p54
sS'pageStart'
p55
I190
sS'issue'
p56
I1
sS'RI'
p57
VSreenivasulu, Nese/E-8600-2011
p58
sS'journal'
p59
VPLANT PHYSIOLOGY
p60
sS'volume'
p61
V150
p62
sS'doi'
p63
V10.1104/pp.108.133520
p64
sS'emailAddress'
p65
Vradchukv@ipk-gatersleben.de
p66
sS'authorAddress'
p67
V[Radchuk, Volodymyr V.; Borisjuk, Ludmilla; Sreenivasulu, Nese; Merx, Kathleen; Mock, Hans-Peter; Rolletschek, Hardy; Wobus, Ulrich; Weschke, Winfriede] Leibniz Inst Pflanzengenet & Kulturpflanzenforsch, D-06466 Gatersleben, Germany.
p68
sS'publisherAddress'
p69
V15501 MONONA DRIVE, ROCKVILLE, MD 20855 USA
p70
sS'ER'
p71
V
sS'publisher'
p72
VAMER SOC PLANT BIOLOGISTS
p73
sS'authorKeywords'
p74
(lp75
VADP-GLUCOSE PYROPHOSPHORYLASE
p76
aVPLASTIDIAL SMALL-SUBUNIT
p77
aVEXPRESSED SEQUENCE TAGS
p78
aVCYTOSOLIC SMALL-SUBUNIT
p79
aVPROGRAMMED CELL-DEATH
p80
aVALPHA-AMYLASE
p81
aVBETA-AMYLASE
p82
aVSEED DEVELOPMENT
p83
aVHORDEUM-VULGARE
p84
aVFILIAL TISSUES
p85
asS'OI'
p86
VSreenivasulu, Nese/0000-0002-3998-038X
p87
sS'language'
p88
VEnglish
p89
sS'wosid'
p90
VWOS:000265661700017
p91
sS'citationCount'
p92
I89
sS'authors_init'
p93
(lp94
(VRADCHUK
VV V
tp95
a(VBORISJUK
VL
tp96
a(VSREENIVASULU
VN
tp97
a(VMERX
VK
tp98
a(VMOCK
VH P
tp99
a(VROLLETSCHEK
VH
tp100
a(VWOBUS
VU
tp101
a(VWESCHKE
VW
tp102
asS'citedReferences'
p103
(lp104
g1
(g2
g3
NtRp105
(dp106
g63
Nsg59
VJ I BREWING
p107
sg61
V80
p108
sg93
(lp109
(VALLISON
VM J
tp110
asg22
I1974
sg55
V488
p111
sbag1
(g2
g3
NtRp112
(dp113
g63
V10.1093/pcp/pci091
p114
sg59
VPLANT CELL PHYSIOL
p115
sg61
V46
p116
sg93
(lp117
(VASATSUMA
VS
tp118
asg22
I2005
sg55
VLANT
p119
sbag1
(g2
g3
NtRp120
(dp121
g63
V10.1111/j.1742-4658.2007.05790.x
p122
sg59
VFEBS J
p123
sg61
V274
p124
sg93
(lp125
(VBAK-JENSEN
VK S
tp126
asg22
I2007
sg55
V2552
p127
sbag1
(g2
g3
NtRp128
(dp129
g63
V10.1111/j.1365-313X.2004.02322.x
p130
sg59
VPLANT J
p131
sg61
V41
p132
sg93
(lp133
(VBAUNSGAARD
VL
tp134
asg22
I2005
sg55
VLANT
p135
sbag1
(g2
g3
NtRp136
(dp137
g63
Nsg59
VANNU REV PLANT PHYS
p138
sg61
V40
p139
sg93
(lp140
(VBECK
VE
tp141
asg22
I1989
sg55
V95
p142
sbag1
(g2
g3
NtRp143
(dp144
g63
V10.1104/pp.125.3.1396
p145
sg59
VPLANT PHYSIOL
p146
sg61
V125
p147
sg93
(lp148
(VBLAUTH
VS L
tp149
asg22
I2001
sg55
VLANT
p150
sbag1
(g2
g3
NtRp151
(dp152
g63
Nsg59
VJ PLANT PHYSIOL
p153
sg61
V147
p154
sg93
(lp155
(VBORISJUK
VL
tp156
asg22
I1995
sg55
V203
p157
sbag1
(g2
g3
NtRp158
(dp159
g63
V10.1007/s00425-005-0187-7
p160
sg59
VPLANTA
p161
sg61
V224
p162
sg93
(lp163
(VBRESOLIN
VN S
tp164
asg22
I2006
sg55
VLANTA
p165
sbag1
(g2
g3
NtRp166
(dp167
g63
V10.1104/pp.119.3.859
p168
sg59
VPLANT PHYSIOL
p169
sg61
V119
p170
sg93
(lp171
(VBURTON
VR A
tp172
asg22
I1999
sg55
VLANT
p173
sbag1
(g2
g3
NtRp174
(dp175
g63
V10.1046/j.1365-313X.2002.01339.x
p176
sg59
VPLANT J
p177
sg61
V31
p178
sg93
(lp179
(VBURTON
VR A
tp180
asg22
I2002
sg55
VLANT
p181
sbag1
(g2
g3
NtRp182
(dp183
g63
V10.1104/pp.010363
p184
sg59
VPLANT PHYSIOL
p185
sg61
V130
p186
sg93
(lp187
(VBURTON
VR A
tp188
asg22
I2002
sg55
VLANT
p189
sbag1
(g2
g3
NtRp190
(dp191
g63
Nsg59
VHISTOTTECHNOLOGY SEL
p192
sg61
Nsg93
(lp193
(VCARSON
VF L
tp194
asg22
I1990
sg55
Nsbag1
(g2
g3
NtRp195
(dp196
g63
V10.1016/S0981-9428(03)00118-9
p197
sg59
VPLANT PHYSIOL BIOCH
p198
sg61
V41
p199
sg93
(lp200
(VCLARK
VS E
tp201
asg22
I2003
sg55
VLANT
p202
sbag1
(g2
g3
NtRp203
(dp204
g63
V10.1046/j.1365-313x.2001.01012.x
p205
sg59
VPLANT J
p206
sg61
V26
p207
sg93
(lp208
(VCRITCHLEY
VJ H
tp209
asg22
I2001
sg55
VLANT
p210
sbag1
(g2
g3
NtRp211
(dp212
g63
V10.1074/jbc.M513661200
p213
sg59
VJ BIOL CHEM
p214
sg61
V281
p215
sg93
(lp216
(VDELATTE
VT
tp217
asg22
I2006
sg55
V12050
p218
sbag1
(g2
g3
NtRp219
(dp220
g63
V10.1093/jxb/eri065
p221
sg59
VJ EXP BOT
p222
sg61
V56
p223
sg93
(lp224
(VDIAN
VW M
tp225
asg22
I2005
sg55
V623
p226
sbag1
(g2
g3
NtRp227
(dp228
g63
V10.1105/tpc.007575
p229
sg59
VPLANT CELL
p230
sg61
V15
p231
sg93
(lp232
(VDINGES
VJ R
tp233
asg22
I2003
sg55
VLANT
p234
sbag1
(g2
g3
NtRp235
(dp236
g63
Nsg59
VP31
p237
sg61
Nsg93
(lp238
(VDUFFUS
VC M
tp239
asg22
I1993
sg55
V31
p240
sbag1
(g2
g3
NtRp241
(dp242
g63
V10.1016/S0031-9422(00)85558-2
p243
sg59
VPHYTOCHEMISTRY
p244
sg61
V8
sg93
(lp245
(VDUFFUS
VC M
tp246
asg22
I1969
sg55
VHYTOCHEMISTRY
p247
sbag1
(g2
g3
NtRp248
(dp249
g63
Nsg59
VENZYMES THEIR ROLE C
p250
sg61
Nsg93
(lp251
(VDUFFUS
VC M
tp252
asg22
I1987
sg55
V83
p253
sbag1
(g2
g3
NtRp254
(dp255
g63
V10.1016/S0378-1119(96)00837-2
p256
sg59
VGENE
p257
sg61
V189
p258
sg93
(lp259
(VEIMERT
VK
tp260
asg22
I1997
sg55
V79
p261
sbag1
(g2
g3
NtRp262
(dp263
g63
V10.1006/jmbi.2000.3903
p264
sg59
VJ MOL BIOL
p265
sg61
V300
p266
sg93
(lp267
(VEMANUELSSON
VO
tp268
asg22
I2000
sg55
V1005
p269
sbag1
(g2
g3
NtRp270
(dp271
g63
V10.1093/jxb/erg089
p272
sg59
VJ EXP BOT
p273
sg61
V54
p274
sg93
(lp275
(VEMES
VM J
tp276
asg22
I2003
sg55
V569
p277
sbag1
(g2
g3
NtRp278
(dp279
g63
V10.1105/tpc.107.056507
p280
sg59
VPLANT CELL
p281
sg61
V20
p282
sg93
(lp283
(VFULTON
VD C
tp284
asg22
I2008
sg55
VLANT
p285
sbag1
(g2
g3
NtRp286
(dp287
g63
V10.1105/tpc.10.3.399
p288
sg59
VPLANT CELL
p289
sg61
V10
p290
sg93
(lp291
(VGAO
VM
tp292
asg22
I1998
sg55
VLANT
p293
sbag1
(g2
g3
NtRp294
(dp295
g63
V10.1007/BF00019554
p296
sg59
VPLANT MOL BIOL
p297
sg61
V30
p298
sg93
(lp299
(VGAO
VM
tp300
asg22
I1996
sg55
VLANT
p301
sbag1
(g2
g3
NtRp302
(dp303
g63
Nsg59
VBOT MIKROTECHNIK
p304
sg61
V2
sg93
(lp305
(VGERLACH
VD
tp306
asg22
I1977
sg55
Nsbag1
(g2
g3
NtRp307
(dp308
g63
Nsg59
VPLANT PHYSIOL
p309
sg61
V122
p310
sg93
(lp311
(VGUBLER
VF
tp312
asg22
I2000
sg55
VLANT
p313
sbag1
(g2
g3
NtRp314
(dp315
g63
V10.1093/jxb/erm189
p316
sg59
VJ EXP BOT
p317
sg61
V59
p318
sg93
(lp319
(VGUNAWARDENA
VAHLAN
tp320
asg22
I2008
sg55
V445
p321
sbag1
(g2
g3
NtRp322
(dp323
g63
V10.1007/BF01275713
p324
sg59
VPROTOPLASMA
p325
sg61
V134
p326
sg93
(lp327
(VHARANISHIMURA
VI
tp328
asg22
I1986
sg55
VROTOPLASMA
p329
sbag1
(g2
g3
NtRp330
(dp331
g63
V10.1104/pp.109.135293
p332
sg59
VPLANT PHYSIOL
p333
sg61
V149
p334
sg93
(lp335
(VHENNEN-BIERWAGEN
VT A
tp336
asg22
I2009
sg55
VLANT
p337
sbag1
(g2
g3
NtRp338
(dp339
g63
V10.1104/pp.108.116285
p340
sg59
VPLANT PHYSIOL
p341
sg61
V146
p342
sg93
(lp343
(VHENNEN-BIERWAGEN
VT A
tp344
asg22
I2008
sg55
VLANT
p345
sbag1
(g2
g3
NtRp346
(dp347
g63
V10.1007/BF02365532
p348
sg59
VPOTATO RES
p349
sg61
V31
p350
sg93
(lp351
(VHOVENKAMPHERMELINK
VJ H M
tp352
asg22
I1988
sg55
VOTATO
p353
sbag1
(g2
g3
NtRp354
(dp355
g63
V10.1016/S1369-5266(03)00042-6
p356
sg59
VCURR OPIN PLANT BIOL
p357
sg61
V6
sg93
(lp358
(VJAMES
VM G
tp359
asg22
I2003
sg55
V215
p360
sbag1
(g2
g3
NtRp361
(dp362
g63
V10.1104/pp.013094
p363
sg59
VPLANT PHYSIOL
p364
sg61
V131
p365
sg93
(lp366
(VJOHNSON
VP E
tp367
asg22
I2003
sg55
VLANT
p368
sbag1
(g2
g3
NtRp369
(dp370
g63
Nsg59
VSEED SCI RES
p371
sg61
V11
p372
sg93
(lp373
(VJUNG
VW
tp374
asg22
I2001
sg55
V325
p375
sbag1
(g2
g3
NtRp376
(dp377
g63
Nsg59
VJ BIOL CHEM
p378
sg61
V263
p379
sg93
(lp380
(VKHURSHEED
VB
tp381
asg22
I1988
sg55
V18953
p382
sbag1
(g2
g3
NtRp383
(dp384
g63
V10.1104/pp.104.055954
p385
sg59
VPLANT PHYSIOL
p386
sg61
V137
p387
sg93
(lp388
(VKOTTING
VO
tp389
asg22
I2005
sg55
VLANT
p390
sbag1
(g2
g3
NtRp391
(dp392
g63
V10.1016/S0167-4838(99)00077-1
p393
sg59
VBBA
p394
sg61
V1431
p395
sg93
(lp396
(VKRISTENSEN
VM
tp397
asg22
I1999
sg55
V538
p398
sbag1
(g2
g3
NtRp399
(dp400
g63
V10.1111/j.1399-3054.1986.tb05752.x
p401
sg59
VPHYSIOL PLANTARUM
p402
sg61
V67
p403
sg93
(lp404
(VLAURIERE
VC
tp405
asg22
I1986
sg55
VHYSIOL
p406
sbag1
(g2
g3
NtRp407
(dp408
g63
V10.1016/j.carbpol.2006.08.013
p409
sg59
VCARBOHYD POLYM
p410
sg61
V67
p411
sg93
(lp412
(VLI
VL
tp413
asg22
I2007
sg55
V630
p414
sbag1
(g2
g3
NtRp415
(dp416
g63
Nsg59
VFunctional 
p417
sg61
V3
sg93
(lp418
(VLI
VZHONGYI
tp419
asg22
I2003
sg55
V76
p420
sbag1
(g2
g3
NtRp421
(dp422
g63
V10.1104/pp.123.2.613
p423
sg59
VPLANT PHYSIOL
p424
sg61
V123
p425
sg93
(lp426
(VLI
VZ Y
tp427
asg22
I2000
sg55
VLANT
p428
sbag1
(g2
g3
NtRp429
(dp430
g63
V10.1016/j.tplants.2005.01.001
p431
sg59
VTRENDS PLANT SCI
p432
sg61
V10
p433
sg93
(lp434
(VLLOYD
VJ R
tp435
asg22
I2005
sg55
V130
p436
sbag1
(g2
g3
NtRp437
(dp438
g63
V10.1007/s00425-003-1127-z
p439
sg59
VPLANTA
p440
sg61
V218
p441
sg93
(lp442
(VLU
VY
tp443
asg22
I2004
sg55
VLANTA
p444
sbag1
(g2
g3
NtRp445
(dp446
g63
Nsg59
VJ I BREWING
p447
sg61
V95
p448
sg93
(lp449
(VMACGREGOR
VA W
tp450
asg22
I1989
sg55
V29
p451
sbag1
(g2
g3
NtRp452
(dp453
g63
Nsg59
VJ I BREWING
p454
sg61
V95
p455
sg93
(lp456
(VMACGREGOR
VA W
tp457
asg22
I1989
sg55
V321
p458
sbag1
(g2
g3
NtRp459
(dp460
g63
V10.1006/jcrs.1998.0224
p461
sg59
VJ CEREAL SCI
p462
sg61
V9
sg93
(lp463
(VMCCLEARY
VB V
tp464
asg22
I1989
sg55
V17
p465
sbag1
(g2
g3
NtRp466
(dp467
g63
Nsg59
VJ CEREAL SCI
p468
sg61
V6
sg93
(lp469
(VMCCLEARY
VB V
tp470
asg22
I1987
sg55
V237
p471
sbag1
(g2
g3
NtRp472
(dp473
g63
V10.1046/j.1365-313X.2003.01712.x
p474
sg59
VPlant Journal
p475
sg61
V34
p476
sg93
(lp477
(VMORELL
VMATTHEW K
tp478
asg22
I2003
sg55
Vlant
p479
sbag1
(g2
g3
NtRp480
(dp481
g63
V10.1016/j.pbi.2005.01.009
p482
sg59
VCURR OPIN PLANT BIOL
p483
sg61
V8
sg93
(lp484
(VMORELL
VM K
tp485
asg22
I2005
sg55
V204
p486
sbag1
(g2
g3
NtRp487
(dp488
g63
V10.1078/0176-1617-00960
p489
sg59
VJ PLANT PHYSIOL
p490
sg61
V160
p491
sg93
(lp492
(VMUTISYA
VJ
tp493
asg22
I2003
sg55
V921
p494
sbag1
(g2
g3
NtRp495
(dp496
g63
V10.1111/j.1365-313X.2008.03664.x
p497
sg59
VPLANT J
p498
sg61
V57
p499
sg93
(lp500
(VNASHILEVITZ
VS
tp501
asg22
I2009
sg55
VLANT
p502
sbag1
(g2
g3
NtRp503
(dp504
g63
V10.1111/j.1467-7652.2007.00294.x
p505
sg59
VPLANT BIOTECHNOL J
p506
sg61
V6
sg93
(lp507
(VNEUBERGER
VT
tp508
asg22
I2008
sg55
VLANT
p509
sbag1
(g2
g3
NtRp510
(dp511
g63
V10.1093/jxb/eri292
p512
sg59
VJ EXP BOT
p513
sg61
V56
p514
sg93
(lp515
(VOHDAN
VT
tp516
asg22
I2005
sg55
V3229
p517
sbag1
(g2
g3
NtRp518
(dp519
g63
V10.1146/annurev.arplant.52.1.233
p520
sg59
VANNU REV PLANT PHYS
p521
sg61
V52
p522
sg93
(lp523
(VOLSEN
VO A
tp524
asg22
I2001
sg55
V233
p525
sbag1
(g2
g3
NtRp526
(dp527
g63
V10.1104/pp.005454
p528
sg59
VPLANT PHYSIOL
p529
sg61
V130
p530
sg93
(lp531
(VPATRON
VN J
tp532
asg22
I2002
sg55
VLANT
p533
sbag1
(g2
g3
NtRp534
(dp535
g63
V10.1104/pp.106.089169
p536
sg59
VPLANT PHYSIOL
p537
sg61
V142
p538
sg93
(lp539
(VPOMMERRENIG
VB
tp540
asg22
I2006
sg55
VLANT
p541
sbag1
(g2
g3
NtRp542
(dp543
g63
V10.1105/tpc.106.041335
p544
sg59
VPLANT CELL
p545
sg61
V18
p546
sg93
(lp547
(VRADCHUK
VV
tp548
asg22
I2006
sg55
VLANT
p549
sbag1
(g2
g3
NtRp550
(dp551
g63
V10.1007/BF00017454
p552
sg59
VPLANT MOL BIOL
p553
sg61
V12
p554
sg93
(lp555
(VRAHMATULLAH
VR J
tp556
asg22
I1989
sg55
VLANT
p557
sbag1
(g2
g3
NtRp558
(dp559
g63
V10.1073/pnas.062053099
p560
sg59
VP NATL ACAD SCI USA
p561
sg61
V99
p562
sg93
(lp563
(VRITTE
VG
tp564
asg22
I2002
sg55
V7166
p565
sbag1
(g2
g3
NtRp566
(dp567
g63
Nsg59
VJ BIOL CHEM
p568
sg61
V258
p569
sg93
(lp570
(VROGERS
VJ C
tp571
asg22
I1983
sg55
V8169
p572
sbag1
(g2
g3
NtRp573
(dp574
g63
V10.1093/jxb/erh130
p575
sg59
VJ EXP BOT
p576
sg61
V55
p577
sg93
(lp578
(VROLLETSCHEK
VH
tp579
asg22
I2004
sg55
V1351
p580
sbag1
(g2
g3
NtRp581
(dp582
g63
V10.1111/j.1365-313X.2005.02352.x
p583
sg59
VPLANT J
p584
sg61
V42
p585
sg93
(lp586
(VROLLETSCHEK
VH
tp587
asg22
I2005
sg55
VLANT
p588
sbag1
(g2
g3
NtRp589
(dp590
g63
V10.1093/jxb/erl110
p591
sg59
VJ EXP BOT
p592
sg61
V57
p593
sg93
(lp594
(VROSTI
VS
tp595
asg22
I2006
sg55
V3619
p596
sbag1
(g2
g3
NtRp597
(dp598
g63
V10.1105/tpc.107.054007
p599
sg59
VPLANT CELL
p600
sg61
V20
p601
sg93
(lp602
(VSATOH
VH
tp603
asg22
I2008
sg55
VLANT
p604
sbag1
(g2
g3
NtRp605
(dp606
g63
V10.1093/pcp/pch170
p607
sg59
VPLANT CELL PHYSIOL
p608
sg61
V45
p609
sg93
(lp610
(VSCHUPP
VN
tp611
asg22
I2004
sg55
VLANT
p612
sbag1
(g2
g3
NtRp613
(dp614
g63
V10.1111/j.1365-3040.2007.01708.x
p615
sg59
VPLANT CELL ENVIRON
p616
sg61
V30
p617
sg93
(lp618
(VSMITH
VA M
tp619
asg22
I2007
sg55
VLANT
p620
sbag1
(g2
g3
NtRp621
(dp622
g63
V10.1016/S1369-5266(99)80039-9
p623
sg59
VCURR OPIN PLANT BIOL
p624
sg61
V2
sg93
(lp625
(VSMITH
VA M
tp626
asg22
I1999
sg55
V223
p627
sbag1
(g2
g3
NtRp628
(dp629
g63
V10.1146/annurev.arplant.56.032604.144257
p630
sg59
VANNU REV PLANT BIOL
p631
sg61
V56
p632
sg93
(lp633
(VSMITH
VA M
tp634
asg22
I2005
sg55
V73
p635
sbag1
(g2
g3
NtRp636
(dp637
g63
V10.1007/s00438-001-0614-9
p638
sg59
VMOL GENET GENOMICS
p639
sg61
V266
p640
sg93
(lp641
(VSREENIVASULU
VN
tp642
asg22
I2002
sg55
V758
p643
sbag1
(g2
g3
NtRp644
(dp645
g63
V10.1104/pp.107.111781
p646
sg59
VPLANT PHYSIOL
p647
sg61
V146
p648
sg93
(lp649
(VSREENIVASULU
VN
tp650
asg22
I2008
sg55
VLANT
p651
sbag1
(g2
g3
NtRp652
(dp653
g63
V10.1111/j.1365-313X.2006.02789.x
p654
sg59
VPLANT J
p655
sg61
V47
p656
sg93
(lp657
(VSREENIVASULU
VN
tp658
asg22
I2006
sg55
VLANT
p659
sbag1
(g2
g3
NtRp660
(dp661
g63
V10.1046/j.1365-313X.2003.01981.x
p662
sg59
VPLANT J
p663
sg61
V37
p664
sg93
(lp665
(VSREENIVASULU
VN
tp666
asg22
I2004
sg55
VLANT
p667
sbag1
(g2
g3
NtRp668
(dp669
g63
V10.1105/tpc.108.063487
p670
sg59
VPLANT CELL
p671
sg61
V20
p672
sg93
(lp673
(VSTREB
VS
tp674
asg22
I2008
sg55
VLANT
p675
sbag1
(g2
g3
NtRp676
(dp677
g63
V10.1104/pp.118.1.37
p678
sg59
VPLANT PHYSIOL
p679
sg61
V118
p680
sg93
(lp681
(VSUN
VC X
tp682
asg22
I1998
sg55
VLANT
p683
sbag1
(g2
g3
NtRp684
(dp685
g63
V10.1104/pp.108.116244
p686
sg59
VPLANT PHYSIOL
p687
sg61
V146
p688
sg93
(lp689
(VTETLOW
VI J
tp690
asg22
I2008
sg55
VLANT
p691
sbag1
(g2
g3
NtRp692
(dp693
g63
V10.1104/pp.108.127001
p694
sg59
VPLANT PHYSIOL
p695
sg61
V148
p696
sg93
(lp697
(VTHIEL
VJ
tp698
asg22
I2008
sg55
VLANT
p699
sbag1
(g2
g3
NtRp700
(dp701
g63
Nsg59
VBIOCHEM J
p702
sg61
V313
p703
sg93
(lp704
(VTHORBJORNSEN
VT
tp705
asg22
I1996
sg55
V149
p706
sbag1
(g2
g3
NtRp707
(dp708
g63
V10.1016/S0065-2296(05)40001-4
p709
sg59
VADV BOT RES
p710
sg61
V40
p711
sg93
(lp712
(VTOMLINSON
VK
tp713
asg22
I2003
sg55
V1
sbag1
(g2
g3
NtRp714
(dp715
g63
V10.1104/pp.100.3.1617
p716
sg59
VPLANT PHYSIOL
p717
sg61
V100
p718
sg93
(lp719
(VVILLAND
VP
tp720
asg22
I1992
sg55
VLANT
p721
sbag1
(g2
g3
NtRp722
(dp723
g63
V10.1104/pp.122.1.255
p724
sg59
VPLANT PHYSIOL
p725
sg61
V122
p726
sg93
(lp727
(VVRINTEN
VP L
tp728
asg22
I2000
sg55
VLANT
p729
sbag1
(g2
g3
NtRp730
(dp731
g63
V10.1104/pp.105.059295
p732
sg59
VPLANT PHYSIOL
p733
sg61
V138
p734
sg93
(lp735
(VWATTEBLED
VF
tp736
asg22
I2005
sg55
VLANT
p737
sbag1
(g2
g3
NtRp738
(dp739
g63
V10.1046/j.1432-1327.2000.01087.x
p740
sg59
VEUR J BIOCHEM
p741
sg61
V267
p742
sg93
(lp743
(VWEGRZYN
VT
tp744
asg22
I2000
sg55
V1313
p745
sbag1
(g2
g3
NtRp746
(dp747
g63
V10.1046/j.1365-313x.2000.00695.x
p748
sg59
VPLANT J
p749
sg61
V21
p750
sg93
(lp751
(VWESCHKE
VW
tp752
asg22
I2000
sg55
VLANT
p753
sbag1
(g2
g3
NtRp754
(dp755
g63
V10.1046/j.1365-313X.2003.01633.x
p756
sg59
VPLANT J
p757
sg61
V33
p758
sg93
(lp759
(VWESCHKE
VW
tp760
asg22
I2003
sg55
VLANT
p761
sbag1
(g2
g3
NtRp762
(dp763
g63
V[10.1074/jbc.M413638200, 10.1074/jbc.M413865200]
p764
sg59
VJ BIOL CHEM
p765
sg61
V280
p766
sg93
(lp767
(VYU
VT S
tp768
asg22
I2005
sg55
V9773
p769
sbag1
(g2
g3
NtRp770
(dp771
g63
V10.1071/FP06313
p772
sg59
VFUNCT PLANT BIOL
p773
sg61
V34
p774
sg93
(lp775
(VZEEMAN
VS C
tp776
asg22
I2007
sg55
V465
p777
sbag1
(g2
g3
NtRp778
(dp779
g63
V10.1111/j.1365-313X.2004.02209.x
p780
sg59
VPLANT J
p781
sg61
V40
p782
sg93
(lp783
(VZHANG
VH N
tp784
asg22
I2004
sg55
VLANT
p785
sbasb.