ccopy_reg
_reconstructor
p1
(ctethne.classes.paper
Paper
p2
c__builtin__
object
p3
NtRp4
(dp5
S'publisherCity'
p6
VROCKVILLE
p7
sS'reprintAddress'
p8
VFaik, A (reprint author), Ohio Univ, Dept Environm & Plant Biol, Mol & Cellular Biol Program, Athens, OH 45701 USA.
p9
sS'WC'
p10
VPlant Sciences
p11
sS'GA'
p12
V605IC
p13
sS'FX'
p14
(lp15
VThis work was supported by the National Science Foundation (grant no.
p16
aVIOS-0724135).
p17
asS'pageEnd'
p18
I402
sS'date'
p19
I2010
sS'documentType'
p20
VArticle
p21
sS'subject'
p22
VPlant Sciences
p23
sS'isoSource'
p24
VPlant Physiol.
p25
sS'timesCited'
p26
(lp27
I16
aVZ9 17
p28
asS'funding'
p29
(lp30
(VNational Science Foundation
VIOS-0724135
tp31
asS'PT'
p32
VJ
sS'title'
p33
VXylan Biosynthesis: News From The Grass
p34
sS'ISSN'
p35
(lp36
V0032-0889
p37
aVJ9 PLANT PHYSIOL
p38
asS'authors_full'
p39
(lp40
(VFAIK
VAHMED
tp41
asS'PG'
p42
I7
sS'PD'
p43
VJUN
p44
sS'pageStart'
p45
I396
sS'issue'
p46
I2
sS'journal'
p47
VPLANT PHYSIOLOGY
p48
sS'volume'
p49
V153
p50
sS'doi'
p51
V10.1104/pp.110.154237
p52
sS'emailAddress'
p53
Vfaik@ohio.edu
p54
sS'authorAddress'
p55
VOhio Univ, Dept Environm & Plant Biol, Mol & Cellular Biol Program, Athens, OH 45701 USA.
p56
sS'publisherAddress'
p57
V15501 MONONA DRIVE, ROCKVILLE, MD 20855 USA
p58
sS'ER'
p59
V
sS'publisher'
p60
VAMER SOC PLANT BIOLOGISTS
p61
sS'authorKeywords'
p62
(lp63
VCELL-WALL FORMATION
p64
aVPISUM-SATIVUM EPICOTYLS
p65
aVGLUCURONOXYLAN BIOSYNTHESIS
p66
aVARABINOXYLAN BIOSYNTHESIS
p67
aVMAIZE COLEOPTILES
p68
aVGOLGI MEMBRANES
p69
aVREDUCING-END
p70
aVWHEAT
p71
aVARABIDOPSIS
p72
aVSYNTHASE
p73
asS'language'
p74
VEnglish
p75
sS'wosid'
p76
VWOS:000278340200005
p77
sS'citationCount'
p78
I57
sS'authors_init'
p79
(lp80
(VFAIK
VA
tp81
asS'citedReferences'
p82
(lp83
g1
(g2
g3
NtRp84
(dp85
g51
V10.1093/pcp/pcp133
p86
sg47
VPLANT CELL PHYSIOL
p87
sg49
V50
p88
sg79
(lp89
(VAOHARA
VT
tp90
asg19
I2009
sg45
VLANT
p91
sbag1
(g2
g3
NtRp92
(dp93
g51
Nsg47
VBIOCH PLANTS
p94
sg49
V14
p95
sg79
(lp96
(VBACIC
VA
tp97
asg19
I1988
sg45
V297
p98
sbag1
(g2
g3
NtRp99
(dp100
g51
Nsg47
VBIOCHEM J
p101
sg49
V257
p102
sg79
(lp103
(VBAYDOUN
VE A H
tp104
asg19
I1989
sg45
V853
p105
sbag1
(g2
g3
NtRp106
(dp107
g51
V10.1074/jbc.M412803200
p108
sg47
VJ BIOL CHEM
p109
sg49
V280
p110
sg79
(lp111
(VBODEVIN-AUTHELET
VS
tp112
asg19
I2005
sg45
V8813
p113
sbag1
(g2
g3
NtRp114
(dp115
g51
V10.1105/tpc.105.031542
p116
sg47
VPLANT CELL
p117
sg49
V17
p118
sg79
(lp119
(VBROWN
VD M
tp120
asg19
I2005
sg45
VLANT
p121
sbag1
(g2
g3
NtRp122
(dp123
g51
V10.1111/j.1365-313X.2008.03729.x
p124
sg47
VPLANT J
p125
sg49
V57
p126
sg79
(lp127
(VBROWN
VD M
tp128
asg19
I2009
sg45
VLANT
p129
sbag1
(g2
g3
NtRp130
(dp131
g51
V10.1111/j.1365-313X.2007.03307.x
p132
sg47
VPLANT J
p133
sg49
V52
p134
sg79
(lp135
(VBROWN
VD M
tp136
asg19
I2007
sg45
VLANT
p137
sbag1
(g2
g3
NtRp138
(dp139
g51
V10.1093/mp/ssp067
p140
sg47
VMOL PLANT
p141
sg49
V2
sg79
(lp142
(VBUANAFINA
VM M D
tp143
asg19
I2009
sg45
V861
p144
sbag1
(g2
g3
NtRp145
(dp146
g51
V10.1126/science.1122975
p147
sg47
VSCIENCE
p148
sg49
V311
p149
sg79
(lp150
(VBURTON
VR A
tp151
asg19
I2006
sg45
V1940
p152
sbag1
(g2
g3
NtRp153
(dp154
g51
V10.1104/pp.76.1.205
p155
sg47
VPLANT PHYSIOL
p156
sg49
V76
p157
sg79
(lp158
(VCARPITA
VN C
tp159
asg19
I1984
sg45
VLANT
p160
sbag1
(g2
g3
NtRp161
(dp162
g51
V10.1016/0008-6215(86)85030-3
p163
sg47
VCARBOHYD RES
p164
sg49
V146
p165
sg79
(lp166
(VCARPITA
VN C
tp167
asg19
I1986
sg45
V129
p168
sbag1
(g2
g3
NtRp169
(dp170
g51
V10.1080/00071669008417312
p171
sg47
VBRIT POULTRY SCI
p172
sg49
V31
p173
sg79
(lp174
(VCHOCT
VM
tp175
asg19
I1990
sg45
V811
p176
sbag1
(g2
g3
NtRp177
(dp178
g51
V10.1073/pnas.0703133104
p179
sg47
VP NATL ACAD SCI USA
p180
sg49
V104
p181
sg79
(lp182
(VCOCURON
VJ C
tp183
asg19
I2007
sg45
V8550
p184
sbag1
(g2
g3
NtRp185
(dp186
g51
Nsg47
VBIOCHEM J
p187
sg49
V321
p188
sg79
(lp189
(VDAVIES
VG J
tp190
asg19
I1997
sg45
V557
p191
sbag1
(g2
g3
NtRp192
(dp193
g51
V10.1126/science.1090908
p194
sg47
VSCIENCE
p195
sg49
V303
p196
sg79
(lp197
(VDHUGGA
VK S
tp198
asg19
I2004
sg45
V363
p199
sbag1
(g2
g3
NtRp200
(dp201
g51
V10.1073/pnas.0902019106
p202
sg47
VP NATL ACAD SCI USA
p203
sg49
V106
p204
sg79
(lp205
(VDOBLIN
VM S
tp206
asg19
I2009
sg45
V5996
p207
sbag1
(g2
g3
NtRp208
(dp209
g51
V10.3382/japr.2008-00134
p210
sg47
VJ APPL POULTRY RES
p211
sg49
V18
p212
sg79
(lp213
(VDONOHUE
VM
tp214
asg19
I2009
sg45
V325
p215
sbag1
(g2
g3
NtRp216
(dp217
g51
V10.1007/b136816
p218
sg47
VADV POLYM SCI
p219
sg49
V186
p220
sg79
(lp221
(VEBRINGEROVA
VA
tp222
asg19
I2005
sg45
V1
sbag1
(g2
g3
NtRp223
(dp224
g51
V10.1046/j.1365-313x.1999.00566.x
p225
sg47
VPLANT J
p226
sg49
V19
p227
sg79
(lp228
(VEDWARDS
VM E
tp229
asg19
I1999
sg45
VLANT
p230
sbag1
(g2
g3
NtRp231
(dp232
g51
V10.1104/pp.108.130096
p233
sg47
VPLANT PHYSIOL
p234
sg49
V149
p235
sg79
(lp236
(VFINCHER
VG B
tp237
asg19
I2009
sg45
VLANT
p238
sbag1
(g2
g3
NtRp239
(dp240
g51
V10.1007/s00425-005-1481-0
p241
sg47
VPLANTA
p242
sg49
V221
p243
sg79
(lp244
(VGIBEAUT
VD M
tp245
asg19
I2005
sg45
VLANTA
p246
sbag1
(g2
g3
NtRp247
(dp248
g51
V10.1104/pp.91.1.373
p249
sg47
VPLANT PHYSIOL
p250
sg49
V91
p251
sg79
(lp252
(VGORDON
VR
tp253
asg19
I1989
sg45
VLANT
p254
sbag1
(g2
g3
NtRp255
(dp256
g51
Nsg47
VENZYMES ANIMAL NUTR
p257
sg49
Nsg79
(lp258
(VGRUPPEN
VH
tp259
asg19
I1993
sg45
V276
p260
sbag1
(g2
g3
NtRp261
(dp262
g51
Nsg47
VNUCLEIC ACIDS RES
p263
sg49
V33
p264
sg79
(lp265
(VGUINDON
VS
tp266
asg19
I2005
sg45
V557
p267
sbag1
(g2
g3
NtRp268
(dp269
g51
V10.1016/0008-6215(92)80003-J
p270
sg47
VCARBOHYD RES
p271
sg49
V223
p272
sg79
(lp273
(VHOFFMANN
VR A
tp274
asg19
I1992
sg45
V19
p275
sbag1
(g2
g3
NtRp276
(dp277
g51
V10.1016/j.carres.2006.10.008
p278
sg47
VCARBOHYD RES
p279
sg49
V341
p280
sg79
(lp281
(VHOIJE
VA
tp282
asg19
I2006
sg45
V2959
p283
sbag1
(g2
g3
NtRp284
(dp285
g51
V10.1016/j.carres.2010.01.008
p286
sg47
VCARBOHYD RES
p287
sg49
V345
p288
sg79
(lp289
(VKONISHI
VT
tp290
asg19
I2010
sg45
V787
p291
sbag1
(g2
g3
NtRp292
(dp293
g51
V10.1093/glycob/cwl081
p294
sg47
VGLYCOBIOLOGY
p295
sg49
V17
p296
sg79
(lp297
(VKONISHI
VT
tp298
asg19
I2007
sg45
V345
p299
sbag1
(g2
g3
NtRp300
(dp301
g51
Nsg47
VAPPL MICROBIOL BIOT
p302
sg49
V38
p303
sg79
(lp304
(VKORMELINK
VF J M
tp305
asg19
I1993
sg45
V688
p306
sbag1
(g2
g3
NtRp307
(dp308
g51
V10.1007/s004250000499
p309
sg47
VPLANTA
p310
sg49
V213
p311
sg79
(lp312
(VKUROYAMA
VH
tp313
asg19
I2001
sg45
VLANTA
p314
sbag1
(g2
g3
NtRp315
(dp316
g51
V10.1093/pcp/pcm135
p317
sg47
VPLANT CELL PHYSIOL
p318
sg49
V48
p319
sg79
(lp320
(VLEE
VC H
tp321
asg19
I2007
sg45
VLANT
p322
sbag1
(g2
g3
NtRp323
(dp324
g51
V10.1093/pcp/pcm155
p325
sg47
VPLANT CELL PHYSIOL
p326
sg49
V48
p327
sg79
(lp328
(VLEE
VC H
tp329
asg19
I2007
sg45
VLANT
p330
sbag1
(g2
g3
NtRp331
(dp332
g51
V10.1073/pnas.0409179102
p333
sg47
VP NATL ACAD SCI USA
p334
sg49
V102
p335
sg79
(lp336
(VLIEPMAN
VA H
tp337
asg19
I2005
sg45
V2221
p338
sbag1
(g2
g3
NtRp339
(dp340
g51
V10.1104/pp.106.094995
p341
sg47
VPLANT PHYSIOL
p342
sg49
V144
p343
sg79
(lp344
(VMITCHELL
VR A C
tp345
asg19
I2007
sg45
VLANT
p346
sbag1
(g2
g3
NtRp347
(dp348
g51
V10.1104/pp.107.110023
p349
sg47
VPLANT PHYSIOL
p350
sg49
V147
p351
sg79
(lp352
(VMONTES
VR A C
tp353
asg19
I2008
sg45
VLANT
p354
sbag1
(g2
g3
NtRp355
(dp356
g51
V10.1016/j.carres.2004.11.010
p357
sg47
VCARBOHYD RES
p358
sg49
V340
p359
sg79
(lp360
(VMUKERJEA
VR
tp361
asg19
I2005
sg45
V245
p362
sbag1
(g2
g3
NtRp363
(dp364
g51
V10.1016/j.carres.2009.09.035
p365
sg47
VCARBOHYD RES
p366
sg49
V344
p367
sg79
(lp368
(VPASTELL
VH
tp369
asg19
I2009
sg45
V2480
p370
sbag1
(g2
g3
NtRp371
(dp372
g51
V10.1105/tpc.106.049320
p373
sg47
VPLANT CELL
p374
sg49
V19
p375
sg79
(lp376
(VPENA
VM J
tp377
asg19
I2007
sg45
VLANT
p378
sbag1
(g2
g3
NtRp379
(dp380
g51
V10.1007/s00425-009-1077-1
p381
sg47
VPLANTA
p382
sg49
V231
p383
sg79
(lp384
(VPISTON
VF
tp385
asg19
I2010
sg45
VLANTA
p386
sbag1
(g2
g3
NtRp387
(dp388
g51
V10.1104/pp.003400
p389
sg47
VPLANT PHYSIOL
p390
sg49
V130
p391
sg79
(lp392
(VPORCHIA
VA C
tp393
asg19
I2002
sg45
VLANT
p394
sbag1
(g2
g3
NtRp395
(dp396
g51
V10.1034/j.1399-3054.2000.1100309.x
p397
sg47
VPHYSIOL PLANTARUM
p398
sg49
V110
p399
sg79
(lp400
(VPORCHIA
VA C
tp401
asg19
I2000
sg45
VHYSIOL
p402
sbag1
(g2
g3
NtRp403
(dp404
g51
V10.1016/0304-4165(80)90149-X
p405
sg47
VBIOCHIM BIOPHYS ACTA
p406
sg49
V629
p407
sg79
(lp408
(VRAY
VP M
tp409
asg19
I1980
sg45
V431
p410
sbag1
(g2
g3
NtRp411
(dp412
g51
V10.1146/annurev.cellbio.22.022206.160206
p413
sg47
VANNU REV CELL DEV BI
p414
sg49
V22
p415
sg79
(lp416
(VSOMERVILLE
VC
tp417
asg19
I2006
sg45
V53
p418
sbag1
(g2
g3
NtRp419
(dp420
g51
V10.1074/jbc.M409788200
p421
sg47
VJ BIOL CHEM
p422
sg49
V280
p423
sg79
(lp424
(VTLAPAK-SIMMONS
VV L
tp425
asg19
I2005
sg45
V13012
p426
sbag1
(g2
g3
NtRp427
(dp428
g51
Nsg47
VCEREAL CHEM
p429
sg49
V81
p430
sg79
(lp431
(VTROGH
VI
tp432
asg19
I2004
sg45
V555
p433
sbag1
(g2
g3
NtRp434
(dp435
g51
V10.1111/j.0031-9317.2004.00390.x
p436
sg47
VPHYSIOL PLANTARUM
p437
sg49
V122
p438
sg79
(lp439
(VURAHARA
VT
tp440
asg19
I2004
sg45
VHYSIOL
p441
sbag1
(g2
g3
NtRp442
(dp443
g51
V10.1016/0144-8617(94)90020-5
p444
sg47
VCARBOHYD POLYM
p445
sg49
V24
p446
sg79
(lp447
(VVIETOR
VR J
tp448
asg19
I1994
sg45
V113
p449
sbag1
(g2
g3
NtRp450
(dp451
g51
V10.1006/jcrs.1996.0032
p452
sg47
VJ CEREAL SCI
p453
sg49
V24
p454
sg79
(lp455
(VVINKX
VC J A
tp456
asg19
I1996
sg45
V1
sbag1
(g2
g3
NtRp457
(dp458
g51
Nsg47
VBIOCHEM J
p459
sg49
V213
p460
sg79
(lp461
(VWALDRON
VK W
tp462
asg19
I1983
sg45
V115
p463
sbag1
(g2
g3
NtRp464
(dp465
g51
V10.1016/S0031-9422(96)00649-8
p466
sg47
VPHYTOCHEMISTRY
p467
sg49
V44
p468
sg79
(lp469
(VWENDE
VG
tp470
asg19
I1997
sg45
VHYTOCHEMISTRY
p471
sbag1
(g2
g3
NtRp472
(dp473
g51
Nsg47
VBIOCHEM J
p474
sg49
V294
p475
sg79
(lp476
(VWHITE
VA R
tp477
asg19
I1993
sg45
V1
sbag1
(g2
g3
NtRp478
(dp479
g51
Nsg47
VACS SYM SER
p480
sg49
V666
p481
sg79
(lp482
(VSAHA
VB C
tp483
asg19
I1997
sg45
V307
p484
sbag1
(g2
g3
NtRp485
(dp486
g51
V10.1111/j.1365-313X.2008.03724.x
p487
sg47
VPLANT J
p488
sg49
V57
p489
sg79
(lp490
(VWU
VA M
tp491
asg19
I2009
sg45
VLANT
p492
sbag1
(g2
g3
NtRp493
(dp494
g51
V10.1016/j.pbi.2008.02.007
p495
sg47
VCURR OPIN PLANT BIOL
p496
sg49
V11
p497
sg79
(lp498
(VYORK
VW S
tp499
asg19
I2008
sg45
V258
p500
sbag1
(g2
g3
NtRp501
(dp502
g51
V10.1104/pp.107.115576
p503
sg47
VPLANT PHYSIOL
p504
sg49
V147
p505
sg79
(lp506
(VZENG
VW
tp507
asg19
I2008
sg45
VLANT
p508
sbag1
(g2
g3
NtRp509
(dp510
g51
V10.1105/tpc.105.035501
p511
sg47
VPLANT CELL
p512
sg49
V17
p513
sg79
(lp514
(VZHONG
VR Q
tp515
asg19
I2005
sg45
VLANT
p516
sbag1
(g2
g3
NtRp517
(dp518
g51
V10.1016/j.pbi.2007.09.001
p519
sg47
VCURR OPIN PLANT BIOL
p520
sg49
V10
p521
sg79
(lp522
(VZHONG
VR Q
tp523
asg19
I2007
sg45
V564
p524
sbasb.