ccopy_reg
_reconstructor
p1
(ctethne.classes.paper
Paper
p2
c__builtin__
object
p3
NtRp4
(dp5
S'publisherCity'
p6
VROCKVILLE
p7
sS'reprintAddress'
p8
VMeng, YJ (reprint author), Hangzhou Normal Univ, Coll Life & Environm Sci, Hangzhou 310036, Zhejiang, Peoples R China.
p9
sS'WC'
p10
VPlant Sciences
p11
sS'GA'
p12
V866JC
p13
sS'FX'
p14
(lp15
VThis work was supported by the National Natural Sciences Foundation of
p16
aVChina (grant no. 31100937) and by a Starting Grant funded by Hangzhou
p17
aVNormal University (to Y.M.).
p18
asS'pageEnd'
p19
I1595
sS'date'
p20
I2011
sS'documentType'
p21
VArticle
p22
sS'subject'
p23
VPlant Sciences
p24
sS'isoSource'
p25
VPlant Physiol.
p26
sS'timesCited'
p27
(lp28
I12
aVZ9 12
p29
asS'funding'
p30
(lp31
(VNational Natural Sciences Foundation of China
V31100937
tp32
a(VHangzhou Normal University
Ntp33
asS'PT'
p34
VJ
sS'title'
p35
VThe Regulatory Activities Of Plant Micrornas: A More Dynamic Perspective
p36
sS'ISSN'
p37
(lp38
V0032-0889
p39
aVJ9 PLANT PHYSIOL
p40
asS'authors_full'
p41
(lp42
(VMENG
VYIJUN
tp43
a(VSHAO
VCHAOGANG
tp44
a(VWANG
VHUIZHONG
tp45
a(VCHEN
VMING
tp46
asS'PG'
p47
I13
sS'PD'
p48
VDEC
p49
sS'pageStart'
p50
I1583
sS'issue'
p51
I4
sS'journal'
p52
VPLANT PHYSIOLOGY
p53
sS'volume'
p54
V157
p55
sS'doi'
p56
V10.1104/pp.111.187088
p57
sS'emailAddress'
p58
Vmengyijun@zju.edu.cn
p59
sS'authorAddress'
p60
(lp61
V[Meng, Yijun; Wang, Huizhong] Hangzhou Normal Univ, Coll Life & Environm Sci, Hangzhou 310036, Zhejiang, Peoples R China.
p62
aV[Shao, Chaogang] Huzhou Univ, Coll Life Sci, Huzhou 313000, Peoples R China.
p63
aV[Chen, Ming] Zhejiang Univ, Coll Life Sci, Dept Bioinformat, Hangzhou 310058, Zhejiang, Peoples R China.
p64
asS'publisherAddress'
p65
V15501 MONONA DRIVE, ROCKVILLE, MD 20855 USA
p66
sS'ER'
p67
V
sS'publisher'
p68
VAMER SOC PLANT BIOLOGISTS
p69
sS'authorKeywords'
p70
(lp71
VTRANS-ACTING SIRNAS
p72
aVSHOOT APICAL MERISTEM
p73
aVMEDIATE DNA METHYLATION
p74
aVSMALL RNAS
p75
aVARABIDOPSIS-THALIANA
p76
aVMESSENGER-RNA
p77
aVSACCHAROMYCES-CEREVISIAE
p78
aVGENE-EXPRESSION
p79
aVPOSTTRANSCRIPTIONAL REGULATION
p80
aVTRANSLATIONAL INHIBITION
p81
asS'language'
p82
VEnglish
p83
sS'wosid'
p84
VWOS:000298375600001
p85
sS'citationCount'
p86
I159
sS'authors_init'
p87
(lp88
(VMENG
VY J
tp89
a(VSHAO
VC G
tp90
a(VWANG
VH Z
tp91
a(VCHEN
VM
tp92
asS'citedReferences'
p93
(lp94
g1
(g2
g3
NtRp95
(dp96
g56
V10.1016/j.cub.2008.04.042
p97
sg52
VCURR BIOL
p98
sg54
V18
p99
sg87
(lp100
(VADDO-QUAYE
VC
tp101
asg20
I2008
sg50
V758
p102
sbag1
(g2
g3
NtRp103
(dp104
g56
V10.1016/j.cell.2005.04.004
p105
sg52
VCELL
p106
sg54
V121
p107
sg87
(lp108
(VALLEN
VE
tp109
asg20
I2005
sg50
V207
p110
sbag1
(g2
g3
NtRp111
(dp112
g56
V10.1016/j.semcdb.2010.03.008
p113
sg52
VSEMIN CELL DEV BIOL
p114
sg54
V21
p115
sg87
(lp116
(VALLEN
VE
tp117
asg20
I2010
sg50
V798
p118
sbag1
(g2
g3
NtRp119
(dp120
g56
V10.1038/ng1478
p121
sg52
VNAT GENET
p122
sg54
V36
p123
sg87
(lp124
(VALLEN
VE
tp125
asg20
I2004
sg50
V1282
p126
sbag1
(g2
g3
NtRp127
(dp128
g56
V10.1016/j.cell.2007.04.037
p129
sg52
VCELL
p130
sg54
V130
p131
sg87
(lp132
(VAMERES
VS L
tp133
asg20
I2007
sg50
V101
p134
sbag1
(g2
g3
NtRp135
(dp136
g56
V10.1126/science.1187058
p137
sg52
VSCIENCE
p138
sg54
V328
p139
sg87
(lp140
(VAMERES
VS L
tp141
asg20
I2010
sg50
V1534
p142
sbag1
(g2
g3
NtRp143
(dp144
g56
V10.1038/msb.2010.24
p145
sg52
VMOL SYST BIOL
p146
sg54
V6
sg87
(lp147
(VARVEY
VA
tp148
asg20
I2010
sg50
Nsbag1
(g2
g3
NtRp149
(dp150
g56
V10.1016/j.cell.2006.09.032
p151
sg52
VCELL
p152
sg54
V127
p153
sg87
(lp154
(VAXTELL
VM J
tp155
asg20
I2006
sg50
V565
p156
sbag1
(g2
g3
NtRp157
(dp158
g56
V10.1016/j.cub.2011.01.067
p159
sg52
VCURR BIOL
p160
sg54
V21
p161
sg87
(lp162
(VBACCARINI
VA
tp163
asg20
I2011
sg50
V369
p164
sbag1
(g2
g3
NtRp165
(dp166
g56
V10.1104/pp.106.079707
p167
sg52
VPLANT PHYSIOL
p168
sg54
V141
p169
sg87
(lp170
(VBARI
VR
tp171
asg20
I2006
sg50
VLANT
p172
sbag1
(g2
g3
NtRp173
(dp174
g56
V10.1016/j.ydbio.2009.11.029
p175
sg52
VDEV BIOL
p176
sg54
V341
p177
sg87
(lp178
(VBARTON
VM K
tp179
asg20
I2010
sg50
V95
p180
sbag1
(g2
g3
NtRp181
(dp182
g56
V10.1186/gb-2006-7-4-r27
p183
sg52
VGENOME BIOL
p184
sg54
V7
sg87
(lp185
(VBLOW
VM J
tp186
asg20
I2006
sg50
Nsbag1
(g2
g3
NtRp187
(dp188
g56
V10.1016/S0092-8674(00)00065-9
p189
sg52
VCELL
p190
sg54
V102
p191
sg87
(lp192
(VBOUSQUET-ANTONELLI
VC
tp193
asg20
I2000
sg50
V765
p194
sbag1
(g2
g3
NtRp195
(dp196
g56
V10.1126/science.1159151
p197
sg52
VSCIENCE
p198
sg54
V320
p199
sg87
(lp200
(VBRODERSEN
VP
tp201
asg20
I2008
sg50
V1185
p202
sbag1
(g2
g3
NtRp203
(dp204
g56
V10.1016/j.pbi.2011.07.011
p205
sg52
VCURR OPIN PLANT BIOL
p206
sg54
V14
p207
sg87
(lp208
(VBROSNAN
VC A
tp209
asg20
I2011
sg50
V580
p210
sbag1
(g2
g3
NtRp211
(dp212
g56
V10.1126/science.1085242
p213
sg52
VSCIENCE
p214
sg54
V301
p215
sg87
(lp216
(VCARRINGTON
VJ C
tp217
asg20
I2003
sg50
V336
p218
sbag1
(g2
g3
NtRp219
(dp220
g56
V10.1016/j.cell.2009.01.035
p221
sg52
VCELL
p222
sg54
V136
p223
sg87
(lp224
(VCARTHEW
VR W
tp225
asg20
I2009
sg50
V642
p226
sbag1
(g2
g3
NtRp227
(dp228
g56
V10.1016/j.devcel.2011.02.008
p229
sg52
VDEV CELL
p230
sg54
V20
p231
sg87
(lp232
(VCHATTERJEE
VS
tp233
asg20
I2011
sg50
V388
p234
sbag1
(g2
g3
NtRp235
(dp236
g56
V10.1038/nature08349
p237
sg52
VNATURE
p238
sg54
V461
p239
sg87
(lp240
(VCHATTERJEE
VS
tp241
asg20
I2009
sg50
V546
p242
sbag1
(g2
g3
NtRp243
(dp244
g56
V10.1016/j.cell.2007.10.056
p245
sg52
VCELL
p246
sg54
V131
p247
sg87
(lp248
(VCHEKANOVA
VJ A
tp249
asg20
I2007
sg50
V1340
p250
sbag1
(g2
g3
NtRp251
(dp252
g56
V10.1093/nar/gkq590
p253
sg52
VNUCLEIC ACIDS RES
p254
sg54
V38
p255
sg87
(lp256
(VCHELLAPPAN
VP
tp257
asg20
I2010
sg50
V6883
p258
sbag1
(g2
g3
NtRp259
(dp260
g56
V10.1038/nature09092
p261
sg52
VNATURE
p262
sg54
V465
p263
sg87
(lp264
(VCHELOUFI
VS
tp265
asg20
I2010
sg50
V584
p266
sbag1
(g2
g3
NtRp267
(dp268
g56
V10.1261/rna.2589011
p269
sg52
VRNA
p270
sg54
V17
p271
sg87
(lp272
(VCHEN
VD J
tp273
asg20
I2011
sg50
V1012
p274
sbag1
(g2
g3
NtRp275
(dp276
g56
V10.1073/pnas.0611119104
p277
sg52
VP NATL ACAD SCI USA
p278
sg54
V104
p279
sg87
(lp280
(VCHEN
VH M
tp281
asg20
I2007
sg50
V3318
p282
sbag1
(g2
g3
NtRp283
(dp284
g56
V10.1073/pnas.1001738107
p285
sg52
VP NATL ACAD SCI USA
p286
sg54
V107
p287
sg87
(lp288
(VCHEN
VH M
tp289
asg20
I2010
sg50
V15269
p290
sbag1
(g2
g3
NtRp291
(dp292
g56
V10.1146/annurev.cellbio.042308.113417
p293
sg52
VANNU REV CELL DEV BI
p294
sg54
V25
p295
sg87
(lp296
(VCHEN
VX M
tp297
asg20
I2009
sg50
V21
p298
sbag1
(g2
g3
NtRp299
(dp300
g56
V10.1126/science.1088060
p301
sg52
VSCIENCE
p302
sg54
V303
p303
sg87
(lp304
(VCHEN
VX M
tp305
asg20
I2004
sg50
V2022
p306
sbag1
(g2
g3
NtRp307
(dp308
g56
V10.1126/science.1190809
p309
sg52
VSCIENCE
p310
sg54
V328
p311
sg87
(lp312
(VCIFUENTES
VD
tp313
asg20
I2010
sg50
V1694
p314
sbag1
(g2
g3
NtRp315
(dp316
g56
V10.1105/tpc.110.082784
p317
sg52
VPLANT CELL
p318
sg54
V23
p319
sg87
(lp320
(VCUPERUS
VJ T
tp321
asg20
I2011
sg50
VLANT
p322
sbag1
(g2
g3
NtRp323
(dp324
g56
V10.1038/nsmb.1866
p325
sg52
VNAT STRUCT MOL BIOL
p326
sg54
V17
p327
sg87
(lp328
(VCUPERUS
VJ T
tp329
asg20
I2010
sg50
V997
p330
sbag1
(g2
g3
NtRp331
(dp332
g56
V10.1128/MCB.23.16.5502.5515.2003
p333
sg52
VMOL CELL BIOL
p334
sg54
V23
p335
sg87
(lp336
(VDAS
VB
tp337
asg20
I2003
sg50
V5502
p338
sbag1
(g2
g3
NtRp339
(dp340
g56
V10.1186/1478-811X-7-18
p341
sg52
VCELL COMMUN SIGNAL
p342
sg54
V7
sg87
(lp343
(VDAVIS
VB N
tp344
asg20
I2009
sg50
Nsbag1
(g2
g3
NtRp345
(dp346
g56
V10.1104/pp.111.172627
p347
sg52
VPLANT PHYSIOL
p348
sg54
V156
p349
sg87
(lp350
(VDEVERS
VE A
tp351
asg20
I2011
sg50
VLANT
p352
sbag1
(g2
g3
NtRp353
(dp354
g56
V10.1016/j.cell.2007.10.032
p355
sg52
VCELL
p356
sg54
V131
p357
sg87
(lp358
(VDIEDERICHS
VS
tp359
asg20
I2007
sg50
V1097
p360
sbag1
(g2
g3
NtRp361
(dp362
g56
V10.1007/s11103-008-9329-1
p363
sg52
VPLANT MOL BIOL
p364
sg54
V67
p365
sg87
(lp366
(VDUGAS
VD V
tp367
asg20
I2008
sg50
VLANT
p368
sbag1
(g2
g3
NtRp369
(dp370
g56
V10.1186/1758-907X-1-15
p371
sg52
VSilence
p372
sg54
V1
sg87
(lp373
(VEARLEY
VK
tp374
asg20
I2010
sg50
V15
p375
sbag1
(g2
g3
NtRp376
(dp377
g56
V10.1093/nar/gkp093
p378
sg52
VNUCLEIC ACIDS RES
p379
sg54
V37
p380
sg87
(lp381
(VEBHARDT
VH A
tp382
asg20
I2009
sg50
V2461
p383
sbag1
(g2
g3
NtRp384
(dp385
g56
V10.1186/1758-907X-1-12
p386
sg52
VSilence
p387
sg54
V1
sg87
(lp388
(VEBHARDT
VH ALEXANDER
tp389
asg20
I2010
sg50
V12
p390
sbag1
(g2
g3
NtRp391
(dp392
g56
V10.1101/gad.541609
p393
sg52
VGENE DEV
p394
sg54
V23
p395
sg87
(lp396
(VFIGUEROA-BOSSI
VN
tp397
asg20
I2009
sg50
V2004
p398
sbag1
(g2
g3
NtRp399
(dp400
g56
V10.1038/ng2079
p401
sg52
VNAT GENET
p402
sg54
V39
p403
sg87
(lp404
(VFRANCO-ZORRILLA
VJ M
tp405
asg20
I2007
sg50
V1033
p406
sbag1
(g2
g3
NtRp407
(dp408
g56
V10.1111/j.1365-313X.2006.02983.x
p409
sg52
VPLANT J
p410
sg54
V49
p411
sg87
(lp412
(VGANDIKOTA
VM
tp413
asg20
I2007
sg50
VLANT
p414
sbag1
(g2
g3
NtRp415
(dp416
g56
V10.1038/nature09191
p417
sg52
VNATURE
p418
sg54
V466
p419
sg87
(lp420
(VGEHRKE
VS
tp421
asg20
I2010
sg50
V637
p422
sbag1
(g2
g3
NtRp423
(dp424
g56
V10.1038/nature04791
p425
sg52
VNATURE
p426
sg54
V441
p427
sg87
(lp428
(VGRIMM
VD
tp429
asg20
I2006
sg50
V537
p430
sbag1
(g2
g3
NtRp431
(dp432
g56
V10.1105/tpc.108.064758
p433
sg52
VPLANT CELL
p434
sg54
V21
p435
sg87
(lp436
(VGUTIERREZ
VL
tp437
asg20
I2009
sg50
VLANT
p438
sbag1
(g2
g3
NtRp439
(dp440
g56
V10.1105/tpc.109.072199
p441
sg52
VPLANT CELL
p442
sg54
V22
p443
sg87
(lp444
(VHAVECKER
VE R
tp445
asg20
I2010
sg50
VLANT
p446
sbag1
(g2
g3
NtRp447
(dp448
g56
V10.1073/pnas.1009805108
p449
sg52
VP NATL ACAD SCI USA
p450
sg54
V108
p451
sg87
(lp452
(VHOFFER
VP
tp453
asg20
I2011
sg50
V409
p454
sbag1
(g2
g3
NtRp455
(dp456
g56
V10.1016/j.cub.2007.06.030
p457
sg52
VCURR BIOL
p458
sg54
V17
p459
sg87
(lp460
(VHORWICH
VM D
tp461
asg20
I2007
sg50
V1265
p462
sbag1
(g2
g3
NtRp463
(dp464
g56
V10.1105/tpc.107.050062
p465
sg52
VPLANT CELL
p466
sg54
V19
p467
sg87
(lp468
(VHOWELL
VM D
tp469
asg20
I2007
sg50
VLANT
p470
sbag1
(g2
g3
NtRp471
(dp472
g56
V10.1104/pp.109.147280
p473
sg52
VPLANT PHYSIOL
p474
sg54
V151
p475
sg87
(lp476
(VHSIEH
VL C
tp477
asg20
I2009
sg50
VLANT
p478
sbag1
(g2
g3
NtRp479
(dp480
g56
V10.1126/science.1073827
p481
sg52
VSCIENCE
p482
sg54
V297
p483
sg87
(lp484
(VHUTVAGNER
VG
tp485
asg20
I2002
sg50
V2056
p486
sbag1
(g2
g3
NtRp487
(dp488
g56
V10.1126/science.1136235
p489
sg52
VSCIENCE
p490
sg54
V315
p491
sg87
(lp492
(VHWANG
VH W
tp493
asg20
I2007
sg50
V97
p494
sbag1
(g2
g3
NtRp495
(dp496
g56
V10.1073/pnas.0912632107
p497
sg52
VP NATL ACAD SCI USA
p498
sg54
V107
p499
sg87
(lp500
(VIBRAHIM
VF
tp501
asg20
I2010
sg50
V3906
p502
sbag1
(g2
g3
NtRp503
(dp504
g56
V10.1186/1471-2164-10-155
p505
sg52
VBMC GENOMICS
p506
sg54
V10
p507
sg87
(lp508
(VIIDA
VK
tp509
asg20
I2009
sg50
Nsbag1
(g2
g3
NtRp510
(dp511
g56
V10.1016/j.molcel.2010.05.014
p512
sg52
VMOL CELL
p513
sg54
V39
p514
sg87
(lp515
(VIKI
VT
tp516
asg20
I2010
sg50
V282
p517
sbag1
(g2
g3
NtRp518
(dp519
g56
V10.1101/gr.089854.108
p520
sg52
VGENOME RES
p521
sg54
V19
p522
sg87
(lp523
(VJOHNSON
VC
tp524
asg20
I2009
sg50
V1429
p525
sbag1
(g2
g3
NtRp526
(dp527
g56
V10.1146/annurev.arplant.57.032905.105218
p528
sg52
VANNU REV PLANT BIOL
p529
sg54
V57
p530
sg87
(lp531
(VJONES-RHOADES
VM W
tp532
asg20
I2006
sg50
V19
p533
sbag1
(g2
g3
NtRp534
(dp535
g56
V10.1038/nature02363
p536
sg52
VNATURE
p537
sg54
V428
p538
sg87
(lp539
(VJUAREZ
VM T
tp540
asg20
I2004
sg50
V84
p541
sbag1
(g2
g3
NtRp542
(dp543
g56
V10.1101/gad.1183804
p544
sg52
VGENE DEV
p545
sg54
V18
p546
sg87
(lp547
(VKADABA
VS
tp548
asg20
I2004
sg50
V1227
p549
sbag1
(g2
g3
NtRp550
(dp551
g56
V10.1261/rna.2305406
p552
sg52
VRNA
p553
sg54
V12
p554
sg87
(lp555
(VKADABA
VS
tp556
asg20
I2006
sg50
V508
p557
sbag1
(g2
g3
NtRp558
(dp559
g56
V10.1038/nsmb.1762
p560
sg52
VNAT STRUCT MOL BIOL
p561
sg54
V17
p562
sg87
(lp563
(VKAI
VZ S
tp564
asg20
I2010
sg50
V5
sbag1
(g2
g3
NtRp565
(dp566
g56
V10.1101/gad.1761509
p567
sg52
VGENE DEV
p568
sg54
V23
p569
sg87
(lp570
(VKATOH
VT
tp571
asg20
I2009
sg50
V433
p572
sbag1
(g2
g3
NtRp573
(dp574
g56
V10.1093/nar/gkn479
p575
sg52
VNUCLEIC ACIDS RES
p576
sg54
V36
p577
sg87
(lp578
(VKAWAHARA
VY
tp579
asg20
I2008
sg50
V5270
p580
sbag1
(g2
g3
NtRp581
(dp582
g56
V10.1038/sj.embor.7401011
p583
sg52
VEMBO REP
p584
sg54
V8
sg87
(lp585
(VKAWAHARA
VY
tp586
asg20
I2007
sg50
V763
p587
sbag1
(g2
g3
NtRp588
(dp589
g56
V10.1126/science.1138050
p590
sg52
VSCIENCE
p591
sg54
V315
p592
sg87
(lp593
(VKAWAHARA
VY
tp594
asg20
I2007
sg50
V1137
p595
sbag1
(g2
g3
NtRp596
(dp597
g56
V10.1093/jxb/erm176
p598
sg52
VJ EXP BOT
p599
sg54
V59
p600
sg87
(lp601
(VKEHR
VJ
tp602
asg20
I2008
sg50
V85
p603
sbag1
(g2
g3
NtRp604
(dp605
g56
V10.1038/nbt.1543
p606
sg52
VNAT BIOTECHNOL
p607
sg54
V27
p608
sg87
(lp609
(VKHAN
VA A
tp610
asg20
I2009
sg50
V549
p611
sbag1
(g2
g3
NtRp612
(dp613
g56
V10.1016/j.cell.2009.12.023
p614
sg52
VCELL
p615
sg54
V140
p616
sg87
(lp617
(VKHRAIWESH
VB
tp618
asg20
I2010
sg50
V111
p619
sbag1
(g2
g3
NtRp620
(dp621
g56
V10.1038/nature02366
p622
sg52
VNATURE
p623
sg54
V428
p624
sg87
(lp625
(VKIDNER
VC A
tp626
asg20
I2004
sg50
V81
p627
sbag1
(g2
g3
NtRp628
(dp629
g56
V10.1038/nrm2632
p630
sg52
VNAT REV MOL CELL BIO
p631
sg54
V10
p632
sg87
(lp633
(VKIM
VV N
tp634
asg20
I2009
sg50
V126
p635
sbag1
(g2
g3
NtRp636
(dp637
g56
V10.1016/j.cell.2008.03.015
p638
sg52
VCELL
p639
sg54
V133
p640
sg87
(lp641
(VKIM
VV N
tp642
asg20
I2008
sg50
V25
p643
sbag1
(g2
g3
NtRp644
(dp645
g56
V10.1038/cr.2009.59
p646
sg52
VCELL RES
p647
sg54
V19
p648
sg87
(lp649
(VKIM
VW
tp650
asg20
I2009
sg50
V899
p651
sbag1
(g2
g3
NtRp652
(dp653
g56
V10.1038/nrg2843
p654
sg52
VNAT REV GENET
p655
sg54
V11
p656
sg87
(lp657
(VKROL
VJ
tp658
asg20
I2010
sg50
V597
p659
sbag1
(g2
g3
NtRp660
(dp661
g56
V10.1073/pnas.0403115101
p662
sg52
VP NATL ACAD SCI USA
p663
sg54
V101
p664
sg87
(lp665
(VKURIHARA
VY
tp666
asg20
I2004
sg50
V12753
p667
sbag1
(g2
g3
NtRp668
(dp669
g56
V10.1261/rna.1455509
p670
sg52
VRNA
p671
sg54
V15
p672
sg87
(lp673
(VKURTH
VH M
tp674
asg20
I2009
sg50
V675
p675
sbag1
(g2
g3
NtRp676
(dp677
g56
V10.1038/sj.emboj.7600385
p678
sg52
VEMBO J
p679
sg54
V23
p680
sg87
(lp681
(VLEE
VY
tp682
asg20
I2004
sg50
V4051
p683
sbag1
(g2
g3
NtRp684
(dp685
g56
V10.1016/j.cub.2005.07.029
p686
sg52
VCURR BIOL
p687
sg54
V15
p688
sg87
(lp689
(VLI
VJ J
tp690
asg20
I2005
sg50
V1501
p691
sbag1
(g2
g3
NtRp692
(dp693
g56
V10.1371/journal.pone.0003592
p694
sg52
VPLOS ONE
p695
sg54
V3
sg87
(lp696
(VLIU
VG
tp697
asg20
I2008
sg50
VLOS
p698
sbag1
(g2
g3
NtRp699
(dp700
g56
V10.1261/rna.895308
p701
sg52
VRNA
p702
sg54
V14
p703
sg87
(lp704
(VLIU
VH H
tp705
asg20
I2008
sg50
V836
p706
sbag1
(g2
g3
NtRp707
(dp708
g56
V10.1105/tpc.105.033456
p709
sg52
VPLANT CELL
p710
sg54
V17
p711
sg87
(lp712
(VLU
VS F
tp713
asg20
I2005
sg50
VLANT
p714
sbag1
(g2
g3
NtRp715
(dp716
g56
V10.1093/nar/gkp031
p717
sg52
VNUCLEIC ACIDS RES
p718
sg54
V37
p719
sg87
(lp720
(VLU
VS F
tp721
asg20
I2009
sg50
V1878
p722
sbag1
(g2
g3
NtRp723
(dp724
g56
V10.1261/rna.7350304
p725
sg52
VRNA
p726
sg54
V10
p727
sg87
(lp728
(VLUCIANO
VD J
tp729
asg20
I2004
sg50
V1174
p730
sbag1
(g2
g3
NtRp731
(dp732
g56
V10.1101/gad.2038811
p733
sg52
VGENE DEV
p734
sg54
V25
p735
sg87
(lp736
(VLUND
VE
tp737
asg20
I2011
sg50
V1121
p738
sbag1
(g2
g3
NtRp739
(dp740
g56
Nsg52
VDEVELOPMENT
p741
sg54
V126
p742
sg87
(lp743
(VLYNN
VK
tp744
asg20
I1999
sg50
V469
p745
sbag1
(g2
g3
NtRp746
(dp747
g56
V10.1016/j.tig.2011.01.001
p748
sg52
VTRENDS GENET
p749
sg54
V27
p750
sg87
(lp751
(VMACQUARRIE
VK L
tp752
asg20
I2011
sg50
V141
p753
sbag1
(g2
g3
NtRp754
(dp755
g56
V10.1105/tpc.110.080671
p756
sg52
VPLANT CELL
p757
sg54
V22
p758
sg87
(lp759
(VMALLORY
VA
tp760
asg20
I2010
sg50
VLANT
p761
sbag1
(g2
g3
NtRp762
(dp763
g56
V10.1371/journal.pgen.1000646
p764
sg52
VPLOS GENET
p765
sg54
V5
sg87
(lp766
(VMALLORY
VA C
tp767
asg20
I2009
sg50
VLOS
p768
sbag1
(g2
g3
NtRp769
(dp770
g56
V10.1038/sj.emboj.7600340
p771
sg52
VEMBO J
p772
sg54
V23
p773
sg87
(lp774
(VMALLORY
VA C
tp775
asg20
I2004
sg50
V3356
p776
sbag1
(g2
g3
NtRp777
(dp778
g56
V10.1105/tpc.105.031716
p779
sg52
VPLANT CELL
p780
sg54
V17
p781
sg87
(lp782
(VMALLORY
VA C
tp783
asg20
I2005
sg50
VLANT
p784
sbag1
(g2
g3
NtRp785
(dp786
g56
V10.1038/embor.2009.32
p787
sg52
VEMBO REP
p788
sg54
V10
p789
sg87
(lp790
(VMALLORY
VA C
tp791
asg20
I2009
sg50
V521
p792
sbag1
(g2
g3
NtRp793
(dp794
g56
V10.1105/tpc.109.072553
p795
sg52
VPLANT CELL
p796
sg54
V22
p797
sg87
(lp798
(VMARIN
VE
tp799
asg20
I2010
sg50
VLANT
p800
sbag1
(g2
g3
NtRp801
(dp802
g56
V10.1261/rna.130506
p803
sg52
VRNA
p804
sg54
V12
p805
sg87
(lp806
(VMEGRAW
VM
tp807
asg20
I2006
sg50
V1612
p808
sbag1
(g2
g3
NtRp809
(dp810
g56
Nsg52
VRNA BIOL
p811
sg54
V8
sg87
(lp812
(VMENG
VY
tp813
asg20
I2011
sg50
V1
sbag1
(g2
g3
NtRp814
(dp815
g56
V10.1093/jxb/erq209
p816
sg52
VJ EXP BOT
p817
sg54
V61
p818
sg87
(lp819
(VMENG
VY J
tp820
asg20
I2010
sg50
V3833
p821
sbag1
(g2
g3
NtRp822
(dp823
g56
V10.1007/s00425-009-0994-3
p824
sg52
VPLANTA
p825
sg54
V230
p826
sg87
(lp827
(VMENG
VY J
tp828
asg20
I2009
sg50
VLANTA
p829
sbag1
(g2
g3
NtRp830
(dp831
g56
V10.1186/1471-2164-11-S4-S12
p832
sg52
VBMC GENOMICS
p833
sg54
V11
p834
sg87
(lp835
(VMENG
VY J
tp836
asg20
I2010
sg50
Nsbag1
(g2
g3
NtRp837
(dp838
g56
V10.1016/j.cell.2008.02.034
p839
sg52
VCELL
p840
sg54
V133
p841
sg87
(lp842
(VMI
VS J
tp843
asg20
I2008
sg50
V116
p844
sbag1
(g2
g3
NtRp845
(dp846
g56
V10.1016/S0092-8674(00)80432-8
p847
sg52
VCELL
p848
sg54
V91
p849
sg87
(lp850
(VMITCHELL
VP
tp851
asg20
I1997
sg50
V457
p852
sbag1
(g2
g3
NtRp853
(dp854
g56
V10.1016/j.cell.2008.02.033
p855
sg52
VCELL
p856
sg54
V133
p857
sg87
(lp858
(VMONTGOMERY
VT A
tp859
asg20
I2008
sg50
V128
p860
sbag1
(g2
g3
NtRp861
(dp862
g56
V10.1073/pnas.1105401108
p863
sg52
VP NATL ACAD SCI USA
p864
sg54
V108
p865
sg87
(lp866
(VMORTENSEN
VR D
tp867
asg20
I2011
sg50
V8281
p868
sbag1
(g2
g3
NtRp869
(dp870
g56
V10.1093/emboj/17.6.1799
p871
sg52
VEMBO J
p872
sg54
V17
p873
sg87
(lp874
(VMOUSSIAN
VB
tp875
asg20
I1998
sg50
V1799
p876
sbag1
(g2
g3
NtRp877
(dp878
g56
V10.1038/nrg2977
p879
sg52
VNat Rev Genet
p880
sg54
V12
p881
sg87
(lp882
(VMUERS
VMARY
tp883
asg20
I2011
sg50
V227
p884
sbag1
(g2
g3
NtRp885
(dp886
g56
V10.1101/gad.1565607
p887
sg52
VGENE DEV
p888
sg54
V21
p889
sg87
(lp890
(VO'CARROLL
VD
tp891
asg20
I2007
sg50
V1999
p892
sbag1
(g2
g3
NtRp893
(dp894
g56
V10.1111/j.1469-8137.2008.02448.x
p895
sg52
VNEW PHYTOL
p896
sg54
V179
p897
sg87
(lp898
(VOH
VT J
tp899
asg20
I2008
sg50
V67
p900
sbag1
(g2
g3
NtRp901
(dp902
g56
V10.1038/nsmb.1409
p903
sg52
VNAT STRUCT MOL BIOL
p904
sg54
V15
p905
sg87
(lp906
(VOKAMURA
VK
tp907
asg20
I2008
sg50
V354
p908
sbag1
(g2
g3
NtRp909
(dp910
g56
V10.1111/j.1365-2958.2009.06807.x
p911
sg52
VMOL MICROBIOL
p912
sg54
V73
p913
sg87
(lp914
(VOVERGAARD
VM
tp915
asg20
I2009
sg50
V790
p916
sbag1
(g2
g3
NtRp917
(dp918
g56
V10.1523/JNEUROSCI.2390-08.2008
p919
sg52
VJ NEUROSCI
p920
sg54
V28
p921
sg87
(lp922
(VPACKER
VA N
tp923
asg20
I2008
sg50
V14341
p924
sbag1
(g2
g3
NtRp925
(dp926
g56
V10.1111/j.1365-313X.2007.03363.x
p927
sg52
VPLANT J
p928
sg54
V53
p929
sg87
(lp930
(VPANT
VB D
tp931
asg20
I2008
sg50
VLANT
p932
sbag1
(g2
g3
NtRp933
(dp934
g56
V10.1104/pp.103.021980
p935
sg52
VPLANT PHYSIOL
p936
sg54
V132
p937
sg87
(lp938
(VPAPP
VI
tp939
asg20
I2003
sg50
VLANT
p940
sbag1
(g2
g3
NtRp941
(dp942
g56
V10.1101/gad.1231804
p943
sg52
VGENE DEV
p944
sg54
V18
p945
sg87
(lp946
(VPERAGINE
VA
tp947
asg20
I2004
sg50
V2368
p948
sbag1
(g2
g3
NtRp949
(dp950
g56
V10.1261/rna.1470409
p951
sg52
VRNA
p952
sg54
V15
p953
sg87
(lp954
(VPOLITZ
VJ C R
tp955
asg20
I2009
sg50
V1705
p956
sbag1
(g2
g3
NtRp957
(dp958
g56
V10.1073/pnas.0609466103
p959
sg52
VP NATL ACAD SCI USA
p960
sg54
V103
p961
sg87
(lp962
(VPOLITZ
VJ C R
tp963
asg20
I2006
sg50
V18957
p964
sbag1
(g2
g3
NtRp965
(dp966
g56
V10.1105/tpc.104.026161
p967
sg52
VPLANT CELL
p968
sg54
V17
p969
sg87
(lp970
(VPRIGGE
VM J
tp971
asg20
I2005
sg50
VLANT
p972
sbag1
(g2
g3
NtRp973
(dp974
g56
V10.1101/gad.1476406
p975
sg52
VGENE DEV
p976
sg54
V20
p977
sg87
(lp978
(VRAJAGOPALAN
VR
tp979
asg20
I2006
sg50
V3407
p980
sbag1
(g2
g3
NtRp981
(dp982
g56
V10.1126/science.1163728
p983
sg52
VSCIENCE
p984
sg54
V321
p985
sg87
(lp986
(VRAMACHANDRAN
VV
tp987
asg20
I2008
sg50
V1490
p988
sbag1
(g2
g3
NtRp989
(dp990
g56
V10.1101/gad.1004402
p991
sg52
VGENE DEV
p992
sg54
V16
p993
sg87
(lp994
(VREINHART
VB J
tp995
asg20
I2002
sg50
V1616
p996
sbag1
(g2
g3
NtRp997
(dp998
g56
V10.1016/j.tplants.2011.03.002
p999
sg52
VTRENDS PLANT SCI
p1000
sg54
V16
p1001
sg87
(lp1002
(VRODRIGUEZ-ENRIQUEZ
VJ
tp1003
asg20
I2011
sg50
V242
p1004
sbag1
(g2
g3
NtRp1005
(dp1006
g56
V10.1016/j.pbi.2009.07.003
p1007
sg52
VCURR OPIN PLANT BIOL
p1008
sg54
V12
p1009
sg87
(lp1010
(VRUBIO-SOMOZA
VI
tp1011
asg20
I2009
sg50
V622
p1012
sbag1
(g2
g3
NtRp1013
(dp1014
g56
V10.1101/gad.1563607
p1015
sg52
VGENE DEV
p1016
sg54
V21
p1017
sg87
(lp1018
(VSAITO
VK
tp1019
asg20
I2007
sg50
V1603
p1020
sbag1
(g2
g3
NtRp1021
(dp1022
g56
V10.1016/j.tplants.2008.10.001
p1023
sg52
VTRENDS PLANT SCI
p1024
sg54
V13
p1025
sg87
(lp1026
(VSCHMITZ-LINNEWEBER
VC
tp1027
asg20
I2008
sg50
V663
p1028
sbag1
(g2
g3
NtRp1029
(dp1030
g56
V10.1016/j.tig.2010.08.007
p1031
sg52
VTRENDS GENET
p1032
sg54
V26
p1033
sg87
(lp1034
(VSENTI
VK A
tp1035
asg20
I2010
sg50
V499
p1036
sbag1
(g2
g3
NtRp1037
(dp1038
g56
V10.1007/s00018-005-5449-9
p1039
sg52
VCELL MOL LIFE SCI
p1040
sg54
V63
p1041
sg87
(lp1042
(VSHIKANAI
VT
tp1043
asg20
I2006
sg50
V698
p1044
sbag1
(g2
g3
NtRp1045
(dp1046
g56
V10.1104/pp.111.180083
p1047
sg52
VPLANT PHYSIOL
p1048
sg54
V157
p1049
sg87
(lp1050
(VSI-AMMOUR
VA
tp1051
asg20
I2011
sg50
VLANT
p1052
sbag1
(g2
g3
NtRp1053
(dp1054
g56
V10.1104/pp.109.144345
p1055
sg52
VPLANT PHYSIOL
p1056
sg54
V151
p1057
sg87
(lp1058
(VSIMON
VS A
tp1059
asg20
I2009
sg50
VLANT
p1060
sbag1
(g2
g3
NtRp1061
(dp1062
g56
V10.1073/pnas.0812729106
p1063
sg52
VP NATL ACAD SCI USA
p1064
sg54
V106
p1065
sg87
(lp1066
(VSMITH
VM R
tp1067
asg20
I2009
sg50
V5424
p1068
sbag1
(g2
g3
NtRp1069
(dp1070
g56
V10.1016/j.bbrc.2008.03.041
p1071
sg52
VBIOCHEM BIOPH RES CO
p1072
sg54
V370
p1073
sg87
(lp1074
(VSTEWART
VC K
tp1075
asg20
I2008
sg50
V113
p1076
sbag1
(g2
g3
NtRp1077
(dp1078
g56
V10.1105/tpc.104.022830
p1079
sg52
VPLANT CELL
p1080
sg54
V16
p1081
sg87
(lp1082
(VSUNKAR
VR
tp1083
asg20
I2004
sg50
VLANT
p1084
sbag1
(g2
g3
NtRp1085
(dp1086
g56
V10.1101/gad.144406
p1087
sg52
VGENE DEV
p1088
sg54
V20
p1089
sg87
(lp1090
(VTHOMSON
VJ M
tp1091
asg20
I2006
sg50
V2202
p1092
sbag1
(g2
g3
NtRp1093
(dp1094
g56
V10.1371/journal.pgen.1001031
p1095
sg52
VPLOS GENET
p1096
sg54
V6
sg87
(lp1097
(VTODESCO
VM
tp1098
asg20
I2010
sg50
VLOS
p1099
sbag1
(g2
g3
NtRp1100
(dp1101
g56
V10.1016/S1097-2765(02)00544-0
p1102
sg52
VMOL CELL
p1103
sg54
V9
sg87
(lp1104
(VTORCHET
VC
tp1105
asg20
I2002
sg50
V1285
p1106
sbag1
(g2
g3
NtRp1107
(dp1108
g56
V10.1038/emboj.2010.208
p1109
sg52
VEMBO J
p1110
sg54
V29
p1111
sg87
(lp1112
(VTRUJILLO
VR D
tp1113
asg20
I2010
sg50
V3272
p1114
sbag1
(g2
g3
NtRp1115
(dp1116
g56
V10.1126/science.1129333
p1117
sg52
VSCIENCE
p1118
sg54
V313
p1119
sg87
(lp1120
(VVAGIN
VV V
tp1121
asg20
I2006
sg50
V320
p1122
sbag1
(g2
g3
NtRp1123
(dp1124
g56
V10.1016/j.tplants.2008.04.007
p1125
sg52
VTRENDS PLANT SCI
p1126
sg54
V13
p1127
sg87
(lp1128
(VVAUCHERET
VH
tp1129
asg20
I2008
sg50
V350
p1130
sbag1
(g2
g3
NtRp1131
(dp1132
g56
V10.1016/j.molcel.2006.03.011
p1133
sg52
VMOL CELL
p1134
sg54
V22
p1135
sg87
(lp1136
(VVAUCHERET
VH
tp1137
asg20
I2006
sg50
V129
p1138
sbag1
(g2
g3
NtRp1139
(dp1140
g56
V10.1371/journal.pone.0006442
p1141
sg52
VPLOS ONE
p1142
sg54
V4
sg87
(lp1143
(VVAUCHERET
VH
tp1144
asg20
I2009
sg50
VLOS
p1145
sbag1
(g2
g3
NtRp1146
(dp1147
g56
V10.1101/gad.1201404
p1148
sg52
VGENE DEV
p1149
sg54
V18
p1150
sg87
(lp1151
(VVAUCHERET
VH
tp1152
asg20
I2004
sg50
V1187
p1153
sbag1
(g2
g3
NtRp1154
(dp1155
g56
V10.1016/j.molcel.2004.09.028
p1156
sg52
VMOL CELL
p1157
sg54
V16
p1158
sg87
(lp1159
(VVAZQUEZ
VF
tp1160
asg20
I2004
sg50
V69
p1161
sbag1
(g2
g3
NtRp1162
(dp1163
g56
V10.1093/nar/gkn670
p1164
sg52
VNUCLEIC ACIDS RES
p1165
sg54
V36
p1166
sg87
(lp1167
(VVAZQUEZ
VF
tp1168
asg20
I2008
sg50
V6429
p1169
sbag1
(g2
g3
NtRp1170
(dp1171
g56
V10.1016/j.tplants.2010.04.001
p1172
sg52
VTRENDS PLANT SCI
p1173
sg54
V15
p1174
sg87
(lp1175
(VVAZQUEZ
VF
tp1176
asg20
I2010
sg50
V337
p1177
sbag1
(g2
g3
NtRp1178
(dp1179
g56
V10.1016/j.cell.2009.01.046
p1180
sg52
VCELL
p1181
sg54
V136
p1182
sg87
(lp1183
(VVOINNET
VO
tp1184
asg20
I2009
sg50
V669
p1185
sbag1
(g2
g3
NtRp1186
(dp1187
g56
V10.1105/tpc.105.033076
p1188
sg52
VPLANT CELL
p1189
sg54
V17
p1190
sg87
(lp1191
(VWANG
VJ W
tp1192
asg20
I2005
sg50
VLANT
p1193
sbag1
(g2
g3
NtRp1194
(dp1195
g56
V10.1038/ncb0309-228
p1196
sg52
VNAT CELL BIOL
p1197
sg54
V11
p1198
sg87
(lp1199
(VWINTER
VJ
tp1200
asg20
I2009
sg50
V228
p1201
sbag1
(g2
g3
NtRp1202
(dp1203
g56
V10.1093/jxb/erq437
p1204
sg52
VJ EXP BOT
p1205
sg54
V62
p1206
sg87
(lp1207
(VWONG
VC E
tp1208
asg20
I2011
sg50
V2495
p1209
sbag1
(g2
g3
NtRp1210
(dp1211
g56
V10.1016/j.cell.2009.06.031
p1212
sg52
VCELL
p1213
sg54
V138
p1214
sg87
(lp1215
(VWU
VG
tp1216
asg20
I2009
sg50
V750
p1217
sbag1
(g2
g3
NtRp1218
(dp1219
g56
V10.1016/j.molcel.2010.03.008
p1220
sg52
VMOL CELL
p1221
sg54
V38
p1222
sg87
(lp1223
(VWU
VL
tp1224
asg20
I2010
sg50
V465
p1225
sbag1
(g2
g3
NtRp1226
(dp1227
g56
V10.1242/dev.02602
p1228
sg52
VDEVELOPMENT
p1229
sg54
V133
p1230
sg87
(lp1231
(VWU
VM F
tp1232
asg20
I2006
sg50
V4211
p1233
sbag1
(g2
g3
NtRp1234
(dp1235
g56
V10.1016/S0960-9822(03)00281-1
p1236
sg52
VCURR BIOL
p1237
sg54
V13
p1238
sg87
(lp1239
(VXIE
VZ X
tp1240
asg20
I2003
sg50
V784
p1241
sbag1
(g2
g3
NtRp1242
(dp1243
g56
V10.1104/pp.105.062943
p1244
sg52
VPLANT PHYSIOL
p1245
sg54
V138
p1246
sg87
(lp1247
(VXIE
VZ X
tp1248
asg20
I2005
sg50
VLANT
p1249
sbag1
(g2
g3
NtRp1250
(dp1251
g56
V10.1093/nar/gkl118
p1252
sg52
VNUCLEIC ACIDS RES
p1253
sg54
V34
p1254
sg87
(lp1255
(VYANG
VJ H
tp1256
asg20
I2006
sg50
V1892
p1257
sbag1
(g2
g3
NtRp1258
(dp1259
g56
V10.1261/rna.2537911
p1260
sg52
VRNA
p1261
sg54
V17
p1262
sg87
(lp1263
(VYANG
VJ S
tp1264
asg20
I2011
sg50
V312
p1265
sbag1
(g2
g3
NtRp1266
(dp1267
g56
V10.1038/nsmb1041
p1268
sg52
VNAT STRUCT MOL BIOL
p1269
sg54
V13
p1270
sg87
(lp1271
(VYANG
VW D
tp1272
asg20
I2006
sg50
V13
p1273
sbag1
(g2
g3
NtRp1274
(dp1275
g56
V10.1093/nar/gkj474
p1276
sg52
VNUCLEIC ACIDS RES
p1277
sg54
V34
p1278
sg87
(lp1279
(VYANG
VZ Y
tp1280
asg20
I2006
sg50
V667
p1281
sbag1
(g2
g3
NtRp1282
(dp1283
g56
V10.1186/gb-2007-8-6-r96
p1284
sg52
VGENOME BIOL
p1285
sg54
V8
sg87
(lp1286
(VYAO
VY Y
tp1287
asg20
I2007
sg50
Nsbag1
(g2
g3
NtRp1288
(dp1289
g56
V10.1105/tpc.104.023614
p1290
sg52
VPLANT CELL
p1291
sg54
V16
p1292
sg87
(lp1293
(VYOO
VB C
tp1294
asg20
I2004
sg50
VLANT
p1295
sbag1
(g2
g3
NtRp1296
(dp1297
g56
V10.1101/gad.1352605
p1298
sg52
VGENE DEV
p1299
sg54
V19
p1300
sg87
(lp1301
(VYOSHIKAWA
VM
tp1302
asg20
I2005
sg50
V2164
p1303
sbag1
(g2
g3
NtRp1304
(dp1305
g56
V10.1093/nar/gkq348
p1306
sg52
VNUCLEIC ACIDS RES
p1307
sg54
V38
p1308
sg87
(lp1309
(VYU
VB
tp1310
asg20
I2010
sg50
V5844
p1311
sbag1
(g2
g3
NtRp1312
(dp1313
g56
V10.1126/science.1107130
p1314
sg52
VSCIENCE
p1315
sg54
V307
p1316
sg87
(lp1317
(VYU
VB
tp1318
asg20
I2005
sg50
V932
p1319
sbag1
(g2
g3
NtRp1320
(dp1321
g56
V10.1016/j.molcel.2011.04.010
p1322
sg52
VMOL CELL
p1323
sg54
V42
p1324
sg87
(lp1325
(VZHANG
VX M
tp1326
asg20
I2011
sg50
V356
p1327
sbag1
(g2
g3
NtRp1328
(dp1329
g56
V10.1371/journal.pcbi.0030037
p1330
sg52
VPLOS COMPUT BIOL
p1331
sg54
V3
sg87
(lp1332
(VZHOU
VX F
tp1333
asg20
I2007
sg50
VLOS
p1334
sbag1
(g2
g3
NtRp1335
(dp1336
g56
V10.1016/j.cell.2011.03.024
p1337
sg52
VCELL
p1338
sg54
V145
p1339
sg87
(lp1340
(VZHU
VH L
tp1341
asg20
I2011
sg50
V242
p1342
sbasb.