ccopy_reg
_reconstructor
p1
(ctethne.classes.paper
Paper
p2
c__builtin__
object
p3
NtRp4
(dp5
S'publisherCity'
p6
VROCKVILLE
p7
sS'reprintAddress'
p8
VVivanco, JM (reprint author), Colorado State Univ, Dept Hort & Landscape Architecture, Ft Collins, CO 80523 USA.
p9
sS'WC'
p10
VPlant Sciences
p11
sS'GA'
p12
V767EL
p13
sS'abstract'
p14
VRelatively little is known about the exact mechanisms used by Bacillus subtilis in its behavior as a biocontrol agent on plants. Here, we report the development of a sensitive plant infection model demonstrating that the bacterial pathogen Pseudomonas syringae pv tomato DC3000 is capable of infecting Arabidopsis roots both in vitro and in soil. Using this infection model, we demonstrated the biocontrol ability of a wild-type B. subtilis strain 6051 against P. syringae. Arabidopsis root surfaces treated with B. subtilis were analyzed with confocal scanning laser microscopy to reveal a three-dimensional B. subtilis biofilm. It is known that formation of biofilms by B. subtilis is a complex process that includes secretion of surfactin, a lipopeptide antimicrobial agent. To determine the role of surfactin in biocontrol by B. subtilis, we tested a mutant strain, M, with a deletion in a surfactin synthase gene and, thus, deficient in surfactin production. B. subtilis M1 was ineffective as a biocontrol agent against P. syringae infectivity in Arabidopsis and also failed to form robust biofilms on either roots or inert surfaces. The antibacterial activity of surfactin against P. syringae was determined in both broth and agar cultures and also by live-dead staining methods. Although the minimum inhibitory concentrations determined were relatively high (25 mug mL(-1)), the levels of the lipopeptide in roots colonized by B. subtilis are likely to be sufficient to kill P. syringae. Our results collectively indicate that upon root colonization, B. subtilis 6051 forms a stable, extensive biofilm and secretes surfactin, which act together to protect plants against attack by pathogenic bacteria.
p15
sS'pageEnd'
p16
I319
sS'date'
p17
I2004
sS'documentType'
p18
VArticle
p19
sS'subject'
p20
VPlant Sciences
p21
sS'isoSource'
p22
VPlant Physiol.
p23
sS'timesCited'
p24
(lp25
I163
aVZ9 182
p26
asS'PT'
p27
VJ
sS'title'
p28
VBiocontrol Of Bacillus Subtilis Against Infection Of Arabidopsis Roots By Pseudomonas Syringae Is Facilitated By Biofilm Formation And Surfactin Production
p29
sS'ISSN'
p30
(lp31
V0032-0889
p32
aVJ9 PLANT PHYSIOL
p33
asS'authors_full'
p34
(lp35
(VBAIS
VHP
tp36
a(VFALL
VR
tp37
a(VVIVANCO
VJM
tp38
asS'PG'
p39
I13
sS'PD'
p40
VJAN
p41
sS'pageStart'
p42
I307
sS'issue'
p43
I1
sS'RI'
p44
VRechsteiner, Cynthia/C-5894-2011
p45
sS'journal'
p46
VPLANT PHYSIOLOGY
p47
sS'volume'
p48
V134
p49
sS'doi'
p50
V10.1104/pp.103.028712
p51
sS'emailAddress'
p52
Vjvivanco@lamar.colostate.edu
p53
sS'authorAddress'
p54
(lp55
VColorado State Univ, Dept Hort & Landscape Architecture, Ft Collins, CO 80523 USA.
p56
aVColorado State Univ, Cell & Mol Biol Program, Ft Collins, CO 80523 USA.
p57
aVUniv Colorado, Dept Chem & Biochem, Boulder, CO 80309 USA.
p58
aVUniv Colorado, Cooperat Inst Res Environm Sci, Boulder, CO 80309 USA.
p59
asS'publisherAddress'
p60
V15501 MONONA DRIVE, ROCKVILLE, MD 20855 USA
p61
sS'ER'
p62
V
sS'publisher'
p63
VAMER SOC PLANT BIOLOGISTS
p64
sS'authorKeywords'
p65
(lp66
VMICROBIAL BIOFILMS
p67
aVBIOLOGICAL-CONTROL
p68
aVWHEAT ROOTS
p69
aVBACTERIA
p70
aVRHIZOSPHERE
p71
aVTHALIANA
p72
aVDISEASE
p73
aVSTRAIN
p74
aVGROWTH
p75
aVSOIL
p76
asS'language'
p77
VEnglish
p78
sS'wosid'
p79
VWOS:000188427200032
p80
sS'citationCount'
p81
I52
sS'authors_init'
p82
(lp83
(VBAIS
VH P
tp84
a(VFALL
VR
tp85
a(VVIVANCO
VJ M
tp86
asS'citedReferences'
p87
(lp88
g1
(g2
g3
NtRp89
(dp90
g50
Nsg46
VAPPL ENVIRON MICROB
p91
sg48
V64
p92
sg82
(lp93
(VAMELLAL
VN
tp94
asg17
I1998
sg42
V3740
p95
sbag1
(g2
g3
NtRp96
(dp97
g50
Nsg46
VJ BACTERIOL
p98
sg48
V81
p99
sg82
(lp100
(VANAGNOSTOPOULOS
VC
tp101
asg17
I1961
sg42
V741
p102
sbag1
(g2
g3
NtRp103
(dp104
g50
Nsg46
VAPPL ENVIRON MICROB
p105
sg48
V62
p106
sg82
(lp107
(VASAKA
VO
tp108
asg17
I1996
sg42
V4081
p109
sbag1
(g2
g3
NtRp110
(dp111
g50
V10.1128/AEM.68.6.2637-2643.2002
p112
sg46
VAPPL ENVIRON MICROB
p113
sg48
V68
p114
sg82
(lp115
(VBASHAN
VY
tp116
asg17
I2002
sg42
V2637
p117
sbag1
(g2
g3
NtRp118
(dp119
g50
V10.1094/MPMI.2001.14.2.255
p120
sg46
VMOL PLANT MICROBE IN
p121
sg48
V14
p122
sg82
(lp123
(VBIANCIOTTO
VV
tp124
asg17
I2001
sg42
V255
p125
sbag1
(g2
g3
NtRp126
(dp127
g50
V10.1073/pnas.191384198
p128
sg46
VP NATL ACAD SCI USA
p129
sg48
V98
p130
sg82
(lp131
(VBRANDA
VS S
tp132
asg17
I2001
sg42
V11621
p133
sbag1
(g2
g3
NtRp134
(dp135
g50
Nsg46
VB SUBTILIS BIOCONTRO
p136
sg48
Nsg82
(lp137
(VCHANWAY
VC P
tp138
asg17
I2002
sg42
V219
p139
sbag1
(g2
g3
NtRp140
(dp141
g50
V10.3109/10408419509113531
p142
sg46
VCRIT REV MICROBIOL
p143
sg48
V21
p144
sg82
(lp145
(VCOSTACURTA
VA
tp146
asg17
I1995
sg42
V1
sbag1
(g2
g3
NtRp147
(dp148
g50
V10.1146/annurev.mi.49.100195.003431
p149
sg46
VANNU REV MICROBIOL
p150
sg48
V49
p151
sg82
(lp152
(VCOSTERTON
VJ W
tp153
asg17
I1995
sg42
V711
p154
sbag1
(g2
g3
NtRp155
(dp156
g50
V10.1128/MMBR.64.4.847-867.2000
p157
sg46
VMICROBIOL MOL BIOL R
p158
sg48
V64
p159
sg82
(lp160
(VDAVEY
VM E
tp161
asg17
I2000
sg42
V847
p162
sbag1
(g2
g3
NtRp163
(dp164
g50
V10.1128/JB.185.3.1027-1036.2003
p165
sg46
VJ BACTERIOL
p166
sg48
V185
p167
sg82
(lp168
(VDAVEY
VM E
tp169
asg17
I2003
sg42
V1027
p170
sbag1
(g2
g3
NtRp171
(dp172
g50
V10.1094/MPMI-4-477
p173
sg46
VMOL PLANT MICROBE IN
p174
sg48
V4
sg82
(lp175
(VDAVIS
VK R
tp176
asg17
I1991
sg42
V477
p177
sbag1
(g2
g3
NtRp178
(dp179
g50
V10.1017/CBO9780511661730.014
p180
sg46
VBENEFITS RISKS INTRO
p181
sg48
Nsg82
(lp182
(VDEFAGO
VG
tp183
asg17
I1995
sg42
V137
p184
sbag1
(g2
g3
NtRp185
(dp186
g50
Nsg46
VFEMS MICROBIOL LETT
p187
sg48
V171
p188
sg82
(lp189
(VEMMERT
VE A B
tp190
asg17
I1999
sg42
V1
sbag1
(g2
g3
NtRp191
(dp192
g50
Nsg46
VIN PRESS APPL ENV MI
p193
sg48
Nsg82
(lp194
(VFALL
VR
tp195
asg17
I2003
sg42
Nsbag1
(g2
g3
NtRp196
(dp197
g50
V10.1111/j.1574-6941.1998.tb01560.x
p198
sg46
VFEMS MICROBIOL ECOL
p199
sg48
V26
p200
sg82
(lp201
(VGERMIDA
VJ J
tp202
asg17
I1998
sg42
V43
p203
sbag1
(g2
g3
NtRp204
(dp205
g50
Nsg46
VMOL MICROBIOL
p206
sg48
V42
p207
sg82
(lp208
(VHAMON
VM A
tp209
asg17
I2001
sg42
V1119
p210
sbag1
(g2
g3
NtRp211
(dp212
g50
Nsg46
VBACTERIOL REV
p213
sg48
V39
p214
sg82
(lp215
(VHEMPHILL
VH E
tp216
asg17
I1975
sg42
V257
p217
sbag1
(g2
g3
NtRp218
(dp219
g50
V10.1126/science.1070784
p220
sg46
VSCIENCE
p221
sg48
V296
p222
sg82
(lp223
(VHOGAN
VD A
tp224
asg17
I2002
sg42
V2229
p225
sbag1
(g2
g3
NtRp226
(dp227
g50
V10.1146/annurev.en.36.010191.002413
p228
sg46
VANNU REV ENTOMOL
p229
sg48
V36
p230
sg82
(lp231
(VHOWARTH
VF G
tp232
asg17
I1991
sg42
V485
p233
sbag1
(g2
g3
NtRp234
(dp235
g50
V10.1094/MPMI.2002.15.12.1195
p236
sg46
VMOL PLANT MICROBE IN
p237
sg48
V15
p238
sg82
(lp239
(VJAKOB
VK
tp240
asg17
I2002
sg42
V1195
p241
sbag1
(g2
g3
NtRp242
(dp243
g50
V10.1128/JB.185.18.5627-5631.2003
p244
sg46
VJ BACTERIOL
p245
sg48
V185
p246
sg82
(lp247
(VKINSINGER
VR F
tp248
asg17
I2003
sg42
V5627
p249
sbag1
(g2
g3
NtRp250
(dp251
g50
Nsg46
VRHIZOSPHERE PLANT GR
p252
sg48
Nsg82
(lp253
(VKLOEPPER
VJ W
tp254
asg17
I1991
sg42
V315
p255
sbag1
(g2
g3
NtRp256
(dp257
g50
V10.1038/36786
p258
sg46
VNATURE
p259
sg48
V390
p260
sg82
(lp261
(VKUNST
VF
tp262
asg17
I1997
sg42
V249
p263
sbag1
(g2
g3
NtRp264
(dp265
g50
V10.1111/j.1574-6941.1996.tb00350.x
p266
sg46
VFEMS MICROBIOL ECOL
p267
sg48
V21
p268
sg82
(lp269
(VLILLEY
VA K
tp270
asg17
I1996
sg42
V231
p271
sbag1
(g2
g3
NtRp272
(dp273
g50
Nsg46
VENVIRON MICROBIOL
p274
sg48
V1
sg82
(lp275
(VLUTENBERG
VB J J
tp276
asg17
I1999
sg42
V9
sbag1
(g2
g3
NtRp277
(dp278
g50
Nsg46
VCURR OPIN MICRBIOL
p279
sg48
V2
sg82
(lp280
(VLUTENBERG
VB J J
tp281
asg17
I1991
sg42
V457
p282
sbag1
(g2
g3
NtRp283
(dp284
g50
Nsg46
VJ GEN MICROBIOL
p285
sg48
V137
p286
sg82
(lp287
(VMICHIELS
VK W
tp288
asg17
I1991
sg42
V2241
p289
sbag1
(g2
g3
NtRp290
(dp291
g50
V10.1128/JB.183.20.5848-5854.2001
p292
sg46
VJ BACTERIOL
p293
sg48
V183
p294
sg82
(lp295
(VMIRELES
VJ R
tp296
asg17
I2001
sg42
V5848
p297
sbag1
(g2
g3
NtRp298
(dp299
g50
Nsg46
VMICROBIOL REV
p300
sg48
V60
p301
sg82
(lp302
(VNEU
VT R
tp303
asg17
I1996
sg42
V151
p304
sbag1
(g2
g3
NtRp305
(dp306
g50
Nsg46
VPLANT DIS
p307
sg48
V79
p308
sg82
(lp309
(VOSBURN
VR M
tp310
asg17
I1995
sg42
VLANT
p311
sbag1
(g2
g3
NtRp312
(dp313
g50
Nsg46
VMETHOD ENZYMOL
p314
sg48
V310
p315
sg82
(lp316
(VO'TOOLE
VG A
tp317
asg17
I1999
sg42
V91
p318
sbag1
(g2
g3
NtRp319
(dp320
g50
V10.1046/j.1365-2958.1998.01062.x
p321
sg46
VMOL MICROBIOL
p322
sg48
V30
p323
sg82
(lp324
(VO'TOOLE
VG A
tp325
asg17
I1998
sg42
V295
p326
sbag1
(g2
g3
NtRp327
(dp328
g50
Nsg46
VMICROBIOL RES
p329
sg48
V152
p330
sg82
(lp331
(VPANDEY
VA
tp332
asg17
I1997
sg42
V359
p333
sbag1
(g2
g3
NtRp334
(dp335
g50
V10.1104/pp.000794
p336
sg46
VPLANT PHYSIOL
p337
sg48
V130
p338
sg82
(lp339
(VPARK
VS W
tp340
asg17
I2002
sg42
VLANT
p341
sbag1
(g2
g3
NtRp342
(dp343
g50
Nsg46
VP615
p344
sg48
Nsg82
(lp345
(VPEREGO
VMARTA
tp346
asg17
I1993
sg42
V615
p347
sbag1
(g2
g3
NtRp348
(dp349
g50
V10.1007/s002530051432
p350
sg46
VAPPL MICROBIOL BIOT
p351
sg48
V51
p352
sg82
(lp353
(VPEYPOUX
VF
tp354
asg17
I1999
sg42
V553
p355
sbag1
(g2
g3
NtRp356
(dp357
g50
Nsg46
VRHIZOSPHERE BIOCH OR
p358
sg48
Nsg82
(lp359
(VPINTON
VR
tp360
asg17
I2001
sg42
V1
sbag1
(g2
g3
NtRp361
(dp362
g50
V10.1002/ps.2780370403
p363
sg46
VPESTIC SCI
p364
sg48
V37
p365
sg82
(lp366
(VPOWELL
VK A
tp367
asg17
I1993
sg42
VESTIC
p368
sbag1
(g2
g3
NtRp369
(dp370
g50
V10.1016/S1369-5274(99)00028-4
p371
sg46
VCURR OPIN MICROBIOL
p372
sg48
V2
sg82
(lp373
(VPRATT
VL A
tp374
asg17
I1999
sg42
V598
p375
sbag1
(g2
g3
NtRp376
(dp377
g50
V10.1146/annurev.py.25.090187.002011
p378
sg46
VANNU REV PHYTOPATHOL
p379
sg48
V25
p380
sg82
(lp381
(VSCHIPPERS
VB
tp382
asg17
I1987
sg42
V339
p383
sbag1
(g2
g3
NtRp384
(dp385
g50
V10.1016/S1389-1723(00)80049-3
p386
sg46
VJ BIOSCI BIOENG
p387
sg48
V89
p388
sg82
(lp389
(VSHODA
VM
tp390
asg17
I2000
sg42
V515
p391
sbag1
(g2
g3
NtRp392
(dp393
g50
V10.1128/JB.185.6.1951-1957.2003
p394
sg46
VJ BACTERIOL
p395
sg48
V185
p396
sg82
(lp397
(VSTANLEY
VN R
tp398
asg17
I2003
sg42
V1951
p399
sbag1
(g2
g3
NtRp400
(dp401
g50
V10.1046/j.1365-313X.2001.01136.x
p402
sg46
VPLANT J
p403
sg48
V28
p404
sg82
(lp405
(VTORNERO
VP
tp406
asg17
I2001
sg42
VLANT
p407
sbag1
(g2
g3
NtRp408
(dp409
g50
Nsg46
VCAN J MICROBIOL
p410
sg48
V38
p411
sg82
(lp412
(VUTKHEDE
VR S
tp413
asg17
I1992
sg42
V1270
p414
sbag1
(g2
g3
NtRp415
(dp416
g50
Nsg46
VMICROBIOL MOL BIOL R
p417
sg48
V61
p418
sg82
(lp419
(VVANVEEN
VJ A
tp420
asg17
I1997
sg42
V121
p421
sbag1
(g2
g3
NtRp422
(dp423
g50
V10.1104/pp.119.4.1447
p424
sg46
VPLANT PHYSIOL
p425
sg48
V119
p426
sg82
(lp427
(VVIVANCO
VJ M
tp428
asg17
I1999
sg42
VLANT
p429
sbag1
(g2
g3
NtRp430
(dp431
g50
Nsg46
VBOOK SOIL P
p432
sg48
Nsg82
(lp433
(VWARRIOR
VP
tp434
asg17
I2002
sg42
V421
p435
sbag1
(g2
g3
NtRp436
(dp437
g50
V10.1046/j.1365-2958.1999.01624.x
p438
sg46
VMOL MICROBIOL
p439
sg48
V34
p440
sg82
(lp441
(VWATNICK
VP I
tp442
asg17
I1999
sg42
V586
p443
sbag1
(g2
g3
NtRp444
(dp445
g50
V10.1016/S0141-0229(98)00016-7
p446
sg46
VENZYME MICROB TECH
p447
sg48
V22
p448
sg82
(lp449
(VWEI
VY H
tp450
asg17
I1998
sg42
V724
p451
sbag1
(g2
g3
NtRp452
(dp453
g50
V10.1002/9783527615810.ch1
p454
sg46
VMOLECULAR ECOLOGY OF RHIZOSPHERE MICROORGANISMS
p455
sg48
Nsg82
(lp456
(VWELLER
VD M
tp457
asg17
I1994
sg42
V1
sbag1
(g2
g3
NtRp458
(dp459
g50
Nsg46
VP897
p460
sg48
Nsg82
(lp461
(VZUBER
VPETER
tp462
asg17
I1993
sg42
V897
p463
sbasb.