ccopy_reg
_reconstructor
p1
(ctethne.classes.paper
Paper
p2
c__builtin__
object
p3
NtRp4
(dp5
S'publisherCity'
p6
VROCKVILLE
p7
sS'reprintAddress'
p8
VChollet, R (reprint author), Univ Nebraska, Dept Biochem, Lincoln, NE 68588 USA.
p9
sS'WC'
p10
VPlant Sciences
p11
sS'GA'
p12
V585AZ
p13
sS'abstract'
p14
VSucrose synthase (SS) is a known phosphoserine (SerP)-containing enzyme in a variety of plant "sink" organs, including legume root nodules, where it is phosphorylated primarily at Ser-11. Using immunofluorescence confocal microscopy, we documented that part of the total SS (nodulin-100) pool in mature soybean (Glycine max) nodules is apparently associated with the plasma membrane in situ, and we report that this association is very "tight," as evidenced by a variety of chemical and enzymatic pretreatments of the isolated microsomal fraction. To investigate the in situ and in planta phosphorylation state of the membrane (m) and soluble (s) forms of nodule SS, three complementary approaches were used. First, excised nodules were radiolabeled in situ with [P-32]Pi for subsequent analysis of phosphorylated m- and s-SS; second, immunopurified s- and m-SS were used as substrate in "on-bead" assays of phosphorylation by nodule Ca2+-dependent protein kinase; and third, SS-Ser-11(P) phosphopeptide-specific antibodies were developed and used. The collective results provide convincing evidence that microsomal nodulin-100 is phosphorylated in mature nodules, and that it is hypophosphorylated relative to s-SS (on an equivalent SS protein basis) in attached, unstressed nodules. Moreover, the immunological data and related phosphopeptide mapping analyses indicate that a homologous N-terminal Beryl-phosphorylation domain and site reside in microsomal nodulin-100. We also observed that mild, short-term inorganic nitrogen and salt stresses have a significant negative impact on the content and N-terminal phosphorylation state of nodule m- and s-SS, with the former being the more sensitive of the two SS forms.
p15
sS'pageEnd'
p16
I1673
sS'publisherAddress'
p17
V15501 MONONA DRIVE, ROCKVILLE, MD 20855 USA
p18
sS'documentType'
p19
VArticle
p20
sS'subject'
p21
VPlant Sciences
p22
sS'isoSource'
p23
VPlant Physiol.
p24
sS'timesCited'
p25
(lp26
I32
aVZ9 33
p27
asS'PT'
p28
VJ
sS'title'
p29
VIn Vivo And In Vitro Phosphorylation Of Membrane And Soluble Forms Of Soybean Nodule Sucrose Synthase
p30
sS'ISSN'
p31
(lp32
V0032-0889
p33
aVJ9 PLANT PHYSIOL
p34
asS'authors_full'
p35
(lp36
(VKOMINA
VO
tp37
a(VZHOU
VY
tp38
a(VSARATH
VG
tp39
a(VCHOLLET
VR
tp40
asS'PG'
p41
I10
sS'PD'
p42
VAUG
p43
sS'pageStart'
p44
I1664
sS'issue'
p45
I4
sS'journal'
p46
VPLANT PHYSIOLOGY
p47
sS'volume'
p48
V129
p49
sS'doi'
p50
V10.1104/pp.002360
p51
sS'authorAddress'
p52
(lp53
VUniv Nebraska, Dept Biochem, Lincoln, NE 68588 USA.
p54
aVUniv Nebraska, Ctr Biotechnol, Lincoln, NE 68588 USA.
p55
asS'date'
p56
I2002
sS'ER'
p57
V
sS'publisher'
p58
VAMER SOC PLANT BIOLOGISTS
p59
sS'authorKeywords'
p60
(lp61
VPROTEIN-KINASE
p62
aVPHOSPHOENOLPYRUVATE CARBOXYLASE
p63
aVMAIZE SEEDLINGS
p64
aVPLANTS
p65
aVMETABOLISM
p66
aVCALLOSE
p67
aVPEPTIDE
p68
aVSTATE
p69
aVLOCALIZATION
p70
aVDEGRADATION
p71
asS'language'
p72
VEnglish
p73
sS'wosid'
p74
VWOS:000177502100026
p75
sS'citationCount'
p76
I39
sS'authors_init'
p77
(lp78
(VKOMINA
VO
tp79
a(VZHOU
VY
tp80
a(VSARATH
VG
tp81
a(VCHOLLET
VR
tp82
asS'citedReferences'
p83
(lp84
g1
(g2
g3
NtRp85
(dp86
g50
V10.1073/pnas.92.20.9353
p87
sg46
VP NATL ACAD SCI USA
p88
sg48
V92
p89
sg77
(lp90
(VAMOR
VY
tp91
asg56
I1995
sg44
V9353
p92
sbag1
(g2
g3
NtRp93
(dp94
g50
V10.1006/abbi.1999.1146
p95
sg46
VARCH BIOCHEM BIOPHYS
p96
sg48
V365
p97
sg77
(lp98
(VANGUENOT
VR
tp99
asg56
I1999
sg44
V163
p100
sbag1
(g2
g3
NtRp101
(dp102
g50
Nsg46
VSYMBIOSIS
p103
sg48
V27
p104
sg77
(lp105
(VARRESE-IGOR
VC
tp106
asg56
I1999
sg44
V189
p107
sbag1
(g2
g3
NtRp108
(dp109
g50
V10.1105/tpc.010454
p110
sg46
VPLANT CELL
p111
sg48
V14
p112
sg77
(lp113
(VASANO
VT
tp114
asg56
I2002
sg44
VLANT
p115
sbag1
(g2
g3
NtRp116
(dp117
g50
V10.1016/S0168-9452(00)00219-3
p118
sg46
VPLANT SCI
p119
sg48
V155
p120
sg77
(lp121
(VBARATA
VR M
tp122
asg56
I2000
sg44
VLANT
p123
sbag1
(g2
g3
NtRp124
(dp125
g50
V10.1104/pp.127.2.655
p126
sg46
VPLANT PHYSIOL
p127
sg48
V127
p128
sg77
(lp129
(VBARRATT
VD H P
tp130
asg56
I2001
sg44
VLANT
p131
sbag1
(g2
g3
NtRp132
(dp133
g50
Nsg46
VMOL GEN GENET
p134
sg48
V252
p135
sg77
(lp136
(VCARLSON
VS J
tp137
asg56
I1996
sg44
V303
p138
sbag1
(g2
g3
NtRp139
(dp140
g50
V10.1104/pp010806
p141
sg46
VPLANT PHYSIOL
p142
sg48
V128
p143
sg77
(lp144
(VCHASTAIN
VC J
tp145
asg56
I2002
sg44
VLANT
p146
sbag1
(g2
g3
NtRp147
(dp148
g50
V10.1006/abbi.1999.1651
p149
sg46
VARCH BIOCHEM BIOPHYS
p150
sg48
V375
p151
sg77
(lp152
(VCHASTAIN
VC J
tp153
asg56
I2000
sg44
V165
p154
sbag1
(g2
g3
NtRp155
(dp156
g50
V10.1007/s004250000343
p157
sg46
VPLANTA
p158
sg48
V211
p159
sg77
(lp160
(VCURATTI
VL
tp161
asg56
I2000
sg44
VLANTA
p162
sbag1
(g2
g3
NtRp163
(dp164
g50
Nsg46
VMETHOD ENZYMOL
p165
sg48
V201
p166
sg77
(lp167
(VCZERNIK
VA J
tp168
asg56
I1991
sg44
V264
p169
sbag1
(g2
g3
NtRp170
(dp171
g50
V10.1042/0264-6021:3590459
p172
sg46
VBIOCHEM J
p173
sg48
V359
p174
sg77
(lp175
(VDUMAZ
VN
tp176
asg56
I2001
sg44
V459
p177
sbag1
(g2
g3
NtRp178
(dp179
g50
Nsg46
VPLANT PHYSIOL
p180
sg48
V114
p181
sg77
(lp182
(VGORDON
VA J
tp183
asg56
I1997
sg44
VLANT
p184
sbag1
(g2
g3
NtRp185
(dp186
g50
V10.1093/jxb/42.8.961
p187
sg46
VJ EXP BOT
p188
sg48
V42
p189
sg77
(lp190
(VGORDON
VA J
tp191
asg56
I1991
sg44
V961
p192
sbag1
(g2
g3
NtRp193
(dp194
g50
V10.1093/jexbot/53.368.423
p195
sg46
VJ EXP BOT
p196
sg48
V53
p197
sg77
(lp198
(VGORDON
VA J
tp199
asg56
I2002
sg44
V423
p200
sbag1
(g2
g3
NtRp201
(dp202
g50
V10.1023/A:1010615027986
p203
sg46
VPLANT MOL BIOL
p204
sg48
V47
p205
sg77
(lp206
(VHAIGLER
VC H
tp207
asg56
I2001
sg44
VLANT
p208
sbag1
(g2
g3
NtRp209
(dp210
g50
Nsg46
VPLANT PHYSIOL
p211
sg48
V112
p212
sg77
(lp213
(VHUBER
VC
tp214
asg56
I1996
sg44
VLANT
p215
sbag1
(g2
g3
NtRp216
(dp217
g50
V10.1093/jxb/48.7.1367
p218
sg46
VJ EXP BOT
p219
sg48
V48
p220
sg77
(lp221
(VKAISER
VW M
tp222
asg56
I1997
sg44
V1367
p223
sbag1
(g2
g3
NtRp224
(dp225
g50
V10.1007/BF00766781
p226
sg46
VJ WOOD SCI
p227
sg48
V47
p228
sg77
(lp229
(VKONISHI
VT
tp230
asg56
I2001
sg44
V331
p231
sbag1
(g2
g3
NtRp232
(dp233
g50
V10.1038/227680a0
p234
sg46
VNATURE
p235
sg48
V227
p236
sg77
(lp237
(VLAEMMLI
VU K
tp238
asg56
I1970
sg44
V680
p239
sbag1
(g2
g3
NtRp240
(dp241
g50
V10.1073/pnas.97.3.1032
p242
sg46
VP NATL ACAD SCI USA
p243
sg48
V97
p244
sg77
(lp245
(VLANGE
VC A
tp246
asg56
I2000
sg44
V1032
p247
sbag1
(g2
g3
NtRp248
(dp249
g50
Nsg46
VACTA BIOCHIM POL
p250
sg48
V44
p251
sg77
(lp252
(VLINDBLOM
VS
tp253
asg56
I1997
sg44
V809
p254
sbag1
(g2
g3
NtRp255
(dp256
g50
V10.1046/j.1432-1327.2000.01002.x
p257
sg46
VEUR J BIOCHEM
p258
sg48
V267
p259
sg77
(lp260
(VLOOG
VM
tp261
asg56
I2000
sg44
V337
p262
sbag1
(g2
g3
NtRp263
(dp264
g50
Nsg46
VMETHOD ENZYMOL
p265
sg48
V201
p266
sg77
(lp267
(VLUO
VK X
tp268
asg56
I1991
sg44
V149
p269
sbag1
(g2
g3
NtRp270
(dp271
g50
V10.1104/pp.78.1.149
p272
sg46
VPLANT PHYSIOL
p273
sg48
V78
p274
sg77
(lp275
(VMORELL
VM
tp276
asg56
I1985
sg44
VLANT
p277
sbag1
(g2
g3
NtRp278
(dp279
g50
Nsg46
VPLANT CELL PHYSIOL
p280
sg48
V39
p281
sg77
(lp282
(VNAKAI
VT
tp283
asg56
I1998
sg44
VLANT
p284
sbag1
(g2
g3
NtRp285
(dp286
g50
V10.1104/pp.116.4.1323
p287
sg46
VPLANT PHYSIOL
p288
sg48
V116
p289
sg77
(lp290
(VRICARD
VB
tp291
asg56
I1998
sg44
VLANT
p292
sbag1
(g2
g3
NtRp293
(dp294
g50
Nsg46
VMOL CLONING LAB MANU
p295
sg48
Nsg77
(lp296
(VSAMBROOK
VJ
tp297
asg56
I1989
sg44
Nsbag1
(g2
g3
NtRp298
(dp299
g50
V10.1104/pp.125.2.585
p300
sg46
VPLANT PHYSIOL
p301
sg48
V125
p302
sg77
(lp303
(VSUBBAIAH
VC C
tp304
asg56
I2001
sg44
VLANT
p305
sbag1
(g2
g3
NtRp306
(dp307
g50
V10.1046/j.1365-313X.1999.00532.x
p308
sg46
VPLANT J
p309
sg48
V19
p310
sg77
(lp311
(VSUGDEN
VC
tp312
asg56
I1999
sg44
VLANT
p313
sbag1
(g2
g3
NtRp314
(dp315
g50
V10.1034/j.1399-3054.1991.830111.x
p316
sg46
VPHYSIOL PLANTARUM
p317
sg48
V83
p318
sg77
(lp319
(VSUNG
VL
tp320
asg56
I1991
sg44
VHYSIOL
p321
sbag1
(g2
g3
NtRp322
(dp323
g50
V10.1046/j.1365-313x.2000.00649.x
p324
sg46
VPLANT J
p325
sg48
V21
p326
sg77
(lp327
(VUENO
VY
tp328
asg56
I2000
sg44
VLANT
p329
sbag1
(g2
g3
NtRp330
(dp331
g50
V10.1016/S0014-5793(97)01506-8
p332
sg46
VFEBS LETT
p333
sg48
V420
p334
sg77
(lp335
(VWINTER
VH
tp336
asg56
I1997
sg44
V151
p337
sbag1
(g2
g3
NtRp338
(dp339
g50
V10.1016/S0735-2689(01)80002-2
p340
sg46
VCRIT REV PLANT SCI
p341
sg48
V19
p342
sg77
(lp343
(VWINTER
VH
tp344
asg56
I2000
sg44
V31
p345
sbag1
(g2
g3
NtRp346
(dp347
g50
V10.1016/S0014-5793(98)00659-0
p348
sg46
VFEBS LETT
p349
sg48
V430
p350
sg77
(lp351
(VWINTER
VH
tp352
asg56
I1998
sg44
V205
p353
sbag1
(g2
g3
NtRp354
(dp355
g50
V10.1104/pp.121.2.599
p356
sg46
VPLANT PHYSIOL
p357
sg48
V121
p358
sg77
(lp359
(VZENG
VY
tp360
asg56
I1999
sg44
VLANT
p361
sbag1
(g2
g3
NtRp362
(dp363
g50
V10.1006/abbi.1999.1415
p364
sg46
VARCH BIOCHEM BIOPHYS
p365
sg48
V371
p366
sg77
(lp367
(VZHANG
VX Q
tp368
asg56
I1999
sg44
V70
p369
sbag1
(g2
g3
NtRp370
(dp371
g50
V10.1016/S0014-5793(97)00537-1
p372
sg46
VFEBS LETT
p373
sg48
V410
p374
sg77
(lp375
(VZHANG
VX Q
tp376
asg56
I1997
sg44
V126
p377
sbag1
(g2
g3
NtRp378
(dp379
g50
Nsg46
VPLANT PHYSIOL
p380
sg48
V108
p381
sg77
(lp382
(VZHANG
VX Q
tp383
asg56
I1995
sg44
VLANT
p384
sbasb.