ccopy_reg
_reconstructor
p1
(ctethne.classes.paper
Paper
p2
c__builtin__
object
p3
NtRp4
(dp5
S'publisherCity'
p6
VROCKVILLE
p7
sS'reprintAddress'
p8
VHagemann, M (reprint author), Univ Rostock, Inst Biowissensch, Abt Pflanzenphysiol & Okol, D-18059 Rostock, Germany.
p9
sS'WC'
p10
VPlant Sciences
p11
sS'GA'
p12
V199OJ
p13
sS'abstract'
p14
VConcerted changes in the transcriptional pattern and physiological traits that result from long-term (here defined as up to 24 h) limitation of inorganic carbon (C-i) have been investigated for the cyanobacterium Synechocystis sp. strain PCC 6803. Results from reverse transcription-polymerase chain reaction and genome-wide DNA microarray analyses indicated stable up-regulation of genes for inducible CO2 and HCO3- uptake systems and of the rfb cluster that encodes enzymes involved in outer cell wall polysaccharide synthesis. Coordinated up-regulation of photosystem I genes was further found and supported by a higher photosystem I content and activity under low C-i (LC) conditions. Bacterial-type glycerate pathway genes were induced by LC conditions, in contrast to the genes for the plant-like photorespiratory C-2 cycle. Down-regulation was observed for nitrate assimilation genes and surprisingly also for almost all carboxysomal proteins. However, for the latter the observed elongation of the half-life time of the large subunit of Rubisco protein may render compensation. Mutants defective in glycolate turnover (Delta glcD and Delta gcvT) showed some transcriptional changes under high C-i conditions that are characteristic for LC conditions in wild-type cells, like a modest down-regulation of carboxysomal genes. Properties under LC conditions were comparable to LC wild type, including the strong response of genes encoding inducible high-affinity C-i uptake systems. Electron microscopy revealed a conspicuous increase in number of carboxysomes per cell in mutant Delta glcD already under high C-i conditions. These data indicate that an increased level of photorespiratory intermediates may affect carboxysomal components but does not intervene with the expression of majority of LC inducible genes.
p15
sS'pageEnd'
p16
I1959
sS'date'
p17
I2007
sS'documentType'
p18
VArticle
p19
sS'subject'
p20
VPlant Sciences
p21
sS'isoSource'
p22
VPlant Physiol.
p23
sS'timesCited'
p24
(lp25
I41
aVZ9 41
p26
asS'PT'
p27
VJ
sS'title'
p28
VLong-Term Response Toward Inorganic Carbon Limitation In Wild Type And Glycolate Turnover Mutants Of The Cyanobacterium Synechocystis Sp Strain Pcc 6803(1[W])
p29
sS'ISSN'
p30
(lp31
V0032-0889
p32
aVJ9 PLANT PHYSIOL
p33
asS'authors_full'
p34
(lp35
(VEISENHUT
VMARION
tp36
a(VVON WOBESER
VENEAS AGUIRRE
tp37
a(VJONAS
VLUDWIG
tp38
a(VSCHUBERT
VHENDRIK
tp39
a(VIBELINGS
VBAS W
tp40
a(VBAUWE
VHERMANN
tp41
a(VMATTHIJS
VHANS C P
tp42
a(VHAGEMANN
VMARTIN
tp43
asS'PG'
p44
I14
sS'PD'
p45
VAUG
p46
sS'pageStart'
p47
I1946
sS'issue'
p48
I4
sS'RI'
p49
VIbelings, Bas/B-4237-2011; Matthijs, Hans/B-4503-2009
p50
sS'journal'
p51
VPLANT PHYSIOLOGY
p52
sS'volume'
p53
V144
p54
sS'doi'
p55
V10.1104/pp.107.103341
p56
sS'emailAddress'
p57
Vmartin.hagemann@uni-rostock.de
p58
sS'authorAddress'
p59
(lp60
VUniv Rostock, Inst Biowissensch, Abt Pflanzenphysiol & Okol, D-18059 Rostock, Germany.
p61
aVUniv Amsterdam, Inst Biodivers & Ecosyst Dynam, NL-1018 WS Amsterdam, Netherlands.
p62
aVUniv Rostock, Inst Pathol, Elektronenmikroskop Zentrum, D-18055 Rostock, Germany.
p63
aVNetherlands Inst Ecol, Ctr Limnol, Dept Foodweb Studies, NL-3631 AC Nieuwersluis, Netherlands.
p64
aVSwiss Fed Inst Aquat Sci & Technol, Ctr Ecol Evolut & Biogeochem, CH-6047 Kastanienbaum, Switzerland.
p65
asS'publisherAddress'
p66
V15501 MONONA DRIVE, ROCKVILLE, MD 20855 USA
p67
sS'ER'
p68
V
sS'publisher'
p69
VAMER SOC PLANT BIOLOGISTS
p70
sS'authorKeywords'
p71
(lp72
VCYCLIC ELECTRON FLOW
p73
aVPHOTOSYSTEM-I
p74
aVGENE-EXPRESSION
p75
aVSP PCC-6803
p76
aVCO2-CONCENTRATING MECHANISM
p77
aVBICARBONATE TRANSPORTER
p78
aVHETEROLOGOUS EXPRESSION
p79
aVCO2
p80
aVPCC6803
p81
aVPROTEIN
p82
asS'OI'
p83
VIbelings, Bas/0000-0002-7213-7407; 
p84
sS'language'
p85
VEnglish
p86
sS'wosid'
p87
VWOS:000248704800022
p88
sS'citationCount'
p89
I42
sS'authors_init'
p90
(lp91
(VEISENHUT
VM
tp92
a(VVON WOBESER
VE A
tp93
a(VJONAS
VL
tp94
a(VSCHUBERT
VH
tp95
a(VIBELINGS
VB W
tp96
a(VBAUWE
VH
tp97
a(VMATTHIJS
VH C P
tp98
a(VHAGEMANN
VM
tp99
asS'citedReferences'
p100
(lp101
g1
(g2
g3
NtRp102
(dp103
g55
V10.1093/jxb/eri286
p104
sg51
VJ EXP BOT
p105
sg53
V57
p106
sg90
(lp107
(VBADGER
VM R
tp108
asg17
I2006
sg47
V249
p109
sbag1
(g2
g3
NtRp110
(dp111
g55
V10.1111/j.1365-2958.1995.mmi_18030559.x
p112
sg51
VMOL MICROBIOL
p113
sg53
V18
p114
sg90
(lp115
(VBEDU
VS
tp116
asg17
I1995
sg47
V559
p117
sbag1
(g2
g3
NtRp118
(dp119
g55
V10.1021/bi011683d
p120
sg51
VBIOCHEMISTRY
p121
sg53
V41
p122
sg90
(lp123
(VBERRY
VS
tp124
asg17
I2002
sg47
V3422
p125
sbag1
(g2
g3
NtRp126
(dp127
g55
Nsg51
VANAL BIOCHEM
p128
sg53
V72
p129
sg90
(lp130
(VBRADFORD
VM M
tp131
asg17
I1976
sg47
V254
p132
sbag1
(g2
g3
NtRp133
(dp134
g55
V10.1023/B:PRES.0000040442.59311.72
p135
sg51
VPHOTOSYNTH RES
p136
sg53
V82
p137
sg90
(lp138
(VBUKHOV
VN
tp139
asg17
I2004
sg47
VHOTOSYNTH
p140
sbag1
(g2
g3
NtRp141
(dp142
g55
V10.1128/AEM.67.12.5351-5361.2001
p143
sg51
VAPPL ENVIRON MICROB
p144
sg53
V67
p145
sg90
(lp146
(VCANNON
VG C
tp147
asg17
I2001
sg47
V5351
p148
sbag1
(g2
g3
NtRp149
(dp150
g55
V10.1104/pp.106.082982
p151
sg51
VPLANT PHYSIOL
p152
sg53
V142
p153
sg90
(lp154
(VEISENHUT
VM
tp155
asg17
I2006
sg47
VLANT
p156
sbag1
(g2
g3
NtRp157
(dp158
g55
V10.1111/j.1574-6968.2006.00312.x
p159
sg51
VFEMS MICROBIOL LETT
p160
sg53
V260
p161
sg90
(lp162
(VFU
VJ
tp163
asg17
I2006
sg47
V201
p164
sbag1
(g2
g3
NtRp165
(dp166
g55
V10.1034/j.1399-3054.1999.105411.x
p167
sg51
VPHYSIOL PLANTARUM
p168
sg53
V105
p169
sg90
(lp170
(VHAGEMANN
VM
tp171
asg17
I1999
sg47
VHYSIOL
p172
sbag1
(g2
g3
NtRp173
(dp174
g55
Nsg51
VJ BACTERIOL
p175
sg53
V179
p176
sg90
(lp177
(VHARANO
VY
tp178
asg17
I1997
sg47
V5744
p179
sbag1
(g2
g3
NtRp180
(dp181
g55
V10.1128/AEM.69.8.4359-4366.2003
p182
sg51
VAPPL ENVIRON MICROB
p183
sg53
V69
p184
sg90
(lp185
(VHEINEMANN
VU
tp186
asg17
I2003
sg47
V4359
p187
sbag1
(g2
g3
NtRp188
(dp189
g55
V10.1016/S0960-9822(03)00046-0
p190
sg51
VCURR BIOL
p191
sg53
V13
p192
sg90
(lp193
(VHELMAN
VY
tp194
asg17
I2003
sg47
V230
p195
sbag1
(g2
g3
NtRp196
(dp197
g55
Nsg51
VPLANT CELL
p198
sg53
V13
p199
sg90
(lp200
(VHIHARA
VY
tp201
asg17
I2001
sg47
VLANT
p202
sbag1
(g2
g3
NtRp203
(dp204
g55
V10.1110/ps.22701
p205
sg51
VPROTEIN SCI
p206
sg53
V10
p207
sg90
(lp208
(VHISBERGUES
VM
tp209
asg17
I2001
sg47
VROTEIN
p210
sbag1
(g2
g3
NtRp211
(dp212
g55
V10.1021/bi981486n
p213
sg51
VBIOCHEMISTRY
p214
sg53
V37
p215
sg90
(lp216
(VHOWITT
VC A
tp217
asg17
I1998
sg47
V17944
p218
sbag1
(g2
g3
NtRp219
(dp220
g55
V10.1080/07352688709382234
p221
sg51
VCRIT REV PLANT SCI
p222
sg53
V5
sg90
(lp223
(VHUSIC
VD W
tp224
asg17
I1987
sg47
V45
p225
sbag1
(g2
g3
NtRp226
(dp227
g55
V10.1093/dnares/3.3.109
p228
sg51
VDNA Res
p229
sg53
V3
sg90
(lp230
(VKANEKO
VT
tp231
asg17
I1996
sg47
V109
p232
sbag1
(g2
g3
NtRp233
(dp234
g55
V10.1146/annurev.arplant.50.1.539
p235
sg51
VANNU REV PLANT PHYS
p236
sg53
V50
p237
sg90
(lp238
(VKAPLAN
VA
tp239
asg17
I1999
sg47
V539
p240
sbag1
(g2
g3
NtRp241
(dp242
g55
V10.1126/science.1113397
p243
sg51
VSCIENCE
p244
sg53
V309
p245
sg90
(lp246
(VKERFELD
VC A
tp247
asg17
I2005
sg47
V936
p248
sbag1
(g2
g3
NtRp249
(dp250
g55
V10.1099/mic.0.28246-0
p251
sg51
VMICROBIOL
p252
sg53
V151
p253
sg90
(lp254
(VKIZIAK
VC
tp255
asg17
I2005
sg47
V3639
p256
sbag1
(g2
g3
NtRp257
(dp258
g55
Nsg51
VJ BACTERIOL
p259
sg53
V181
p260
sg90
(lp261
(VLEE
VH M
tp262
asg17
I1999
sg47
V2697
p263
sbag1
(g2
g3
NtRp264
(dp265
g55
Nsg51
VAPPL ENVIRON MICROB
p266
sg53
V60
p267
sg90
(lp268
(VMARCO
VE
tp269
asg17
I1994
sg47
V1018
p270
sbag1
(g2
g3
NtRp271
(dp272
g55
V10.1104/pp.69.5.1008
p273
sg51
VPLANT PHYSIOL
p274
sg53
V69
p275
sg90
(lp276
(VMARCUS
VY
tp277
asg17
I1982
sg47
VLANT
p278
sbag1
(g2
g3
NtRp279
(dp280
g55
V10.1104/pp.104.045047
p281
sg51
VPLANT PHYSIOL
p282
sg53
V136
p283
sg90
(lp284
(VMARIN
VK
tp285
asg17
I2004
sg47
VLANT
p286
sbag1
(g2
g3
NtRp287
(dp288
g55
V10.1071/PP01197
p289
sg51
VFUNCT PLANT BIOL
p290
sg53
V29
p291
sg90
(lp292
(VMATTHIJS
VH C P
tp293
asg17
I2002
sg47
V201
p294
sbag1
(g2
g3
NtRp295
(dp296
g55
V10.1104/pp.102.019349
p297
sg51
VPLANT PHYSIOL
p298
sg53
V132
p299
sg90
(lp300
(VMCGINN
VP J
tp301
asg17
I2003
sg47
VLANT
p302
sbag1
(g2
g3
NtRp303
(dp304
g55
V10.1038/371297a0
p305
sg51
VNATURE
p306
sg53
V371
p307
sg90
(lp308
(VNEER
VE J
tp309
asg17
I1994
sg47
V297
p310
sbag1
(g2
g3
NtRp311
(dp312
g55
V10.1073/pnas.97.3.960
p313
sg51
VP NATL ACAD SCI USA
p314
sg53
V97
p315
sg90
(lp316
(VNEER
VE J
tp317
asg17
I2000
sg47
V960
p318
sbag1
(g2
g3
NtRp319
(dp320
g55
V10.1007/BF00248684
p321
sg51
VARCH MICROBIOL
p322
sg53
V157
p323
sg90
(lp324
(VNORMAN
VE G
tp325
asg17
I1992
sg47
V375
p326
sbag1
(g2
g3
NtRp327
(dp328
g55
V10.1073/pnas.96.23.13571
p329
sg51
VP NATL ACAD SCI USA
p330
sg53
V96
p331
sg90
(lp332
(VOMATA
VT
tp333
asg17
I1999
sg47
V13571
p334
sbag1
(g2
g3
NtRp335
(dp336
g55
V10.1128/JB.183.6.1891-1898.2001
p337
sg51
VJ BACTERIOL
p338
sg53
V183
p339
sg90
(lp340
(VOMATA
VT
tp341
asg17
I2001
sg47
V1891
p342
sbag1
(g2
g3
NtRp343
(dp344
g55
V10.1073/pnas.0405211101
p345
sg51
VP NATL ACAD SCI USA
p346
sg53
V101
p347
sg90
(lp348
(VPRICE
VG D
tp349
asg17
I2004
sg47
V18228
p350
sbag1
(g2
g3
NtRp351
(dp352
g55
Nsg51
VZ NATURFORSCH C
p353
sg53
V43
p354
sg90
(lp355
(VSCHREIBER
VU
tp356
asg17
I1988
sg47
V686
p357
sbag1
(g2
g3
NtRp358
(dp359
g55
V10.1073/pnas.191258298
p360
sg51
VP NATL ACAD SCI USA
p361
sg53
V98
p362
sg90
(lp363
(VSHIBATA
VM
tp364
asg17
I2001
sg47
V11789
p365
sbag1
(g2
g3
NtRp366
(dp367
g55
V10.1074/jbc.M101973200
p368
sg51
VJ BIOL CHEM
p369
sg53
V276
p370
sg90
(lp371
(VTCHERNOV
VD
tp372
asg17
I2001
sg47
V23450
p373
sbag1
(g2
g3
NtRp374
(dp375
g55
V10.1146/annurev.arplant.48.1.1
p376
sg51
VANNU REV PLANT PHYS
p377
sg53
V48
p378
sg90
(lp379
(VTOLBERT
VN E
tp380
asg17
I1997
sg47
V1
sbag1
(g2
g3
NtRp381
(dp382
g55
V10.1074/jbc.M311336200
p383
sg51
VJ BIOL CHEM
p384
sg53
V279
p385
sg90
(lp386
(VWANG
VH L
tp387
asg17
I2004
sg47
V5739
p388
sbag1
(g2
g3
NtRp389
(dp390
g55
V10.1104/pp.103.029728
p391
sg51
VPLANT PHYSIOL
p392
sg53
V133
p393
sg90
(lp394
(VWOODGER
VF J
tp395
asg17
I2003
sg47
VLANT
p396
sbag1
(g2
g3
NtRp397
(dp398
g55
V10.1104/pp.105.069146
p399
sg51
VPLANT PHYSIOL
p400
sg53
V139
p401
sg90
(lp402
(VWOODGER
VF J
tp403
asg17
I2005
sg47
VLANT
p404
sbag1
(g2
g3
NtRp405
(dp406
g55
V10.1139/B05-050
p407
sg51
VCAN J BOT
p408
sg53
V83
p409
sg90
(lp410
(VWOODGER
VF J
tp411
asg17
I2005
sg47
V698
p412
sbag1
(g2
g3
NtRp413
(dp414
g55
V10.1093/pcp/pci147
p415
sg51
VPLANT CELL PHYSIOL
p416
sg53
V46
p417
sg90
(lp418
(VYEREMENKO
VN
tp419
asg17
I2005
sg47
VLANT
p420
sbag1
(g2
g3
NtRp421
(dp422
g55
V10.1105/tpc.104.026526
p423
sg51
VPLANT CELL
p424
sg53
V16
p425
sg90
(lp426
(VZHANG
VP P
tp427
asg17
I2004
sg47
VLANT
p428
sbasb.