ccopy_reg
_reconstructor
p1
(ctethne.classes.paper
Paper
p2
c__builtin__
object
p3
NtRp4
(dp5
S'publisherCity'
p6
VROCKVILLE
p7
sS'reprintAddress'
p8
VTsai, CJ (reprint author), Michigan Technol Univ, Sch Forest Resources & Environm Sci, Biotechnol Res Ctr, Houghton, MI 49931 USA.
p9
sS'WC'
p10
VPlant Sciences
p11
sS'GA'
p12
V228FK
p13
sS'abstract'
p14
VMicrotubule organization is intimately associated with cellulose microfibril deposition, central to plant secondary cell wall development. We have determined that a relatively large suite of eight alpha-TUBULIN (TUA) and 20 beta-TUBULIN (TUB) genes is expressed in the woody perennial Populus. A number of features, including gene number, alpha:beta gene representation, amino acid changes at the C terminus, and transcript abundance in wood-forming tissue, distinguish the Populus tubulin suite from that of Arabidopsis thaliana. Five of the eight Populus TUAs are unusual in that they contain a C-terminal methionine, glutamic acid, or glutamine, instead of the more typical, and potentially regulatory, C-terminal tyrosine. Both C-terminal Y-type (TUA1) and M-type (TUA5) TUAs were highly expressed in wood-forming tissues and pollen, while the Y-type TUA6 and TUA8 were abundant only in pollen. Transcripts of the disproportionately expanded TUB family were present at comparatively low levels, with phylogenetically distinct classes predominating in xylem and pollen. When tension wood induction was used as a model system to examine changes in tubulin gene expression under conditions of augmented cellulose deposition, xylem-abundant TUA and TUB genes were up-regulated. Immunolocalization of TUA and TUB in xylem and phloem fibers of stems further supported the notion of heavy microtubule involvement during cellulose microfibril deposition in secondary walls. The high degree of sequence diversity, differential expansion, and differential regulation of Populus TUA and TUB families may confer flexibility in cell wall formation that is of adaptive significance to the woody perennial growth habit.
p15
sS'pageEnd'
p16
I973
sS'date'
p17
I2007
sS'documentType'
p18
VArticle
p19
sS'subject'
p20
VPlant Sciences
p21
sS'isoSource'
p22
VPlant Physiol.
p23
sS'timesCited'
p24
(lp25
I33
aVZ9 35
p26
asS'PT'
p27
VJ
sS'title'
p28
VDifferential Expansion And Expression Of Alpha- And Beta-Tubulin Gene Families In Populus
p29
sS'ISSN'
p30
(lp31
V0032-0889
p32
aVJ9 PLANT PHYSIOL
p33
asS'authors_full'
p34
(lp35
(VOAKLEY
VRODNEY V
tp36
a(VWANG
VYUHSHUH
tp37
a(VRAMAKRISHNA
VWUSIRIKA
tp38
a(VHARDING
VSCOTT A
tp39
a(VTSAI
VCHUNGJUI
tp40
asS'PG'
p41
I13
sS'PD'
p42
VNOV
p43
sS'pageStart'
p44
I961
sS'issue'
p45
I3
sS'RI'
p46
VTsai, CJ/C-2450-2009
p47
sS'journal'
p48
VPLANT PHYSIOLOGY
p49
sS'volume'
p50
V145
p51
sS'doi'
p52
V10.1104/pp.107.107086
p53
sS'emailAddress'
p54
Vchtsai@mtu.edu
p55
sS'authorAddress'
p56
(lp57
VMichigan Technol Univ, Sch Forest Resources & Environm Sci, Biotechnol Res Ctr, Houghton, MI 49931 USA.
p58
aVMichigan Technol Univ, Dept Biol Sci, Houghton, MI 49931 USA.
p59
aVSamuel Roberts Noble Fdn Inc, Div Plant Biol, Ardmore, OK 73401 USA.
p60
asS'publisherAddress'
p61
V15501 MONONA DRIVE, ROCKVILLE, MD 20855 USA
p62
sS'ER'
p63
V
sS'publisher'
p64
VAMER SOC PLANT BIOLOGISTS
p65
sS'authorKeywords'
p66
(lp67
VTRANSGENIC MAIZE CALLI
p68
aVTENSION-WOOD
p69
aVPOSTTRANSLATIONAL MODIFICATIONS
p70
aVCELLULOSE MICROFIBRILS
p71
aVALCOHOL-DEHYDROGENASE
p72
aVCORTICAL MICROTUBULES
p73
aVARABIDOPSIS CONTAINS
p74
aVORIENTED DEPOSITION
p75
aVSEQUENCE ALIGNMENT
p76
aVTYROSINE LIGASE
p77
asS'OI'
p78
VTsai, CJ/0000-0002-9282-7704
p79
sS'language'
p80
VEnglish
p81
sS'wosid'
p82
VWOS:000250712800033
p83
sS'citationCount'
p84
I75
sS'authors_init'
p85
(lp86
(VOAKLEY
VR V
tp87
a(VWANG
VY S
tp88
a(VRAMAKRISHNA
VW
tp89
a(VHARDING
VS A
tp90
a(VTSAI
VC J
tp91
asS'citedReferences'
p92
(lp93
g1
(g2
g3
NtRp94
(dp95
g52
V10.1006/anbo.1995.1025
p96
sg48
VANN BOT
p97
sg50
V75
p98
sg85
(lp99
(VABE
VH
tp100
asg17
I1995
sg44
V305
p101
sbag1
(g2
g3
NtRp102
(dp103
g52
V10.1093/pcp/pch026
p104
sg48
VPLANT CELL PHYSIOL
p105
sg50
V45
p106
sg85
(lp107
(VABE
VT
tp108
asg17
I2004
sg44
VLANT
p109
sbag1
(g2
g3
NtRp110
(dp111
g52
V10.1111/j.1365-313X.2005.02584.x
p112
sg48
VPLANT J
p113
sg50
V45
p114
sg85
(lp115
(VANDERSSON-GUNNERAS
VS
tp116
asg17
I2006
sg44
VLANT
p117
sbag1
(g2
g3
NtRp118
(dp119
g52
Nsg48
VNAT BIOTECHNOL
p120
sg50
V17
p121
sg85
(lp122
(VANTHONY
VR G
tp123
asg17
I1999
sg44
V712
p124
sbag1
(g2
g3
NtRp125
(dp126
g52
V10.1046/j.1365-313x.1999.00484.x
p127
sg48
VPLANT J
p128
sg50
V18
p129
sg85
(lp130
(VANTHONY
VR G
tp131
asg17
I1999
sg44
VLANT
p132
sbag1
(g2
g3
NtRp133
(dp134
g52
V10.1046/j.1365-313x.1998.00296.x
p135
sg48
VPLANT J
p136
sg50
V16
p137
sg85
(lp138
(VANTHONY
VR G
tp139
asg17
I1998
sg44
VLANT
p140
sbag1
(g2
g3
NtRp141
(dp142
g52
V10.1016/0092-8674(86)90467-8
p143
sg48
VCELL
p144
sg50
V44
p145
sg85
(lp146
(VBOND
VJ F
tp147
asg17
I1986
sg44
V461
p148
sbag1
(g2
g3
NtRp149
(dp150
g52
V10.1007/BF00020225
p151
sg48
VPLANT MOL BIOL
p152
sg50
V27
p153
sg85
(lp154
(VBRIERLEY
VH L
tp155
asg17
I1995
sg44
VLANT
p156
sbag1
(g2
g3
NtRp157
(dp158
g52
V10.1105/tpc.003947
p159
sg48
VPLANT CELL
p160
sg50
V14
p161
sg85
(lp162
(VBURK
VD H
tp163
asg17
I2002
sg44
VLANT
p164
sbag1
(g2
g3
NtRp165
(dp166
g52
V10.1105/tpc.12.9.1719
p167
sg48
VPLANT CELL
p168
sg50
V12
p169
sg85
(lp170
(VCAI
VG
tp171
asg17
I2000
sg44
VLANT
p172
sbag1
(g2
g3
NtRp173
(dp174
g52
Nsg48
VCURR SCI INDIA
p175
sg50
V89
p176
sg85
(lp177
(VCAI
VG
tp178
asg17
I2005
sg44
V1853
p179
sbag1
(g2
g3
NtRp180
(dp181
g52
Nsg48
VPLANT CELL
p182
sg50
V4
sg85
(lp183
(VCARPENTER
VJ L
tp184
asg17
I1992
sg44
VLANT
p185
sbag1
(g2
g3
NtRp186
(dp187
g52
V10.1007/s004250050530
p188
sg48
VPLANTA
p189
sg50
V208
p190
sg85
(lp191
(VCHAFFEY
VN
tp192
asg17
I1999
sg44
VLANTA
p193
sbag1
(g2
g3
NtRp194
(dp195
g52
V10.1007/s004680050093
p196
sg48
VTREES
p197
sg50
V11
p198
sg85
(lp199
(VCHAFFEY
VN
tp200
asg17
I1997
sg44
V333
p201
sbag1
(g2
g3
NtRp202
(dp203
g52
V10.1007/BF02670468
p204
sg48
VPlant Molecular Biology Reporter
p205
sg50
V11
p206
sg85
(lp207
(VCHANG
VS J
tp208
asg17
I1993
sg44
Vlant
p209
sbag1
(g2
g3
NtRp210
(dp211
g52
V10.1023/A:1011628024798
p212
sg48
VPLANT MOL BIOL
p213
sg50
V47
p214
sg85
(lp215
(VCHENG
VZ G
tp216
asg17
I2001
sg44
VLANT
p217
sbag1
(g2
g3
NtRp218
(dp219
g52
V10.1093/nar/gkg500
p220
sg48
VNUCLEIC ACIDS RES
p221
sg50
V31
p222
sg85
(lp223
(VCHENNA
VR
tp224
asg17
I2003
sg44
V3497
p225
sbag1
(g2
g3
NtRp226
(dp227
g52
V10.1104/pp.103.037432
p228
sg48
VPLANT PHYSIOL
p229
sg50
V136
p230
sg85
(lp231
(VDELYE
VC
tp232
asg17
I2004
sg44
VLANT
p233
sbag1
(g2
g3
NtRp234
(dp235
g52
V10.1111/j.1365-313X.1994.00363.x
p236
sg48
VPLANT J
p237
sg50
V5
sg85
(lp238
(VDUCKETT
VC M
tp239
asg17
I1994
sg44
VLANT
p240
sbag1
(g2
g3
NtRp241
(dp242
g52
V10.1016/S0955-0674(00)00173-3
p243
sg48
VCURR OPIN CELL BIOL
p244
sg50
V13
p245
sg85
(lp246
(VDUTCHER
VS K
tp247
asg17
I2001
sg44
V49
p248
sbag1
(g2
g3
NtRp249
(dp250
g52
V10.1111/j.1365-313X.2005.02403.x
p251
sg48
VPLANT J
p252
sg50
V42
p253
sg85
(lp254
(VEHLTING
VJ
tp255
asg17
I2005
sg44
VLANT
p256
sbag1
(g2
g3
NtRp257
(dp258
g52
V10.1083/jcb.120.3.725
p259
sg48
VJ CELL BIOL
p260
sg50
V120
p261
sg85
(lp262
(VERSFELD
VK
tp263
asg17
I1993
sg44
V725
p264
sbag1
(g2
g3
NtRp265
(dp266
g52
V10.1104/pp.116.3.1043
p267
sg48
VPLANT PHYSIOL
p268
sg50
V116
p269
sg85
(lp270
(VFISHER
VD D
tp271
asg17
I1998
sg44
VLANT
p272
sbag1
(g2
g3
NtRp273
(dp274
g52
Nsg48
VMokuzai Gakkaishi 
p275
sg50
V20
p276
sg85
(lp277
(VFUJITA
VM
tp278
asg17
I1974
sg44
V147
p279
sbag1
(g2
g3
NtRp280
(dp281
g52
V10.1073/pnas.93.19.10274
p282
sg48
VP NATL ACAD SCI USA
p283
sg50
V93
p284
sg85
(lp285
(VGAUT
VB S
tp286
asg17
I1996
sg44
V10274
p287
sbag1
(g2
g3
NtRp288
(dp289
g52
Nsg48
VPLANT PHYSIOL
p290
sg50
V112
p291
sg85
(lp292
(VGE
VL
tp293
asg17
I1996
sg44
VLANT
p294
sbag1
(g2
g3
NtRp295
(dp296
g52
V10.1104/pp.105.072652
p297
sg48
VPLANT PHYSIOL
p298
sg50
V140
p299
sg85
(lp300
(VGEISLER-LEE
VJ
tp301
asg17
I2006
sg44
VLANT
p302
sbag1
(g2
g3
NtRp303
(dp304
g52
Nsg48
VCYTOSKELETAL BASIS P
p305
sg50
Nsg85
(lp306
(VGIDDINGS
VT H
tp307
asg17
I1991
sg44
V85
p308
sbag1
(g2
g3
NtRp309
(dp310
g52
V10.1007/BF01314959
p311
sg48
VPROTOPLASMA
p312
sg50
V210
p313
sg85
(lp314
(VGILMER
VS
tp315
asg17
I1999
sg44
VROTOPLASMA
p316
sbag1
(g2
g3
NtRp317
(dp318
g52
V10.1534/genetics.106.061127
p319
sg48
VGENETICS
p320
sg50
V175
p321
sg85
(lp322
(VGONZALEZ-MARTINEZ
VS C
tp323
asg17
I2007
sg44
V399
p324
sbag1
(g2
g3
NtRp325
(dp326
g52
V10.1007/s00425-006-0269-1
p327
sg48
VPLANTA
p328
sg50
V224
p329
sg85
(lp330
(VBHANDARI
VS
tp331
asg17
I2006
sg44
VLANTA
p332
sbag1
(g2
g3
NtRp333
(dp334
g52
V10.1073/pnas.261293398
p335
sg48
VP NATL ACAD SCI USA
p336
sg50
V98
p337
sg85
(lp338
(VHERTZBERG
VM
tp339
asg17
I2001
sg44
V14732
p340
sbag1
(g2
g3
NtRp341
(dp342
g52
V10.1046/j.1365-313X.2003.01906.x
p343
sg48
VPLANT J
p344
sg50
V36
p345
sg85
(lp346
(VHIMMELSPACH
VR
tp347
asg17
I2003
sg44
VLANT
p348
sbag1
(g2
g3
NtRp349
(dp350
g52
V10.1111/j.1365-313X.2007.03153.x
p351
sg48
VPLANT J
p352
sg50
V51
p353
sg85
(lp354
(VHUANG
VS L
tp355
asg17
I2007
sg44
VLANT
p356
sbag1
(g2
g3
NtRp357
(dp358
g52
V10.1002/(SICI)1097-0169(200003)45:3<173::AID-CM1>3.0.CO;2-O
p359
sg48
VCELL MOTIL CYTOSKEL
p360
sg50
V45
p361
sg85
(lp362
(VIDRISS
VH T
tp363
asg17
I2000
sg44
V173
p364
sbag1
(g2
g3
NtRp365
(dp366
g52
V10.1104/pp.104.038844
p367
sg48
VPLANT PHYSIOL
p368
sg50
V135
p369
sg85
(lp370
(VKO
VJ H
tp371
asg17
I2004
sg44
VLANT
p372
sbag1
(g2
g3
NtRp373
(dp374
g52
Nsg48
VMOL BIOL EVOL
p375
sg50
V17
p376
sg85
(lp377
(VKOCH
VM A
tp378
asg17
I2000
sg44
V1483
p379
sbag1
(g2
g3
NtRp380
(dp381
g52
V10.1105/tpc.4.5.539
p382
sg48
VPLANT CELL
p383
sg50
V4
sg85
(lp384
(VKOPCZAK
VS D
tp385
asg17
I1992
sg44
VLANT
p386
sbag1
(g2
g3
NtRp387
(dp388
g52
V10.1093/bib/5.2.150
p389
sg48
VBRIEF BIOINFORM
p390
sg50
V5
sg85
(lp391
(VKUMAR
VS
tp392
asg17
I2004
sg44
V150
p393
sbag1
(g2
g3
NtRp394
(dp395
g52
V10.1083/jcb.19.1.239
p396
sg48
VJ CELL BIOL
p397
sg50
V19
p398
sg85
(lp399
(VLEDBETTER
VM C
tp400
asg17
I1963
sg44
V239
p401
sbag1
(g2
g3
NtRp402
(dp403
g52
V10.1105/tpc.13.7.1567
p404
sg48
VPLANT CELL
p405
sg50
V13
p406
sg85
(lp407
(VLI
VL G
tp408
asg17
I2001
sg44
VLANT
p409
sbag1
(g2
g3
NtRp410
(dp411
g52
V10.1104/pp.005538
p412
sg48
VPLANT PHYSIOL
p413
sg50
V130
p414
sg85
(lp415
(VLI
VX B
tp416
asg17
I2002
sg44
VLANT
p417
sbag1
(g2
g3
NtRp418
(dp419
g52
Nsg48
VINT REV CYTOL
p420
sg50
V178
p421
sg85
(lp422
(VLUDUENA
VR F
tp423
asg17
I1998
sg44
V207
p424
sbag1
(g2
g3
NtRp425
(dp426
g52
V10.1126/science.290.5494.1151
p427
sg48
VSCIENCE
p428
sg50
V290
p429
sg85
(lp430
(VLYNCH
VM
tp431
asg17
I2000
sg44
V1151
p432
sbag1
(g2
g3
NtRp433
(dp434
g52
V10.1111/j.1432-1033.1997.00265.x
p435
sg48
VEUR J BIOCHEM
p436
sg50
V244
p437
sg85
(lp438
(VMACRAE
VT H
tp439
asg17
I1997
sg44
V265
p440
sbag1
(g2
g3
NtRp441
(dp442
g52
Nsg48
VJ CELL SCI
p443
sg50
V114
p444
sg85
(lp445
(VMCKEAN
VP G
tp446
asg17
I2001
sg44
V2723
p447
sbag1
(g2
g3
NtRp448
(dp449
g52
V10.1007/BF00015650
p450
sg48
VPLANT MOL BIOL
p451
sg50
V14
p452
sg85
(lp453
(VMONTOLIU
VL
tp454
asg17
I1990
sg44
VLANT
p455
sbag1
(g2
g3
NtRp456
(dp457
g52
Nsg48
VANNU REV PLANT PHYS
p458
sg50
V43
p459
sg85
(lp460
(VFOSKET
VD E
tp461
asg17
I1992
sg44
V201
p462
sbag1
(g2
g3
NtRp463
(dp464
g52
V10.1126/science.224.4651.874
p465
sg48
VSCIENCE
p466
sg50
V224
p467
sg85
(lp468
(VMOREJOHN
VL C
tp469
asg17
I1984
sg44
V874
p470
sbag1
(g2
g3
NtRp471
(dp472
g52
V10.1046/j.0960-7412.2001.01192.x
p473
sg48
VPLANT J
p474
sg50
V29
p475
sg85
(lp476
(VMORELLO
VL
tp477
asg17
I2002
sg44
VLANT
p478
sbag1
(g2
g3
NtRp479
(dp480
g52
V10.1038/34465
p481
sg48
VNATURE
p482
sg50
V391
p483
sg85
(lp484
(VNOGALES
VE
tp485
asg17
I1998
sg44
V199
p486
sbag1
(g2
g3
NtRp487
(dp488
g52
V10.1515/hfsg.1966.20.6.174
p489
sg48
VHOLZFORSCHUNG
p490
sg50
V20
p491
sg85
(lp492
(VNORBERG
VP H
tp493
asg17
I1966
sg44
V174
p494
sbag1
(g2
g3
NtRp495
(dp496
g52
V10.1126/science.1126551
p497
sg48
VSCIENCE
p498
sg50
V312
p499
sg85
(lp500
(VPAREDEZ
VA R
tp501
asg17
I2006
sg44
V1491
p502
sbag1
(g2
g3
NtRp503
(dp504
g52
V10.1111/j.1469-8137.2004.01176.x
p505
sg48
VNEW PHYTOL
p506
sg50
V164
p507
sg85
(lp508
(VPILATE
VG
tp509
asg17
I2004
sg44
V63
p510
sbag1
(g2
g3
NtRp511
(dp512
g52
Nsg48
VPLANTA
p513
sg50
V196
p514
sg85
(lp515
(VPRODHAN
VAKMA
tp516
asg17
I1995
sg44
VLANTA
p517
sbag1
(g2
g3
NtRp518
(dp519
g52
Nsg48
VGENETICS
p520
sg50
V162
p521
sg85
(lp522
(VRAMAKRISHNA
VW
tp523
asg17
I2002
sg44
V1389
p524
sbag1
(g2
g3
NtRp525
(dp526
g52
V10.1046/j.1365-313X.1993.04050875.x
p527
sg48
VPLANT J
p528
sg50
V4
sg85
(lp529
(VROGERS
VH J
tp530
asg17
I1993
sg44
VLANT
p531
sbag1
(g2
g3
NtRp532
(dp533
g52
V10.1105/tpc.005645
p534
sg48
VPLANT CELL
p535
sg50
V15
p536
sg85
(lp537
(VROMAGNOLI
VS
tp538
asg17
I2003
sg44
VLANT
p539
sbag1
(g2
g3
NtRp540
(dp541
g52
V10.1111/j.1432-1033.1994.tb18627.x
p542
sg48
VEUR J BIOCHEM
p543
sg50
V220
p544
sg85
(lp545
(VRUDIGER
VM
tp546
asg17
I1994
sg44
V309
p547
sbag1
(g2
g3
NtRp548
(dp549
g52
Nsg48
VMOL CLONING LAB MANU
p550
sg50
Nsg85
(lp551
(VSAMBROOK
VK J
tp552
asg17
I2001
sg44
Nsbag1
(g2
g3
NtRp553
(dp554
g52
V10.1007/s004250050077
p555
sg48
VPLANTA
p556
sg50
V201
p557
sg85
(lp558
(VSMERTENKO
VA
tp559
asg17
I1997
sg44
VLANTA
p560
sbag1
(g2
g3
NtRp561
(dp562
g52
V10.1105/tpc.4.5.549
p563
sg48
VPLANT CELL
p564
sg50
V4
sg85
(lp565
(VSNUSTAD
VD P
tp566
asg17
I1992
sg44
VLANT
p567
sbag1
(g2
g3
NtRp568
(dp569
g52
V10.1006/bbrc.2000.2571
p570
sg48
VBIOCHEM BIOPH RES CO
p571
sg50
V270
p572
sg85
(lp573
(VSTANCHI
VF
tp574
asg17
I2000
sg44
V1111
p575
sbag1
(g2
g3
NtRp576
(dp577
g52
V10.1146/annurev.cb.04.110188.003351
p578
sg48
VANNU REV CELL BIOL
p579
sg50
V4
sg85
(lp580
(VSULLIVAN
VK F
tp581
asg17
I1988
sg44
V687
p582
sbag1
(g2
g3
NtRp583
(dp584
g52
Nsg48
VHDB MOL CELLULAR MET
p585
sg50
Nsg85
(lp586
(VTOUCHELL
VD H
tp587
asg17
I2003
sg44
V305
p588
sbag1
(g2
g3
NtRp589
(dp590
g52
V10.1111/j.1469-8137.2006.01798.x
p591
sg48
VNEW PHYTOL
p592
sg50
V172
p593
sg85
(lp594
(VTSAI
VC J
tp595
asg17
I2006
sg44
V47
p596
sbag1
(g2
g3
NtRp597
(dp598
g52
V10.1126/science.1128691
p599
sg48
VSCIENCE
p600
sg50
V313
p601
sg85
(lp602
(VTUSKAN
VG A
tp603
asg17
I2006
sg44
V1596
p604
sbag1
(g2
g3
NtRp605
(dp606
g52
V10.1016/j.ppi.2004.09.008
p607
sg48
VCURR OPIN PLANT BIOL
p608
sg50
V7
sg85
(lp609
(VWASTENEYS
VG O
tp610
asg17
I2004
sg44
V651
p611
sbag1
(g2
g3
NtRp612
(dp613
g52
Nsg48
VMOL CELL BIOL
p614
sg50
V10
p615
sg85
(lp616
(VWEINSTEIN
VB
tp617
asg17
I1990
sg44
V5295
p618
sbag1
(g2
g3
NtRp619
(dp620
g52
V10.1038/nrm1260
p621
sg48
VNAT REV MOL CELL BIO
p622
sg50
V4
sg85
(lp623
(VWESTERMANN
VS
tp624
asg17
I2003
sg44
V938
p625
sbag1
(g2
g3
NtRp626
(dp627
g52
V10.1104/pp.121.1.181
p628
sg48
VPLANT PHYSIOL
p629
sg50
V121
p630
sg85
(lp631
(VWHITTAKER
VD J
tp632
asg17
I1999
sg44
VLANT
p633
sbag1
(g2
g3
NtRp634
(dp635
g52
V10.1093/pcp/pcg150
p636
sg48
VPLANT CELL PHYSIOL
p637
sg50
V44
p638
sg85
(lp639
(VYOSHIKAWA
VM
tp640
asg17
I2003
sg44
VLANT
p641
sbag1
(g2
g3
NtRp642
(dp643
g52
Nsg48
VPLANT CELL PHYSIOL
p644
sg50
V37
p645
sg85
(lp646
(VYOSHIMURA
VT
tp647
asg17
I1996
sg44
VLANT
p648
sbag1
(g2
g3
NtRp649
(dp650
g52
V10.1111/j.1365-313X.2007.03176.x
p651
sg48
VPLANT J
p652
sg50
V51
p653
sg85
(lp654
(VSPOKEVICIUS
VA V
tp655
asg17
I2007
sg44
VLANT
p656
sbag1
(g2
g3
NtRp657
(dp658
g52
V10.1105/tpc.005801
p659
sg48
VPLANT CELL
p660
sg50
V14
p661
sg85
(lp662
(VZHONG
VR Q
tp663
asg17
I2002
sg44
VLANT
p664
sbasb.