ccopy_reg
_reconstructor
p1
(ctethne.classes.paper
Paper
p2
c__builtin__
object
p3
NtRp4
(dp5
S'publisherCity'
p6
VROCKVILLE
p7
sS'reprintAddress'
p8
VRaikhel, N (reprint author), Univ Calif Riverside, Dept Bot & Plant Sci, Riverside, CA 92521 USA.
p9
sS'WC'
p10
VPlant Sciences
p11
sS'GA'
p12
V935IK
p13
sS'pageEnd'
p14
I564
sS'publisherAddress'
p15
V15501 MONONA DRIVE, ROCKVILLE, MD 20855 USA
p16
sS'documentType'
p17
VEditorial Material
p18
sS'subject'
p19
VPlant Sciences
p20
sS'isoSource'
p21
VPlant Physiol.
p22
sS'timesCited'
p23
(lp24
I14
aVZ9 16
p25
asS'PT'
p26
VJ
sS'title'
p27
VAdding Precision Tools To The Plant Biologists' Toolbox With Chemical Genomics
p28
sS'ISSN'
p29
(lp30
V0032-0889
p31
aVJ9 PLANT PHYSIOL
p32
asS'authors_full'
p33
(lp34
(VRAIKHEL
VN
tp35
a(VPIRRUNG
VM
tp36
asS'PG'
p37
I2
sS'PD'
p38
VJUN
p39
sS'pageStart'
p40
I563
sS'issue'
p41
I2
sS'journal'
p42
VPLANT PHYSIOLOGY
p43
sS'volume'
p44
V138
p45
sS'doi'
p46
V10.1104/pp.104.900155
p47
sS'emailAddress'
p48
Vnraikhel@ucr.edu
p49
sS'authorAddress'
p50
(lp51
VUniv Calif Riverside, Dept Bot & Plant Sci, Riverside, CA 92521 USA.
p52
aVUniv Calif Riverside, Dept Chem, Riverside, CA 92521 USA.
p53
aVUniv Calif Riverside, Ctr Plant Cell Biol, Riverside, CA 92521 USA.
p54
asS'date'
p55
I2005
sS'ER'
p56
V
sS'publisher'
p57
VAMER SOC PLANT BIOLOGISTS
p58
sS'authorKeywords'
p59
(lp60
VARABIDOPSIS
p61
aVGENETICS
p62
aVSPACE
p63
asS'language'
p64
VEnglish
p65
sS'wosid'
p66
VWOS:000229774200010
p67
sS'citationCount'
p68
I11
sS'authors_init'
p69
(lp70
(VRAIKHEL
VN
tp71
a(VPIRRUNG
VM
tp72
asS'citedReferences'
p73
(lp74
g1
(g2
g3
NtRp75
(dp76
g46
V10.1073/pnas.0404312101
p77
sg42
VP NATL ACAD SCI USA
p78
sg44
V101
p79
sg69
(lp80
(VARMSTRONG
VJ I
tp81
asg55
I2004
sg40
V14978
p82
sbag1
(g2
g3
NtRp83
(dp84
g46
V10.1038/ng0904-921
p85
sg42
VNAT GENET
p86
sg44
V36
p87
sg69
(lp88
(VAUSTIN
VC P
tp89
asg55
I2004
sg40
V921
p90
sbag1
(g2
g3
NtRp91
(dp92
g46
V10.1104/pp.103.031138
p93
sg42
VPLANT PHYSIOL
p94
sg44
V133
p95
sg69
(lp96
(VBLACKWELL
VH E
tp97
asg55
I2003
sg40
VLANT
p98
sbag1
(g2
g3
NtRp99
(dp100
g46
V10.1038/nature03192
p101
sg42
VNATURE
p102
sg44
V432
p103
sg69
(lp104
(VDOBSON
VC M
tp105
asg55
I2004
sg40
V824
p106
sbag1
(g2
g3
NtRp107
(dp108
g46
V10.1038/nature03193
p109
sg42
VNATURE
p110
sg44
V432
p111
sg69
(lp112
(VLIPINSKI
VC
tp113
asg55
I2004
sg40
V855
p114
sbag1
(g2
g3
NtRp115
(dp116
g46
V10.1126/science.270.5243.1809
p117
sg42
VSCIENCE
p118
sg44
V270
p119
sg69
(lp120
(VSCHALLER
VG E
tp121
asg55
I1995
sg40
V1809
p122
sbag1
(g2
g3
NtRp123
(dp124
g46
V10.1038/35038557
p125
sg42
VNAT REV GENET
p126
sg44
V1
sg69
(lp127
(VSTOCKWELL
VB R
tp128
asg55
I2000
sg40
V116
p129
sbag1
(g2
g3
NtRp130
(dp131
g46
V10.1073/pnas.0500222102
p132
sg42
VP NATL ACAD SCI USA
p133
sg44
V102
p134
sg69
(lp135
(VSURPIN
VM
tp136
asg55
I2005
sg40
V4902
p137
sbag1
(g2
g3
NtRp138
(dp139
g46
Nsg42
VNATURE
p140
sg44
V408
p141
sg69
(lp142
(VKAUL
VS
tp143
asg55
I2000
sg40
V796
p144
sbag1
(g2
g3
NtRp145
(dp146
g46
V10.1038/35066597
p147
sg42
VNATURE
p148
sg44
V410
p149
sg69
(lp150
(VWANG
VZ Y
tp151
asg55
I2001
sg40
V380
p152
sbag1
(g2
g3
NtRp153
(dp154
g46
V10.1073/pnas.0402121101
p155
sg42
VProceedings of the National Academy of Sciences of the United States of America
p156
sg44
V101
p157
sg69
(lp158
(VZOUHAR
VJ A N
tp159
asg55
I2004
sg40
Vroceedings
p160
sbasb.