ccopy_reg
_reconstructor
p1
(ctethne.classes.paper
Paper
p2
c__builtin__
object
p3
NtRp4
(dp5
S'publisherCity'
p6
VROCKVILLE
p7
sS'reprintAddress'
p8
VBennett, AB (reprint author), Univ Calif Davis, Dept Vegetable Crops, Mann Lab, Davis, CA 95616 USA.
p9
sS'WC'
p10
VPlant Sciences
p11
sS'GA'
p12
V345AA
p13
sS'abstract'
p14
VExpansins are plant proteins that have the capacity to induce extension in isolated cell walls and are thought to mediate pH-dependent: cell expansion. J.K.C. Rose, H.H. Lee, and A.B. Bennett ([1997] Proc Natl Acad Sci USA 94: 5955-5960) reported the identification of an expansin gene (LeExy1) that is specifically expressed in ripening tomato (Lycopersicon esculentum) fruit where cell wall disassembly, but not cell expansion, is prominent. Expansin expression during fruit ontogeny was examined using antibodies raised to recombinant LeExp1 or a cell elongation-related expansin from cucumber (CsExp1). The LeExy1 antiserum detected Expansins in extracts from ripe, but not preripe tomato fruit, in agreement with the pattern of LeExp1 mRNA accumulation. In contrast, antibodies to CsExp1 cross-reacted with expansins in early fruit development and the onset of ripening, but not at a later ripening stage. These data suggest that ripening-related and expansion-related expansin proteins have distinct antigenic epitopes despite overall high sequence identity. Expansin proteins were detected in a range of fruit species and showed considerable variation in abundance; however, appreciable levels of expansin were not present in fruit of the rin or Nr tomato mutants that exhibit delayed and reduced softening. LeExp1 protein accumulation was ethylene-regulated and matched the previously described expression of mRNA, suggesting that expression is not regulated at the level of translation. We report the first detection of expansin activity in several stages of fruit development and while characteristic creep activity was detected in young and developing tomato fruit and in ripe pear, avocado, and pepper, creep activity in ripe tomato showed qualitative differences, suggesting both hydrolytic and expansin activities.
p15
sS'pageEnd'
p16
I1592
sS'date'
p17
I2000
sS'documentType'
p18
VArticle
p19
sS'subject'
p20
VPlant Sciences
p21
sS'isoSource'
p22
VPlant Physiol.
p23
sS'timesCited'
p24
(lp25
I69
aVZ9 89
p26
asS'PT'
p27
VJ
sS'title'
p28
VDetection Of Expansin Proteins And Activity During Tomato Fruit Ontogeny
p29
sS'ISSN'
p30
(lp31
V0032-0889
p32
aVJ9 PLANT PHYSIOL
p33
asS'authors_full'
p34
(lp35
(VROSE
VJKC
tp36
a(VCOSGROVE
VDJ
tp37
a(VALBERSHEIM
VP
tp38
a(VDARVILL
VAG
tp39
a(VBENNETT
VAB
tp40
asS'PG'
p41
I10
sS'PD'
p42
VAUG
p43
sS'pageStart'
p44
I1583
sS'issue'
p45
I4
sS'RI'
p46
VBennett, Alan/D-8980-2011
p47
sS'journal'
p48
VPLANT PHYSIOLOGY
p49
sS'volume'
p50
V123
p51
sS'doi'
p52
V10.1104/pp.123.4.1583
p53
sS'authorAddress'
p54
(lp55
VUniv Calif Davis, Dept Vegetable Crops, Mann Lab, Davis, CA 95616 USA.
p56
aVUniv Georgia, Complex Carbohydrate Res Ctr, Athens, GA 30602 USA.
p57
aVUniv Georgia, Dept Biochem & Mol Biol, Athens, GA 30602 USA.
p58
aVPenn State Univ, Dept Biol, Mueller Lab 208, University Pk, PA 16802 USA.
p59
asS'publisherAddress'
p60
V15501 MONONA DRIVE, ROCKVILLE, MD 20855 USA
p61
sS'ER'
p62
V
sS'publisher'
p63
VAMER SOC PLANT PHYSIOLOGISTS
p64
sS'authorKeywords'
p65
(lp66
VGROWING CUCUMBER HYPOCOTYLS
p67
aVCELL-WALL EXTENSION
p68
aVDEEP-WATER RICE
p69
aVDIFFERENTIAL EXPRESSION
p70
aVGROWTH
p71
aVGENE
p72
aVELONGATION
p73
asS'OI'
p74
VBennett, Alan/0000-0002-3684-4307
p75
sS'language'
p76
VEnglish
p77
sS'wosid'
p78
VWOS:000088792200042
p79
sS'citationCount'
p80
I27
sS'authors_init'
p81
(lp82
(VROSE
VJ K C
tp83
a(VCOSGROVE
VD J
tp84
a(VALBERSHEIM
VP
tp85
a(VDARVILL
VA G
tp86
a(VBENNETT
VA B
tp87
asS'citedReferences'
p88
(lp89
g1
(g2
g3
NtRp90
(dp91
g52
V10.1023/A:1006130018931
p92
sg48
VPLANT MOL BIOL
p93
sg50
V39
p94
sg81
(lp95
(VBRUMMELL
VD A
tp96
asg17
I1999
sg44
VLANT
p97
sbag1
(g2
g3
NtRp98
(dp99
g52
V10.1104/pp.122.2.527
p100
sg48
VPLANT PHYSIOL
p101
sg50
V122
p102
sg81
(lp103
(VCATALA
VC
tp104
asg17
I2000
sg44
VLANT
p105
sbag1
(g2
g3
NtRp106
(dp107
g52
V10.1104/pp.113.4.1137
p108
sg48
VPLANT PHYSIOL
p109
sg50
V113
p110
sg81
(lp111
(VCHO
VH T
tp112
asg17
I1997
sg44
VLANT
p113
sbag1
(g2
g3
NtRp114
(dp115
g52
V10.1105/tpc.9.9.1661
p116
sg48
VPLANT CELL
p117
sg50
V9
sg81
(lp118
(VCHO
VH T
tp119
asg17
I1997
sg44
VLANT
p120
sbag1
(g2
g3
NtRp121
(dp122
g52
V10.1104/pp.118.2.333
p123
sg48
VPLANT PHYSIOL
p124
sg50
V118
p125
sg81
(lp126
(VCOSGROVE
VD J
tp127
asg17
I1998
sg44
VLANT
p128
sbag1
(g2
g3
NtRp129
(dp130
g52
Nsg48
VJ EXP BOT
p131
sg50
V45
p132
sg81
(lp133
(VCOSGROVE
VD J
tp134
asg17
I1994
sg44
V1711
p135
sbag1
(g2
g3
NtRp136
(dp137
g52
V10.1073/pnas.94.12.6559
p138
sg48
VP NATL ACAD SCI USA
p139
sg50
V94
p140
sg81
(lp141
(VCOSGROVE
VD J
tp142
asg17
I1997
sg44
V6559
p143
sbag1
(g2
g3
NtRp144
(dp145
g52
Nsg48
VPLANT PHYSIOL
p146
sg50
V103
p147
sg81
(lp148
(VCOSGROVE
VD J
tp149
asg17
I1993
sg44
VLANT
p150
sbag1
(g2
g3
NtRp151
(dp152
g52
V10.1007/BF00392162
p153
sg48
VPLANTA
p154
sg50
V177
p155
sg81
(lp156
(VCOSGROVE
VD J
tp157
asg17
I1989
sg44
VLANTA
p158
sbag1
(g2
g3
NtRp159
(dp160
g52
V10.1146/annurev.pp.42.060191.003331
p161
sg48
VANNU REV PLANT PHYS
p162
sg50
V42
p163
sg81
(lp164
(VFISCHER
VR L
tp165
asg17
I1991
sg44
V675
p166
sbag1
(g2
g3
NtRp167
(dp168
g52
V10.1105/tpc.5.10.1439
p169
sg48
VPLANT CELL
p170
sg50
V5
sg81
(lp171
(VGILLASPY
VG
tp172
asg17
I1993
sg44
VLANT
p173
sbag1
(g2
g3
NtRp174
(dp175
g52
Nsg48
VPLANT PHYSIOL
p176
sg50
V111
p177
sg81
(lp178
(VGONZALEZBOSCH
VC
tp179
asg17
I1996
sg44
VLANT
p180
sbag1
(g2
g3
NtRp181
(dp182
g52
V10.1016/0378-1119(88)90330-7
p183
sg48
VGENE
p184
sg50
V73
p185
sg81
(lp186
(VHIGGINS
VD G
tp187
asg17
I1988
sg44
V237
p188
sbag1
(g2
g3
NtRp189
(dp190
g52
Nsg48
VPLANT J
p191
sg50
V8
sg81
(lp192
(VKELLER
VE
tp193
asg17
I1995
sg44
VLANT
p194
sbag1
(g2
g3
NtRp195
(dp196
g52
V10.1034/j.1399-3054.1997.1010408.x
p197
sg48
VPHYSIOL PLANTARUM
p198
sg50
V101
p199
sg81
(lp200
(VLELIEVRE
VJ M
tp201
asg17
I1997
sg44
VHYSIOL
p202
sbag1
(g2
g3
NtRp203
(dp204
g52
Nsg48
VPLANTA
p205
sg50
V191
p206
sg81
(lp207
(VLI
VZ C
tp208
asg17
I1993
sg44
VLANTA
p209
sbag1
(g2
g3
NtRp210
(dp211
g52
V10.1104/pp.118.3.907
p212
sg48
VPLANT PHYSIOL
p213
sg50
V118
p214
sg81
(lp215
(VLINK
VB M
tp216
asg17
I1998
sg44
VLANT
p217
sbag1
(g2
g3
NtRp218
(dp219
g52
Nsg48
VPLANT CELL
p220
sg50
V4
sg81
(lp221
(VMCQUEENMASON
VS
tp222
asg17
I1992
sg44
VLANT
p223
sbag1
(g2
g3
NtRp224
(dp225
g52
V10.1126/science.1925603
p226
sg48
VSCIENCE
p227
sg50
V254
p228
sg81
(lp229
(VOELLER
VP W
tp230
asg17
I1991
sg44
V437
p231
sbag1
(g2
g3
NtRp232
(dp233
g52
V10.1016/S0167-4781(98)00065-7
p234
sg48
VBBA
p235
sg50
V1398
p236
sg81
(lp237
(VORFORD
VS J
tp238
asg17
I1998
sg44
V342
p239
sbag1
(g2
g3
NtRp240
(dp241
g52
V10.1104/pp.99.4.1271
p242
sg48
VPLANT PHYSIOL
p243
sg50
V99
p244
sg81
(lp245
(VRAYLE
VD L
tp246
asg17
I1992
sg44
VLANT
p247
sbag1
(g2
g3
NtRp248
(dp249
g52
Nsg48
VPLANT CELL
p250
sg50
V10
p251
sg81
(lp252
(VREINHARDT
VD
tp253
asg17
I1998
sg44
VLANT
p254
sbag1
(g2
g3
NtRp255
(dp256
g52
V10.1104/pp.117.2.345
p257
sg48
VPLANT PHYSIOL
p258
sg50
V117
p259
sg81
(lp260
(VROSE
VJ K C
tp261
asg17
I1998
sg44
VLANT
p262
sbag1
(g2
g3
NtRp263
(dp264
g52
V10.1073/pnas.94.11.5955
p265
sg48
VP NATL ACAD SCI USA
p266
sg50
V94
p267
sg81
(lp268
(VROSE
VJ K C
tp269
asg17
I1997
sg44
V5955
p270
sbag1
(g2
g3
NtRp271
(dp272
g52
V10.1016/S1360-1385(99)01405-3
p273
sg48
VTRENDS PLANT SCI
p274
sg50
V4
sg81
(lp275
(VROSE
VJ K C
tp276
asg17
I1999
sg44
V176
p277
sbag1
(g2
g3
NtRp278
(dp279
g52
V10.1002/dvg.1020140406
p280
sg48
VDEV GENET
p281
sg50
V14
p282
sg81
(lp283
(VTHEOLOGIS
VA
tp284
asg17
I1993
sg44
V282
p285
sbag1
(g2
g3
NtRp286
(dp287
g52
Nsg48
VPLANT PHYSIOL
p288
sg50
V111
p289
sg81
(lp290
(VWU
VY J
tp291
asg17
I1996
sg44
VLANT
p292
sbasb.