ccopy_reg
_reconstructor
p1
(ctethne.classes.paper
Paper
p2
c__builtin__
object
p3
NtRp4
(dp5
S'publisherCity'
p6
VROCKVILLE
p7
sS'reprintAddress'
p8
VBowler, C (reprint author), Staz Zool Anton Dohrn, Plant Mol Biol Lab, Villa Comunale, I-80121 Naples, Italy.
p9
sS'WC'
p10
VPlant Sciences
p11
sS'GA'
p12
V503WK
p13
sS'pageEnd'
p14
I1345
sS'publisherAddress'
p15
V15501 MONONA DRIVE, ROCKVILLE, MD 20855 USA
p16
sS'documentType'
p17
VLetter
p18
sS'subject'
p19
VPlant Sciences
p20
sS'isoSource'
p21
VPlant Physiol.
p22
sS'timesCited'
p23
(lp24
I34
aVZ9 36
p25
asS'PT'
p26
VJ
sS'title'
p27
VExploring Bioinorganic Pattern Formation In Diatoms. A Story Of Polarized Trafficking
p28
sS'ISSN'
p29
(lp30
V0032-0889
p31
aVJ9 PLANT PHYSIOL
p32
asS'authors_full'
p33
(lp34
(VZURZOLO
VC
tp35
a(VBOWLER
VC
tp36
asS'PG'
p37
I7
sS'PD'
p38
VDEC
p39
sS'pageStart'
p40
I1339
sS'issue'
p41
I4
sS'journal'
p42
VPLANT PHYSIOLOGY
p43
sS'volume'
p44
V127
p45
sS'doi'
p46
V10.1104/pp.010709
p47
sS'emailAddress'
p48
Vchris@alpha.szn.it
p49
sS'authorAddress'
p50
(lp51
VStaz Zool Anton Dohrn, Plant Mol Biol Lab, I-80121 Naples, Italy.
p52
aVUniv Naples Federico 2, Dipartimento Biol & Patol Cellulare & Mol, Naples, Italy.
p53
asS'date'
p54
I2001
sS'ER'
p55
V
sS'publisher'
p56
VAMER SOC PLANT BIOLOGISTS
p57
sS'authorKeywords'
p58
(lp59
VCELL-WALL
p60
aVCYLINDROTHECA-FUSIFORMIS
p61
aVSECRETORY GRANULES
p62
aVMARINE DIATOMS
p63
aVSILICON DEPOSITION
p64
aVREPORTER GENES
p65
aVPROTEIN
p66
aVBACILLARIOPHYCEAE
p67
aVMORPHOGENESIS
p68
aVFAMILY
p69
asS'language'
p70
VEnglish
p71
sS'wosid'
p72
VWOS:000172824500004
p73
sS'citationCount'
p74
I59
sS'authors_init'
p75
(lp76
(VZURZOLO
VC
tp77
a(VBOWLER
VC
tp78
asS'citedReferences'
p79
(lp80
g1
(g2
g3
NtRp81
(dp82
g46
V10.1007/s004380050264
p83
sg42
VMOL GEN GENET
p84
sg44
V252
p85
sg75
(lp86
(VAPT
VK E
tp87
asg54
I1996
sg40
V572
p88
sbag1
(g2
g3
NtRp89
(dp90
g46
V10.1126/science.290.5493.972
p91
sg42
VSCIENCE
p92
sg44
V290
p93
sg75
(lp94
(VBALDAUF
VS L
tp95
asg54
I2000
sg40
V972
p96
sbag1
(g2
g3
NtRp97
(dp98
g46
Nsg42
VEMBO J
p99
sg44
V6
sg75
(lp100
(VBENEDUM
VU M
tp101
asg54
I1987
sg40
V1203
p102
sbag1
(g2
g3
NtRp103
(dp104
g46
V10.1016/0006-291X(83)91636-4
p105
sg42
VBIOCHEM BIOPH RES CO
p106
sg44
V114
p107
sg75
(lp108
(VBHATTACHARYYA
VP
tp109
asg54
I1983
sg40
V365
p110
sbag1
(g2
g3
NtRp111
(dp112
g46
V10.1111/j.0022-3646.1994.00045.x
p113
sg42
VJ PHYCOL
p114
sg44
V30
p115
sg75
(lp116
(VBRZEZINSKI
VM A
tp117
asg54
I1994
sg40
V45
p118
sbag1
(g2
g3
NtRp119
(dp120
g46
V10.3354/meps067083
p121
sg42
VMAR ECOL PROG SER
p122
sg44
V67
p123
sg75
(lp124
(VBRZEZINSKI
VM A
tp125
asg54
I1990
sg40
V83
p126
sbag1
(g2
g3
NtRp127
(dp128
g46
Nsg42
VJ BIOL CHEM
p129
sg44
V267
p130
sg75
(lp131
(VCASTLE
VA M
tp132
asg54
I1992
sg40
V13093
p133
sbag1
(g2
g3
NtRp134
(dp135
g46
V10.1038/35052017
p136
sg42
VNAT REV MOL CELL BIO
p137
sg44
V2
sg75
(lp138
(VCHEN
VY A
tp139
asg54
I2001
sg40
V98
p140
sbag1
(g2
g3
NtRp141
(dp142
g46
V10.1111/j.0022-3646.1995.01004.x
p143
sg42
VJ PHYCOL
p144
sg44
V31
p145
sg75
(lp146
(VDUNAHAY
VT G
tp147
asg54
I1995
sg40
V1004
p148
sbag1
(g2
g3
NtRp149
(dp150
g46
V10.1007/PL00011773
p151
sg42
VMAR BIOTECHNOL
p152
sg44
V1
sg75
(lp153
(VFALCIATORE
VA
tp154
asg54
I1999
sg40
V239
p155
sbag1
(g2
g3
NtRp156
(dp157
g46
V10.1126/science.281.5374.200
p158
sg42
VSCIENCE
p159
sg44
V281
p160
sg75
(lp161
(VFALKOWSKI
VP G
tp162
asg54
I1998
sg40
V200
p163
sbag1
(g2
g3
NtRp164
(dp165
g46
V10.1046/j.1529-8817.1999.3510113.x
p166
sg42
VJ PHYCOL
p167
sg44
V35
p168
sg75
(lp169
(VFISCHER
VH
tp170
asg54
I1999
sg40
V113
p171
sbag1
(g2
g3
NtRp172
(dp173
g46
Nsg42
VINT REV CYTOL
p174
sg44
V150
p175
sg75
(lp176
(VGORDON
VR
tp177
asg54
I1994
sg40
V243
p178
sbag1
(g2
g3
NtRp179
(dp180
g46
V10.1038/35070029
p181
sg42
VNAT CELL BIOL
p182
sg44
V3
sg75
(lp183
(VGUO
VW
tp184
asg54
I2001
sg40
V353
p185
sbag1
(g2
g3
NtRp186
(dp187
g46
Nsg42
VMOL GEN GENET
p188
sg44
V260
p189
sg75
(lp190
(VHILDEBRAND
VM
tp191
asg54
I1998
sg40
V480
p192
sbag1
(g2
g3
NtRp193
(dp194
g46
V10.1038/385688b0
p195
sg42
VNATURE
p196
sg44
V385
p197
sg75
(lp198
(VHILDEBRAND
VM
tp199
asg54
I1997
sg40
V688
p200
sbag1
(g2
g3
NtRp201
(dp202
g46
V10.1016/0968-0004(91)90012-K
p203
sg42
VTRENDS BIOCHEM SCI
p204
sg44
V16
p205
sg75
(lp206
(VHUTTNER
VW B
tp207
asg54
I1991
sg40
V27
p208
sbag1
(g2
g3
NtRp209
(dp210
g46
Nsg42
VORIGIN EVOLUTION PLA
p211
sg44
Nsg75
(lp212
(VKOWALLIK
VK V
tp213
asg54
I1992
sg40
Nsbag1
(g2
g3
NtRp214
(dp215
g46
V10.1074/jbc.M102093200
p216
sg42
VJ BIOL CHEM
p217
sg44
V276
p218
sg75
(lp219
(VKROGER
VN
tp220
asg54
I2001
sg40
V26066
p221
sbag1
(g2
g3
NtRp222
(dp223
g46
V10.1126/science.286.5442.1129
p224
sg42
VSCIENCE
p225
sg44
V286
p226
sg75
(lp227
(VKROGER
VN
tp228
asg54
I1999
sg40
V1129
p229
sbag1
(g2
g3
NtRp230
(dp231
g46
V10.1111/j.1432-1033.1997.00099.x
p232
sg42
VEUR J BIOCHEM
p233
sg44
V250
p234
sg75
(lp235
(VKROGER
VN
tp236
asg54
I1997
sg40
V99
p237
sbag1
(g2
g3
NtRp238
(dp239
g46
V10.1016/S1434-4610(98)70029-X
p240
sg42
VPROTIST
p241
sg44
V149
p242
sg75
(lp243
(VKROGER
VN
tp244
asg54
I1998
sg40
VROTIST
p245
sbag1
(g2
g3
NtRp246
(dp247
g46
V10.1078/1434-4610-00024
p248
sg42
VPROTIST
p249
sg44
V151
p250
sg75
(lp251
(VKROGER
VN
tp252
asg54
I2000
sg40
VROTIST
p253
sbag1
(g2
g3
NtRp254
(dp255
g46
V10.1073/pnas.260496497
p256
sg42
VP NATL ACAD SCI USA
p257
sg44
V97
p258
sg75
(lp259
(VKROGER
VN
tp260
asg54
I2000
sg40
V14133
p261
sbag1
(g2
g3
NtRp262
(dp263
g46
Nsg42
VEMBO J
p264
sg44
V13
p265
sg75
(lp266
(VKROGER
VN
tp267
asg54
I1994
sg40
V4676
p268
sbag1
(g2
g3
NtRp269
(dp270
g46
V10.1023/A:1006256300969
p271
sg42
VPLANT MOL BIOL
p272
sg44
V40
p273
sg75
(lp274
(VLEBLANC
VC
tp275
asg54
I1999
sg40
VLANT
p276
sbag1
(g2
g3
NtRp277
(dp278
g46
Nsg42
VHETEROKONTOPHYTA BAC
p279
sg44
Nsg75
(lp280
(VLEE
VR E
tp281
asg54
I1999
sg40
V415
p282
sbag1
(g2
g3
NtRp283
(dp284
g46
V10.1007/BF01403453
p285
sg42
VPROTOPLASMA
p286
sg44
V151
p287
sg75
(lp288
(VLI
VC W
tp289
asg54
I1989
sg40
VROTOPLASMA
p290
sbag1
(g2
g3
NtRp291
(dp292
g46
V10.1007/BF01279720
p293
sg42
VPROTOPLASMA
p294
sg44
V124
p295
sg75
(lp296
(VLI
VC W
tp297
asg54
I1985
sg40
VROTOPLASMA
p298
sbag1
(g2
g3
NtRp299
(dp300
g46
Nsg42
VTRENDS CELL BIOL
p301
sg44
V3
sg75
(lp302
(VLIPPINCOTTSCHWAJ
S''
tp303
asg54
I1983
sg40
V81
p304
sbag1
(g2
g3
NtRp305
(dp306
g46
Nsg42
VALGAE INTRO PHYCOLOG
p307
sg44
Nsg75
(lp308
(VMANN
VD G
tp309
asg54
I1997
sg40
Nsbag1
(g2
g3
NtRp310
(dp311
g46
V10.1007/BF00027999
p312
sg42
VHYDROBIOLOGIA
p313
sg44
V269
p314
sg75
(lp315
(VMANN
VD G
tp316
asg54
I1993
sg40
V11
p317
sbag1
(g2
g3
NtRp318
(dp319
g46
V10.1038/382313a0
p320
sg42
VNATURE
p321
sg44
V382
p322
sg75
(lp323
(VMANN
VS
tp324
asg54
I1996
sg40
V313
p325
sbag1
(g2
g3
NtRp326
(dp327
g46
V10.1046/j.1529-8817.2000.00019.x
p328
sg42
VJ PHYCOL
p329
sg44
V36
p330
sg75
(lp331
(VMARTIN-JEZEQUEL
VV
tp332
asg54
I2000
sg40
V821
p333
sbag1
(g2
g3
NtRp334
(dp335
g46
Nsg42
VNOVA HEDWIGIA
p336
sg44
V65
p337
sg75
(lp338
(VMEDLIN
VL K
tp339
asg54
I1997
sg40
V1
sbag1
(g2
g3
NtRp340
(dp341
g46
Nsg42
VREV EVOLUTION DIATOM
p342
sg44
Nsg75
(lp343
(VMEDLIN
VL K
tp344
asg54
I2000
sg40
V13
p345
sbag1
(g2
g3
NtRp346
(dp347
g46
V10.1016/0955-0674(90)90105-N
p348
sg42
VCurrent Opinion in Cell Biology
p349
sg44
V2
sg75
(lp350
(VMILLER
VS G
tp351
asg54
I1990
sg40
V642
p352
sbag1
(g2
g3
NtRp353
(dp354
g46
V10.1002/bies.1048
p355
sg42
VBIOESSAYS
p356
sg44
V23
p357
sg75
(lp358
(VMULLINS
VC
tp359
asg54
I2001
sg40
V333
p360
sbag1
(g2
g3
NtRp361
(dp362
g46
V10.2216/i0031-8884-35-4-308.1
p363
sg42
VPHYCOLOGIA
p364
sg44
V35
p365
sg75
(lp366
(VNORTON
VT A
tp367
asg54
I1996
sg40
VHYCOLOGIA
p368
sbag1
(g2
g3
NtRp369
(dp370
g46
V10.1016/S0167-7799(99)01321-9
p371
sg42
VTRENDS BIOTECHNOL
p372
sg44
V17
p373
sg75
(lp374
(VPARKINSON
VJ
tp375
asg54
I1999
sg40
V190
p376
sbag1
(g2
g3
NtRp377
(dp378
g46
V10.1016/0092-8674(91)90517-3
p379
sg42
VCELL
p380
sg44
V67
p381
sg75
(lp382
(VPELHAM
VH R B
tp383
asg54
I1991
sg40
V449
p384
sbag1
(g2
g3
NtRp385
(dp386
g46
V10.1016/S0962-8924(01)01929-8
p387
sg42
VTRENDS CELL BIOL
p388
sg44
V11
p389
sg75
(lp390
(VPELHAM
VH R B
tp391
asg54
I2001
sg40
V99
p392
sbag1
(g2
g3
NtRp393
(dp394
g46
V10.1007/BF01287625
p395
sg42
VPROTOPLASMA
p396
sg44
V120
p397
sg75
(lp398
(VPICKETTHEAPS
VJ D
tp399
asg54
I1984
sg40
VROTOPLASMA
p400
sbag1
(g2
g3
NtRp401
(dp402
g46
Nsg42
VPROGR PHYCOLOGICAL R
p403
sg44
V7
sg75
(lp404
(VPICKETT-HEAPS
VJ D
tp405
asg54
I1990
sg40
VROGR
p406
sbag1
(g2
g3
NtRp407
(dp408
g46
V10.1111/j.1469-185X.1983.tb00385.x
p409
sg42
VBIOL REV
p410
sg44
V58
p411
sg75
(lp412
(VRAVEN
VJ A
tp413
asg54
I1983
sg40
V179
p414
sbag1
(g2
g3
NtRp415
(dp416
g46
V10.1074/jbc.273.47.31180
p417
sg42
VJ BIOL CHEM
p418
sg44
V273
p419
sg75
(lp420
(VRINDLER
VM J
tp421
asg54
I1998
sg40
V31180
p422
sbag1
(g2
g3
NtRp423
(dp424
g46
V10.1007/PL00000804
p425
sg42
VCELL MOL LIFE SCI
p426
sg44
V58
p427
sg75
(lp428
(VSCALA
VS
tp429
asg54
I2001
sg40
V1666
p430
sbag1
(g2
g3
NtRp431
(dp432
g46
V10.1007/BF01279316
p433
sg42
VPROTOPLASMA
p434
sg44
V100
p435
sg75
(lp436
(VSCHMID
VA M M
tp437
asg54
I1979
sg40
VROTOPLASMA
p438
sbag1
(g2
g3
NtRp439
(dp440
g46
V10.1007/BF01666388
p441
sg42
VPROTOPLASMA
p442
sg44
V181
p443
sg75
(lp444
(VSCHMID
VA M M
tp445
asg54
I1994
sg40
VROTOPLASMA
p446
sbag1
(g2
g3
NtRp447
(dp448
g46
V10.1073/pnas.95.11.6234
p449
sg42
VP NATL ACAD SCI USA
p450
sg44
V95
p451
sg75
(lp452
(VSHIMIZU
VK
tp453
asg54
I1998
sg40
V6234
p454
sbag1
(g2
g3
NtRp455
(dp456
g46
Nsg42
VEMBO J
p457
sg44
V15
p458
sg75
(lp459
(VTERBUSH
VD R
tp460
asg54
I1996
sg40
V6483
p461
sbag1
(g2
g3
NtRp462
(dp463
g46
V10.1016/S0167-4889(98)00059-7
p464
sg42
VBBA
p465
sg44
V1404
p466
sg75
(lp467
(VTOOZE
VS A
tp468
asg54
I1998
sg40
V231
p469
sbag1
(g2
g3
NtRp470
(dp471
g46
Nsg42
VJ PHYCOL
p472
sg44
V35
p473
sg75
(lp474
(VVAN
VD E POLL W H
tp475
asg54
I1999
sg40
V1044
p476
sbag1
(g2
g3
NtRp477
(dp478
g46
V10.1016/0955-0674(91)90035-W
p479
sg42
VCurr Opin Cell Biol
p480
sg44
V3
sg75
(lp481
(VVON
VFIGURA K
tp482
asg54
I1991
sg40
V642
p483
sbag1
(g2
g3
NtRp484
(dp485
g46
V10.1046/j.1529-8817.1999.3530548.x
p486
sg42
VJ PHYCOL
p487
sg44
V35
p488
sg75
(lp489
(VVRIELING
VE G
tp490
asg54
I1999
sg40
V548
p491
sbag1
(g2
g3
NtRp492
(dp493
g46
V10.1034/j.1600-0854.2000.010902.x
p494
sg42
VTRAFFIC
p495
sg44
V1
sg75
(lp496
(VWOODMAN
VP G
tp497
asg54
I2000
sg40
V695
p498
sbag1
(g2
g3
NtRp499
(dp500
g46
V10.1083/jcb.151.5.F31
p501
sg42
VJ CELL BIOL
p502
sg44
V151
p503
sg75
(lp504
(VZAHRAOUI
VA
tp505
asg54
I2000
sg40
VF31
p506
sbag1
(g2
g3
NtRp507
(dp508
g46
V10.1046/j.1529-8817.2000.99164.x
p509
sg42
VJ PHYCOL
p510
sg44
V36
p511
sg75
(lp512
(VZASLAVSKAIA
VL A
tp513
asg54
I2000
sg40
V379
p514
sbag1
(g2
g3
NtRp515
(dp516
g46
V10.1038/35052055
p517
sg42
VNAT REV MOL CELL BIO
p518
sg44
V2
sg75
(lp519
(VZERIAL
VM
tp520
asg54
I2001
sg40
V107
p521
sbasb.