ccopy_reg
_reconstructor
p1
(ctethne.classes.paper
Paper
p2
c__builtin__
object
p3
NtRp4
(dp5
S'publisherCity'
p6
VROCKVILLE
p7
sS'reprintAddress'
p8
VBerger, S (reprint author), Univ Wurzburg, Bioctr, Julius von Sachs Inst Biosci, Dept Pharmaceut Biol, D-97082 Wurzburg, Germany.
p9
sS'WC'
p10
VPlant Sciences
p11
sS'GA'
p12
V117XZ
p13
sS'FX'
p14
(lp15
VThis work was supported by the Graduiertenkolleg 1342 and the
p16
aVSonderforschungsbereich 567.
p17
asS'abstract'
p18
VJasmonates are oxylipin signals that play important roles in the development of fertile flowers and in defense against pathogens and herbivores in leaves. The aim of this work was to understand the synthesis and function of jasmonates in roots. Grafting experiments with a jasmonate-deficient mutant demonstrated that roots produce jasmonates independently of leaves, despite low expression of biosynthetic enzymes. Levels of 12-oxo-phytodienoic acid, jasmonic acid, and its isoleucine derivative increased in roots upon osmotic and drought stress. Wounding resulted in a decrease of preformed 12-oxo-phytodienoic acid concomitant with an increase of jasmonic acid and jasmonoyl-isoleucine. 13-Lipoxygenases catalyze the first step of lipid oxidation leading to jasmonate production. Analysis of 13-lipoxygenase-deficient mutant lines showed that only one of the four 13-lipoxygenases, LOX6, is responsible and essential for stress-induced jasmonate accumulation in roots. In addition, LOX6 was required for production of basal 12-oxo-phytodienoic acid in leaves and roots. Loss-of-function mutants of LOX6 were more attractive to a detritivorous crustacean and more sensitive to drought, indicating that LOX6-derived oxylipins are important for the responses to abiotic and biotic factors.
p19
sS'pageEnd'
p20
I2170
sS'date'
p21
I2013
sS'documentType'
p22
VArticle
p23
sS'subject'
p24
VPlant Sciences
p25
sS'isoSource'
p26
VPlant Physiol.
p27
sS'timesCited'
p28
(lp29
I1
aVZ9 1
p30
asS'funding'
p31
(lp32
(V[Graduiertenkolleg 1342]
Ntp33
a(V[Sonderforschungsbereich 567]
Ntp34
asS'PT'
p35
VJ
sS'title'
p36
VLipoxygenase6-Dependent Oxylipin Synthesis In Roots Is Required For Abiotic And Biotic Stress Resistance Of Arabidopsis
p37
sS'ISSN'
p38
(lp39
V0032-0889
p40
aVJ9 PLANT PHYSIOL
p41
asS'authors_full'
p42
(lp43
(VGREBNER
VWIEBKE
tp44
a(VSTINGL
VNADJA E
tp45
a(VOENEL
VAYLA
tp46
a(VMUELLER
VMARTIN J
tp47
a(VBERGER
VSUSANNE
tp48
asS'PG'
p49
I12
sS'PD'
p50
VAPR
p51
sS'pageStart'
p52
I2159
sS'issue'
p53
I4
sS'journal'
p54
VPLANT PHYSIOLOGY
p55
sS'volume'
p56
V161
p57
sS'doi'
p58
V10.1104/pp.113.214544
p59
sS'emailAddress'
p60
Vberger@biozentrum.uni-wuerzburg.de
p61
sS'authorAddress'
p62
V[Grebner, Wiebke; Stingl, Nadja E.; Oenel, Ayla; Mueller, Martin J.; Berger, Susanne] Univ Wurzburg, Bioctr, Julius von Sachs Inst Biosci, Dept Pharmaceut Biol, D-97082 Wurzburg, Germany.
p63
sS'publisherAddress'
p64
V15501 MONONA DRIVE, ROCKVILLE, MD 20855 USA
p65
sS'ER'
p66
V
sS'publisher'
p67
VAMER SOC PLANT BIOLOGISTS
p68
sS'authorKeywords'
p69
(lp70
VJASMONIC ACID
p71
aVDEFENSE RESPONSES
p72
aVMETHYL JASMONATE
p73
aVGENE-EXPRESSION
p74
aVINSECT ATTACK
p75
aVMALE-STERILE
p76
aVTHALIANA
p77
aVPATHWAY
p78
aVACCUMULATION
p79
aVPLANTS
p80
asS'language'
p81
VEnglish
p82
sS'wosid'
p83
VWOS:000316987900045
p84
sS'citationCount'
p85
I49
sS'authors_init'
p86
(lp87
(VGREBNER
VW
tp88
a(VSTINGL
VN E
tp89
a(VOENEL
VA
tp90
a(VMUELLER
VM J
tp91
a(VBERGER
VS
tp92
asS'citedReferences'
p93
(lp94
g1
(g2
g3
NtRp95
(dp96
g58
V10.1111/j.1469-8137.2010.03272.x
p97
sg54
VNEW PHYTOL
p98
sg56
V187
p99
sg86
(lp100
(VATTARD
VA
tp101
asg21
I2010
sg52
V449
p102
sbag1
(g2
g3
NtRp103
(dp104
g58
V10.1007/s11745-008-3245-7
p105
sg54
VLIPIDS
p106
sg56
V44
p107
sg86
(lp108
(VBANNENBERG
VG
tp109
asg21
I2009
sg52
V85
p110
sbag1
(g2
g3
NtRp111
(dp112
g58
V10.1104/pp.103.4.1133
p113
sg54
VPLANT PHYSIOL
p114
sg56
V103
p115
sg86
(lp116
(VBELL
VE
tp117
asg21
I1993
sg52
VLANT
p118
sbag1
(g2
g3
NtRp119
(dp120
g58
V10.1073/pnas.92.19.8675
p121
sg54
VP NATL ACAD SCI USA
p122
sg56
V92
p123
sg86
(lp124
(VBELL
VE
tp125
asg21
I1995
sg52
V8675
p126
sbag1
(g2
g3
NtRp127
(dp128
g58
V10.1111/j.1365-313X.2009.03820.x
p129
sg54
VPLANT J
p130
sg56
V58
p131
sg86
(lp132
(VBEYHL
VD
tp133
asg21
I2009
sg52
VLANT
p134
sbag1
(g2
g3
NtRp135
(dp136
g58
V10.1111/j.1365-313X.2006.03002.x
p137
sg54
VPLANT J
p138
sg56
V49
p139
sg86
(lp140
(VBONAVENTURE
VG
tp141
asg21
I2007
sg52
VLANT
p142
sbag1
(g2
g3
NtRp143
(dp144
g58
V10.1073/pnas.0606603103
p145
sg54
VP NATL ACAD SCI USA
p146
sg56
V103
p147
sg86
(lp148
(VBREITHAUPT
VC
tp149
asg21
I2006
sg52
V14337
p150
sbag1
(g2
g3
NtRp151
(dp152
g58
V10.1146/annurev.arplant.043008.092007
p153
sg54
VANNU REV PLANT BIOL
p154
sg56
V60
p155
sg86
(lp156
(VBROWSE
VJ
tp157
asg21
I2009
sg52
V183
p158
sbag1
(g2
g3
NtRp159
(dp160
g58
V10.1104/pp.107.115683
p161
sg54
VPLANT PHYSIOL
p162
sg56
V146
p163
sg86
(lp164
(VBROWSE
VJ
tp165
asg21
I2008
sg52
VLANT
p166
sbag1
(g2
g3
NtRp167
(dp168
g58
V10.1016/j.phytochem.2009.08.004
p169
sg54
VPHYTOCHEMISTRY
p170
sg56
V70
p171
sg86
(lp172
(VBROWSE
VJ
tp173
asg21
I2009
sg52
VHYTOCHEMISTRY
p174
sbag1
(g2
g3
NtRp175
(dp176
g58
V10.1104/pp.106.082115
p177
sg54
VPLANT PHYSIOL
p178
sg56
V142
p179
sg86
(lp180
(VBUSEMAN
VC M
tp181
asg21
I2006
sg52
VLANT
p182
sbag1
(g2
g3
NtRp183
(dp184
g58
V10.1007/s11103-010-9701-9
p185
sg54
VPLANT MOL BIOL
p186
sg56
V75
p187
sg86
(lp188
(VCALDELARI
VD
tp189
asg21
I2011
sg52
VLANT
p190
sbag1
(g2
g3
NtRp191
(dp192
g58
V10.1111/nph.12029
p193
sg54
VNEW PHYTOL
p194
sg56
V197
p195
sg86
(lp196
(VCHAUVIN
VA
tp197
asg21
I2013
sg52
V566
p198
sbag1
(g2
g3
NtRp199
(dp200
g58
V10.1073/pnas.92.10.4114
p201
sg54
VP NATL ACAD SCI USA
p202
sg56
V92
p203
sg86
(lp204
(VCREELMAN
VR A
tp205
asg21
I1995
sg52
V4114
p206
sbag1
(g2
g3
NtRp207
(dp208
g58
V10.1104/pp.105.063743
p209
sg54
VPLANT PHYSIOL
p210
sg56
V139
p211
sg86
(lp212
(VCZECHOWSKI
VT
tp213
asg21
I2005
sg52
VLANT
p214
sbag1
(g2
g3
NtRp215
(dp216
g58
V10.1111/j.1399-3054.2012.01659.x
p217
sg54
VPHYSIOL PLANTARUM
p218
sg56
V147
p219
sg86
(lp220
(VDE
VOLLAS C
tp221
asg21
I2013
sg52
VHYSIOL
p222
sbag1
(g2
g3
NtRp223
(dp224
g58
V10.1073/pnas.0812182106
p225
sg54
VP NATL ACAD SCI USA
p226
sg56
V106
p227
sg86
(lp228
(VFARMER
VE E
tp229
asg21
I2009
sg52
V935
p230
sbag1
(g2
g3
NtRp231
(dp232
g58
V10.1016/j.pbi.2007.04.019
p233
sg54
VCURR OPIN PLANT BIOL
p234
sg56
V10
p235
sg86
(lp236
(VFARMER
VE E
tp237
asg21
I2007
sg52
V380
p238
sbag1
(g2
g3
NtRp239
(dp240
g58
V10.1146/annurev.arplant.53.100301.135248
p241
sg54
VANNU REV PLANT BIOL
p242
sg56
V53
p243
sg86
(lp244
(VFEUSSNER
VI
tp245
asg21
I2002
sg52
V275
p246
sbag1
(g2
g3
NtRp247
(dp248
g58
V10.1094/MPMI-21-1-0098
p249
sg54
VMOL PLANT MICROBE IN
p250
sg56
V21
p251
sg86
(lp252
(VGAO
VX Q
tp253
asg21
I2008
sg52
V98
p254
sbag1
(g2
g3
NtRp255
(dp256
g58
V10.1074/jbc.M109.061432
p257
sg54
VJ BIOL CHEM
p258
sg56
V284
p259
sg86
(lp260
(VGLAUSER
VG
tp261
asg21
I2009
sg52
V34506
p262
sbag1
(g2
g3
NtRp263
(dp264
g58
Nsg54
VFUNCT PLANT BIOL
p265
sg56
V34
p266
sg86
(lp267
(VGRUN
VG
tp268
asg21
I2007
sg52
V65
p269
sbag1
(g2
g3
NtRp270
(dp271
g58
V10.1111/j.1365-3040.2011.02274.x
p272
sg54
VPLANT CELL ENVIRON
p273
sg56
V34
p274
sg86
(lp275
(VHASEGAWA
VS
tp276
asg21
I2011
sg52
VLANT
p277
sbag1
(g2
g3
NtRp278
(dp279
g58
V10.1021/np0495938
p280
sg54
VJ NAT PROD
p281
sg56
V68
p282
sg86
(lp283
(VHISAMATSU
VY
tp284
asg21
I2005
sg52
V600
p285
sbag1
(g2
g3
NtRp286
(dp287
g58
Nsg54
VPLANT CELL
p288
sg56
V8
sg86
(lp289
(VHOWE
VG A
tp290
asg21
I1996
sg52
VLANT
p291
sbag1
(g2
g3
NtRp292
(dp293
g58
V10.1104/pp.105.069054
p294
sg54
VPLANT PHYSIOL
p295
sg56
V139
p296
sg86
(lp297
(VISAYENKOV
VS
tp298
asg21
I2005
sg52
VLANT
p299
sbag1
(g2
g3
NtRp300
(dp301
g58
V10.1111/j.1365-313X.2009.03924.x
p302
sg54
VPLANT J
p303
sg56
V59
p304
sg86
(lp305
(VKOO
VA J K
tp306
asg21
I2009
sg52
VLANT
p307
sbag1
(g2
g3
NtRp308
(dp309
g58
V10.1104/pp.107.104752
p310
sg54
VPLANT PHYSIOL
p311
sg56
V145
p312
sg86
(lp313
(VKOURTCHENKO
VO
tp314
asg21
I2007
sg52
VLANT
p315
sbag1
(g2
g3
NtRp316
(dp317
g58
V10.1105/tpc.019000
p318
sg54
VPLANT CELL
p319
sg56
V16
p320
sg86
(lp321
(VLEONHARDT
VN
tp322
asg21
I2004
sg52
VLANT
p323
sbag1
(g2
g3
NtRp324
(dp325
g58
V10.1016/j.cell.2006.06.054
p326
sg54
VCELL
p327
sg56
V126
p328
sg86
(lp329
(VMELOTTO
VM
tp330
asg21
I2006
sg52
V969
p331
sbag1
(g2
g3
NtRp332
(dp333
g58
V10.1105/tpc.12.5.707
p334
sg54
VPLANT CELL
p335
sg56
V12
p336
sg86
(lp337
(VREYMOND
VP
tp338
asg21
I2000
sg52
VLANT
p339
sbag1
(g2
g3
NtRp340
(dp341
g58
V10.1104/pp.110.153114
p342
sg54
VPlant Signal Behav
p343
sg56
V5
sg86
(lp344
(VSELTMANN
VMARTIN A
tp345
asg21
I2010
sg52
Vlant
p346
sbag1
(g2
g3
NtRp347
(dp348
g58
V10.1104/pp.110.153114
p349
sg54
VPLANT PHYSIOL
p350
sg56
V152
p351
sg86
(lp352
(VSELTMANN
VM A
tp353
asg21
I2010
sg52
VLANT
p354
sbag1
(g2
g3
NtRp355
(dp356
g58
V10.1046/j.1365-313X.1998.00265.x
p357
sg54
VPLANT J
p358
sg56
V15
p359
sg86
(lp360
(VSTASWICK
VP E
tp361
asg21
I1998
sg52
VLANT
p362
sbag1
(g2
g3
NtRp363
(dp364
g58
V10.1105/tpc.104.023549
p365
sg54
VPLANT CELL
p366
sg56
V16
p367
sg86
(lp368
(VSTASWICK
VP E
tp369
asg21
I2004
sg52
VLANT
p370
sbag1
(g2
g3
NtRp371
(dp372
g58
V10.1074/jbc.M010743200
p373
sg54
VJ BIOL CHEM
p374
sg56
V276
p375
sg86
(lp376
(VSTELMACH
VB A
tp377
asg21
I2001
sg52
V12832
p378
sbag1
(g2
g3
NtRp379
(dp380
g58
V10.1104/pp.103.032250
p381
sg54
VPLANT PHYSIOL
p382
sg56
V134
p383
sg86
(lp384
(VSUHITA
VD
tp385
asg21
I2004
sg52
VLANT
p386
sbag1
(g2
g3
NtRp387
(dp388
g58
V10.1073/pnas.051616698
p389
sg54
VP NATL ACAD SCI USA
p390
sg56
V98
p391
sg86
(lp392
(VSZYROKI
VA
tp393
asg21
I2001
sg52
V2917
p394
sbag1
(g2
g3
NtRp395
(dp396
g58
V10.1186/1471-2229-3-2
p397
sg54
VBMC Plant Biology
p398
sg56
V3
sg86
(lp399
(VTOCQUIN
VPIERRE
tp400
asg21
I2003
sg52
V2
sbag1
(g2
g3
NtRp401
(dp402
g58
V10.1104/pp.108.125690
p403
sg54
VPLANT PHYSIOL
p404
sg56
V148
p405
sg86
(lp406
(VTRIANTAPHYLIDES
VC
tp407
asg21
I2008
sg52
VLANT
p408
sbag1
(g2
g3
NtRp409
(dp410
g58
V10.1046/j.1365-313X.2002.01419.x
p411
sg54
VPLANT J
p412
sg56
V32
p413
sg86
(lp414
(VTURNBULL
VC G N
tp415
asg21
I2002
sg52
VLANT
p416
sbag1
(g2
g3
NtRp417
(dp418
g58
V10.1105/tpc.106.046052
p419
sg54
VPLANT CELL
p420
sg56
V19
p421
sg86
(lp422
(VVELLOSILLO
VT
tp423
asg21
I2007
sg52
VLANT
p424
sbag1
(g2
g3
NtRp425
(dp426
g58
V10.1073/pnas.95.12.7209
p427
sg54
VP NATL ACAD SCI USA
p428
sg56
V95
p429
sg86
(lp430
(VVIJAYAN
VP
tp431
asg21
I1998
sg52
V7209
p432
sbag1
(g2
g3
NtRp433
(dp434
g58
V10.1007/s00425-002-0906-2
p435
sg54
VPLANTA
p436
sg56
V216
p437
sg86
(lp438
(VVON
VMALEK B
tp439
asg21
I2002
sg52
VLANTA
p440
sbag1
(g2
g3
NtRp441
(dp442
g58
V10.1093/aob/mcm079
p443
sg54
VANN BOT
p444
sg56
V100
p445
sg86
(lp446
(VWASTERNACK
VC
tp447
asg21
I2007
sg52
V681
p448
sbag1
(g2
g3
NtRp449
(dp450
g58
V10.1105/tpc.111.094151
p451
sg54
VPLANT CELL
p452
sg56
V24
p453
sg86
(lp454
(VYAN
VY X
tp455
asg21
I2012
sg52
VLANT
p456
sbag1
(g2
g3
NtRp457
(dp458
g58
V10.1111/j.1469-8137.2010.03504.x
p459
sg54
VNEW PHYTOL
p460
sg56
V189
p461
sg86
(lp462
(VZDYB
VA
tp463
asg21
I2011
sg52
V568
p464
sbag1
(g2
g3
NtRp465
(dp466
g58
V10.1104/pp.104.046367
p467
sg54
VPLANT PHYSIOL
p468
sg56
V136
p469
sg86
(lp470
(VZIMMERMANN
VP
tp471
asg21
I2004
sg52
VLANT
p472
sbag1
(g2
g3
NtRp473
(dp474
g58
V10.1104/pp.112.202846
p475
sg54
VPLANT PHYSIOL
p476
sg56
V160
p477
sg86
(lp478
(VZOELLER
VM
tp479
asg21
I2012
sg52
VLANT
p480
sbasb.