ccopy_reg
_reconstructor
p1
(ctethne.classes.paper
Paper
p2
c__builtin__
object
p3
NtRp4
(dp5
S'publisherCity'
p6
VROCKVILLE
p7
sS'reprintAddress'
p8
VCook, DR (reprint author), Univ Calif Davis, Dept Plant Pathol, Davis, CA 95616 USA.
p9
sS'WC'
p10
VPlant Sciences
p11
sS'GA'
p12
V973CJ
p13
sS'abstract'
p14
VWe report the analysis and annotation of 146,075 expressed sequence tags from Vitis species. The majority of these sequences were derived from different cultivars of Vitis vinifera, comprising an estimated 25,746 unique contig and singleton sequences that survey transcription in various tissues and developmental stages and during biotic and abiotic stress. Putatively homologous proteins were identified for over 17,752 of the transcripts, with 1,962 transcripts further subdivided into one or more Gene Ontology categories. A simple structured vocabulary, with modules for plant genotype, plant development, and stress, was developed to describe the relationship between individual expressed sequence tags and cDNA libraries; the resulting vocabulary provides query terms to facilitate data mining within the context of a relational database. As a measure of the extent to which characterized metabolic pathways were encompassed by the data set, we searched for homologs of the enzymes leading from glycolysis, through the oxidative/nonoxidative pentose phosphate pathway, and into the general phenylpropanoid pathway. Homologs were identified for 65 of these 77 enzymes, with 86% of enzymatic steps represented by paralogous genes. Differentially expressed transcripts were identified by means of a stringent believability index cutoff of >= 98.4%. Correlation analysis and two-dimensional hierarchical clustering grouped these transcripts according to similarity of expression. In the broadest analysis, 665 differentially expressed transcripts were identified across 29 cDNA libraries, representing a range of developmental and stress conditions. The groupings revealed expected associations between plant developmental stages and tissue types, with the notable exception of abiotic stress treatments. A more focused analysis of flower and berry development identified 87 differentially expressed transcripts and provides the basis for a compendium that relates gene expression and annotation to previously characterized aspects of berry development and physiology. Comparison with published results for select genes, as well as correlation analysis between independent data sets, suggests that the inferred in silico patterns of expression are likely to be an accurate representation of transcript abundance for the conditions surveyed. Thus, the combined data set reveals the in silico expression patterns for hundreds of genes in V. vinifera, the majority of which have not been previously studied within this species.
p15
sS'pageEnd'
p16
I597
sS'date'
p17
I2005
sS'documentType'
p18
VReview
p19
sS'subject'
p20
VPlant Sciences
p21
sS'isoSource'
p22
VPlant Physiol.
p23
sS'timesCited'
p24
(lp25
I89
aVZ9 92
p26
asS'PT'
p27
VJ
sS'title'
p28
VCharacterizing The Grape Transcriptome. Analysis Of Expressed Sequence Tags From Multiple Vitis Species And Development Of A Compendium Of Gene Expression During Berry Development
p29
sS'ISSN'
p30
(lp31
V0032-0889
p32
aVJ9 PLANT PHYSIOL
p33
asS'authors_full'
p34
(lp35
(VDA SILVA
VFG
tp36
a(VIANDOLINO
VA
tp37
a(VALKAYAL
VF
tp38
a(VBOHLMANN
VMC
tp39
a(VCUSHMAN
VMA
tp40
a(VLIM
VH
tp41
a(VERGUL
VA
tp42
a(VFIGUEROA
VR
tp43
a(VKABULOGLU
VEK
tp44
a(VOSBORNE
VC
tp45
a(VROWE
VJ
tp46
a(VTATTERSALL
VE
tp47
a(VLESLIE
VA
tp48
a(VXU
VJ
tp49
a(VBAEK
VJ
tp50
a(VCRAMER
VGR
tp51
a(VCUSHMAN
VJC
tp52
a(VCOOK
VDR
tp53
asS'PG'
p54
I24
sS'PD'
p55
VOCT
p56
sS'pageStart'
p57
I574
sS'issue'
p58
I2
sS'RI'
p59
VCramer, Grant/E-1815-2011
p60
sS'journal'
p61
VPLANT PHYSIOLOGY
p62
sS'volume'
p63
V139
p64
sS'emailAddress'
p65
Vdrcook@ucdavis.edu
p66
sS'authorAddress'
p67
(lp68
VUniv Calif Davis, Dept Plant Pathol, Davis, CA 95616 USA.
p69
aVUniv Calif Davis, Dept Viticulture & Enol, Davis, CA 95616 USA.
p70
aVUniv Calif Davis, Coll Agr & Environm Sci, Genom Facil, Davis, CA 95616 USA.
p71
aVUniv Nevada, Dept Biochem, Reno, NV 89557 USA.
p72
aVAnkara Univ, Inst Biotechnol, TR-06500 Ankara, Turkey.
p73
asS'publisherAddress'
p74
V15501 MONONA DRIVE, ROCKVILLE, MD 20855 USA
p75
sS'ER'
p76
V
sS'publisher'
p77
VAMER SOC PLANT BIOLOGISTS
p78
sS'authorKeywords'
p79
(lp80
VLIPID-TRANSFER PROTEIN
p81
aVPATHOGENESIS-RELATED PROTEINS
p82
aVRADICAL-SCAVENGING ACTIVITY
p83
aVTHAUMATIN-LIKE PROTEIN
p84
aVHEAT-SHOCK-PROTEIN
p85
aVARABIDOPSIS-THALIANA
p86
aVCELL-WALL
p87
aVVINIFERA L.
p88
aVPECTIN METHYLESTERASE
p89
aVBOTRYTIS-CINEREA
p90
asS'language'
p91
VEnglish
p92
sS'wosid'
p93
VWOS:000232500200003
p94
sS'citationCount'
p95
I161
sS'authors_init'
p96
(lp97
(VDA SILVA
VF G
tp98
a(VIANDOLINO
VA
tp99
a(VALKAYAL
VF
tp100
a(VBOHLMANN
VM C
tp101
a(VCUSHMAN
VM A
tp102
a(VLIM
VH
tp103
a(VERGUL
VA
tp104
a(VFIGUEROA
VR
tp105
a(VKABULOGLU
VE K
tp106
a(VOSBORNE
VC
tp107
a(VROWE
VJ
tp108
a(VTATTERSALL
VE
tp109
a(VLESLIE
VA
tp110
a(VXU
VJ
tp111
a(VBAEK
VJ
tp112
a(VCRAMER
VG R
tp113
a(VCUSHMAN
VJ C
tp114
a(VCOOK
VD R
tp115
asS'citedReferences'
p116
(lp117
g1
(g2
g3
NtRp118
(dp119
S'doi'
p120
V10.1016/S0168-9452(00)00335-6
p121
sg61
VPLANT SCI
p122
sg63
V159
p123
sg96
(lp124
(VABLETT
VE
tp125
asg17
I2000
sg57
VLANT
p126
sbag1
(g2
g3
NtRp127
(dp128
g120
V10.1073/pnas.0630618100
p129
sg61
VP NATL ACAD SCI USA
p130
sg63
V100
p131
sg96
(lp132
(VADAMS
VK L
tp133
asg17
I2003
sg57
V4649
p134
sbag1
(g2
g3
NtRp135
(dp136
g120
V10.1016/j.bbrc.2004.08.056
p137
sg61
VBIOCHEM BIOPH RES CO
p138
sg63
V323
p139
sg96
(lp140
(VAKASHI
VK
tp141
asg17
I2004
sg57
V72
p142
sbag1
(g2
g3
NtRp143
(dp144
g120
V10.1016/S0024-3205(03)00697-0
p145
sg61
VLIFE SCI
p146
sg63
V73
p147
sg96
(lp148
(VALDINI
VG
tp149
asg17
I2003
sg57
V2883
p150
sbag1
(g2
g3
NtRp151
(dp152
g120
V10.1093/nar/25.17.3389
p153
sg61
VNUCLEIC ACIDS RES
p154
sg63
V25
p155
sg96
(lp156
(VALTSCHUL
VS F
tp157
asg17
I1997
sg57
V3389
p158
sbag1
(g2
g3
NtRp159
(dp160
g120
Nsg61
VPlant Physiology
p161
sg63
V120
p162
sg96
(lp163
(VMANEESHA
VALURU
tp164
asg17
I1999
sg57
Vlant
p165
sbag1
(g2
g3
NtRp166
(dp167
g120
V10.1034/j.1399-3054.2000.108003314.x
p168
sg61
VPHYSIOL PLANTARUM
p169
sg63
V108
p170
sg96
(lp171
(VAPPLEWHITE
VP B
tp172
asg17
I2000
sg57
VHYSIOL
p173
sbag1
(g2
g3
NtRp174
(dp175
g120
V10.1078/0367-2530-00080
p176
sg61
VFLORA
p177
sg63
V198
p178
sg96
(lp179
(VASCHAN
VG
tp180
asg17
I2003
sg57
V81
p181
sbag1
(g2
g3
NtRp182
(dp183
g120
Nsg61
VNAT GENET
p184
sg63
V25
p185
sg96
(lp186
(VASHBURNER
VM
tp187
asg17
I2000
sg57
V25
p188
sbag1
(g2
g3
NtRp189
(dp190
g120
V10.1104/pp.009522
p191
sg61
VPLANT PHYSIOL
p192
sg63
V131
p193
sg96
(lp194
(VATANASSOVA
VR
tp195
asg17
I2003
sg57
VLANT
p196
sbag1
(g2
g3
NtRp197
(dp198
g120
V10.1094/MPMI.2003.16.12.1118
p199
sg61
VMOL PLANT MICROBE IN
p200
sg63
V16
p201
sg96
(lp202
(VAZIZ
VA
tp203
asg17
I2003
sg57
V1118
p204
sbag1
(g2
g3
NtRp205
(dp206
g120
V10.1034/j.1399-3054.2001.1130107.x
p207
sg61
VPHYSIOL PLANTARUM
p208
sg63
V113
p209
sg96
(lp210
(VAZIZ
VA
tp211
asg17
I2001
sg57
VHYSIOL
p212
sbag1
(g2
g3
NtRp213
(dp214
g120
V10.1016/S0027-5107(02)00324-X
p215
sg61
VMUTAT RES
p216
sg63
V523
p217
sg96
(lp218
(VBAGCHI
VD B
tp219
asg17
I2003
sg57
V87
p220
sbag1
(g2
g3
NtRp221
(dp222
g120
V10.1104/pp.106.4.1489
p223
sg61
VPLANT PHYSIOL
p224
sg63
V106
p225
sg96
(lp226
(VBARRIENTOS
VL
tp227
asg17
I1994
sg57
VLANT
p228
sbag1
(g2
g3
NtRp229
(dp230
g120
V10.1146/annurev.cellbio.18.012502.083431
p231
sg61
VANNU REV CELL DEV BI
p232
sg63
V18
p233
sg96
(lp234
(VBECRAFT
VP W
tp235
asg17
I2002
sg57
V163
p236
sbag1
(g2
g3
NtRp237
(dp238
g120
V10.1016/j.bbapap.2003.10.011
p239
sg61
VBBA
p240
sg63
V1696
p241
sg96
(lp242
(VBELLINCAMPI
VD
tp243
asg17
I2004
sg57
V265
p244
sbag1
(g2
g3
NtRp245
(dp246
g120
V10.1067/mai.2002.127434
p247
sg61
VJ ALLERGY CLIN IMMUN
p248
sg63
V110
p249
sg96
(lp250
(VBEYER
VK
tp251
asg17
I2002
sg57
V517
p252
sbag1
(g2
g3
NtRp253
(dp254
g120
V10.1038/nature01018
p255
sg61
VNATURE
p256
sg63
V418
p257
sg96
(lp258
(VBISSON
VL F
tp259
asg17
I2002
sg57
V696
p260
sbag1
(g2
g3
NtRp261
(dp262
g120
Nsg61
VJ CELL SCI
p263
sg63
V109
p264
sg96
(lp265
(VBLACKBOURN
VH D
tp266
asg17
I1996
sg57
V777
p267
sbag1
(g2
g3
NtRp268
(dp269
g120
V10.1111/j.1365-3040.1989.tb01914.x
p270
sg61
VPLANT CELL ENVIRON
p271
sg63
V12
p272
sg96
(lp273
(VBLANKE
VM M
tp274
asg17
I1989
sg57
VLANT
p275
sbag1
(g2
g3
NtRp276
(dp277
g120
V10.1016/S0168-9452(02)00034-1
p278
sg61
VPLANT SCI
p279
sg63
V162
p280
sg96
(lp281
(VBOSS
VP K
tp282
asg17
I2002
sg57
VLANT
p283
sbag1
(g2
g3
NtRp284
(dp285
g120
Nsg61
VPLANT PHYSIOL
p286
sg63
V111
p287
sg96
(lp288
(VBOSS
VP K
tp289
asg17
I1996
sg57
VLANT
p290
sbag1
(g2
g3
NtRp291
(dp292
g120
Nsg61
VPRINCIPLES PRACTICES
p293
sg63
Nsg96
(lp294
(VBOULTON
VR B
tp295
asg17
I1998
sg57
VRINCIPLES
p296
sbag1
(g2
g3
NtRp297
(dp298
g120
V10.1080/713608148
p299
sg61
VCRIT REV PLANT SCI
p300
sg63
V16
p301
sg96
(lp302
(VBROEKAERT
VW F
tp303
asg17
I1997
sg57
V297
p304
sbag1
(g2
g3
NtRp305
(dp306
g120
V10.1073/pnas.96.22.12929
p307
sg61
VP NATL ACAD SCI USA
p308
sg63
V96
p309
sg96
(lp310
(VBURBULIS
VI E
tp311
asg17
I1999
sg57
V12929
p312
sbag1
(g2
g3
NtRp313
(dp314
g120
V10.1104/pp.115.3.1029
p315
sg61
VPLANT PHYSIOL
p316
sg63
V115
p317
sg96
(lp318
(VBUSAM
VG
tp319
asg17
I1997
sg57
VLANT
p320
sbag1
(g2
g3
NtRp321
(dp322
g120
V10.1016/j.chroma.2003.09.001
p323
sg61
VJ CHROMATOGR A
p324
sg63
V1021
p325
sg96
(lp326
(VCAO
VX L
tp327
asg17
I2003
sg57
V117
p328
sbag1
(g2
g3
NtRp329
(dp330
g120
V10.1016/S0981-9428(02)01468-7
p331
sg61
VPLANT PHYSIOL BIOCH
p332
sg63
V40
p333
sg96
(lp334
(VCARUSO
VA
tp335
asg17
I2002
sg57
VLANT
p336
sbag1
(g2
g3
NtRp337
(dp338
g120
V10.1016/j.plantsci.2004.06.026
p339
sg61
VPLANT SCI
p340
sg63
V167
p341
sg96
(lp342
(VCHERVIN
VC
tp343
asg17
I2004
sg57
VLANT
p344
sbag1
(g2
g3
NtRp345
(dp346
g120
Nsg61
VFASEB J
p347
sg63
V10
p348
sg96
(lp349
(VCHIANG
VP K
tp350
asg17
I1996
sg57
V471
p351
sbag1
(g2
g3
NtRp352
(dp353
g120
V10.1093/jexbot/48.313.1599
p354
sg61
VJ EXP BOT
p355
sg63
V48
p356
sg96
(lp357
(VCOMMENIL
VP
tp358
asg17
I1997
sg57
V1599
p359
sbag1
(g2
g3
NtRp360
(dp361
g120
Nsg61
VAM J ENOL VITICULT
p362
sg63
V38
p363
sg96
(lp364
(VCOOMBE
VB G
tp365
asg17
I1987
sg57
V120
p366
sbag1
(g2
g3
NtRp367
(dp368
g120
V10.1104/pp.118.2.333
p369
sg61
VPLANT PHYSIOL
p370
sg63
V118
p371
sg96
(lp372
(VCOSGROVE
VD J
tp373
asg17
I1998
sg57
VLANT
p374
sbag1
(g2
g3
NtRp375
(dp376
g120
V10.1093/jexbot/53.367.323
p377
sg61
VJ EXP BOT
p378
sg63
V53
p379
sg96
(lp380
(VCOVIELLA
VC E
tp381
asg17
I2002
sg57
V323
p382
sbag1
(g2
g3
NtRp383
(dp384
g120
V10.1104/pp.122.3.803
p385
sg61
VPLANT PHYSIOL
p386
sg63
V122
p387
sg96
(lp388
(VDAVIES
VC
tp389
asg17
I2000
sg57
VLANT
p390
sbag1
(g2
g3
NtRp391
(dp392
g120
V10.1104/pp.111.1.275
p393
sg61
VPLANT PHYSIOL
p394
sg63
V111
p395
sg96
(lp396
(VDAVIES
VC
tp397
asg17
I1996
sg57
VLANT
p398
sbag1
(g2
g3
NtRp399
(dp400
g120
Nsg61
VANNU REV PLANT BIOL
p401
sg63
V54
p402
sg96
(lp403
(VDEITZ
VK J
tp404
asg17
I2003
sg57
V94
p405
sbag1
(g2
g3
NtRp406
(dp407
g120
V10.1034/j.1399-3054.1998.1040108.x
p408
sg61
VPHYSIOL PLANTARUM
p409
sg63
V104
p410
sg96
(lp411
(VDERCKEL
VJ P
tp412
asg17
I1998
sg57
VHYSIOL
p413
sbag1
(g2
g3
NtRp414
(dp415
g120
V10.1073/pnas.96.2.778
p416
sg61
VP NATL ACAD SCI USA
p417
sg63
V96
p418
sg96
(lp419
(VDE
VVETTEN N
tp420
asg17
I1999
sg57
V778
p421
sbag1
(g2
g3
NtRp422
(dp423
g120
V10.1016/S1360-1385(99)01471-5
p424
sg61
VTRENDS PLANT SCI
p425
sg63
V4
sg96
(lp426
(VDIXON
VR A
tp427
asg17
I1999
sg57
V394
p428
sbag1
(g2
g3
NtRp429
(dp430
g120
V10.1023/A:1005920732211
p431
sg61
VPLANT MOL BIOL
p432
sg63
V37
p433
sg96
(lp434
(VDOWNES
VB P
tp435
asg17
I1998
sg57
VLANT
p436
sbag1
(g2
g3
NtRp437
(dp438
g120
Nsg61
VAUST J GRAPE WINE R
p439
sg63
V10
p440
sg96
(lp441
(VDOWNEY
VM O
tp442
asg17
I2004
sg57
V55
p443
sbag1
(g2
g3
NtRp444
(dp445
g120
V10.1111/j.1755-0238.2003.tb00228.x
p446
sg61
VAUST J GRAPE WINE R
p447
sg63
V9
sg96
(lp448
(VDOWNEY
VM O
tp449
asg17
I2003
sg57
V15
p450
sbag1
(g2
g3
NtRp451
(dp452
g120
V10.1016/S0981-9428(99)80004-7
p453
sg61
VPLANT PHYSIOL BIOCH
p454
sg63
V36
p455
sg96
(lp456
(VDREIER
VL P
tp457
asg17
I1998
sg57
VLANT
p458
sbag1
(g2
g3
NtRp459
(dp460
g120
V10.1007/BF00039560
p461
sg61
VPLANT MOL BIOL
p462
sg63
V26
p463
sg96
(lp464
(VDRY
VI B
tp465
asg17
I1994
sg57
VLANT
p466
sbag1
(g2
g3
NtRp467
(dp468
g120
V10.1006/abbi.1996.0282
p469
sg61
VARCH BIOCHEM BIOPHYS
p470
sg63
V331
p471
sg96
(lp472
(VENGESETH
VN J
tp473
asg17
I1996
sg57
V55
p474
sbag1
(g2
g3
NtRp475
(dp476
g120
V10.1016/S0014-5793(96)01378-6
p477
sg61
VFEBS LETT
p478
sg63
V400
p479
sg96
(lp480
(VEPPLE
VP
tp481
asg17
I1997
sg57
V168
p482
sbag1
(g2
g3
NtRp483
(dp484
g120
V10.1101/gr.9.10.950
p485
sg61
VGENOME RES
p486
sg63
V9
sg96
(lp487
(VEWING
VR M
tp488
asg17
I1999
sg57
V950
p489
sbag1
(g2
g3
NtRp490
(dp491
g120
V10.1093/jexbot/51.345.675
p492
sg61
VJ EXP BOT
p493
sg63
V51
p494
sg96
(lp495
(VFAMIANI
VF
tp496
asg17
I2000
sg57
V675
p497
sbag1
(g2
g3
NtRp498
(dp499
g120
V10.1016/S0027-5107(01)00073-2
p500
sg61
VMUTAT RES
p501
sg63
V475
p502
sg96
(lp503
(VFERGUSON
VL R
tp504
asg17
I2001
sg57
V89
p505
sbag1
(g2
g3
NtRp506
(dp507
g120
V10.1094/PHYTO.2003.93.10.1263
p508
sg61
VPHYTOPATHOLOGY
p509
sg63
V93
p510
sg96
(lp511
(VGABLER
VF M
tp512
asg17
I2003
sg57
VHYTOPATHOLOGY
p513
sbag1
(g2
g3
NtRp514
(dp515
g120
V10.1007/BF00019192
p516
sg61
VPLANT MOL BIOL
p517
sg63
V27
p518
sg96
(lp519
(VGARCIAMAS
VJ
tp520
asg17
I1995
sg57
VLANT
p521
sbag1
(g2
g3
NtRp522
(dp523
g120
Nsg61
VACTA BIOCH BIOPH SIN
p524
sg63
V34
p525
sg96
(lp526
(VGE
VX C
tp527
asg17
I2002
sg57
V83
p528
sbag1
(g2
g3
NtRp529
(dp530
g120
V10.1016/j.plaphy.2004.03.002
p531
sg61
VPLANT PHYSIOL BIOCH
p532
sg63
V42
p533
sg96
(lp534
(VGELHAYE
VE
tp535
asg17
I2004
sg57
VLANT
p536
sbag1
(g2
g3
NtRp537
(dp538
g120
Nsg61
VAM J ENOL VITICULT
p539
sg63
V48
p540
sg96
(lp541
(VGENY
VL
tp542
asg17
I1997
sg57
V80
p543
sbag1
(g2
g3
NtRp544
(dp545
g120
V10.1111/j.1432-1033.1995.926_3.x
p546
sg61
VEUR J BIOCHEM
p547
sg63
V233
p548
sg96
(lp549
(VGIOVANE
VA
tp550
asg17
I1995
sg57
V926
p551
sbag1
(g2
g3
NtRp552
(dp553
g120
V10.1146/annurev.arplant.52.1.725
p554
sg61
VANNU REV PLANT PHYS
p555
sg63
V52
p556
sg96
(lp557
(VGIOVANNONI
VJ
tp558
asg17
I2001
sg57
V725
p559
sbag1
(g2
g3
NtRp560
(dp561
g120
V10.1104/pp.104.037531
p562
sg61
VPLANT PHYSIOL
p563
sg63
V135
p564
sg96
(lp565
(VGRAHAM
VM A
tp566
asg17
I2004
sg57
VLANT
p567
sbag1
(g2
g3
NtRp568
(dp569
g120
V10.1016/j.plaphy.2004.06.004
p570
sg61
VPLANT PHYSIOL BIOCH
p571
sg63
V42
p572
sg96
(lp573
(VHARA
VM
tp574
asg17
I2004
sg57
VLANT
p575
sbag1
(g2
g3
NtRp576
(dp577
g120
V10.1111/j.1755-0238.1996.tb00101.x
p578
sg61
VAustralian Journal of Grape and Wine Research
p579
sg63
V2
sg96
(lp580
(VHARDIE
VW J
tp581
asg17
I1996
sg57
V97
p582
sbag1
(g2
g3
NtRp583
(dp584
g120
Nsg61
VVITIS
p585
sg63
VITIS
p586
sg96
(lp587
(VHEAZLEWOOD
VJ E
tp588
asg17
I2004
sg57
V65
p589
sbag1
(g2
g3
NtRp590
(dp591
g120
V10.1104/pp.125.4.1941
p592
sg61
VPLANT PHYSIOL
p593
sg63
V125
p594
sg96
(lp595
(VHEGEMAN
VC E
tp596
asg17
I2001
sg57
VLANT
p597
sbag1
(g2
g3
NtRp598
(dp599
g120
V10.1038/35054083
p600
sg61
VNATURE
p601
sg63
V409
p602
sg96
(lp603
(VHONMA
VT
tp604
asg17
I2001
sg57
V525
p605
sbag1
(g2
g3
NtRp606
(dp607
g120
V10.1105/tpc.104.025684
p608
sg61
VPLANT CELL
p609
sg63
V16
p610
sg96
(lp611
(VHOTHORN
VM
tp612
asg17
I2004
sg57
VLANT
p613
sbag1
(g2
g3
NtRp614
(dp615
g120
V10.1038/nature01960
p616
sg61
VNATURE
p617
sg63
V425
p618
sg96
(lp619
(VHOWITZ
VK T
tp620
asg17
I2003
sg57
V191
p621
sbag1
(g2
g3
NtRp622
(dp623
g120
V10.1007/BF02773137
p624
sg61
VPLANT MOL BIOL REP
p625
sg63
V22
p626
sg96
(lp627
(VIANDOLINO
VA B
tp628
asg17
I2004
sg57
VLANT
p629
sbag1
(g2
g3
NtRp630
(dp631
g120
V10.1146/annurev.arplant.53.100201.160729
p632
sg61
VANNU REV PLANT BIOL
p633
sg63
V53
p634
sg96
(lp635
(VIBA
VK
tp636
asg17
I2002
sg57
V225
p637
sbag1
(g2
g3
NtRp638
(dp639
g120
V10.1006/anbo.1999.0856
p640
sg61
VANN BOT
p641
sg63
V83
p642
sg96
(lp643
(VICHIMURA
VK
tp644
asg17
I1999
sg57
V551
p645
sbag1
(g2
g3
NtRp646
(dp647
g120
V10.1034/j.1399-3054.2000.108003307.x
p648
sg61
VPHYSIOL PLANTARUM
p649
sg63
V108
p650
sg96
(lp651
(VICHIMURA
VK
tp652
asg17
I2000
sg57
VHYSIOL
p653
sbag1
(g2
g3
NtRp654
(dp655
g120
V10.1038/nature03895
p656
sg61
VNATURE
p657
sg63
V436
p658
sg96
(lp659
(VMATSUMOTO
VT
tp660
asg17
I2005
sg57
V793
p661
sbag1
(g2
g3
NtRp662
(dp663
g120
V10.1016/S0168-9452(01)00608-2
p664
sg61
VPLANT SCI
p665
sg63
V162
p666
sg96
(lp667
(VISHIMARU
VM
tp668
asg17
I2002
sg57
VLANT
p669
sbag1
(g2
g3
NtRp670
(dp671
g120
V10.1046/j.1365-3059.1999.00343.x
p672
sg61
VPLANT PATHOL
p673
sg63
V48
p674
sg96
(lp675
(VJACOBS
VA K
tp676
asg17
I1999
sg57
VLANT
p677
sbag1
(g2
g3
NtRp678
(dp679
g120
V10.1071/FP03066
p680
sg61
VFUNCT PLANT BIOL
p681
sg63
V30
p682
sg96
(lp683
(VJAYASANKAR
VS
tp684
asg17
I2003
sg57
V1105
p685
sbag1
(g2
g3
NtRp686
(dp687
g120
V10.1016/S0168-9452(01)00489-7
p688
sg61
VPLANT SCI
p689
sg63
V161
p690
sg96
(lp691
(VJIN
VU H
tp692
asg17
I2001
sg57
VLANT
p693
sbag1
(g2
g3
NtRp694
(dp695
g120
Nsg61
VGENE DEV
p696
sg63
V11
p697
sg96
(lp698
(VJINN
VT
tp699
asg17
I2000
sg57
V108
p700
sbag1
(g2
g3
NtRp701
(dp702
g120
V10.1093/nar/gkf685
p703
sg61
VNUCLEIC ACIDS RES
p704
sg63
V30
p705
sg96
(lp706
(VJOURNET
VE P
tp707
asg17
I2002
sg57
V5579
p708
sbag1
(g2
g3
NtRp709
(dp710
g120
V10.1016/j.bbapap.2003.11.002
p711
sg61
VBBA
p712
sg63
V1696
p713
sg96
(lp714
(VJUGE
VN
tp715
asg17
I2004
sg57
V141
p716
sbag1
(g2
g3
NtRp717
(dp718
g120
V10.1046/j.1365-3040.2003.01024.x
p719
sg61
VPLANT CELL ENVIRON
p720
sg63
V26
p721
sg96
(lp722
(VJUNG
VH W
tp723
asg17
I2003
sg57
VLANT
p724
sbag1
(g2
g3
NtRp725
(dp726
g120
V10.1146/annurev.arplant.47.1.627
p727
sg61
VANNU REV PLANT PHYS
p728
sg63
V47
p729
sg96
(lp730
(VKADER
VJ C
tp731
asg17
I1996
sg57
V627
p732
sbag1
(g2
g3
NtRp733
(dp734
g120
V10.1016/j.ydbio.2003.12.037
p735
sg61
VDEV BIOL
p736
sg63
V268
p737
sg96
(lp738
(VKIRIK
VV
tp739
asg17
I2004
sg57
V506
p740
sbag1
(g2
g3
NtRp741
(dp742
g120
V10.1023/A:1006830606060
p743
sg61
VMOL CELL BIOCHEM
p744
sg63
V192
p745
sg96
(lp746
(VKNUDSEN
VJ
tp747
asg17
I1999
sg57
V95
p748
sbag1
(g2
g3
NtRp749
(dp750
g120
V10.1104/pp.45.1.92
p751
sg61
VPLANT PHYSIOL
p752
sg63
V45
p753
sg96
(lp754
(VKROH
VM
tp755
asg17
I1970
sg57
VLANT
p756
sbag1
(g2
g3
NtRp757
(dp758
g120
Nsg61
VPLANT PHYSIOL
p759
sg63
V108
p760
sg96
(lp761
(VLARSEN
VP B
tp762
asg17
I1995
sg57
VLANT
p763
sbag1
(g2
g3
NtRp764
(dp765
g120
V10.1023/A:1005785321165
p766
sg61
VPLANT MOL BIOL
p767
sg63
V33
p768
sg96
(lp769
(VLAWRENCE
VS D
tp770
asg17
I1997
sg57
VLANT
p771
sbag1
(g2
g3
NtRp772
(dp773
g120
V10.1016/S0885-5765(05)80003-7
p774
sg61
VPHYSIOL MOL PLANT P
p775
sg63
V44
p776
sg96
(lp777
(VLECAM
VB
tp778
asg17
I1994
sg57
VHYSIOL
p779
sbag1
(g2
g3
NtRp780
(dp781
g120
V10.1093/nar/28.18.3657
p782
sg61
VNUCLEIC ACIDS RES
p783
sg63
V28
p784
sg96
(lp785
(VLIANG
VF
tp786
asg17
I2000
sg57
V3657
p787
sbag1
(g2
g3
NtRp788
(dp789
g120
V10.1016/S0168-9452(99)00150-8
p790
sg61
VPLANT SCI
p791
sg63
V150
p792
sg96
(lp793
(VLOEWUS
VF A
tp794
asg17
I2000
sg57
VLANT
p795
sbag1
(g2
g3
NtRp796
(dp797
g120
Nsg61
VJ BIOL CHEM
p798
sg63
V259
p799
sg96
(lp800
(VLOEWUS
VM W
tp801
asg17
I1984
sg57
V7644
p802
sbag1
(g2
g3
NtRp803
(dp804
g120
V10.1023/A:1025045217859
p805
sg61
VPLANT MOL BIOL
p806
sg63
V52
p807
sg96
(lp808
(VMANDAOKAR
VA
tp809
asg17
I2003
sg57
VLANT
p810
sbag1
(g2
g3
NtRp811
(dp812
g120
V10.1023/A:1013343106574
p813
sg61
VPLANT GROWTH REGUL
p814
sg63
V34
p815
sg96
(lp816
(VMARTIN-TANGUY
VJ
tp817
asg17
I2001
sg57
VLANT
p818
sbag1
(g2
g3
NtRp819
(dp820
g120
V10.1146/annurev.arplant.48.1.399
p821
sg61
VANNU REV PLANT PHYS
p822
sg63
V48
p823
sg96
(lp824
(VMAUREL
VC
tp825
asg17
I1997
sg57
V399
p826
sbag1
(g2
g3
NtRp827
(dp828
g120
Nsg61
VFOOD ENZYMOLOGY
p829
sg63
Nsg96
(lp830
(VMAYER
VA M
tp831
asg17
I1991
sg57
V373
p832
sbag1
(g2
g3
NtRp833
(dp834
g120
Nsg61
VPLANT CELL
p835
sg63
V8
sg96
(lp836
(VMCCONN
VM
tp837
asg17
I1996
sg57
VLANT
p838
sbag1
(g2
g3
NtRp839
(dp840
g120
V10.1038/nbt0602-613
p841
sg61
VNAT BIOTECHNOL
p842
sg63
V20
p843
sg96
(lp844
(VMEHTA
VR A
tp845
asg17
I2002
sg57
V613
p846
sbag1
(g2
g3
NtRp847
(dp848
g120
V10.1038/nbt992
p849
sg61
VNAT BIOTECHNOL
p850
sg63
V22
p851
sg96
(lp852
(VMEYERS
VB C
tp853
asg17
I2004
sg57
V1006
p854
sbag1
(g2
g3
NtRp855
(dp856
g120
V10.1016/S0924-2244(03)00026-8
p857
sg61
VTRENDS FOOD SCI TECH
p858
sg63
V14
p859
sg96
(lp860
(VMILLS
VE N C
tp861
asg17
I2003
sg57
V145
p862
sbag1
(g2
g3
NtRp863
(dp864
g120
V10.1021/jf020456v
p865
sg61
VJ AGR FOOD CHEM
p866
sg63
V51
p867
sg96
(lp868
(VMONTEIRO
VS
tp869
asg17
I2003
sg57
V4046
p870
sbag1
(g2
g3
NtRp871
(dp872
g120
Nsg61
VBIOL GRAPEVINE
p873
sg63
Nsg96
(lp874
(VMULLINS
VM G
tp875
asg17
I1992
sg57
Nsbag1
(g2
g3
NtRp876
(dp877
g120
V10.1006/geno.1998.5341
p878
sg61
VGENOMICS
p879
sg63
V51
p880
sg96
(lp881
(VNAKAYAMA
VM
tp882
asg17
I1998
sg57
V27
p883
sbag1
(g2
g3
NtRp884
(dp885
g120
V10.1093/jxb/erg267
p886
sg61
VJ EXP BOT
p887
sg63
V54
p888
sg96
(lp889
(VNAVABPOUR
VS
tp890
asg17
I2003
sg57
V2285
p891
sbag1
(g2
g3
NtRp892
(dp893
g120
Nsg61
VHORTSCIENCE
p894
sg63
V37
p895
sg96
(lp896
(VNESMITH
VD S
tp897
asg17
I2002
sg57
V666
p898
sbag1
(g2
g3
NtRp899
(dp900
g120
Nsg61
VPLANTA
p901
sg63
V214
p902
sg96
(lp903
(VNUNAN
VK J
tp904
asg17
I2001
sg57
VLANTA
p905
sbag1
(g2
g3
NtRp906
(dp907
g120
V10.1104/pp.118.3.783
p908
sg61
VPLANT PHYSIOL
p909
sg63
V118
p910
sg96
(lp911
(VNUNAN
VK J
tp912
asg17
I1998
sg57
VLANT
p913
sbag1
(g2
g3
NtRp914
(dp915
g120
V10.1023/A:1006469128280
p916
sg61
VPLANT MOL BIOL
p917
sg63
V45
p918
sg96
(lp919
(VNYLANDER
VM
tp920
asg17
I2001
sg57
VLANT
p921
sbag1
(g2
g3
NtRp922
(dp923
g120
V10.1073/pnas.0305984101
p924
sg61
VP NATL ACAD SCI USA
p925
sg63
V101
p926
sg96
(lp927
(VOHGISHI
VM
tp928
asg17
I2004
sg57
V2223
p929
sbag1
(g2
g3
NtRp930
(dp931
g120
V10.1016/S1369-5266(00)00068-6
p932
sg61
VCURR OPIN PLANT BIOL
p933
sg63
V3
sg96
(lp934
(VOHLROGGE
VJ
tp935
asg17
I2000
sg57
V224
p936
sbag1
(g2
g3
NtRp937
(dp938
g120
Nsg61
VJ INT SCI VIGNE VIN
p939
sg63
V36
p940
sg96
(lp941
(VOLLAT
VN
tp942
asg17
I2002
sg57
V109
p943
sbag1
(g2
g3
NtRp944
(dp945
g120
V10.1016/0168-9452(95)04287-3
p946
sg61
VPLANT SCI
p947
sg63
V113
p948
sg96
(lp949
(VOSAFUNE
VT
tp950
asg17
I1996
sg57
VLANT
p951
sbag1
(g2
g3
NtRp952
(dp953
g120
V10.1007/s10142-003-0094-6
p954
sg61
VFunctional 
p955
sg63
V3
sg96
(lp956
(VPACEY-MILLER
VTONI
tp957
asg17
I2003
sg57
V144
p958
sbag1
(g2
g3
NtRp959
(dp960
g120
V10.1016/S0168-9452(01)00563-5
p961
sg61
VPLANT SCI
p962
sg63
V162
p963
sg96
(lp964
(VPARMENTIER-LINE
VC M
tp965
asg17
I2002
sg57
VLANT
p966
sbag1
(g2
g3
NtRp967
(dp968
g120
V10.1067/mai.2003.35
p969
sg61
VJ ALLERGY CLIN IMMUN
p970
sg63
V111
p971
sg96
(lp972
(VPASTORELLO
VE A
tp973
asg17
I2003
sg57
V350
p974
sbag1
(g2
g3
NtRp975
(dp976
g120
V10.1104/pp.126.2.494
p977
sg61
VPLANT PHYSIOL
p978
sg63
V126
p979
sg96
(lp980
(VPATTERSON
VS E
tp981
asg17
I2001
sg57
VLANT
p982
sbag1
(g2
g3
NtRp983
(dp984
g120
V10.1104/pp.103.2.509
p985
sg61
VPLANT PHYSIOL
p986
sg63
V103
p987
sg96
(lp988
(VPELLEGRINI
VL
tp989
asg17
I1993
sg57
VLANT
p990
sbag1
(g2
g3
NtRp991
(dp992
g120
V10.1071/FP02116
p993
sg61
VFUNCT PLANT BIOL
p994
sg63
V30
p995
sg96
(lp996
(VPICAUD
VS
tp997
asg17
I2003
sg57
V621
p998
sbag1
(g2
g3
NtRp999
(dp1000
g120
V10.1021/jf9905626
p1001
sg61
VJ AGR FOOD CHEM
p1002
sg63
V48
p1003
sg96
(lp1004
(VPOCOCK
VK F
tp1005
asg17
I2000
sg57
V1637
p1006
sbag1
(g2
g3
NtRp1007
(dp1008
g120
V10.1007/s004250050595
p1009
sg61
VPLANTA
p1010
sg63
V208
p1011
sg96
(lp1012
(VPRIMIKIRIOS
VN I
tp1013
asg17
I1999
sg57
VLANTA
p1014
sbag1
(g2
g3
NtRp1015
(dp1016
g120
V10.1046/j.1365-313X.2003.01726.x
p1017
sg61
VPLANT J
p1018
sg63
V34
p1019
sg96
(lp1020
(VQIN
VQ
tp1021
asg17
I2003
sg57
VLANT
p1022
sbag1
(g2
g3
NtRp1023
(dp1024
g120
V10.1093/nar/29.1.159
p1025
sg61
VNUCLEIC ACIDS RES
p1026
sg63
V29
p1027
sg96
(lp1028
(VQUACKENBUSH
VJ
tp1029
asg17
I2001
sg57
V159
p1030
sbag1
(g2
g3
NtRp1031
(dp1032
g120
V10.1104/pp.012401
p1033
sg61
VPLANT PHYSIOL
p1034
sg63
V131
p1035
sg96
(lp1036
(VRAMAKRISHNA
VW
tp1037
asg17
I2003
sg57
VLANT
p1038
sbag1
(g2
g3
NtRp1039
(dp1040
g120
Nsg61
VVITIS
p1041
sg63
VITIS
p1042
sg96
(lp1043
(VRENAULT
VA S
tp1044
asg17
I1996
sg57
V49
p1045
sbag1
(g2
g3
NtRp1046
(dp1047
g120
Nsg61
VJ AM SOC HORTIC SCI
p1048
sg63
V117
p1049
sg96
(lp1050
(VREYNOLDS
VA G
tp1051
asg17
I1992
sg57
V85
p1052
sbag1
(g2
g3
NtRp1053
(dp1054
g120
V10.1104/pp.114.3.771
p1055
sg61
VPLANT PHYSIOL
p1056
sg63
V114
p1057
sg96
(lp1058
(VROBINSON
VS P
tp1059
asg17
I1997
sg57
VLANT
p1060
sbag1
(g2
g3
NtRp1061
(dp1062
g120
Nsg61
VAM J ENOL VITICULT
p1063
sg63
V55
p1064
sg96
(lp1065
(VROGIERS
VS Y
tp1066
asg17
I2004
sg57
V121
p1067
sbag1
(g2
g3
NtRp1068
(dp1069
g120
V[10.1104/pp.013581, 10.1014/pp.013581]
p1070
sg61
VPLANT PHYSIOL
p1071
sg63
V131
p1072
sg96
(lp1073
(VRONNING
VC M
tp1074
asg17
I2003
sg57
VLANT
p1075
sbag1
(g2
g3
NtRp1076
(dp1077
g120
V10.1104/pp.103.035865
p1078
sg61
VPLANT PHYSIOL
p1079
sg63
V134
p1080
sg96
(lp1081
(VROUHIER
VN
tp1082
asg17
I2004
sg57
VLANT
p1083
sbag1
(g2
g3
NtRp1084
(dp1085
g120
V10.1104/pp.127.3.1299
p1086
sg61
VPLANT PHYSIOL
p1087
sg63
V127
p1088
sg96
(lp1089
(VROUHIER
VN
tp1090
asg17
I2001
sg57
VLANT
p1091
sbag1
(g2
g3
NtRp1092
(dp1093
g120
V10.1016/S1360-1385(03)00131-6
p1094
sg61
VTRENDS PLANT SCI
p1095
sg63
V8
sg96
(lp1096
(VRUDD
VS
tp1097
asg17
I2003
sg57
V321
p1098
sbag1
(g2
g3
NtRp1099
(dp1100
g120
V10.1034/j.1399-3054.1998.1030317.x
p1101
sg61
VPHYSIOL PLANTARUM
p1102
sg63
V103
p1103
sg96
(lp1104
(VSABEHAT
VA
tp1105
asg17
I1998
sg57
VHYSIOL
p1106
sbag1
(g2
g3
NtRp1107
(dp1108
g120
V10.1104/pp.117.2.465
p1109
sg61
VPLANT PHYSIOL
p1110
sg63
V117
p1111
sg96
(lp1112
(VSALZMAN
VR A
tp1113
asg17
I1998
sg57
VLANT
p1114
sbag1
(g2
g3
NtRp1115
(dp1116
g120
V10.1016/j.foodchem.2004.01.003
p1117
sg61
VFOOD CHEM
p1118
sg63
V87
p1119
sg96
(lp1120
(VSARRY
VJ E
tp1121
asg17
I2004
sg57
V509
p1122
sbag1
(g2
g3
NtRp1123
(dp1124
g120
V10.1038/nature03145
p1125
sg61
VNATURE
p1126
sg63
V432
p1127
sg96
(lp1128
(VSCHWENDER
VJ
tp1129
asg17
I2004
sg57
V779
p1130
sbag1
(g2
g3
NtRp1131
(dp1132
g120
V10.1038/nbt0894-793
p1133
sg61
VBIO
p1134
sg63
V12
p1135
sg96
(lp1136
(VSHADE
VR E
tp1137
asg17
I1994
sg57
V793
p1138
sbag1
(g2
g3
NtRp1139
(dp1140
g120
V10.1093/jexbot/53.370.947
p1141
sg61
VJ EXP BOT
p1142
sg63
V53
p1143
sg96
(lp1144
(VSHEWRY
VP R
tp1145
asg17
I2002
sg57
V947
p1146
sbag1
(g2
g3
NtRp1147
(dp1148
g120
Nsg61
VAM J ENOL VITICULT
p1149
sg63
V36
p1150
sg96
(lp1151
(VSHULMAN
VY
tp1152
asg17
I1985
sg57
V264
p1153
sbag1
(g2
g3
NtRp1154
(dp1155
g120
V10.1079/BJN2003966
p1156
sg61
VBRIT J NUTR
p1157
sg63
V90
p1158
sg96
(lp1159
(VSPILLER
VG A
tp1160
asg17
I2003
sg57
V803
p1161
sbag1
(g2
g3
NtRp1162
(dp1163
g120
Nsg61
VGENOME RES
p1164
sg63
V10
p1165
sg96
(lp1166
(VSTEKEL
VD V
tp1167
asg17
I2000
sg57
V2044
p1168
sbag1
(g2
g3
NtRp1169
(dp1170
g120
V10.1016/S0304-4238(03)00035-9
p1171
sg61
VSCI HORTIC
p1172
sg63
V98
p1173
sg96
(lp1174
(VSTERN
VR A
tp1175
asg17
I2003
sg57
V499
p1176
sbag1
(g2
g3
NtRp1177
(dp1178
g120
V10.1105/tpc.11.9.1609
p1179
sg61
VPLANT CELL
p1180
sg63
V11
p1181
sg96
(lp1182
(VSTREATFIELD
VS J
tp1183
asg17
I1999
sg57
VLANT
p1184
sbag1
(g2
g3
NtRp1185
(dp1186
g120
V10.1023/A:1005924817190
p1187
sg61
VPLANT MOL BIOL
p1188
sg63
V37
p1189
sg96
(lp1190
(VTAKAHASHI
VT
tp1191
asg17
I1998
sg57
VLANT
p1192
sbag1
(g2
g3
NtRp1193
(dp1194
g120
V10.1104/pp.114.3.759
p1195
sg61
VPLANT PHYSIOL
p1196
sg63
V114
p1197
sg96
(lp1198
(VTATTERSALL
VD B
tp1199
asg17
I1997
sg57
VLANT
p1200
sbag1
(g2
g3
NtRp1201
(dp1202
g120
Nsg61
VIN PRESS AM J ENOL V
p1203
sg63
V56
p1204
sg96
(lp1205
(VTATTERSALL
VE A R
tp1206
asg17
I2005
sg57
Nsbag1
(g2
g3
NtRp1207
(dp1208
g120
V10.1078/0176-1617-00566
p1209
sg61
VJ PLANT PHYSIOL
p1210
sg63
V158
p1211
sg96
(lp1212
(VTERRIER
VN
tp1213
asg17
I2001
sg57
V1575
p1214
sbag1
(g2
g3
NtRp1215
(dp1216
g120
Nsg61
VNATURE
p1217
sg63
V408
p1218
sg96
(lp1219
(VKAUL
VS
tp1220
asg17
I2000
sg57
V796
p1221
sbag1
(g2
g3
NtRp1222
(dp1223
g120
V10.1007/s00425-004-1330-6
p1224
sg61
VPLANTA
p1225
sg63
V220
p1226
sg96
(lp1227
(VTHIPYAPONG
VP
tp1228
asg17
I2004
sg57
VLANTA
p1229
sbag1
(g2
g3
NtRp1230
(dp1231
g120
V10.1016/j.plantsci.2004.04.008
p1232
sg61
VPLANT SCI
p1233
sg63
V167
p1234
sg96
(lp1235
(VTHIPYAPONG
VP
tp1236
asg17
I2004
sg57
VLANT
p1237
sbag1
(g2
g3
NtRp1238
(dp1239
g120
V10.1007/BF00014668
p1240
sg61
VPLANT MOL BIOL
p1241
sg63
V25
p1242
sg96
(lp1243
(VTHOMAS
VM R
tp1244
asg17
I1994
sg57
VLANT
p1245
sbag1
(g2
g3
NtRp1246
(dp1247
g120
V10.1007/s00425-002-0902-6
p1248
sg61
VPLANTA
p1249
sg63
V216
p1250
sg96
(lp1251
(VTHOMMA
VBPHJ
tp1252
asg17
I2002
sg57
VLANTA
p1253
sbag1
(g2
g3
NtRp1254
(dp1255
g120
Nsg61
VPLANT CELL
p1256
sg63
V4
sg96
(lp1257
(VTIEMAN
VD M
tp1258
asg17
I1992
sg57
VLANT
p1259
sbag1
(g2
g3
NtRp1260
(dp1261
g120
V10.1023/A:1024810916909
p1262
sg61
VPLANT MOL BIOL
p1263
sg63
V52
p1264
sg96
(lp1265
(VTOQUIN
VV
tp1266
asg17
I2003
sg57
VLANT
p1267
sbag1
(g2
g3
NtRp1268
(dp1269
g120
V10.1006/pmpp.1999.0213
p1270
sg61
VPHYSIOL MOL PLANT P
p1271
sg63
V55
p1272
sg96
(lp1273
(VVAN
VLOON L C
tp1274
asg17
I1999
sg57
VHYSIOL
p1275
sbag1
(g2
g3
NtRp1276
(dp1277
g120
V10.1023/A:1012213116515
p1278
sg61
VJ CHEM ECOL
p1279
sg63
V27
p1280
sg96
(lp1281
(VVAN
VPOECKE R M P
tp1282
asg17
I2001
sg57
V1911
p1283
sbag1
(g2
g3
NtRp1284
(dp1285
g120
V10.1016/S0167-7799(02)02058-9
p1286
sg61
VTRENDS BIOTECHNOL
p1287
sg63
V20
p1288
sg96
(lp1289
(VVIVIER
VM A
tp1290
asg17
I2002
sg57
V472
p1291
sbag1
(g2
g3
NtRp1292
(dp1293
g120
V10.1016/j.tplants.2004.02.005
p1294
sg61
VTRENDS PLANT SCI
p1295
sg63
V9
sg96
(lp1296
(VVORWERK
VS
tp1297
asg17
I2004
sg57
V203
p1298
sbag1
(g2
g3
NtRp1299
(dp1300
g120
V10.1126/science.1068181
p1301
sg61
VSCIENCE
p1302
sg63
V296
p1303
sg96
(lp1304
(VVREBALOV
VJ
tp1305
asg17
I2002
sg57
V343
p1306
sbag1
(g2
g3
NtRp1307
(dp1308
g120
Nsg61
VGENOME BIOL
p1309
sg63
V3
sg96
(lp1310
(VWAGNER
VA
tp1311
asg17
I2002
sg57
V1012
p1312
sbag1
(g2
g3
NtRp1313
(dp1314
g120
V10.1007/s004250050648
p1315
sg61
VPLANTA
p1316
sg63
V210
p1317
sg96
(lp1318
(VWALKER
VR P
tp1319
asg17
I1999
sg57
VLANTA
p1320
sbag1
(g2
g3
NtRp1321
(dp1322
g120
V10.1093/aob/mcg159
p1323
sg61
VANN BOT
p1324
sg63
V92
p1325
sg96
(lp1326
(VWANG
VZ P
tp1327
asg17
I2003
sg57
V523
p1328
sbag1
(g2
g3
NtRp1329
(dp1330
g120
V10.1021/jf980421o
p1331
sg61
VJ AGR FOOD CHEM
p1332
sg63
V46
p1333
sg96
(lp1334
(VWATERS
VE J
tp1335
asg17
I1998
sg57
V4950
p1336
sbag1
(g2
g3
NtRp1337
(dp1338
g120
Nsg61
VAM J ENOL VITICULT
p1339
sg63
V25
p1340
sg96
(lp1341
(VWEAVER
VR J
tp1342
asg17
I1974
sg57
V39
p1343
sbag1
(g2
g3
NtRp1344
(dp1345
g120
V10.1016/S1389-1723(03)90113-7
p1346
sg61
VJ BIOSCI BIOENG
p1347
sg63
V96
p1348
sg96
(lp1349
(VWU
VS Q
tp1350
asg17
I2003
sg57
V119
p1351
sbag1
(g2
g3
NtRp1352
(dp1353
g120
V10.1016/S0378-1097(97)00054-2
p1354
sg61
VFEMS MICROBIOL LETT
p1355
sg63
V149
p1356
sg96
(lp1357
(VZHANG
VY
tp1358
asg17
I1997
sg57
V59
p1359
sbasb.