ccopy_reg
_reconstructor
p1
(ctethne.classes.paper
Paper
p2
c__builtin__
object
p3
NtRp4
(dp5
S'publisherCity'
p6
VROCKVILLE
p7
sS'reprintAddress'
p8
VTcherkez, G (reprint author), Univ Paris 11, Inst Biotechnol Plantes, Batiment 630, F-91405 Orsay, France.
p9
sS'WC'
p10
VPlant Sciences
p11
sS'GA'
p12
V501NV
p13
sS'FX'
p14
(lp15
VThis work was supported by the Institut Federatif de Recherche and the
p16
aVAgence Nationale de la Recherche (Young Researcher Project contract no.
p17
aVJC08-330055 to G. T.).
p18
asS'abstract'
p19
VWhile the possible importance of the tricarboxylic acid (TCA) cycle reactions for leaf photosynthesis operation has been recognized, many uncertainties remain on whether TCA cycle biochemistry is similar in the light compared with the dark. It is widely accepted that leaf day respiration and the metabolic commitment to TCA decarboxylation are down-regulated in illuminated leaves. However, the metabolic basis (i.e. the limiting steps involved in such a down-regulation) is not well known. Here, we investigated the in vivo metabolic fluxes of individual reactions of the TCA cycle by developing two isotopic methods, C-13 tracing and fluxomics and the use of H/D isotope effects, with Xanthium strumarium leaves. We provide evidence that the TCA "cycle'' does not work in the forward direction like a proper cycle but, rather, operates in both the reverse and forward directions to produce fumarate and glutamate, respectively. Such a functional division of the cycle plausibly reflects the compromise between two contrasted forces: (1) the feedback inhibition by NADH and ATP on TCA enzymes in the light, and (2) the need to provide pH-buffering organic acids and carbon skeletons for nitrate absorption and assimilation.
p20
sS'pageEnd'
p21
I630
sS'date'
p22
I2009
sS'documentType'
p23
VArticle
p24
sS'subject'
p25
VPlant Sciences
p26
sS'isoSource'
p27
VPlant Physiol.
p28
sS'timesCited'
p29
(lp30
I39
aVZ9 40
p31
asS'funding'
p32
(lp33
(VInstitut Federatif de Recherche
Ntp34
a(VAgence Nationale de la Recherche
VJC08-330055
tp35
asS'PT'
p36
VJ
sS'title'
p37
VIn Folio Respiratory Fluxomics Revealed By C-13 Isotopic Labeling And H/D Isotope Effects Highlight The Noncyclic Nature Of The Tricarboxylic Acid "Cycle'' In Illuminated Leaves
p38
sS'ISSN'
p39
(lp40
V0032-0889
p41
aVJ9 PLANT PHYSIOL
p42
asS'authors_full'
p43
(lp44
(VTCHERKEZ
VGUILLAUME
tp45
a(VMAHE
VALINE
tp46
a(VGAUTHIER
VPAUL
tp47
a(VMAUVE
VCAROLINE
tp48
a(VGOUT
VELIZABETH
tp49
a(VBLIGNY
VRICHARD
tp50
a(VCORNIC
VGABRIEL
tp51
a(VHODGES
VMICHAEL
tp52
asS'PG'
p53
I11
sS'PD'
p54
VOCT
p55
sS'pageStart'
p56
I620
sS'issue'
p57
I2
sS'RI'
p58
VHodges, Michael/A-8883-2008; Gauthier, Paul/A-2793-2011
p59
sS'journal'
p60
VPLANT PHYSIOLOGY
p61
sS'volume'
p62
V151
p63
sS'doi'
p64
V10.1104/pp.109.142976
p65
sS'emailAddress'
p66
Vguillaume.tcherkez@u-psud.fr
p67
sS'authorAddress'
p68
(lp69
V[Tcherkez, Guillaume; Mahe, Aline; Gauthier, Paul; Hodges, Michael] Univ Paris 11, Inst Biotechnol Plantes, F-91405 Orsay, France.
p70
aV[Tcherkez, Guillaume; Mauve, Caroline] Univ Paris 11, Plateforme Metab Metabolome IFR87, F-91405 Orsay, France.
p71
aV[Cornic, Gabriel] Univ Paris 11, Lab Ecophysiol Vegetale, F-91405 Orsay, France.
p72
aV[Gout, Elizabeth; Bligny, Richard] CEA Grenoble, Physiol Cellulaire Vegetale Lab, F-38054 Grenoble 9, France.
p73
asS'publisherAddress'
p74
V15501 MONONA DRIVE, ROCKVILLE, MD 20855 USA
p75
sS'ER'
p76
V
sS'publisher'
p77
VAMER SOC PLANT BIOLOGISTS
p78
sS'authorKeywords'
p79
(lp80
VPYRUVATE-DEHYDROGENASE COMPLEX
p81
aVCITRATE SYNTHASE
p82
aVPLANT-MITOCHONDRIA
p83
aVPHOSPHOENOLPYRUVATE CARBOXYLASE
p84
aV2-OXOGLUTARATE DEHYDROGENASE
p85
aVGLYCINE DECARBOXYLASE
p86
aVNITRATE ASSIMILATION
p87
aVCARBON METABOLISM
p88
aVCOENZYME-A
p89
aVLEAF
p90
asS'language'
p91
VEnglish
p92
sS'wosid'
p93
VWOS:000270389500011
p94
sS'citationCount'
p95
I50
sS'authors_init'
p96
(lp97
(VTCHERKEZ
VG
tp98
a(VMAHE
VA
tp99
a(VGAUTHIER
VP
tp100
a(VMAUVE
VC
tp101
a(VGOUT
VE
tp102
a(VBLIGNY
VR
tp103
a(VCORNIC
VG
tp104
a(VHODGES
VM
tp105
asS'citedReferences'
p106
(lp107
g1
(g2
g3
NtRp108
(dp109
g64
V10.1021/bi9619132
p110
sg60
VBIOCHEMISTRY
p111
sg62
V36
p112
sg96
(lp113
(VZHOU
VJ
tp114
asg22
I1997
sg56
V2977
p115
sbag1
(g2
g3
NtRp116
(dp117
g64
Nsg60
VPHOTOSYNTHESIS PHYSL
p118
sg62
Nsg96
(lp119
(VATKIN
VO K
tp120
asg22
I2000
sg56
VHOTOSYNTHESIS
p121
sbag1
(g2
g3
NtRp122
(dp123
g64
Nsg60
VMICROBIOLOGY
p124
sg62
V145
p125
sg96
(lp126
(VBREKER
VL
tp127
asg22
I1999
sg56
V3389
p128
sbag1
(g2
g3
NtRp129
(dp130
g64
V10.1073/pnas.87.2.673
p131
sg60
VP NATL ACAD SCI USA
p132
sg62
V87
p133
sg96
(lp134
(VBUDDE
VR J A
tp135
asg22
I1990
sg56
V673
p136
sbag1
(g2
g3
NtRp137
(dp138
g64
V10.1104/pp.95.1.131
p139
sg60
VPLANT PHYSIOL
p140
sg62
V95
p141
sg96
(lp142
(VBUDDE
VR J A
tp143
asg22
I1991
sg56
VLANT
p144
sbag1
(g2
g3
NtRp145
(dp146
g64
V10.1007/s00425-005-1505-9
p147
sg60
VPLANTA
p148
sg62
V222
p149
sg96
(lp150
(VBYKOVA
VN V
tp151
asg22
I2005
sg56
VLANTA
p152
sbag1
(g2
g3
NtRp153
(dp154
g64
V10.1099/mic.0.26007-0
p155
sg60
VMICROBIOL
p156
sg62
V149
p157
sg96
(lp158
(VCAMARASA
VC
tp159
asg22
I2003
sg56
V2669
p160
sbag1
(g2
g3
NtRp161
(dp162
g64
Nsg60
VAUST J PLANT PHYSIOL
p163
sg62
V12
p164
sg96
(lp165
(VDAY
VD A
tp166
asg22
I1985
sg56
V119
p167
sbag1
(g2
g3
NtRp168
(dp169
g64
Nsg60
VJ BIOL CHEM
p170
sg62
V270
p171
sg96
(lp172
(VDIEUAIDENOUBHANI
VM
tp173
asg22
I1995
sg56
V13147
p174
sbag1
(g2
g3
NtRp175
(dp176
g64
V10.1016/0006-291X(85)90919-2
p177
sg60
VBIOCHEM BIOPH RES CO
p178
sg62
V133
p179
sg96
(lp180
(VDRY
VI B
tp181
asg22
I1985
sg56
V397
p182
sbag1
(g2
g3
NtRp183
(dp184
g64
V10.1016/0003-9861(87)90546-7
p185
sg60
VARCH BIOCHEM BIOPHYS
p186
sg62
V257
p187
sg96
(lp188
(VDRY
VI B
tp189
asg22
I1987
sg56
V92
p190
sbag1
(g2
g3
NtRp191
(dp192
g64
Nsg60
VPLANT PHYSIOL
p193
sg62
V107
p194
sg96
(lp195
(VDUFF
VS M G
tp196
asg22
I1995
sg56
VLANT
p197
sbag1
(g2
g3
NtRp198
(dp199
g64
Nsg60
VAUST J PLANT PHYSIOL
p200
sg62
V13
p201
sg96
(lp202
(VEVANS
VJ R
tp203
asg22
I1986
sg56
V281
p204
sbag1
(g2
g3
NtRp205
(dp206
g64
V10.1007/BF00317584
p207
sg60
VOECOLOGIA
p208
sg62
V88
p209
sg96
(lp210
(VFLANAGAN
VL B
tp211
asg22
I1991
sg56
V394
p212
sbag1
(g2
g3
NtRp213
(dp214
g64
V10.1104/pp.88.1.69
p215
sg60
VPLANT PHYSIOL
p216
sg62
V88
p217
sg96
(lp218
(VGARDESTROM
VP
tp219
asg22
I1988
sg56
VLANT
p220
sbag1
(g2
g3
NtRp221
(dp222
g64
Nsg60
VNEW PHYTOL
p223
sg62
V181
p224
sg96
(lp225
(VGESSLER
VA
tp226
asg22
I2009
sg56
V385
p227
sbag1
(g2
g3
NtRp228
(dp229
g64
V10.1104/pp.30.4.343
p230
sg60
VPLANT PHYSIOL
p231
sg62
V30
p232
sg96
(lp233
(VGIBBS
VM
tp234
asg22
I1955
sg56
VLANT
p235
sbag1
(g2
g3
NtRp236
(dp237
g64
Nsg60
VJ BIOL CHEM
p238
sg62
V268
p239
sg96
(lp240
(VGOUT
VE
tp241
asg22
I1993
sg56
V3986
p242
sbag1
(g2
g3
NtRp243
(dp244
g64
Nsg60
VPLANT PHYSIOL
p245
sg62
V103
p246
sg96
(lp247
(VHANNING
VI
tp248
asg22
I1993
sg56
VLANT
p249
sbag1
(g2
g3
NtRp250
(dp251
g64
V10.1023/A:1008329124672
p252
sg60
VJ BIOMOL NMR
p253
sg62
V17
p254
sg96
(lp255
(VHOCHULI
VM
tp256
asg22
I2000
sg56
V33
p257
sbag1
(g2
g3
NtRp258
(dp259
g64
V10.1016/S0005-2728(03)00106-3
p260
sg60
VBBA
p261
sg62
V1606
p262
sg96
(lp263
(VIGAMBERDIEV
VA U
tp264
asg22
I2003
sg56
V117
p265
sbag1
(g2
g3
NtRp266
(dp267
g64
V10.1016/S0031-9422(00)91477-8
p268
sg60
VPHYTOCHEMISTRY
p269
sg62
V18
p270
sg96
(lp271
(VIREDALE
VS E
tp272
asg22
I1979
sg56
VHYTOCHEMISTRY
p273
sbag1
(g2
g3
NtRp274
(dp275
g64
V10.1105/tpc.105.039354
p276
sg60
VPLANT CELL
p277
sg62
V18
p278
sg96
(lp279
(VKASIMOVA
VM R
tp280
asg22
I2006
sg56
VLANT
p281
sbag1
(g2
g3
NtRp282
(dp283
g64
V10.1146/annurev.pp.46.060195.000401
p284
sg60
VANNU REV PLANT PHYS
p285
sg62
V46
p286
sg96
(lp287
(VKROMER
VS
tp288
asg22
I1995
sg56
V45
p289
sbag1
(g2
g3
NtRp290
(dp291
g64
Nsg60
VKINETICS PHOTOSYNTHE
p292
sg62
Nsg96
(lp293
(VLAISK
VA
tp294
asg22
I1977
sg56
Nsbag1
(g2
g3
NtRp295
(dp296
g64
V10.1093/jexbot/53.370.773
p297
sg60
VJ EXP BOT
p298
sg62
V53
p299
sg96
(lp300
(VLAWLOR
VD W
tp301
asg22
I2002
sg56
V773
p302
sbag1
(g2
g3
NtRp303
(dp304
g64
V10.1016/0003-9861(89)90104-5
p305
sg60
VARCH BIOCHEM BIOPHYS
p306
sg62
V269
p307
sg96
(lp308
(VLIN
VM
tp309
asg22
I1989
sg56
V228
p310
sbag1
(g2
g3
NtRp311
(dp312
g64
Nsg60
VJ BIOL CHEM
p313
sg62
V248
p314
sg96
(lp315
(VMATSUOKA
VY
tp316
asg22
I1973
sg56
V8022
p317
sbag1
(g2
g3
NtRp318
(dp319
g64
V10.1042/0264-6021:3430327
p320
sg60
VBIOCHEM J
p321
sg62
V343
p322
sg96
(lp323
(VMILLAR
VA H
tp324
asg22
I1999
sg56
V327
p325
sbag1
(g2
g3
NtRp326
(dp327
g64
V10.1016/j.tplants.2007.01.005
p328
sg60
VTRENDS PLANT SCI
p329
sg62
V12
p330
sg96
(lp331
(VNOCTOR
VG
tp332
asg22
I2007
sg56
V125
p333
sbag1
(g2
g3
NtRp334
(dp335
g64
V10.1104/pp.104.048470
p336
sg60
VPLANT PHYSIOL
p337
sg62
V136
p338
sg96
(lp339
(VNOGUES
VS
tp340
asg22
I2004
sg56
VLANT
p341
sbag1
(g2
g3
NtRp342
(dp343
g64
V10.1111/j.1399-3054.2006.00778.x
p344
sg60
VPHYSIOL PLANTARUM
p345
sg62
V129
p346
sg96
(lp347
(VNUNES-NESI
VA
tp348
asg22
I2007
sg56
VHYSIOL
p349
sbag1
(g2
g3
NtRp350
(dp351
g64
V10.1111/j.1399-3054.2006.00797.x
p352
sg60
VPHYSIOL PLANTARUM
p353
sg62
V129
p354
sg96
(lp355
(VRASMUSSON
VA G
tp356
asg22
I2007
sg56
VHYSIOL
p357
sbag1
(g2
g3
NtRp358
(dp359
g64
V10.1016/j.phytochem.2007.03.034
p360
sg60
VPHYTOCHEMISTRY
p361
sg62
V68
p362
sg96
(lp363
(VROMISCH-MARGL
VW
tp364
asg22
I2007
sg56
VHYTOCHEMISTRY
p365
sbag1
(g2
g3
NtRp366
(dp367
g64
V10.1074/jbc.M206366200
p368
sg60
VJ BIOL CHEM
p369
sg62
V277
p370
sg96
(lp371
(VRONTEIN
VD
tp372
asg22
I2002
sg56
V43948
p373
sbag1
(g2
g3
NtRp374
(dp375
g64
Nsg60
VJ BIOL CHEM
p376
sg62
V237
p377
sg96
(lp378
(VROSE
VI A
tp379
asg22
I1962
sg56
V3325
p380
sbag1
(g2
g3
NtRp381
(dp382
g64
Nsg60
VJ BIOL CHEM
p383
sg62
V236
p384
sg96
(lp385
(VROSE
VI A
tp386
asg22
I1961
sg56
V603
p387
sbag1
(g2
g3
NtRp388
(dp389
g64
Nsg60
VBIOTECHNIQUES
p390
sg62
V34
p391
sg96
(lp392
(VSAEED
VA I
tp393
asg22
I2003
sg56
V374
p394
sbag1
(g2
g3
NtRp395
(dp396
g64
V10.1007/BF00648981
p397
sg60
VJ SOLUTION CHEM
p398
sg62
V21
p399
sg96
(lp400
(VSCHARLIN
VP
tp401
asg22
I1992
sg56
V67
p402
sbag1
(g2
g3
NtRp403
(dp404
g64
V10.1046/j.1365-3040.2000.00634.x
p405
sg60
VPLANT CELL ENVIRON
p406
sg62
V23
p407
sg96
(lp408
(VSCHEIBLE
VW R
tp409
asg22
I2000
sg56
VLANT
p410
sbag1
(g2
g3
NtRp411
(dp412
g64
V10.1021/ja00487a057
p413
sg60
VJ AM CHEM SOC
p414
sg62
V100
p415
sg96
(lp416
(VSTEIN
VR L
tp417
asg22
I1978
sg56
V6249
p418
sbag1
(g2
g3
NtRp419
(dp420
g64
V10.1093/jxb/erm115
p421
sg60
VJ EXP BOT
p422
sg62
V59
p423
sg96
(lp424
(VTCHERKEZ
VG
tp425
asg22
I2008
sg56
V1685
p426
sbag1
(g2
g3
NtRp427
(dp428
g64
V10.1071/FP07282
p429
sg60
VFUNCT PLANT BIOL
p430
sg62
V35
p431
sg96
(lp432
(VTCHERKEZ
VG
tp433
asg22
I2008
sg56
V201
p434
sbag1
(g2
g3
NtRp435
(dp436
g64
V10.1073/pnas.0708947105
p437
sg60
VP NATL ACAD SCI USA
p438
sg62
V105
p439
sg96
(lp440
(VTCHERKEZ
VG
tp441
asg22
I2008
sg56
V797
p442
sbag1
(g2
g3
NtRp443
(dp444
g64
V10.1104/pp.105.062141
p445
sg60
VPLANT PHYSIOL
p446
sg62
V138
p447
sg96
(lp448
(VTCHERKEZ
VG
tp449
asg22
I2005
sg56
VLANT
p450
sbag1
(g2
g3
NtRp451
(dp452
g64
V10.1111/j.1365-3040.2007.01687.x
p453
sg60
VPLANT CELL ENVIRON
p454
sg62
V30
p455
sg96
(lp456
(VTCHERKEZ
VG
tp457
asg22
I2007
sg56
VLANT
p458
sbag1
(g2
g3
NtRp459
(dp460
g64
V10.1046/j.1432-1033.2003.03469.x
p461
sg60
VEUR J BIOCHEM
p462
sg62
V270
p463
sg96
(lp464
(VTOVAR-MENDEZ
VA
tp465
asg22
I2003
sg56
V1043
p466
sbag1
(g2
g3
NtRp467
(dp468
g64
V10.1002/pmic.200200500
p469
sg60
VPROTEOMICS
p470
sg62
V4
sg96
(lp471
(VWECKWERTH
VW
tp472
asg22
I2004
sg56
VROTEOMICS
p473
sbag1
(g2
g3
NtRp474
(dp475
g64
Nsg60
VANNU REV BIOPHYS BIO
p476
sg62
V15
p477
sg96
(lp478
(VWIEGAND
VG
tp479
asg22
I1986
sg56
V97
p480
sbag1
(g2
g3
NtRp481
(dp482
g64
V10.1021/cr60306a003
p483
sg60
VCHEM REV
p484
sg62
V77
p485
sg96
(lp486
(VWILHELM
VE
tp487
asg22
I1977
sg56
V219
p488
sbasb.