ccopy_reg
_reconstructor
p1
(ctethne.classes.paper
Paper
p2
c__builtin__
object
p3
NtRp4
(dp5
S'publisherCity'
p6
VROCKVILLE
p7
sS'reprintAddress'
p8
VBrowning, KS (reprint author), Univ Texas Austin, Dept Chem & Biochem, Austin, TX 78712 USA.
p9
sS'WC'
p10
VPlant Sciences
p11
sS'GA'
p12
V479WJ
p13
sS'FX'
p14
(lp15
VThis work was supported by grants from the Department of Energy
p16
aV(DE-FG02-04ER15575), the National Science Foundation (MCB0214996), and
p17
aVThe Welch Foundation (F1339) to K. S. B. The authors thank Dr. Austen
p18
aVRiggs and Claire Riggs (Section of Neurobiology, University of Texas)
p19
aVfor their expert help in obtaining the light scattering data. The light
p20
aVscattering instrumentation was obtained with aid from National Science
p21
aVFoundation Grant MCB 951179 (to A. Riggs). The authors thank Dr. Tanya
p22
aVPaull and Ben Hopkins for their assistance and use of the SMART system,
p23
aVDr. Elizabeth Burks for purification of the native Arabidopsis eIF4B,
p24
aVDr. E. Vierling (University of Arizona) for the AtHSP21 plasmid, Dr. J.
p25
aVBailey-Serres (University of California-Riverside) for the maize ADH
p26
aVplasmid, Dr. B. Lane (University of Toronto) for the wheat germin
p27
aVplasmid, and Dr. B. Larkins (University of Arizona) for the oat globulin
p28
aVplasmid. Ultracentrifugation analysis was carried out at the National
p29
aVUltracentrifugation Facility at the University of Connecticut at Storrs
p30
aV(Dr. James Cole, Director). The authors thank Dr. A. S. N. Reddy
p31
aV(Department of Biology, Colorado State University) for his gift of the
p32
aVArabidopsis cell suspension culture. The University of Texas MD Anderson
p33
aVCancer Center, Department of Veterinary Sciences (Bastrop, TX) is
p34
aVsupported by Grant NIH-NCI CA-16672.
p35
asS'abstract'
p36
VEukaryotic initiation factor (eIF) 4B is known to interact with multiple initiation factors, mRNA, rRNA, and poly(A) binding protein (PABP). To gain a better understanding of the function of eIF4B, the two isoforms from Arabidopsis (Arabidopsis thaliana) were expressed and analyzed using biophysical and biochemical methods. Plant eIF4B was found by ultracentrifugation and light scattering analysis to most likely be a monomer with an extended structure. An extended structure would facilitate the multiple interactions of eIF4B with mRNA as well as other initiation factors (eIF4A, eIF4G, PABP, and eIF3). Eight mRNAs, barley (Hordeum vulgare) alpha-amylase mRNA, rabbit beta-hemoglobin mRNA, Arabidopsis heat shock protein 21 (HSP21) mRNA, oat (Avena sativa) globulin, wheat (Triticum aestivum) germin, maize (Zea mays) alcohol dehydrogenase, satellite tobacco necrosis virus RNA, and alfalfa mosaic virus (AMV) 4, were used in wheat germ in vitro translation assays to measure their dependence on eIF4B and eIF4F isoforms. The two Arabidopsis eIF4B isoforms, as well as native and recombinant wheat eIF4B, showed similar responses in the translation assay. AMV RNA 4 and Arabidopsis HSP21 showed only a slight dependence on the presence of eIF4B isoforms, whereas rabbit beta-hemoglobin mRNA and wheat germin mRNA showed modest dependence. Barley alpha-amylase, oat globulin, and satellite tobacco necrosis virus RNA displayed the strongest dependence on eIF4B. These results suggest that eIF4B has some effects on mRNA discrimination during initiation of translation. Barley alpha-amylase, oat globulin, and rabbit beta-hemoglobin mRNA showed the highest activity with eIF4F, whereas Arabidopsis HSP21 and AMV RNA 4 used both eIF4F and eIF(iso)4F equally well. These results suggest that differential or optimal translation of mRNAs may require initiation complexes composed of specific isoforms of initiation factor gene products. Thus, individual mRNAs or classes of mRNAs may respond to the relative abundance of a particular initiation factor(s), which in turn may affect the amount of protein translated. It is likely that optimal multifactor initiation complexes exist that allow for optimal translation of mRNAs under a variety of cellular conditions.
p37
sS'pageEnd'
p38
I1854
sS'date'
p39
I2009
sS'documentType'
p40
VArticle
p41
sS'subject'
p42
VPlant Sciences
p43
sS'isoSource'
p44
VPlant Physiol.
p45
sS'timesCited'
p46
(lp47
I15
aVZ9 16
p48
asS'funding'
p49
(lp50
(VDepartment of Energy
VDE-FG02-04ER15575
tp51
a(VNational Science Foundation
VMCB0214996
tp52
a(VThe Welch Foundation
VF1339
tp53
a(VNIH-NCI
VCA-16672
tp54
asS'PT'
p55
VJ
sS'title'
p56
VEvidence For Variation In The Optimal Translation Initiation Complex: Plant Eif4B, Eif4F, And Eif(Iso)4F Differentially Promote Translation Of Mrnas
p57
sS'ISSN'
p58
(lp59
V0032-0889
p60
aVJ9 PLANT PHYSIOL
p61
asS'authors_full'
p62
(lp63
(VMAYBERRY
VLAURA K
tp64
a(VALLEN
VM LEAH
tp65
a(VDENNIS
VMICHAEL D
tp66
a(VBROWNING
VKAREN S
tp67
asS'PG'
p68
I11
sS'PD'
p69
VAUG
p70
sS'pageStart'
p71
I1844
sS'issue'
p72
I4
sS'journal'
p73
VPLANT PHYSIOLOGY
p74
sS'volume'
p75
V150
p76
sS'doi'
p77
V10.1104/pp.109.138438
p78
sS'emailAddress'
p79
Vkbrowning@mail.utexas.edu
p80
sS'authorAddress'
p81
(lp82
V[Browning, Karen S.] Univ Texas Austin, Dept Chem & Biochem, Austin, TX 78712 USA.
p83
aVUniv Texas Austin, Inst Cell & Mol Biol, Austin, TX 78712 USA.
p84
asS'publisherAddress'
p85
V15501 MONONA DRIVE, ROCKVILLE, MD 20855 USA
p86
sS'ER'
p87
V
sS'publisher'
p88
VAMER SOC PLANT BIOLOGISTS
p89
sS'authorKeywords'
p90
(lp91
VPROTEIN-SYNTHESIS INITIATION
p92
aVRIBOSOME ENTRY SITE
p93
aVCAP-DEPENDENT TRANSLATION
p94
aVWHEAT-GERM
p95
aVFACTOR 4B
p96
aVPOLY(A)-BINDING PROTEIN
p97
aVHELICASE ACTIVITY
p98
aVRECOGNITION MOTIF
p99
aVPHOSPHORYLATION STATE
p100
aVELONGATION-FACTORS
p101
asS'language'
p102
VEnglish
p103
sS'wosid'
p104
VWOS:000268692200022
p105
sS'citationCount'
p106
I69
sS'authors_init'
p107
(lp108
(VMAYBERRY
VL K
tp109
a(VALLEN
VM L
tp110
a(VDENNIS
VM D
tp111
a(VBROWNING
VK S
tp112
asS'citedReferences'
p113
(lp114
g1
(g2
g3
NtRp115
(dp116
g77
Nsg73
VJ BIOL CHEM
p117
sg75
V263
p118
sg107
(lp119
(VABRAMSON
VR D
tp120
asg39
I1988
sg71
V5462
p121
sbag1
(g2
g3
NtRp122
(dp123
g77
Nsg73
VJ BIOL CHEM
p124
sg75
V262
p125
sg107
(lp126
(VABRAMSON
VR D
tp127
asg39
I1987
sg71
V3826
p128
sbag1
(g2
g3
NtRp129
(dp130
g77
Nsg73
VJ BIOL CHEM
p131
sg75
V263
p132
sg107
(lp133
(VABRAMSON
VR D
tp134
asg39
I1988
sg71
V6016
p135
sbag1
(g2
g3
NtRp136
(dp137
g77
Nsg73
VEMBO J
p138
sg75
V12
p139
sg107
(lp140
(VALTMANN
VM
tp141
asg39
I1993
sg71
V3997
p142
sbag1
(g2
g3
NtRp143
(dp144
g77
Nsg73
VGENETICS
p145
sg75
V163
p146
sg107
(lp147
(VBELOSTOTSKY
VD A
tp148
asg39
I2003
sg71
V311
p149
sbag1
(g2
g3
NtRp150
(dp151
g77
Nsg73
VJ BIOL CHEM
p152
sg75
V253
p153
sg107
(lp154
(VBENNE
VR
tp155
asg39
I1978
sg71
V3078
p156
sbag1
(g2
g3
NtRp157
(dp158
g77
V10.1074/jbc.M909464199
p159
sg73
VJ BIOL CHEM
p160
sg75
V275
p161
sg107
(lp162
(VBI
VX P
tp163
asg39
I2000
sg71
V17740
p164
sbag1
(g2
g3
NtRp165
(dp166
g77
Nsg73
VJ BIOL CHEM
p167
sg75
V264
p168
sg107
(lp169
(VBROWNING
VK S
tp170
asg39
I1989
sg71
V8491
p171
sbag1
(g2
g3
NtRp172
(dp173
g77
V10.1007/BF00039380
p174
sg73
VPLANT MOL BIOL
p175
sg75
V32
p176
sg107
(lp177
(VBROWNING
VK S
tp178
asg39
I1996
sg71
VLANT
p179
sbag1
(g2
g3
NtRp180
(dp181
g77
Nsg73
VJ BIOL CHEM
p182
sg75
V263
p183
sg107
(lp184
(VBROWNING
VK S
tp185
asg39
I1988
sg71
V9630
p186
sbag1
(g2
g3
NtRp187
(dp188
g77
Nsg73
VJ BIOL CHEM
p189
sg75
V265
p190
sg107
(lp191
(VBROWNING
VK S
tp192
asg39
I1990
sg71
V17967
p193
sbag1
(g2
g3
NtRp194
(dp195
g77
V10.1093/nar/gki410
p196
sg73
VNUCLEIC ACIDS RES
p197
sg75
V33
p198
sg107
(lp199
(VBRYSON
VK
tp200
asg39
I2005
sg71
VW36
p201
sbag1
(g2
g3
NtRp202
(dp203
g77
V10.1046/j.1432-1327.2000.01101.x
p204
sg73
VEUR J BIOCHEM
p205
sg75
V267
p206
sg107
(lp207
(VBUSHELL
VM
tp208
asg39
I2000
sg71
V1083
p209
sbag1
(g2
g3
NtRp210
(dp211
g77
V10.1074/jbc.M702193200
p212
sg73
VJ BIOL CHEM
p213
sg75
V282
p214
sg107
(lp215
(VCHENG
VS
tp216
asg39
I2007
sg71
V25247
p217
sbag1
(g2
g3
NtRp218
(dp219
g77
V10.1074/jbc.M605404200
p220
sg73
VJ BIOL CHEM
p221
sg75
V281
p222
sg107
(lp223
(VCHENG
VS J
tp224
asg39
I2006
sg71
V24351
p225
sbag1
(g2
g3
NtRp226
(dp227
g77
V10.1074/jbc.M807716200
p228
sg73
VJ BIOL CHEM
p229
sg75
V283
p230
sg107
(lp231
(VCHENG
VS J
tp232
asg39
I2008
sg71
V36140
p233
sbag1
(g2
g3
NtRp234
(dp235
g77
Nsg73
VEMBO J
p236
sg75
V12
p237
sg107
(lp238
(VCOPPOLECCHIA
VR
tp239
asg39
I1993
sg71
V4005
p240
sbag1
(g2
g3
NtRp241
(dp242
g77
V10.1016/S0092-8674(02)00642-6
p243
sg73
VCELL
p244
sg75
V108
p245
sg107
(lp246
(VDEVER
VT E
tp247
asg39
I2002
sg71
V545
p248
sbag1
(g2
g3
NtRp249
(dp250
g77
V10.1128/JVI.78.9.4684-4699.2004
p251
sg73
VJ VIROL
p252
sg75
V78
p253
sg107
(lp254
(VDOEPKER
VR C
tp255
asg39
I2004
sg71
V4684
p256
sbag1
(g2
g3
NtRp257
(dp258
g77
Nsg73
VJ BIOL CHEM
p259
sg75
V260
p260
sg107
(lp261
(VDUNCAN
VR
tp262
asg39
I1985
sg71
V5493
p263
sbag1
(g2
g3
NtRp264
(dp265
g77
V10.1083/jcb.109.4.1467
p266
sg73
VJ CELL BIOL
p267
sg75
V109
p268
sg107
(lp269
(VDUNCAN
VR F
tp270
asg39
I1989
sg71
V1467
p271
sbag1
(g2
g3
NtRp272
(dp273
g77
V10.1021/bi034506g
p274
sg73
VBIOCHEMISTRY
p275
sg75
V42
p276
sg107
(lp277
(VFLEMING
VK
tp278
asg39
I2003
sg71
V8966
p279
sbag1
(g2
g3
NtRp280
(dp281
g77
Nsg73
VTRANSLATIONAL CONTRO
p282
sg75
Nsg107
(lp283
(VGALLIE
VD R
tp284
asg39
I2007
sg71
V747
p285
sbag1
(g2
g3
NtRp286
(dp287
g77
Nsg73
VJ BIOL CHEM
p288
sg75
V269
p289
sg107
(lp290
(VGALLIE
VD R
tp291
asg39
I1994
sg71
V17166
p292
sbag1
(g2
g3
NtRp293
(dp294
g77
Nsg73
VJ BIOL CHEM
p295
sg75
V272
p296
sg107
(lp297
(VGALLIE
VD R
tp298
asg39
I1997
sg71
V1046
p299
sbag1
(g2
g3
NtRp300
(dp301
g77
Nsg73
VJ BIOL CHEM
p302
sg75
V259
p303
sg107
(lp304
(VGRIFO
VJ A
tp305
asg39
I1984
sg71
V8648
p306
sbag1
(g2
g3
NtRp307
(dp308
g77
Nsg73
VJ BIOL CHEM
p309
sg75
V258
p310
sg107
(lp311
(VGRIFO
VJ A
tp312
asg39
I1983
sg71
V5804
p313
sbag1
(g2
g3
NtRp314
(dp315
g77
V10.1111/j.1432-1033.2004.04217.x
p316
sg73
VEUR J BIOCHEM
p317
sg75
V271
p318
sg107
(lp319
(VHERNANDEZ
VG
tp320
asg39
I2004
sg71
V2923
p321
sbag1
(g2
g3
NtRp322
(dp323
g77
V10.1016/S0968-0004(98)01285-7
p324
sg73
VTRENDS BIOCHEM SCI
p325
sg75
V23
p326
sg107
(lp327
(VJEANMOUGIN
VF
tp328
asg39
I1998
sg71
V403
p329
sbag1
(g2
g3
NtRp330
(dp331
g77
V10.1021/bi047298g
p332
sg73
VBIOCHEMISTRY
p333
sg75
V44
p334
sg107
(lp335
(VKHAN
VM A
tp336
asg39
I2005
sg71
V4510
p337
sbag1
(g2
g3
NtRp338
(dp339
g77
V10.1186/gb-2007-8-4-r60
p340
sg73
VGENOME BIOL
p341
sg75
V8
sg107
(lp342
(VKIM
VB H
tp343
asg39
I2007
sg71
Nsbag1
(g2
g3
NtRp344
(dp345
g77
V10.1105/tpc.104.026880
p346
sg73
VPLANT CELL
p347
sg75
V16
p348
sg107
(lp349
(VKIM
VT H
tp350
asg39
I2004
sg71
VLANT
p351
sbag1
(g2
g3
NtRp352
(dp353
g77
Nsg73
VMETHOD ENZYMOL
p354
sg75
V118
p355
sg107
(lp356
(VLAX
VS R
tp357
asg39
I1986
sg71
V109
p358
sbag1
(g2
g3
NtRp359
(dp360
g77
V10.1074/jbc.273.32.20084
p361
sg73
VJ BIOL CHEM
p362
sg75
V273
p363
sg107
(lp364
(VLE
VH
tp365
asg39
I1998
sg71
V20084
p366
sbag1
(g2
g3
NtRp367
(dp368
g77
V10.1074/jbc.272.26.16247
p369
sg73
VJ BIOL CHEM
p370
sg75
V272
p371
sg107
(lp372
(VLE
VH
tp373
asg39
I1997
sg71
V16247
p374
sbag1
(g2
g3
NtRp375
(dp376
g77
V10.1074/jbc.M001186200
p377
sg73
VJ BIOL CHEM
p378
sg75
V275
p379
sg107
(lp380
(VLE
VH
tp381
asg39
I2000
sg71
V17452
p382
sbag1
(g2
g3
NtRp383
(dp384
g77
V10.1021/bi972430g
p385
sg73
VBIOCHEMISTRY
p386
sg75
V37
p387
sg107
(lp388
(VLORSCH
VJ R
tp389
asg39
I1998
sg71
V2180
p390
sbag1
(g2
g3
NtRp391
(dp392
g77
V10.1074/jbc.M104970200
p393
sg73
VJ BIOL CHEM
p394
sg75
V276
p395
sg107
(lp396
(VLUO
VY J
tp397
asg39
I2001
sg71
V43083
p398
sbag1
(g2
g3
NtRp399
(dp400
g77
Nsg73
VJ BIOL CHEM
p401
sg75
V266
p402
sg107
(lp403
(VMANZELLA
VJ M
tp404
asg39
I1991
sg71
V2383
p405
sbag1
(g2
g3
NtRp406
(dp407
g77
V10.1016/S0968-0004(02)02087-X
p408
sg73
VTRENDS BIOCHEM SCI
p409
sg75
V27
p410
sg107
(lp411
(VMATHEWS
VM B
tp412
asg39
I2002
sg71
V267
p413
sbag1
(g2
g3
NtRp414
(dp415
g77
V10.1016/S0076-6879(07)30015-3
p416
sg73
VMETHOD ENZYMOL
p417
sg75
V430
p418
sg107
(lp419
(VMAYBERRY
VL K
tp420
asg39
I2007
sg71
V397
p421
sbag1
(g2
g3
NtRp422
(dp423
g77
Nsg73
VRNA
p424
sg75
V2
sg107
(lp425
(VMETHOT
VN
tp426
asg39
I1996
sg71
V38
p427
sbag1
(g2
g3
NtRp428
(dp429
g77
Nsg73
VMOL CELL BIOL
p430
sg75
V16
p431
sg107
(lp432
(VMETHOT
VN
tp433
asg39
I1996
sg71
V5328
p434
sbag1
(g2
g3
NtRp435
(dp436
g77
Nsg73
VMOL CELL BIOL
p437
sg75
V14
p438
sg107
(lp439
(VMETHOT
VN
tp440
asg39
I1994
sg71
V2307
p441
sbag1
(g2
g3
NtRp442
(dp443
g77
V10.1006/bbrc.1999.1814
p444
sg73
VBIOCHEM BIOPH RES CO
p445
sg75
V266
p446
sg107
(lp447
(VMETZ
VA M
tp448
asg39
I1999
sg71
V314
p449
sbag1
(g2
g3
NtRp450
(dp451
g77
Nsg73
VJ VIROL
p452
sg75
V69
p453
sg107
(lp454
(VMEYER
VK
tp455
asg39
I1995
sg71
V2819
p456
sbag1
(g2
g3
NtRp457
(dp458
g77
Nsg73
VEMBO J
p459
sg75
V9
sg107
(lp460
(VMILBURN
VS C
tp461
asg39
I1990
sg71
V2783
p462
sbag1
(g2
g3
NtRp463
(dp464
g77
Nsg73
VJ BIOL CHEM
p465
sg75
V269
p466
sg107
(lp467
(VNARANDA
VT
tp468
asg39
I1994
sg71
V14465
p469
sbag1
(g2
g3
NtRp470
(dp471
g77
V10.1128/JVI.76.5.2113-2122.2002
p472
sg73
VJ VIROL
p473
sg75
V76
p474
sg107
(lp475
(VOCHS
VK
tp476
asg39
I2002
sg71
V2113
p477
sbag1
(g2
g3
NtRp478
(dp479
g77
Nsg73
VJ VIROL
p480
sg75
V73
p481
sg107
(lp482
(VOCHS
VK
tp483
asg39
I1999
sg71
V7505
p484
sbag1
(g2
g3
NtRp485
(dp486
g77
V10.1038/sj.emboj.7600140
p487
sg73
VEMBO J
p488
sg75
V23
p489
sg107
(lp490
(VPARK
VH S
tp491
asg39
I2004
sg71
V1381
p492
sbag1
(g2
g3
NtRp493
(dp494
g77
Nsg73
VTRANSLATIONAL CONTRO
p495
sg75
Nsg107
(lp496
(VPESTOVA
VT V
tp497
asg39
I2007
sg71
V87
p498
sbag1
(g2
g3
NtRp499
(dp500
g77
V10.1016/S0248-4900(03)00031-5
p501
sg73
VBIOL CELL
p502
sg75
V95
p503
sg107
(lp504
(VPREVOT
VD
tp505
asg39
I2003
sg71
V141
p506
sbag1
(g2
g3
NtRp507
(dp508
g77
V10.1038/sj.emboj.7600193
p509
sg73
VEMBO J
p510
sg75
V23
p511
sg107
(lp512
(VRAUGHT
VB
tp513
asg39
I2004
sg71
V1761
p514
sbag1
(g2
g3
NtRp515
(dp516
g77
Nsg73
VJ BIOL CHEM
p517
sg75
V260
p518
sg107
(lp519
(VRAY
VB K
tp520
asg39
I1985
sg71
V7651
p521
sbag1
(g2
g3
NtRp522
(dp523
g77
V10.1074/jbc.M100157200
p524
sg73
VJ BIOL CHEM
p525
sg75
V276
p526
sg107
(lp527
(VROGERS
VG W
tp528
asg39
I2001
sg71
V30914
p529
sbag1
(g2
g3
NtRp530
(dp531
g77
V10.1016/S0079-6603(02)72073-4
p532
sg73
VPROG NUCLEIC ACID RE
p533
sg75
V72
p534
sg107
(lp535
(VROGERS
VG W
tp536
asg39
I2002
sg71
VROG
p537
sbag1
(g2
g3
NtRp538
(dp539
g77
Nsg73
VMOL CELL BIOL
p540
sg75
V10
p541
sg107
(lp542
(VROZEN
VF
tp543
asg39
I1990
sg71
V1134
p544
sbag1
(g2
g3
NtRp545
(dp546
g77
Nsg73
VJ VIROL
p547
sg75
V73
p548
sg107
(lp549
(VRUST
VR C
tp550
asg39
I1999
sg71
V6111
p551
sbag1
(g2
g3
NtRp552
(dp553
g77
Nsg73
VBIOPHYS J
p554
sg75
V78
p555
sg107
(lp556
(VSCHUCK
VP
tp557
asg39
I2000
sg71
V1606
p558
sbag1
(g2
g3
NtRp559
(dp560
g77
V10.1038/sj.emboj.7601166
p561
sg73
VEMBO J
p562
sg75
V25
p563
sg107
(lp564
(VSHAHBAZIAN
VD
tp565
asg39
I2006
sg71
V2781
p566
sbag1
(g2
g3
NtRp567
(dp568
g77
V10.1016/S0959-440X(03)00009-5
p569
sg73
VCURR OPIN STRUC BIOL
p570
sg75
V13
p571
sg107
(lp572
(VSONENBERG
VN
tp573
asg39
I2003
sg71
V56
p574
sbag1
(g2
g3
NtRp575
(dp576
g77
V10.1016/0022-2836(77)90269-8
p577
sg73
VJ MOL BIOL
p578
sg75
V116
p579
sg107
(lp580
(VTRACHSEL
VH
tp581
asg39
I1977
sg71
V755
p582
sbag1
(g2
g3
NtRp583
(dp584
g77
Nsg73
VBIOCHEM J
p585
sg75
V252
p586
sg107
(lp587
(VTRAKSHEL
VG M
tp588
asg39
I1988
sg71
V127
p589
sbag1
(g2
g3
NtRp590
(dp591
g77
V10.1038/onc.2008.367
p592
sg73
VONCOGENE
p593
sg75
V28
p594
sg107
(lp595
(VVAN
VGORP A G M
tp596
asg39
I2009
sg71
V95
p597
sbag1
(g2
g3
NtRp598
(dp599
g77
V10.1021/bi9724570
p600
sg73
VBIOCHEMISTRY
p601
sg75
V37
p602
sg107
(lp603
(VWEI
VC C
tp604
asg39
I1998
sg71
V1910
p605
sbag1
(g2
g3
NtRp606
(dp607
g77
V10.1016/0003-2670(93)80373-S
p608
sg73
VANAL CHIM ACTA
p609
sg75
V272
p610
sg107
(lp611
(VWYATT
VP J
tp612
asg39
I1993
sg71
V1
sbag1
(g2
g3
NtRp613
(dp614
g77
V10.1021/bi992322p
p615
sg73
VBIOCHEMISTRY
p616
sg75
V39
p617
sg107
(lp618
(VBI
VX P
tp619
asg39
I2000
sg71
V5758
p620
sbag1
(g2
g3
NtRp621
(dp622
g77
V10.1186/1741-7007-3-14
p623
sg73
VBMC BIOL
p624
sg75
V3
sg107
(lp625
(VZHOU
VC S
tp626
asg39
I2005
sg71
Nsbasb.