ccopy_reg
_reconstructor
p1
(ctethne.classes.paper
Paper
p2
c__builtin__
object
p3
NtRp4
(dp5
S'publisherCity'
p6
VROCKVILLE
p7
sS'reprintAddress'
p8
VKesarwani, M (reprint author), Duke Univ, Dept Biol, Durham, NC 27708 USA.
p9
sS'WC'
p10
VPlant Sciences
p11
sS'GA'
p12
V166DA
p13
sS'abstract'
p14
VTGA transcription factors are implicated as regulators of pathogenesis-related (PR) genes because of their physical interaction with the known positive regulator, nonexpresser of PR gene1 (NPR1). A triple-knockout mutant tga2-1 tga5-1 tga6-1 was shown previously to be defective in the induction of PR genes and systemic acquired resistance, confirming their role in disease resistance. However, the contributions of individual TGA factors have been difficult to discern because of functional redundancy among these factors, as well as possible dual functions for some single factors. In this study, we characterized six TGA factors by reverse genetics. We show that TGA3 is required for both basal and 2,6-dichloroisonicotinic acid-induced transcription of PR genes. The tga3-1 mutants were found to be defective in basal pathogen resistance, whereas induced resistance was unaffected. TGA1 and TGA4 play partially redundant roles in regulation of basal resistance, having only moderate effects on PR gene expression. Additionally, an activation-tagged mutant of TGA6 was able to increase basal as well as induced expression of PR1, demonstrating a positive role for TGA6 on PR gene expression. In contrast, TGA2 has repressor activity on PR gene expression even though it can act as a positive regulator in the tga5-1 tga6-1 null mutant background. Finally, we examined the genetic interaction between tga2-2 and suppressor of npr1 inducible1 (sni1-1). TGA2's repressor activity overlaps with SNI1 because the tga2-2 sni1-1 double mutant shows a synergistic effect on PR gene expression.
p15
sS'pageEnd'
p16
I346
sS'date'
p17
I2007
sS'documentType'
p18
VArticle
p19
sS'subject'
p20
VPlant Sciences
p21
sS'isoSource'
p22
VPlant Physiol.
p23
sS'timesCited'
p24
(lp25
I59
aVZ9 62
p26
asS'PT'
p27
VJ
sS'title'
p28
VGenetic Interactions Of Tga Transcription Factors In The Regulation Of Pathogenesis-Related Genes And Disease Resistance In Arabidopsis
p29
sS'ISSN'
p30
(lp31
V0032-0889
p32
aVJ9 PLANT PHYSIOL
p33
asS'authors_full'
p34
(lp35
(VKESARWANI
VMEENU
tp36
a(VYOO
VJUNGMIN
tp37
a(VDONG
VXINNIAN
tp38
asS'PG'
p39
I11
sS'PD'
p40
VMAY
p41
sS'pageStart'
p42
I336
sS'issue'
p43
I1
sS'RI'
p44
Vallasia, valerie/B-4214-2009
p45
sS'journal'
p46
VPLANT PHYSIOLOGY
p47
sS'volume'
p48
V144
p49
sS'doi'
p50
V10.1104/pp.106.095299
p51
sS'emailAddress'
p52
Vkmeenu@molbio.mgh.harvard.edu; xdong@duke.edu
p53
sS'authorAddress'
p54
VDuke Univ, Dept Biol, Durham, NC 27708 USA.
p55
sS'publisherAddress'
p56
V15501 MONONA DRIVE, ROCKVILLE, MD 20855 USA
p57
sS'ER'
p58
V
sS'publisher'
p59
VAMER SOC PLANT BIOLOGISTS
p60
sS'authorKeywords'
p61
(lp62
VSYSTEMIC ACQUIRED-RESISTANCE
p63
aVDNA-BINDING ACTIVITY
p64
aVSALICYLIC-ACID
p65
aVPLANT DEFENSE
p66
aVPR-1 GENE
p67
aVFUNCTIONAL-ANALYSIS
p68
aVT-DNA
p69
aVNPR1
p70
aVEXPRESSION
p71
aVPROTEIN
p72
asS'language'
p73
VEnglish
p74
sS'wosid'
p75
VWOS:000246356300028
p76
sS'citationCount'
p77
I54
sS'authors_init'
p78
(lp79
(VKESARWANI
VM
tp80
a(VYOO
VJ M
tp81
a(VDONG
VX N
tp82
asS'citedReferences'
p83
(lp84
g1
(g2
g3
NtRp85
(dp86
g50
V10.1074/jbc.M305961200
p87
sg46
VJ BIOL CHEM
p88
sg48
V278
p89
sg78
(lp90
(VAMMANAMANCHI
VS
tp91
asg17
I2003
sg42
V35775
p92
sbag1
(g2
g3
NtRp93
(dp94
g50
V10.1006/jmbi.1998.2394
p95
sg46
VJ MOL BIOL
p96
sg48
V285
p97
sg78
(lp98
(VARAVIND
VL
tp99
asg17
I1999
sg42
V1353
p100
sbag1
(g2
g3
NtRp101
(dp102
g50
Nsg46
VPLANT CELL
p103
sg48
V6
sg78
(lp104
(VBOWLING
VS A
tp105
asg17
I1994
sg42
VLANT
p106
sbag1
(g2
g3
NtRp107
(dp108
g50
V10.1016/S0092-8674(00)81858-9
p109
sg46
VCELL
p110
sg48
V88
p111
sg78
(lp112
(VCAO
VH
tp113
asg17
I1997
sg42
V57
p114
sbag1
(g2
g3
NtRp115
(dp116
g50
Nsg46
VPLANT CELL
p117
sg48
V6
sg78
(lp118
(VCAO
VH
tp119
asg17
I1994
sg42
VLANT
p120
sbag1
(g2
g3
NtRp121
(dp122
g50
Nsg46
VPLANT CELL
p123
sg48
V10
p124
sg78
(lp125
(VCLARKE
VJ D
tp126
asg17
I1998
sg42
VLANT
p127
sbag1
(g2
g3
NtRp128
(dp129
g50
V10.1073/pnas.92.14.6602
p130
sg46
VP NATL ACAD SCI USA
p131
sg48
V92
p132
sg78
(lp133
(VDELANEY
VT P
tp134
asg17
I1995
sg42
V6602
p135
sbag1
(g2
g3
NtRp136
(dp137
g50
V10.1104/pp.113.1.5
p138
sg46
VPLANT PHYSIOL
p139
sg48
V113
p140
sg78
(lp141
(VDELANEY
VT P
tp142
asg17
I1997
sg42
VLANT
p143
sbag1
(g2
g3
NtRp144
(dp145
g50
V10.1105/tpc.012849
p146
sg46
VPLANT CELL
p147
sg48
V15
p148
sg78
(lp149
(VDESPRES
VC
tp150
asg17
I2003
sg42
VLANT
p151
sbag1
(g2
g3
NtRp152
(dp153
g50
V10.1105/tpc.12.2.279
p154
sg46
VPLANT CELL
p155
sg48
V12
p156
sg78
(lp157
(VDESPRES
VC
tp158
asg17
I2000
sg42
VLANT
p159
sbag1
(g2
g3
NtRp160
(dp161
g50
V10.1146/annurev.phyto.42.040803.140421
p162
sg46
VANNU REV PHYTOPATHOL
p163
sg48
V42
p164
sg78
(lp165
(VDURRANT
VW E
tp166
asg17
I2004
sg42
V185
p167
sbag1
(g2
g3
NtRp168
(dp169
g50
V10.1016/j.tplants.2004.12.006
p170
sg46
VTRENDS PLANT SCI
p171
sg48
V10
p172
sg78
(lp173
(VEULGEM
VT
tp174
asg17
I2005
sg42
V71
p175
sbag1
(g2
g3
NtRp176
(dp177
g50
V10.1105/tpc.001628
p178
sg46
VPLANT CELL
p179
sg48
V14
p180
sg78
(lp181
(VFAN
VW H
tp182
asg17
I2002
sg42
VLANT
p183
sbag1
(g2
g3
NtRp184
(dp185
g50
V10.1111/j.1365-313X.2005.02457.x
p186
sg46
VPLANT J
p187
sg48
V43
p188
sg78
(lp189
(VFITZGERALD
VH A
tp190
asg17
I2005
sg42
VLANT
p191
sbag1
(g2
g3
NtRp192
(dp193
g50
V10.1126/science.261.5122.754
p194
sg46
VSCIENCE
p195
sg48
V261
p196
sg78
(lp197
(VGAFFNEY
VT
tp198
asg17
I1993
sg42
V754
p199
sbag1
(g2
g3
NtRp200
(dp201
g50
Nsg46
VPLANT CELL
p202
sg48
V8
sg78
(lp203
(VGORLACH
VJ
tp204
asg17
I1996
sg42
VLANT
p205
sbag1
(g2
g3
NtRp206
(dp207
g50
V10.1016/S1360-1385(01)02223-3
p208
sg46
VTRENDS PLANT SCI
p209
sg48
V7
sg78
(lp210
(VJAKOBY
VM
tp211
asg17
I2002
sg42
V106
p212
sbag1
(g2
g3
NtRp213
(dp214
g50
V10.1105/tpc.012211
p215
sg46
VPLANT CELL
p216
sg48
V15
p217
sg78
(lp218
(VJOHNSON
VC
tp219
asg17
I2003
sg42
VLANT
p220
sbag1
(g2
g3
NtRp221
(dp222
g50
V10.1105/tpc.106.044149
p223
sg46
VPLANT CELL
p224
sg48
V18
p225
sg78
(lp226
(VJOURNOT-CATALINO
VN
tp227
asg17
I2006
sg42
VLANT
p228
sbag1
(g2
g3
NtRp229
(dp230
g50
Nsg46
VEMBO J
p231
sg48
V15
p232
sg78
(lp233
(VJUPIN
VI
tp234
asg17
I1996
sg42
V5679
p235
sbag1
(g2
g3
NtRp236
(dp237
g50
V10.1007/s11103-005-0409-1
p238
sg46
VPLANT MOL BIOL
p239
sg48
V57
p240
sg78
(lp241
(VKANG
VH G
tp242
asg17
I2005
sg42
VLANT
p243
sbag1
(g2
g3
NtRp244
(dp245
g50
V10.1046/j.1365-313X.2001.01411.x
p246
sg46
VPLANT J
p247
sg48
V32
p248
sg78
(lp249
(VKIM
VH S
tp250
asg17
I2002
sg42
VLANT
p251
sbag1
(g2
g3
NtRp252
(dp253
g50
V10.1105/tpc.12.12.2339
p254
sg46
VPLANT CELL
p255
sg48
V12
p256
sg78
(lp257
(VKINKEMA
VM
tp258
asg17
I2000
sg42
VLANT
p259
sbag1
(g2
g3
NtRp260
(dp261
g50
V10.1105/tpc.11.12.2283
p262
sg46
VPLANT CELL
p263
sg48
V11
p264
sg78
(lp265
(VKRYSAN
VP J
tp266
asg17
I1999
sg42
VLANT
p267
sbag1
(g2
g3
NtRp268
(dp269
g50
V10.1093/nar/23.18.3778
p270
sg46
VNUCLEIC ACIDS RES
p271
sg48
V23
p272
sg78
(lp273
(VLAM
VE
tp274
asg17
I1995
sg42
V3778
p275
sbag1
(g2
g3
NtRp276
(dp277
g50
V10.1073/pnas.87.11.4320
p278
sg46
VP NATL ACAD SCI USA
p279
sg48
V87
p280
sg78
(lp281
(VLAMPH
VW W
tp282
asg17
I1990
sg42
V4320
p283
sbag1
(g2
g3
NtRp284
(dp285
g50
V10.1046/j.1365-313X.1996.10010071.x
p286
sg46
VPLANT J
p287
sg48
V10
p288
sg78
(lp289
(VLAWTON
VK A
tp290
asg17
I1996
sg42
VLANT
p291
sbag1
(g2
g3
NtRp292
(dp293
g50
V10.1046/j.1365-313x.1998.00288.x
p294
sg46
VPLANT J
p295
sg48
V16
p296
sg78
(lp297
(VLEBEL
VE
tp298
asg17
I1998
sg42
VLANT
p299
sbag1
(g2
g3
NtRp300
(dp301
g50
V10.1016/S0092-8674(00)81962-5
p302
sg46
VCELL
p303
sg48
V98
p304
sg78
(lp305
(VLI
VX
tp306
asg17
I1999
sg42
V329
p307
sbag1
(g2
g3
NtRp308
(dp309
g50
V10.1074/jbc.M304543200
p310
sg46
VJ BIOL CHEM
p311
sg48
V278
p312
sg78
(lp313
(VMARKS
VJ
tp314
asg17
I2003
sg42
V34158
p315
sbag1
(g2
g3
NtRp316
(dp317
g50
Nsg46
VADV MOL GENETICS PLA
p318
sg48
V1
sg78
(lp319
(VMETRAUX
VJ P
tp320
asg17
I1991
sg42
V432
p321
sbag1
(g2
g3
NtRp322
(dp323
g50
V10.1046/j.1365-313X.1995.07060887.x
p324
sg46
VPLANT J
p325
sg48
V7
sg78
(lp326
(VMIAO
VZ H
tp327
asg17
I1995
sg42
VLANT
p328
sbag1
(g2
g3
NtRp329
(dp330
g50
V10.1105/tpc.105.039677
p331
sg46
VPLANT CELL
p332
sg48
V18
p333
sg78
(lp334
(VMOSHER
VR A
tp335
asg17
I2006
sg42
VLANT
p336
sbag1
(g2
g3
NtRp337
(dp338
g50
V10.1016/S0092-8674(03)00429-X
p339
sg46
VCELL
p340
sg48
V113
p341
sg78
(lp342
(VMOU
VZ
tp343
asg17
I2003
sg42
V935
p344
sbag1
(g2
g3
NtRp345
(dp346
g50
V10.1111/j.1399-3054.1962.tb08052.x
p347
sg46
VPHYSIOL PLANTARUM
p348
sg48
V15
p349
sg78
(lp350
(VMURASHIGE
VT
tp351
asg17
I1962
sg42
VHYSIOL
p352
sbag1
(g2
g3
NtRp353
(dp354
g50
V10.1046/j.1365-313X.2001.01086.x
p355
sg46
VPLANT J
p356
sg48
V27
p357
sg78
(lp358
(VPONTIER
VD
tp359
asg17
I2001
sg42
VLANT
p360
sbag1
(g2
g3
NtRp361
(dp362
g50
V10.1046/j.1365-313X.2002.01461.x
p363
sg46
VPLANT J
p364
sg48
V32
p365
sg78
(lp366
(VPONTIER
VD
tp367
asg17
I2002
sg42
VLANT
p368
sbag1
(g2
g3
NtRp369
(dp370
g50
V10.1105/tpc.106.046953
p371
sg46
VPLANT CELL
p372
sg48
V18
p373
sg78
(lp374
(VROCHON
VA
tp375
asg17
I2006
sg42
VLANT
p376
sbag1
(g2
g3
NtRp377
(dp378
g50
V10.1023/B:PLAN.0000009297.37235.4a
p379
sg46
VPLANT MOL BIOL
p380
sg48
V53
p381
sg78
(lp382
(VROSSO
VM G
tp383
asg17
I2003
sg42
VLANT
p384
sbag1
(g2
g3
NtRp385
(dp386
g50
V10.1105/tpc.8.10.1809
p387
sg46
VPLANT CELL
p388
sg48
V8
sg78
(lp389
(VRYALS
VJ A
tp390
asg17
I1996
sg42
VLANT
p391
sbag1
(g2
g3
NtRp392
(dp393
g50
V10.1094/MPMI.1997.10.1.69
p394
sg46
VMOL PLANT MICROBE IN
p395
sg48
V10
p396
sg78
(lp397
(VSHAH
VJ
tp398
asg17
I1997
sg42
V69
p399
sbag1
(g2
g3
NtRp400
(dp401
g50
V10.1038/90831
p402
sg46
VNAT BIOTECHNOL
p403
sg48
V19
p404
sg78
(lp405
(VSUBRAMANIAM
VR
tp406
asg17
I2001
sg42
V769
p407
sbag1
(g2
g3
NtRp408
(dp409
g50
V10.1111/j.1365-313X.2005.02513.x
p410
sg46
VPLANT J
p411
sg48
V44
p412
sg78
(lp413
(VTHUROW
VC
tp414
asg17
I2005
sg42
VLANT
p415
sbag1
(g2
g3
NtRp416
(dp417
g50
V10.1006/pmpp.1999.0213
p418
sg46
VPHYSIOL MOL PLANT P
p419
sg48
V55
p420
sg78
(lp421
(VVAN
VLOON L C
tp422
asg17
I1999
sg42
VHYSIOL
p423
sbag1
(g2
g3
NtRp424
(dp425
g50
V10.1371/journal.ppat.0020123
p426
sg46
VPLOS PATHOG
p427
sg48
V2
sg78
(lp428
(VWANG
VD
tp429
asg17
I2006
sg42
VLOS
p430
sbag1
(g2
g3
NtRp431
(dp432
g50
V10.1126/science.1108791
p433
sg46
VSCIENCE
p434
sg48
V308
p435
sg78
(lp436
(VWANG
VD
tp437
asg17
I2005
sg42
V1036
p438
sbag1
(g2
g3
NtRp439
(dp440
g50
V10.1093/emboj/cdg364
p441
sg46
VEMBO J
p442
sg48
V22
p443
sg78
(lp444
(VWEISS
VC
tp445
asg17
I2003
sg42
V3686
p446
sbag1
(g2
g3
NtRp447
(dp448
g50
V10.1023/A:1005873500238
p449
sg46
VPLANT MOL BIOL
p450
sg48
V34
p451
sg78
(lp452
(VXIANG
VC B
tp453
asg17
I1997
sg42
VLANT
p454
sbag1
(g2
g3
NtRp455
(dp456
g50
V10.1105/tpc.105.037523
p457
sg46
VPLANT CELL
p458
sg48
V18
p459
sg78
(lp460
(VXU
VX P
tp461
asg17
I2006
sg42
VLANT
p462
sbag1
(g2
g3
NtRp463
(dp464
g50
V10.1073/pnas.96.11.6523
p465
sg46
VP NATL ACAD SCI USA
p466
sg48
V96
p467
sg78
(lp468
(VZHANG
VY L
tp469
asg17
I1999
sg42
V6523
p470
sbag1
(g2
g3
NtRp471
(dp472
g50
V10.1105/tpc.014894
p473
sg46
VPLANT CELL
p474
sg48
V15
p475
sg78
(lp476
(VZHANG
VY L
tp477
asg17
I2003
sg42
VLANT
p478
sbag1
(g2
g3
NtRp479
(dp480
g50
V10.1186/1171-2229-7-2
p481
sg46
VBMC PLANT BIOL
p482
sg48
V7
sg78
(lp483
(VZHENG
VZ Y
tp484
asg17
I2007
sg42
Nsbag1
(g2
g3
NtRp485
(dp486
g50
V10.1094/MPMI.2000.13.2.191
p487
sg46
VMOL PLANT MICROBE IN
p488
sg48
V13
p489
sg78
(lp490
(VZHOU
VJ M
tp491
asg17
I2000
sg42
V191
p492
sbag1
(g2
g3
NtRp493
(dp494
g50
V10.1104/pp.104.046367
p495
sg46
VPLANT PHYSIOL
p496
sg48
V136
p497
sg78
(lp498
(VZIMMERMANN
VP
tp499
asg17
I2004
sg42
VLANT
p500
sbasb.