ccopy_reg
_reconstructor
p1
(ctethne.classes.paper
Paper
p2
c__builtin__
object
p3
NtRp4
(dp5
S'publisherCity'
p6
VROCKVILLE
p7
sS'reprintAddress'
p8
VDormann, P (reprint author), Max Planck Inst Mol Plant Physiol, Dept Mol Physiol, D-14476 Potsdam, Germany.
p9
sS'WC'
p10
VPlant Sciences
p11
sS'GA'
p12
V176HH
p13
sS'abstract'
p14
VPhosphatidylserine (PS) decarboxylase is involved in the synthesis of the abundant phospholipid phosphatidylethanolamine (PE), particularly in mitochondria, in many organisms, including yeast (Saccharomyces cerevisiae) and animals. Arabidopsis (Arabidopsis thaliana) contains three genes with sequence similarity to PS decarboxylases, and the respective gene products were functionally characterized after heterologous expression in yeast and Escherichia coli. While the PSD1 protein localizes to mitochondria, PSD2 and PSD3 are found in the endomembrane system. To study the role of PSD genes in plant phospholipid metabolism, Arabidopsis insertional mutants for psd1, psd2, and psd3 were obtained. The single mutants were decreased in PS decarboxylase activity to various extents, but mutant plants showed no obvious growth or morphological phenotype. A triple mutant, psd1 psd2 psd3, was generated that was totally devoid of PS decarboxylase activity. While the phospholipid composition in whole leaves was unchanged, the PE content in isolated mitochondria of psd1 psd2 psd3 was decreased. Therefore, the predominant proportion of PE in Arabidopsis is synthesized by alternative pathways, but a significant amount of mitochondrial PE is derived from the PS decarboxylase reaction. These results imply that, similar to yeast and animal cells, a specific phospholipid transfer from the endoplasmic reticulum to mitochondria exists in plants.
p15
sS'pageEnd'
p16
I914
sS'publisherAddress'
p17
V15501 MONONA DRIVE, ROCKVILLE, MD 20855 USA
p18
sS'documentType'
p19
VArticle
p20
sS'subject'
p21
VPlant Sciences
p22
sS'isoSource'
p23
VPlant Physiol.
p24
sS'timesCited'
p25
(lp26
I23
aVZ9 24
p27
asS'PT'
p28
VJ
sS'title'
p29
VDeficiency In Phosphatidylserine Decarboxylase Activity In The Psd1 Psd2 Psd3 Triple Mutant Of Arabidopsis Affects Phosphatidylethanolamine Accumulation In Mitochondria
p30
sS'ISSN'
p31
(lp32
V0032-0889
p33
aVJ9 PLANT PHYSIOL
p34
asS'authors_full'
p35
(lp36
(VNERLICH
VANNIKA
tp37
a(VVON ORLOW
VMELANIE
tp38
a(VRONTEIN
VDENIS
tp39
a(VHANSON
VANDREW D
tp40
a(VDOERMANN
VPETER
tp41
asS'PG'
p42
I11
sS'PD'
p43
VJUN
p44
sS'pageStart'
p45
I904
sS'issue'
p46
I2
sS'journal'
p47
VPLANT PHYSIOLOGY
p48
sS'volume'
p49
V144
p50
sS'doi'
p51
V10.1104/pp.107.095414
p52
sS'emailAddress'
p53
Vdoermann@mpimp-golm.mpg.de
p54
sS'authorAddress'
p55
(lp56
VMax Planck Inst Mol Plant Physiol, Dept Mol Physiol, D-14476 Potsdam, Germany.
p57
aVFree Univ Berlin, Inst Plant Physiol, D-14195 Berlin, Germany.
p58
aVCtr Cadarache, Librophyt, F-13115 St Paul Les Durance, France.
p59
aVUniv Florida, Dept Hort Sci, Gainesville, FL 32611 USA.
p60
asS'date'
p61
I2007
sS'ER'
p62
V
sS'publisher'
p63
VAMER SOC PLANT BIOLOGISTS
p64
sS'authorKeywords'
p65
(lp66
VESCHERICHIA-COLI
p67
aVSACCHAROMYCES-CEREVISIAE
p68
aVBIOSYNTHETIC PATHWAYS
p69
aVNULL ALLELE
p70
aVGENE
p71
aVCLONING
p72
aVEXPRESSION
p73
aVLIPIDS
p74
aVPLANTS
p75
aVCELLS
p76
asS'language'
p77
VEnglish
p78
sS'wosid'
p79
VWOS:000247075000034
p80
sS'citationCount'
p81
I47
sS'authors_init'
p82
(lp83
(VNERLICH
VA
tp84
a(VVON ORLOW
VM
tp85
a(VRONTEIN
VD
tp86
a(VHANSON
VA D
tp87
a(VDORMANN
VP
tp88
asS'citedReferences'
p89
(lp90
g1
(g2
g3
NtRp91
(dp92
g51
V10.1126/science.1086391
p93
sg47
VSCIENCE
p94
sg49
V301
p95
sg82
(lp96
(VALONSO
VJ M
tp97
asg61
I2003
sg45
V653
p98
sbag1
(g2
g3
NtRp99
(dp100
g51
V10.1016/0378-1119(85)90041-1
p101
sg47
VGENE
p102
sg49
V40
p103
sg82
(lp104
(VAMANN
VE
tp105
asg61
I1985
sg45
V183
p106
sbag1
(g2
g3
NtRp107
(dp108
g51
V10.1104/pp.103.022988
p109
sg47
VPLANT PHYSIOL
p110
sg49
V132
p111
sg82
(lp112
(VBEISSON
VF
tp113
asg61
I2003
sg45
VLANT
p114
sbag1
(g2
g3
NtRp115
(dp116
g51
V10.1006/abbi.1995.1141
p117
sg47
VARCH BIOCHEM BIOPHYS
p118
sg49
V317
p119
sg82
(lp120
(VBENNING
VC
tp121
asg61
I1995
sg45
V103
p122
sbag1
(g2
g3
NtRp123
(dp124
g51
Nsg47
VMOL BIOL CELL
p125
sg49
V12
p126
sg82
(lp127
(VBIRNER
VR
tp128
asg61
I2001
sg45
V997
p129
sbag1
(g2
g3
NtRp130
(dp131
g51
V10.1006/abbi.2000.2224
p132
sg47
VARCH BIOCHEM BIOPHYS
p133
sg49
V387
p134
sg82
(lp135
(VBOHN
VM
tp136
asg61
I2001
sg45
V35
p137
sbag1
(g2
g3
NtRp138
(dp139
g51
Nsg47
VANAL BIOCHEM
p140
sg49
V72
p141
sg82
(lp142
(VBRADFORD
VM M
tp143
asg61
I1976
sg45
V254
p144
sbag1
(g2
g3
NtRp145
(dp146
g51
V10.1016/0003-2697(86)90132-6
p147
sg47
VANAL BIOCHEM
p148
sg49
V152
p149
sg82
(lp150
(VBROWSE
VJ
tp151
asg61
I1986
sg45
V141
p152
sbag1
(g2
g3
NtRp153
(dp154
g51
Nsg47
VJ BIOL CHEM
p155
sg49
V268
p156
sg82
(lp157
(VCLANCEY
VC J
tp158
asg61
I1993
sg45
V24580
p159
sbag1
(g2
g3
NtRp160
(dp161
g51
V10.1074/jbc.274.11.7082
p162
sg47
VJ BIOL CHEM
p163
sg49
V274
p164
sg82
(lp165
(VDELHAIZE
VE
tp166
asg61
I1999
sg45
V7082
p167
sbag1
(g2
g3
NtRp168
(dp169
g51
Nsg47
VJ LIPID RES
p170
sg49
V13
p171
sg82
(lp172
(VDENNIS
VE A
tp173
asg61
I1972
sg45
V263
p174
sbag1
(g2
g3
NtRp175
(dp176
g51
V10.1016/S0981-9428(99)80049-7
p177
sg47
VPLANT PHYSIOL BIOCH
p178
sg49
V37
p179
sg82
(lp180
(VGOODE
VJ H
tp181
asg61
I1999
sg45
VLANT
p182
sbag1
(g2
g3
NtRp183
(dp184
g51
Nsg47
VPLANT CELL
p185
sg49
V7
sg82
(lp186
(VDORMANN
VP
tp187
asg61
I1995
sg45
VLANT
p188
sbag1
(g2
g3
NtRp189
(dp190
g51
V10.1083/jcb.149.6.1215
p191
sg47
VJ CELL BIOL
p192
sg49
V149
p193
sg82
(lp194
(VEMOTO
VK
tp195
asg61
I2000
sg45
V1215
p196
sbag1
(g2
g3
NtRp197
(dp198
g51
V10.1073/pnas.72.3.1112
p199
sg47
VP NATL ACAD SCI USA
p200
sg49
V72
p201
sg82
(lp202
(VHAWROT
VE
tp203
asg61
I1975
sg45
V1112
p204
sbag1
(g2
g3
NtRp205
(dp206
g51
V10.1007/BF00332901
p207
sg47
VMOL GEN GENET
p208
sg49
V148
p209
sg82
(lp210
(VHAWROT
VE
tp211
asg61
I1976
sg45
V271
p212
sbag1
(g2
g3
NtRp213
(dp214
g51
Nsg47
VJ BIOL CHEM
p215
sg49
V253
p216
sg82
(lp217
(VHAWROT
VE
tp218
asg61
I1978
sg45
V8213
p219
sbag1
(g2
g3
NtRp220
(dp221
g51
V10.1074/jbc.273.6.3327
p222
sg47
VJ BIOL CHEM
p223
sg49
V273
p224
sg82
(lp225
(VHEIKINHEIMO
VL
tp226
asg61
I1998
sg45
V3327
p227
sbag1
(g2
g3
NtRp228
(dp229
g51
Nsg47
VMETH MOL B
p230
sg49
V82
p231
sg82
(lp232
(VKLEIN
VM
tp233
asg61
I1998
sg45
V49
p234
sbag1
(g2
g3
NtRp235
(dp236
g51
V10.1105/tpc.11.12.2283
p237
sg47
VPLANT CELL
p238
sg49
V11
p239
sg82
(lp240
(VKRYSAN
VP J
tp241
asg61
I1999
sg45
VLANT
p242
sbag1
(g2
g3
NtRp243
(dp244
g51
Nsg47
VJ BIOL CHEM
p245
sg49
V266
p246
sg82
(lp247
(VKUGE
VO
tp248
asg61
I1991
sg45
V6370
p249
sbag1
(g2
g3
NtRp250
(dp251
g51
Nsg47
VJ BIOL CHEM
p252
sg49
V263
p253
sg82
(lp254
(VLI
VQ X
tp255
asg61
I1988
sg45
V11516
p256
sbag1
(g2
g3
NtRp257
(dp258
g51
V10.1016/0014-5793(73)80102-4
p259
sg47
VFEBS LETT
p260
sg49
V31
p261
sg82
(lp262
(VMARSHALL
VM O
tp263
asg61
I1973
sg45
V199
p264
sbag1
(g2
g3
NtRp265
(dp266
g51
Nsg47
VJ BACTERIOL
p267
sg49
V180
p268
sg82
(lp269
(VMATSUMOTO
VK
tp270
asg61
I1998
sg45
V100
p271
sbag1
(g2
g3
NtRp272
(dp273
g51
V10.1105/tpc.106.040840
p274
sg47
VPLANT CELL
p275
sg49
V18
p276
sg82
(lp277
(VMIZOI
VJ
tp278
asg61
I2006
sg45
VLANT
p279
sbag1
(g2
g3
NtRp280
(dp281
g51
V10.1104/pp.56.2.177
p282
sg47
VPLANT PHYSIOL
p283
sg49
V56
p284
sg82
(lp285
(VMOORE
VT S
tp286
asg61
I1975
sg45
VLANT
p287
sbag1
(g2
g3
NtRp288
(dp289
g51
V10.1111/j.1399-3054.1962.tb08052.x
p290
sg47
VPHYSIOL PLANTARUM
p291
sg49
V15
p292
sg82
(lp293
(VMURASHIGE
VT
tp294
asg61
I1962
sg45
VHYSIOL
p295
sbag1
(g2
g3
NtRp296
(dp297
g51
V10.1016/0092-8674(94)90397-2
p298
sg47
VCELL
p299
sg49
V79
p300
sg82
(lp301
(VPAVLIDIS
VP
tp302
asg61
I1994
sg45
V23
p303
sbag1
(g2
g3
NtRp304
(dp305
g51
V10.1093/pcp/pcg144
p306
sg47
VPLANT CELL PHYSIOL
p307
sg49
V44
p308
sg82
(lp309
(VRONTEIN
VD
tp310
asg61
I2003
sg45
VLANT
p311
sbag1
(g2
g3
NtRp312
(dp313
g51
V10.1104/pp.103.023242
p314
sg47
VPLANT PHYSIOL
p315
sg49
V132
p316
sg82
(lp317
(VRONTEIN
VD
tp318
asg61
I2003
sg45
VLANT
p319
sbag1
(g2
g3
NtRp320
(dp321
g51
V10.1074/jbc.M106038200
p322
sg47
VJ BIOL CHEM
p323
sg49
V276
p324
sg82
(lp325
(VRONTEIN
VD
tp326
asg61
I2001
sg45
V35523
p327
sbag1
(g2
g3
NtRp328
(dp329
g51
Nsg47
VMOL CLONING LAB MANU
p330
sg49
Nsg82
(lp331
(VSAMBROOK
VJ
tp332
asg61
I1989
sg45
Nsbag1
(g2
g3
NtRp333
(dp334
g51
V10.1074/jbc.M205301200
p335
sg47
VJ BIOL CHEM
p336
sg49
V277
p337
sg82
(lp338
(VSCHUMACHER
VM M
tp339
asg61
I2002
sg45
V51033
p340
sbag1
(g2
g3
NtRp341
(dp342
g51
Nsg47
VBIOTECHNIQUES
p343
sg49
V26
p344
sg82
(lp345
(VSCOTT
VA
tp346
asg61
I1999
sg45
V1125
p347
sbag1
(g2
g3
NtRp348
(dp349
g51
V10.1105/tpc.004630
p350
sg47
VPLANT CELL
p351
sg49
V14
p352
sg82
(lp353
(VSESSIONS
VA
tp354
asg61
I2002
sg45
VLANT
p355
sbag1
(g2
g3
NtRp356
(dp357
g51
V10.1104/pp.67.2.261
p358
sg47
VPLANT PHYSIOL
p359
sg49
V67
p360
sg82
(lp361
(VSPARACE
VS A
tp362
asg61
I1981
sg45
VLANT
p363
sbag1
(g2
g3
NtRp364
(dp365
g51
V10.1074/jbc.M506510200
p366
sg47
VJ BIOL CHEM
p367
sg49
V280
p368
sg82
(lp369
(VSTEENBERGEN
VR
tp370
asg61
I2005
sg45
V40032
p371
sbag1
(g2
g3
NtRp372
(dp373
g51
Nsg47
VJ BIOL CHEM
p374
sg49
V270
p375
sg82
(lp376
(VTROTTER
VP J
tp377
asg61
I1995
sg45
V6062
p378
sbag1
(g2
g3
NtRp379
(dp380
g51
Nsg47
VJ BIOL CHEM
p381
sg49
V270
p382
sg82
(lp383
(VTROTTER
VP J
tp384
asg61
I1995
sg45
V6071
p385
sbag1
(g2
g3
NtRp386
(dp387
g51
Nsg47
VJ BIOL CHEM
p388
sg49
V268
p389
sg82
(lp390
(VTROTTER
VP J
tp391
asg61
I1993
sg45
V21416
p392
sbag1
(g2
g3
NtRp393
(dp394
g51
V10.1016/j.plipres.2005.05.001
p395
sg47
VPROG LIPID RES
p396
sg49
V44
p397
sg82
(lp398
(VVANCE
VJ E
tp399
asg61
I2005
sg45
VROG
p400
sbag1
(g2
g3
NtRp401
(dp402
g51
V10.1016/0005-2760(74)90168-4
p403
sg47
VBIOCHIM BIOPHYS ACTA
p404
sg49
V360
p405
sg82
(lp406
(VVANGOLDE
VL M
tp407
asg61
I1974
sg45
V179
p408
sbag1
(g2
g3
NtRp409
(dp410
g51
V10.1016/0378-1119(87)90049-7
p411
sg47
VGENE
p412
sg49
V52
p413
sg82
(lp414
(VVERNET
VT
tp415
asg61
I1987
sg45
V225
p416
sbag1
(g2
g3
NtRp417
(dp418
g51
V10.1016/S0014-5793(01)02475-9
p419
sg47
VFEBS LETT
p420
sg49
V498
p421
sg82
(lp422
(VVINCENT
VP
tp423
asg61
I2001
sg45
V32
p424
sbag1
(g2
g3
NtRp425
(dp426
g51
V10.1016/S0005-2760(97)00101-X
p427
sg47
VBBA
p428
sg49
V1348
p429
sg82
(lp430
(VVOELKER
VD R
tp431
asg61
I1997
sg45
V236
p432
sbag1
(g2
g3
NtRp433
(dp434
g51
Nsg47
VBIOCHIM BIOPHYS ACTA
p435
sg49
V1060
p436
sg82
(lp437
(VWEBB
VM S
tp438
asg61
I1991
sg45
V133
p439
sbag1
(g2
g3
NtRp440
(dp441
g51
V10.1074/jbc.M010278200
p442
sg47
VJ BIOL CHEM
p443
sg49
V276
p444
sg82
(lp445
(VWU
VW I
tp446
asg61
I2001
sg45
V7114
p447
sbasb.