ccopy_reg
_reconstructor
p1
(ctethne.classes.paper
Paper
p2
c__builtin__
object
p3
NtRp4
(dp5
S'publisherCity'
p6
VROCKVILLE
p7
sS'reprintAddress'
p8
VGrierson, D (reprint author), Univ Nottingham, Sch Biol Sci, Plant Sci Div, Sutton Bonington Campus, Loughborough LE12 5RD, Leics, England.
p9
sS'WC'
p10
VPlant Sciences
p11
sS'GA'
p12
V334YD
p13
sS'abstract'
p14
V1-Aminocyclopropane-1-carboxylic acid synthase (ACS) is one of the key regulatory enzymes involved in the synthesis of the hormone ethylene and is encoded by a multigene family containing at least eight members in tomato (Lycopersicon esculentum). Increased ethylene production accompanies ripening in tomato, and this coincides with a change in the regulation of ethylene synthesis from auto-inhibitory to autostimulatory. The signaling pathways that operate to bring about this transition from so-called system-1 to system-2 ethylene production are unknown, and we have begun to address these by investigating the regulation of ACS expression during ripening. Transcripts corresponding to four ACS genes, LEACS1A, LEACS2, LEACS4, and LEACS6, were detected in tomato fruit, and expression analysis using the ripening inhibitor (rin) mutant in combination with ethylene treatments and the Never-ripe (Nr) mutant has demonstrated that each is regulated in a unique way. A proposed model suggests that system-1 ethylene is regulated by the expression of LEACS1A and LEACS6, In fruit a transition period occurs in which the RIN gene plays a pivotal role leading to increased expression of LEACS1A and induction of LEACS4. System-2 ethylene synthesis is subsequently initiated and maintained by ethylene-dependent induction of LEACS2.
p15
sS'pageEnd'
p16
I986
sS'publisherAddress'
p17
V15501 MONONA DRIVE, ROCKVILLE, MD 20855 USA
p18
sS'documentType'
p19
VArticle
p20
sS'subject'
p21
VPlant Sciences
p22
sS'isoSource'
p23
VPlant Physiol.
p24
sS'timesCited'
p25
(lp26
I131
aVZ9 154
p27
asS'PT'
p28
VJ
sS'title'
p29
VThe Regulation Of 1-Aminocyclopropane-1-Carboxylic Acid Synthase Gene Expression During The Transition From System-1 To System-2 Ethylene Synthesis In Tomato
p30
sS'ISSN'
p31
(lp32
V0032-0889
p33
aVJ9 PLANT PHYSIOL
p34
asS'authors_full'
p35
(lp36
(VBARRY
VCS
tp37
a(VLLOPTOUS
VMI
tp38
a(VGRIERSON
VD
tp39
asS'PG'
p40
I8
sS'PD'
p41
VJUL
p42
sS'pageStart'
p43
I979
sS'issue'
p44
I3
sS'RI'
p45
VBarry, Cornelius/D-7759-2012
p46
sS'journal'
p47
VPLANT PHYSIOLOGY
p48
sS'volume'
p49
V123
p50
sS'doi'
p51
V10.1104/pp.123.3.979
p52
sS'authorAddress'
p53
VUniv Nottingham, Sch Biol Sci, Plant Sci Div, Loughborough LE12 5RD, Leics, England.
p54
sS'date'
p55
I2000
sS'ER'
p56
V
sS'publisher'
p57
VAMER SOC PLANT PHYSIOLOGISTS
p58
sS'authorKeywords'
p59
(lp60
VLYCOPERSICON-ESCULENTUM
p61
aVDIFFERENTIAL EXPRESSION
p62
aVMULTIGENE FAMILY
p63
aVNEVER-RIPE
p64
aVFRUIT
p65
aVOXIDASE
p66
aVPLANTS
p67
aVBIOSYNTHESIS
p68
aVSENESCENCE
p69
aVACCUMULATION
p70
asS'language'
p71
VEnglish
p72
sS'wosid'
p73
VWOS:000088213300020
p74
sS'citationCount'
p75
I35
sS'authors_init'
p76
(lp77
(VBARRY
VC S
tp78
a(VLLOPTOUS
VM I
tp79
a(VGRIERSON
VD
tp80
asS'citedReferences'
p81
(lp82
g1
(g2
g3
NtRp83
(dp84
g51
Nsg47
VETHYLENE PLANT BIOL
p85
sg49
Nsg76
(lp86
(VABELES
VF B
tp87
asg55
I1992
sg43
Nsbag1
(g2
g3
NtRp88
(dp89
g51
V10.1007/BF00163340
p90
sg47
VJ ECON GROWTH
p91
sg49
V1
sg76
(lp92
(VBARRO
VROBERT J
tp93
asg55
I1996
sg43
V1
sbag1
(g2
g3
NtRp94
(dp95
g51
V10.1046/j.1365-313X.1997.12040731.x
p96
sg47
VPLANT J
p97
sg49
V12
p98
sg76
(lp99
(VBLUME
VB
tp100
asg55
I1997
sg43
VLANT
p101
sbag1
(g2
g3
NtRp102
(dp103
g51
Nsg47
VMOL GEN GENET
p104
sg49
V254
p105
sg76
(lp106
(VBLUME
VB
tp107
asg55
I1997
sg43
V297
p108
sbag1
(g2
g3
NtRp109
(dp110
g51
V10.1073/pnas.89.20.9789
p111
sg47
VP NATL ACAD SCI USA
p112
sg49
V89
p113
sg76
(lp114
(VDONG
VJ G
tp115
asg55
I1992
sg43
V9789
p116
sbag1
(g2
g3
NtRp117
(dp118
g51
V10.1093/jexbot/50.335.793
p119
sg47
VJ EXP BOT
p120
sg49
V50
p121
sg76
(lp122
(VGRIFFITHS
VA
tp123
asg55
I1999
sg43
V793
p124
sbag1
(g2
g3
NtRp125
(dp126
g51
Nsg47
VBIOL BIOTECHNOLOGY P
p127
sg49
Nsg76
(lp128
(VGUIS
VM
tp129
asg55
I1997
sg43
V327
p130
sbag1
(g2
g3
NtRp131
(dp132
g51
V10.1038/346284a0
p133
sg47
VNATURE
p134
sg49
V346
p135
sg76
(lp136
(VHAMILTON
VA J
tp137
asg55
I1990
sg43
V284
p138
sbag1
(g2
g3
NtRp139
(dp140
g51
V10.1104/pp.52.1.38
p141
sg47
VPLANT PHYSIOL
p142
sg49
V52
p143
sg76
(lp144
(VHERNER
VR C
tp145
asg55
I1973
sg43
VLANT
p146
sbag1
(g2
g3
NtRp147
(dp148
g51
V10.1007/BF00015661
p149
sg47
VPLANT MOL BIOL
p150
sg49
V11
p151
sg76
(lp152
(VHOLDSWORTH
VM J
tp153
asg55
I1988
sg43
VLANT
p154
sbag1
(g2
g3
NtRp155
(dp156
g51
V10.1146/annurev.pp.44.060193.001435
p157
sg47
VANNU REV PLANT PHYS
p158
sg49
V44
p159
sg76
(lp160
(VKENDE
VH
tp161
asg55
I1993
sg43
V283
p162
sbag1
(g2
g3
NtRp163
(dp164
g51
Nsg47
VPLANT CELL
p165
sg49
V6
sg76
(lp166
(VLANAHAN
VM B
tp167
asg55
I1994
sg43
VLANT
p168
sbag1
(g2
g3
NtRp169
(dp170
g51
V10.1007/s004380050143
p171
sg47
VMOL GEN GENET
p172
sg49
V251
p173
sg76
(lp174
(VLASSERRE
VE
tp175
asg55
I1996
sg43
V81
p176
sbag1
(g2
g3
NtRp177
(dp178
g51
V10.1034/j.1399-3054.1997.1010408.x
p179
sg47
VPHYSIOL PLANTARUM
p180
sg49
V101
p181
sg76
(lp182
(VLELIEVRE
VJ M
tp183
asg55
I1997
sg43
VHYSIOL
p184
sbag1
(g2
g3
NtRp185
(dp186
g51
Nsg47
VJ BIOL CHEM
p187
sg49
V268
p188
sg76
(lp189
(VLINCOLN
VJ E
tp190
asg55
I1993
sg43
V19422
p191
sbag1
(g2
g3
NtRp192
(dp193
g51
V10.1073/pnas.84.9.2793
p194
sg47
VP NATL ACAD SCI USA
p195
sg49
V84
p196
sg76
(lp197
(VLINCOLN
VJ E
tp198
asg55
I1987
sg43
V2793
p199
sbag1
(g2
g3
NtRp200
(dp201
g51
V10.1104/pp.88.2.370
p202
sg47
VPLANT PHYSIOL
p203
sg49
V88
p204
sg76
(lp205
(VLINCOLN
VJ E
tp206
asg55
I1988
sg43
VLANT
p207
sbag1
(g2
g3
NtRp208
(dp209
g51
V10.1104/pp.77.2.407
p210
sg47
VPLANT PHYSIOL
p211
sg49
V77
p212
sg76
(lp213
(VLIU
VY
tp214
asg55
I1985
sg43
VLANT
p215
sbag1
(g2
g3
NtRp216
(dp217
g51
V10.1111/j.1365-3040.1987.tb02095.x
p218
sg47
VPLANT CELL ENVIRON
p219
sg49
V10
p220
sg76
(lp221
(VMAUNDERS
VM J
tp222
asg55
I1987
sg43
VLANT
p223
sbag1
(g2
g3
NtRp224
(dp225
g51
V10.1104/pp.118.4.1295
p226
sg47
VPLANT PHYSIOL
p227
sg49
V118
p228
sg76
(lp229
(VNAKATSUKA
VA
tp230
asg55
I1998
sg43
VLANT
p231
sbag1
(g2
g3
NtRp232
(dp233
g51
V10.1126/science.1925603
p234
sg47
VSCIENCE
p235
sg49
V254
p236
sg76
(lp237
(VOELLER
VP W
tp238
asg55
I1991
sg43
V437
p239
sbag1
(g2
g3
NtRp240
(dp241
g51
V10.1023/A:1005800511372
p242
sg47
VPLANT MOL BIOL
p243
sg49
V34
p244
sg76
(lp245
(VOETIKER
VJ H
tp246
asg55
I1997
sg43
VLANT
p247
sbag1
(g2
g3
NtRp248
(dp249
g51
Nsg47
VJ BIOL CHEM
p250
sg49
V270
p251
sg76
(lp252
(VOLSON
VD C
tp253
asg55
I1995
sg43
V14056
p254
sbag1
(g2
g3
NtRp255
(dp256
g51
V10.1073/pnas.88.12.5340
p257
sg47
VP NATL ACAD SCI USA
p258
sg49
V88
p259
sg76
(lp260
(VOLSON
VD C
tp261
asg55
I1991
sg43
V5340
p262
sbag1
(g2
g3
NtRp263
(dp264
g51
V10.1023/A:1006033030081
p265
sg47
VPLANT MOL BIOL
p266
sg49
V38
p267
sg76
(lp268
(VPECK
VS C
tp269
asg55
I1998
sg43
VLANT
p270
sbag1
(g2
g3
NtRp271
(dp272
g51
Nsg47
VPLANT J
p273
sg49
V3
sg76
(lp274
(VPICTON
VS
tp275
asg55
I1993
sg43
VLANT
p276
sbag1
(g2
g3
NtRp277
(dp278
g51
V10.1016/0022-2836(91)90587-V
p279
sg47
VJ MOL BIOL
p280
sg49
V222
p281
sg76
(lp282
(VROTTMANN
VW H
tp283
asg55
I1991
sg43
V937
p284
sbag1
(g2
g3
NtRp285
(dp286
g51
V10.1073/pnas.95.17.10334
p287
sg47
VP NATL ACAD SCI USA
p288
sg49
V95
p289
sg76
(lp290
(VSHIU
VO Y
tp291
asg55
I1998
sg43
V10334
p292
sbag1
(g2
g3
NtRp293
(dp294
g51
Nsg47
VHORTSCIENCE
p295
sg49
V13
p296
sg76
(lp297
(VTIGCHELAAR
VE C
tp298
asg55
I1978
sg43
V508
p299
sbag1
(g2
g3
NtRp300
(dp301
g51
V10.1126/science.270.5243.1807
p302
sg47
VSCIENCE
p303
sg49
V270
p304
sg76
(lp305
(VWILKINSON
VJ Q
tp306
asg55
I1995
sg43
V1807
p307
sbag1
(g2
g3
NtRp308
(dp309
g51
V10.1038/nbt0597-444
p310
sg47
VNAT BIOTECHNOL
p311
sg49
V15
p312
sg76
(lp313
(VWILKINSON
VJ Q
tp314
asg55
I1997
sg43
V444
p315
sbag1
(g2
g3
NtRp316
(dp317
g51
V10.1146/annurev.pp.35.060184.001103
p318
sg47
VANNU REV PLANT PHYS
p319
sg49
V35
p320
sg76
(lp321
(VYANG
VS F
tp322
asg55
I1984
sg43
V155
p323
sbag1
(g2
g3
NtRp324
(dp325
g51
V10.1073/pnas.89.6.2475
p326
sg47
VP NATL ACAD SCI USA
p327
sg49
V89
p328
sg76
(lp329
(VYIP
VW K
tp330
asg55
I1992
sg43
V2475
p331
sbag1
(g2
g3
NtRp332
(dp333
g51
Nsg47
VPLANT CELL PHYSIOL
p334
sg49
V38
p335
sg76
(lp336
(VYOON
VI S
tp337
asg55
I1997
sg43
VLANT
p338
sbag1
(g2
g3
NtRp339
(dp340
g51
V10.1007/BF00016491
p341
sg47
VPLANT MOL BIOL
p342
sg49
V26
p343
sg76
(lp344
(VZAREMBINSKI
VT I
tp345
asg55
I1994
sg43
VLANT
p346
sbasb.