ccopy_reg
_reconstructor
p1
(ctethne.classes.paper
Paper
p2
c__builtin__
object
p3
NtRp4
(dp5
S'publisherCity'
p6
VROCKVILLE
p7
sS'reprintAddress'
p8
VGalis, I (reprint author), Max Planck Inst Chem Ecol, Dept Mol Ecol, D-07745 Jena, Germany.
p9
sS'WC'
p10
VPlant Sciences
p11
sS'GA'
p12
V605IC
p13
sS'FX'
p14
VThis work was supported by the Max Planck Society.
p15
sS'abstract'
p16
VJasmonic acid (JA) and ethylene (ET) are known to play important roles in mediating plant defense against herbivores, but how they affect development in herbivore-attacked plants is unknown. We used JA-deficient (silenced in LIPOXYGENASE3 [asLOX3]) and ET-insensitive (expressing a mutated dominant negative form of ETHYLENE RESPONSE1 [mETR1]) Nicotiana attenuata plants, and their genetic cross (mETR1asLOX3), to examine growth and development of these plants under simulated herbivory conditions. At the whole plant level, both hormones suppressed leaf expansion after the plants had been wounded and the wounds had been immediately treated with Manduca sexta oral secretions (OS). In addition, ectopic cell expansion was observed around both water-and OS-treated wounds in mETR1asLOX3 leaves but not in mETR1, asLOX3, or wild-type leaves. Pretreating asLOX3 leaves with the ET receptor antagonist 1-methylcyclopropane resulted in local cell expansion that closely mimicked the mETR1asLOX3 phenotype. We found higher auxin (indole-3-acetic acid) levels in the elicited leaves of mETR1asLOX3 plants, a trait that is putatively associated with enhanced cell expansion and leaf growth in this genotype. Transcript profiling of OS-elicited mETR1asLOX3 leaves revealed a preferential accumulation of transcripts known to function in cell wall remodeling, suggesting that both JA and ET act as negative regulators of these genes. We propose that in N. attenuata, JA-ET cross talk restrains local cell expansion and growth after herbivore attack, allowing more resources to be allocated to induced defenses against herbivores.
p17
sS'pageEnd'
p18
I798
sS'date'
p19
I2010
sS'documentType'
p20
VArticle
p21
sS'subject'
p22
VPlant Sciences
p23
sS'isoSource'
p24
VPlant Physiol.
p25
sS'timesCited'
p26
(lp27
I18
aVZ9 18
p28
asS'funding'
p29
(lp30
(VMax Planck Society
Ntp31
asS'PT'
p32
VJ
sS'title'
p33
VJasmonic Acid And Ethylene Modulate Local Responses To Wounding And Simulated Herbivory In Nicotiana Attenuata Leaves
p34
sS'ISSN'
p35
(lp36
V0032-0889
p37
aVJ9 PLANT PHYSIOL
p38
asS'authors_full'
p39
(lp40
(VONKOKESUNG
VNAWAPORN
tp41
a(VGALIS
VIVAN
tp42
a(VVON DAHL
VCAROLINE C
tp43
a(VMATSUOKA
VKEN
tp44
a(VSALUZ
VHANSPETER
tp45
a(VBALDWIN
VIAN T
tp46
asS'PG'
p47
I14
sS'PD'
p48
VJUN
p49
sS'pageStart'
p50
I785
sS'issue'
p51
I2
sS'RI'
p52
(lp53
VMatsuoka, Ken/E-3215-2010; Galis, Ivan/F-5734-2011; Baldwin, Ian
p54
aV/K-1809-2013
p55
asS'journal'
p56
VPLANT PHYSIOLOGY
p57
sS'volume'
p58
V153
p59
sS'doi'
p60
V10.1104/pp.110.156232
p61
sS'emailAddress'
p62
Vigalis@ice.mpg.de
p63
sS'authorAddress'
p64
(lp65
V[Onkokesung, Nawaporn; Galis, Ivan; von Dahl, Caroline C.; Baldwin, Ian T.] Max Planck Inst Chem Ecol, Dept Mol Ecol, D-07745 Jena, Germany.
p66
aV[Matsuoka, Ken] Kyushu Univ, Fac Agr, Fukuoka 8128581, Japan.
p67
aV[Saluz, Hans-Peter] Hans Knoell Inst, Leibniz Inst Nat Product Res & Infect Biol, D-07745 Jena, Germany.
p68
asS'publisherAddress'
p69
V15501 MONONA DRIVE, ROCKVILLE, MD 20855 USA
p70
sS'ER'
p71
V
sS'publisher'
p72
VAMER SOC PLANT BIOLOGISTS
p73
sS'authorKeywords'
p74
(lp75
VMANDUCA-SEXTA LEPIDOPTERA
p76
aVTOBACCO BY-2 CELLS
p77
aVARABIDOPSIS-THALIANA
p78
aVCROSS-TALK
p79
aVSIGNAL-TRANSDUCTION
p80
aVDEFENSE RESPONSES
p81
aVPLANT DEFENSE
p82
aVMOLECULAR-INTERACTIONS
p83
aVLEAF DEVELOPMENT
p84
aVGENE-EXPRESSION
p85
asS'language'
p86
VEnglish
p87
sS'wosid'
p88
VWOS:000278340200039
p89
sS'citationCount'
p90
I94
sS'authors_init'
p91
(lp92
(VONKOKESUNG
VN
tp93
a(VGALIS
VI
tp94
a(VVON DAHL
VC C
tp95
a(VMATSUOKA
VK
tp96
a(VSALUZ
VH P
tp97
a(VBALDWIN
VI T
tp98
asS'citedReferences'
p99
(lp100
g1
(g2
g3
NtRp101
(dp102
g60
Nsg56
VSCI STKE
p103
sg58
V2001
p104
sg91
(lp105
(VALONSO
VJ M
tp106
asg19
I2001
sg50
Vre1
p107
sbag1
(g2
g3
NtRp108
(dp109
g60
V10.1073/pnas.95.14.8113
p110
sg56
VP NATL ACAD SCI USA
p111
sg58
V95
p112
sg91
(lp113
(VBALDWIN
VI T
tp114
asg19
I1998
sg50
V8113
p115
sbag1
(g2
g3
NtRp116
(dp117
g60
V10.1007/s004250050082
p118
sg56
VPLANTA
p119
sg58
V201
p120
sg91
(lp121
(VBALDWIN
VI T
tp122
asg19
I1997
sg50
VLANTA
p123
sbag1
(g2
g3
NtRp124
(dp125
g60
V10.1007/BF01012392
p126
sg56
VJ CHEM ECOL
p127
sg58
V15
p128
sg91
(lp129
(VBALDWIN
VI T
tp130
asg19
I1989
sg50
V1661
p131
sbag1
(g2
g3
NtRp132
(dp133
g60
V10.1104/pp.104.050369
p134
sg56
VPLANT PHYSIOL
p135
sg58
V136
p136
sg91
(lp137
(VBINDER
VB M
tp138
asg19
I2004
sg50
VLANT
p139
sbag1
(g2
g3
NtRp140
(dp141
g60
V10.1126/science.241.4869.1086
p142
sg56
VSCIENCE
p143
sg58
V241
p144
sg91
(lp145
(VBLEECKER
VA B
tp146
asg19
I1988
sg50
V1086
p147
sbag1
(g2
g3
NtRp148
(dp149
g60
V10.1146/annurev.phyto.41.052002.095505
p150
sg56
VANNU REV PHYTOPATHOL
p151
sg58
V43
p152
sg91
(lp153
(VBOSTOCK
VR M
tp154
asg19
I2005
sg50
V545
p155
sbag1
(g2
g3
NtRp156
(dp157
g60
V10.1034/j.1399-3054.1997.1000319.x
p158
sg56
VPHYSIOL PLANTARUM
p159
sg58
V100
p160
sg91
(lp161
(VBROWN
VK M
tp162
asg19
I1997
sg50
VHYSIOL
p163
sbag1
(g2
g3
NtRp164
(dp165
g60
V10.1093/jxb/erp101
p166
sg56
VJ EXP BOT
p167
sg58
V60
p168
sg91
(lp169
(VBRUINSMA
VM
tp170
asg19
I2009
sg50
V2575
p171
sbag1
(g2
g3
NtRp172
(dp173
g60
V10.1093/jxb/erp009
p174
sg56
VJ EXP BOT
p175
sg58
V60
p176
sg91
(lp177
(VCHAABOUNI
VS
tp178
asg19
I2009
sg50
V1349
p179
sbag1
(g2
g3
NtRp180
(dp181
g60
V10.1126/science.8211181
p182
sg56
VSCIENCE
p183
sg58
V262
p184
sg91
(lp185
(VCHANG
VC
tp186
asg19
I1993
sg50
V539
p187
sbag1
(g2
g3
NtRp188
(dp189
g60
V10.1007/s003440010028
p190
sg56
VJ PLANT GROWTH REGUL
p191
sg58
V20
p192
sg91
(lp193
(VCHEN
VJ G
tp194
asg19
I2001
sg50
V255
p195
sbag1
(g2
g3
NtRp196
(dp197
g60
V10.1093/aob/mci100
p198
sg56
VANN BOT
p199
sg58
V95
p200
sg91
(lp201
(VCHEN
VY F
tp202
asg19
I2005
sg50
V901
p203
sbag1
(g2
g3
NtRp204
(dp205
g60
Nsg56
VJournal of Plant Biology
p206
sg58
V42
p207
sg91
(lp208
(VCHEONG
VJONGJOO
tp209
asg19
I1999
sg50
V259
p210
sbag1
(g2
g3
NtRp211
(dp212
g60
V10.1104/pp.002857
p213
sg56
VPLANT PHYSIOL
p214
sg58
V129
p215
sg91
(lp216
(VCHEONG
VY H
tp217
asg19
I2002
sg50
VLANT
p218
sbag1
(g2
g3
NtRp219
(dp220
g60
V10.1105/tpc.9.9.1661
p221
sg56
VPLANT CELL
p222
sg58
V9
sg91
(lp223
(VCHO
VH T
tp224
asg19
I1997
sg50
VLANT
p225
sbag1
(g2
g3
NtRp226
(dp227
g60
V10.1038/nrm1746
p228
sg56
VNAT REV MOL CELL BIO
p229
sg58
V6
sg91
(lp230
(VCOSGROVE
VD J
tp231
asg19
I2005
sg50
V850
p232
sbag1
(g2
g3
NtRp233
(dp234
g60
V10.1038/35030000
p235
sg56
VNATURE
p236
sg58
V407
p237
sg91
(lp238
(VCOSGROVE
VD J
tp239
asg19
I2000
sg50
V321
p240
sbag1
(g2
g3
NtRp241
(dp242
g60
V10.1093/pcp/pcf180
p243
sg56
VPLANT CELL PHYSIOL
p244
sg58
V43
p245
sg91
(lp246
(VCOSGROVE
VD J
tp247
asg19
I2002
sg50
VLANT
p248
sbag1
(g2
g3
NtRp249
(dp250
g60
V10.1016/j.plantsci.2004.03.024
p251
sg56
VPLANT SCI
p252
sg58
V167
p253
sg91
(lp254
(VCUI
VM L
tp255
asg19
I2004
sg50
VLANT
p256
sbag1
(g2
g3
NtRp257
(dp258
g60
V10.1055/s-2006-923935
p259
sg56
VPLANT BIOLOGY
p260
sg58
V8
sg91
(lp261
(VDELKER
VC
tp262
asg19
I2006
sg50
VLANT
p263
sbag1
(g2
g3
NtRp264
(dp265
g60
Nsg56
VPLANT CELL S
p266
sg58
V14
p267
sg91
(lp268
(VDEVOTO
VA
tp269
asg19
I2002
sg50
VLANT
p270
sbag1
(g2
g3
NtRp271
(dp272
g60
V10.1104/pp.109.139550
p273
sg56
VPLANT PHYSIOL
p274
sg58
V150
p275
sg91
(lp276
(VDIEZEL
VC
tp277
asg19
I2009
sg50
VLANT
p278
sbag1
(g2
g3
NtRp279
(dp280
g60
V10.1016/j.plantsci.2008.02.003
p281
sg56
VPLANT SCI
p282
sg58
V175
p283
sg91
(lp284
(VDUGARDEYN
VJ
tp285
asg19
I2008
sg50
VLANT
p286
sbag1
(g2
g3
NtRp287
(dp288
g60
Nsg56
VSCIENCE
p289
sg58
V268
p290
sg91
(lp291
(VECKER
VJ R
tp292
asg19
I1995
sg50
V667
p293
sbag1
(g2
g3
NtRp294
(dp295
g60
V10.2307/2406212
p296
sg56
VEVOLUTION
p297
sg58
V18
p298
sg91
(lp299
(VEHRLICH
VP R
tp300
asg19
I1964
sg50
V586
p301
sbag1
(g2
g3
NtRp302
(dp303
g60
V10.1105/tpc.002022
p304
sg56
VPLANT CELL
p305
sg58
V14
p306
sg91
(lp307
(VELLIS
VC
tp308
asg19
I2002
sg50
VLANT
p309
sbag1
(g2
g3
NtRp310
(dp311
g60
V10.1111/j.1365-313X.2006.02719.x
p312
sg56
VPLANT J
p313
sg58
V46
p314
sg91
(lp315
(VGALIS
VI
tp316
asg19
I2006
sg50
VLANT
p317
sbag1
(g2
g3
NtRp318
(dp319
g60
V10.1007/s00709-008-0303-1
p320
sg56
VPROTOPLASMA
p321
sg58
V233
p322
sg91
(lp323
(VGAO
VQ
tp324
asg19
I2008
sg50
VROTOPLASMA
p325
sbag1
(g2
g3
NtRp326
(dp327
g60
V10.1046/j.1365-313X.1995.8040595.x
p328
sg56
VPLANT J
p329
sg58
V8
sg91
(lp330
(VGRBIC
VV
tp331
asg19
I1995
sg50
VLANT
p332
sbag1
(g2
g3
NtRp333
(dp334
g60
V10.1104/pp.102.018184
p335
sg56
VPLANT PHYSIOL
p336
sg58
V131
p337
sg91
(lp338
(VHALITSCHKE
VR
tp339
asg19
I2003
sg50
VLANT
p340
sbag1
(g2
g3
NtRp341
(dp342
g60
V10.1104/pp.125.2.711
p343
sg56
VPLANT PHYSIOL
p344
sg58
V125
p345
sg91
(lp346
(VHALITSCHKE
VR
tp347
asg19
I2001
sg50
VLANT
p348
sbag1
(g2
g3
NtRp349
(dp350
g60
V10.1046/j.1365-313X.2003.01921.x
p351
sg56
VPLANT J
p352
sg58
V36
p353
sg91
(lp354
(VHALITSCHKE
VR
tp355
asg19
I2003
sg50
VLANT
p356
sbag1
(g2
g3
NtRp357
(dp358
g60
V10.1126/science.7569898
p359
sg56
VSCIENCE
p360
sg58
V269
p361
sg91
(lp362
(VHUA
VJ
tp363
asg19
I1995
sg50
V1712
p364
sbag1
(g2
g3
NtRp365
(dp366
g60
V10.1104/pp.103.037929
p367
sg56
VPLANT PHYSIOL
p368
sg58
V135
p369
sg91
(lp370
(VHUDGINS
VJ W
tp371
asg19
I2004
sg50
VLANT
p372
sbag1
(g2
g3
NtRp373
(dp374
g60
V10.1186/1471-2229-8-94
p375
sg56
VBMC PLANT BIOL
p376
sg58
V8
sg91
(lp377
(VIRSHAD
VM
tp378
asg19
I2008
sg50
Nsbag1
(g2
g3
NtRp379
(dp380
g60
V10.1023/A:1006336005587
p381
sg56
VPLANT MOL BIOL
p382
sg58
V43
p383
sg91
(lp384
(VITO
VM
tp385
asg19
I2000
sg50
VLANT
p386
sbag1
(g2
g3
NtRp387
(dp388
g60
V10.1111/j.1365-313X.2008.03528.x
p389
sg56
VPLANT J
p390
sg58
V55
p391
sg91
(lp392
(VIVANCHENKO
VM G
tp393
asg19
I2008
sg50
VLANT
p394
sbag1
(g2
g3
NtRp395
(dp396
g60
V10.1007/PL00008142
p397
sg56
VPLANTA
p398
sg58
V210
p399
sg91
(lp400
(VKAHL
VJ
tp401
asg19
I2000
sg50
VLANTA
p402
sbag1
(g2
g3
NtRp403
(dp404
g60
Nsg56
VINDUCED RESPONSES HE
p405
sg58
Nsg91
(lp406
(VKARBAN
VR
tp407
asg19
I1997
sg50
V167
p408
sbag1
(g2
g3
NtRp409
(dp410
g60
V10.1073/pnas.96.1.8
p411
sg56
VP NATL ACAD SCI USA
p412
sg58
V96
p413
sg91
(lp414
(VKAREIVA
VP
tp415
asg19
I1999
sg50
V8
sbag1
(g2
g3
NtRp416
(dp417
g60
V10.1146/annurev.pp.44.060193.001435
p418
sg56
VANNU REV PLANT PHYS
p419
sg58
V44
p420
sg91
(lp421
(VKENDE
VH
tp422
asg19
I1993
sg50
V283
p423
sbag1
(g2
g3
NtRp424
(dp425
g60
V10.1146/annurev.arplant.53.100301.135207
p426
sg56
VANNU REV PLANT BIOL
p427
sg58
V53
p428
sg91
(lp429
(VKESSLER
VA
tp430
asg19
I2002
sg50
V299
p431
sbag1
(g2
g3
NtRp432
(dp433
g60
V10.1016/0092-8674(93)90119-B
p434
sg56
VCELL
p435
sg58
V72
p436
sg91
(lp437
(VKIEBER
VJ J
tp438
asg19
I1993
sg50
V427
p439
sbag1
(g2
g3
NtRp440
(dp441
g60
V10.1016/S0168-9452(97)00097-6
p442
sg56
VPLANT SCI
p443
sg58
V126
p444
sg91
(lp445
(VKNOESTER
VM
tp446
asg19
I1997
sg50
VLANT
p447
sbag1
(g2
g3
NtRp448
(dp449
g60
V10.1007/PL00012666
p450
sg56
VCHEMOECOLOGY
p451
sg58
V12
p452
sg91
(lp453
(VKRUGEL
VT
tp454
asg19
I2002
sg50
V177
p455
sbag1
(g2
g3
NtRp456
(dp457
g60
Nsg56
VJournal of Plant Biology
p458
sg58
V42
p459
sg91
(lp460
(VKWON
VHAWKBIN
tp461
asg19
I1999
sg50
V266
p462
sbag1
(g2
g3
NtRp463
(dp464
g60
V10.1105/tpc.007468
p465
sg56
VPLANT CELL
p466
sg58
V15
p467
sg91
(lp468
(VLORENZO
VO
tp469
asg19
I2003
sg50
VLANT
p470
sbag1
(g2
g3
NtRp471
(dp472
g60
V10.1073/pnas.0502954102
p473
sg56
VP NATL ACAD SCI USA
p474
sg58
V102
p475
sg91
(lp476
(VLUDWIG
VA A
tp477
asg19
I2005
sg50
V10736
p478
sbag1
(g2
g3
NtRp479
(dp480
g60
V10.1104/pp.011001
p481
sg56
VPLANT PHYSIOL
p482
sg58
V129
p483
sg91
(lp484
(VMARTIN
VD
tp485
asg19
I2002
sg50
VLANT
p486
sbag1
(g2
g3
NtRp487
(dp488
g60
V10.1093/pcp/pch155
p489
sg56
VPLANT CELL PHYSIOL
p490
sg58
V45
p491
sg91
(lp492
(VMATSUOKA
VK
tp493
asg19
I2004
sg50
VLANT
p494
sbag1
(g2
g3
NtRp495
(dp496
g60
V10.1086/282909
p497
sg56
VAM NAT
p498
sg58
V108
p499
sg91
(lp500
(VMCKEY
VD
tp501
asg19
I1974
sg50
V305
p502
sbag1
(g2
g3
NtRp503
(dp504
g60
Nsg56
VPLANT PHYSIOL
p505
sg58
V107
p506
sg91
(lp507
(VMCQUEENMASON
VS J
tp508
asg19
I1995
sg50
VLANT
p509
sbag1
(g2
g3
NtRp510
(dp511
g60
V10.1016/S1360-1385(01)02045-3
p512
sg56
VTRENDS PLANT SCI
p513
sg58
V6
sg91
(lp514
(VMICHELI
VF
tp515
asg19
I2001
sg50
V414
p516
sbag1
(g2
g3
NtRp517
(dp518
g60
V10.1126/science.1126088
p519
sg56
VSCIENCE
p520
sg58
V312
p521
sg91
(lp522
(VNAVARRO
VL
tp523
asg19
I2006
sg50
V436
p524
sbag1
(g2
g3
NtRp525
(dp526
g60
V10.1126/science.274.5294.1914
p527
sg56
VSCIENCE
p528
sg58
V274
p529
sg91
(lp530
(VODONNELL
VP J
tp531
asg19
I1996
sg50
V1914
p532
sbag1
(g2
g3
NtRp533
(dp534
g60
V10.1073/pnas.191380498
p535
sg56
VP NATL ACAD SCI USA
p536
sg58
V98
p537
sg91
(lp538
(VPIEN
VS
tp539
asg19
I2001
sg50
V11812
p540
sbag1
(g2
g3
NtRp541
(dp542
g60
V10.1016/j.tplants.2006.02.006
p543
sg56
VTRENDS PLANT SCI
p544
sg58
V11
p545
sg91
(lp546
(VPIERIK
VR
tp547
asg19
I2006
sg50
V176
p548
sbag1
(g2
g3
NtRp549
(dp550
g60
V10.1038/nchembio.164
p551
sg56
VNAT CHEM BIOL
p552
sg58
V5
sg91
(lp553
(VPIETERSE
VC M J
tp554
asg19
I2009
sg50
V308
p555
sbag1
(g2
g3
NtRp556
(dp557
g60
V10.1104/pp.108.117523
p558
sg56
VPLANT PHYSIOL
p559
sg58
V147
p560
sg91
(lp561
(VPRE
VM
tp562
asg19
I2008
sg50
VLANT
p563
sbag1
(g2
g3
NtRp564
(dp565
g60
V10.1016/S1369-5266(00)00085-6
p566
sg56
VCURR OPIN PLANT BIOL
p567
sg58
V3
sg91
(lp568
(VPURRINGTON
VC B
tp569
asg19
I2000
sg50
V305
p570
sbag1
(g2
g3
NtRp571
(dp572
g60
V10.1007/s004420000522
p573
sg56
VOECOLOGIA
p574
sg58
V126
p575
sg91
(lp576
(VREDMAN
VA M
tp577
asg19
I2001
sg50
V380
p578
sbag1
(g2
g3
NtRp579
(dp580
g60
V10.1093/jxb/erl051
p581
sg56
VJ EXP BOT
p582
sg58
V57
p583
sg91
(lp584
(VSHI
VQ M
tp585
asg19
I2006
sg50
V2899
p586
sbag1
(g2
g3
NtRp587
(dp588
g60
V10.1034/j.1399-3054.1997.1000320.x
p589
sg56
VPHYSIOL PLANTARUM
p590
sg58
V100
p591
sg91
(lp592
(VSISLER
VE C
tp593
asg19
I1997
sg50
VHYSIOL
p594
sbag1
(g2
g3
NtRp595
(dp596
g60
V10.1105/tpc.108.058594
p597
sg56
VPLANT CELL
p598
sg58
V20
p599
sg91
(lp600
(VSKIBBE
VM
tp601
asg19
I2008
sg50
VLANT
p602
sbag1
(g2
g3
NtRp603
(dp604
g60
V10.2307/2438159
p605
sg56
VAM J BOT
p606
sg58
V35
p607
sg91
(lp608
(VSKOOG
VF
tp609
asg19
I1948
sg50
V782
p610
sbag1
(g2
g3
NtRp611
(dp612
g60
V10.1104/pp.109.144683
p613
sg56
VPLANT PHYSIOL
p614
sg58
V151
p615
sg91
(lp616
(VSLOAN
VJ
tp617
asg19
I2009
sg50
VLANT
p618
sbag1
(g2
g3
NtRp619
(dp620
g60
V10.1073/pnas.89.15.6837
p621
sg56
VP NATL ACAD SCI USA
p622
sg58
V89
p623
sg91
(lp624
(VSTASWICK
VP E
tp625
asg19
I1992
sg50
V6837
p626
sbag1
(g2
g3
NtRp627
(dp628
g60
V10.1104/pp.109.138529
p629
sg56
VPLANT PHYSIOL
p630
sg58
V150
p631
sg91
(lp632
(VSTASWICK
VP E
tp633
asg19
I2009
sg50
VLANT
p634
sbag1
(g2
g3
NtRp635
(dp636
g60
V10.1105/tpc.107.052068
p637
sg56
VPLANT CELL
p638
sg58
V19
p639
sg91
(lp640
(VSTEPANOVA
VA N
tp641
asg19
I2007
sg50
VLANT
p642
sbag1
(g2
g3
NtRp643
(dp644
g60
V10.1016/j.pbi.2009.07.009
p645
sg56
VCURR OPIN PLANT BIOL
p646
sg58
V12
p647
sg91
(lp648
(VSTEPANOVA
VA N
tp649
asg19
I2009
sg50
V548
p650
sbag1
(g2
g3
NtRp651
(dp652
g60
V10.1105/tpc.105.033365
p653
sg56
VPLANT CELL
p654
sg58
V17
p655
sg91
(lp656
(VSTEPANOVA
VA N
tp657
asg19
I2005
sg50
VLANT
p658
sbag1
(g2
g3
NtRp659
(dp660
g60
V10.1104/pp.124.3.1007
p661
sg56
VPLANT PHYSIOL
p662
sg58
V124
p663
sg91
(lp664
(VSTOTZ
VH U
tp665
asg19
I2000
sg50
VLANT
p666
sbag1
(g2
g3
NtRp667
(dp668
g60
Nsg56
VPLANT MOL BIOL
p669
sg58
V49
p670
sg91
(lp671
(VSWARUP
VR
tp672
asg19
I2002
sg50
VLANT
p673
sbag1
(g2
g3
NtRp674
(dp675
g60
V10.1104/pp.128.1.201
p676
sg56
VPLANT PHYSIOL
p677
sg58
V128
p678
sg91
(lp679
(VSWIATEK
VA
tp680
asg19
I2002
sg50
VLANT
p681
sbag1
(g2
g3
NtRp682
(dp683
g60
V10.1038/nrm2020
p684
sg56
VNAT REV MOL CELL BIO
p685
sg58
V7
sg91
(lp686
(VTEALE
VW D
tp687
asg19
I2006
sg50
V847
p688
sbag1
(g2
g3
NtRp689
(dp690
g60
V10.1104/pp.96.3.802
p691
sg56
VPLANT PHYSIOL
p692
sg58
V96
p693
sg91
(lp694
(VTHORNBURG
VR W
tp695
asg19
I1991
sg50
VLANT
p696
sbag1
(g2
g3
NtRp697
(dp698
g60
V10.1073/pnas.091062498
p699
sg56
VP NATL ACAD SCI USA
p700
sg58
V98
p701
sg91
(lp702
(VTUSHER
VV G
tp703
asg19
I2001
sg50
V5116
p704
sbag1
(g2
g3
NtRp705
(dp706
g60
V10.1104/pp.010850
p707
sg56
VPLANT PHYSIOL
p708
sg58
V131
p709
sg91
(lp710
(VVANDENBUSSCHE
VF
tp711
asg19
I2003
sg50
VLANT
p712
sbag1
(g2
g3
NtRp713
(dp714
g60
Nsg56
VPLANT PHYSIOL
p715
sg58
V112
p716
sg91
(lp717
(VVISSER
VE J W
tp718
asg19
I1996
sg50
VLANT
p719
sbag1
(g2
g3
NtRp720
(dp721
g60
V10.1111/j.1365-313X.2007.03142.x
p722
sg56
VPLANT J
p723
sg58
V51
p724
sg91
(lp725
(VVON
VDAHL C C
tp726
asg19
I2007
sg50
VLANT
p727
sbag1
(g2
g3
NtRp728
(dp729
g60
V10.1093/aob/mcf121
p730
sg56
VANN BOT
p731
sg58
V91
p732
sg91
(lp733
(VVRIEZEN
VW H
tp734
asg19
I2003
sg50
V263
p735
sbag1
(g2
g3
NtRp736
(dp737
g60
V10.1007/s00425-007-0477-3
p738
sg56
VPLANTA
p739
sg58
V226
p740
sg91
(lp741
(VWANG
VL
tp742
asg19
I2007
sg50
VLANTA
p743
sbag1
(g2
g3
NtRp744
(dp745
g60
V10.1111/j.1744-7909.2008.00684.x
p746
sg56
VJ INTEGR PLANT BIOL
p747
sg58
V50
p748
sg91
(lp749
(VWANG
VS S
tp750
asg19
I2008
sg50
V958
p751
sbag1
(g2
g3
NtRp752
(dp753
g60
V10.1093/aob/mcm079
p754
sg56
VANN BOT
p755
sg58
V100
p756
sg91
(lp757
(VWASTERNACK
VC
tp758
asg19
I2007
sg50
V681
p759
sbag1
(g2
g3
NtRp760
(dp761
g60
V10.1016/S1360-1385(02)02250-1
p762
sg56
VTRENDS PLANT SCI
p763
sg58
V7
sg91
(lp764
(VWEBER
VH
tp765
asg19
I2002
sg50
V217
p766
sbag1
(g2
g3
NtRp767
(dp768
g60
V10.1038/nbt0597-444
p769
sg56
VNAT BIOTECHNOL
p770
sg58
V15
p771
sg91
(lp772
(VWILKINSON
VJ Q
tp773
asg19
I1997
sg50
V444
p774
sbag1
(g2
g3
NtRp775
(dp776
g60
V10.1093/aob/mci083
p777
sg56
VANN BOT
p778
sg58
V95
p779
sg91
(lp780
(VWOODWARD
VA W
tp781
asg19
I2005
sg50
V707
p782
sbag1
(g2
g3
NtRp783
(dp784
g60
V10.1105/tpc.106.049353
p785
sg56
VPLANT CELL
p786
sg58
V19
p787
sg91
(lp788
(VWU
VJ Q
tp789
asg19
I2007
sg50
VLANT
p790
sbag1
(g2
g3
NtRp791
(dp792
g60
V10.1105/tpc.107.050708
p793
sg56
VPLANT CELL
p794
sg58
V19
p795
sg91
(lp796
(VYAN
VY X
tp797
asg19
I2007
sg50
VLANT
p798
sbag1
(g2
g3
NtRp799
(dp800
g60
V10.1104/pp.103.035634
p801
sg56
VPLANT PHYSIOL
p802
sg58
V134
p803
sg91
(lp804
(VZAVALA
VJ A
tp805
asg19
I2004
sg50
VLANT
p806
sbag1
(g2
g3
NtRp807
(dp808
g60
V10.1186/1472-6785-4-11
p809
sg56
VBMC Ecology
p810
sg58
V4
sg91
(lp811
(VZAVALA
VJORGE A
tp812
asg19
I2004
sg50
V11
p813
sbag1
(g2
g3
NtRp814
(dp815
g60
V10.1371/journal.pone.0003699
p816
sg56
VPLOS ONE
p817
sg58
V3
sg91
(lp818
(VZHANG
VY
tp819
asg19
I2008
sg50
VLOS
p820
sbag1
(g2
g3
NtRp821
(dp822
g60
V10.1104/pp.109.135830
p823
sg56
VPLANT PHYSIOL
p824
sg58
V150
p825
sg91
(lp826
(VZHANG
VZ J
tp827
asg19
I2009
sg50
VLANT
p828
sbasb.