ccopy_reg
_reconstructor
p1
(ctethne.classes.paper
Paper
p2
c__builtin__
object
p3
NtRp4
(dp5
S'publisherCity'
p6
VROCKVILLE
p7
sS'reprintAddress'
p8
VTikunov, YM (reprint author), Ctr BioSyst Genom, NL-6700 AB Wageningen, Netherlands.
p9
sS'WC'
p10
VPlant Sciences
p11
sS'GA'
p12
V537XQ
p13
sS'FX'
p14
(lp15
VThis work was supported by the Centre of BioSystems Genomics, which is
p16
aVpart of the Netherlands Genomics Initiative/Netherlands Organization for
p17
aVScientific Research.
p18
asS'abstract'
p19
VA role for differential glycoconjugation in the emission of phenylpropanoid volatiles from ripening tomato fruit (Solanum lycopersicum) upon fruit tissue disruption has been discovered in this study. Application of a multiinstrumental analytical platform for metabolic profiling of fruits from a diverse collection of tomato cultivars revealed that emission of three discriminatory phenylpropanoid volatiles, namely methyl salicylate, guaiacol, and eugenol, took place upon disruption of fruit tissue through cleavage of the corresponding glycoconjugates, identified putatively as hexose-pentosides. However, in certain genotypes, phenylpropanoid volatile emission was arrested due to the corresponding hexose-pentoside precursors having been converted into glycoconjugate species of a higher complexity: dihexose-pentosides and malonyl-dihexose-pentosides. This glycoside conversion was established to occur in tomato fruit during the later phases of fruit ripening and has consequently led to the inability of red fruits of these genotypes to emit key phenylpropanoid volatiles upon fruit tissue disruption. This principle of volatile emission regulation can pave the way to new strategies for controlling tomato fruit flavor and taste.
p20
sS'pageEnd'
p21
I70
sS'date'
p22
I2010
sS'documentType'
p23
VArticle
p24
sS'subject'
p25
VPlant Sciences
p26
sS'isoSource'
p27
VPlant Physiol.
p28
sS'timesCited'
p29
(lp30
I21
aVZ9 21
p31
asS'funding'
p32
(lp33
(VCentre of BioSystems Genomics
Ntp34
asS'PT'
p35
VJ
sS'title'
p36
VA Role For Differential Glycoconjugation In The Emission Of Phenylpropanoid Volatiles From Tomato Fruit Discovered Using A Metabolic Data Fusion Approach
p37
sS'ISSN'
p38
(lp39
V0032-0889
p40
aVJ9 PLANT PHYSIOL
p41
asS'authors_full'
p42
(lp43
(VTIKUNOV
VYURY M
tp44
a(VDE VOS
VRIC C H
tp45
a(VGONZALEZ PARAMAS
VANA M
tp46
a(VHALL
VROBERT D
tp47
a(VBOVY
VARNAUD G
tp48
asS'PG'
p49
I16
sS'PD'
p50
VJAN
p51
sS'pageStart'
p52
I55
sS'issue'
p53
I1
sS'journal'
p54
VPLANT PHYSIOLOGY
p55
sS'volume'
p56
V152
p57
sS'doi'
p58
V10.1104/pp.109.146670
p59
sS'emailAddress'
p60
Vyury.tikunov@wur.nl
p61
sS'authorAddress'
p62
(lp63
V[Tikunov, Yury M.; de Vos, Ric C. H.; Gonzalez Paramas, Ana M.; Hall, Robert D.; Bovy, Arnaud G.] Ctr BioSyst Genom, NL-6700 AB Wageningen, Netherlands.
p64
aV[Tikunov, Yury M.; de Vos, Ric C. H.; Hall, Robert D.; Bovy, Arnaud G.] Plant Res Int, NL-6700 AA Wageningen, Netherlands.
p65
aV[Tikunov, Yury M.] Wageningen Univ, Lab Plant Physiol, NL-6703 BD Wageningen, Netherlands.
p66
aV[Gonzalez Paramas, Ana M.] Univ Salamanca, Area Nutr & Bromatol, Fac Farm, E-37007 Salamanca, Spain.
p67
asS'publisherAddress'
p68
V15501 MONONA DRIVE, ROCKVILLE, MD 20855 USA
p69
sS'ER'
p70
V
sS'publisher'
p71
VAMER SOC PLANT BIOLOGISTS
p72
sS'authorKeywords'
p73
(lp74
VMETHYL SALICYLATE
p75
aVLYCOPERSICON-ESCULENTUM
p76
aVBAHD ACYLTRANSFERASE
p77
aVSOLANUM-LYCOPERSICON
p78
aVCLITORIA-TERNATEA
p79
aVAROMA COMPONENTS
p80
aVFLAVOR COMPOUNDS
p81
aVPLANT VOLATILES
p82
aVGLYCOSIDES
p83
aVIDENTIFICATION
p84
asS'language'
p85
VEnglish
p86
sS'wosid'
p87
VWOS:000273148100005
p88
sS'citationCount'
p89
I59
sS'authors_init'
p90
(lp91
(VTIKUNOV
VY M
tp92
a(VDE VOS
VR C H
tp93
a(VPARAMAS
VA M G
tp94
a(VHALL
VR D
tp95
a(VBOVY
VA G
tp96
asS'citedReferences'
p97
(lp98
g1
(g2
g3
NtRp99
(dp100
g58
Nsg54
VJ AM SOC HORTIC SCI
p101
sg56
V123
p102
sg90
(lp103
(VBALDWIN
VE A
tp104
asg22
I1998
sg52
V906
p105
sbag1
(g2
g3
NtRp106
(dp107
g58
Nsg54
VHORTSCIENCE
p108
sg56
V35
p109
sg90
(lp110
(VBALDWIN
VE A
tp111
asg22
I2000
sg52
V1013
p112
sbag1
(g2
g3
NtRp113
(dp114
g58
V10.1126/science.1118446
p115
sg54
VSCIENCE
p116
sg56
V311
p117
sg90
(lp118
(VBALDWIN
VI T
tp119
asg22
I2006
sg52
V812
p120
sbag1
(g2
g3
NtRp121
(dp122
g58
V10.1055/s-2006-959574
p123
sg54
VPLANTA MED
p124
sg56
V60
p125
sg90
(lp126
(VBILIA
VA R
tp127
asg22
I1994
sg52
VLANTA
p128
sbag1
(g2
g3
NtRp129
(dp130
g58
V10.1104/pp.104.045468
p131
sg54
VPLANT PHYSIOL
p132
sg56
V135
p133
sg90
(lp134
(VBOATRIGHT
VJ
tp135
asg22
I2004
sg52
VLANT
p136
sbag1
(g2
g3
NtRp137
(dp138
g58
V10.1007/s11306-007-0074-2
p139
sg54
VMETABOLOMICS
p140
sg56
V3
sg90
(lp141
(VBOVY
VA
tp142
asg22
I2007
sg52
V399
p143
sbag1
(g2
g3
NtRp144
(dp145
g58
Nsg54
VRECENT ADV IN PRESS
p146
sg56
V2
sg90
(lp147
(VBOVY
VA G
tp148
asg22
I2010
sg52
Nsbag1
(g2
g3
NtRp149
(dp150
g58
V10.1016/j.pbi.2005.03.007
p151
sg54
VCURR OPIN PLANT BIOL
p152
sg56
V8
sg90
(lp153
(VBOWLES
VD
tp154
asg22
I2005
sg52
V254
p155
sbag1
(g2
g3
NtRp156
(dp157
g58
V10.1038/nbt.1506
p158
sg54
VNAT BIOTECHNOL
p159
sg56
V26
p160
sg90
(lp161
(VBUTELLI
VE
tp162
asg22
I2008
sg52
V1301
p163
sbag1
(g2
g3
NtRp164
(dp165
g58
Nsg54
VACS SYM SER
p166
sg56
V525
p167
sg90
(lp168
(VBUTTERY
VR G
tp169
asg22
I1993
sg52
V23
p170
sbag1
(g2
g3
NtRp171
(dp172
g58
V10.1021/jf00101a010
p173
sg54
VJ AGR FOOD CHEM
p174
sg56
V38
p175
sg90
(lp176
(VBUTTERY
VR G
tp177
asg22
I1990
sg52
V2050
p178
sbag1
(g2
g3
NtRp179
(dp180
g58
V10.1021/jf00076a025
p181
sg54
VJ AGR FOOD CHEM
p182
sg56
V35
p183
sg90
(lp184
(VBUTTERY
VR G
tp185
asg22
I1987
sg52
V540
p186
sbag1
(g2
g3
NtRp187
(dp188
g58
V10.1093/jxb/erf058
p189
sg54
VJ EXP BOT
p190
sg56
V53
p191
sg90
(lp192
(VCAUSSE
VM
tp193
asg22
I2002
sg52
V2089
p194
sbag1
(g2
g3
NtRp195
(dp196
g58
V10.1080/10408410490435089
p197
sg54
VCRIT REV MICROBIOL
p198
sg56
V30
p199
sg90
(lp200
(VCHANG
VS S
tp201
asg22
I2004
sg52
V55
p202
sbag1
(g2
g3
NtRp203
(dp204
g58
Nsg54
VNATURALLY OCCURRING
p205
sg56
Nsg90
(lp206
(VCROUZET
VJ
tp207
asg22
I1999
sg52
V226
p208
sbag1
(g2
g3
NtRp209
(dp210
g58
V10.1016/j.pbi.2006.03.016
p211
sg54
VCURR OPIN PLANT BIOL
p212
sg56
V9
sg90
(lp213
(VD'AURIA
VJ C
tp214
asg22
I2006
sg52
V331
p215
sbag1
(g2
g3
NtRp216
(dp217
g58
V10.1016/j.febslet.2007.01.060
p218
sg54
VFEBS LETT
p219
sg56
V581
p220
sg90
(lp221
(VD'AURIA
VJ C
tp222
asg22
I2007
sg52
V872
p223
sbag1
(g2
g3
NtRp224
(dp225
g58
Nsg54
VENVIRON TOXICOL CHEM
p226
sg56
V23
p227
sg90
(lp228
(VDAY
VJ A
tp229
asg22
I2004
sg52
V102
p230
sbag1
(g2
g3
NtRp231
(dp232
g58
V10.1093/jxb/ern046
p233
sg54
VJ EXP BOT
p234
sg56
V59
p235
sg90
(lp236
(VDHAUBHADEL
VS
tp237
asg22
I2008
sg52
V981
p238
sbag1
(g2
g3
NtRp239
(dp240
g58
V10.1104/pp.104.049981
p241
sg54
VPLANT PHYSIOL
p242
sg56
V135
p243
sg90
(lp244
(VDUDAREVA
VN
tp245
asg22
I2004
sg52
VLANT
p246
sbag1
(g2
g3
NtRp247
(dp248
g58
V10.1104/pp.122.3.627
p249
sg54
VPLANT PHYSIOL
p250
sg56
V122
p251
sg90
(lp252
(VDUDAREVA
VN
tp253
asg22
I2000
sg52
VLANT
p254
sbag1
(g2
g3
NtRp255
(dp256
g58
V10.1080/07352680600899973
p257
sg54
VCRIT REV PLANT SCI
p258
sg56
V25
p259
sg90
(lp260
(VDUDAREVA
VN
tp261
asg22
I2006
sg52
V417
p262
sbag1
(g2
g3
NtRp263
(dp264
g58
V10.1073/pnas.0409227102
p265
sg54
VP NATL ACAD SCI USA
p266
sg56
V102
p267
sg90
(lp268
(VFOROUHAR
VF
tp269
asg22
I2005
sg52
V1773
p270
sbag1
(g2
g3
NtRp271
(dp272
g58
V10.1146/annurev.arplant.56.032604.144128
p273
sg54
VANNU REV PLANT BIOL
p274
sg56
V56
p275
sg90
(lp276
(VGANG
VD R
tp277
asg22
I2005
sg52
V301
p278
sbag1
(g2
g3
NtRp279
(dp280
g58
Nsg54
VMETABOLOMIC IN PRESS
p281
sg56
Nsg90
(lp282
(VGAVAI
VA K
tp283
asg22
I2009
sg52
Nsbag1
(g2
g3
NtRp284
(dp285
g58
V10.1126/science.1112614
p286
sg54
VSCIENCE
p287
sg56
V311
p288
sg90
(lp289
(VGOFF
VS A
tp290
asg22
I2006
sg52
V815
p291
sbag1
(g2
g3
NtRp292
(dp293
g58
V10.1016/0031-9422(92)80035-D
p294
sg54
VPHYTOCHEMISTRY
p295
sg56
V31
p296
sg90
(lp297
(VHERDERICH
VM
tp298
asg22
I1992
sg52
VHYTOCHEMISTRY
p299
sbag1
(g2
g3
NtRp300
(dp301
g58
V10.1126/science.1116232
p302
sg54
VSCIENCE
p303
sg56
V309
p304
sg90
(lp305
(VKAPPERS
VI F
tp306
asg22
I2005
sg52
V2070
p307
sbag1
(g2
g3
NtRp308
(dp309
g58
V10.1016/S0031-9422(02)00486-7
p310
sg54
VPHYTOCHEMISTRY
p311
sg56
V62
p312
sg90
(lp313
(VKAZUMA
VK
tp314
asg22
I2003
sg52
VHYTOCHEMISTRY
p315
sbag1
(g2
g3
NtRp316
(dp317
g58
V10.1016/S0031-9422(96)00760-1
p318
sg54
VPHYTOCHEMISTRY
p319
sg56
V44
p320
sg90
(lp321
(VKIJIMA
VH
tp322
asg22
I1997
sg52
VHYTOCHEMISTRY
p323
sbag1
(g2
g3
NtRp324
(dp325
g58
V10.1073/pnas.0603732103
p326
sg54
VP NATL ACAD SCI USA
p327
sg56
V103
p328
sg90
(lp329
(VKOEDUKA
VT
tp330
asg22
I2006
sg52
V10128
p331
sbag1
(g2
g3
NtRp332
(dp333
g58
V10.1016/j.jplph.2006.05.006
p334
sg54
VJ PLANT PHYSIOL
p335
sg56
V164
p336
sg90
(lp337
(VKOGAWA
VK
tp338
asg22
I2007
sg52
V886
p339
sbag1
(g2
g3
NtRp340
(dp341
g58
V10.1016/j.phytochem.2009.05.014
p342
sg54
VPHYTOCHEMISTRY
p343
sg56
V70
p344
sg90
(lp345
(VKOVACS
VK
tp346
asg22
I2009
sg52
VHYTOCHEMISTRY
p347
sbag1
(g2
g3
NtRp348
(dp349
g58
V10.1002/(SICI)1521-3803(199812)42:06<395::AID-FOOD395>3.0.CO;2-7
p350
sg54
VNAHRUNG
p351
sg56
V42
p352
sg90
(lp353
(VKRUMBEIN
VA
tp354
asg22
I1998
sg52
V395
p355
sbag1
(g2
g3
NtRp356
(dp357
g58
V10.1016/j.postharvbio.2003.10.004
p358
sg54
VPOSTHARVEST BIOL TEC
p359
sg56
V32
p360
sg90
(lp361
(VKRUMBEIN
VA
tp362
asg22
I2004
sg52
VOSTHARVEST
p363
sbag1
(g2
g3
NtRp364
(dp365
g58
V10.1021/jf00014a016
p366
sg54
VJ AGR FOOD CHEM
p367
sg56
V40
p368
sg90
(lp369
(VMARLATT
VC
tp370
asg22
I1992
sg52
V249
p371
sbag1
(g2
g3
NtRp372
(dp373
g58
V10.1104/pp.102.011023
p374
sg54
VPLANT PHYSIOL
p375
sg56
V130
p376
sg90
(lp377
(VMIZUTANI
VM
tp378
asg22
I2002
sg52
VLANT
p379
sbag1
(g2
g3
NtRp380
(dp381
g58
V10.1093/jxb/erm271
p382
sg54
VJ EXP BOT
p383
sg56
V58
p384
sg90
(lp385
(VMOCO
VS
tp386
asg22
I2007
sg52
V4131
p387
sbag1
(g2
g3
NtRp388
(dp389
g58
V10.1104/pp.106.078428
p390
sg54
VPLANT PHYSIOL
p391
sg56
V141
p392
sg90
(lp393
(VMOCO
VS
tp394
asg22
I2006
sg52
VLANT
p395
sbag1
(g2
g3
NtRp396
(dp397
g58
V10.1021/jf0715673
p398
sg54
VJ AGR FOOD CHEM
p399
sg56
V55
p400
sg90
(lp401
(VORTIZ-SERRANO
VP
tp402
asg22
I2007
sg52
V9170
p403
sbag1
(g2
g3
NtRp404
(dp405
g58
V10.1126/science.1147113
p406
sg54
VSCIENCE
p407
sg56
V318
p408
sg90
(lp409
(VPARK
VS W
tp410
asg22
I2007
sg52
V113
p411
sbag1
(g2
g3
NtRp412
(dp413
g58
Nsg54
VFOOD REV INT
p414
sg56
V2
sg90
(lp415
(VPETRO-TURZA
VM
tp416
asg22
I1987
sg52
V309
p417
sbag1
(g2
g3
NtRp418
(dp419
g58
V10.1002/jsfa.1879
p420
sg54
VJ SCI FOOD AGR
p421
sg56
V85
p422
sg90
(lp423
(VRUIZ
VJ J
tp424
asg22
I2005
sg52
V54
p425
sbag1
(g2
g3
NtRp426
(dp427
g58
V10.1080/17429140701591951
p428
sg54
VJ PLANT INTERACT
p429
sg56
V2
sg90
(lp430
(VSASSO
VR
tp431
asg22
I2007
sg52
V175
p432
sbag1
(g2
g3
NtRp433
(dp434
g58
V10.1097/JTO.0b013e31815f662c
p435
sg54
VJ THORAC ONCOL
p436
sg56
V3
sg90
(lp437
(VSCHILD
VS E
tp438
asg22
I2008
sg52
V1
sbag1
(g2
g3
NtRp439
(dp440
g58
V10.1111/j.1365-313X.2008.03446.x
p441
sg54
VPLANT J
p442
sg56
V54
p443
sg90
(lp444
(VSCHWAB
VW
tp445
asg22
I2008
sg52
VLANT
p446
sbag1
(g2
g3
NtRp447
(dp448
g58
V10.1038/385718a0
p449
sg54
VNATURE
p450
sg56
V385
p451
sg90
(lp452
(VSHULAEV
VV
tp453
asg22
I1997
sg52
V718
p454
sbag1
(g2
g3
NtRp455
(dp456
g58
V10.1021/ac051080y
p457
sg54
VANAL CHEM
p458
sg56
V77
p459
sg90
(lp460
(VSMILDE
VA K
tp461
asg22
I2005
sg52
V6729
p462
sbag1
(g2
g3
NtRp463
(dp464
g58
V10.1016/j.phytochem.2007.05.017
p465
sg54
VPHYTOCHEMISTRY
p466
sg56
V68
p467
sg90
(lp468
(VSUZUKI
VH
tp469
asg22
I2007
sg52
VHYTOCHEMISTRY
p470
sbag1
(g2
g3
NtRp471
(dp472
g58
V10.1016/S0925-5214(00)00143-5
p473
sg54
VPOSTHARVEST BIOL TEC
p474
sg56
V20
p475
sg90
(lp476
(VTANDON
VK S
tp477
asg22
I2000
sg52
VOSTHARVEST
p478
sbag1
(g2
g3
NtRp479
(dp480
g58
V10.1093/jxb/erj074
p481
sg54
VJ EXP BOT
p482
sg56
V57
p483
sg90
(lp484
(VTIEMAN
VD M
tp485
asg22
I2006
sg52
V887
p486
sbag1
(g2
g3
NtRp487
(dp488
g58
V10.1104/pp.105.068130
p489
sg54
VPLANT PHYSIOL
p490
sg56
V139
p491
sg90
(lp492
(VTIKUNOV
VY
tp493
asg22
I2005
sg52
VLANT
p494
sbag1
(g2
g3
NtRp495
(dp496
g58
V10.1007/978-1-59745-244-1_3
p497
sg54
VV358
p498
sg56
V358
p499
sg90
(lp500
(VTIKUNOV
VYURY M
tp501
asg22
I2007
sg52
V39
p502
sbag1
(g2
g3
NtRp503
(dp504
g58
V10.1074/jbc.M700638200
p505
sg54
VJ BIOL CHEM
p506
sg56
V282
p507
sg90
(lp508
(VUNNO
VH
tp509
asg22
I2007
sg52
V15812
p510
sbag1
(g2
g3
NtRp511
(dp512
g58
V10.1007/s10681-008-9672-y
p513
sg54
VEUPHYTICA
p514
sg56
V161
p515
sg90
(lp516
(VURSEM
VR
tp517
asg22
I2008
sg52
V181
p518
sbag1
(g2
g3
NtRp519
(dp520
g58
V10.1007/s00122-008-0755-x
p521
sg54
VTHEOR APPL GENET
p522
sg56
V117
p523
sg90
(lp524
(VVAN
VBERLOO R
tp525
asg22
I2008
sg52
V89
p526
sbag1
(g2
g3
NtRp527
(dp528
g58
V10.1038/35107108
p529
sg54
VNATURE
p530
sg56
V414
p531
sg90
(lp532
(VWILDERMUTH
VM C
tp533
asg22
I2001
sg52
V562
p534
sbag1
(g2
g3
NtRp535
(dp536
g58
V10.1021/jf960578l
p537
sg54
VJ AGR FOOD CHEM
p538
sg56
V45
p539
sg90
(lp540
(VWITHOPF
VB
tp541
asg22
I1997
sg52
V907
p542
sbag1
(g2
g3
NtRp543
(dp544
g58
V10.1093/jxb/erp086
p545
sg54
VJ EXP BOT
p546
sg56
V60
p547
sg90
(lp548
(VZANOR
VM I
tp549
asg22
I2009
sg52
V2139
p550
sbasb.