ccopy_reg
_reconstructor
p1
(ctethne.classes.paper
Paper
p2
c__builtin__
object
p3
NtRp4
(dp5
S'publisherCity'
p6
VROCKVILLE
p7
sS'reprintAddress'
p8
VHwang, I (reprint author), Pohang Univ Sci & Technol, Div Mol & Life Sci, Pohang 790784, South Korea.
p9
sS'WC'
p10
VPlant Sciences
p11
sS'GA'
p12
V081ZA
p13
sS'FX'
p14
(lp15
VThis work was supported by the National Research Foundation (grant no.
p16
aVNRF-2011-355-C00148), the World Class University Project (grant no.
p17
aVR31-2008-000-10105), the Ministry of Education, Science, and Technology,
p18
aVKorea, the Ministry of Agriculture, Foods and Fishery, Korea (grant no.
p19
aV609004-05-3-HD240), and the German Research Council (grant no. DFG RO
p20
aV14-1) to D. G. R., and by the Next-Generation BioGreen 21 program, Rural
p21
aVDevelopment Administration, Korea (grant no. PJ007974) to K.Y.C.
p22
asS'abstract'
p23
VADP-ribosylation factor1 (Arf1), a member of the small GTP-binding proteins, plays a pivotal role in protein trafficking to multiple organelles. In its GDP-bound form, Arf1 is recruited from the cytosol to organelle membranes, where it functions in vesicle-mediated protein trafficking. However, the mechanism of Arf1-GDP recruitment remains unknown. Here, we provide evidence that two Glo3p-type Arf GTPase-activating proteins (ArfGAPs), ArfGAP domain8 (AGD8) and AGD9, are involved in the recruitment of Arf1-GDP to the Golgi apparatus in Arabidopsis (Arabidopsis thaliana). RNA interference plants expressing low levels of AGD8 and AGD9 exhibited abnormal Golgi morphology, inhibition of protein trafficking, and arrest of plant growth and development. In RNA interference plants, Arf1 was poorly recruited to the Golgi apparatus. Conversely, high levels of AGD8 and AGD9 induced Arf1 accumulation at the Golgi and suppressed Golgi disruption and inhibition of vacuolar trafficking that was caused by overexpression of AGD7. Based on these results, we propose that the Glo3p-type ArfGAPs AGD8 and AGD9 recruit Arf1-GDP from the cytosol to the Golgi for Arf1-mediated protein trafficking, which is essential for plant development and growth.
p24
sS'pageEnd'
p25
I691
sS'date'
p26
I2013
sS'documentType'
p27
VArticle
p28
sS'subject'
p29
VPlant Sciences
p30
sS'isoSource'
p31
VPlant Physiol.
p32
sS'timesCited'
p33
(lp34
I1
aVZ9 1
p35
asS'funding'
p36
(lp37
(VNational Research Foundation
VNRF-2011-355-C00148
tp38
a(VWorld Class University Project
VR31-2008-000-10105
tp39
a(VMinistry of Education, Science, and Technology, Korea
Ntp40
a(VMinistry of Agriculture, Foods and Fishery, Korea
V609004-05-3-HD240
tp41
a(VGerman Research Council
VDFG RO 14-1
tp42
a(VNext-Generation BioGreen 21 program, Rural Development Administration, Korea
VPJ007974
tp43
asS'PT'
p44
VJ
sS'title'
p45
VRecruitment Of Arf1-Gdp To Golgi By Glo3P-Type Arfgaps Is Crucial For Golgi Maintenance And Plant Growth
p46
sS'ISSN'
p47
(lp48
V0032-0889
p49
aVJ9 PLANT PHYSIOL
p50
asS'authors_full'
p51
(lp52
(VMIN
VMYUNG KI
tp53
a(VJANG
VMIHUE
tp54
a(VLEE
VMYOUNGHUI
tp55
a(VLEE
VJUNHO
tp56
a(VSONG
VKYUNGYOUNG
tp57
a(VLEE
VYONGJIK
tp58
a(VCHOI
VKWAN YONG
tp59
a(VROBINSON
VDAVID G
tp60
a(VHWANG
VINHWAN
tp61
asS'PG'
p62
I16
sS'PD'
p63
VFEB
p64
sS'pageStart'
p65
I676
sS'issue'
p66
I2
sS'journal'
p67
VPLANT PHYSIOLOGY
p68
sS'volume'
p69
V161
p70
sS'doi'
p71
V10.1104/pp.112.209148
p72
sS'emailAddress'
p73
Vihhwang@postech.ac.kr
p74
sS'authorAddress'
p75
(lp76
V[Min, Myung Ki; Jang, Mihue; Lee, Myounghui; Lee, Junho; Song, Kyungyoung; Choi, Kwan Yong; Hwang, Inhwan] Pohang Univ Sci & Technol, Div Mol & Life Sci, Pohang 790784, South Korea.
p77
aV[Lee, Yongjik; Choi, Kwan Yong; Hwang, Inhwan] Pohang Univ Sci & Technol, Div Integrat Biosci & Biotechnol, Pohang 790784, South Korea.
p78
aV[Robinson, David G.] Heidelberg Univ, Dept Cell Biol, Ctr Organismal Studies, D-69120 Heidelberg, Germany.
p79
asS'publisherAddress'
p80
V15501 MONONA DRIVE, ROCKVILLE, MD 20855 USA
p81
sS'ER'
p82
V
sS'publisher'
p83
VAMER SOC PLANT BIOLOGISTS
p84
sS'authorKeywords'
p85
(lp86
VGTPASE-ACTIVATING PROTEIN
p87
aVADP-RIBOSYLATION FACTOR-1
p88
aVARF-GAP
p89
aVENDOPLASMIC-RETICULUM
p90
aVCOPI COAT
p91
aVIN-VIVO
p92
aVVACUOLAR TRAFFICKING
p93
aVLIVING CELLS
p94
aVZINC-FINGER
p95
aVARABIDOPSIS
p96
asS'language'
p97
VEnglish
p98
sS'wosid'
p99
VWOS:000314360100009
p100
sS'citationCount'
p101
I57
sS'authors_init'
p102
(lp103
(VMIN
VM K
tp104
a(VJANG
VM
tp105
a(VLEE
VM
tp106
a(VLEE
VJ
tp107
a(VSONG
VK
tp108
a(VLEE
VY
tp109
a(VCHOI
VK Y
tp110
a(VROBINSON
VD G
tp111
a(VHWANG
VI
tp112
asS'citedReferences'
p113
(lp114
g1
(g2
g3
NtRp115
(dp116
g71
VDOI 10.1117/1.3589100
p117
sg67
VBIOPHOTONICS INT
p118
sg69
V7
sg102
(lp119
(VABRAMOFF
VM D
tp120
asg26
I2004
sg65
V36
p121
sbag1
(g2
g3
NtRp122
(dp123
g71
V10.1093/emboj/16.24.7305
p124
sg67
VEMBO J
p125
sg69
V16
p126
sg102
(lp127
(VAOE
VT
tp128
asg26
I1997
sg65
V7305
p129
sbag1
(g2
g3
NtRp130
(dp131
g71
V10.1046/j.1365-313X.1997.11030605.x
p132
sg67
VPLANT J
p133
sg69
V11
p134
sg102
(lp135
(VAOYAMA
VT
tp136
asg26
I1997
sg65
VLANT
p137
sbag1
(g2
g3
NtRp138
(dp139
g71
Nsg67
VJ BIOL CHEM
p140
sg69
V267
p141
sg102
(lp142
(VBALCH
VW E
tp143
asg26
I1992
sg65
V13053
p144
sbag1
(g2
g3
NtRp145
(dp146
g71
V10.1038/nature02108
p147
sg67
VNATURE
p148
sg69
V426
p149
sg102
(lp150
(VBIGAY
VJ
tp151
asg26
I2003
sg65
V563
p152
sbag1
(g2
g3
NtRp153
(dp154
g71
V10.1105/tpc.000620
p155
sg67
VPLANT CELL
p156
sg69
V14
p157
sg102
(lp158
(VBRANDIZZI
VF
tp159
asg26
I2002
sg65
VLANT
p160
sbag1
(g2
g3
NtRp161
(dp162
g71
V10.1046/j.1365-313x.1998.00343.x
p163
sg67
VPLANT J
p164
sg69
V16
p165
sg102
(lp166
(VCLOUGH
VS J
tp167
asg26
I1998
sg65
VLANT
p168
sbag1
(g2
g3
NtRp169
(dp170
g71
V10.1126/science.270.5244.1999
p171
sg67
VSCIENCE
p172
sg69
V270
p173
sg102
(lp174
(VCUKIERMAN
VE
tp175
asg26
I1995
sg65
V1999
p176
sbag1
(g2
g3
NtRp177
(dp178
g71
V10.1105/tpc.112.096362
p179
sg67
VPLANT CELL
p180
sg69
V24
p181
sg102
(lp182
(VDENECKE
VJ
tp183
asg26
I2012
sg65
VLANT
p184
sbag1
(g2
g3
NtRp185
(dp186
g71
V10.1016/S0955-0674(00)00119-8
p187
sg67
VCURR OPIN CELL BIOL
p188
sg69
V12
p189
sg102
(lp190
(VDONALDSON
VJ G
tp191
asg26
I2000
sg65
V475
p192
sbag1
(g2
g3
NtRp193
(dp194
g71
V10.1038/nrm1910
p195
sg67
VNAT REV MOL CELL BIO
p196
sg69
V7
sg102
(lp197
(VD'SOUZA-SCHOREY
VC
tp198
asg26
I2006
sg65
V347
p199
sbag1
(g2
g3
NtRp200
(dp201
g71
V10.1038/nprot.2008.31
p202
sg67
VNAT PROTOC
p203
sg69
V3
sg102
(lp204
(VFRENCH
VA P
tp205
asg26
I2008
sg65
V619
p206
sbag1
(g2
g3
NtRp207
(dp208
g71
V10.1111/j.1600-0854.2007.00631.x
p209
sg67
VTRAFFIC
p210
sg69
V8
sg102
(lp211
(VFRIGERIO
VG
tp212
asg26
I2007
sg65
V1644
p213
sbag1
(g2
g3
NtRp214
(dp215
g71
V10.1146/annurev.cellbio.23.090506.123209
p216
sg67
VANNU REV CELL DEV BI
p217
sg69
V23
p218
sg102
(lp219
(VGILLINGHAM
VA K
tp220
asg26
I2007
sg65
V579
p221
sbag1
(g2
g3
NtRp222
(dp223
g71
V10.1016/S0092-8674(00)80598-X
p224
sg67
VCELL
p225
sg69
V96
p226
sg102
(lp227
(VGOLDBERG
VJ
tp228
asg26
I1999
sg65
V893
p229
sbag1
(g2
g3
NtRp230
(dp231
g71
V10.1093/emboj/20.23.6751
p232
sg67
VEMBO J
p233
sg69
V20
p234
sg102
(lp235
(VGOMMEL
VD U
tp236
asg26
I2001
sg65
V6751
p237
sbag1
(g2
g3
NtRp238
(dp239
g71
V10.1083/jcb.200409138
p240
sg67
VJ CELL BIOL
p241
sg69
V168
p242
sg102
(lp243
(VHONDA
VA
tp244
asg26
I2005
sg65
V1039
p245
sbag1
(g2
g3
NtRp246
(dp247
g71
V10.1016/j.pbi.2009.09.012
p248
sg67
VCURR OPIN PLANT BIOL
p249
sg69
V12
p250
sg102
(lp251
(VHWANG
VI
tp252
asg26
I2009
sg65
V660
p253
sbag1
(g2
g3
NtRp254
(dp255
g71
V10.1093/jxb/erj019
p256
sg67
VJ EXP BOT
p257
sg69
V57
p258
sg102
(lp259
(VHYUNJONG
VB
tp260
asg26
I2006
sg65
V161
p261
sbag1
(g2
g3
NtRp262
(dp263
g71
V10.1111/j.1600-0854.2007.00624.x
p264
sg67
VTRAFFIC
p265
sg69
V8
sg102
(lp266
(VINOUE
VH
tp267
asg26
I2007
sg65
V1465
p268
sbag1
(g2
g3
NtRp269
(dp270
g71
V10.1023/A:1026509002161
p271
sg67
VPLANT MOL BIOL
p272
sg69
V44
p273
sg102
(lp274
(VJENSEN
VR B
tp275
asg26
I2000
sg65
VLANT
p276
sbag1
(g2
g3
NtRp277
(dp278
g71
V10.1105/tpc.13.7.1511
p279
sg67
VPLANT CELL
p280
sg69
V13
p281
sg102
(lp282
(VJIN
VJ B
tp283
asg26
I2001
sg65
VLANT
p284
sbag1
(g2
g3
NtRp285
(dp286
g71
V10.1074/jbc.M110.180380
p287
sg67
VJ BIOL CHEM
p288
sg69
V285
p289
sg102
(lp290
(VKARTBERG
VF
tp291
asg26
I2010
sg65
V36709
p292
sbag1
(g2
g3
NtRp293
(dp294
g71
V10.1105/tpc.13.2.287
p295
sg67
VPLANT CELL
p296
sg69
V13
p297
sg102
(lp298
(VKIM
VD H
tp299
asg26
I2001
sg65
VLANT
p300
sbag1
(g2
g3
NtRp301
(dp302
g71
V10.1105/tpc.104.0288829
p303
sg67
VPLANT CELL
p304
sg69
V17
p305
sg102
(lp306
(VKIM
VH
tp307
asg26
I2005
sg65
VLANT
p308
sbag1
(g2
g3
NtRp309
(dp310
g71
V10.1159/000110431
p311
sg67
VCELL PHYSIOL BIOCHEM
p312
sg69
V20
p313
sg102
(lp314
(VKIM
VM H
tp315
asg26
I2007
sg65
V703
p316
sbag1
(g2
g3
NtRp317
(dp318
g71
V10.1104/pp.010450
p319
sg67
VPLANT PHYSIOL
p320
sg69
V127
p321
sg102
(lp322
(VKIM
VY W
tp323
asg26
I2001
sg65
VLANT
p324
sbag1
(g2
g3
NtRp325
(dp326
g71
V10.1091/mbc.E08-10-1010
p327
sg67
VMOL BIOL CELL
p328
sg69
V20
p329
sg102
(lp330
(VKLIOUCHNIKOV
VL
tp331
asg26
I2009
sg65
V859
p332
sbag1
(g2
g3
NtRp333
(dp334
g71
V10.1242/dev.01716
p335
sg67
VDEVELOPMENT
p336
sg69
V132
p337
sg102
(lp338
(VKOIZUMI
VK
tp339
asg26
I2005
sg65
V1699
p340
sbag1
(g2
g3
NtRp341
(dp342
g71
V10.1093/emboj/18.18.4935
p343
sg67
VEMBO J
p344
sg69
V18
p345
sg102
(lp346
(VLANOIX
VJ
tp347
asg26
I1999
sg65
V4935
p348
sbag1
(g2
g3
NtRp349
(dp350
g71
V10.1186/1746-4811-4-24
p351
sg67
VPLANT METHODS
p352
sg69
V4
sg102
(lp353
(VLEE
VL Y
tp354
asg26
I2008
sg65
VLANT
p355
sbag1
(g2
g3
NtRp356
(dp357
g71
V10.1104/pp.003624
p358
sg67
VPLANT PHYSIOL
p359
sg69
V129
p360
sg102
(lp361
(VLEE
VM H
tp362
asg26
I2002
sg65
VLANT
p363
sbag1
(g2
g3
NtRp364
(dp365
g71
V10.1083/jcb.200404008
p366
sg67
VJ CELL BIOL
p367
sg69
V168
p368
sg102
(lp369
(VLEE
VS Y
tp370
asg26
I2005
sg65
V281
p371
sbag1
(g2
g3
NtRp372
(dp373
g71
V10.1091/mbc.E04-04-0316
p374
sg67
VMOL BIOL CELL
p375
sg69
V15
p376
sg102
(lp377
(VLEWIS
VS M
tp378
asg26
I2004
sg65
V4064
p379
sbag1
(g2
g3
NtRp380
(dp381
g71
V10.1083/jcb.200410142
p382
sg67
VJ CELL BIOL
p383
sg69
V168
p384
sg102
(lp385
(VLIU
VW
tp386
asg26
I2005
sg65
V1053
p387
sbag1
(g2
g3
NtRp388
(dp389
g71
V10.1006/meth.2001.1262
p390
sg67
VMETHODS
p391
sg69
V25
p392
sg102
(lp393
(VLIVAK
VK J
tp394
asg26
I2001
sg65
V402
p395
sbag1
(g2
g3
NtRp396
(dp397
g71
V10.1111/j.1600-0854.2007.00671.x
p398
sg67
VTRAFFIC
p399
sg69
V9
sg102
(lp400
(VMATHESON
VL A
tp401
asg26
I2008
sg65
V103
p402
sbag1
(g2
g3
NtRp403
(dp404
g71
V10.1104/pp.106.095091
p405
sg67
VPLANT PHYSIOL
p406
sg69
V143
p407
sg102
(lp408
(VMIN
VM K
tp409
asg26
I2007
sg65
VLANT
p410
sbag1
(g2
g3
NtRp411
(dp412
g71
V10.1105/tpc.12.11.2219
p413
sg67
VPLANT CELL
p414
sg69
V12
p415
sg102
(lp416
(VPIMPL
VP
tp417
asg26
I2000
sg65
VLANT
p418
sbag1
(g2
g3
NtRp419
(dp420
g71
V10.1038/417187a
p421
sg67
VNATURE
p422
sg69
V417
p423
sg102
(lp424
(VPRESLEY
VJ F
tp425
asg26
I2002
sg65
V187
p426
sbag1
(g2
g3
NtRp427
(dp428
g71
V10.1083/jcb.200112092
p429
sg67
VJ CELL BIOL
p430
sg69
V157
p431
sg102
(lp432
(VREIN
VU
tp433
asg26
I2002
sg65
V395
p434
sbag1
(g2
g3
NtRp435
(dp436
g71
V10.1074/jbc.M900749200
p437
sg67
VJ BIOL CHEM
p438
sg69
V284
p439
sg102
(lp440
(VSAITOH
VA
tp441
asg26
I2009
sg65
V13948
p442
sbag1
(g2
g3
NtRp443
(dp444
g71
V10.1104/pp.121.3.929
p445
sg67
VPLANT PHYSIOL
p446
sg69
V121
p447
sg102
(lp448
(VSANDERFOOT
VA A
tp449
asg26
I1999
sg65
VLANT
p450
sbag1
(g2
g3
NtRp451
(dp452
g71
Nsg67
VMOL BIOL CELL
p453
sg69
V12
p454
sg102
(lp455
(VSANDERFOOT
VA A
tp456
asg26
I2001
sg65
V3733
p457
sbag1
(g2
g3
NtRp458
(dp459
g71
V10.1111/j.1600-0854.2009.00952.x
p460
sg67
VTRAFFIC
p461
sg69
V10
p462
sg102
(lp463
(VSCHINDLER
VC
tp464
asg26
I2009
sg65
V1362
p465
sbag1
(g2
g3
NtRp466
(dp467
g71
V10.1105/tpc.105.039008
p468
sg67
VPLANT CELL
p469
sg69
V18
p470
sg102
(lp471
(VSIEBURTH
VL E
tp472
asg26
I2006
sg65
VLANT
p473
sbag1
(g2
g3
NtRp474
(dp475
g71
V10.1105/tpc.009779
p476
sg67
VPLANT CELL
p477
sg69
V15
p478
sg102
(lp479
(VSOHN
VE J
tp480
asg26
I2003
sg65
VLANT
p481
sbag1
(g2
g3
NtRp482
(dp483
g71
V10.1104/pp.106.077818
p484
sg67
VPLANT PHYSIOL
p485
sg69
V141
p486
sg102
(lp487
(VSONG
VX F
tp488
asg26
I2006
sg65
VLANT
p489
sbag1
(g2
g3
NtRp490
(dp491
g71
V10.1016/j.febslet.2010.04.005
p492
sg67
VFEBS LETT
p493
sg69
V584
p494
sg102
(lp495
(VSPANG
VA
tp496
asg26
I2010
sg65
V2646
p497
sbag1
(g2
g3
NtRp498
(dp499
g71
V10.1111/j.1365-313X.2010.04369.x
p500
sg67
VPLANT J
p501
sg69
V64
p502
sg102
(lp503
(VSTEFANO
VG
tp504
asg26
I2010
sg65
VLANT
p505
sbag1
(g2
g3
NtRp506
(dp507
g71
V10.1046/j.1365-313X.2002.01372.x
p508
sg67
VPLANT J
p509
sg69
V31
p510
sg102
(lp511
(VTAKEUCHI
VM
tp512
asg26
I2002
sg65
VLANT
p513
sbag1
(g2
g3
NtRp514
(dp515
g71
V10.1105/tpc.105.031930
p516
sg67
VPLANT CELL
p517
sg69
V17
p518
sg102
(lp519
(VTAMURA
VK
tp520
asg26
I2005
sg65
VLANT
p521
sbag1
(g2
g3
NtRp522
(dp523
g71
V10.1083/jcb.200806140
p524
sg67
VJ CELL BIOL
p525
sg69
V183
p526
sg102
(lp527
(VWEIMER
VC
tp528
asg26
I2008
sg65
V725
p529
sbag1
(g2
g3
NtRp530
(dp531
g71
V10.1046/j.1365-313X.2001.01105.x
p532
sg67
VPLANT J
p533
sg69
V27
p534
sg102
(lp535
(VWESLEY
VS V
tp536
asg26
I2001
sg65
VLANT
p537
sbag1
(g2
g3
NtRp538
(dp539
g71
V10.1104/pp.108.119529
p540
sg67
VPLANT PHYSIOL
p541
sg69
V147
p542
sg102
(lp543
(VYOO
VC M
tp544
asg26
I2008
sg65
VLANT
p545
sbag1
(g2
g3
NtRp546
(dp547
g71
V10.1074/jbc.273.31.19792
p548
sg67
VJ BIOL CHEM
p549
sg69
V273
p550
sg102
(lp551
(VZHANG
VC J
tp552
asg26
I1998
sg65
V19792
p553
sbag1
(g2
g3
NtRp554
(dp555
g71
V10.1111/j.1365-3040.2004.01253.x
p556
sg67
VPLANT CELL ENVIRON
p557
sg69
V28
p558
sg102
(lp559
(VZHUANG
VX
tp560
asg26
I2005
sg65
VLANT
p561
sbasb.