ccopy_reg
_reconstructor
p1
(ctethne.classes.paper
Paper
p2
c__builtin__
object
p3
NtRp4
(dp5
S'publisherCity'
p6
VROCKVILLE
p7
sS'reprintAddress'
p8
VKrochko, JE (reprint author), Natl Res Council Canada, Inst Plant Biotechnol, 110 Gymnasium Rd, Saskatoon, SK S7N 0W9, Canada.
p9
sS'WC'
p10
VPlant Sciences
p11
sS'GA'
p12
V166DA
p13
sS'abstract'
p14
VIsolated microspores of Brassica napus are developmentally programmed to form gametes; however, microspores can be reprogrammed through stress treatments to undergo appropriate divisions and form embryos. We are interested in the identification and isolation of factors and genes associated with the induction and establishment of embryogenesis in isolated microspores. Standard and normalized cDNA libraries, as well as subtractive cDNA libraries, were constructed from freshly isolated microspores (0 h) and microspores cultured for 3, 5, or 7 d under embryogenesis-inducing conditions. Library comparison tools were used to identify shifts in metabolism across this time course. Detailed expressed sequence tag analyses of 3 and 5 d cultures indicate that most sequences are related to pollen-specific genes. However, semiquantitative and real-time reverse transcription-polymerase chain reaction analyses at the initial stages of embryo induction also reveal expression of embryogenesis-related genes such as BABYBOOM1, LEAFY COTYLEDON1 (LEC1), and LEC2 as early as 2 to 3 d of microspore culture. Sequencing results suggest that embryogenesis is clearly established in a subset of the microspores by 7 d of culture and that this time point is optimal for isolation of embryo-specific expressed sequence tags such as ABSCISIC ACID INSENSITIVE3, ATS1, LEC1, LEC2, and FUSCA3. Following extensive polymerase chain reaction-based expression profiling, 16 genes were identified as unequivocal molecular markers for microspore embryogenesis in B. napus. These molecular marker genes also show expression during zygotic embryogenesis, underscoring the common developmental pathways that function in zygotic and gametic embryogenesis. The quantitative expression values of several of these molecular marker genes are shown to be predictive of embryogenic potential in B. napus cultivars (e. g. 'Topas' DH4079, 'Allons,' 'Westar,' 'Garrison').
p15
sS'pageEnd'
p16
I154
sS'publisherAddress'
p17
V15501 MONONA DRIVE, ROCKVILLE, MD 20855 USA
p18
sS'documentType'
p19
VReview
p20
sS'subject'
p21
VPlant Sciences
p22
sS'isoSource'
p23
VPlant Physiol.
p24
sS'timesCited'
p25
(lp26
I51
aVZ9 58
p27
asS'PT'
p28
VJ
sS'title'
p29
VTranscript Profiling And Identification Of Molecular Markers For Early Microspore Embryogenesis In Brassica Napus
p30
sS'ISSN'
p31
(lp32
V0032-0889
p33
aVJ9 PLANT PHYSIOL
p34
asS'authors_full'
p35
(lp36
(VMALIK
VMEGHNA R
tp37
a(VWANG
VFENG
tp38
a(VDIRPAUL
VJOAN M
tp39
a(VZHOU
VNING
tp40
a(VPOLOWICK
VPATRICIA L
tp41
a(VFERRIE
VALISON M R
tp42
a(VKROCHKO
VJOAN E
tp43
asS'PG'
p44
I21
sS'PD'
p45
VMAY
p46
sS'pageStart'
p47
I134
sS'issue'
p48
I1
sS'journal'
p49
VPLANT PHYSIOLOGY
p50
sS'volume'
p51
V144
p52
sS'doi'
p53
V10.1104/pp.106.092932
p54
sS'emailAddress'
p55
Vjoan.krochko@nrc-cnrc.gc.ca
p56
sS'authorAddress'
p57
VNatl Res Council Canada, Inst Plant Biotechnol, Saskatoon, SK S7N 0W9, Canada.
p58
sS'date'
p59
I2007
sS'ER'
p60
V
sS'publisher'
p61
VAMER SOC PLANT BIOLOGISTS
p62
sS'authorKeywords'
p63
(lp64
VTRANSFER PROTEIN GENE
p65
aVARABIDOPSIS POLLEN TRANSCRIPTOME
p66
aVSCALE STATISTICAL-ANALYSES
p67
aVWHEAT TRITICUM-AESTIVUM
p68
aVEXPRESSED SEQUENCE TAGS
p69
aVLIPID-TRANSFER PROTEINS
p70
aVSOMATIC PLANT-CELLS
p71
aVHORDEUM-VULGARE L
p72
aVL. CV TOPAS
p73
aVEMBRYO DEVELOPMENT
p74
asS'language'
p75
VEnglish
p76
sS'wosid'
p77
VWOS:000246356300013
p78
sS'citationCount'
p79
I130
sS'authors_init'
p80
(lp81
(VMALIK
VM R
tp82
a(VWANG
VF
tp83
a(VDIRPAUL
VJ M
tp84
a(VZHOU
VN
tp85
a(VPOLOWICK
VP L
tp86
a(VFERRIE
VA M R
tp87
a(VKROCHKO
VJ E
tp88
asS'citedReferences'
p89
(lp90
g1
(g2
g3
NtRp91
(dp92
g53
V10.1105/tpc.104.024588
p93
sg49
VPLANT CELL
p94
sg51
V16
p95
sg80
(lp96
(VACOSTA-GARCIA
VG
tp97
asg59
I2004
sg47
VLANT
p98
sbag1
(g2
g3
NtRp99
(dp100
g53
V10.1007/BF00017835
p101
sg49
VPLANT MOL BIOL
p102
sg51
V15
p103
sg80
(lp104
(VALBANI
VD
tp105
asg59
I1990
sg47
VLANT
p106
sbag1
(g2
g3
NtRp107
(dp108
g53
V10.1104/pp.105.062059
p109
sg49
VPLANT PHYSIOL
p110
sg51
V138
p111
sg80
(lp112
(VALBERTINI
VE
tp113
asg59
I2005
sg47
VLANT
p114
sbag1
(g2
g3
NtRp115
(dp116
g53
Nsg49
VNUCLEIC ACIDS RES
p117
sg51
V25
p118
sg80
(lp119
(VALTSCHUL
VS F
tp120
asg59
I1997
sg47
V3402
p121
sbag1
(g2
g3
NtRp122
(dp123
g53
V10.1016/S0168-9452(00)00232-6
p124
sg49
VPLANT SCI
p125
sg51
V157
p126
sg80
(lp127
(VARONDEL
VV
tp128
asg59
I2000
sg47
VLANT
p129
sbag1
(g2
g3
NtRp130
(dp131
g53
V10.1007/s004250000471
p132
sg49
VPLANTA
p133
sg51
V213
p134
sg80
(lp135
(VBAUDINO
VS
tp136
asg59
I2001
sg47
VLANTA
p137
sbag1
(g2
g3
NtRp138
(dp139
g53
V10.1007/s11103-004-7532-2
p140
sg49
VPLANT MOL BIOL
p141
sg51
V57
p142
sg80
(lp143
(VBEN
VC
tp144
asg59
I2005
sg47
VLANT
p145
sbag1
(g2
g3
NtRp146
(dp147
g53
V10.1007/s004970050088
p148
sg49
VSEX PLANT REPROD
p149
sg51
V10
p150
sg80
(lp151
(VBINAROVA
VP
tp152
asg59
I1997
sg47
V200
p153
sbag1
(g2
g3
NtRp154
(dp155
g53
V10.1387/ijdb.0520196lb
p156
sg49
VINT J DEV BIOL
p157
sg51
V49
p158
sg80
(lp159
(VBOAVIDA
VL C
tp160
asg59
I2005
sg47
V595
p161
sbag1
(g2
g3
NtRp162
(dp163
g53
V10.1101/gr.6.9.791
p164
sg49
VGENOME RES
p165
sg51
V6
sg80
(lp166
(VBONALDO
VM D F
tp167
asg59
I1996
sg47
V791
p168
sbag1
(g2
g3
NtRp169
(dp170
g53
Nsg49
VHAPLOIDS CROP IMPROV
p171
sg51
V2
sg80
(lp172
(VBOUTILIER
VK
tp173
asg59
I2005
sg47
V73
p174
sbag1
(g2
g3
NtRp175
(dp176
g53
V10.1005/tpc.001941
p177
sg49
VPLANT CELL
p178
sg51
V14
p179
sg80
(lp180
(VBOUTILIER
VK
tp181
asg59
I2002
sg47
VLANT
p182
sbag1
(g2
g3
NtRp183
(dp184
g53
V10.1007/BF00019486
p185
sg49
VPLANT MOL BIOL
p186
sg51
V26
p187
sg80
(lp188
(VBOUTILIER
VK A
tp189
asg59
I1994
sg47
VLANT
p190
sbag1
(g2
g3
NtRp191
(dp192
g53
V10.1046/j.1365-313X.2003.01855.x
p193
sg49
VPLANT J
p194
sg51
V34
p195
sg80
(lp196
(VBRADY
VS M
tp197
asg59
I2003
sg47
VLANT
p198
sbag1
(g2
g3
NtRp199
(dp200
g53
V10.1073/pnas.0511331103
p201
sg49
VP NATL ACAD SCI USA
p202
sg51
V103
p203
sg80
(lp204
(VBRAYBROOK
VS A
tp205
asg59
I2006
sg47
V3468
p206
sbag1
(g2
g3
NtRp207
(dp208
g53
V10.1139/gen-41-1-62
p209
sg49
VGENOME
p210
sg51
V41
p211
sg80
(lp212
(VCAVELL
VA C
tp213
asg59
I1998
sg47
V62
p214
sbag1
(g2
g3
NtRp215
(dp216
g53
V10.1007/s00425-006-0362-5
p217
sg49
VPLANTA
p218
sg51
V225
p219
sg80
(lp220
(VCHAN
VJ
tp221
asg59
I2007
sg47
VLANTA
p222
sbag1
(g2
g3
NtRp223
(dp224
g53
V10.1007/s004250000299
p225
sg49
VPLANTA
p226
sg51
V211
p227
sg80
(lp228
(VCHAPMAN
VA
tp229
asg59
I2000
sg47
VLANTA
p230
sbag1
(g2
g3
NtRp231
(dp232
g53
V10.1046/j.1365-313X.2003.01800.x
p233
sg49
VPLANT J
p234
sg51
V35
p235
sg80
(lp236
(VCHIWOCHA
VS D S
tp237
asg59
I2003
sg47
VLANT
p238
sbag1
(g2
g3
NtRp239
(dp240
g53
Nsg49
VEUL DIAGR WORKSH 200
p241
sg51
Nsg80
(lp242
(VCHOW
VS
tp243
asg59
I2005
sg47
Nsbag1
(g2
g3
NtRp244
(dp245
g53
Nsg49
VHAPLOIDS CROP IMPROV
p246
sg51
V2
sg80
(lp247
(VCLEMENT
VC
tp248
asg59
I2005
sg47
V53
p249
sbag1
(g2
g3
NtRp250
(dp251
g53
Nsg49
VPLANT CELL REP
p252
sg51
V13
p253
sg80
(lp254
(VCUSTERS
VJ B M
tp255
asg59
I1994
sg47
VLANT
p256
sbag1
(g2
g3
NtRp257
(dp258
g53
V10.1046/j.1365-313X.2002.01257.x
p259
sg49
VPLANT J
p260
sg51
V29
p261
sg80
(lp262
(VDHAUBHADEL
VS
tp263
asg59
I2002
sg47
VLANT
p264
sbag1
(g2
g3
NtRp265
(dp266
g53
V10.1105/tpc.1.1.73
p267
sg49
VPLANT CELL
p268
sg51
V1
sg80
(lp269
(VDIETRICH
VR A
tp270
asg59
I1989
sg47
VLANT
p271
sbag1
(g2
g3
NtRp272
(dp273
g53
V10.1073/pnas.95.25.14863
p274
sg49
VP NATL ACAD SCI USA
p275
sg51
V95
p276
sg80
(lp277
(VEISEN
VM B
tp278
asg59
I1998
sg47
V14863
p279
sbag1
(g2
g3
NtRp280
(dp281
g53
V10.1006/jmbi.2000.3903
p282
sg49
VJ MOL BIOL
p283
sg51
V300
p284
sg80
(lp285
(VEMANUELSSON
VO
tp286
asg59
I2000
sg47
V1005
p287
sbag1
(g2
g3
NtRp288
(dp289
g53
Nsg49
VGENOME RES
p290
sg51
V8
sg80
(lp291
(VEWING
VB
tp292
asg59
I1998
sg47
V175
p293
sbag1
(g2
g3
NtRp294
(dp295
g53
V10.1101/gr.9.10.950
p296
sg49
VGENOME RES
p297
sg51
V9
sg80
(lp298
(VEWING
VR M
tp299
asg59
I1999
sg47
V950
p300
sbag1
(g2
g3
NtRp301
(dp302
g53
V10.1023/A:1024033216561
p303
sg49
VPLANT CELL TISS ORG
p304
sg51
V74
p305
sg80
(lp306
(VFEHER
VA
tp307
asg59
I2003
sg47
VLANT
p308
sbag1
(g2
g3
NtRp309
(dp310
g53
Nsg49
VDOUBLED HAPLOID PROD
p311
sg51
Nsg80
(lp312
(VFERRIE
VA M R
tp313
asg59
I2003
sg47
V195
p314
sbag1
(g2
g3
NtRp315
(dp316
g53
Nsg49
VP155
p317
sg51
Nsg80
(lp318
(VFERRIE
VA M R
tp319
asg59
I1995
sg47
V155
p320
sbag1
(g2
g3
NtRp321
(dp322
g53
V10.1016/j.gene.2003.11.014
p323
sg49
VGENE
p324
sg51
V327
p325
sg80
(lp326
(VFIERS
VM
tp327
asg59
I2004
sg47
V37
p328
sbag1
(g2
g3
NtRp329
(dp330
g53
Nsg49
VPLANT CELL
p331
sg51
V14
p332
sg80
(lp333
(VFINKELSTEIN
VR R
tp334
asg59
I2002
sg47
VLANT
p335
sbag1
(g2
g3
NtRp336
(dp337
g53
V10.1007/s00425-005-0041-y
p338
sg49
VPLANTA
p339
sg51
V222
p340
sg80
(lp341
(VGAJ
VM D
tp342
asg59
I2005
sg47
VLANTA
p343
sbag1
(g2
g3
NtRp344
(dp345
g53
V10.1046/j.1365-313x.1998.00175.x
p346
sg49
VPLANT J
p347
sg51
V14
p348
sg80
(lp349
(VGALLIE
VD R
tp350
asg59
I1998
sg47
VLANT
p351
sbag1
(g2
g3
NtRp352
(dp353
g53
V10.1242/dev.00963
p354
sg49
VDEVELOPMENT
p355
sg51
V131
p356
sg80
(lp357
(VHAECKER
VA
tp358
asg59
I2004
sg47
V657
p359
sbag1
(g2
g3
NtRp360
(dp361
g53
V10.1104/pp.004051
p362
sg49
VPLANT PHYSIOL
p363
sg51
V129
p364
sg80
(lp365
(VHALL
VA E
tp366
asg59
I2002
sg47
VLANT
p367
sbag1
(g2
g3
NtRp368
(dp369
g53
V10.1007/BF00330851
p370
sg49
VMOL GEN GENET
p371
sg51
V212
p372
sg80
(lp373
(VHARADA
VJ J
tp374
asg59
I1988
sg47
V466
p375
sbag1
(g2
g3
NtRp376
(dp377
g53
Nsg49
VMOL GEN GENET
p378
sg51
V259
p379
sg80
(lp380
(VHATTORI
VJ
tp381
asg59
I1998
sg47
V424
p382
sbag1
(g2
g3
NtRp383
(dp384
g53
Nsg49
VBOT ACTA
p385
sg51
V107
p386
sg80
(lp387
(VHAUSE
VB
tp388
asg59
I1994
sg47
V407
p389
sbag1
(g2
g3
NtRp390
(dp391
g53
Nsg49
VBOT ACTA
p392
sg51
V111
p393
sg80
(lp394
(VHAUSE
VG
tp395
asg59
I1998
sg47
V204
p396
sbag1
(g2
g3
NtRp397
(dp398
g53
V10.1104/pp.127.3.803
p399
sg49
VPLANT PHYSIOL
p400
sg51
V127
p401
sg80
(lp402
(VHECHT
VV
tp403
asg59
I2001
sg47
VLANT
p404
sbag1
(g2
g3
NtRp405
(dp406
g53
V10.1016/S1567-133X(01)00002-3
p407
sg49
VGene Expression Patterns
p408
sg51
V1
sg80
(lp409
(VHELLEBRAND
VSUSANNE
tp410
asg59
I2001
sg47
V13
p411
sbag1
(g2
g3
NtRp412
(dp413
g53
V10.1016/0168-9452(92)90182-L
p414
sg49
VPLANT SCI
p415
sg51
V86
p416
sg80
(lp417
(VHOEKSTRA
VS
tp418
asg59
I1992
sg47
VLANT
p419
sbag1
(g2
g3
NtRp420
(dp421
g53
V10.1104/pp.103.020925
p422
sg49
VPLANT PHYSIOL
p423
sg51
V132
p424
sg80
(lp425
(VHONYS
VD
tp426
asg59
I2003
sg47
VLANT
p427
sbag1
(g2
g3
NtRp428
(dp429
g53
V10.1186/gb-2004-5-11-r85
p430
sg49
VGENOME BIOL
p431
sg51
V5
sg80
(lp432
(VHONYS
VD
tp433
asg59
I2004
sg47
Nsbag1
(g2
g3
NtRp434
(dp435
g53
V10.1007/s00425-005-1534-4
p436
sg49
VPLANTA
p437
sg51
V222
p438
sg80
(lp439
(VHU
VH
tp440
asg59
I2005
sg47
VLANTA
p441
sbag1
(g2
g3
NtRp442
(dp443
g53
V10.1111/j.1365-3040.1992.tb02155.x
p444
sg49
VPLANT CELL ENVIRON
p445
sg51
V15
p446
sg80
(lp447
(VHUGHES
VM A
tp448
asg59
I1992
sg47
VLANT
p449
sbag1
(g2
g3
NtRp450
(dp451
g53
V10.1093/jxb/erf006
p452
sg49
VJ EXP BOT
p453
sg51
V53
p454
sg80
(lp455
(VIKEDA-IWAI
VM
tp456
asg59
I2002
sg47
V1575
p457
sbag1
(g2
g3
NtRp458
(dp459
g53
V10.1006/anbo.1998.0661
p460
sg49
VANN BOT
p461
sg51
V82
p462
sg80
(lp463
(VILIC-GRUBOR
VK
tp464
asg59
I1998
sg47
V157
p465
sbag1
(g2
g3
NtRp466
(dp467
g53
V10.1007/s004250000375
p468
sg49
VPLANTA
p469
sg51
V212
p470
sg80
(lp471
(VINDRIANTO
VA
tp472
asg59
I2001
sg47
VLANTA
p473
sbag1
(g2
g3
NtRp474
(dp475
g53
V10.1105/tpc.12.9.1541
p476
sg49
VPLANT CELL
p477
sg51
V12
p478
sg80
(lp479
(VITO
VT
tp480
asg59
I2000
sg47
VLANT
p481
sbag1
(g2
g3
NtRp482
(dp483
g53
V10.1146/annurev.arplant.47.1.627
p484
sg49
VANNU REV PLANT PHYS
p485
sg51
V47
p486
sg80
(lp487
(VKADER
VJ C
tp488
asg59
I1996
sg47
V627
p489
sbag1
(g2
g3
NtRp490
(dp491
g53
V10.1093/pcp/pci048
p492
sg49
VPLANT CELL PHYSIOL
p493
sg51
V46
p494
sg80
(lp495
(VKAGAYA
VY
tp496
asg59
I2005
sg47
VLANT
p497
sbag1
(g2
g3
NtRp498
(dp499
g53
V10.1105/tpc.106.042713
p500
sg49
VPLANT CELL
p501
sg51
V18
p502
sg80
(lp503
(VKAPLAN
VB
tp504
asg59
I2006
sg47
VLANT
p505
sbag1
(g2
g3
NtRp506
(dp507
g53
Nsg49
VPLANT TISSUE CELL CU
p508
sg51
Nsg80
(lp509
(VKELLER
VW A
tp510
asg59
I1987
sg47
VLANT
p511
sbag1
(g2
g3
NtRp512
(dp513
g53
V10.1007/s00425-005-0114-y
p514
sg49
VPLANTA
p515
sg51
V223
p516
sg80
(lp517
(VKIKUCHI
VA
tp518
asg59
I2006
sg47
VLANTA
p519
sbag1
(g2
g3
NtRp520
(dp521
g53
V10.1016/S0981-9428(98)80093-4
p522
sg49
VPLANT PHYSIOL BIOCH
p523
sg51
V36
p524
sg80
(lp525
(VKOORNNEEF
VM
tp526
asg59
I1998
sg47
VLANT
p527
sbag1
(g2
g3
NtRp528
(dp529
g53
V10.1007/BF00043864
p530
sg49
VPLANT MOL BIOL
p531
sg51
V25
p532
sg80
(lp533
(VLARKIN
VJ C
tp534
asg59
I1994
sg47
VLANT
p535
sbag1
(g2
g3
NtRp536
(dp537
g53
V10.1104/pp.103.020511
p538
sg49
VPLANT PHYSIOL
p539
sg51
V132
p540
sg80
(lp541
(VLEE
VJ Y
tp542
asg59
I2003
sg47
VLANT
p543
sbag1
(g2
g3
NtRp544
(dp545
g53
V10.1006/meth.2001.1262
p546
sg49
VMETHODS
p547
sg51
V25
p548
sg80
(lp549
(VLIVAK
VK J
tp550
asg59
I2001
sg47
V402
p551
sbag1
(g2
g3
NtRp552
(dp553
g53
V10.1016/S0092-8674(00)81463-4
p554
sg49
VCELL
p555
sg51
V93
p556
sg80
(lp557
(VLOTAN
VT
tp558
asg59
I1998
sg47
V1195
p559
sbag1
(g2
g3
NtRp560
(dp561
g53
V10.1046/j.1365-313X.1998.00259.x
p562
sg49
VPlant Journal
p563
sg51
V15
p564
sg80
(lp565
(VLUERSSEN
VHARTMUT
tp566
asg59
I1998
sg47
Vlant
p567
sbag1
(g2
g3
NtRp568
(dp569
g53
V10.1093/jxb/erg098
p570
sg49
VJ EXP BOT
p571
sg51
V54
p572
sg80
(lp573
(VMARASCHIN
VS D
tp574
asg59
I2003
sg47
V1033
p575
sbag1
(g2
g3
NtRp576
(dp577
g53
V10.1093/jxb/eri190
p578
sg49
VJ EXP BOT
p579
sg51
V56
p580
sg80
(lp581
(VMARASCHIN
VS F
tp582
asg59
I2005
sg47
V1711
p583
sbag1
(g2
g3
NtRp584
(dp585
g53
Nsg49
VPLANT DEV BIOTECHNOL
p586
sg51
Nsg80
(lp587
(VMORDHORST
VA P
tp588
asg59
I2005
sg47
VLANT
p589
sbag1
(g2
g3
NtRp590
(dp591
g53
V10.1080/713608156
p592
sg49
VCRIT REV PLANT SCI
p593
sg51
V16
p594
sg80
(lp595
(VMORDHORST
VA P
tp596
asg59
I1997
sg47
V535
p597
sbag1
(g2
g3
NtRp598
(dp599
g53
Nsg49
VPLANT CELL
p600
sg51
V8
sg80
(lp601
(VNADEAU
VJ A
tp602
asg59
I1996
sg47
VLANT
p603
sbag1
(g2
g3
NtRp604
(dp605
g53
V10.1007/s11240-006-9141-z
p606
sg49
VPLANT CELL TISS ORG
p607
sg51
V86
p608
sg80
(lp609
(VNAMASIVAYAM
VP
tp610
asg59
I2006
sg47
VLANT
p611
sbag1
(g2
g3
NtRp612
(dp613
g53
V10.1104/pp.103.020917
p614
sg49
VPLANT PHYSIOL
p615
sg51
V133
p616
sg80
(lp617
(VNOLAN
VK E
tp618
asg59
I2003
sg47
VLANT
p619
sbag1
(g2
g3
NtRp620
(dp621
g53
V10.1023/A:1006101404867
p622
sg49
VPLANT MOL BIOL
p623
sg51
V39
p624
sg80
(lp625
(VNUCCIO
VM L
tp626
asg59
I1999
sg47
VLANT
p627
sbag1
(g2
g3
NtRp628
(dp629
g53
V10.1073/pnas.96.24.13839
p630
sg49
VP NATL ACAD SCI USA
p631
sg51
V96
p632
sg80
(lp633
(VOGAS
VJ
tp634
asg59
I1999
sg47
V13839
p635
sbag1
(g2
g3
NtRp636
(dp637
g53
V10.1046/j.1365-313X.2003.01687.x
p638
sg49
VPLANT J
p639
sg51
V33
p640
sg80
(lp641
(VOGIHARA
VY
tp642
asg59
I2003
sg47
VLANT
p643
sbag1
(g2
g3
NtRp644
(dp645
g53
Nsg49
VPLANT CELL
p646
sg51
V6
sg80
(lp647
(VPARCY
VF
tp648
asg59
I1994
sg47
VLANT
p649
sbag1
(g2
g3
NtRp650
(dp651
g53
V10.1139/B06-064
p652
sg49
VCAN J BOT
p653
sg51
V84
p654
sg80
(lp655
(VPAULS
VK P
tp656
asg59
I2006
sg47
V668
p657
sbag1
(g2
g3
NtRp658
(dp659
g53
V10.1111/j.1399-3054.1988.tb00646.x
p660
sg49
VPHYSIOL PLANTARUM
p661
sg51
V74
p662
sg80
(lp663
(VPECHAN
VP M
tp664
asg59
I1988
sg47
VHYSIOL
p665
sbag1
(g2
g3
NtRp666
(dp667
g53
V10.1104/pp.120.1.121
p668
sg49
VPLANT PHYSIOL
p669
sg51
V120
p670
sg80
(lp671
(VPERRY
VS E
tp672
asg59
I1999
sg47
VLANT
p673
sbag1
(g2
g3
NtRp674
(dp675
g53
V10.1093/bioinformatics/btg034
p676
sg49
VBIOINFORMATICS
p677
sg51
V19
p678
sg80
(lp679
(VPERTEA
VG
tp680
asg59
I2003
sg47
V651
p681
sbag1
(g2
g3
NtRp682
(dp683
g53
V10.1104/pp.104.057935
p684
sg49
VPLANT PHYSIOL
p685
sg51
V138
p686
sg80
(lp687
(VPINA
VC
tp688
asg59
I2005
sg47
VLANT
p689
sbag1
(g2
g3
NtRp690
(dp691
g53
V10.1111/j.1469-8137.1990.tb00494.x
p692
sg49
VNEW PHYTOL
p693
sg51
V115
p694
sg80
(lp695
(VPOLOWICK
VP L
tp696
asg59
I1990
sg47
V625
p697
sbag1
(g2
g3
NtRp698
(dp699
g53
V10.1007/s11240-006-9139-6
p700
sg49
VPLANT CELL TISS ORG
p701
sg51
V86
p702
sg80
(lp703
(VQUIROZ-FIGUEROA
VF R
tp704
asg59
I2006
sg47
VLANT
p705
sbag1
(g2
g3
NtRp706
(dp707
g53
Nsg49
VCURR SCI INDIA
p708
sg51
V90
p709
sg80
(lp710
(VRAGHAVAN
VV
tp711
asg59
I2006
sg47
V1336
p712
sbag1
(g2
g3
NtRp713
(dp714
g53
Nsg49
VJ Biomol Tech
p715
sg51
V14
p716
sg80
(lp717
(VREAGIN
VMICHAEL J
tp718
asg59
I2003
sg47
V143
p719
sbag1
(g2
g3
NtRp720
(dp721
g53
V10.1007/BF00020480
p722
sg49
VPLANT MOL BIOL
p723
sg51
V32
p724
sg80
(lp725
(VREYNOLDS
VT L
tp726
asg59
I1996
sg47
VLANT
p727
sbag1
(g2
g3
NtRp728
(dp729
g53
V10.1023/A:1005748614261
p730
sg49
VPLANT MOL BIOL
p731
sg51
V33
p732
sg80
(lp733
(VREYNOLDS
VT L
tp734
asg59
I1997
sg47
VLANT
p735
sbag1
(g2
g3
NtRp736
(dp737
g53
V10.1152/physiolgenomics.00096.2002
p738
sg49
VPHYSIOL GENOMICS
p739
sg51
V12
p740
sg80
(lp741
(VROMUALDI
VC
tp742
asg59
I2003
sg47
VHYSIOL
p743
sbag1
(g2
g3
NtRp744
(dp745
g53
V[10.1104/pp.013581, 10.1014/pp.013581]
p746
sg49
VPLANT PHYSIOL
p747
sg51
V131
p748
sg80
(lp749
(VRONNING
VC M
tp750
asg59
I2003
sg47
VLANT
p751
sbag1
(g2
g3
NtRp752
(dp753
g53
V10.1023/A:1006303702086
p754
sg49
VPLANT MOL BIOL
p755
sg51
V42
p756
sg80
(lp757
(VSABALA
VI
tp758
asg59
I2000
sg47
VLANT
p759
sbag1
(g2
g3
NtRp760
(dp761
g53
Nsg49
VDEVELOPMENT
p762
sg51
V124
p763
sg80
(lp764
(VSCHMIDT
VE D L
tp765
asg59
I1997
sg47
V2049
p766
sbag1
(g2
g3
NtRp767
(dp768
g53
V10.1046/j.1469-8137.2002.00350.x
p769
sg49
VNEW PHYTOL
p770
sg51
V154
p771
sg80
(lp772
(VSCHULZE
VD
tp773
asg59
I2002
sg47
V249
p774
sbag1
(g2
g3
NtRp775
(dp776
g53
Nsg49
VPLANT CELL PHYSIOL
p777
sg51
V39
p778
sg80
(lp779
(VSCHULZE
VD
tp780
asg59
I1998
sg47
VLANT
p781
sbag1
(g2
g3
NtRp782
(dp783
g53
V10.1016/S1047-8477(03)00067-4
p784
sg49
VJ STRUCT BIOL
p785
sg51
V142
p786
sg80
(lp787
(VSEGUI-SIMARRO
VJ M
tp788
asg59
I2003
sg47
V379
p789
sbag1
(g2
g3
NtRp790
(dp791
g53
V10.1007/s002990000290
p792
sg49
VPLANT CELL REP
p793
sg51
V20
p794
sg80
(lp795
(VSENGER
VS
tp796
asg59
I2001
sg47
VLANT
p797
sbag1
(g2
g3
NtRp798
(dp799
g53
V10.1111/j.1399-3054.2006.00675.x
p800
sg49
VPHYSIOL PLANTARUM
p801
sg51
V127
p802
sg80
(lp803
(VSHARIATPANAHI
VM E
tp804
asg59
I2006
sg47
VHYSIOL
p805
sbag1
(g2
g3
NtRp806
(dp807
g53
Nsg49
VPOLLEN BIOL LAB MANU
p808
sg51
Nsg80
(lp809
(VSHIVANNA
VK R
tp810
asg59
I1992
sg47
VOLLEN
p811
sbag1
(g2
g3
NtRp812
(dp813
g53
V10.1007/PL00000784
p814
sg49
VCELL MOL LIFE SCI
p815
sg51
V58
p816
sg80
(lp817
(VSHOWALTER
VA M
tp818
asg59
I2001
sg47
V1399
p819
sbag1
(g2
g3
NtRp820
(dp821
g53
V10.1007/s004250050573
p822
sg49
VPLANTA
p823
sg51
V208
p824
sg80
(lp825
(VSIMMONDS
VD H
tp826
asg59
I1999
sg47
VLANTA
p827
sbag1
(g2
g3
NtRp828
(dp829
g53
Nsg49
VIN VITRO HAPLOID PRO
p830
sg51
V1
sg80
(lp831
(VSOPORY
VS K
tp832
asg59
I1996
sg47
V145
p833
sbag1
(g2
g3
NtRp834
(dp835
g53
V10.1007/s00425-006-0358-1
p836
sg49
VPLANTA
p837
sg51
V225
p838
sg80
(lp839
(VSRINIVASAN
VC
tp840
asg59
I2007
sg47
VLANTA
p841
sbag1
(g2
g3
NtRp842
(dp843
g53
V10.1101/gr.GR-1325RR
p844
sg49
VGENOME RES
p845
sg51
V10
p846
sg80
(lp847
(VSTEKEL
VD J
tp848
asg59
I2000
sg47
V2055
p849
sbag1
(g2
g3
NtRp850
(dp851
g53
V10.1105/tpc.3.9.907
p852
sg49
VPLANT CELL
p853
sg51
V3
sg80
(lp854
(VSTERK
VP
tp855
asg59
I1991
sg47
VLANT
p856
sbag1
(g2
g3
NtRp857
(dp858
g53
Nsg49
VPOPTRONICS
p859
sg51
V2
sg80
(lp860
(VSTONE
VK E
tp861
asg59
I2001
sg47
VOPTRONICS
p862
sbag1
(g2
g3
NtRp863
(dp864
g53
V10.1093/jxb/erl027
p865
sg49
VJ EXP BOT
p866
sg51
V57
p867
sg80
(lp868
(VTANG
VX C
tp869
asg59
I2006
sg47
V2639
p870
sbag1
(g2
g3
NtRp871
(dp872
g53
V10.1007/BF01272758
p873
sg49
VPROTOPLASMA
p874
sg51
V185
p875
sg80
(lp876
(VTELMER
VC A
tp877
asg59
I1995
sg47
VROTOPLASMA
p878
sbag1
(g2
g3
NtRp879
(dp880
g53
V10.1006/jsbi.2000.4249
p881
sg49
VJ STRUCT BIOL
p882
sg51
V129
p883
sg80
(lp884
(VTESTILLANO
VP S
tp885
asg59
I2000
sg47
V223
p886
sbag1
(g2
g3
NtRp887
(dp888
g53
V10.1016/j.plaphy.2003.10.008
p889
sg49
VPLANT PHYSIOL BIOCH
p890
sg51
V42
p891
sg80
(lp892
(VTHOMAS
VC
tp893
asg59
I2004
sg47
VLANT
p894
sbag1
(g2
g3
NtRp895
(dp896
g53
V10.1105/tpc.105.039925
p897
sg49
VPLANT CELL
p898
sg51
V18
p899
sg80
(lp900
(VTO
VA
tp901
asg59
I2006
sg47
VLANT
p902
sbag1
(g2
g3
NtRp903
(dp904
g53
V10.1016/S0065-2296(01)35004-8
p905
sg49
VADV BOT RES
p906
sg51
V35
p907
sg80
(lp908
(VTOURAEV
VA
tp909
asg59
I2001
sg47
V53
p910
sbag1
(g2
g3
NtRp911
(dp912
g53
Nsg49
VPLANT CELL REP
p913
sg51
V15
p914
sg80
(lp915
(VTOURAEV
VA
tp916
asg59
I1996
sg47
VLANT
p917
sbag1
(g2
g3
NtRp918
(dp919
g53
V10.1016/S1360-1385(97)89951-7
p920
sg49
VTRENDS PLANT SCI
p921
sg51
V2
sg80
(lp922
(VTOURAEV
VA
tp923
asg59
I1997
sg47
V297
p924
sbag1
(g2
g3
NtRp925
(dp926
g53
V10.1007/BF02173100
p927
sg49
VSEX PLANT REPROD
p928
sg51
V9
sg80
(lp929
(VTOURAEV
VA
tp930
asg59
I1996
sg47
V209
p931
sbag1
(g2
g3
NtRp932
(dp933
g53
V10.1023/A:1005851801107
p934
sg49
VPLANT MOL BIOL
p935
sg51
V34
p936
sg80
(lp937
(VTREACY
VB K
tp938
asg59
I1997
sg47
VLANT
p939
sbag1
(g2
g3
NtRp940
(dp941
g53
V10.1007/s00425-006-0388-8
p942
sg49
VPLANTA
p943
sg51
V225
p944
sg80
(lp945
(VTSUWAMOTO
VR
tp946
asg59
I2007
sg47
VLANTA
p947
sbag1
(g2
g3
NtRp948
(dp949
g53
V10.1023/A:1006383724443
p950
sg49
VPLANT MOL BIOL
p951
sg51
V41
p952
sg80
(lp953
(VVRINTEN
VP L
tp954
asg59
I1999
sg47
VLANT
p955
sbag1
(g2
g3
NtRp956
(dp957
g53
V10.1105/tpc.8.5.783
p958
sg49
VPLANT CELL
p959
sg51
V8
sg80
(lp960
(VVROEMEN
VC W
tp961
asg59
I1996
sg47
VLANT
p962
sbag1
(g2
g3
NtRp963
(dp964
g53
V10.1007/BF02668374
p965
sg49
VPlant Molecular Biology Reporter
p966
sg51
V12
p967
sg80
(lp968
(VWANG
VC S
tp969
asg59
I1994
sg47
Vlant
p970
sbag1
(g2
g3
NtRp971
(dp972
g53
V10.1104/pp.124.2.523
p973
sg49
VPLANT PHYSIOL
p974
sg51
V124
p975
sg80
(lp976
(VWANG
VM
tp977
asg59
I2000
sg47
VLANT
p978
sbag1
(g2
g3
NtRp979
(dp980
g53
V10.1016/j.febslet.2005.02.024
p981
sg49
VFEBS LETT
p982
sg51
V579
p983
sg80
(lp984
(VWANG
VZ
tp985
asg59
I2005
sg47
V1683
p986
sbag1
(g2
g3
NtRp987
(dp988
g53
V10.1007/s00425-006-0283-3
p989
sg49
VPLANTA
p990
sg51
V224
p991
sg80
(lp992
(VYANG
VH P
tp993
asg59
I2006
sg47
VLANTA
p994
sbag1
(g2
g3
NtRp995
(dp996
g53
V10.1016/j.plaphy.2003.12.003
p997
sg49
VPLANT PHYSIOL BIOCH
p998
sg51
V42
p999
sg80
(lp1000
(VYAZAWA
VK
tp1001
asg59
I2004
sg47
VLANT
p1002
sbag1
(g2
g3
NtRp1003
(dp1004
g53
Nsg49
VIn vitro embryogenesis in plants
p1005
sg51
Nsg80
(lp1006
(VYEUNG
VE C
tp1007
asg59
I1995
sg47
V205
p1008
sbag1
(g2
g3
NtRp1009
(dp1010
g53
Nsg49
VSEX PLANT REPROD
p1011
sg51
V4
sg80
(lp1012
(VZAKI
VM A M
tp1013
asg59
I1991
sg47
V48
p1014
sbag1
(g2
g3
NtRp1015
(dp1016
g53
V10.1111/j.1365-313X.2004.02209.x
p1017
sg49
VPLANT J
p1018
sg51
V40
p1019
sg80
(lp1020
(VZHANG
VH N
tp1021
asg59
I2004
sg47
VLANT
p1022
sbag1
(g2
g3
NtRp1023
(dp1024
g53
V10.1007/BF00620060
p1025
sg49
VPLANTA
p1026
sg51
V198
p1027
sg80
(lp1028
(VZHAO
VJ P
tp1029
asg59
I1996
sg47
VLANTA
p1030
sbag1
(g2
g3
NtRp1031
(dp1032
g53
V10.1093/pcp/pcg162
p1033
sg49
VPLANT CELL PHYSIOL
p1034
sg51
V44
p1035
sg80
(lp1036
(VZHAO
VJ P
tp1037
asg59
I2003
sg47
VLANT
p1038
sbag1
(g2
g3
NtRp1039
(dp1040
g53
V10.2307/3869792
p1041
sg49
VPLANT CELL
p1042
sg51
V5
sg80
(lp1043
(VZIMMERMAN
VJ L
tp1044
asg59
I1993
sg47
VLANT
p1045
sbag1
(g2
g3
NtRp1046
(dp1047
g53
V10.1104/pp.104.046367
p1048
sg49
VPLANT PHYSIOL
p1049
sg51
V136
p1050
sg80
(lp1051
(VZIMMERMANN
VP
tp1052
asg59
I2004
sg47
VLANT
p1053
sbag1
(g2
g3
NtRp1054
(dp1055
g53
V10.1046/j.1365-313X.1999.00523.x
p1056
sg49
VPLANT J
p1057
sg51
V19
p1058
sg80
(lp1059
(VZONDLO
VS C
tp1060
asg59
I1999
sg47
VLANT
p1061
sbag1
(g2
g3
NtRp1062
(dp1063
g53
Nsg49
VPLANT PHYSIOL
p1064
sg51
V108
p1065
sg80
(lp1066
(VZOU
VJ T
tp1067
asg59
I1995
sg47
VLANT
p1068
sbag1
(g2
g3
NtRp1069
(dp1070
g53
V10.1046/j.1365-313X.2002.01289.x
p1071
sg49
VPLANT J
p1072
sg51
V30
p1073
sg80
(lp1074
(VZUO
VJ R
tp1075
asg59
I2002
sg47
VLANT
p1076
sbasb.