ccopy_reg
_reconstructor
p1
(ctethne.classes.paper
Paper
p2
c__builtin__
object
p3
NtRp4
(dp5
S'publisherCity'
p6
VROCKVILLE
p7
sS'reprintAddress'
p8
VChrispeels, MJ (reprint author), Nara Inst Sci & Technol, 8916-5 Takayama, Nara 6300101, Japan.
p9
sS'WC'
p10
VPlant Sciences
p11
sS'GA'
p12
V245XW
p13
sS'abstract'
p14
VThe cytotoxic drug tunicamycin kills cells because it is a specific inhibitor of UDP-N-acetylglucosamine:dolichol phosphate N-acetylglucosamine-1-P transferase (GPT), an enzyme that catalyzes the initial step of the biosynthesis of dolichol-linked oligosaccharides. In the presence of tunicamycin, asparagine-linked glycoproteins made in the endoplasmic reticulum are not glycosylated with N-linked glycans, and therefore may not fold correctly. Such proteins may be targeted for breakdown. Cells that are treated with tunicamycin normally experience an unfolded protein response and induce genes that encode endoplasmic reticulum chaperones such as the binding protein (BiP). We isolated a cDNA clone for Arabidopsis GPT and overexpressed it in Arabidopsis. The transgenic plants have a 10-fold higher level of GPT activity and are resistant to 1 mu g/mL tunicamycin, a concentration that kills control plants. Transgenic plants grown in the presence of tunicamycin have N-glycosylated proteins and the drug does not induce BiP mRNA levels as it does in control plants. BiP mRNA levels are highly induced in both control and CPT-expressing plants by azetidine-2-carboxylate. These observations suggest that excess GPT activity obviates the normal unfolded protein response that cells experience when exposed to tunicamycin.
p15
sS'pageEnd'
p16
I361
sS'publisherAddress'
p17
V15501 MONONA DRIVE, ROCKVILLE, MD 20855 USA
p18
sS'documentType'
p19
VArticle
p20
sS'subject'
p21
VPlant Sciences
p22
sS'isoSource'
p23
VPlant Physiol.
p24
sS'timesCited'
p25
(lp26
I41
aVZ9 42
p27
asS'PT'
p28
VJ
sS'title'
p29
VOverexpression Of A Gene That Encodes The First Enzyme In The Biosynthesis Of Asparagine-Linked Glycans Makes Plants Resistant To Tunicamycin And Obviates The Tunicamycin-Induced Unfolded Protein Response
p30
sS'ISSN'
p31
(lp32
V0032-0889
p33
aVJ9 PLANT PHYSIOL
p34
asS'authors_full'
p35
(lp36
(VKOIZUMI
VN
tp37
a(VUJINO
VT
tp38
a(VSANO
VH
tp39
a(VCHRISPEELS
VMJ
tp40
asS'PG'
p41
I9
sS'PD'
p42
VOCT
p43
sS'pageStart'
p44
I353
sS'issue'
p45
I2
sS'journal'
p46
VPLANT PHYSIOLOGY
p47
sS'volume'
p48
V121
p49
sS'doi'
p50
V10.1104/pp.121.2.353
p51
sS'authorAddress'
p52
(lp53
VNara Inst Sci & Technol, Nara 6300101, Japan.
p54
aVUniv Calif San Diego, Dept Biol, La Jolla, CA 92093 USA.
p55
asS'date'
p56
I1999
sS'ER'
p57
V
sS'publisher'
p58
VAMER SOC PLANT PHYSIOLOGISTS
p59
sS'authorKeywords'
p60
(lp61
VPHOSPHATE N-ACETYLGLUCOSAMINE-1-PHOSPHATE TRANSFERASE
p62
aVHAMSTER OVARY CELLS
p63
aVGLUCOSE-REGULATED PROTEINS
p64
aVLUMINAL BINDING-PROTEIN
p65
aVENDOPLASMIC-RETICULUM
p66
aVUDP-GLCNAC
p67
aVN-ACETYLGLUCOSAMINYLTRANSFERASE
p68
aVGLCNAC-1-PHOSPHATE TRANSFERASE
p69
aVSACCHAROMYCES-CEREVISIAE
p70
aVARABIDOPSIS-THALIANA
p71
asS'language'
p72
VEnglish
p73
sS'wosid'
p74
VWOS:000083134700005
p75
sS'citationCount'
p76
I49
sS'authors_init'
p77
(lp78
(VKOIZUMI
VN
tp79
a(VUJINO
VT
tp80
a(VSANO
VH
tp81
a(VCHRISPEELS
VM J
tp82
asS'citedReferences'
p83
(lp84
g1
(g2
g3
NtRp85
(dp86
g50
Nsg46
VCR ACAD SCI III
p87
sg48
V316
p88
sg77
(lp89
(VBECHTOLD
VN
tp90
asg56
I1993
sg44
V1194
p91
sbag1
(g2
g3
NtRp92
(dp93
g50
V10.1111/j.1399-3054.1985.tb02352.x
p94
sg46
VPHYSIOL PLANTARUM
p95
sg48
V65
p96
sg77
(lp97
(VBOLLINI
VR
tp98
asg56
I1985
sg44
VHYSIOL
p99
sbag1
(g2
g3
NtRp100
(dp101
g50
V10.1016/S0962-8924(97)01020-9
p102
sg46
VTRENDS CELL BIOL
p103
sg48
V7
sg77
(lp104
(VBRODSKY
VJ L
tp105
asg56
I1997
sg44
V151
p106
sbag1
(g2
g3
NtRp107
(dp108
g50
V10.1083/jcb.94.3.586
p109
sg46
VJ CELL BIOL
p110
sg48
V94
p111
sg77
(lp112
(VCRISCUOLO
VB A
tp113
asg56
I1982
sg44
V586
p114
sbag1
(g2
g3
NtRp115
(dp116
g50
Nsg46
VPLANT J
p117
sg48
V2
sg77
(lp118
(VDAMICO
VL
tp119
asg56
I1992
sg44
VLANT
p120
sbag1
(g2
g3
NtRp121
(dp122
g50
Nsg46
VPLANT CELL
p123
sg48
V7
sg77
(lp124
(VDENECKE
VJ
tp125
asg56
I1995
sg44
VLANT
p126
sbag1
(g2
g3
NtRp127
(dp128
g50
V10.1105/tpc.3.9.1025
p129
sg46
VPLANT CELL
p130
sg48
V3
sg77
(lp131
(VDENECKE
VJ
tp132
asg56
I1991
sg44
VLANT
p133
sbag1
(g2
g3
NtRp134
(dp135
g50
V10.1146/annurev.biochem.56.1.497
p136
sg46
VANNU REV BIOCHEM
p137
sg48
V56
p138
sg77
(lp139
(VELBEIN
VA D
tp140
asg56
I1987
sg44
V497
p141
sbag1
(g2
g3
NtRp142
(dp143
g50
V10.1146/annurev.pp.30.060179.001323
p144
sg46
VANNU REV PLANT PHYS
p145
sg48
V30
p146
sg77
(lp147
(VELBEIN
VA D
tp148
asg56
I1979
sg44
V239
p149
sbag1
(g2
g3
NtRp150
(dp151
g50
V10.1104/pp.89.3.845
p152
sg46
VPLANT PHYSIOL
p153
sg48
V89
p154
sg77
(lp155
(VFAYE
VL
tp156
asg56
I1989
sg44
VLANT
p157
sbag1
(g2
g3
NtRp158
(dp159
g50
Nsg46
VEMBO J
p160
sg48
V4
sg77
(lp161
(VFROMM
VH
tp162
asg56
I1985
sg44
V291
p163
sbag1
(g2
g3
NtRp164
(dp165
g50
V10.1016/0955-0674(95)80009-3
p166
sg46
VCURR OPIN CELL BIOL
p167
sg48
V7
sg77
(lp168
(VHAMMOND
VC
tp169
asg56
I1995
sg44
V523
p170
sbag1
(g2
g3
NtRp171
(dp172
g50
V10.1093/nar/15.8.3627
p173
sg46
VNUCLEIC ACIDS RES
p174
sg48
V15
p175
sg77
(lp176
(VHARTOG
VK O
tp177
asg56
I1987
sg44
V3627
p178
sbag1
(g2
g3
NtRp179
(dp180
g50
V10.1104/pp.67.5.882
p181
sg46
VPLANT PHYSIOL
p182
sg48
V67
p183
sg77
(lp184
(VHORI
VH
tp185
asg56
I1981
sg44
VLANT
p186
sbag1
(g2
g3
NtRp187
(dp188
g50
Nsg46
VJ BACTERIOL
p189
sg48
V173
p190
sg77
(lp191
(VIKEDA
VM
tp192
asg56
I1991
sg44
V1021
p193
sbag1
(g2
g3
NtRp194
(dp195
g50
Nsg46
VJ BIOL CHEM
p196
sg48
V260
p197
sg77
(lp198
(VKAUSHAL
VG P
tp199
asg56
I1985
sg44
V6303
p200
sbag1
(g2
g3
NtRp201
(dp202
g50
V10.1073/pnas.84.5.1253
p203
sg46
VP NATL ACAD SCI USA
p204
sg48
V84
p205
sg77
(lp206
(VKINK
VJ A
tp207
asg56
I1987
sg44
V1253
p208
sbag1
(g2
g3
NtRp209
(dp210
g50
Nsg46
VPLANT CELL PHYSIOL
p211
sg48
V37
p212
sg77
(lp213
(VKOIZUMI
VN
tp214
asg56
I1996
sg44
VLANT
p215
sbag1
(g2
g3
NtRp216
(dp217
g50
V10.1016/S0092-8674(00)81881-4
p218
sg46
VCELL
p219
sg48
V88
p220
sg77
(lp221
(VKOPITO
VR R
tp222
asg56
I1997
sg44
V427
p223
sbag1
(g2
g3
NtRp224
(dp225
g50
V10.1038/332462a0
p226
sg46
VNATURE
p227
sg48
V332
p228
sg77
(lp229
(VKOZUTSUMI
VY
tp230
asg56
I1988
sg44
V462
p231
sbag1
(g2
g3
NtRp232
(dp233
g50
V10.1146/annurev.bi.56.070187.004411
p234
sg46
VANNU REV BIOCHEM
p235
sg48
V56
p236
sg77
(lp237
(VKUKURUZINSKA
VM A
tp238
asg56
I1987
sg44
V915
p239
sbag1
(g2
g3
NtRp240
(dp241
g50
V10.1016/0167-4838(94)00201-Q
p242
sg46
VBBA
p243
sg48
V1247
p244
sg77
(lp245
(VKUKURUZINSKA
VM A
tp246
asg56
I1995
sg44
V51
p247
sbag1
(g2
g3
NtRp248
(dp249
g50
V10.1093/glycob/4.4.437
p250
sg46
VGLYCOBIOLOGY
p251
sg48
V4
sg77
(lp252
(VKUKURUZINSKA
VM A
tp253
asg56
I1994
sg44
V437
p254
sbag1
(g2
g3
NtRp255
(dp256
g50
V10.1016/0006-291X(74)90925-5
p257
sg46
VBIOCHEM BIOPH RES CO
p258
sg48
V58
p259
sg77
(lp260
(VKUO
VS C
tp261
asg56
I1974
sg44
V287
p262
sbag1
(g2
g3
NtRp263
(dp264
g50
V10.1016/0022-2836(82)90515-0
p265
sg46
VJ MOL BIOL
p266
sg48
V157
p267
sg77
(lp268
(VKYTE
VJ
tp269
asg56
I1982
sg44
V105
p270
sbag1
(g2
g3
NtRp271
(dp272
g50
V10.1104/pp.90.3.1182
p273
sg46
VPLANT PHYSIOL
p274
sg48
V90
p275
sg77
(lp276
(VLAURIERE
VM
tp277
asg56
I1989
sg44
VLANT
p278
sbag1
(g2
g3
NtRp279
(dp280
g50
Nsg46
VPLANT CELL
p281
sg48
V11
p282
sg77
(lp283
(VLEBORGNE-CASTEL
VN
tp284
asg56
I1999
sg44
VLANT
p285
sbag1
(g2
g3
NtRp286
(dp287
g50
V10.1093/glycob/1.6.553
p288
sg46
VGlycobiology
p289
sg48
V1
sg77
(lp290
(VLEHRMAN
VM A
tp291
asg56
I1991
sg44
V553
p292
sbag1
(g2
g3
NtRp293
(dp294
g50
Nsg46
VJ BIOL CHEM
p295
sg48
V263
p296
sg77
(lp297
(VLEHRMAN
VM A
tp298
asg56
I1988
sg44
V19796
p299
sbag1
(g2
g3
NtRp300
(dp301
g50
V10.1093/glycob/5.6.633
p302
sg46
VGLYCOBIOLOGY
p303
sg48
V5
sg77
(lp304
(VLENNON
VK
tp305
asg56
I1995
sg44
V633
p306
sbag1
(g2
g3
NtRp307
(dp308
g50
V10.1023/A:1006012005654
p309
sg46
VPLANT MOL BIOL
p310
sg48
V38
p311
sg77
(lp312
(VLEROUGE
VP
tp313
asg56
I1998
sg44
VLANT
p314
sbag1
(g2
g3
NtRp315
(dp316
g50
Nsg46
VMOL CELL BIOL
p317
sg48
V12
p318
sg77
(lp319
(VLIU
VX
tp320
asg56
I1992
sg44
V4112
p321
sbag1
(g2
g3
NtRp322
(dp323
g50
V10.1083/jcb.57.3.659
p324
sg46
VJ CELL BIOL
p325
sg48
V57
p326
sg77
(lp327
(VLORD
VJ M
tp328
asg56
I1973
sg44
V659
p329
sbag1
(g2
g3
NtRp330
(dp331
g50
V10.1006/bbrc.1994.2457
p332
sg46
VBIOCHEM BIOPH RES CO
p333
sg48
V204
p334
sg77
(lp335
(VMOTA
VO M
tp336
asg56
I1994
sg44
V284
p337
sbag1
(g2
g3
NtRp338
(dp339
g50
V10.1093/nar/8.19.4321
p340
sg46
VNUCLEIC ACIDS RES
p341
sg48
V8
sg77
(lp342
(VMURRAY
VM G
tp343
asg56
I1980
sg44
V4321
p344
sbag1
(g2
g3
NtRp345
(dp346
g50
V10.1016/S0962-8924(96)10050-7
p347
sg46
VTRENDS CELL BIOL
p348
sg48
V7
sg77
(lp349
(VPAHL
VH L
tp350
asg56
I1997
sg44
V50
p351
sbag1
(g2
g3
NtRp352
(dp353
g50
Nsg46
VPLANT PHYSIOL BIOCH
p354
sg48
V34
p355
sg77
(lp356
(VPEDRAZZINI
VE
tp357
asg56
I1996
sg44
VLANT
p358
sbag1
(g2
g3
NtRp359
(dp360
g50
V10.1006/excr.1995.1255
p361
sg46
VEXP CELL RES
p362
sg48
V219
p363
sg77
(lp364
(VPRETEL
VR
tp365
asg56
I1995
sg44
V477
p366
sbag1
(g2
g3
NtRp367
(dp368
g50
Nsg46
VJ BIOL CHEM
p369
sg48
V269
p370
sg77
(lp371
(VRAJPUT
VB
tp372
asg56
I1994
sg44
V9590
p373
sbag1
(g2
g3
NtRp374
(dp375
g50
Nsg46
VBIOCHEM J
p376
sg48
V285
p377
sg77
(lp378
(VRAJPUT
VB
tp379
asg56
I1992
sg44
V985
p380
sbag1
(g2
g3
NtRp381
(dp382
g50
Nsg46
VJ BIOL CHEM
p383
sg48
V269
p384
sg77
(lp385
(VRAJPUT
VB
tp386
asg56
I1994
sg44
V16054
p387
sbag1
(g2
g3
NtRp388
(dp389
g50
V10.1073/pnas.80.22.6750
p390
sg46
VP NATL ACAD SCI
p391
sg48
V80
p392
sg77
(lp393
(VRINE
VJ
tp394
asg56
I1983
sg44
V6750
p395
sbag1
(g2
g3
NtRp396
(dp397
g50
V10.1093/glycob/5.1.129
p398
sg46
VGLYCOBIOLOGY
p399
sg48
V5
sg77
(lp400
(VSCOCCA
VJ R
tp401
asg56
I1995
sg44
V129
p402
sbag1
(g2
g3
NtRp403
(dp404
g50
Nsg46
VJ BIOL CHEM
p405
sg48
V265
p406
sg77
(lp407
(VSCOCCA
VJ R
tp408
asg56
I1990
sg44
V20621
p409
sbag1
(g2
g3
NtRp410
(dp411
g50
V10.1016/S0962-8924(98)01267-7
p412
sg46
VTRENDS CELL BIOL
p413
sg48
V8
sg77
(lp414
(VSIDRAUSKI
VC
tp415
asg56
I1998
sg44
V245
p416
sbag1
(g2
g3
NtRp417
(dp418
g50
V10.1002/jcp.1041310303
p419
sg46
VJ CELL PHYSIOL
p420
sg48
V131
p421
sg77
(lp422
(VWALDMAN
VB C
tp423
asg56
I1987
sg44
V302
p424
sbag1
(g2
g3
NtRp425
(dp426
g50
V10.1111/j.1432-1033.1995.458_2.x
p427
sg46
VEUR J BIOCHEM
p428
sg48
V233
p429
sg77
(lp430
(VZENG
VY C
tp431
asg56
I1995
sg44
V458
p432
sbag1
(g2
g3
NtRp433
(dp434
g50
Nsg46
VJ BIOL CHEM
p435
sg48
V265
p436
sg77
(lp437
(VZHU
VX Y
tp438
asg56
I1990
sg44
V14250
p439
sbag1
(g2
g3
NtRp440
(dp441
g50
V10.1006/abbi.1995.1192
p442
sg46
VARCH BIOCHEM BIOPHYS
p443
sg48
V317
p444
sg77
(lp445
(VZOU
VJ
tp446
asg56
I1995
sg44
V487
p447
sbasb.