ccopy_reg
_reconstructor
p1
(ctethne.classes.paper
Paper
p2
c__builtin__
object
p3
NtRp4
(dp5
S'publisherCity'
p6
VROCKVILLE
p7
sS'reprintAddress'
p8
VGranier, C (reprint author), INRA SUPAGRO, UMR759, Lab Ecophysiol Plantes Stress Environnem, F-34060 Montpellier, France.
p9
sS'WC'
p10
VPlant Sciences
p11
sS'GA'
p12
V356XH
p13
sS'FX'
p14
(lp15
VThis work was supported by GENOPLANTE (grant no. GPLA 06014G to S. T.),
p16
aVan European Integrated Project in the 6th Framework Program (AGRON-OMICS
p17
aVgrant no. LSHG-CT-2006- 037704 to J. F.), as well as the PROCOPE and
p18
aVARABRAS (ERAPG-003-03) program (financial support and exchange visits
p19
aVbetween the Montpellier and Cologne groups).
p20
asS'abstract'
p21
VBoth leaf production and leaf expansion are tightly linked to cell expansion and cell division, but the functional relationships between all these variables are not clearly established. To get insight into these relationships, a quantitative genetic analysis was performed in 118 recombinant inbred lines derived from a cross between the Landsberg erecta and Antwerp accessions and was combined with a structural equation modeling approach. Main effects and epistatic interactions at the quantitative trait locus (QTL) level were detected for rosette area, rosette leaf number, leaf 6 area, epidermal cell area and number. A QTL at ERECTA marker (ER) controlled cell expansion and cell division, in interaction with two other QTLs at SNP295 and SNP21 markers. Moreover, both the screening for marker association involved in the variation of the relationships between leaf growth variables and the test of alternative functional models by structural equation modeling revealed that the allelic value at ER controlled epidermal cell area and epidermal cell number in a leaf. These effects are driven both by a whole plant mechanism associated with leaf production and by a single leaf mechanism associated with leaf expansion. The complex effects of the QTL at ER were validated in selected heterogeneous inbred families. The ERECTA gene, which is mutated in the Landsberg erecta parental line, was found to be a putative candidate responsible for these mapped effects by phenotyping mutants of this gene at the cellular level. Together, these results give insight into the complex determination of leaf epidermal cell number and area.
p22
sS'pageEnd'
p23
I1127
sS'date'
p24
I2008
sS'documentType'
p25
VArticle
p26
sS'subject'
p27
VPlant Sciences
p28
sS'isoSource'
p29
VPlant Physiol.
p30
sS'timesCited'
p31
(lp32
I36
aVZ9 37
p33
asS'funding'
p34
(lp35
(VGENOPLANTE
VGPLA 06014G
tp36
a(VAGRON-OMICS
VLSHG-CT-2006- 037704
tp37
a(VPROCOPE
Ntp38
a(VARABRAS
VERAPG-003-03
tp39
asS'PT'
p40
VJ
sS'title'
p41
VCombined Genetic And Modeling Approaches Reveal That Epidermal Cell Area And Number In Leaves Are Controlled By Leaf And Plant Developmental Processes In Arabidopsis
p42
sS'ISSN'
p43
(lp44
V0032-0889
p45
aVJ9 PLANT PHYSIOL
p46
asS'authors_full'
p47
(lp48
(VTISNE
VSEBASTIEN
tp49
a(VREYMOND
VMATTHIEU
tp50
a(VVILE
VDENIS
tp51
a(VFABRE
VJULIETTE
tp52
a(VDAUZAT
VMYRIAM
tp53
a(VKOORNNEEF
VMAARTEN
tp54
a(VGRANIER
VCHRISTINE
tp55
asS'PG'
p56
I11
sS'PD'
p57
VOCT
p58
sS'pageStart'
p59
I1117
sS'issue'
p60
I2
sS'RI'
p61
VVile, Denis/A-5637-2008; Christine, Granier/C-5226-2010
p62
sS'journal'
p63
VPLANT PHYSIOLOGY
p64
sS'volume'
p65
V148
p66
sS'doi'
p67
V10.1104/pp.108.124271
p68
sS'emailAddress'
p69
Vgranier@supagro.inra.fr
p70
sS'authorAddress'
p71
(lp72
V[Tisne, Sebastien; Vile, Denis; Fabre, Juliette; Dauzat, Myriam; Granier, Christine] INRA SUPAGRO, UMR759, Lab Ecophysiol Plantes Stress Environnem, F-34060 Montpellier, France.
p73
aV[Reymond, Matthieu; Koornneef, Maarten] Max Planck Inst Plant Breeding Res, D-50829 Cologne, Germany.
p74
aV[Koornneef, Maarten] Wageningen Univ, Genet Lab, NL-6703 BD Wageningen, Netherlands.
p75
asS'publisherAddress'
p76
V15501 MONONA DRIVE, ROCKVILLE, MD 20855 USA
p77
sS'ER'
p78
V
sS'publisher'
p79
VAMER SOC PLANT BIOLOGISTS
p80
sS'authorKeywords'
p81
(lp82
VQUANTITATIVE TRAIT LOCI
p83
aVSOIL-WATER DEFICIT
p84
aVORGAN SHAPE
p85
aVTHALIANA
p86
aVGROWTH
p87
aVEXPANSION
p88
aVERECTA
p89
aVKINASE
p90
aVDIVISION
p91
aVCYCLE
p92
asS'OI'
p93
VVile, Denis/0000-0002-7948-1462; 
p94
sS'language'
p95
VEnglish
p96
sS'wosid'
p97
VWOS:000259810400036
p98
sS'citationCount'
p99
I41
sS'authors_init'
p100
(lp101
(VTISNE
VS
tp102
a(VREYMOND
VM
tp103
a(VVILE
VD
tp104
a(VFABRE
VJ
tp105
a(VDAUZAT
VM
tp106
a(VKOORNNEEF
VM
tp107
a(VGRANIER
VC
tp108
asS'citedReferences'
p109
(lp110
g1
(g2
g3
NtRp111
(dp112
g67
V10.1111/j.1365-3040.2006.01595.x
p113
sg63
VPLANT CELL ENVIRON
p114
sg65
V29
p115
sg100
(lp116
(VAGUIRREZABAL
VL
tp117
asg24
I2006
sg59
VLANT
p118
sbag1
(g2
g3
NtRp119
(dp120
g67
V10.1046/j.1365-313X.1999.00577.x
p121
sg63
VPLANT J
p122
sg65
V20
p123
sg100
(lp124
(VSWARUP
VK
tp125
asg24
I1999
sg59
VLANT
p126
sbag1
(g2
g3
NtRp127
(dp128
g67
V10.1111/j.1469-8137.1948.tb05099.x
p129
sg63
VNEW PHYTOL
p130
sg65
V47
p131
sg100
(lp132
(VASHBY
VE
tp133
asg24
I1948
sg59
V177
p134
sbag1
(g2
g3
NtRp135
(dp136
g67
Nsg63
VGENETICS
p137
sg65
V152
p138
sg100
(lp139
(VBERNA
VG
tp140
asg24
I1999
sg59
V729
p141
sbag1
(g2
g3
NtRp142
(dp143
g67
V10.1105/tpc.13.7.1499
p144
sg63
VPLANT CELL
p145
sg65
V13
p146
sg100
(lp147
(VBOYES
VD C
tp148
asg24
I2001
sg59
VLANT
p149
sbag1
(g2
g3
NtRp150
(dp151
g67
V10.1007/s001220050471
p152
sg63
VTHEOR APPL GENET
p153
sg65
V94
p154
sg100
(lp155
(VCHASE
VK
tp156
asg24
I1997
sg59
V724
p157
sbag1
(g2
g3
NtRp158
(dp159
g67
V10.1038/35014621
p160
sg63
VNATURE
p161
sg65
V405
p162
sg100
(lp163
(VCOCKCROFT
VC E
tp164
asg24
I2000
sg59
V575
p165
sbag1
(g2
g3
NtRp166
(dp167
g67
V10.1093/aob/mcm005
p168
sg63
VANN BOT
p169
sg65
V99
p170
sg100
(lp171
(VCOOKSON
VS J
tp172
asg24
I2007
sg59
V703
p173
sbag1
(g2
g3
NtRp174
(dp175
g67
V10.1093/aob/mcj047
p176
sg63
VANN BOT
p177
sg65
V97
p178
sg100
(lp179
(VCOOKSON
VS J
tp180
asg24
I2006
sg59
V443
p181
sbag1
(g2
g3
NtRp182
(dp183
g67
V10.1111/j.1365-3040.2005.01368.x
p184
sg63
VPLANT CELL ENVIRON
p185
sg65
V28
p186
sg100
(lp187
(VCOOKSON
VS J
tp188
asg24
I2005
sg59
VLANT
p189
sbag1
(g2
g3
NtRp190
(dp191
g67
V10.2307/1311861
p192
sg63
VBIOSCIENCE
p193
sg65
V42
p194
sg100
(lp195
(VDALE
VJ E
tp196
asg24
I1992
sg59
V423
p197
sbag1
(g2
g3
NtRp198
(dp199
g67
V10.1105/tpc.13.7.1653
p200
sg63
VPLANT CELL
p201
sg65
V13
p202
sg100
(lp203
(VDE
VVEYLDER L
tp204
asg24
I2001
sg59
VLANT
p205
sbag1
(g2
g3
NtRp206
(dp207
g67
V10.1105/tpc.004838
p208
sg63
VPLANT CELL
p209
sg65
V15
p210
sg100
(lp211
(VDEWITTE
VW
tp212
asg24
I2003
sg59
VLANT
p213
sbag1
(g2
g3
NtRp214
(dp215
g67
V10.1534/genetics.105.050617
p216
sg63
VGENETICS
p217
sg65
V172
p218
sg100
(lp219
(VEL-LITHY
VM E
tp220
asg24
I2006
sg59
V1867
p221
sbag1
(g2
g3
NtRp222
(dp223
g67
V10.1104/PP.107.099325
p224
sg63
VPLANT PHYSIOL
p225
sg65
V144
p226
sg100
(lp227
(VFERJANI
VA
tp228
asg24
I2007
sg59
VLANT
p229
sbag1
(g2
g3
NtRp230
(dp231
g67
V10.1002/9780470988923.ch9
p232
sg63
VCELL CYCLE CONTROL P
p233
sg65
Nsg100
(lp234
(VFLEMING
VA
tp235
asg24
I2007
sg59
V203
p236
sbag1
(g2
g3
NtRp237
(dp238
g67
V10.1207/s15328007sem1303_7
p239
sg63
VSTRUCT EQU MODELING
p240
sg65
V13
p241
sg100
(lp242
(VFOX
VJ
tp243
asg24
I2006
sg59
V465
p244
sbag1
(g2
g3
NtRp245
(dp246
g67
V10.1111/j.1469-8137.1992.tb00048.x
p247
sg63
VNEW PHYTOL
p248
sg65
V122
p249
sg100
(lp250
(VFRANCIS
VD
tp251
asg24
I1992
sg59
V1
sbag1
(g2
g3
NtRp252
(dp253
g67
V10.1046/j.1365-313X.2003.01877.x
p254
sg63
VPLANT J
p255
sg65
V36
p256
sg100
(lp257
(VGODIARD
VL
tp258
asg24
I2003
sg59
VLANT
p259
sbag1
(g2
g3
NtRp260
(dp261
g67
Nsg63
VJ PLANT GROWTH REGUL
p262
sg65
V19
p263
sg100
(lp264
(VGRANIER
VC
tp265
asg24
I2000
sg59
V45
p266
sbag1
(g2
g3
NtRp267
(dp268
g67
V10.1104/pp.116.3.991
p269
sg63
VPLANT PHYSIOL
p270
sg65
V116
p271
sg100
(lp272
(VGRANIER
VC
tp273
asg24
I1998
sg59
VLANT
p274
sbag1
(g2
g3
NtRp275
(dp276
g67
V10.1111/j.1469-8137.2005.01609.x
p277
sg63
VNEW PHYTOL
p278
sg65
V169
p279
sg100
(lp280
(VGRANIER
VC
tp281
asg24
I2006
sg59
V623
p282
sbag1
(g2
g3
NtRp283
(dp284
g67
V10.1086/336858
p285
sg63
VBOT GAZ
p286
sg65
V137
p287
sg100
(lp288
(VGREEN
VP B
tp289
asg24
I1976
sg59
V187
p290
sbag1
(g2
g3
NtRp291
(dp292
g67
Nsg63
VEMBO J
p293
sg65
V14
p294
sg100
(lp295
(VHEMERLY
VA
tp296
asg24
I1995
sg59
V3925
p297
sbag1
(g2
g3
NtRp298
(dp299
g67
Nsg63
VCALIF AES C
p300
sg65
V347
p301
sg100
(lp302
(VHOAGLAND
VD R
tp303
asg24
I1950
sg59
V1
sbag1
(g2
g3
NtRp304
(dp305
g67
Nsg63
VGENETICS
p306
sg65
V156
p307
sg100
(lp308
(VJUENGER
VT
tp309
asg24
I2000
sg59
V1379
p310
sbag1
(g2
g3
NtRp311
(dp312
g67
V10.1038/nature03835
p313
sg63
VNATURE
p314
sg65
V436
p315
sg100
(lp316
(VMASLE
VJ
tp317
asg24
I2005
sg59
V866
p318
sbag1
(g2
g3
NtRp319
(dp320
g67
Nsg63
VGENETICS
p321
sg65
V162
p322
sg100
(lp323
(VPEREZ-PEREZ
VJ M
tp324
asg24
I2002
sg59
V893
p325
sbag1
(g2
g3
NtRp326
(dp327
g67
Nsg63
VSTRUCTURAL EQUATION
p328
sg65
Nsg100
(lp329
(VPUGESEK
VB H
tp330
asg24
I2003
sg59
Nsbag1
(g2
g3
NtRp331
(dp332
g67
Nsg63
VR LANG ENV STAT COMP
p333
sg65
Nsg100
(lp334
(VR
VDEVELOPMENT CORE TEAM
tp335
asg24
I2007
sg59
Nsbag1
(g2
g3
NtRp336
(dp337
g67
Nsg63
VZ VEREBUNGSL
p338
sg65
V93
p339
sg100
(lp340
(VREDEI
VG P
tp341
asg24
I1962
sg59
V164
p342
sbag1
(g2
g3
NtRp343
(dp344
g67
Nsg63
VCAUSE CORRELATION BI
p345
sg65
Nsg100
(lp346
(VSHIPLEY
VB
tp347
asg24
I2000
sg59
Nsbag1
(g2
g3
NtRp348
(dp349
g67
V10.1242/dev.01028
p350
sg63
VDEVELOPMENT
p351
sg65
V131
p352
sg100
(lp353
(VSHPAK
VE D
tp354
asg24
I2004
sg59
V1491
p355
sbag1
(g2
g3
NtRp356
(dp357
g67
V10.1126/science.1109710
p358
sg63
VSCIENCE
p359
sg65
V309
p360
sg100
(lp361
(VSHPAK
VE D
tp362
asg24
I2005
sg59
V290
p363
sbag1
(g2
g3
NtRp364
(dp365
g67
V10.1105/tpc.010413
p366
sg63
VPLANT CELL
p367
sg65
V15
p368
sg100
(lp369
(VSHPAK
VE D
tp370
asg24
I2003
sg59
VLANT
p371
sbag1
(g2
g3
NtRp372
(dp373
g67
V10.1104/pp.105.063263
p374
sg63
VPLANT PHYSIOL
p375
sg65
V139
p376
sg100
(lp377
(VTER
VSTEEGE M W
tp378
asg24
I2005
sg59
VLANT
p379
sbag1
(g2
g3
NtRp380
(dp381
g67
V10.1105/tpc.8.4.735
p382
sg63
VPLANT CELL
p383
sg65
V8
sg100
(lp384
(VTORII
VK U
tp385
asg24
I1996
sg59
VLANT
p386
sbag1
(g2
g3
NtRp387
(dp388
g67
V10.1016/S1369-5266(02)00005-5
p389
sg63
VCURR OPIN PLANT BIOL
p390
sg65
V6
sg100
(lp391
(VTSUKAYA
VH
tp392
asg24
I2003
sg59
V57
p393
sbag1
(g2
g3
NtRp394
(dp395
g67
V10.1146/annurev.arplant.57.032905.105320
p396
sg63
VANNU REV PLANT BIOL
p397
sg65
V57
p398
sg100
(lp399
(VTSUKAYA
VH
tp400
asg24
I2006
sg59
V477
p401
sbag1
(g2
g3
NtRp402
(dp403
g67
Nsg63
VMAPQTL 5 SOFTWARE MA
p404
sg65
Nsg100
(lp405
(VVAN
VOOIJEN J W
tp406
asg24
I2004
sg59
Nsbag1
(g2
g3
NtRp407
(dp408
g67
V10.1093/jxb/17.3.440
p409
sg63
VJ EXP BOT
p410
sg65
V17
p411
sg100
(lp412
(VWILSON
VG L
tp413
asg24
I1966
sg59
V440
p414
sbasb.