ccopy_reg
_reconstructor
p1
(ctethne.classes.paper
Paper
p2
c__builtin__
object
p3
NtRp4
(dp5
S'publisherCity'
p6
VROCKVILLE
p7
sS'reprintAddress'
p8
VReichheld, JP (reprint author), Univ Perpignan, Lab Genome & Dev Plantes, UMR 5096, Natl Rech Sci, F-66860 Perpignan, France.
p9
sS'WC'
p10
VPlant Sciences
p11
sS'GA'
p12
V805IQ
p13
sS'abstract'
p14
VThe AtTRXh5 protein belongs to the cytosolic thioredoxins h family that, in Arabidopsis, contains eight members showing very distinct patterns and levels of expression. Here, we show that the AtTRXh5 gene is up-regulated during wounding, abscission, and senescence, as well as during incompatible interactions with the bacterial pathogen Pseudomonas syringae. By electrophoretic mobility shift assays, a binding activity on a W-box in the AtTRXh5 promoter region was found induced by treatments with the P. syringae-derived elicitor peptide flg22, suggesting that a WRKY transcription factor controls AtTRXh5 induction upon elicitor treatment. Remarkably, AtTRXh5 was up-regulated in plants overexpressing WRKY6. More generally, AtTRXh5 is induced in response to oxidative stress conditions. Collectively, our data indicate a possible implication of the cytosolic thioredoxin AtTRXh5 in response to pathogens and to oxidative stresses. In addition, this regulation is unique to AtTRXh5 among the thioredoxin h family, arguing in favor of a speciation rather than to a redundancy of the members of this multigenic family.
p15
sS'pageEnd'
p16
I1016
sS'publisherAddress'
p17
V15501 MONONA DRIVE, ROCKVILLE, MD 20855 USA
p18
sS'documentType'
p19
VArticle
p20
sS'subject'
p21
VPlant Sciences
p22
sS'isoSource'
p23
VPlant Physiol.
p24
sS'timesCited'
p25
(lp26
I94
aVZ9 109
p27
asS'PT'
p28
VJ
sS'title'
p29
VThe Arabidopsis Cytosolic Thioredoxin H5 Gene Induction By Oxidative Stress And Its W-Box-Mediated Response To Pathogen Elicitor
p30
sS'ISSN'
p31
(lp32
V0032-0889
p33
aVJ9 PLANT PHYSIOL
p34
asS'authors_full'
p35
(lp36
(VLALOI
VC
tp37
a(VMESTRESORTEGA
VD
tp38
a(VMARCO
VY
tp39
a(VMEYER
VY
tp40
a(VREICHHELD
VJP
tp41
asS'PG'
p42
I11
sS'PD'
p43
VMAR
p44
sS'pageStart'
p45
I1006
sS'issue'
p46
I3
sS'journal'
p47
VPLANT PHYSIOLOGY
p48
sS'volume'
p49
V134
p50
sS'doi'
p51
V10.1104/pp.103.035782
p52
sS'emailAddress'
p53
Vjpr@univ-perp.fr
p54
sS'authorAddress'
p55
(lp56
VUniv Perpignan, Lab Genome & Dev Plantes, UMR 5096, Natl Rech Sci, F-66860 Perpignan, France.
p57
aVINRA, CNRS, Lab Biol Mol Relat Plantes Microorganismes, Castanet Tolosan, France.
p58
asS'date'
p59
I2004
sS'ER'
p60
V
sS'publisher'
p61
VAMER SOC PLANT BIOLOGISTS
p62
sS'authorKeywords'
p63
(lp64
VINDUCED ANTIOXIDANT DEFENSE
p65
aVSYSTEMIC ACQUIRED-RESISTANCE
p66
aVPROGRAMMED CELL-DEATH
p67
aVABSCISIC-ACID
p68
aVMAIZE SEEDLINGS
p69
aVLEAF SENESCENCE
p70
aVSALICYLIC-ACID
p71
aVHIGH OSMOTICUM
p72
aVCHLAMYDOMONAS-REINHARDTII
p73
aV2-CYSTEINE PEROXIREDOXIN
p74
asS'language'
p75
VEnglish
p76
sS'wosid'
p77
VWOS:000220360400015
p78
sS'citationCount'
p79
I77
sS'authors_init'
p80
(lp81
(VLALOI
VC
tp82
a(VMESTRESORTEGA
VD
tp83
a(VMARCO
VY
tp84
a(VMEYER
VY
tp85
a(VREICHHELD
VJ P
tp86
asS'citedReferences'
p87
(lp88
g1
(g2
g3
NtRp89
(dp90
g51
V10.1104/pp.126.1.97
p91
sg47
VPLANT PHYSIOL
p92
sg49
V126
p93
sg80
(lp94
(VALLAN
VA C
tp95
asg59
I2001
sg45
VLANT
p96
sbag1
(g2
g3
NtRp97
(dp98
g51
V10.1074/jbc.M102390200
p99
sg47
VJ BIOL CHEM
p100
sg49
V276
p101
sg80
(lp102
(VBAUER
VZ
tp103
asg59
I2001
sg45
V45669
p104
sbag1
(g2
g3
NtRp105
(dp106
g51
V10.1080/10715760000301071
p107
sg47
VFREE RADICAL RES
p108
sg49
V33
p109
sg80
(lp110
(VBELLAIRE
VB A
tp111
asg59
I2000
sg45
V531
p112
sbag1
(g2
g3
NtRp113
(dp114
g51
V10.1073/pnas.93.8.3169
p115
sg47
VP NATL ACAD SCI USA
p116
sg49
V93
p117
sg80
(lp118
(VBESSE
VI
tp119
asg59
I1996
sg45
V3169
p120
sbag1
(g2
g3
NtRp121
(dp122
g51
V10.1016/0003-2697(87)90489-1
p123
sg47
VANAL BIOCHEM
p124
sg49
V161
p125
sg80
(lp126
(VBEYER
VW F
tp127
asg59
I1987
sg45
V559
p128
sbag1
(g2
g3
NtRp129
(dp130
g51
V10.1104/pp.103.021626
p131
sg47
VPLANT PHYSIOL
p132
sg49
V132
p133
sg80
(lp134
(VBROIN
VM
tp135
asg59
I2003
sg45
VLANT
p136
sbag1
(g2
g3
NtRp137
(dp138
g51
V10.1105/tpc.001644
p139
sg47
VPLANT CELL
p140
sg49
V14
p141
sg80
(lp142
(VBROIN
VM
tp143
asg59
I2002
sg45
VLANT
p144
sbag1
(g2
g3
NtRp145
(dp146
g51
Nsg47
VMOL GEN GENET
p147
sg49
V238
p148
sg80
(lp149
(VBRUGIDOU
VC
tp150
asg59
I1993
sg45
V285
p151
sbag1
(g2
g3
NtRp152
(dp153
g51
V10.1016/S0168-9452(98)00154-X
p154
sg47
VPLANT SCI
p155
sg49
V138
p156
sg80
(lp157
(VBUENO
VP
tp158
asg59
I1998
sg45
VLANT
p159
sbag1
(g2
g3
NtRp160
(dp161
g51
V10.1146/annurev.micro.54.1.439
p162
sg47
VANNU REV MICROBIOL
p163
sg49
V54
p164
sg80
(lp165
(VCARMEL-HAREL
VO
tp166
asg59
I2000
sg45
V439
p167
sbag1
(g2
g3
NtRp168
(dp169
g51
V10.1016/S0014-5793(98)01208-3
p170
sg47
VFEBS LETT
p171
sg49
V437
p172
sg80
(lp173
(VDANON
VA
tp174
asg59
I1998
sg45
V131
p175
sbag1
(g2
g3
NtRp176
(dp177
g51
V10.1105/tpc.012849
p178
sg47
VPLANT CELL
p179
sg49
V15
p180
sg80
(lp181
(VDESPRES
VC
tp182
asg59
I2003
sg45
VLANT
p183
sbag1
(g2
g3
NtRp184
(dp185
g51
V10.1146/annurev.arplant.54.031902.134934
p186
sg47
VANNU REV PLANT BIOL
p187
sg49
V54
p188
sg80
(lp189
(VDIETZ
VK J
tp190
asg59
I2003
sg45
V93
p191
sbag1
(g2
g3
NtRp192
(dp193
g51
V10.1105/tpc.3.1.61
p194
sg47
VPLANT CELL
p195
sg49
V3
sg80
(lp196
(VDONG
VX N
tp197
asg59
I1991
sg45
VLANT
p198
sbag1
(g2
g3
NtRp199
(dp200
g51
V10.1016/S1360-1385(00)01600-9
p201
sg47
VTRENDS PLANT SCI
p202
sg49
V5
sg80
(lp203
(VEULGEM
VT
tp204
asg59
I2000
sg45
V199
p205
sbag1
(g2
g3
NtRp206
(dp207
g51
V10.1046/j.1365-313X.1999.00265.x
p208
sg47
VPLANT J
p209
sg49
V18
p210
sg80
(lp211
(VFELIX
VG
tp212
asg59
I1999
sg45
VLANT
p213
sbag1
(g2
g3
NtRp214
(dp215
g51
Nsg47
VMETHOD ENZYMOL
p216
sg49
V105
p217
sg80
(lp218
(VFLOHE
VL
tp219
asg59
I1984
sg45
V93
p220
sbag1
(g2
g3
NtRp221
(dp222
g51
V10.1126/science.270.5244.1986
p223
sg47
VSCIENCE
p224
sg49
V270
p225
sg80
(lp226
(VGAN
VS S
tp227
asg59
I1995
sg45
V1986
p228
sbag1
(g2
g3
NtRp229
(dp230
g51
V10.1104/pp.009886
p231
sg47
VPLANT PHYSIOL
p232
sg49
V130
p233
sg80
(lp234
(VGARRETON
VV
tp235
asg59
I2002
sg45
VLANT
p236
sbag1
(g2
g3
NtRp237
(dp238
g51
V10.1016/S1097-2765(00)80265-8
p239
sg47
VMOL CELL
p240
sg49
V5
sg80
(lp241
(VGOMEZ-GOMEZ
VL
tp242
asg59
I2000
sg45
V1003
p243
sbag1
(g2
g3
NtRp244
(dp245
g51
V10.1016/S1360-1385(02)02261-6
p246
sg47
VTRENDS PLANT SCI
p247
sg49
V7
sg80
(lp248
(VGOMEZ-GOMEZ
VL
tp249
asg59
I2002
sg45
V251
p250
sbag1
(g2
g3
NtRp251
(dp252
g51
V10.1104/pp.117.1.217
p253
sg47
VPLANT PHYSIOL
p254
sg49
V117
p255
sg80
(lp256
(VGUAN
VL Q
tp257
asg59
I1998
sg45
VLANT
p258
sbag1
(g2
g3
NtRp259
(dp260
g51
V10.1034/j.1399-3054.1998.1040317.x
p261
sg47
VPHYSIOL PLANTARUM
p262
sg49
V104
p263
sg80
(lp264
(VGUAN
VL Q
tp265
asg59
I1998
sg45
VHYSIOL
p266
sbag1
(g2
g3
NtRp267
(dp268
g51
V10.1046/j.1365-313x.2000.00723.x
p269
sg47
VPLANT J
p270
sg49
V22
p271
sg80
(lp272
(VGUAN
VL Q M
tp273
asg59
I2000
sg45
VLANT
p274
sbag1
(g2
g3
NtRp275
(dp276
g51
Nsg47
VMethods Mol Biol
p277
sg49
V49
p278
sg80
(lp279
(VHULL
VG A
tp280
asg59
I1995
sg45
V125
p281
sbag1
(g2
g3
NtRp282
(dp283
g51
Nsg47
VPLANTA
p284
sg49
V195
p285
sg80
(lp286
(VISHIWATARI
VY
tp287
asg59
I1995
sg45
VLANTA
p288
sbag1
(g2
g3
NtRp289
(dp290
g51
V10.1046/j.0960-7412.2000.00943.x
p291
sg47
VPLANT J
p292
sg49
V25
p293
sg80
(lp294
(VISSAKIDIS-BOURGUET
VE
tp295
asg59
I2001
sg45
VLANT
p296
sbag1
(g2
g3
NtRp297
(dp298
g51
V10.1046/j.1365-3040.2003.01025.x
p299
sg47
VPLANT CELL ENVIRON
p300
sg49
V26
p301
sg80
(lp302
(VJIANG
VM
tp303
asg59
I2003
sg45
VLANT
p304
sbag1
(g2
g3
NtRp305
(dp306
g51
V10.1093/pcp/pce162
p307
sg47
VPLANT CELL PHYSIOL
p308
sg49
V42
p309
sg80
(lp310
(VJIANG
VM Y
tp311
asg59
I2001
sg45
VLANT
p312
sbag1
(g2
g3
NtRp313
(dp314
g51
V10.1007/s00425-002-0829-y
p315
sg47
VPLANTA
p316
sg49
V215
p317
sg80
(lp318
(VJIANG
VM Y
tp319
asg59
I2002
sg45
VLANTA
p320
sbag1
(g2
g3
NtRp321
(dp322
g51
V10.1080/1071576021000006563
p323
sg47
VFREE RADICAL RES
p324
sg49
V36
p325
sg80
(lp326
(VJIANG
VM Y
tp327
asg59
I2002
sg45
V1001
p328
sbag1
(g2
g3
NtRp329
(dp330
g51
V10.1104/pp.99.3.919
p331
sg47
VPLANT PHYSIOL
p332
sg49
V99
p333
sg80
(lp334
(VKOBREHEL
VK
tp335
asg59
I1992
sg45
VLANT
p336
sbag1
(g2
g3
NtRp337
(dp338
g51
V10.1073/pnas.072644999
p339
sg47
VP NATL ACAD SCI USA
p340
sg49
V99
p341
sg80
(lp342
(VKONIG
VJ
tp343
asg59
I2002
sg45
V5738
p344
sbag1
(g2
g3
NtRp345
(dp346
g51
V10.1046/j.1365-313X.1996.09020195.x
p347
sg47
VPLANT J
p348
sg49
V9
sg80
(lp349
(VLAGARDE
VD
tp350
asg59
I1996
sg45
VLANT
p351
sbag1
(g2
g3
NtRp352
(dp353
g51
V10.1073/pnas.241340898
p354
sg47
VP NATL ACAD SCI USA
p355
sg49
V98
p356
sg80
(lp357
(VLALOI
VC
tp358
asg59
I2001
sg45
V14144
p359
sbag1
(g2
g3
NtRp360
(dp361
g51
Nsg47
VJ BIOL CHEM
p362
sg49
V239
p363
sg80
(lp364
(VLAURENT
VT C
tp365
asg59
I1964
sg45
V3436
p366
sbag1
(g2
g3
NtRp367
(dp368
g51
V10.1104/pp.120.3.773
p369
sg47
VPLANT PHYSIOL
p370
sg49
V120
p371
sg80
(lp372
(VLEMAIRE
VS
tp373
asg59
I1999
sg45
VLANT
p374
sbag1
(g2
g3
NtRp375
(dp376
g51
V10.1016/S0014-5793(03)00416-2
p377
sg47
VFEBS LETT
p378
sg49
V543
p379
sg80
(lp380
(VLEMAIRE
VS D
tp381
asg59
I2003
sg45
V87
p382
sbag1
(g2
g3
NtRp383
(dp384
g51
V10.1186/gb-2003-4-3-r20
p385
sg47
VGENOME BIOL
p386
sg49
V4
sg80
(lp387
(VMAHALINGAM
VR
tp388
asg59
I2003
sg45
Nsbag1
(g2
g3
NtRp389
(dp390
g51
V10.1038/82521
p391
sg47
VNAT GENET
p392
sg49
V26
p393
sg80
(lp394
(VMALECK
VK
tp395
asg59
I2000
sg45
V403
p396
sbag1
(g2
g3
NtRp397
(dp398
g51
V10.1046/j.1365-313X.1993.04020265.x
p399
sg47
VPLANT J
p400
sg49
V4
sg80
(lp401
(VMARTY
VI
tp402
asg59
I1993
sg45
VLANT
p403
sbag1
(g2
g3
NtRp404
(dp405
g51
V10.1007/s00425-002-0857-7
p406
sg47
VPLANTA
p407
sg49
V216
p408
sg80
(lp409
(VMARX
VC
tp410
asg59
I2003
sg45
VLANTA
p411
sbag1
(g2
g3
NtRp412
(dp413
g51
V10.1074/jbc.M207570200
p414
sg47
VJ BIOL CHEM
p415
sg49
V277
p416
sg80
(lp417
(VMENGES
VM
tp418
asg59
I2002
sg45
V41987
p419
sbag1
(g2
g3
NtRp420
(dp421
g51
V10.1016/S0378-1119(99)00448-5
p422
sg47
VGENE
p423
sg49
V240
p424
sg80
(lp425
(VMESTRES-ORTEGA
VD
tp426
asg59
I1999
sg45
V307
p427
sbag1
(g2
g3
NtRp428
(dp429
g51
Nsg47
VMETHOD ENZYMOL
p430
sg49
V347
p431
sg80
(lp432
(VMEYER
VY
tp433
asg59
I2002
sg45
V394
p434
sbag1
(g2
g3
NtRp435
(dp436
g51
V10.1016/S0092-8674(03)00429-X
p437
sg47
VCELL
p438
sg49
V113
p439
sg80
(lp440
(VMOU
VZ
tp441
asg59
I2003
sg45
V935
p442
sbag1
(g2
g3
NtRp443
(dp444
g51
V10.1073/pnas.95.6.3312
p445
sg47
VP NATL ACAD SCI USA
p446
sg49
V95
p447
sg80
(lp448
(VMOUAHEB
VN
tp449
asg59
I1998
sg45
V3312
p450
sbag1
(g2
g3
NtRp451
(dp452
g51
V10.1105/tpc.13.11.2513
p453
sg47
VPLANT CELL
p454
sg49
V13
p455
sg80
(lp456
(VMURATA
VY
tp457
asg59
I2001
sg45
VLANT
p458
sbag1
(g2
g3
NtRp459
(dp460
g51
V10.1105/tpc.010376
p461
sg47
VPLANT CELL
p462
sg49
V14
p463
sg80
(lp464
(VNAWRATH
VC
tp465
asg59
I2002
sg45
VLANT
p466
sbag1
(g2
g3
NtRp467
(dp468
g51
V10.1023/A:1006342412688
p469
sg47
VPLANT MOL BIOL
p470
sg49
V41
p471
sg80
(lp472
(VNOH
VY S
tp473
asg59
I1999
sg45
VLANT
p474
sbag1
(g2
g3
NtRp475
(dp476
g51
V10.1016/S0891-5849(01)00724-9
p477
sg47
VFREE RADICAL BIO MED
p478
sg49
V31
p479
sg80
(lp480
(VNORDBERG
VJ
tp481
asg59
I2001
sg45
V1287
p482
sbag1
(g2
g3
NtRp483
(dp484
g51
V10.1038/35021067
p485
sg47
VNATURE
p486
sg49
V406
p487
sg80
(lp488
(VPEI
VZ M
tp489
asg59
I2000
sg45
V731
p490
sbag1
(g2
g3
NtRp491
(dp492
g51
V10.1046/j.1365-313X.2003.01715.x
p493
sg47
VPlant Journal
p494
sg49
V34
p495
sg80
(lp496
(VPNUELI
VLILACH
tp497
asg59
I2003
sg45
Vlant
p498
sbag1
(g2
g3
NtRp499
(dp500
g51
Nsg47
VPLANT J
p501
sg49
V5
sg80
(lp502
(VPONTIER
VD
tp503
asg59
I1994
sg45
VLANT
p504
sbag1
(g2
g3
NtRp505
(dp506
g51
V10.1016/S0891-5849(00)00313-0
p507
sg47
VFREE RADICAL BIO MED
p508
sg49
V29
p509
sg80
(lp510
(VPOWIS
VG
tp511
asg59
I2000
sg45
V312
p512
sbag1
(g2
g3
NtRp513
(dp514
g51
V10.1046/j.1365-313X.1999.00413.x
p515
sg47
VPLANT J
p516
sg49
V17
p517
sg80
(lp518
(VREICHHELD
VJ P
tp519
asg59
I1999
sg45
VLANT
p520
sbag1
(g2
g3
NtRp521
(dp522
g51
V10.1016/S0981-9428(02)01406-7
p523
sg47
VPLANT PHYSIOL BIOCH
p524
sg49
V40
p525
sg80
(lp526
(VREICHHELD
VJ P
tp527
asg59
I2002
sg45
VLANT
p528
sbag1
(g2
g3
NtRp529
(dp530
g51
V10.1101/gad.222702
p531
sg47
VGENE DEV
p532
sg49
V16
p533
sg80
(lp534
(VROBATZEK
VS
tp535
asg59
I2002
sg45
V1139
p536
sbag1
(g2
g3
NtRp537
(dp538
g51
V10.1046/j.1365-313X.2001.01131.x
p539
sg47
VPLANT J
p540
sg49
V28
p541
sg80
(lp542
(VROBATZEK
VS
tp543
asg59
I2001
sg45
VLANT
p544
sbag1
(g2
g3
NtRp545
(dp546
g51
V10.1016/S1360-1385(99)01391-6
p547
sg47
VTRENDS PLANT SCI
p548
sg49
V4
sg80
(lp549
(VRUELLAND
VE
tp550
asg59
I1999
sg45
V136
p551
sbag1
(g2
g3
NtRp552
(dp553
g51
Nsg47
VEMBO J
p554
sg49
V17
p555
sg80
(lp556
(VSAITOH
VM
tp557
asg59
I1998
sg45
V1596
p558
sbag1
(g2
g3
NtRp559
(dp560
g51
V10.1007/s004250050396
p561
sg47
VPLANTA
p562
sg49
V206
p563
sg80
(lp564
(VSCHOBERT
VC
tp565
asg59
I1998
sg45
VLANTA
p566
sbag1
(g2
g3
NtRp567
(dp568
g51
V10.1093/jexbot/53.372.1351
p569
sg47
VJ EXP BOT
p570
sg49
V53
p571
sg80
(lp572
(VSCHUTZENDUBEL
VA
tp573
asg59
I2002
sg45
V1351
p574
sbag1
(g2
g3
NtRp575
(dp576
g51
V10.1023/A:1010697331184
p577
sg47
VPLANT MOL BIOL
p578
sg49
V46
p579
sg80
(lp580
(VSERRATO
VA J
tp581
asg59
I2001
sg45
VLANT
p582
sbag1
(g2
g3
NtRp583
(dp584
g51
V10.1007/s00425-003-1009-4
p585
sg47
VPLANTA
p586
sg49
V217
p587
sg80
(lp588
(VSERRATO
VA J
tp589
asg59
I2003
sg45
VLANTA
p590
sbag1
(g2
g3
NtRp591
(dp592
g51
V10.1023/A:1005797104536
p593
sg47
VPLANT MOL BIOL
p594
sg49
V33
p595
sg80
(lp596
(VSHEN
VW H
tp597
asg59
I1997
sg45
VLANT
p598
sbag1
(g2
g3
NtRp599
(dp600
g51
V10.1007/BF02524266
p601
sg47
VPROTOPLASMA
p602
sg49
V214
p603
sg80
(lp604
(VSIMEONOVA
VE
tp605
asg59
I2000
sg45
VROTOPLASMA
p606
sbag1
(g2
g3
NtRp607
(dp608
g51
V10.1105/tpc.007591
p609
sg47
VPLANT CELL
p610
sg49
V15
p611
sg80
(lp612
(VTAO
VY
tp613
asg59
I2003
sg45
VLANT
p614
sbag1
(g2
g3
NtRp615
(dp616
g51
Nsg47
VNATURE
p617
sg49
V408
p618
sg80
(lp619
(VKAUL
VS
tp620
asg59
I2000
sg45
V796
p621
sbag1
(g2
g3
NtRp622
(dp623
g51
Nsg47
VJ BIOL CHEM
p624
sg49
V257
p625
sg80
(lp626
(VTHOR
VH
tp627
asg59
I1982
sg45
V2419
p628
sbag1
(g2
g3
NtRp629
(dp630
g51
V10.1074/jbc.274.28.19714
p631
sg47
VJ BIOL CHEM
p632
sg49
V274
p633
sg80
(lp634
(VVERDOUCQ
VL
tp635
asg59
I1999
sg45
V19714
p636
sbag1
(g2
g3
NtRp637
(dp638
g51
V10.1023/A:1005934428906
p639
sg47
VPLANT MOL BIOL
p640
sg49
V37
p641
sg80
(lp642
(VWEAVER
VL M
tp643
asg59
I1998
sg45
VLANT
p644
sbag1
(g2
g3
NtRp645
(dp646
g51
V10.1046/j.1365-313X.2003.01625.x
p647
sg47
VPLANT J
p648
sg49
V33
p649
sg80
(lp650
(VWHITHAM
VS A
tp651
asg59
I2003
sg45
VLANT
p652
sbag1
(g2
g3
NtRp653
(dp654
g51
V10.1073/pnas.212641999
p655
sg47
VP NATL ACAD SCI USA
p656
sg49
V99
p657
sg80
(lp658
(VWONG
VJ H
tp659
asg59
I2002
sg45
V16325
p660
sbag1
(g2
g3
NtRp661
(dp662
g51
Nsg47
VPLANTA
p663
sg49
V193
p664
sg80
(lp665
(VYALPANI
VN
tp666
asg59
I1994
sg45
VLANTA
p667
sbag1
(g2
g3
NtRp668
(dp669
g51
Nsg47
VPLANT CELL PHYSIOL
p670
sg49
V39
p671
sg80
(lp672
(VYEN
VC H
tp673
asg59
I1998
sg45
VLANT
p674
sbag1
(g2
g3
NtRp675
(dp676
g51
V10.1104/pp.126.4.1438
p677
sg47
VPLANT PHYSIOL
p678
sg49
V126
p679
sg80
(lp680
(VZHANG
VX
tp681
asg59
I2001
sg45
VLANT
p682
sbasb.