ccopy_reg
_reconstructor
p1
(ctethne.classes.paper
Paper
p2
c__builtin__
object
p3
NtRp4
(dp5
S'publisherCity'
p6
VROCKVILLE
p7
sS'reprintAddress'
p8
VSchranz, ME (reprint author), Univ Amsterdam, Inst Biodivers & Ecosyst Dynam, POB 94062, NL-1090 GB Amsterdam, Netherlands.
p9
sS'WC'
p10
VPlant Sciences
p11
sS'GA'
p12
V166DA
p13
sS'abstract'
p14
VThe angiosperm family Brassicaceae contains both the research model Arabidopsis ( Arabidopsis thaliana) and the agricultural genus Brassica. Comparative genomics in the Brassicaceae has largely focused on direct comparisons between Arabidopsis and the species of interest. However, the reduced genome size and chromosome number (n = 5) of Arabidopsis complicates comparisons. Arabidopsis shows extensive genome and chromosome reshuffling compared to its close relatives Arabidopsis lyrata and Capsella rubella, both with n = 8. To facilitate comparative genomics across the Brassicaceae we recently outlined a system of 24 conserved chromosomal blocks based on their positions in an ancestral karyotype of n 5 8, rather than by their position in Arabidopsis. In this report we use this system as a tool to understand genome structure and evolution in Boechera stricta (n = 7). B. stricta is a diploid, sexual, and highly self-fertilizing species occurring in mostly montane regions of western North America. We have created an F(2) genetic map of B. stricta based on 192 individuals scored at 196 microsatellite and candidate gene loci. Single-nucleotide polymorphism genotyping of 94 of the loci was done simultaneously using an Illumina bead array. The total map length is 725.8 cM, with an average marker spacing of 3.9 cM. There are no gaps greater than 19.3 cM. The chromosomal reduction from n 5 8 to n 5 7 and other genomic changes in B. stricta likely involved a pericentric inversion, a chromosomal fusion, and two reciprocal translocations that are easily visualized using the genomic blocks. Our genetic map will facilitate the analysis of ecologically relevant quantitative variation in Boechera.
p15
sS'pageEnd'
p16
I298
sS'date'
p17
I2007
sS'documentType'
p18
VArticle
p19
sS'subject'
p20
VPlant Sciences
p21
sS'isoSource'
p22
VPlant Physiol.
p23
sS'timesCited'
p24
(lp25
I36
aVZ9 38
p26
asS'PT'
p27
VJ
sS'title'
p28
VComparative Genetic Mapping In Boechera Stricta, A Close Relative Of Arabidopsis
p29
sS'ISSN'
p30
(lp31
V0032-0889
p32
aVJ9 PLANT PHYSIOL
p33
asS'authors_full'
p34
(lp35
(VSCHRANZ
VM ERIC
tp36
a(VWINDSOR
VAARON J
tp37
a(VSONG
VBAOHUA
tp38
a(VLAWTONRAUH
VAMY
tp39
a(VMITCHELLOLDS
VTHOMAS
tp40
asS'PG'
p41
I13
sS'PD'
p42
VMAY
p43
sS'pageStart'
p44
I286
sS'issue'
p45
I1
sS'RI'
p46
VMitchell-Olds, Thomas/K-8121-2012
p47
sS'journal'
p48
VPLANT PHYSIOLOGY
p49
sS'volume'
p50
V144
p51
sS'doi'
p52
V10.1104/pp.107.096685
p53
sS'emailAddress'
p54
Vschranz@science.uva.nl
p55
sS'authorAddress'
p56
(lp57
VClemson Univ, Dept Biochem & Genet, Clemson, SC 29634 USA.
p58
aVDuke Univ, Dept Biol, Durham, NC 27708 USA.
p59
asS'publisherAddress'
p60
V15501 MONONA DRIVE, ROCKVILLE, MD 20855 USA
p61
sS'ER'
p62
V
sS'publisher'
p63
VAMER SOC PLANT BIOLOGISTS
p64
sS'authorKeywords'
p65
(lp66
VARABIS-DRUMMONDII
p67
aVHOLBOELLII BRASSICACEAE
p68
aVCOMPARATIVE GENOMICS
p69
aVCAPSELLA-RUBELLA
p70
aVRAPID EVOLUTION
p71
aVPLANT-PATHOGEN
p72
aVLINKAGE MAPS
p73
aVA-THALIANA
p74
aVCHROMOSOME
p75
aVMARKERS
p76
asS'language'
p77
VEnglish
p78
sS'wosid'
p79
VWOS:000246356300024
p80
sS'citationCount'
p81
I74
sS'authors_init'
p82
(lp83
(VSCHRANZ
VM E
tp84
a(VWINDSOR
VA J
tp85
a(VSONG
VB H
tp86
a(VLAWTONRAUH
VA
tp87
a(VMITCHELLOLDS
VT
tp88
asS'citedReferences'
p89
(lp90
g1
(g2
g3
NtRp91
(dp92
g52
Nsg48
VSPUTNIK
p93
sg50
Nsg82
(lp94
(VABAJIAN
VC
tp95
asg17
I1994
sg44
Nsbag1
(g2
g3
NtRp96
(dp97
g52
V10.2307/3393366
p98
sg48
VNOVON
p99
sg50
V13
p100
sg82
(lp101
(VAL-SHEHBAZ
VI A
tp102
asg17
I2003
sg44
V381
p103
sbag1
(g2
g3
NtRp104
(dp105
g52
V10.1007/s00606-006-0415-z
p106
sg48
VPLANT SYST EVOL
p107
sg50
V259
p108
sg82
(lp109
(VAL-SHEHBAZ
VI A
tp110
asg17
I2006
sg44
VLANT
p111
sbag1
(g2
g3
NtRp112
(dp113
g52
V10.1006/jmbi.1990.9999
p114
sg48
VJ MOL BIOL
p115
sg50
V215
p116
sg82
(lp117
(VALTSCHUL
VS F
tp118
asg17
I1990
sg44
V403
p119
sbag1
(g2
g3
NtRp120
(dp121
g52
Nsg48
VJ CELL SCI
p122
sg50
V114
p123
sg82
(lp124
(VARMSTRONG
VS J
tp125
asg17
I2001
sg44
V4207
p126
sbag1
(g2
g3
NtRp127
(dp128
g52
V10.1093/molbev/msl087
p129
sg48
VMOL BIOL EVOL
p130
sg50
V23
p131
sg82
(lp132
(VBAILEY
VC D
tp133
asg17
I2006
sg44
V2142
p134
sbag1
(g2
g3
NtRp135
(dp136
g52
V10.3732/ajb.93.4.607
p137
sg48
VAM J BOT
p138
sg50
V93
p139
sg82
(lp140
(VBEILSTEIN
VM A
tp141
asg17
I2006
sg44
V607
p142
sbag1
(g2
g3
NtRp143
(dp144
g52
V10.1073/pnas.0601738103
p145
sg48
VP NATL ACAD SCI USA
p146
sg50
V103
p147
sg82
(lp148
(VBENDEROTH
VM
tp149
asg17
I2006
sg44
V9118
p150
sbag1
(g2
g3
NtRp151
(dp152
g52
V10.1111/j.1365-313X.2006.02912.x
p153
sg48
VPLANT J
p154
sg50
V48
p155
sg82
(lp156
(VBERR
VA
tp157
asg17
I2006
sg44
VLANT
p158
sbag1
(g2
g3
NtRp159
(dp160
g52
V10.1073/pnas.97.10.5322
p161
sg48
VP NATL ACAD SCI USA
p162
sg50
V97
p163
sg82
(lp164
(VBISHOP
VJ G
tp165
asg17
I2000
sg44
V5322
p166
sbag1
(g2
g3
NtRp167
(dp168
g52
Nsg48
VK DANSKE VIDENSK SELSKAB BIOL SKRIFT
p169
sg50
V6
sg82
(lp170
(VBOCHER
VTYGE W
tp171
asg17
I1951
sg44
V1
sbag1
(g2
g3
NtRp172
(dp173
g52
V10.1104/pp.104.040030
p174
sg48
VPLANT PHYSIOL
p175
sg50
V135
p176
sg82
(lp177
(VBOIVIN
VK
tp178
asg17
I2004
sg44
VLANT
p179
sbag1
(g2
g3
NtRp180
(dp181
g52
V10.1139/G05-114
p182
sg48
VGENOME
p183
sg50
V49
p184
sg82
(lp185
(VBRATTELER
VM
tp186
asg17
I2006
sg44
V320
p187
sbag1
(g2
g3
NtRp188
(dp189
g52
V10.1046/j.0962-1083.2002.01465.x
p190
sg48
VMOL ECOL
p191
sg50
V11
p192
sg82
(lp193
(VCLAUSS
VM J
tp194
asg17
I2002
sg44
V591
p195
sbag1
(g2
g3
NtRp196
(dp197
g52
V10.1016/j.pbi.2005.01.005
p198
sg48
VCURR OPIN PLANT BIOL
p199
sg50
V8
sg82
(lp200
(VDEVOS
VK M
tp201
asg17
I2005
sg44
V155
p202
sbag1
(g2
g3
NtRp203
(dp204
g52
V10.3732/ajb.91.12.2087
p205
sg48
VAM J BOT
p206
sg50
V91
p207
sg82
(lp208
(VDOBES
VC
tp209
asg17
I2004
sg44
V2087
p210
sbag1
(g2
g3
NtRp211
(dp212
g52
V10.1046/j.1365-294X.2003.02064.x
p213
sg48
VMOL ECOL
p214
sg50
V13
p215
sg82
(lp216
(VDOBES
VC H
tp217
asg17
I2004
sg44
V349
p218
sbag1
(g2
g3
NtRp219
(dp220
g52
Nsg48
VIN PRESS SYSTEM BIOD
p221
sg50
Nsg82
(lp222
(VDOBES
VC H
tp223
asg17
I2007
sg44
Nsbag1
(g2
g3
NtRp224
(dp225
g52
Nsg48
VGENOME RES
p226
sg50
V8
sg82
(lp227
(VEWING
VB
tp228
asg17
I1998
sg44
V175
p229
sbag1
(g2
g3
NtRp230
(dp231
g52
Nsg48
VGENOME RES
p232
sg50
V8
sg82
(lp233
(VEWING
VB
tp234
asg17
I1998
sg44
V186
p235
sbag1
(g2
g3
NtRp236
(dp237
g52
V10.1007/s10577-005-0997-2
p238
sg48
VCHROMOSOME RES
p239
sg50
V13
p240
sg82
(lp241
(VFAJKUS
VJ
tp242
asg17
I2005
sg44
V469
p243
sbag1
(g2
g3
NtRp244
(dp245
g52
V10.1093/bioinformatics/bti134
p246
sg48
VBIOINFORMATICS
p247
sg50
V21
p248
sg82
(lp249
(VGADBERRY
VM D
tp250
asg17
I2005
sg44
V1263
p251
sbag1
(g2
g3
NtRp252
(dp253
g52
Nsg48
VCURRENT PROTOCOLS BI
p254
sg50
Nsg82
(lp255
(VGORDON
VD
tp256
asg17
I2004
sg44
V111211
p257
sbag1
(g2
g3
NtRp258
(dp259
g52
V10.1016/j.pbi.2004.01.008
p260
sg48
VCURR OPIN PLANT BIOL
p261
sg50
V7
sg82
(lp262
(VHALL
VA E
tp263
asg17
I2004
sg44
V108
p264
sbag1
(g2
g3
NtRp265
(dp266
g52
V10.1534/genetics.104.038653
p267
sg48
VGENETICS
p268
sg50
V170
p269
sg82
(lp270
(VHALL
VM C
tp271
asg17
I2005
sg44
V375
p272
sbag1
(g2
g3
NtRp273
(dp274
g52
V10.1038/nature04226
p275
sg48
VNATURE
p276
sg50
V437
p277
sg82
(lp278
(VALTSHULER
VD
tp279
asg17
I2005
sg44
V1299
p280
sbag1
(g2
g3
NtRp281
(dp282
g52
V10.1016/j.tig.2004.04.012
p283
sg48
VTRENDS GENET
p284
sg50
V20
p285
sg82
(lp286
(VILIC
VK
tp287
asg17
I2004
sg44
V280
p288
sbag1
(g2
g3
NtRp289
(dp290
g52
V10.1007/s001220050466
p291
sg48
VTHEOR APPL GENET
p292
sg50
V94
p293
sg82
(lp294
(VJENCZEWSKI
VE
tp295
asg17
I1997
sg44
V682
p296
sbag1
(g2
g3
NtRp297
(dp298
g52
V10.1093/aob/mci016
p299
sg48
VANN BOT
p300
sg50
V95
p301
sg82
(lp302
(VJOHNSTON
VJ S
tp303
asg17
I2005
sg44
V229
p304
sbag1
(g2
g3
NtRp305
(dp306
g52
V10.1007/s11258-005-9070-7
p307
sg48
VPLANT ECOL
p308
sg50
V184
p309
sg82
(lp310
(VJONES
VT
tp311
asg17
I2006
sg44
VLANT
p312
sbag1
(g2
g3
NtRp313
(dp314
g52
Nsg48
VTHESIS WAGENINGEN U
p315
sg50
Nsg82
(lp316
(VKANTAMA
VL
tp317
asg17
I2005
sg44
Nsbag1
(g2
g3
NtRp318
(dp319
g52
V10.1534/genetics.106.057182
p320
sg48
VGENETICS
p321
sg50
V173
p322
sg82
(lp323
(VKAWABE
VA
tp324
asg17
I2006
sg44
V1613
p325
sbag1
(g2
g3
NtRp326
(dp327
g52
V10.1534/genetics.106.060152
p328
sg48
VGENETICS
p329
sg50
V174
p330
sg82
(lp331
(VKIM
VJ S
tp332
asg17
I2006
sg44
V29
p333
sbag1
(g2
g3
NtRp334
(dp335
g52
V10.1111/j.1365-294X.2006.02818.x
p336
sg48
VMOL ECOL
p337
sg50
V15
p338
sg82
(lp339
(VKNIGHT
VC A
tp340
asg17
I2006
sg44
V1229
p341
sbag1
(g2
g3
NtRp342
(dp343
g52
V10.2307/3298580
p344
sg48
VANN MO BOT GARD
p345
sg50
V90
p346
sg82
(lp347
(VKOCH
VM
tp348
asg17
I2003
sg44
V151
p349
sbag1
(g2
g3
NtRp350
(dp351
g52
V10.3732/ajb.92.4.761
p352
sg48
VAM J BOT
p353
sg50
V92
p354
sg82
(lp355
(VKOCH
VM A
tp356
asg17
I2005
sg44
V761
p357
sbag1
(g2
g3
NtRp358
(dp359
g52
V10.1093/molnev/msl130
p360
sg48
VMOL BIOL EVOL
p361
sg50
V24
p362
sg82
(lp363
(VKOCH
VM A
tp364
asg17
I2007
sg44
V63
p365
sbag1
(g2
g3
NtRp366
(dp367
g52
V10.1534/genetics.103.022343
p368
sg48
VGENETICS
p369
sg50
V168
p370
sg82
(lp371
(VKUITTINEN
VH
tp372
asg17
I2004
sg44
V1575
p373
sbag1
(g2
g3
NtRp374
(dp375
g52
Nsg48
VGENETICS
p376
sg50
V150
p377
sg82
(lp378
(VLAGERCRANTZ
VU
tp379
asg17
I1998
sg44
V1217
p380
sbag1
(g2
g3
NtRp381
(dp382
g52
V10.1101/gr.3531105
p383
sg48
VGENOME RES
p384
sg50
V15
p385
sg82
(lp386
(VLYSAK
VM A
tp387
asg17
I2005
sg44
V516
p388
sbag1
(g2
g3
NtRp389
(dp390
g52
V10.1073/pnas.0510791103
p391
sg48
VP NATL ACAD SCI USA
p392
sg50
V103
p393
sg82
(lp394
(VLYSAK
VM A
tp395
asg17
I2006
sg44
V5224
p396
sbag1
(g2
g3
NtRp397
(dp398
g52
V10.1007/s00606-006-0418-9
p399
sg48
VPLANT SYST EVOL
p400
sg50
V259
p401
sg82
(lp402
(VLYSAK
VM A
tp403
asg17
I2006
sg44
VLANT
p404
sbag1
(g2
g3
NtRp405
(dp406
g52
V10.1007/s00606-006-0417-x
p407
sg48
VPLANT SYST EVOL
p408
sg50
V259
p409
sg82
(lp410
(VMARHOLD
VK
tp411
asg17
I2006
sg44
VLANT
p412
sbag1
(g2
g3
NtRp413
(dp414
g52
V10.1046/j.1365-313X.1998.00123.x
p415
sg48
VPLANT J
p416
sg50
V14
p417
sg82
(lp418
(VMICHAELS
VS D
tp419
asg17
I1998
sg44
VLANT
p420
sbag1
(g2
g3
NtRp421
(dp422
g52
V10.1016/S0169-5347(01)02291-1
p423
sg48
VTRENDS ECOL EVOL
p424
sg50
V16
p425
sg82
(lp426
(VMITCHELL-OLDS
VT
tp427
asg17
I2001
sg44
V693
p428
sbag1
(g2
g3
NtRp429
(dp430
g52
V10.1016/S0960-9822(95)00148-5
p431
sg48
VCURR BIOL
p432
sg50
V5
sg82
(lp433
(VMOORE
VG
tp434
asg17
I1995
sg44
V737
p435
sbag1
(g2
g3
NtRp436
(dp437
g52
V10.1016/S0168-9525(02)02820-2
p438
sg48
VTRENDS GENET
p439
sg50
V18
p440
sg82
(lp441
(VNEFF
VM M
tp442
asg17
I2002
sg44
V613
p443
sbag1
(g2
g3
NtRp444
(dp445
g52
V10.1534/genetics.105.042093
p446
sg48
VGENETICS
p447
sg50
V171
p448
sg82
(lp449
(VPARKIN
VI A P
tp450
asg17
I2005
sg44
V765
p451
sbag1
(g2
g3
NtRp452
(dp453
g52
V10.1007/s00412-004-0316-2
p454
sg48
VCHROMOSOMA
p455
sg50
V113
p456
sg82
(lp457
(VPECINKA
VA
tp458
asg17
I2004
sg44
V258
p459
sbag1
(g2
g3
NtRp460
(dp461
g52
V10.1016/S0168-9525(00)02024-2
p462
sg48
VTRENDS GENET
p463
sg50
V16
p464
sg82
(lp465
(VRICE
VP
tp466
asg17
I2000
sg44
V276
p467
sbag1
(g2
g3
NtRp468
(dp469
g52
Nsg48
VCRUCIFERAE CONTINENT
p470
sg50
Nsg82
(lp471
(VROLLINS
VR C
tp472
asg17
I1993
sg44
Nsbag1
(g2
g3
NtRp473
(dp474
g52
V10.1073/pnas.0606133103
p475
sg48
VP NATL ACAD SCI USA
p476
sg50
V103
p477
sg82
(lp478
(VROSTOKS
VN
tp479
asg17
I2006
sg44
V18656
p480
sbag1
(g2
g3
NtRp481
(dp482
g52
V10.1038/362056a0
p483
sg48
VNATURE
p484
sg50
V362
p485
sg82
(lp486
(VROY
VB A
tp487
asg17
I1993
sg44
V56
p488
sbag1
(g2
g3
NtRp489
(dp490
g52
V10.1111/j.0014-3820.2000.tb00007.x
p491
sg48
VEVOLUTION
p492
sg50
V54
p493
sg82
(lp494
(VROY
VB A
tp495
asg17
I2000
sg44
V51
p496
sbag1
(g2
g3
NtRp497
(dp498
g52
VDOI 10.1385/1-59259-192-2:365
p499
sg48
VBIOINFORMATICS METHO
p500
sg50
Nsg82
(lp501
(VROZEN
VS
tp502
asg17
I2000
sg44
V365
p503
sbag1
(g2
g3
NtRp504
(dp505
g52
V10.1093/molbev/msh059
p506
sg48
VMOL BIOL EVOL
p507
sg50
V21
p508
sg82
(lp509
(VSCHEIN
VM
tp510
asg17
I2004
sg44
V659
p511
sbag1
(g2
g3
NtRp512
(dp513
g52
V10.3732/ajb.92.11.1797
p514
sg48
VAM J BOT
p515
sg50
V92
p516
sg82
(lp517
(VSCHRANZ
VM E
tp518
asg17
I2005
sg44
V1797
p519
sbag1
(g2
g3
NtRp520
(dp521
g52
V10.1111/j.1469-8137.2006.01765.x
p522
sg48
VNEW PHYTOL
p523
sg50
V171
p524
sg82
(lp525
(VSCHRANZ
VM E
tp526
asg17
I2006
sg44
V425
p527
sbag1
(g2
g3
NtRp528
(dp529
g52
V10.1016/j.tplants.2006.09.002
p530
sg48
VTRENDS PLANT SCI
p531
sg50
V11
p532
sg82
(lp533
(VSCHRANZ
VM E
tp534
asg17
I2006
sg44
V535
p535
sbag1
(g2
g3
NtRp536
(dp537
g52
V10.1016/j.pbi.2007.01.014
p538
sg48
VCURR OPIN PLANT BIOL
p539
sg50
V10
p540
sg82
(lp541
(VSCHRANZ
VM E
tp542
asg17
I2007
sg44
V168
p543
sbag1
(g2
g3
NtRp544
(dp545
g52
V10.1159/000082411
p546
sg48
VCYTOGENET GENOME RES
p547
sg50
V109
p548
sg82
(lp549
(VSHARBEL
VT F
tp550
asg17
I2005
sg44
V283
p551
sbag1
(g2
g3
NtRp552
(dp553
g52
V10.1046/j.1365-2540.2001.00908.x
p554
sg48
VHEREDITY
p555
sg50
V87
p556
sg82
(lp557
(VSHARBEL
VT F
tp558
asg17
I2001
sg44
V59
p559
sbag1
(g2
g3
NtRp560
(dp561
g52
V10.1159/000079284
p562
sg48
VCYTOGENET GENOME RES
p563
sg50
V106
p564
sg82
(lp565
(VSHARBEL
VT F
tp566
asg17
I2004
sg44
V173
p567
sbag1
(g2
g3
NtRp568
(dp569
g52
V10.1007/s00412-003-0251-7
p570
sg48
VCHROMOSOMA
p571
sg50
V112
p572
sg82
(lp573
(VSIROKY
VJ
tp574
asg17
I2003
sg44
V116
p575
sbag1
(g2
g3
NtRp576
(dp577
g52
V10.1111/j.1365-294X.2005.02817.x
p578
sg48
VMOL ECOL
p579
sg50
V15
p580
sg82
(lp581
(VSONG
VB H
tp582
asg17
I2006
sg44
V357
p583
sbag1
(g2
g3
NtRp584
(dp585
g52
V10.1111/j.1365-313X.1993.00739.x
p586
sg48
VPLANT J
p587
sg50
V3
sg82
(lp588
(VSTAM
VP
tp589
asg17
I1993
sg44
VLANT
p590
sbag1
(g2
g3
NtRp591
(dp592
g52
Nsg48
VNATURE
p593
sg50
V408
p594
sg82
(lp595
(VKAUL
VS
tp596
asg17
I2000
sg44
V796
p597
sbag1
(g2
g3
NtRp598
(dp599
g52
V10.1093/nar/gnh006
p600
sg48
VNUCLEIC ACIDS RES
p601
sg50
V32
p602
sg82
(lp603
(VTHIEL
VT
tp604
asg17
I2004
sg44
Nsbag1
(g2
g3
NtRp605
(dp606
g52
V10.1007/s00606-006-0421-1
p607
sg48
VPLANT SYST EVOL
p608
sg50
V259
p609
sg82
(lp610
(VWARWICK
VS I
tp611
asg17
I2006
sg44
VLANT
p612
sbag1
(g2
g3
NtRp613
(dp614
g52
V10.3100/1043-4534(2006)11[61:NANSOB]2.0.CO;2
p615
sg48
VHarvard Papers in Botany
p616
sg50
V11
p617
sg82
(lp618
(VWINDHAM
VMICHAEL D
tp619
asg17
I2006
sg44
V61
p620
sbag1
(g2
g3
NtRp621
(dp622
g52
V10.1104/pp.105.073981
p623
sg48
VPLANT PHYSIOL
p624
sg50
V140
p625
sg82
(lp626
(VWINDSOR
VA J
tp627
asg17
I2006
sg44
VLANT
p628
sbag1
(g2
g3
NtRp629
(dp630
g52
V10.1007/PL00006502
p631
sg48
VJ MOL EVOL
p632
sg50
V48
p633
sg82
(lp634
(VYANG
VY W
tp635
asg17
I1999
sg44
V597
p636
sbag1
(g2
g3
NtRp637
(dp638
g52
V10.1101/gr.3436305
p639
sg48
VGENOME RES
p640
sg50
V15
p641
sg82
(lp642
(VYOGEESWARAN
VK
tp643
asg17
I2005
sg44
V505
p644
sbag1
(g2
g3
NtRp645
(dp646
g52
Nsg48
VGENOME RES
p647
sg50
V7
sg82
(lp648
(VZHANG
VJ H
tp649
asg17
I1997
sg44
V649
p650
sbasb.