ccopy_reg
_reconstructor
p1
(ctethne.classes.paper
Paper
p2
c__builtin__
object
p3
NtRp4
(dp5
S'publisherCity'
p6
VROCKVILLE
p7
sS'reprintAddress'
p8
VHe, ZH (reprint author), San Francisco State Univ, Dept Biol, 1600 Holloway Ave, San Francisco, CA 94132 USA.
p9
sS'WC'
p10
VPlant Sciences
p11
sS'GA'
p12
V757BJ
p13
sS'abstract'
p14
VThe Arabidopsis cell wall-associated kinase (WAK) and WAK-like kinase (WAKL) family of receptor-like kinase genes encodes transmembrane proteins with a cytoplasmic serine/threonine kinase domain and an extracellular region containing epidermal growth factor-like repeats. Previous studies have suggested that some WAK members are involved in plant defense and heavy metal responses, whereas others are required for cell elongation and plant development. The WAK/ WAKL gene family consists of 26 members in Arabidopsis and can be divided into four groups. Here, we describe the characterization of group 2 members that are composed of a cluster of seven tandemly arrayed WAKL genes. The predicted WAKL proteins are highly similar in their cytoplasmic region but are more divergent in their predicted extracellular ligand-binding region. WAKL7 encodes a truncated WAKL isoform that is predicted to be secreted from the cytoplasm. Ratios of nonsynonymous to synonymous substitutions suggest that the extracellular region is subject to diversifying selection. Comparison of the WAKL and WAK gene clusters suggests that they arose independently. Protein gel-blot and immunolocalization analyses suggest that WAKL6 is associated with the cell wall. Histochemical analyses of WAKL promoters fused with the beta-glucuronidase reporter gene have shown that the expressions of WAKL members are developmentally regulated and tissue specific. Unlike WAK members whose expressions were found predominately in green tissues, WAKL genes are highly expressed in roots and flowers. The expression of WAKL5 and WAKL7 can be induced by wounding stress and by the salicylic acid analog 2,6-dichloroisonicotinic acid in an nonexpressor of pathogenesis-related gene 1-dependent manner, suggesting that they, like some WAK members, are wound inducible and can be defined as pathogenesis-related genes.
p15
sS'pageEnd'
p16
I1746
sS'publisherAddress'
p17
V15501 MONONA DRIVE, ROCKVILLE, MD 20855 USA
p18
sS'documentType'
p19
VArticle
p20
sS'subject'
p21
VPlant Sciences
p22
sS'isoSource'
p23
VPlant Physiol.
p24
sS'timesCited'
p25
(lp26
I38
aVZ9 53
p27
asS'PT'
p28
VJ
sS'title'
p29
VTissue-Specific And Developmentally Regulated Expression Of A Cluster Of Tandemly Arrayed Cell Wall-Associated Kinase-Like Kinase Genes In Arabidopsis
p30
sS'ISSN'
p31
(lp32
V0032-0889
p33
aVJ9 PLANT PHYSIOL
p34
asS'authors_full'
p35
(lp36
(VVERICA
VJA
tp37
a(VCHAE
VL
tp38
a(VTONG
VHY
tp39
a(VINGMIRE
VP
tp40
a(VHE
VZH
tp41
asS'PG'
p42
I15
sS'PD'
p43
VDEC
p44
sS'pageStart'
p45
I1732
sS'issue'
p46
I4
sS'journal'
p47
VPLANT PHYSIOLOGY
p48
sS'volume'
p49
V133
p50
sS'doi'
p51
V10.1104/pp.103.028530
p52
sS'authorAddress'
p53
VSan Francisco State Univ, Dept Biol, San Francisco, CA 94132 USA.
p54
sS'date'
p55
I2003
sS'ER'
p56
V
sS'publisher'
p57
VAMER SOC PLANT BIOLOGISTS
p58
sS'authorKeywords'
p59
(lp60
VSYSTEMIC ACQUIRED-RESISTANCE
p61
aVRECEPTOR-LIKE KINASE
p62
aVPROTEIN-KINASE
p63
aVDISEASE RESISTANCE
p64
aVSIGNAL-TRANSDUCTION
p65
aVFACTOR-X
p66
aVSELF-INCOMPATIBILITY
p67
aVDIVERGENT SELECTION
p68
aVSURFACE RECEPTORS
p69
aVPLANT DEVELOPMENT
p70
asS'language'
p71
VEnglish
p72
sS'wosid'
p73
VWOS:000187528700034
p74
sS'citationCount'
p75
I89
sS'authors_init'
p76
(lp77
(VVERICA
VJ A
tp78
a(VCHAE
VL
tp79
a(VTONG
VH Y
tp80
a(VINGMIRE
VP
tp81
a(VHE
VZ H
tp82
asS'citedReferences'
p83
(lp84
g1
(g2
g3
NtRp85
(dp86
g51
V10.1006/jmbi.1990.9999
p87
sg47
VJ MOL BIOL
p88
sg49
V215
p89
sg76
(lp90
(VALTSCHUL
VS F
tp91
asg55
I1990
sg45
V403
p92
sbag1
(g2
g3
NtRp93
(dp94
g51
V10.1023/A:1010691701578
p95
sg47
VPLANT MOL BIOL
p96
sg49
V47
p97
sg76
(lp98
(VANDERSON
VC M
tp99
asg55
I2001
sg45
VLANT
p100
sbag1
(g2
g3
NtRp101
(dp102
g51
Nsg47
VJ BIOL CHEM
p103
sg49
V262
p104
sg76
(lp105
(VAPPELLA
VE
tp106
asg55
I1987
sg45
V4437
p107
sbag1
(g2
g3
NtRp108
(dp109
g51
V10.1126/science.273.5280.1406
p110
sg47
VSCIENCE
p111
sg49
V273
p112
sg76
(lp113
(VBECRAFT
VP W
tp114
asg55
I1996
sg45
V1406
p115
sbag1
(g2
g3
NtRp116
(dp117
g51
Nsg47
VPLANT CELL
p118
sg49
V10
p119
sg76
(lp120
(VBOTELLA
VM A
tp121
asg55
I1998
sg45
VLANT
p122
sbag1
(g2
g3
NtRp123
(dp124
g51
Nsg47
VPLANT CELL
p125
sg49
V6
sg76
(lp126
(VBOWLING
VS A
tp127
asg55
I1994
sg45
VLANT
p128
sbag1
(g2
g3
NtRp129
(dp130
g51
V10.1046/j.1365-313X.1999.00409.x
p131
sg47
VPLANT J
p132
sg49
V17
p133
sg76
(lp134
(VCAMPISI
VL
tp135
asg55
I1999
sg45
VLANT
p136
sbag1
(g2
g3
NtRp137
(dp138
g51
V10.1016/S0092-8674(00)81858-9
p139
sg47
VCELL
p140
sg49
V88
p141
sg76
(lp142
(VCAO
VH
tp143
asg55
I1997
sg45
V57
p144
sbag1
(g2
g3
NtRp145
(dp146
g51
V10.1105/tpc.12.4.493
p147
sg47
VPLANT CELL
p148
sg49
V12
p149
sg76
(lp150
(VCAO
VX F
tp151
asg55
I2000
sg45
VLANT
p152
sbag1
(g2
g3
NtRp153
(dp154
g51
V10.1111/j.1365-313X.1993.tb00007.x
p155
sg47
VPLANT J
p156
sg49
V3
sg76
(lp157
(VCARPITA
VN C
tp158
asg55
I1993
sg45
VLANT
p159
sbag1
(g2
g3
NtRp160
(dp161
g51
V10.1126/science.8211181
p162
sg47
VSCIENCE
p163
sg49
V262
p164
sg76
(lp165
(VCHANG
VC
tp166
asg55
I1993
sg45
V539
p167
sbag1
(g2
g3
NtRp168
(dp169
g51
V10.1073/pnas.95.9.5401
p170
sg47
VP NATL ACAD SCI USA
p171
sg49
V95
p172
sg76
(lp173
(VCLARK
VK L
tp174
asg55
I1998
sg45
V5401
p175
sbag1
(g2
g3
NtRp176
(dp177
g51
V10.1016/S0092-8674(00)80239-1
p178
sg47
VCELL
p179
sg49
V89
p180
sg76
(lp181
(VCLARK
VS E
tp182
asg55
I1997
sg45
V575
p183
sbag1
(g2
g3
NtRp184
(dp185
g51
V10.1146/annurev.cellbio.13.1.171
p186
sg47
VANNU REV CELL DEV BI
p187
sg49
V13
p188
sg76
(lp189
(VCOSGROVE
VD J
tp190
asg55
I1997
sg45
V171
p191
sbag1
(g2
g3
NtRp192
(dp193
g51
V10.1146/annurev.arplant.50.1.391
p194
sg47
VANNU REV PLANT PHYS
p195
sg49
V50
p196
sg76
(lp197
(VCOSGROVE
VD J
tp198
asg55
I1999
sg45
V391
p199
sbag1
(g2
g3
NtRp200
(dp201
g51
V10.1073/pnas.050480297
p202
sg47
VP NATL ACAD SCI USA
p203
sg49
V97
p204
sg76
(lp205
(VCUI
VY H
tp206
asg55
I2000
sg45
V3713
p207
sbag1
(g2
g3
NtRp208
(dp209
g51
V10.1016/1369-5266(88)80053-0
p210
sg47
VCURR OPIN PLANT BIOL
p211
sg49
V1
sg76
(lp212
(VDONG
VX N
tp213
asg55
I1998
sg45
V316
p214
sbag1
(g2
g3
NtRp215
(dp216
g51
V10.1105/tpc.11.3.495
p217
sg47
VPLANT CELL
p218
sg49
V11
p219
sg76
(lp220
(VELLIS
VJ G
tp221
asg55
I1999
sg45
VLANT
p222
sbag1
(g2
g3
NtRp223
(dp224
g51
V10.1126/science.261.5122.754
p225
sg47
VSCIENCE
p226
sg49
V261
p227
sg76
(lp228
(VGAFFNEY
VT
tp229
asg55
I1993
sg45
V754
p230
sbag1
(g2
g3
NtRp231
(dp232
g51
V10.1073/pnas.95.13.7825
p233
sg47
VP NATL ACAD SCI USA
p234
sg49
V95
p235
sg76
(lp236
(VGAMBLE
VR L
tp237
asg55
I1998
sg45
V7825
p238
sbag1
(g2
g3
NtRp239
(dp240
g51
V10.1016/S1369-5266(99)80055-7
p241
sg47
VCURR OPIN PLANT BIOL
p242
sg49
V2
sg76
(lp243
(VGRANT
VM
tp244
asg55
I1999
sg45
V312
p245
sbag1
(g2
g3
NtRp246
(dp247
g51
V10.1146/annurev.arplant.50.1.97
p248
sg47
VANNU REV PLANT PHYS
p249
sg49
V50
p250
sg76
(lp251
(VHARDIE
VD G
tp252
asg55
I1999
sg45
V97
p253
sbag1
(g2
g3
NtRp254
(dp255
g51
Nsg47
VCELL BIOL EXTRACELLU
p256
sg49
Nsg76
(lp257
(VHAY
VE D
tp258
asg55
I1981
sg45
V379
p259
sbag1
(g2
g3
NtRp260
(dp261
g51
V10.1046/j.1365-313X.1998.00092.x
p262
sg47
VPLANT J
p263
sg49
V14
p264
sg76
(lp265
(VHE
VZ H
tp266
asg55
I1998
sg45
VLANT
p267
sbag1
(g2
g3
NtRp268
(dp269
g51
Nsg47
VJ BIOL CHEM
p270
sg49
V271
p271
sg76
(lp272
(VHE
VZ H
tp273
asg55
I1996
sg45
V19789
p274
sbag1
(g2
g3
NtRp275
(dp276
g51
V10.1023/A:1006197318246
p277
sg47
VPLANT MOL BIOL
p278
sg49
V39
p279
sg76
(lp280
(VHE
VZ H
tp281
asg55
I1999
sg45
VLANT
p282
sbag1
(g2
g3
NtRp283
(dp284
g51
V10.1016/0092-8674(95)90404-2
p285
sg47
VCELL
p286
sg49
V80
p287
sg76
(lp288
(VHELDIN
VC H
tp289
asg55
I1995
sg45
V213
p290
sbag1
(g2
g3
NtRp291
(dp292
g51
V10.1093/nar/27.1.297
p293
sg47
VNUCLEIC ACIDS RES
p294
sg49
V27
p295
sg76
(lp296
(VHIGO
VK
tp297
asg55
I1999
sg45
V297
p298
sbag1
(g2
g3
NtRp299
(dp300
g51
V10.1146/annurev.genet.32.1.415
p301
sg47
VANNU REV GENET
p302
sg49
V32
p303
sg76
(lp304
(VHUGHES
VA L
tp305
asg55
I1998
sg45
V415
p306
sbag1
(g2
g3
NtRp307
(dp308
g51
V10.1146/annurev.phyto.35.1.293
p309
sg47
VANNU REV PHYTOPATHOL
p310
sg49
V35
p311
sg76
(lp312
(VHULBERT
VS H
tp313
asg55
I1997
sg45
V293
p314
sbag1
(g2
g3
NtRp315
(dp316
g51
V10.1016/0092-8674(87)90233-9
p317
sg47
VCELL
p318
sg49
V48
p319
sg76
(lp320
(VHYNES
VR O
tp321
asg55
I1987
sg45
V549
p322
sbag1
(g2
g3
NtRp323
(dp324
g51
Nsg47
VCELL BIOL EXTRACELLU
p325
sg49
Nsg76
(lp326
(VHYNES
VR O
tp327
asg55
I1981
sg45
V295
p328
sbag1
(g2
g3
NtRp329
(dp330
g51
V10.1105/tpc.11.10.1925
p331
sg47
VPLANT CELL
p332
sg49
V11
p333
sg76
(lp334
(VJEONG
VS
tp335
asg55
I1999
sg45
VLANT
p336
sbag1
(g2
g3
NtRp337
(dp338
g51
Nsg47
VGENE DEV
p339
sg49
V14
p340
sg76
(lp341
(VJINN
VT L
tp342
asg55
I2000
sg45
V108
p343
sbag1
(g2
g3
NtRp344
(dp345
g51
V10.1016/S0962-8924(99)01643-8
p346
sg47
VTRENDS CELL BIOL
p347
sg49
V9
sg76
(lp348
(VKOHORN
VB D
tp349
asg55
I1999
sg45
V381
p350
sbag1
(g2
g3
NtRp351
(dp352
g51
V10.1104/pp.124.1.31
p353
sg47
VPLANT PHYSIOL
p354
sg49
V124
p355
sg76
(lp356
(VKOHORN
VB D
tp357
asg55
I2000
sg45
VLANT
p358
sbag1
(g2
g3
NtRp359
(dp360
g51
V10.1006/bbrc.1999.1753
p361
sg47
VBIOCHEM BIOPH RES CO
p362
sg49
V265
p363
sg76
(lp364
(VKURODA
VS
tp365
asg55
I1999
sg45
V752
p366
sbag1
(g2
g3
NtRp367
(dp368
g51
Nsg47
VBiochem Soc Symp
p369
sg49
V64
p370
sg76
(lp371
(VKYRIAKIS
VJ M
tp372
asg55
I1999
sg45
V29
p373
sbag1
(g2
g3
NtRp374
(dp375
g51
V10.1105/tpc.13.6.1317
p376
sg47
VPLANT CELL
p377
sg49
V13
p378
sg76
(lp379
(VLALLY
VD
tp380
asg55
I2001
sg45
VLANT
p381
sbag1
(g2
g3
NtRp382
(dp383
g51
V10.1046/j.1365-313x.1998.00288.x
p384
sg47
VPLANT J
p385
sg49
V16
p386
sg76
(lp387
(VLEBEL
VE
tp388
asg55
I1998
sg45
VLANT
p389
sbag1
(g2
g3
NtRp390
(dp391
g51
V10.1016/S0092-8674(00)80357-8
p392
sg47
VCELL
p393
sg49
V90
p394
sg76
(lp395
(VLI
VJ M
tp396
asg55
I1997
sg45
V929
p397
sbag1
(g2
g3
NtRp398
(dp399
g51
V10.1104/pp.108.4.1735
p400
sg47
VPLANT PHYSIOL
p401
sg49
V108
p402
sg76
(lp403
(VLOH
VY T
tp404
asg55
I1995
sg45
VLANT
p405
sbag1
(g2
g3
NtRp406
(dp407
g51
V10.1104/pp.122.1.3
p408
sg47
VPLANT PHYSIOL
p409
sg49
V122
p410
sg76
(lp411
(VMAJEWSKA-SAWKA
VA
tp412
asg55
I2000
sg45
VLANT
p413
sbag1
(g2
g3
NtRp414
(dp415
g51
V10.1094/MPMI-6-026
p416
sg47
VMOL PLANT MICROBE IN
p417
sg49
V6
sg76
(lp418
(VMARTIN
VG B
tp419
asg55
I1993
sg45
V26
p420
sbag1
(g2
g3
NtRp421
(dp422
g51
V10.1016/S0092-8674(00)00113-6
p423
sg47
VCELL
p424
sg49
V103
p425
sg76
(lp426
(VMCCARTY
VD R
tp427
asg55
I2000
sg45
V201
p428
sbag1
(g2
g3
NtRp429
(dp430
g51
V10.1105/tpc.10.11.1861
p431
sg47
VPLANT CELL
p432
sg49
V10
p433
sg76
(lp434
(VMCDOWELL
VJ M
tp435
asg55
I1998
sg45
VLANT
p436
sbag1
(g2
g3
NtRp437
(dp438
g51
Nsg47
VBIOCHEM SOC T
p439
sg49
V25
p440
sg76
(lp441
(VMCQUEENMASON
VS
tp442
asg55
I1997
sg45
V204
p443
sbag1
(g2
g3
NtRp444
(dp445
g51
Nsg47
VPLANT CELL
p446
sg49
V10
p447
sg76
(lp448
(VMEYERS
VB C
tp449
asg55
I1998
sg45
VLANT
p450
sbag1
(g2
g3
NtRp451
(dp452
g51
Nsg47
VPLANT CELL
p453
sg49
V10
p454
sg76
(lp455
(VMEYERS
VB C
tp456
asg55
I1998
sg45
VLANT
p457
sbag1
(g2
g3
NtRp458
(dp459
g51
Nsg47
VGENOME RES
p460
sg49
V8
sg76
(lp461
(VMICHELMORE
VR W
tp462
asg55
I1998
sg45
V1113
p463
sbag1
(g2
g3
NtRp464
(dp465
g51
Nsg47
VPLANT CELL
p466
sg49
V6
sg76
(lp467
(VMU
VJ H
tp468
asg55
I1994
sg45
VLANT
p469
sbag1
(g2
g3
NtRp470
(dp471
g51
V10.1126/science.1069596
p472
sg47
VSCIENCE
p473
sg49
V296
p474
sg76
(lp475
(VNADEAU
VJ A
tp476
asg55
I2002
sg45
V1697
p477
sbag1
(g2
g3
NtRp478
(dp479
g51
Nsg47
VMOL BIOL EVOL
p480
sg49
V3
sg76
(lp481
(VNEI
VM
tp482
asg55
I1986
sg45
V418
p483
sbag1
(g2
g3
NtRp484
(dp485
g51
V10.1073/pnas.94.15.7799
p486
sg47
VP NATL ACAD SCI USA
p487
sg49
V94
p488
sg76
(lp489
(VNEI
VM
tp490
asg55
I1997
sg45
V7799
p491
sbag1
(g2
g3
NtRp492
(dp493
g51
V10.1093/emboj/17.19.5563
p494
sg47
VEMBO J
p495
sg49
V17
p496
sg76
(lp497
(VNICOL
VF
tp498
asg55
I1998
sg45
V5563
p499
sbag1
(g2
g3
NtRp500
(dp501
g51
V10.1105/tpc.11.11.2099
p502
sg47
VPLANT CELL
p503
sg49
V11
p504
sg76
(lp505
(VNOEL
VL
tp506
asg55
I1999
sg45
VLANT
p507
sbag1
(g2
g3
NtRp508
(dp509
g51
Nsg47
VMOL BIOL EVOL
p510
sg49
V11
p511
sg76
(lp512
(VOTA
VT
tp513
asg55
I1994
sg45
V613
p514
sbag1
(g2
g3
NtRp515
(dp516
g51
V10.1074/jbc.M101283200
p517
sg47
VJ BIOL CHEM
p518
sg49
V276
p519
sg76
(lp520
(VPARK
VA R
tp521
asg55
I2001
sg45
V26688
p522
sbag1
(g2
g3
NtRp523
(dp524
g51
V10.1016/S0092-8674(00)80470-5
p525
sg47
VCELL
p526
sg49
V91
p527
sg76
(lp528
(VPARNISKE
VM
tp529
asg55
I1997
sg45
V821
p530
sbag1
(g2
g3
NtRp531
(dp532
g51
V10.1073/pnas.93.22.12637
p533
sg47
VP NATL ACAD SCI USA
p534
sg49
V93
p535
sg76
(lp536
(VPEAR
VJ R
tp537
asg55
I1996
sg45
V12637
p538
sbag1
(g2
g3
NtRp539
(dp540
g51
V10.1016/S1369-5266(98)80043-5
p541
sg47
VCURR OPIN PLANT BIOL
p542
sg49
V1
sg76
(lp543
(VPENNELL
VR
tp544
asg55
I1998
sg45
V504
p545
sbag1
(g2
g3
NtRp546
(dp547
g51
V10.1111/j.1365-3040.1993.tb00853.x
p548
sg47
VPLANT CELL ENVIRON
p549
sg49
V16
p550
sg76
(lp551
(VPONTLEZICA
VR F
tp552
asg55
I1993
sg45
VLANT
p553
sbag1
(g2
g3
NtRp554
(dp555
g51
V10.1016/0962-8924(91)90046-C
p556
sg47
VTrends Cell Biol
p557
sg49
V1
sg76
(lp558
(VQUARANTA
VV
tp559
asg55
I1991
sg45
V2
sbag1
(g2
g3
NtRp560
(dp561
g51
V10.1016/0092-8674(91)90064-6
p562
sg47
VCELL
p563
sg49
V67
p564
sg76
(lp565
(VREBAY
VI
tp566
asg55
I1991
sg45
V687
p567
sbag1
(g2
g3
NtRp568
(dp569
g51
V10.1093/nar/27.1.295
p570
sg47
VNUCLEIC ACIDS RES
p571
sg49
V27
p572
sg76
(lp573
(VROMBAUTS
VS
tp574
asg55
I1999
sg45
V295
p575
sbag1
(g2
g3
NtRp576
(dp577
g51
V10.1016/1369-5266(88)80049-9
p578
sg47
VCURR OPIN PLANT BIOL
p579
sg49
V1
sg76
(lp580
(VRONALD
VP C
tp581
asg55
I1998
sg45
V294
p582
sbag1
(g2
g3
NtRp583
(dp584
g51
V10.1016/1369-5266(88)80051-7
p585
sg47
VCURR OPIN PLANT BIOL
p586
sg49
V1
sg76
(lp587
(VSCHEEL
VD
tp588
asg55
I1998
sg45
V305
p589
sbag1
(g2
g3
NtRp590
(dp591
g51
V10.1016/S0167-4889(98)00178-5
p592
sg47
VBBA
p593
sg49
V1449
p594
sg76
(lp595
(VSCHENK
VP W
tp596
asg55
I1999
sg45
V1
sbag1
(g2
g3
NtRp597
(dp598
g51
Nsg47
VJ BIOL CHEM
p599
sg49
V267
p600
sg76
(lp601
(VSELANDERSUNNERHAGEN
VM
tp602
asg55
I1992
sg45
V19642
p603
sbag1
(g2
g3
NtRp604
(dp605
g51
V10.1073/pnas.181141598
p606
sg47
VP NATL ACAD SCI USA
p607
sg49
V98
p608
sg76
(lp609
(VSHIU
VS H
tp610
asg55
I2001
sg45
V10763
p611
sbag1
(g2
g3
NtRp612
(dp613
g51
V10.1104/pp.103.022129
p614
sg47
VPLANT PHYSIOL
p615
sg49
V132
p616
sg76
(lp617
(VSIVAGURU
VM
tp618
asg55
I2003
sg45
VLANT
p619
sbag1
(g2
g3
NtRp620
(dp621
g51
Nsg47
VJ BIOL CHEM
p622
sg49
V269
p623
sg76
(lp624
(VSLIWKOWSKI
VM X
tp625
asg55
I1994
sg45
V14661
p626
sbag1
(g2
g3
NtRp627
(dp628
g51
V10.1126/science.270.5243.1804
p629
sg47
VSCIENCE
p630
sg49
V270
p631
sg76
(lp632
(VSONG
VW Y
tp633
asg55
I1995
sg45
V1804
p634
sbag1
(g2
g3
NtRp635
(dp636
g51
V10.1105/tpc.9.8.1279
p637
sg47
VPLANT CELL
p638
sg49
V9
sg76
(lp639
(VSONG
VW Y
tp640
asg55
I1997
sg45
VLANT
p641
sbag1
(g2
g3
NtRp642
(dp643
g51
V10.1073/pnas.88.19.8816
p644
sg47
VP NATL ACAD SCI USA
p645
sg49
V88
p646
sg76
(lp647
(VSTEIN
VJ C
tp648
asg55
I1991
sg45
V8816
p649
sbag1
(g2
g3
NtRp650
(dp651
g51
V10.1006/jmbi.1999.3139
p652
sg47
VJ MOL BIOL
p653
sg49
V293
p654
sg76
(lp655
(VSTENBERG
VY
tp656
asg55
I1999
sg45
V653
p657
sbag1
(g2
g3
NtRp658
(dp659
g51
V10.1016/S0167-4838(99)00262-9
p660
sg47
VBBA
p661
sg49
V1477
p662
sg76
(lp663
(VSTENFLO
VJ
tp664
asg55
I2000
sg45
V51
p665
sbag1
(g2
g3
NtRp666
(dp667
g51
Nsg47
VJ BIOL CHEM
p668
sg49
V268
p669
sg76
(lp670
(VSUNNERHAGEN
VM S
tp671
asg55
I1993
sg45
V23339
p672
sbag1
(g2
g3
NtRp673
(dp674
g51
V10.1038/35002628
p675
sg47
VNATURE
p676
sg49
V403
p677
sg76
(lp678
(VTAKASAKI
VT
tp679
asg55
I2000
sg45
V913
p680
sbag1
(g2
g3
NtRp681
(dp682
g51
V10.1105/tpc.11.3.393
p683
sg47
VPLANT CELL
p684
sg49
V11
p685
sg76
(lp686
(VTROTOCHAUD
VA E
tp687
asg55
I1999
sg45
VLANT
p688
sbag1
(g2
g3
NtRp689
(dp690
g51
V10.1104/pp.011028
p691
sg47
VPLANT PHYSIOL
p692
sg49
V129
p693
sg76
(lp694
(VVERICA
VJ A
tp695
asg55
I2002
sg45
VLANT
p696
sbag1
(g2
g3
NtRp697
(dp698
g51
V10.1105/tpc.13.2.303
p699
sg47
VPLANT CELL
p700
sg49
V13
p701
sg76
(lp702
(VWAGNER
VT A
tp703
asg55
I2001
sg45
VLANT
p704
sbag1
(g2
g3
NtRp705
(dp706
g51
V10.1046/j.1365-313X.1993.t01-23-00999.x
p707
sg47
VPLANT J
p708
sg49
V3
sg76
(lp709
(VWALKER
VJ C
tp710
asg55
I1993
sg45
VLANT
p711
sbag1
(g2
g3
NtRp712
(dp713
g51
V10.1105/tpc.10.5.765
p714
sg47
VPLANT CELL
p715
sg49
V10
p716
sg76
(lp717
(VWANG
VG L
tp718
asg55
I1998
sg45
VLANT
p719
sbag1
(g2
g3
NtRp720
(dp721
g51
V10.1098/rstb.1998.0298
p722
sg47
VPHILOS T ROY SOC B
p723
sg49
V353
p724
sg76
(lp725
(VWOESTE
VK
tp726
asg55
I1998
sg45
VHILOS
p727
sbag1
(g2
g3
NtRp728
(dp729
g51
V10.1046/j.1365-313X.1999.00437.x
p730
sg47
VPLANT J
p731
sg49
V18
p732
sg76
(lp733
(VYANG
VP Z
tp734
asg55
I1999
sg45
VLANT
p735
sbag1
(g2
g3
NtRp736
(dp737
g51
V10.1021/bi00379a035
p738
sg47
VBIOCHEMISTRY
p739
sg49
V26
p740
sg76
(lp741
(VYARDEN
VY
tp742
asg55
I1987
sg45
V1443
p743
sbag1
(g2
g3
NtRp744
(dp745
g51
V10.1046/j.1365-313X.1998.00203.x
p746
sg47
VPLANT J
p747
sg49
V15
p748
sg76
(lp749
(VYOKOYAMA
VR
tp750
asg55
I1998
sg45
VLANT
p751
sbag1
(g2
g3
NtRp752
(dp753
g51
Nsg47
VPLANT J
p754
sg49
V3
sg76
(lp755
(VZHU
VJ K
tp756
asg55
I1993
sg45
VLANT
p757
sbasb.