ccopy_reg
_reconstructor
p1
(ctethne.classes.paper
Paper
p2
c__builtin__
object
p3
NtRp4
(dp5
S'publisherCity'
p6
VROCKVILLE
p7
sS'reprintAddress'
p8
VSamac, DA (reprint author), USDA, ARS, Plant Sci Res Unit, St Paul, MN 55108 USA.
p9
sS'WC'
p10
VPlant Sciences
p11
sS'GA'
p12
V176HH
p13
sS'pageEnd'
p14
I587
sS'publisherAddress'
p15
V15501 MONONA DRIVE, ROCKVILLE, MD 20855 USA
p16
sS'documentType'
p17
VArticle
p18
sS'subject'
p19
VPlant Sciences
p20
sS'isoSource'
p21
VPlant Physiol.
p22
sS'timesCited'
p23
(lp24
I28
aVZ9 28
p25
asS'PT'
p26
VJ
sS'title'
p27
VRecent Advances In Legume-Microbe Interactions: Recognition, Defense Response, And Symbiosis From A Genomic Perspective
p28
sS'ISSN'
p29
(lp30
V0032-0889
p31
aVJ9 PLANT PHYSIOL
p32
asS'authors_full'
p33
(lp34
(VSAMAC
VDEBORAH A
tp35
a(VGRAHAM
VMICHELLE A
tp36
asS'PG'
p37
I6
sS'PD'
p38
VJUN
p39
sS'pageStart'
p40
I582
sS'issue'
p41
I2
sS'journal'
p42
VPLANT PHYSIOLOGY
p43
sS'volume'
p44
V144
p45
sS'doi'
p46
V10.1104/pp.107.096503
p47
sS'emailAddress'
p48
Vdasamac@umn.edu
p49
sS'authorAddress'
p50
(lp51
VUSDA, ARS, Plant Sci Res Unit, St Paul, MN 55108 USA.
p52
aVUniv Minnesota, Dept Plant Pathol, St Paul, MN 55108 USA.
p53
aVIowa State Univ Sci & Technol, USDA ARS, Corn Insects & crop Genet Unit, Ames, IA 50011 USA.
p54
aVIowa State Univ, Dept Agron, Ames, IA 50011 USA.
p55
asS'date'
p56
I2007
sS'ER'
p57
V
sS'publisher'
p58
VAMER SOC PLANT BIOLOGISTS
p59
sS'authorKeywords'
p60
(lp61
VPLANT-DISEASE RESISTANCE
p62
aVSPLIT-ROOT SYSTEMS
p63
aVMEDICAGO-TRUNCATULA
p64
aVGENE FAMILY
p65
aVSIGNAL-TRANSDUCTION
p66
aVPHYTOPHTHORA-SOJAE
p67
aVLOTUS-JAPONICUS
p68
aVKINASE GENE
p69
aVNOD FACTORS
p70
aVNODULATION
p71
asS'language'
p72
VEnglish
p73
sS'wosid'
p74
VWOS:000247075000006
p75
sS'citationCount'
p76
I46
sS'authors_init'
p77
(lp78
(VSAMAC
VD A
tp79
a(VGRAHAM
VM A
tp80
asS'citedReferences'
p81
(lp82
g1
(g2
g3
NtRp83
(dp84
g46
V10.1007/s00425-006-0270-8
p85
sg42
VPLANTA
p86
sg44
V224
p87
sg77
(lp88
(VALKHAROUF
VN W
tp89
asg56
I2006
sg40
VLANTA
p90
sbag1
(g2
g3
NtRp91
(dp92
g46
V10.1104/pp.106.084657
p93
sg42
VPLANT PHYSIOL
p94
sg44
V142
p95
sg77
(lp96
(VARRIGHI
VJ F
tp97
asg56
I2006
sg40
VLANT
p98
sbag1
(g2
g3
NtRp99
(dp100
g46
V10.1105/tpc.016725
p101
sg42
VPLANT CELL
p102
sg44
V16
p103
sg77
(lp104
(VASHFIELD
VT
tp105
asg56
I2004
sg40
VLANT
p106
sbag1
(g2
g3
NtRp107
(dp108
g46
V10.1023/A:1006475303115
p109
sg42
VPLANT MOL BIOL
p110
sg44
V42
p111
sg77
(lp112
(VBANTIGNIES
VB
tp113
asg56
I2000
sg40
VLANT
p114
sbag1
(g2
g3
NtRp115
(dp116
g46
V10.1104/pp.103.031740
p117
sg42
VPLANT PHYSIOL
p118
sg44
V134
p119
sg77
(lp120
(VBARTSEV
VA V
tp121
asg56
I2004
sg40
VLANT
p122
sbag1
(g2
g3
NtRp123
(dp124
g46
V10.1007/s00425-004-1203-z
p125
sg42
VPLANTA
p126
sg44
V218
p127
sg77
(lp128
(VBOLLE
VC
tp129
asg56
I2004
sg40
VLANTA
p130
sbag1
(g2
g3
NtRp131
(dp132
g46
V10.1093/jxb/erg156
p133
sg42
VJ EXP BOT
p134
sg44
V54
p135
sg77
(lp136
(VCATFORD
VJ G
tp137
asg56
I2003
sg40
V1481
p138
sbag1
(g2
g3
NtRp139
(dp140
g46
V10.1007/s11104-006-9012-8
p141
sg42
VPLANT SOIL
p142
sg44
V285
p143
sg77
(lp144
(VCATFORD
VJ G
tp145
asg56
I2006
sg40
VLANT
p146
sbag1
(g2
g3
NtRp147
(dp148
g46
V10.1007/s00425-006-0344-7
p149
sg42
VPLANTA
p150
sg44
V225
p151
sg77
(lp152
(VCHADHA
VP
tp153
asg56
I2006
sg40
VLANTA
p154
sbag1
(g2
g3
NtRp155
(dp156
g46
V10.1007/s11103-005-0184-z
p157
sg42
VPLANT MOL BIOL
p158
sg44
V59
p159
sg77
(lp160
(VCOLDITZ
VF
tp161
asg56
I2005
sg40
VLANT
p162
sbag1
(g2
g3
NtRp163
(dp164
g46
Nsg42
VADV BOT RES
p165
sg44
V41
p166
sg77
(lp167
(VCOOPER
VJ E
tp168
asg56
I2004
sg40
V1
sbag1
(g2
g3
NtRp169
(dp170
g46
V10.1016/S0167-4781(02)00626-7
p171
sg42
VBBA
p172
sg44
V1625
p173
sg77
(lp174
(VDAY
VR B
tp175
asg56
I2003
sg40
V261
p176
sbag1
(g2
g3
NtRp177
(dp178
g46
V10.1104/pp.006833
p179
sg42
VPLANT PHYSIOL
p180
sg44
V130
p181
sg77
(lp182
(VFEDOROVA
VM
tp183
asg56
I2002
sg40
VLANT
p184
sbag1
(g2
g3
NtRp185
(dp186
g46
Nsg42
VIN PRESS MOL PLANT P
p187
sg44
Nsg77
(lp188
(VFOSTERHARTNETT
VD
tp189
asg56
I2007
sg40
Nsbag1
(g2
g3
NtRp190
(dp191
g46
V10.1094/MPMI.1998.11.5.393
p192
sg42
VMOL PLANT MICROBE IN
p193
sg44
V11
p194
sg77
(lp195
(VGAMAS
VP
tp196
asg56
I1998
sg40
V393
p197
sbag1
(g2
g3
NtRp198
(dp199
g46
V10.1094/MPM-18-1035
p200
sg42
VMOL PLANT MICROBE IN
p201
sg44
V18
p202
sg77
(lp203
(VGAO
VH Y
tp204
asg56
I2005
sg40
V1035
p205
sbag1
(g2
g3
NtRp206
(dp207
g46
V10.1071/FP06101
p208
sg42
VFUNCT PLANT BIOL
p209
sg44
V33
p210
sg77
(lp211
(VGRAHAM
VM A
tp212
asg56
I2006
sg40
V789
p213
sbag1
(g2
g3
NtRp214
(dp215
g46
V10.1104/pp.104.037531
p216
sg42
VPLANT PHYSIOL
p217
sg44
V135
p218
sg77
(lp219
(VGRAHAM
VM A
tp220
asg56
I2004
sg40
VLANT
p221
sbag1
(g2
g3
NtRp222
(dp223
g46
Nsg42
VGENETICS
p224
sg44
V162
p225
sg77
(lp226
(VGRAHAM
VM A
tp227
asg56
I2002
sg40
V1961
p228
sbag1
(g2
g3
NtRp229
(dp230
g46
V10.1104/pp.96.4.1302
p231
sg42
VPLANT PHYSIOL
p232
sg44
V96
p233
sg77
(lp234
(VHUANG
VJ S
tp235
asg56
I1991
sg40
VLANT
p236
sbag1
(g2
g3
NtRp237
(dp238
g46
V10.1007/s00122-005-1969-9
p239
sg42
VTHEOR APPL GENET
p240
sg44
V110
p241
sg77
(lp242
(VIQBAL
VM J
tp243
asg56
I2005
sg40
V1429
p244
sbag1
(g2
g3
NtRp245
(dp246
g46
V10.1073/pnas.0508882103
p247
sg42
VP NATL ACAD SCI USA
p248
sg44
V103
p249
sg77
(lp250
(VKAKU
VH
tp251
asg56
I2006
sg40
V11086
p252
sbag1
(g2
g3
NtRp253
(dp254
g46
V10.1126/science.1110951
p255
sg42
VSCIENCE
p256
sg44
V308
p257
sg77
(lp258
(VKALO
VP
tp259
asg56
I2005
sg40
V1786
p260
sbag1
(g2
g3
NtRp261
(dp262
g46
V10.1073/pnas.93.21.11746
p263
sg42
VP NATL ACAD SCI USA
p264
sg44
V93
p265
sg77
(lp266
(VKANAZIN
VV
tp267
asg56
I1996
sg40
V11746
p268
sbag1
(g2
g3
NtRp269
(dp270
g46
V10.1126/science.1090074
p271
sg42
VSCIENCE
p272
sg44
V302
p273
sg77
(lp274
(VLIMPENS
VE
tp275
asg56
I2003
sg40
V630
p276
sbag1
(g2
g3
NtRp277
(dp278
g46
Nsg42
VPLANT PHYSIOL
p279
sg44
V140
p280
sg77
(lp281
(VLOHAR
VD P
tp282
asg56
I2006
sg40
VLANT
p283
sbag1
(g2
g3
NtRp284
(dp285
g46
V10.1038/nature02045
p286
sg42
VNATURE
p287
sg44
V425
p288
sg77
(lp289
(VMADSEN
VE B
tp290
asg56
I2003
sg40
V637
p291
sbag1
(g2
g3
NtRp292
(dp293
g46
V10.1094/MPMI.2003.16.9.743
p294
sg42
VMOL PLANT MICROBE IN
p295
sg44
V16
p296
sg77
(lp297
(VMARIE
VC
tp298
asg56
I2003
sg40
V743
p299
sbag1
(g2
g3
NtRp300
(dp301
g46
V10.1016/S1369-5266(00)00182-5
p302
sg42
VCURR OPIN PLANT BIOL
p303
sg44
V4
sg77
(lp304
(VMARIE
VC
tp305
asg56
I2001
sg40
V336
p306
sbag1
(g2
g3
NtRp307
(dp308
g46
V10.1146/annurev.arplant.54.031902.135035
p309
sg42
VANNU REV PLANT BIOL
p310
sg44
V54
p311
sg77
(lp312
(VMARTIN
VG B
tp313
asg56
I2003
sg40
V23
p314
sbag1
(g2
g3
NtRp315
(dp316
g46
V[10.1111/j.1364-3703.2006.00364.x, 10.1111/J.1364-3703.2006.00364.X]
p317
sg42
VMOL PLANT PATHOL
p318
sg44
V7
sg77
(lp319
(VMAYROSE
VM
tp320
asg56
I2006
sg40
V593
p321
sbag1
(g2
g3
NtRp322
(dp323
g46
V10.1094/MPMI.2004.17.10.1051
p324
sg42
VMOL PLANT MICROBE IN
p325
sg44
V17
p326
sg77
(lp327
(VMOY
VP
tp328
asg56
I2004
sg40
V1051
p329
sbag1
(g2
g3
NtRp330
(dp331
g46
V10.1038/nature02039
p332
sg42
VNATURE
p333
sg44
V425
p334
sg77
(lp335
(VRADUTOIU
VS
tp336
asg56
I2003
sg40
V585
p337
sbag1
(g2
g3
NtRp338
(dp339
g46
Nsg42
VJ AM TAXATION ASS
p340
sg44
V12
p341
sg77
(lp342
(VSCHEPANSKI
VA
tp343
asg56
I1990
sg40
V60
p344
sbag1
(g2
g3
NtRp345
(dp346
g46
V10.1104/pp.105.060079
p347
sg42
VPLANT PHYSIOL
p348
sg44
V138
p349
sg77
(lp350
(VSILVERSTEIN
VK A T
tp351
asg56
I2005
sg40
VLANT
p352
sbag1
(g2
g3
NtRp353
(dp354
g46
V10.1126/science.1111025
p355
sg42
VSCIENCE
p356
sg44
V308
p357
sg77
(lp358
(VSMIT
VP
tp359
asg56
I2005
sg40
V1789
p360
sbag1
(g2
g3
NtRp361
(dp362
g46
V10.1104/pp.106.080986
p363
sg42
VPLANT PHYSIOL
p364
sg44
V141
p365
sg77
(lp366
(VSTACEY
VG
tp367
asg56
I2006
sg40
VLANT
p368
sbag1
(g2
g3
NtRp369
(dp370
g46
V10.1104/pp.104.057257
p371
sg42
VPLANT PHYSIOL
p372
sg44
V137
p373
sg77
(lp374
(VSUBRAMANIAN
VS
tp375
asg56
I2005
sg40
VLANT
p376
sbag1
(g2
g3
NtRp377
(dp378
g46
V10.1094/MPMI.2004.17.8.909
p379
sg42
VMOL PLANT MICROBE IN
p380
sg44
V17
p381
sg77
(lp382
(VTORREGROSA
VC
tp383
asg56
I2004
sg40
V909
p384
sbag1
(g2
g3
NtRp385
(dp386
g46
V10.1046/j.1365-313X.1993.04030555.x
p387
sg42
VPLANT J
p388
sg44
V4
sg77
(lp389
(VVASSE
VJ
tp390
asg56
I1993
sg40
VLANT
p391
sbag1
(g2
g3
NtRp392
(dp393
g46
V10.1073/pnas.0407926102
p394
sg42
VP NATL ACAD SCI USA
p395
sg44
V102
p396
sg77
(lp397
(VWEERASINGHE
VR R
tp398
asg56
I2005
sg40
V3147
p399
sbag1
(g2
g3
NtRp400
(dp401
g46
V10.1073/pnas.93.21.11751
p402
sg42
VP NATL ACAD SCI USA
p403
sg44
V93
p404
sg77
(lp405
(VYU
VY G
tp406
asg56
I1996
sg40
V11751
p407
sbag1
(g2
g3
NtRp408
(dp409
g46
V10.1186/1471-2229-6-26
p410
sg42
VBMC PLANT BIOL
p411
sg44
V6
sg77
(lp412
(VZABALA
VG
tp413
asg56
I2006
sg40
Nsbag1
(g2
g3
NtRp414
(dp415
g46
V10.1534/genetics.105.051185
p416
sg42
VGENETICS
p417
sg44
V172
p418
sg77
(lp419
(VZHU
VH Y
tp420
asg56
I2006
sg40
V2491
p421
sbag1
(g2
g3
NtRp422
(dp423
g46
V10.1094/MPMI.2002.15.6.529
p424
sg42
VMOL PLANT MICROBE IN
p425
sg44
V15
p426
sg77
(lp427
(VZHU
VH Y
tp428
asg56
I2002
sg40
V529
p429
sbag1
(g2
g3
NtRp430
(dp431
g46
V10.1094/MPMI-18-1161
p432
sg42
VMOL PLANT MICROBE IN
p433
sg44
V18
p434
sg77
(lp435
(VZOU
VJ J
tp436
asg56
I2005
sg40
V1161
p437
sbasb.