ccopy_reg
_reconstructor
p1
(ctethne.classes.paper
Paper
p2
c__builtin__
object
p3
NtRp4
(dp5
S'publisherCity'
p6
VROCKVILLE
p7
sS'reprintAddress'
p8
VTerry, N (reprint author), Univ Calif Berkeley, Dept Plant & Microbial Biol, Berkeley, CA 94720 USA.
p9
sS'WC'
p10
VPlant Sciences
p11
sS'GA'
p12
V523VC
p13
sS'abstract'
p14
VSelenocyanate (SeCN-) is a major contaminant in the effluents from some oil refineries, power plants, and in mine drainage water. In this study, we determined the potential of Indian mustard (Brassica juncea) and muskgrass (a macroalga, Chara canescens) for SeCN- phytoremediation in upland and wetland situations, respectively. The tolerance of Indian mustard to toxic levels of SeCN- was similar to or higher than other toxic forms of Se. Indian mustard treated with 20 muM SeCN- removed 30% (w/v) of the Se supplied in 5 d, accumulating 554 and 86 mug of Se g(-1) dry weight in roots and shoots, respectively. Under similar conditions, muskgrass removed approximately 9% (w/v) of the Se supplied as SeCN- and accumulated 27 mug of Se g(-1) dry weight. A biochemical pathway for SeCN- degradation was proposed for Indian mustard. Indian mustard and muskgrass efficiently degraded SeCN- as none of the Se accumulated by either organism remained in this form. Indian mustard accumulated predominantly organic Se, whereas muskgrass contained Se mainly as selenite and organic Se forms. Indian mustard produced volatile Se from SeCN- in the form of less toxic dimethylselenide. Se volatilization by Indian mustard accounted for only 0.7% (w/v) of the SeCN- removed, likely because the biochemical steps in the production of dimethylselenide from organic Se were rate limiting. Indian mustard is promising for the phytoremediation of SeCN--contaminated soil and water because of its remarkable abilities to phytoextract SeCN- and degrade all the accumulated SeCN- to other Se forms.
p15
sS'pageEnd'
p16
I633
sS'publisherAddress'
p17
V15501 MONONA DRIVE, ROCKVILLE, MD 20855 USA
p18
sS'documentType'
p19
VArticle
p20
sS'subject'
p21
VPlant Sciences
p22
sS'isoSource'
p23
VPlant Physiol.
p24
sS'timesCited'
p25
(lp26
I16
aVZ9 17
p27
asS'PT'
p28
VJ
sS'title'
p29
VSelenium Assimilation And Volatilization From Selenocyanate-Treated Indian Mustard And Muskgrass
p30
sS'ISSN'
p31
(lp32
V0032-0889
p33
aVJ9 PLANT PHYSIOL
p34
asS'authors_full'
p35
(lp36
(VDE SOUZA
VMP
tp37
a(VPICKERING
VIJ
tp38
a(VWALLA
VM
tp39
a(VTERRY
VN
tp40
asS'PG'
p41
I9
sS'PD'
p42
VFEB
p43
sS'pageStart'
p44
I625
sS'issue'
p45
I2
sS'RI'
p46
VPickering, Ingrid/A-4547-2013
p47
sS'journal'
p48
VPLANT PHYSIOLOGY
p49
sS'volume'
p50
V128
p51
sS'doi'
p52
V10.1104/pp.010686
p53
sS'authorAddress'
p54
(lp55
VUniv Calif Berkeley, Dept Plant & Microbial Biol, Berkeley, CA 94720 USA.
p56
aVStanford Linear Accelerator Ctr, Stanford Synchrotron Radiat Lab, Menlo Pk, CA 94025 USA.
p57
aVUniv S Carolina, Dept Chem & Biochem, Columbia, SC 29208 USA.
p58
asS'date'
p59
I2002
sS'ER'
p60
V
sS'publisher'
p61
VAMER SOC PLANT BIOLOGISTS
p62
sS'authorKeywords'
p63
(lp64
VRAY-ABSORPTION SPECTROSCOPY
p65
aVTHIOBACILLUS-THIOPARUS
p66
aVTHIOCYANATE HYDROLASE
p67
aVHYDROLYSIS PRODUCTS
p68
aVCARBONYL SULFIDE
p69
aVFOOD PLANTS
p70
aVWATER
p71
aVACCUMULATION
p72
aVBROCCOLI
p73
aVREMOVAL
p74
asS'language'
p75
VEnglish
p76
sS'wosid'
p77
VWOS:000173977100033
p78
sS'citationCount'
p79
I38
sS'authors_init'
p80
(lp81
(VDE SOUZA
VM P
tp82
a(VPICKERING
VI J
tp83
a(VWALLA
VM
tp84
a(VTERRY
VN
tp85
asS'citedReferences'
p86
(lp87
g1
(g2
g3
NtRp88
(dp89
g52
Nsg48
VAGRON J
p90
sg50
V82
p91
sg80
(lp92
(VABRAMS
VM M
tp93
asg59
I1990
sg44
V1127
p94
sbag1
(g2
g3
NtRp95
(dp96
g52
Nsg48
VPlant and Cell Physiology
p97
sg50
V39
p98
sg80
(lp99
(VAICHI
VMAKIKO
tp100
asg59
I1998
sg44
Vlant
p101
sbag1
(g2
g3
NtRp102
(dp103
g52
V10.1007/BF01416095
p104
sg48
VPLANT SOIL
p105
sg50
V162
p106
sg80
(lp107
(VANGUS
VJ F
tp108
asg59
I1994
sg44
VLANT
p109
sbag1
(g2
g3
NtRp110
(dp111
g52
V10.1046/j.1365-3040.2000.00541.x
p112
sg48
VPLANT CELL ENVIRON
p113
sg50
V23
p114
sg80
(lp115
(VATTIEH
VJ
tp116
asg59
I2000
sg44
VLANT
p117
sbag1
(g2
g3
NtRp118
(dp119
g52
V10.1080/00103629009368335
p120
sg48
VCOMMUN SOIL SCI PLAN
p121
sg50
V21
p122
sg80
(lp123
(VBANUELOS
VG S
tp124
asg59
I1990
sg44
V1717
p125
sbag1
(g2
g3
NtRp126
(dp127
g52
Nsg48
VSELENIUM MINING RECL
p128
sg50
Nsg80
(lp129
(VBANUELOS
VG S
tp130
asg59
I1995
sg44
V394
p131
sbag1
(g2
g3
NtRp132
(dp133
g52
Nsg48
VJ ENVIRON QUAL
p134
sg50
V19
p135
sg80
(lp136
(VBANUELOS
VG S
tp137
asg59
I1990
sg44
V772
p138
sbag1
(g2
g3
NtRp139
(dp140
g52
V10.1007/BF00012065
p141
sg48
VPLANT SOIL
p142
sg50
V181
p143
sg80
(lp144
(VBROWN
VP D
tp145
asg59
I1996
sg44
VLANT
p146
sbag1
(g2
g3
NtRp147
(dp148
g52
Nsg48
VAnais da Academia Brasileira de Ciencias
p149
sg50
V66
p150
sg80
(lp151
(VCARNEIRO
VMARIA EULALIA ROCHA
tp152
asg59
I1994
sg44
V213
p153
sbag1
(g2
g3
NtRp154
(dp155
g52
V10.1104/pp.117.4.1487
p156
sg48
VPLANT PHYSIOL
p157
sg50
V117
p158
sg80
(lp159
(VDE
VSOUZA M P
tp160
asg59
I1998
sg44
VLANT
p161
sbag1
(g2
g3
NtRp162
(dp163
g52
V10.1104/pp.119.2.565
p164
sg48
VPLANT PHYSIOL
p165
sg50
V119
p166
sg80
(lp167
(VDE
VSOUZA M P
tp168
asg59
I1999
sg44
VLANT
p169
sbag1
(g2
g3
NtRp170
(dp171
g52
V10.1021/es00005a015
p172
sg48
VENVIRON SCI TECHNOL
p173
sg50
V29
p174
sg80
(lp175
(VDUSHENKOV
VV
tp176
asg59
I1995
sg44
V1239
p177
sbag1
(g2
g3
NtRp178
(dp179
g52
Nsg48
VCRC CR REV FOOD SCI
p180
sg50
V18
p181
sg80
(lp182
(VFENWICK
VG R
tp183
asg59
I1983
sg44
V123
p184
sbag1
(g2
g3
NtRp185
(dp186
g52
V10.1021/jf980443a
p187
sg48
VJ AGR FOOD CHEM
p188
sg50
V46
p189
sg80
(lp190
(VFORNEY
VC F
tp191
asg59
I1998
sg44
V5295
p192
sbag1
(g2
g3
NtRp193
(dp194
g52
V10.1107/S090904950000683X
p195
sg48
VJ SYNCHROTRON RADIAT
p196
sg50
V7
sg80
(lp197
(VGEORGE
VM J
tp198
asg59
I2000
sg44
V283
p199
sbag1
(g2
g3
NtRp200
(dp201
g52
V10.1021/es970502l
p202
sg48
VENVIRON SCI TECHNOL
p203
sg50
V32
p204
sg80
(lp205
(VHANSEN
VD
tp206
asg59
I1998
sg44
V591
p207
sbag1
(g2
g3
NtRp208
(dp209
g52
V10.1038/182266a0
p210
sg48
VNATURE
p211
sg50
V182
p212
sg80
(lp213
(VHAPPOLD
VF C
tp214
asg59
I1958
sg44
V266
p215
sbag1
(g2
g3
NtRp216
(dp217
g52
Nsg48
VVie et Milieu
p218
sg50
Vie
p219
sg80
(lp220
(VHERRERA-SILVEIRA
VJ A
tp221
asg59
I1994
sg44
V257
p222
sbag1
(g2
g3
NtRp223
(dp224
g52
Nsg48
VB CALIF AGR STAT
p225
sg50
V346
p226
sg80
(lp227
(VHOAGLAND
VD R
tp228
asg59
I1938
sg44
Nsbag1
(g2
g3
NtRp229
(dp230
g52
Nsg48
VPHYTOREMEDIATION OF CONTAMINATED SOIL AND WATER
p231
sg50
Nsg80
(lp232
(VHORNE
VA J
tp233
asg59
I2000
sg44
VHYTOREMEDIATION
p234
sbag1
(g2
g3
NtRp235
(dp236
g52
V10.1016/S0031-9422(97)00425-1
p237
sg48
VPHYTOCHEMISTRY
p238
sg50
V47
p239
sg80
(lp240
(VJONES
VD A
tp241
asg59
I1998
sg44
VHYTOCHEMISTRY
p242
sbag1
(g2
g3
NtRp243
(dp244
g52
Nsg48
VJ BACTERIOL
p245
sg50
V180
p246
sg80
(lp247
(VKATAYAMA
VY
tp248
asg59
I1998
sg44
V2583
p249
sbag1
(g2
g3
NtRp250
(dp251
g52
Nsg48
VJ BIOL CHEM
p252
sg50
V267
p253
sg80
(lp254
(VKATAYAMA
VY
tp255
asg59
I1992
sg44
V9170
p256
sbag1
(g2
g3
NtRp257
(dp258
g52
V10.1111/j.1574-6968.1993.tb06577.x
p259
sg48
VFEMS MICROBIOL LETT
p260
sg50
V114
p261
sg80
(lp262
(VKATAYAMA
VY
tp263
asg59
I1993
sg44
V223
p264
sbag1
(g2
g3
NtRp265
(dp266
g52
V10.1021/es00005a014
p267
sg48
VENVIRON SCI TECHNOL
p268
sg50
V29
p269
sg80
(lp270
(VKUMAR
VPBAN
tp271
asg59
I1995
sg44
V1232
p272
sbag1
(g2
g3
NtRp273
(dp274
g52
V10.1104/pp.31.3.222
p275
sg48
VPLANT PHYSIOL
p276
sg50
V31
p277
sg80
(lp278
(VLEGGETT
VJ E
tp279
asg59
I1956
sg44
VLANT
p280
sbag1
(g2
g3
NtRp281
(dp282
g52
Nsg48
VJ ENVIRON QUAL
p283
sg50
V29
p284
sg80
(lp285
(VLIN
VZ Q
tp286
asg59
I2000
sg44
V1048
p287
sbag1
(g2
g3
NtRp288
(dp289
g52
V10.1021/es960138a
p290
sg48
VENVIRON SCI TECHNOL
p291
sg50
V31
p292
sg80
(lp293
(VMANCEAU
VA
tp294
asg59
I1997
sg44
V968
p295
sbag1
(g2
g3
NtRp296
(dp297
g52
Nsg48
VAtomic Absorption Newsletter
p298
sg50
V14
p299
sg80
(lp300
(VMARTIN
VT D
tp301
asg59
I1975
sg44
Nsbag1
(g2
g3
NtRp302
(dp303
g52
V10.1016/S0031-9422(00)84263-6
p304
sg48
VPHYTOCHEMISTRY
p305
sg50
V18
p306
sg80
(lp307
(VNG
VB H
tp308
asg59
I1979
sg44
VHYTOCHEMISTRY
p309
sbag1
(g2
g3
NtRp310
(dp311
g52
V10.1021/es00009a043
p312
sg48
VENVIRON SCI TECHNOL
p313
sg50
V29
p314
sg80
(lp315
(VPICKERING
VI J
tp316
asg59
I1995
sg44
V2456
p317
sbag1
(g2
g3
NtRp318
(dp319
g52
V10.1104/pp.119.1.123
p320
sg48
VPLANT PHYSIOL
p321
sg50
V119
p322
sg80
(lp323
(VPILON-SMITS
VE A H
tp324
asg59
I1999
sg44
VLANT
p325
sbag1
(g2
g3
NtRp326
(dp327
g52
V10.1146/annurev.arplant.51.1.401
p328
sg48
VANNU REV PLANT PHYS
p329
sg50
V51
p330
sg80
(lp331
(VTERRY
VN
tp332
asg59
I2000
sg44
V401
p333
sbag1
(g2
g3
NtRp334
(dp335
g52
V10.1016/S0041-0101(99)00128-2
p336
sg48
VTOXICON
p337
sg50
V38
p338
sg80
(lp339
(VVETTER
VJ
tp340
asg59
I2000
sg44
V11
p341
sbag1
(g2
g3
NtRp342
(dp343
g52
Nsg48
VCLIN TOXICOL
p344
sg50
V17
p345
sg80
(lp346
(VWILBER
VC G
tp347
asg59
I1980
sg44
V171
p348
sbag1
(g2
g3
NtRp349
(dp350
g52
Nsg48
VJ ENVIRON QUAL
p351
sg50
V30
p352
sg80
(lp353
(VYE
VZ H
tp354
asg59
I2001
sg44
V1464
p355
sbag1
(g2
g3
NtRp356
(dp357
g52
Nsg48
VJ GEN MICROBIOL
p358
sg50
V11
p359
sg80
(lp360
(VYOUATT
VJ B
tp361
asg59
I1954
sg44
V139
p362
sbag1
(g2
g3
NtRp363
(dp364
g52
Nsg48
VJ PLANT PHYSIOL
p365
sg50
V140
p366
sg80
(lp367
(VZAYED
VA M
tp368
asg59
I1992
sg44
V646
p369
sbasb.