ccopy_reg
_reconstructor
p1
(ctethne.classes.paper
Paper
p2
c__builtin__
object
p3
NtRp4
(dp5
S'publisherCity'
p6
VROCKVILLE
p7
sS'reprintAddress'
p8
VZhao, YD (reprint author), Univ Calif San Diego, Sect Cell & Dev Biol, La Jolla, CA 92093 USA.
p9
sS'WC'
p10
VPlant Sciences
p11
sS'GA'
p12
V019WT
p13
sS'abstract'
p14
VAlthough auxin response factors (ARFs) are the first well-characterized proteins that bind to the auxin response elements, elucidation of the roles of each ARF gene in auxin responses and plant development has been challenging. Here we show that ARF19 and ARF7 not only participate in auxin signaling, but also play a critical role in ethylene responses in Arabidopsis ( Arabidopsis thaliana) roots, indicating that the ARFs serve as a cross talk point between the two hormones. Both arf19 and arf7 mutants isolated from our forward genetic screens are auxin resistant and the arf19arf7 double mutant had stronger auxin resistance than the single mutants and displayed phenotypes not seen in the single mutants. Furthermore, we show that a genomic fragment of ARF19 not only complements arf19, but also rescues arf7. We conclude that ARF19 complements ARF7 at the protein level and that the ARF7 target sequences are also recognized by ARF19. Therefore, it is the differences in expression level/pattern and not the differences in protein sequences between the two ARFs that determines the relative contribution of the two ARFs in auxin signaling and plant development. In addition to being auxin resistant, arf19 has also ethylene-insensitive roots and ARF19 expression is induced by ethylene treatment. This work provides a sensitive genetic screen for uncovering auxin-resistant mutants including the described arf mutants. This study also provides a likely mechanism for coordination and integration of hormonal signals to regulate plant growth and development.
p15
sS'pageEnd'
p16
I908
sS'publisherAddress'
p17
V15501 MONONA DRIVE, ROCKVILLE, MD 20855 USA
p18
sS'documentType'
p19
VArticle
p20
sS'subject'
p21
VPlant Sciences
p22
sS'isoSource'
p23
VPlant Physiol.
p24
sS'timesCited'
p25
(lp26
I48
aVZ9 63
p27
asS'PT'
p28
VJ
sS'title'
p29
VA Role For Auxin Response Factor 19 In Auxin And Ethylene Signaling In Arabidopsis
p30
sS'ISSN'
p31
(lp32
V0032-0889
p33
aVJ9 PLANT PHYSIOL
p34
asS'authors_full'
p35
(lp36
(VLI
VJS
tp37
a(VDAI
VXH
tp38
a(VZHAO
VYD
tp39
asS'PG'
p40
I10
sS'PD'
p41
VMAR
p42
sS'pageStart'
p43
I899
sS'issue'
p44
I3
sS'journal'
p45
VPLANT PHYSIOLOGY
p46
sS'volume'
p47
V140
p48
sS'doi'
p49
V10.1104/pp.105.070987
p50
sS'emailAddress'
p51
Vyzhao@biomail.ucsd.edu
p52
sS'authorAddress'
p53
VUniv Calif San Diego, Sect Cell & Dev Biol, La Jolla, CA 92093 USA.
p54
sS'date'
p55
I2006
sS'ER'
p56
V
sS'publisher'
p57
VAMER SOC PLANT BIOLOGISTS
p58
sS'authorKeywords'
p59
(lp60
VDIFFERENTIAL GROWTH-RESPONSES
p61
aVLATERAL ROOT-FORMATION
p62
aVBOX PROTEIN TIR1
p63
aVAUX/IAA PROTEINS
p64
aVTRANSCRIPTION FACTOR
p65
aVINSENSITIVE MUTANTS
p66
aVREGULATED PROTEIN
p67
aVPLANT DEVELOPMENT
p68
aVRAPID INDUCTION
p69
aVCROSS-TALK
p70
asS'language'
p71
VEnglish
p72
sS'wosid'
p73
VWOS:000235868900010
p74
sS'citationCount'
p75
I58
sS'authors_init'
p76
(lp77
(VLI
VJ S
tp78
a(VDAI
VX H
tp79
a(VZHAO
VY D
tp80
asS'citedReferences'
p81
(lp82
g1
(g2
g3
NtRp83
(dp84
g49
V10.1073/pnas.91.1.326
p85
sg45
VP NATL ACAD SCI USA
p86
sg47
V91
p87
sg76
(lp88
(VABEL
VS
tp89
asg55
I1994
sg43
V326
p90
sbag1
(g2
g3
NtRp91
(dp92
g49
Nsg45
VJ BIOL CHEM
p93
sg47
V270
p94
sg76
(lp95
(VABEL
VS
tp96
asg55
I1995
sg43
V26020
p97
sbag1
(g2
g3
NtRp98
(dp99
g49
Nsg45
VJ BIOL CHEM
p100
sg47
V270
p101
sg76
(lp102
(VABEL
VS
tp103
asg55
I1995
sg43
V19093
p104
sbag1
(g2
g3
NtRp105
(dp106
g49
V10.1073/pnas.0438070100
p107
sg45
VP NATL ACAD SCI USA
p108
sg47
V100
p109
sg76
(lp110
(VALONSO
VJ M
tp111
asg55
I2003
sg43
V2992
p112
sbag1
(g2
g3
NtRp113
(dp114
g49
V10.1006/jmbi.1993.1537
p115
sg45
VJ MOL BIOL
p116
sg47
V233
p117
sg76
(lp118
(VBALLAS
VN
tp119
asg55
I1993
sg43
V580
p120
sbag1
(g2
g3
NtRp121
(dp122
g49
V10.1104/pp.104.044495
p123
sg45
VPLANT PHYSIOL
p124
sg47
V135
p125
sg76
(lp126
(VCHENG
VY F
tp127
asg55
I2004
sg43
VLANT
p128
sbag1
(g2
g3
NtRp129
(dp130
g49
V10.1046/j.1365-313x.1998.00343.x
p131
sg45
VPLANT J
p132
sg47
V16
p133
sg76
(lp134
(VCLOUGH
VS J
tp135
asg55
I1998
sg43
VLANT
p136
sbag1
(g2
g3
NtRp137
(dp138
g49
V10.1073/pnas.0500185102
p139
sg45
VP NATL ACAD SCI USA
p140
sg47
V102
p141
sg76
(lp142
(VDAI
VX H
tp143
asg55
I2005
sg43
V3129
p144
sbag1
(g2
g3
NtRp145
(dp146
g49
V10.1111/j.1365-313X.2004.02156.x
p147
sg45
VPLANT J
p148
sg47
V39
p149
sg76
(lp150
(VDE
VPAEPE A
tp151
asg55
I2004
sg43
VLANT
p152
sbag1
(g2
g3
NtRp153
(dp154
g49
V10.1016/j.tplants.2004.04.003
p155
sg45
VTRENDS PLANT SCI
p156
sg47
V9
sg76
(lp157
(VDHARMASIRI
VN
tp158
asg55
I2004
sg43
V302
p159
sbag1
(g2
g3
NtRp160
(dp161
g49
V10.1038/nature03543
p162
sg45
VNATURE
p163
sg47
V435
p164
sg76
(lp165
(VDHARMASIRI
VN
tp166
asg55
I2005
sg43
V441
p167
sbag1
(g2
g3
NtRp168
(dp169
g49
V10.1046/j.0960-7412.2001.01201.x
p170
sg45
VPLANT J
p171
sg47
V29
p172
sg76
(lp173
(VFUKAKI
VH
tp174
asg55
I2002
sg43
VLANT
p175
sbag1
(g2
g3
NtRp176
(dp177
g49
V10.1038/35104500
p178
sg45
VNATURE
p179
sg47
V414
p180
sg76
(lp181
(VGRAY
VW M
tp182
asg55
I2001
sg43
V271
p183
sbag1
(g2
g3
NtRp184
(dp185
g49
V10.1016/S0092-8674(03)00969-3
p186
sg45
VCELL
p187
sg47
V115
p188
sg76
(lp189
(VGUO
VH W
tp190
asg55
I2003
sg43
V667
p191
sbag1
(g2
g3
NtRp192
(dp193
g49
Nsg45
VMOL CELL BIOL
p194
sg47
V5
sg76
(lp195
(VHAGEN
VG
tp196
asg55
I1985
sg43
V1197
p197
sbag1
(g2
g3
NtRp198
(dp199
g49
Nsg45
VDEVELOPMENT
p200
sg47
V126
p201
sg76
(lp202
(VHAMANN
VT
tp203
asg55
I1999
sg43
V1387
p204
sbag1
(g2
g3
NtRp205
(dp206
g49
V10.1093/emboj/17.5.1405
p207
sg45
VEMBO J
p208
sg47
V17
p209
sg76
(lp210
(VHARDTKE
VC S
tp211
asg55
I1998
sg43
V1405
p212
sbag1
(g2
g3
NtRp213
(dp214
g49
V10.1242/dev.00925
p215
sg45
VDEVELOPMENT
p216
sg47
V131
p217
sg76
(lp218
(VHARDTKE
VC S
tp219
asg55
I2004
sg43
V1089
p220
sbag1
(g2
g3
NtRp221
(dp222
g49
V10.1105/tpc.12.5.757
p223
sg45
VPLANT CELL
p224
sg47
V12
p225
sg76
(lp226
(VHARPER
VR M
tp227
asg55
I2000
sg43
VLANT
p228
sbag1
(g2
g3
NtRp229
(dp230
g49
V10.1093/emboj/cdg335
p231
sg45
VEMBO J
p232
sg47
V22
p233
sg76
(lp234
(VHELLMANN
VH
tp235
asg55
I2003
sg43
V3314
p236
sbag1
(g2
g3
NtRp237
(dp238
g49
V10.1111/j.1365-3040.1994.tb00147.x
p239
sg45
VPLANT CELL ENVIRON
p240
sg47
V17
p241
sg76
(lp242
(VHOBBIE
VL
tp243
asg55
I1994
sg43
VLANT
p244
sbag1
(g2
g3
NtRp245
(dp246
g49
V10.1016/j.cub.2005.03.012
p247
sg45
VCURR BIOL
p248
sg47
V15
p249
sg76
(lp250
(VKEPINSKI
VS
tp251
asg55
I2005
sg43
VR208
p252
sbag1
(g2
g3
NtRp253
(dp254
g49
V10.1038/nature03542
p255
sg45
VNATURE
p256
sg47
V435
p257
sg76
(lp258
(VKEPINSKI
VS
tp259
asg55
I2005
sg43
V446
p260
sbag1
(g2
g3
NtRp261
(dp262
g49
V10.1046/j.1365-313X.1998.00179.x
p263
sg45
VPLANT J
p264
sg47
V15
p265
sg76
(lp266
(VKIM
VB C
tp267
asg55
I1998
sg43
VLANT
p268
sbag1
(g2
g3
NtRp269
(dp270
g49
V10.1046/j.1365-313x.1996.10030403.x
p271
sg45
VPLANT J
p272
sg47
V10
p273
sg76
(lp274
(VLEYSER
VH M O
tp275
asg55
I1996
sg43
VLANT
p276
sbag1
(g2
g3
NtRp277
(dp278
g49
V10.1038/364161a0
p279
sg45
VNATURE
p280
sg47
V364
p281
sg76
(lp282
(VLEYSER
VH M O
tp283
asg55
I1993
sg43
V161
p284
sbag1
(g2
g3
NtRp285
(dp286
g49
V10.1016/j.devcel.2004.07.002
p287
sg45
VDEV CELL
p288
sg47
V7
sg76
(lp289
(VLI
VH
tp290
asg55
I2004
sg43
V193
p291
sbag1
(g2
g3
NtRp292
(dp293
g49
V10.1023/A:1015255030047
p294
sg45
VPLANT MOL BIOL
p295
sg47
V49
p296
sg76
(lp297
(VLISCUM
VE
tp298
asg55
I2002
sg43
VLANT
p299
sbag1
(g2
g3
NtRp300
(dp301
g49
V10.1104/pp.123.3.795
p302
sg45
VPLANT PHYSIOL
p303
sg47
V123
p304
sg76
(lp305
(VLUKOWITZ
VW
tp306
asg55
I2000
sg43
VLANT
p307
sbag1
(g2
g3
NtRp308
(dp309
g49
V10.1104/pp.123.2.563
p310
sg45
VPLANT PHYSIOL
p311
sg47
V123
p312
sg76
(lp313
(VNAGPAL
VP
tp314
asg55
I2000
sg43
VLANT
p315
sbag1
(g2
g3
NtRp316
(dp317
g49
V10.1242/dev.01955
p318
sg45
VDEVELOPMENT
p319
sg47
V132
p320
sg76
(lp321
(VNAGPAL
VP
tp322
asg55
I2005
sg43
V4107
p323
sbag1
(g2
g3
NtRp324
(dp325
g49
V10.1111/j.1365-313X.2005.02426.x
p326
sg45
VPLANT J
p327
sg47
V43
p328
sg76
(lp329
(VOKUSHIMA
VY
tp330
asg55
I2005
sg43
VLANT
p331
sbag1
(g2
g3
NtRp332
(dp333
g49
V10.1105/tpc.104.028316
p334
sg45
VPLANT CELL
p335
sg47
V17
p336
sg76
(lp337
(VOKUSHIMA
VY
tp338
asg55
I2005
sg43
VLANT
p339
sbag1
(g2
g3
NtRp340
(dp341
g49
V10.1105/tpc.13.4.829
p342
sg45
VPLANT CELL
p343
sg47
V13
p344
sg76
(lp345
(VOUELLET
VF
tp346
asg55
I2001
sg43
VLANT
p347
sbag1
(g2
g3
NtRp348
(dp349
g49
V10.1016/S0092-8674(03)00968-1
p350
sg45
VCELL
p351
sg47
V115
p352
sg76
(lp353
(VPOTUSCHAK
VT
tp354
asg55
I2003
sg43
V679
p355
sbag1
(g2
g3
NtRp356
(dp357
g49
V10.1016/S1360-1385(01)02042-8
p358
sg45
VTRENDS PLANT SCI
p359
sg47
V6
sg76
(lp360
(VREED
VJ W
tp361
asg55
I2001
sg43
V420
p362
sbag1
(g2
g3
NtRp363
(dp364
g49
V10.1104/pp.104.039669
p365
sg45
VPLANT PHYSIOL
p366
sg47
V135
p367
sg76
(lp368
(VREMINGTON
VD L
tp369
asg55
I2004
sg43
VLANT
p370
sbag1
(g2
g3
NtRp371
(dp372
g49
Nsg45
VDEVELOPMENT
p373
sg47
V124
p374
sg76
(lp375
(VSESSIONS
VA
tp376
asg55
I1997
sg43
V4481
p377
sbag1
(g2
g3
NtRp378
(dp379
g49
V10.1101/gad.12.23.3703
p380
sg45
VGENE DEV
p381
sg47
V12
p382
sg76
(lp383
(VSOLANO
VR
tp384
asg55
I1998
sg43
V3703
p385
sbag1
(g2
g3
NtRp386
(dp387
g49
V10.1105/tpc.105.033365
p388
sg45
VPLANT CELL
p389
sg47
V17
p390
sg76
(lp391
(VSTEPANOVA
VA N
tp392
asg55
I2005
sg43
VLANT
p393
sbag1
(g2
g3
NtRp394
(dp395
g49
V10.1104/pp.118.4.1265
p396
sg45
VPLANT PHYSIOL
p397
sg47
V118
p398
sg76
(lp399
(VSTOWE-EVANS
VE L
tp400
asg55
I1998
sg43
VLANT
p401
sbag1
(g2
g3
NtRp402
(dp403
g49
Nsg45
VPLANT MOL BIOL
p404
sg47
V49
p405
sg76
(lp406
(VSWARUP
VR
tp407
asg55
I2002
sg43
VLANT
p408
sbag1
(g2
g3
NtRp409
(dp410
g49
V10.1105/tpc.108630
p411
sg45
VPLANT CELL
p412
sg47
V16
p413
sg76
(lp414
(VTATEMATSU
VK
tp415
asg55
I2004
sg43
VLANT
p416
sbag1
(g2
g3
NtRp417
(dp418
g49
V10.1016/0022-2836(85)90280-3
p419
sg45
VJ MOL BIOL
p420
sg47
V183
p421
sg76
(lp422
(VTHEOLOGIS
VA
tp423
asg55
I1985
sg43
V53
p424
sbag1
(g2
g3
NtRp425
(dp426
g49
Nsg45
VBiotechnology
p427
sg47
V12
p428
sg76
(lp429
(VTHEOLOGIS
VA
tp430
asg55
I1989
sg43
V229
p431
sbag1
(g2
g3
NtRp432
(dp433
g49
V10.1111/j.1365-313X.2004.02220.x
p434
sg45
VPLANT J
p435
sg47
V40
p436
sg76
(lp437
(VTIAN
VC
tp438
asg55
I2004
sg43
VLANT
p439
sbag1
(g2
g3
NtRp440
(dp441
g49
V10.1105/tpc.017384
p442
sg45
VPLANT CELL
p443
sg47
V16
p444
sg76
(lp445
(VTIWARI
VS B
tp446
asg55
I2004
sg43
VLANT
p447
sbag1
(g2
g3
NtRp448
(dp449
g49
V10.1046/j.1365-313X.1999.00538.x
p450
sg45
VPLANT J
p451
sg47
V19
p452
sg76
(lp453
(VULMASOV
VT
tp454
asg55
I1999
sg43
VLANT
p455
sbag1
(g2
g3
NtRp456
(dp457
g49
V10.1126/science.276.5320.1865
p458
sg45
VSCIENCE
p459
sg47
V276
p460
sg76
(lp461
(VULMASOV
VT
tp462
asg55
I1997
sg43
V1865
p463
sbag1
(g2
g3
NtRp464
(dp465
g49
Nsg45
VPLANT CELL
p466
sg47
V7
sg76
(lp467
(VULMASOV
VT
tp468
asg55
I1995
sg43
VLANT
p469
sbag1
(g2
g3
NtRp470
(dp471
g49
V10.1073/pnas.96.10.5844
p472
sg45
VP NATL ACAD SCI USA
p473
sg47
V96
p474
sg76
(lp475
(VULMASOV
VT
tp476
asg55
I1999
sg43
V5844
p477
sbag1
(g2
g3
NtRp478
(dp479
g49
V10.1104/pp.010850
p480
sg45
VPLANT PHYSIOL
p481
sg47
V131
p482
sg76
(lp483
(VVANDENBUSSCHE
VF
tp484
asg55
I2003
sg43
VLANT
p485
sbag1
(g2
g3
NtRp486
(dp487
g49
V10.1111/j.1365-313X.2005.02432.x
p488
sg45
VPLANT J
p489
sg47
V43
p490
sg76
(lp491
(VWILMOTH
VJ C
tp492
asg55
I2005
sg43
VLANT
p493
sbag1
(g2
g3
NtRp494
(dp495
g49
V10.1093/aob/mci083
p496
sg45
VANN BOT
p497
sg47
V95
p498
sg76
(lp499
(VWOODWARD
VA W
tp500
asg55
I2005
sg43
V707
p501
sbag1
(g2
g3
NtRp502
(dp503
g49
V10.1046/j.1365-313x.2000.00703.x
p504
sg45
VPLANT J
p505
sg47
V21
p506
sg76
(lp507
(VWORLEY
VC K
tp508
asg55
I2000
sg43
VLANT
p509
sbag1
(g2
g3
NtRp510
(dp511
g49
V10.1111/j.1365-313X.2004.02254.x
p512
sg45
VPLANT J
p513
sg47
V40
p514
sg76
(lp515
(VYANG
VX Q
tp516
asg55
I2004
sg43
VLANT
p517
sbag1
(g2
g3
NtRp518
(dp519
g49
V10.1126/science.1084161
p520
sg45
VSCIENCE
p521
sg47
V301
p522
sg76
(lp523
(VZHAO
VY D
tp524
asg55
I2003
sg43
V1107
p525
sbag1
(g2
g3
NtRp526
(dp527
g49
V10.1126/science.291.5502.306
p528
sg45
VSCIENCE
p529
sg47
V291
p530
sg76
(lp531
(VZHAO
VY D
tp532
asg55
I2001
sg43
V306
p533
sbasb.