ccopy_reg
_reconstructor
p1
(ctethne.classes.paper
Paper
p2
c__builtin__
object
p3
NtRp4
(dp5
S'publisherCity'
p6
VROCKVILLE
p7
sS'reprintAddress'
p8
VScholthof, HB (reprint author), Texas A&M Univ, Dept Plant Pathol & Microbiol, 2132 TAMU, College Stn, TX 77843 USA.
p9
sS'WC'
p10
VPlant Sciences
p11
sS'GA'
p12
V585AZ
p13
sS'abstract'
p14
VTomato bushy stunt virus and its cell-to-cell movement protein (MP; P22) provide valuable tools to study trafficking of macromolecules through plants. This study shows that wild-type P22 and selected movement-defective P22 amino acid substitution mutants were equivalent for biochemical features commonly associated with MPs (i.e. RNA binding, phosphorylation, and membrane partitioning). This generated the hypothesis that their movement defect was caused by improper interaction between the P22 mutants and one or more host factors. To test this, P22 was used as bait in a yeast (Saccharomyces cerevisiae) two-hybrid screen with a tobacco (Nicotiana tabacum) cDNA library, which identified a new plant homeodomain leucine-zipper protein that reproducibly interacted with P22 but not with various control proteins. These results were confirmed with an independent in vitro binding test. An mRNA for the host protein was detected in plants, and its accumulation was enhanced upon Tomato bushy stunt virus infection of two plant species. The significance of this interaction was further demonstrated by the failure of the homeodomain protein to interact efficiently with two of the well-defined movement-deficient P22 mutants in yeast and in vitro. This is the first report, to our knowledge, that a new plant homeodomain leucine-zipper protein interacts specifically and in a functionally relevant manner with a plant virus MP.
p15
sS'pageEnd'
p16
I1532
sS'publisherAddress'
p17
V15501 MONONA DRIVE, ROCKVILLE, MD 20855 USA
p18
sS'documentType'
p19
VArticle
p20
sS'subject'
p21
VPlant Sciences
p22
sS'isoSource'
p23
VPlant Physiol.
p24
sS'timesCited'
p25
(lp26
I38
aVZ9 43
p27
asS'PT'
p28
VJ
sS'title'
p29
VA Novel Plant Homeodomain Protein Interacts In A Functionally Relevant Manner With A Virus Movement Protein
p30
sS'ISSN'
p31
(lp32
V0032-0889
p33
aVJ9 PLANT PHYSIOL
p34
asS'authors_full'
p35
(lp36
(VDESVOYES
VB
tp37
a(VFAURERABASSE
VS
tp38
a(VCHEN
VMH
tp39
a(VPARK
VJW
tp40
a(VSCHOLTHOF
VHB
tp41
asS'PG'
p42
I12
sS'PD'
p43
VAUG
p44
sS'pageStart'
p45
I1521
sS'issue'
p46
I4
sS'journal'
p47
VPLANT PHYSIOLOGY
p48
sS'volume'
p49
V129
p50
sS'doi'
p51
V10.1104/pp.004754
p52
sS'authorAddress'
p53
(lp54
VTexas A&M Univ, Dept Plant Pathol & Microbiol, College Stn, TX 77843 USA.
p55
aVTexas A&M Univ, Intercollegiate Fac Virol, College Stn, TX 77843 USA.
p56
aVSUNY Stony Brook, Dept Biochem & Cell Biol, Stony Brook, NY 11794 USA.
p57
asS'date'
p58
I2002
sS'ER'
p59
V
sS'publisher'
p60
VAMER SOC PLANT BIOLOGISTS
p61
sS'authorKeywords'
p62
(lp63
VTOBACCO MOSAIC-VIRUS
p64
aVCELL-TO-CELL
p65
aVBUSHY STUNT VIRUS
p66
aVTOMBUSVIRUS RNA ACCUMULATION
p67
aVTRANSCRIPTION FACTORS
p68
aVSYSTEMIC INVASION
p69
aV2-HYBRID SYSTEM
p70
aVMESSENGER-RNA
p71
aVNESTED GENES
p72
aVTRAFFICKING
p73
asS'language'
p74
VEnglish
p75
sS'wosid'
p76
VWOS:000177502100012
p77
sS'citationCount'
p78
I60
sS'authors_init'
p79
(lp80
(VDESVOYES
VB
tp81
a(VFAURERABASSE
VS
tp82
a(VCHEN
VM H
tp83
a(VPARK
VJ W
tp84
a(VSCHOLTHOF
VH B
tp85
asS'citedReferences'
p86
(lp87
g1
(g2
g3
NtRp88
(dp89
g51
Nsg47
VBIOTECHNIQUES
p90
sg49
V14
p91
sg79
(lp92
(VBARTEL
VP
tp93
asg58
I1993
sg45
V920
p94
sbag1
(g2
g3
NtRp95
(dp96
g51
V10.1128/JVI.74.23.11339-11346.2000
p97
sg47
VJ VIROL
p98
sg49
V74
p99
sg79
(lp100
(VBOYKO
VV
tp101
asg58
I2000
sg45
V11339
p102
sbag1
(g2
g3
NtRp103
(dp104
g51
Nsg47
VPLANT CELL
p105
sg49
V8
sg79
(lp106
(VCARRINGTON
VJ C
tp107
asg58
I1996
sg45
VLANT
p108
sbag1
(g2
g3
NtRp109
(dp110
g51
V10.1016/S0167-4781(98)00119-5
p111
sg47
VBBA
p112
sg49
V1442
p113
sg79
(lp114
(VCHAN
VR L
tp115
asg58
I1998
sg45
V1
sbag1
(g2
g3
NtRp116
(dp117
g51
Nsg47
VPLANT J
p118
sg49
V2
sg79
(lp119
(VCHAPMAN
VS
tp120
asg58
I1992
sg45
VLANT
p121
sbag1
(g2
g3
NtRp122
(dp123
g51
V10.1093/emboj/19.5.913
p124
sg47
VEMBO J
p125
sg49
V19
p126
sg79
(lp127
(VCHEN
VM H
tp128
asg58
I2000
sg45
V913
p129
sbag1
(g2
g3
NtRp130
(dp131
g51
V10.1094/MPMI.1999.12.4.285
p132
sg47
VMOL PLANT MICROBE IN
p133
sg49
V12
p134
sg79
(lp135
(VCHU
VM
tp136
asg58
I1999
sg45
V285
p137
sbag1
(g2
g3
NtRp138
(dp139
g51
V10.1006/viro.1999.0071
p140
sg47
VVIROLOGY
p141
sg49
VIROLOGY
p142
sg79
(lp143
(VCHU
VM
tp144
asg58
I2000
sg45
V79
p145
sbag1
(g2
g3
NtRp146
(dp147
g51
V10.1146/annurev.micro.47.1.167
p148
sg47
VANNU REV MICROBIOL
p149
sg49
V47
p150
sg79
(lp151
(VCITOVSKY
VV
tp152
asg58
I1993
sg45
V167
p153
sbag1
(g2
g3
NtRp154
(dp155
g51
V10.1101/gad.7.5.904
p156
sg47
VGENE DEV
p157
sg49
V7
sg79
(lp158
(VCITOVSKY
VV
tp159
asg58
I1993
sg45
V904
p160
sbag1
(g2
g3
NtRp161
(dp162
g51
Nsg47
VPlant Cell
p163
sg49
V11
p164
sg79
(lp165
(VCREAGER
VANGELA N H
tp166
asg58
I1999
sg45
Vlant
p167
sbag1
(g2
g3
NtRp168
(dp169
g51
V10.1006/viro.1993.1310
p170
sg47
VVIROLOGY
p171
sg49
VIROLOGY
p172
sg79
(lp173
(VDALMAY
VT
tp174
asg58
I1993
sg45
V697
p175
sbag1
(g2
g3
NtRp176
(dp177
g51
V10.1073/pnas.87.9.3284
p178
sg47
VP NATL ACAD SCI USA
p179
sg49
V87
p180
sg79
(lp181
(VDEOM
VC M
tp182
asg58
I1990
sg45
V3284
p183
sbag1
(g2
g3
NtRp184
(dp185
g51
V10.1016/S0014-5793(00)02177-3
p186
sg47
VFEBS LETT
p187
sg49
V485
p188
sg79
(lp189
(VDESVOYES
VB
tp190
asg58
I2000
sg45
V25
p191
sbag1
(g2
g3
NtRp192
(dp193
g51
V10.1105/tpc.4.8.915
p194
sg47
VPLANT CELL
p195
sg49
V4
sg79
(lp196
(VDING
VB
tp197
asg58
I1992
sg45
VLANT
p198
sbag1
(g2
g3
NtRp199
(dp200
g51
V10.1016/S0014-5793(99)01447-7
p201
sg47
VFEBS LETT
p202
sg49
V461
p203
sg79
(lp204
(VDOROKHOV
VY L
tp205
asg58
I1999
sg45
V223
p206
sbag1
(g2
g3
NtRp207
(dp208
g51
V10.1146/annurev.arplant.48.1.27
p209
sg47
VAnnual Review of Plant Physiology and Plant Molecular Biology
p210
sg49
V48
p211
sg79
(lp212
(VGHOSHROY
VS
tp213
asg58
I1997
sg45
V27
p214
sbag1
(g2
g3
NtRp215
(dp216
g51
Nsg47
VTRENDS PLANT SCI
p217
sg49
V1
sg79
(lp218
(VGILBERTSON
VR L
tp219
asg58
I1996
sg45
V260
p220
sbag1
(g2
g3
NtRp221
(dp222
g51
V10.1016/S0168-9525(00)02163-6
p223
sg47
VTRENDS GENET
p224
sg49
V17
p225
sg79
(lp226
(VHAKE
VS
tp227
asg58
I2001
sg45
V2
sbag1
(g2
g3
NtRp228
(dp229
g51
V10.1126/science.270.5244.1983
p230
sg47
VSCIENCE
p231
sg49
V270
p232
sg79
(lp233
(VHEINLEIN
VM
tp234
asg58
I1995
sg45
V1983
p235
sbag1
(g2
g3
NtRp236
(dp237
g51
Nsg47
VPLANT CELL
p238
sg49
V10
p239
sg79
(lp240
(VHEINLEIN
VM
tp241
asg58
I1998
sg45
VLANT
p242
sbag1
(g2
g3
NtRp243
(dp244
g51
Nsg47
VMOL CELL BIOL
p245
sg49
V15
p246
sg79
(lp247
(VHOLLENBERG
VS M
tp248
asg58
I1995
sg45
V3813
p249
sbag1
(g2
g3
NtRp250
(dp251
g51
V10.1023/A:1012491913431
p252
sg47
VPLANT MOL BIOL
p253
sg49
V47
p254
sg79
(lp255
(VHUANG
VZ
tp256
asg58
I2001
sg45
VLANT
p257
sbag1
(g2
g3
NtRp258
(dp259
g51
V10.1105/tpc.13.12.2569
p260
sg47
VPLANT CELL
p261
sg49
V13
p262
sg79
(lp263
(VJACKSON
VD
tp264
asg58
I2001
sg45
VLANT
p265
sbag1
(g2
g3
NtRp266
(dp267
g51
V10.1006/viro.1999.9842
p268
sg47
VVIROLOGY
p269
sg49
VIROLOGY
p270
sg79
(lp271
(VKARPOVA
VO V
tp272
asg58
I1999
sg45
V20
p273
sbag1
(g2
g3
NtRp274
(dp275
g51
Nsg47
VSCIENCE
p276
sg49
V293
p277
sg79
(lp278
(VKIM
VM
tp279
asg58
I2001
sg45
V387
p280
sbag1
(g2
g3
NtRp281
(dp282
g51
V10.1093/emboj/19.12.2856
p283
sg47
VEMBO J
p284
sg49
V19
p285
sg79
(lp286
(VKRAGLER
VF
tp287
asg58
I2000
sg45
V2856
p288
sbag1
(g2
g3
NtRp289
(dp290
g51
Nsg47
VPLANT CELL
p291
sg49
V11
p292
sg79
(lp293
(VLAZAROWITZ
VS G
tp294
asg58
I1999
sg45
VLANT
p295
sbag1
(g2
g3
NtRp296
(dp297
g51
V10.1016/S0966-842X(00)01901-6
p298
sg47
VTRENDS MICROBIOL
p299
sg49
V9
sg79
(lp300
(VLEE
VJ Y
tp301
asg58
I2001
sg45
V5
sbag1
(g2
g3
NtRp302
(dp303
g51
V10.1007/PL00008124
p304
sg47
VPLANTA
p305
sg49
V210
p306
sg79
(lp307
(VLEE
VJ Y
tp308
asg58
I2000
sg45
VLANTA
p309
sbag1
(g2
g3
NtRp310
(dp311
g51
Nsg47
VJ GEN VIROL
p312
sg49
V82
p313
sg79
(lp314
(VLIN
VB
tp315
asg58
I2001
sg45
V1245
p316
sbag1
(g2
g3
NtRp317
(dp318
g51
V10.1126/science.270.5244.1980
p319
sg47
VSCIENCE
p320
sg49
V270
p321
sg79
(lp322
(VLUCAS
VW J
tp323
asg58
I1995
sg45
V1980
p324
sbag1
(g2
g3
NtRp325
(dp326
g51
Nsg47
VPLANT VIRUSES
p327
sg49
V3
sg79
(lp328
(VMARTELLI
VG P
tp329
asg58
I1988
sg45
VLANT
p330
sbag1
(g2
g3
NtRp331
(dp332
g51
V10.1073/pnas.97.22.12345
p333
sg47
VP NATL ACAD SCI USA
p334
sg49
V97
p335
sg79
(lp336
(VMAS
VP
tp337
asg58
I2000
sg45
V12345
p338
sbag1
(g2
g3
NtRp339
(dp340
g51
Nsg47
VMOL CELLS
p341
sg49
V12
p342
sg79
(lp343
(VMATSUSHITA
VY
tp344
asg58
I2001
sg45
V57
p345
sbag1
(g2
g3
NtRp346
(dp347
g51
Nsg47
VPLANT CELL
p348
sg49
V7
sg79
(lp349
(VMCLEAN
VB G
tp350
asg58
I1995
sg45
VLANT
p351
sbag1
(g2
g3
NtRp352
(dp353
g51
Nsg47
VJ GEN VIROL
p354
sg49
V81
p355
sg79
(lp356
(VMELCHER
VU
tp357
asg58
I2000
sg45
V257
p358
sbag1
(g2
g3
NtRp359
(dp360
g51
Nsg47
VPROG BOT
p361
sg49
V59
p362
sg79
(lp363
(VNELSON
VR S
tp364
asg58
I1998
sg45
VROG
p365
sbag1
(g2
g3
NtRp366
(dp367
g51
Nsg47
VPhytopathology
p368
sg49
V90
p369
sg79
(lp370
(VPARK
VJ W
tp371
asg58
I2000
sg45
Vhytopathology
p372
sbag1
(g2
g3
NtRp373
(dp374
g51
Nsg47
VDEVELOPMENT
p375
sg49
V122
p376
sg79
(lp377
(VPERBAL
VM C
tp378
asg58
I1996
sg45
V3433
p379
sbag1
(g2
g3
NtRp380
(dp381
g51
V10.1094/MPMI.2002.15.3.269
p382
sg47
VMOL PLANT MICROBE IN
p383
sg49
V15
p384
sg79
(lp385
(VQIU
VW P
tp386
asg58
I2002
sg45
V269
p387
sbag1
(g2
g3
NtRp388
(dp389
g51
V10.1006/viro.1999.9630
p390
sg47
VVIROLOGY
p391
sg49
VIROLOGY
p392
sg79
(lp393
(VRAY
VD
tp394
asg58
I1999
sg45
V162
p395
sbag1
(g2
g3
NtRp396
(dp397
g51
V10.1016/0042-6822(91)90899-M
p398
sg47
VVIROLOGY
p399
sg49
VIROLOGY
p400
sg79
(lp401
(VROCHON
VD M
tp402
asg58
I1991
sg45
V656
p403
sbag1
(g2
g3
NtRp404
(dp405
g51
V10.1016/S0065-3527(08)60334-6
p406
sg47
VADV VIRUS RES
p407
sg49
V44
p408
sg79
(lp409
(VRUSSO
VM
tp410
asg58
I1994
sg45
V381
p411
sbag1
(g2
g3
NtRp412
(dp413
g51
Nsg47
VMOL CLONING LAB MANU
p414
sg49
Nsg79
(lp415
(VSAMBROOK
VJ
tp416
asg58
I1989
sg45
Nsbag1
(g2
g3
NtRp417
(dp418
g51
V10.1006/viro.1997.8754
p419
sg47
VVIROLOGY
p420
sg49
VIROLOGY
p421
sg79
(lp422
(VSCHOLTHOF
VH B
tp423
asg58
I1997
sg45
V56
p424
sbag1
(g2
g3
NtRp425
(dp426
g51
V10.1094/MPMI.1999.12.8.670
p427
sg47
VMOL PLANT MICROBE IN
p428
sg49
V12
p429
sg79
(lp430
(VSCHOLTHOF
VH B
tp431
asg58
I1999
sg45
V670
p432
sbag1
(g2
g3
NtRp433
(dp434
g51
Nsg47
VPLANT CELL
p435
sg49
V7
sg79
(lp436
(VSCHOLTHOF
VH B
tp437
asg58
I1995
sg45
VLANT
p438
sbag1
(g2
g3
NtRp439
(dp440
g51
V10.1006/viro.1995.0015
p441
sg47
VVIROLOGY
p442
sg49
VIROLOGY
p443
sg79
(lp444
(VSCHOLTHOF
VH B
tp445
asg58
I1995
sg45
V425
p446
sbag1
(g2
g3
NtRp447
(dp448
g51
V10.1094/MPMI-6-309
p449
sg47
VMOL PLANT MICROBE IN
p450
sg49
V6
sg79
(lp451
(VSCHOLTHOF
VH B
tp452
asg58
I1993
sg45
V309
p453
sbag1
(g2
g3
NtRp454
(dp455
g51
V10.1006/viro.1994.1532
p456
sg47
VVIROLOGY
p457
sg49
VIROLOGY
p458
sg79
(lp459
(VSCHOLTHOF
VK B G
tp460
asg58
I1994
sg45
V279
p461
sbag1
(g2
g3
NtRp462
(dp463
g51
Nsg47
VTOBACCO MOSAIC VIRUS
p464
sg49
Nsg79
(lp465
(VSCHOLTHOF
VK B G
tp466
asg58
I1999
sg45
Nsbag1
(g2
g3
NtRp467
(dp468
g51
V10.1006/viro.1995.1162
p469
sg47
VVIROLOGY
p470
sg49
VIROLOGY
p471
sg79
(lp472
(VSCHOLTHOF
VK B G
tp473
asg58
I1995
sg45
V365
p474
sbag1
(g2
g3
NtRp475
(dp476
g51
V10.1126/science.289.5480.779
p477
sg47
VSCIENCE
p478
sg49
V289
p479
sg79
(lp480
(VSESSIONS
VA
tp481
asg58
I2000
sg45
V779
p482
sbag1
(g2
g3
NtRp483
(dp484
g51
V10.1073/pnas.030548397
p485
sg47
VP NATL ACAD SCI USA
p486
sg49
V97
p487
sg79
(lp488
(VSOELLICK
VT R
tp489
asg58
I2000
sg45
V2373
p490
sbag1
(g2
g3
NtRp491
(dp492
g51
V10.1104/pp.125.2.797
p493
sg47
VPLANT PHYSIOL
p494
sg49
V125
p495
sg79
(lp496
(VTANG
VZ J
tp497
asg58
I2001
sg45
VLANT
p498
sbag1
(g2
g3
NtRp499
(dp500
g51
V10.1006/viro.1999.0069
p501
sg47
VVIROLOGY
p502
sg49
VIROLOGY
p503
sg79
(lp504
(VTURINA
VM
tp505
asg58
I2000
sg45
V120
p506
sbag1
(g2
g3
NtRp507
(dp508
g51
V10.1006/viro.1997.8939
p509
sg47
VVIROLOGY
p510
sg49
VIROLOGY
p511
sg79
(lp512
(VTURINA
VM
tp513
asg58
I1998
sg45
V141
p514
sbag1
(g2
g3
NtRp515
(dp516
g51
V10.1016/S0981-9428(01)01331-6
p517
sg47
VPLANT PHYSIOL BIOCH
p518
sg49
V39
p519
sg79
(lp520
(VVON
VBARGEN S
tp521
asg58
I2001
sg45
VLANT
p522
sbag1
(g2
g3
NtRp523
(dp524
g51
V10.1093/emboj/19.18.4875
p525
sg47
VEMBO J
p526
sg49
V19
p527
sg79
(lp528
(VWAIGMANN
VE
tp529
asg58
I2000
sg45
V4875
p530
sbasb.