ccopy_reg
_reconstructor
p1
(ctethne.classes.paper
Paper
p2
c__builtin__
object
p3
NtRp4
(dp5
S'publisherCity'
p6
VROCKVILLE
p7
sS'reprintAddress'
p8
VGusta, LV (reprint author), Univ Saskatchewan, Ctr Crop Dev, 51 Campus Dr, Saskatoon, SK S7N 5A8, Canada.
p9
sS'WC'
p10
VPlant Sciences
p11
sS'GA'
p12
V207KR
p13
sS'abstract'
p14
VSuperoxide dismutase (SOD) gene expression was investigated to elucidate its role in drought and freezing tolerance in spring and winter wheat (Triticum aestivum). cDNAs encoding chloroplastic Cu/ZnSODs and mitochondrial MnSODs were isolated from wheat. MnSOD and Cu/ZnSOD genes were mapped to the long arms of the homologous group-2 and -7 chromosomes, respectively. Northern blots indicated that MnSOD genes were drought inducible and decreased after rehydration. In contrast, Cu/ZnSOD mRNA was not drought inducible but increased after rehydration. In both spring and winter wheat seedlings exposed to 2 degrees C, MnSOD transcripts attained maximum levels between 7 and 49 d. Transcripts of Cu/ZnSOD mRNA were detected sooner in winter than in spring wheat; however, they disappeared after 21 d of acclimation. Transcripts of both classes of SOD genes increased during natural acclimation in both spring and winter types. Exposure of fully hardened plants to three nonlethal freeze-thaw cycles resulted in Cu/Zn mRNA accumulation; however, MnSOD mRNA levels declined in spring wheat but remained unchanged in winter wheat. The results of the dehydration and freeze-thaw-cycle experiments suggest that winter wheat has evolved a more effective stress-repair mechanism than spring wheat.
p15
sS'pageEnd'
p16
I520
sS'publisherAddress'
p17
V15501 MONONA DRIVE, ROCKVILLE, MD 20855 USA
p18
sS'documentType'
p19
VArticle
p20
sS'subject'
p21
VPlant Sciences
p22
sS'isoSource'
p23
VPlant Physiol.
p24
sS'timesCited'
p25
(lp26
I55
aVZ9 80
p27
asS'PT'
p28
VJ
sS'title'
p29
VIsolation, Chromosomal Localization, And Differential Expression Of Mitochondrial Manganese Superoxide Dismutase And Chloroplastic Copper Zinc Superoxide Dismutase Genes In Wheat
p30
sS'ISSN'
p31
(lp32
V0032-0889
p33
aVJ9 PLANT PHYSIOL
p34
asS'authors_full'
p35
(lp36
(VWU
VGH
tp37
a(VWILEN
VRW
tp38
a(VROBERTSON
VAJ
tp39
a(VGUSTA
VLV
tp40
asS'PG'
p41
I8
sS'PD'
p42
VJUN
p43
sS'pageStart'
p44
I513
sS'issue'
p45
I2
sS'journal'
p46
VPLANT PHYSIOLOGY
p47
sS'volume'
p48
V120
p49
sS'doi'
p50
V10.1104/pp.120.2.513
p51
sS'authorAddress'
p52
VUniv Saskatchewan, Ctr Crop Dev, Saskatoon, SK S7N 5A8, Canada.
p53
sS'date'
p54
I1999
sS'ER'
p55
V
sS'publisher'
p56
VAMER SOC PLANT PHYSIOLOGISTS
p57
sS'authorKeywords'
p58
(lp59
VORYZA-SATIVA L
p60
aVOXIDATIVE STRESS
p61
aVOXYGEN RADICALS
p62
aVCUZN-SUPEROXIDE
p63
aVTOLERANCE
p64
aVCLONING
p65
aVTOBACCO
p66
aVPLANTS
p67
aVINJURY
p68
aVDNA
p69
asS'language'
p70
VEnglish
p71
sS'wosid'
p72
VWOS:000080936500018
p73
sS'citationCount'
p74
I45
sS'authors_init'
p75
(lp76
(VWU
VG H
tp77
a(VWILEN
VR W
tp78
a(VROBERTSON
VA J
tp79
a(VGUSTA
VL V
tp80
asS'citedReferences'
p81
(lp82
g1
(g2
g3
NtRp83
(dp84
g50
Nsg46
VCauses of photooxidative stress and amelioration of defense systems in plants
p85
sg48
Nsg75
(lp86
(VASADA
VK
tp87
asg54
I1994
sg44
V77
p88
sbag1
(g2
g3
NtRp89
(dp90
g50
Nsg46
VPHOTOINHIBITION
p91
sg48
Nsg75
(lp92
(VASADA
VK
tp93
asg54
I1987
sg44
VHOTOINHIBITION
p94
sbag1
(g2
g3
NtRp95
(dp96
g50
V10.1146/annurev.arplant.36.1.27
p97
sg46
VANNU REV PLANT PHYS
p98
sg48
V36
p99
sg75
(lp100
(VBADGER
VM R
tp101
asg54
I1985
sg44
V27
p102
sbag1
(g2
g3
NtRp103
(dp104
g50
Nsg46
VEMBO J
p105
sg48
V10
p106
sg75
(lp107
(VBOWLER
VC
tp108
asg54
I1991
sg44
V1723
p109
sbag1
(g2
g3
NtRp110
(dp111
g50
V10.1073/pnas.86.9.3237
p112
sg46
VP NATL ACAD SCI USA
p113
sg48
V86
p114
sg75
(lp115
(VBOWLER
VC
tp116
asg54
I1989
sg44
V3237
p117
sbag1
(g2
g3
NtRp118
(dp119
g50
Nsg46
VEMBO J
p120
sg48
V8
sg75
(lp121
(VBOWLER
VC
tp122
asg54
I1989
sg44
V31
p123
sbag1
(g2
g3
NtRp124
(dp125
g50
V10.1016/0003-9861(81)90108-9
p126
sg46
VARCH BIOCHEM BIOPHYS
p127
sg48
V206
p128
sg75
(lp129
(VBRAWN
VK
tp130
asg54
I1981
sg44
V414
p131
sbag1
(g2
g3
NtRp132
(dp133
g50
V10.1016/0885-5765(87)90062-2
p134
sg46
VPHYSIOL MOL PLANT P
p135
sg48
V31
p136
sg75
(lp137
(VBUONAURIO
VR
tp138
asg54
I1987
sg44
VHYSIOL
p139
sbag1
(g2
g3
NtRp140
(dp141
g50
Nsg46
VADV ENZYMOL RAMB
p142
sg48
V41
p143
sg75
(lp144
(VFRIDOVICI
S''
tp145
asg54
I1974
sg44
V35
p146
sbag1
(g2
g3
NtRp147
(dp148
g50
V10.1073/pnas.80.6.1521
p149
sg46
VP NATL ACAD SCI
p150
sg48
V80
p151
sg75
(lp152
(VFUCCI
VL
tp153
asg54
I1983
sg44
V1521
p154
sbag1
(g2
g3
NtRp155
(dp156
g50
Nsg46
VPlant Physiology 
p157
sg48
V103
p158
sg75
(lp159
(VGUPTA
VASHIMA S E N
tp160
asg54
I1993
sg44
Vlant
p161
sbag1
(g2
g3
NtRp162
(dp163
g50
Nsg46
VPLANT COLD HARDINESS
p164
sg48
Nsg75
(lp165
(VGUSTA
VL V
tp166
asg54
I1982
sg44
VLANT
p167
sbag1
(g2
g3
NtRp168
(dp169
g50
V10.1104/pp.99.4.1381
p170
sg46
VPLANT PHYSIOL
p171
sg48
V99
p172
sg75
(lp173
(VHOUDE
VM
tp174
asg54
I1992
sg44
VLANT
p175
sbag1
(g2
g3
NtRp176
(dp177
g50
V10.1016/0031-9422(83)80209-X
p178
sg46
VPHYTOCHEMISTRY
p179
sg48
V22
p180
sg75
(lp181
(VHUNTER
VM I S
tp182
asg54
I1983
sg44
VHYTOCHEMISTRY
p183
sbag1
(g2
g3
NtRp184
(dp185
g50
Nsg46
VPLANT CELL PHYSIOL
p186
sg48
V38
p187
sg75
(lp188
(VKAMINAKA
VH
tp189
asg54
I1997
sg44
VLANT
p190
sbag1
(g2
g3
NtRp191
(dp192
g50
V10.1111/j.1399-3054.1989.tb05457.x
p193
sg46
VPHYSIOL PLANTARUM
p194
sg48
V76
p195
sg75
(lp196
(VKENDALL
VE J
tp197
asg54
I1989
sg44
VHYSIOL
p198
sbag1
(g2
g3
NtRp199
(dp200
g50
Nsg46
VPLANT CELL
p201
sg48
V2
sg75
(lp202
(VKOCH
VE
tp203
asg54
I1990
sg44
VLANT
p204
sbag1
(g2
g3
NtRp205
(dp206
g50
Nsg46
VPLANT CELL PHYSIOL
p207
sg48
V38
p208
sg75
(lp209
(VKUREPA
VJ
tp210
asg54
I1997
sg44
VLANT
p211
sbag1
(g2
g3
NtRp212
(dp213
g50
Nsg46
VPHOTOSYNTHESIS LIGHT
p214
sg48
V4
sg75
(lp215
(VLANDGRAF
VP
tp216
asg54
I1995
sg44
VHOTOSYNTHESIS
p217
sbag1
(g2
g3
NtRp218
(dp219
g50
Nsg46
VBarley
p220
sg48
Nsg75
(lp221
(VLAURIE
VD A
tp222
asg54
I1992
sg44
V115
p223
sbag1
(g2
g3
NtRp224
(dp225
g50
V10.1111/j.1469-8137.1990.tb00541.x
p226
sg46
VNEW PHYTOL
p227
sg48
V116
p228
sg75
(lp229
(VLEPRINCE
VO
tp230
asg54
I1990
sg44
V573
p231
sbag1
(g2
g3
NtRp232
(dp233
g50
V10.1016/0168-9452(90)90114-4
p234
sg46
VPLANT SCI
p235
sg48
V69
p236
sg75
(lp237
(VMALAN
VC
tp238
asg54
I1990
sg44
VLANT
p239
sbag1
(g2
g3
NtRp240
(dp241
g50
V10.1093/jxb/44.11.1663
p242
sg46
VJ EXP BOT
p243
sg48
V44
p244
sg75
(lp245
(VMALONE
VM
tp246
asg54
I1993
sg44
V1663
p247
sbag1
(g2
g3
NtRp248
(dp249
g50
V10.1104/pp.103.4.1155
p250
sg46
VPLANT PHYSIOL
p251
sg48
V103
p252
sg75
(lp253
(VMCKERSIE
VB D
tp254
asg54
I1993
sg44
VLANT
p255
sbag1
(g2
g3
NtRp256
(dp257
g50
Nsg46
VFREE RADICAL BIO MED
p258
sg48
V1
sg75
(lp259
(VMEAD
VJ
tp260
asg54
I1976
sg44
V51
p261
sbag1
(g2
g3
NtRp262
(dp263
g50
V10.1016/0168-9452(86)90060-9
p264
sg46
VPLANT SCI
p265
sg48
V47
p266
sg75
(lp267
(VMONTALBINI
VP
tp268
asg54
I1986
sg44
VLANT
p269
sbag1
(g2
g3
NtRp270
(dp271
g50
Nsg46
VBARLEY GENET NEWSL
p272
sg48
V22
p273
sg75
(lp274
(VNETSVETAEV
VV P
tp275
asg54
I1993
sg44
V44
p276
sbag1
(g2
g3
NtRp277
(dp278
g50
V10.1007/BF00499098
p279
sg46
VBIOCHEM GENET
p280
sg48
V24
p281
sg75
(lp282
(VNEUMAN
VP R
tp283
asg54
I1986
sg44
V435
p284
sbag1
(g2
g3
NtRp285
(dp286
g50
Nsg46
VBIOCH MED EFFECTS AC
p287
sg48
Nsg75
(lp288
(VNIWA
VT
tp289
asg54
I1977
sg44
V209
p290
sbag1
(g2
g3
NtRp291
(dp292
g50
Nsg46
VCAN J PLANT SCI
p293
sg48
V75
p294
sg75
(lp295
(VOCONNER
VB J
tp296
asg54
I1993
sg44
V149
p297
sbag1
(g2
g3
NtRp298
(dp299
g50
V10.1007/BF00037058
p300
sg46
VPLANT MOL BIOL
p301
sg48
V17
p302
sg75
(lp303
(VPERLTREVES
VR
tp304
asg54
I1991
sg44
VLANT
p305
sbag1
(g2
g3
NtRp306
(dp307
g50
V10.1111/j.1365-3040.1991.tb01517.x
p308
sg46
VPLANT CELL ENVIRON
p309
sg48
V14
p310
sg75
(lp311
(VPRICE
VA H
tp312
asg54
I1991
sg44
VLANT
p313
sbag1
(g2
g3
NtRp314
(dp315
g50
Nsg46
VBarley Genetics Newsletter
p316
sg48
V20
p317
sg75
(lp318
(VPROCUNIER
VJ D
tp319
asg54
I1990
sg44
V74
p320
sbag1
(g2
g3
NtRp321
(dp322
g50
Nsg46
VARCH BIOCHEM BIOPHYS
p323
sg48
V188
p324
sg75
(lp325
(VRICH
VP R
tp326
asg54
I1978
sg44
V205
p327
sbag1
(g2
g3
NtRp328
(dp329
g50
Nsg46
VPLANT PHYSIOL
p330
sg48
V105
p331
sg75
(lp332
(VROBERTSON
VA J
tp333
asg54
I1994
sg44
VLANT
p334
sbag1
(g2
g3
NtRp335
(dp336
g50
V10.1104/pp.103.4.1477
p337
sg46
VPLANT PHYSIOL
p338
sg48
V103
p339
sg75
(lp340
(VSAKAMOTO
VA
tp341
asg54
I1993
sg44
VLANT
p342
sbag1
(g2
g3
NtRp343
(dp344
g50
Nsg46
VJ PLANT PHYSIOL
p345
sg48
V133
p346
sg75
(lp347
(VSENARATNA
VT
tp348
asg54
I1988
sg44
V56
p349
sbag1
(g2
g3
NtRp350
(dp351
g50
V10.1104/pp.77.2.472
p352
sg46
VPLANT PHYSIOL
p353
sg48
V77
p354
sg75
(lp355
(VSENARATNA
VT
tp356
asg54
I1985
sg44
VLANT
p357
sbag1
(g2
g3
NtRp358
(dp359
g50
V10.1104/pp.69.1.250
p360
sg46
VPLANT PHYSIOL
p361
sg48
V69
p362
sg75
(lp363
(VSIMINOVITCH
VD
tp364
asg54
I1982
sg44
VLANT
p365
sbag1
(g2
g3
NtRp366
(dp367
g50
V10.1105/tpc.3.8.783
p368
sg46
VPLANT CELL
p369
sg48
V3
sg75
(lp370
(VTSANG
VE W T
tp371
asg54
I1991
sg44
VLANT
p372
sbag1
(g2
g3
NtRp373
(dp374
g50
Nsg46
VCAN J PLANT SCI
p375
sg48
V61
p376
sg75
(lp377
(VTYLER
VN J
tp378
asg54
I1981
sg44
V543
p379
sbag1
(g2
g3
NtRp380
(dp381
g50
V10.1104/pp.112.4.1703
p382
sg46
VPLANT PHYSIOL
p383
sg48
V112
p384
sg75
(lp385
(VVANCAMP
VW
tp386
asg54
I1996
sg44
VLANT
p387
sbag1
(g2
g3
NtRp388
(dp389
g50
V10.1104/pp.97.2.588
p390
sg46
VPLANT PHYSIOL
p391
sg48
V97
p392
sg75
(lp393
(VVANTOAI
VT T
tp394
asg54
I1991
sg44
VLANT
p395
sbag1
(g2
g3
NtRp396
(dp397
g50
V10.1104/pp.83.2.278
p398
sg46
VPLANT PHYSIOL
p399
sg48
V83
p400
sg75
(lp401
(VWISE
VR R
tp402
asg54
I1987
sg44
VLANT
p403
sbag1
(g2
g3
NtRp404
(dp405
g50
V10.1073/pnas.90.20.9310
p406
sg46
VP NATL ACAD SCI USA
p407
sg48
V90
p408
sg75
(lp409
(VZHU
VD H
tp410
asg54
I1993
sg44
V9310
p411
sbasb.