ccopy_reg
_reconstructor
p1
(ctethne.classes.paper
Paper
p2
c__builtin__
object
p3
NtRp4
(dp5
S'publisherCity'
p6
VROCKVILLE
p7
sS'reprintAddress'
p8
VBoutry, M (reprint author), Univ Catholique Louvain, Inst Sci Vie, Unite Biochim Physiol, B-1348 Louvain, Belgium.
p9
sS'WC'
p10
VPlant Sciences
p11
sS'GA'
p12
V199OJ
p13
sS'abstract'
p14
VThe plasma membrane proton pump ATPase (H+-ATPase) plays a major role in the activation of ion and nutrient transport and has been suggested to be involved in several physiological processes, such as cell expansion and salt tolerance. Its activity is regulated by a C-terminal autoinhibitory domain that can be displaced by phosphorylation and the binding of regulatory 14-3-3 proteins, resulting in an activated enzyme. To better understand the physiological consequence of this activation, we have analyzed transgenic tobacco (Nicotiana tabacum) plants expressing either wild-type plasma membrane H+-ATPase4 (wtPMA4) or a PMA4 mutant lacking the autoinhibitory domain (Delta PMA4), generating a constitutively activated enzyme. Plants showing 4-fold higher expression of wtPMA4 than untransformed plants did not display any unusual phenotype and their leaf and root external acidification rates were not modified, while their in vitro H+-ATPase activity was markedly increased. This indicates that, in vivo, H+-ATPase overexpression is compensated by down-regulation of H+-ATPase activity. In contrast, plants that expressed PMA4 were characterized by a lower apoplastic and external root pH, abnormal leaf inclination, and twisted stems, suggesting alterations in cell expansion. This was confirmed by in vitro leaf extension and curling assays. These data therefore strongly support a direct role of H+-ATPase in plant development. The Delta PMA4 plants also displayed increased salt tolerance during germination and seedling growth, supporting the hypothesis that H+-ATPase is involved in salt tolerance.
p15
sS'pageEnd'
p16
I1776
sS'date'
p17
I2007
sS'documentType'
p18
VArticle
p19
sS'subject'
p20
VPlant Sciences
p21
sS'isoSource'
p22
VPlant Physiol.
p23
sS'timesCited'
p24
(lp25
I36
aVZ9 39
p26
asS'PT'
p27
VJ
sS'title'
p28
VExpression Of A Constitutively Activated Plasma Membrane H+-Atpase Alters Plant Development And Increases Salt Tolerance(1[C][Oa])
p29
sS'ISSN'
p30
(lp31
V0032-0889
p32
aVJ9 PLANT PHYSIOL
p33
asS'authors_full'
p34
(lp35
(VGEVAUDANT
VFREDERIC
tp36
a(VDUBY
VGEOFFREY
tp37
a(VVON STEDINGK
VERIK
tp38
a(VZHAO
VRONGMIN
tp39
a(VMORSOMME
VPIERRE
tp40
a(VBOUTRY
VMARC
tp41
asS'PG'
p42
I14
sS'PD'
p43
VAUG
p44
sS'pageStart'
p45
I1763
sS'issue'
p46
I4
sS'RI'
p47
VGEVAUDANT, Frederic/C-3673-2011
p48
sS'journal'
p49
VPLANT PHYSIOLOGY
p50
sS'volume'
p51
V144
p52
sS'doi'
p53
V10.1104/pp.107.103762
p54
sS'emailAddress'
p55
Vboutry@fysa.ucl.ac.be
p56
sS'authorAddress'
p57
VUniv Catholique Louvain, Inst Sci Vie, Unite Biochim Physiol, B-1348 Louvain, Belgium.
p58
sS'publisherAddress'
p59
V15501 MONONA DRIVE, ROCKVILLE, MD 20855 USA
p60
sS'ER'
p61
V
sS'publisher'
p62
VAMER SOC PLANT BIOLOGISTS
p63
sS'authorKeywords'
p64
(lp65
VFUSICOCCIN-BINDING COMPLEX
p66
aVTOBACCO LEAF TISSUES
p67
aVNICOTIANA-PLUMBAGINIFOLIA
p68
aV14-3-3 PROTEINS
p69
aVARABIDOPSIS-THALIANA
p70
aVFUNGAL PATHOGENS
p71
aVDEFENSE RESPONSE
p72
aVGENE SUBFAMILIES
p73
aVACID GROWTH
p74
aVPROTON PUMP
p75
asS'language'
p76
VEnglish
p77
sS'wosid'
p78
VWOS:000248704800007
p79
sS'citationCount'
p80
I67
sS'authors_init'
p81
(lp82
(VGEVAUDANT
VF
tp83
a(VDUBY
VG
tp84
a(VVON STEDINGK
VE
tp85
a(VZHAO
VR M
tp86
a(VMORSOMME
VP
tp87
a(VBOUTRY
VM
tp88
asS'citedReferences'
p89
(lp90
g1
(g2
g3
NtRp91
(dp92
g53
Nsg49
VSTAIN TECHNOL
p93
sg51
V55
p94
sg81
(lp95
(VALEXANDER
VM P
tp96
asg17
I1980
sg45
V13
p97
sbag1
(g2
g3
NtRp98
(dp99
g53
V10.1016/S0981-9428(00)01216-X
p100
sg49
VPLANT PHYSIOL BIOCH
p101
sg51
V39
p102
sg81
(lp103
(VAMBORABE
VB E
tp104
asg17
I2001
sg45
VLANT
p105
sbag1
(g2
g3
NtRp106
(dp107
g53
V10.1007/s00425-002-0856-8
p108
sg49
VPLANTA
p109
sg51
V216
p110
sg81
(lp111
(VARANGO
VM
tp112
asg17
I2003
sg45
VLANTA
p113
sbag1
(g2
g3
NtRp114
(dp115
g53
V10.1046/j.1365-313X.1998.00083.x
p116
sg49
VPLANT J
p117
sg51
V13
p118
sg81
(lp119
(VBAUNSGAARD
VL
tp120
asg17
I1998
sg45
VLANT
p121
sbag1
(g2
g3
NtRp122
(dp123
g53
V10.1104/pp.103.021923
p124
sg49
VPLANT PHYSIOL
p125
sg51
V132
p126
sg81
(lp127
(VBAXTER
VI
tp128
asg17
I2003
sg45
VLANT
p129
sbag1
(g2
g3
NtRp130
(dp131
g53
V10.1073/pnas.0406377102
p132
sg49
VP NATL ACAD SCI USA
p133
sg51
V102
p134
sg81
(lp135
(VBAXTER
VI R
tp136
asg17
I2005
sg45
V2649
p137
sbag1
(g2
g3
NtRp138
(dp139
g53
V10.1016/S0005-2736(00)00135-8
p140
sg49
VBBA
p141
sg51
V1465
p142
sg81
(lp143
(VBLUMWALD
VE
tp144
asg17
I2000
sg45
V140
p145
sbag1
(g2
g3
NtRp146
(dp147
g53
Nsg49
VEMBO J
p148
sg51
V4
sg81
(lp149
(VBOUTRY
VM
tp150
asg17
I1985
sg45
V2159
p151
sbag1
(g2
g3
NtRp152
(dp153
g53
Nsg49
VANAL BIOCHEM
p154
sg51
V72
p155
sg81
(lp156
(VBRADFORD
VM M
tp157
asg17
I1976
sg45
V254
p158
sbag1
(g2
g3
NtRp159
(dp160
g53
V10.1074/jbc.275.14.9919
p161
sg49
VJ BIOL CHEM
p162
sg51
V275
p163
sg81
(lp164
(VCAMONI
VL
tp165
asg17
I2000
sg45
V9919
p166
sbag1
(g2
g3
NtRp167
(dp168
g53
Nsg49
VANAL BIOCHEM
p169
sg51
V162
p170
sg81
(lp171
(VCHOMCZYNSKI
VP
tp172
asg17
I1987
sg45
V156
p173
sbag1
(g2
g3
NtRp174
(dp175
g53
V10.1105/tpc.9.7.1031
p176
sg49
VPLANT CELL
p177
sg51
V9
sg81
(lp178
(VCOSGROVE
VD J
tp179
asg17
I1997
sg45
VLANT
p180
sbag1
(g2
g3
NtRp181
(dp182
g53
V10.1074/jbc.M007740200
p183
sg49
VJ BIOL CHEM
p184
sg51
V276
p185
sg81
(lp186
(VDAMBLY
VS
tp187
asg17
I2001
sg45
V7017
p188
sbag1
(g2
g3
NtRp189
(dp190
g53
V10.1046/j.1432-1327.1998.2510496.x
p191
sg49
VEUR J BIOCHEM
p192
sg51
V251
p193
sg81
(lp194
(VDESBROSSES
VG
tp195
asg17
I1998
sg45
V496
p196
sbag1
(g2
g3
NtRp197
(dp198
g53
V10.1111/j.1365-313X.1991.00121.x
p199
sg49
VPLANT J
p200
sg51
V1
sg81
(lp201
(VDEWITT
VN D
tp202
asg17
I1991
sg45
VLANT
p203
sbag1
(g2
g3
NtRp204
(dp205
g53
Nsg49
VJ BIOL CHEM
p206
sg51
V270
p207
sg81
(lp208
(VDEXAERDE
VA D
tp209
asg17
I1995
sg45
V23828
p210
sbag1
(g2
g3
NtRp211
(dp212
g53
V10.1074/jbc.274.51.36774
p213
sg49
VJ BIOL CHEM
p214
sg51
V274
p215
sg81
(lp216
(VFUGLSANG
VA T
tp217
asg17
I1999
sg45
V36774
p218
sbag1
(g2
g3
NtRp219
(dp220
g53
V10.1105/tpc.105.035626
p221
sg49
VPLANT CELL
p222
sg51
V19
p223
sg81
(lp224
(VFUGLSANG
VA T
tp225
asg17
I2007
sg45
VLANT
p226
sbag1
(g2
g3
NtRp227
(dp228
g53
V10.1074/jbc.273.13.7698
p229
sg49
VJ BIOL CHEM
p230
sg51
V273
p231
sg81
(lp232
(VFULLONE
VM R
tp233
asg17
I1998
sg45
V7698
p234
sbag1
(g2
g3
NtRp235
(dp236
g53
Nsg49
VSCIENCE
p237
sg51
V311
p238
sg81
(lp239
(VGREBE
VM
tp240
asg17
I2006
sg45
V953
p241
sbag1
(g2
g3
NtRp242
(dp243
g53
V10.1126/science.1119735
p244
sg49
VSCIENCE
p245
sg51
V310
p246
sg81
(lp247
(VGREBE
VM
tp248
asg17
I2005
sg45
V60
p249
sbag1
(g2
g3
NtRp250
(dp251
g53
V10.1007/s10265-003-0110-x
p252
sg49
VJ PLANT RES
p253
sg51
V116
p254
sg81
(lp255
(VHAGER
VA
tp256
asg17
I2003
sg45
V483
p257
sbag1
(g2
g3
NtRp258
(dp259
g53
V10.1023/A:1022371130939
p260
sg49
VPLANT SOIL
p261
sg51
V248
p262
sg81
(lp263
(VHINSINGER
VP
tp264
asg17
I2003
sg45
VLANT
p265
sbag1
(g2
g3
NtRp266
(dp267
g53
Nsg49
VPLANT PHYSIOL
p268
sg51
V109
p269
sg81
(lp270
(VHUSTED
VS
tp271
asg17
I1995
sg45
VLANT
p272
sbag1
(g2
g3
NtRp273
(dp274
g53
V10.1126/science.282.5391.1114
p275
sg49
VSCIENCE
p276
sg51
V282
p277
sg81
(lp278
(VJONES
VA M
tp279
asg17
I1998
sg45
V1114
p280
sbag1
(g2
g3
NtRp281
(dp282
g53
V10.1073/pnas.0504498102
p283
sg49
VP NATL ACAD SCI USA
p284
sg51
V102
p285
sg81
(lp286
(VKANCZEWSKA
VJ
tp287
asg17
I2005
sg45
V11675
p288
sbag1
(g2
g3
NtRp289
(dp290
g53
Nsg49
VPLANT PHYSIOL
p291
sg51
V113
p292
sg81
(lp293
(VKELLER
VC P
tp294
asg17
I1997
sg45
VLANT
p295
sbag1
(g2
g3
NtRp296
(dp297
g53
V10.1104/pp.118.2.557
p298
sg49
VPLANT PHYSIOL
p299
sg51
V118
p300
sg81
(lp301
(VKELLER
VC P
tp302
asg17
I1998
sg45
VLANT
p303
sbag1
(g2
g3
NtRp304
(dp305
g53
V10.1093/pcp/pcf167
p306
sg49
VPLANT CELL PHYSIOL
p307
sg51
V43
p308
sg81
(lp309
(VKINOSHITA
VT
tp310
asg17
I2002
sg45
VLANT
p311
sbag1
(g2
g3
NtRp312
(dp313
g53
V10.1093/emboj/18.20.5548
p314
sg49
VEMBO J
p315
sg51
V18
p316
sg81
(lp317
(VKINOSHITA
VT
tp318
asg17
I1999
sg45
V5548
p319
sbag1
(g2
g3
NtRp320
(dp321
g53
Nsg49
VSCIENCE
p322
sg51
V311
p323
sg81
(lp324
(VKUTSCHERA
VU
tp325
asg17
I2006
sg45
V952
p326
sbag1
(g2
g3
NtRp327
(dp328
g53
Nsg49
VMETHOD ENZYMOL
p329
sg51
V148
p330
sg81
(lp331
(VLARSSON
VC
tp332
asg17
I1987
sg45
V558
p333
sbag1
(g2
g3
NtRp334
(dp335
g53
V10.1105/tpc.022277
p336
sg49
VPLANT CELL
p337
sg51
V16
p338
sg81
(lp339
(VLEFEBVRE
VB
tp340
asg17
I2004
sg45
VLANT
p341
sbag1
(g2
g3
NtRp342
(dp343
g53
V10.1016/S0079-6603(03)01014-6
p344
sg49
VPROG NUCLEIC ACID RE
p345
sg51
V74
p346
sg81
(lp347
(VLEFEBVRE
VB
tp348
asg17
I2003
sg45
VROG
p349
sbag1
(g2
g3
NtRp350
(dp351
g53
V10.1016/j.cell.2005.06.005
p352
sg49
VCELL
p353
sg51
V121
p354
sg81
(lp355
(VLEYSER
VO
tp356
asg17
I2005
sg45
V819
p357
sbag1
(g2
g3
NtRp358
(dp359
g53
V10.1126/science.1115711
p360
sg49
VSCIENCE
p361
sg51
V310
p362
sg81
(lp363
(VLI
VJ S
tp364
asg17
I2005
sg45
V121
p365
sbag1
(g2
g3
NtRp366
(dp367
g53
V10.1007/s004250050266
p368
sg49
VPLANTA
p369
sg51
V204
p370
sg81
(lp371
(VLINO
VB
tp372
asg17
I1998
sg45
VLANTA
p373
sbag1
(g2
g3
NtRp374
(dp375
g53
V10.1104/pp.124.2.873
p376
sg49
VPLANT PHYSIOL
p377
sg51
V124
p378
sg81
(lp379
(VLOPEZ-MILLAN
VA F
tp380
asg17
I2000
sg45
VLANT
p381
sbag1
(g2
g3
NtRp382
(dp383
g53
V10.1104/pp.119.2.627
p384
sg49
VPLANT PHYSIOL
p385
sg51
V119
p386
sg81
(lp387
(VLUO
VH
tp388
asg17
I1999
sg45
VLANT
p389
sbag1
(g2
g3
NtRp390
(dp391
g53
V10.1074/jbc.M909690199
p392
sg49
VJ BIOL CHEM
p393
sg51
V275
p394
sg81
(lp395
(VMAUDOUX
VO
tp396
asg17
I2000
sg45
V17762
p397
sbag1
(g2
g3
NtRp398
(dp399
g53
V10.1046/j.1365-313X.1999.00495.x
p400
sg49
VPLANT J
p401
sg51
V19
p402
sg81
(lp403
(VMORIAU
VL
tp404
asg17
I1999
sg45
VLANT
p405
sbag1
(g2
g3
NtRp406
(dp407
g53
V10.1016/S0005-2736(00)00128-0
p408
sg49
VBBA
p409
sg51
V1465
p410
sg81
(lp411
(VMORSOMME
VP
tp412
asg17
I2000
sg45
V1
sbag1
(g2
g3
NtRp413
(dp414
g53
V10.1111/j.1399-3054.1962.tb08052.x
p415
sg49
VPHYSIOL PLANTARUM
p416
sg51
V15
p417
sg81
(lp418
(VMURASHIGE
VT
tp419
asg17
I1962
sg45
VHYSIOL
p420
sbag1
(g2
g3
NtRp421
(dp422
g53
V10.1007/s004250050507
p423
sg49
VPLANTA
p424
sg51
V207
p425
sg81
(lp426
(VOECKING
VC
tp427
asg17
I1999
sg45
VLANTA
p428
sbag1
(g2
g3
NtRp429
(dp430
g53
V10.1104/pp.118.2.551
p431
sg49
VPLANT PHYSIOL
p432
sg51
V118
p433
sg81
(lp434
(VOLSSON
VA
tp435
asg17
I1998
sg45
VLANT
p436
sbag1
(g2
g3
NtRp437
(dp438
g53
V10.1016/j.molcel.2006.12.017
p439
sg49
VMOL CELL
p440
sg51
V25
p441
sg81
(lp442
(VOTTMANN
VC
tp443
asg17
I2007
sg45
V427
p444
sbag1
(g2
g3
NtRp445
(dp446
g53
V10.1016/0014-5793(93)81279-9
p447
sg49
VFEBS LETT
p448
sg51
V317
p449
sg81
(lp450
(VPALMGREN
VM G
tp451
asg17
I1993
sg45
V216
p452
sbag1
(g2
g3
NtRp453
(dp454
g53
V10.1146/annurev.arplant.52.1.817
p455
sg49
VANNU REV PLANT PHYS
p456
sg51
V52
p457
sg81
(lp458
(VPALMGREN
VM G
tp459
asg17
I2001
sg45
V817
p460
sbag1
(g2
g3
NtRp461
(dp462
g53
Nsg49
VJ BIOL CHEM
p463
sg51
V266
p464
sg81
(lp465
(VPALMGREN
VM G
tp466
asg17
I1991
sg45
V20470
p467
sbag1
(g2
g3
NtRp468
(dp469
g53
V10.1074/jbc.273.45.30018
p470
sg49
VJ BIOL CHEM
p471
sg51
V273
p472
sg81
(lp473
(VPIOTROWSKI
VM
tp474
asg17
I1998
sg45
V30018
p475
sbag1
(g2
g3
NtRp476
(dp477
g53
V10.1104/pp.99.4.1271
p478
sg49
VPLANT PHYSIOL
p479
sg51
V99
p480
sg81
(lp481
(VRAYLE
VD L
tp482
asg17
I1992
sg45
VLANT
p483
sbag1
(g2
g3
NtRp484
(dp485
g53
Nsg49
VPLANT CELL
p486
sg51
V11
p487
sg81
(lp488
(VSCHALLER
VA
tp489
asg17
I1999
sg45
VLANT
p490
sbag1
(g2
g3
NtRp491
(dp492
g53
V10.1007/BF00958964
p493
sg49
VPLANTA
p494
sg51
V173
p495
sg81
(lp496
(VSCHALLER
VG E
tp497
asg17
I1988
sg45
VLANTA
p498
sbag1
(g2
g3
NtRp499
(dp500
g53
Nsg49
VANNU REV PLANT PHYS
p501
sg51
V45
p502
sg81
(lp503
(VSUSSMAN
VM R
tp504
asg17
I1994
sg45
V211
p505
sbag1
(g2
g3
NtRp506
(dp507
g53
V10.1104/pp.99.4.1314
p508
sg49
VPLANT PHYSIOL
p509
sg51
V99
p510
sg81
(lp511
(VSUZUKI
VY S
tp512
asg17
I1992
sg45
VLANT
p513
sbag1
(g2
g3
NtRp514
(dp515
g53
V10.1105/tpc.11.12.2379
p516
sg49
VPLANT CELL
p517
sg51
V11
p518
sg81
(lp519
(VSVENNELID
VF
tp520
asg17
I1999
sg45
VLANT
p521
sbag1
(g2
g3
NtRp522
(dp523
g53
V10.1016/S0981-9428(02)00005-0
p524
sg49
VPLANT PHYSIOL BIOCH
p525
sg51
V41
p526
sg81
(lp527
(VVANSUYT
VG
tp528
asg17
I2003
sg45
VLANT
p529
sbag1
(g2
g3
NtRp530
(dp531
g53
V10.1046/j.1365-3040.1999.00514.x
p532
sg49
VPLANT CELL ENVIRON
p533
sg51
V22
p534
sg81
(lp535
(VVAN
VVOLKENBURGH E
tp536
asg17
I1999
sg45
VLANT
p537
sbag1
(g2
g3
NtRp538
(dp539
g53
Nsg49
VPLANT PHYSIOL
p540
sg51
V104
p541
sg81
(lp542
(VVERAESTRELLA
VR
tp543
asg17
I1994
sg45
VLANT
p544
sbag1
(g2
g3
NtRp545
(dp546
g53
V10.1046/j.1365-313x.2001.01081.x
p547
sg49
VPLANT J
p548
sg51
V27
p549
sg81
(lp550
(VVITART
VV
tp551
asg17
I2001
sg45
VLANT
p552
sbag1
(g2
g3
NtRp553
(dp554
g53
V10.1105/tpc.12.11.2129
p555
sg49
VPLANT CELL
p556
sg51
V12
p557
sg81
(lp558
(VWANG
VY C
tp559
asg17
I2000
sg45
VLANT
p560
sbag1
(g2
g3
NtRp561
(dp562
g53
Nsg49
VPLANT CELL
p563
sg51
V8
sg81
(lp564
(VXING
VT
tp565
asg17
I1996
sg45
VLANT
p566
sbag1
(g2
g3
NtRp567
(dp568
g53
V10.1016/j.tplants.2005.10.002
p569
sg49
VTRENDS PLANT SCI
p570
sg51
V10
p571
sg81
(lp572
(VYAMAGUCHI
VT
tp573
asg17
I2005
sg45
V615
p574
sbag1
(g2
g3
NtRp575
(dp576
g53
Nsg49
VGENETICS
p577
sg51
V149
p578
sg81
(lp579
(VYOUNG
VJ C
tp580
asg17
I1998
sg45
V501
p581
sbag1
(g2
g3
NtRp582
(dp583
g53
V10.1105/tpc.12.4.535
p584
sg49
VPLANT CELL
p585
sg51
V12
p586
sg81
(lp587
(VZHAO
VR M
tp588
asg17
I2000
sg45
VLANT
p589
sbag1
(g2
g3
NtRp590
(dp591
g53
V10.1016/S0168-9452(99)00155-7
p592
sg49
VPLANT SCI
p593
sg51
V149
p594
sg81
(lp595
(VZHAO
VR M
tp596
asg17
I1999
sg45
VLANT
p597
sbag1
(g2
g3
NtRp598
(dp599
g53
V10.1016/S1369-5266(03)00085-2
p600
sg49
VCURR OPIN PLANT BIOL
p601
sg51
V6
sg81
(lp602
(VZHU
VJ K
tp603
asg17
I2003
sg45
V441
p604
sbasb.