ccopy_reg
_reconstructor
p1
(ctethne.classes.paper
Paper
p2
c__builtin__
object
p3
NtRp4
(dp5
S'publisherCity'
p6
VROCKVILLE
p7
sS'reprintAddress'
p8
VTuskan, GA (reprint author), Oak Ridge Natl Lab, Div Environm Sci, POB 2008, Oak Ridge, TN 37831 USA.
p9
sS'WC'
p10
VPlant Sciences
p11
sS'GA'
p12
V369UN
p13
sS'FX'
p14
(lp15
VThis work was supported by the U. S. Department of Energy, Office of
p16
aVScience, Biological, and Environmental Research Carbon Sequestration
p17
aVProgram. Oak Ridge National Laboratory is managed by UT-Battelle, LLC,
p18
aVfor the U. S. Department of Energy under Contract Number
p19
aVDE-AC05-00OR22725.
p20
asS'abstract'
p21
VF-box proteins are generally responsible for substrate recognition in the Skp1-Cullin-F-box complexes that are involved in protein degradation via the ubiquitin-26S proteasome pathway. In plants, F-box genes influence a variety of biological processes, such as leaf senescence, branching, self-incompatibility, and responses to biotic and abiotic stresses. The number of F-box genes in Populus ( Populus trichocarpa; approximately 320) is less than half that found in Arabidopsis ( Arabidopsis thaliana; approximately 660) or Oryza ( Oryza sativa; approximately 680), even though the total number of genes in Populus is equivalent to that in Oryza and 1.5 times that in Arabidopsis. We performed comparative genomics analysis between the woody perennial plant Populus and the herbaceous annual plants Arabidopsis and Oryza in order to explicate the functional implications of this large gene family. Our analyses reveal interspecific differences in genomic distribution, orthologous relationship, intron evolution, protein domain structure, and gene expression. The set of F-box genes shared by these species appear to be involved in core biological processes essential for plant growth and development; lineage-specific differences primarily occurred because of an expansion of the F-box genes via tandem duplications in Arabidopsis and Oryza. The number of F-box genes in the newly sequenced woody species Vitis ( Vitis vinifera; 156) and Carica ( Carica papaya; 139) is similar to that in Populus, supporting the hypothesis that the F-box gene family is expanded in herbaceous annual plants relative to woody perennial plants. This study provides insights into the relationship between the structure and composition of the F-box gene family in herbaceous and woody species and their associated developmental and physiological features.
p22
sS'pageEnd'
p23
I1200
sS'date'
p24
I2008
sS'documentType'
p25
VArticle
p26
sS'subject'
p27
VPlant Sciences
p28
sS'isoSource'
p29
VPlant Physiol.
p30
sS'timesCited'
p31
(lp32
I33
aVZ9 33
p33
asS'funding'
p34
(lp35
(VU. S. Department of Energy
VDE-AC05-00OR22725
tp36
a(VOffice of Science, Biological, and Environmental Research Carbon Sequestration Program
Ntp37
asS'PT'
p38
VJ
sS'title'
p39
VThe F-Box Gene Family Is Expanded In Herbaceous Annual Plants Relative To Woody Perennial Plants
p40
sS'ISSN'
p41
(lp42
V0032-0889
p43
aVJ9 PLANT PHYSIOL
p44
asS'authors_full'
p45
(lp46
(VYANG
VXIAOHAN
tp47
a(VKALLURI
VUDAYA C
tp48
a(VJAWDY
VSARA
tp49
a(VGUNTER
VLEE E
tp50
a(VYIN
VTONGMING
tp51
a(VTSCHAPLINSKI
VTIMOTHY J
tp52
a(VWESTON
VDAVID J
tp53
a(VRANJAN
VPRIYA
tp54
a(VTUSKAN
VGERALD A
tp55
asS'PG'
p56
I12
sS'PD'
p57
VNOV
p58
sS'pageStart'
p59
I1189
sS'issue'
p60
I3
sS'RI'
p61
(lp62
VKALLURI, UDAYA/A-6218-2011; Tuskan, Gerald/A-6225-2011; Weston,
p63
aVDavid/A-9116-2011; Yang, Xiaohan/A-6975-2011
p64
asS'journal'
p65
VPLANT PHYSIOLOGY
p66
sS'volume'
p67
V148
p68
sS'doi'
p69
V10.1104/pp.108.121921
p70
sS'emailAddress'
p71
Vtuskanga@ornl.gov
p72
sS'authorAddress'
p73
V[Yang, Xiaohan; Kalluri, Udaya C.; Jawdy, Sara; Gunter, Lee E.; Yin, Tongming; Tschaplinski, Timothy J.; Weston, David J.; Ranjan, Priya; Tuskan, Gerald A.] Oak Ridge Natl Lab, Div Environm Sci, Oak Ridge, TN 37831 USA.
p74
sS'publisherAddress'
p75
V15501 MONONA DRIVE, ROCKVILLE, MD 20855 USA
p76
sS'ER'
p77
V
sS'publisher'
p78
VAMER SOC PLANT BIOLOGISTS
p79
sS'authorKeywords'
p80
(lp81
VSELF-INCOMPATIBILITY
p82
aVARABIDOPSIS-THALIANA
p83
aVPROTEIN
p84
aVGENOME
p85
aVANNOTATION
p86
aVDEGRADATION
p87
aVDATABASE
p88
aVIDENTIFICATION
p89
aVASSEMBLIES
p90
aVEVOLUTION
p91
asS'language'
p92
VEnglish
p93
sS'wosid'
p94
VWOS:000260719500002
p95
sS'citationCount'
p96
I46
sS'authors_init'
p97
(lp98
(VYANG
VX H
tp99
a(VKALLURI
VU C
tp100
a(VJAWDY
VS
tp101
a(VGUNTER
VL E
tp102
a(VYIN
VT M
tp103
a(VTSCHAPLINSKI
VT J
tp104
a(VWESTON
VD J
tp105
a(VRANJAN
VP
tp106
a(VTUSKAN
VG A
tp107
asS'citedReferences'
p108
(lp109
g1
(g2
g3
NtRp110
(dp111
g69
V10.1093/nar/gkm260
p112
sg65
VNUCLEIC ACIDS RES
p113
sg67
V35
p114
sg97
(lp115
(VAL-SHAHROUR
VF
tp116
asg24
I2007
sg59
VW91
p117
sbag1
(g2
g3
NtRp118
(dp119
g69
V10.1016/j.tplants.2006.03.001
p120
sg65
VTRENDS PLANT SCI
p121
sg67
V11
p122
sg97
(lp123
(VBADESCU
VG O
tp124
asg24
I2006
sg59
V217
p125
sbag1
(g2
g3
NtRp126
(dp127
g69
V10.1105/tpc.106.048140
p128
sg65
VPLANT CELL
p129
sg67
V19
p130
sg97
(lp131
(VBINDER
VB M
tp132
asg24
I2007
sg59
VLANT
p133
sbag1
(g2
g3
NtRp134
(dp135
g69
V10.1016/j.gene.2006.11.016
p136
sg65
VGENE
p137
sg67
V392
p138
sg97
(lp139
(VCALDERON-VILLALOBOS
VL I A
tp140
asg24
I2007
sg59
V106
p141
sbag1
(g2
g3
NtRp142
(dp143
g69
V10.1101/gr.6438607
p144
sg65
VGENOME RES
p145
sg67
V17
p146
sg97
(lp147
(VCARMEL
VL
tp148
asg24
I2007
sg59
V1034
p149
sbag1
(g2
g3
NtRp150
(dp151
g69
V10.1038/sj.embor.7400275
p152
sg65
VEMBO Rep
p153
sg67
V5
sg97
(lp154
(VCHANG
VERIC C
tp155
asg24
I2004
sg59
V1041
p156
sbag1
(g2
g3
NtRp157
(dp158
g69
V10.1089/106652700750050871
p159
sg65
VJ COMPUT BIOL
p160
sg67
V7
sg97
(lp161
(VCHEN
VK
tp162
asg24
I2000
sg59
V429
p163
sbag1
(g2
g3
NtRp164
(dp165
g69
V10.1093/nar/gkl785
p166
sg65
VNUCLEIC ACIDS RES
p167
sg67
V35
p168
sg97
(lp169
(VCHILDS
VK L
tp170
asg24
I2007
sg59
VD846
p171
sbag1
(g2
g3
NtRp172
(dp173
g69
V10.1093/bioinformatics/bti610
p174
sg65
VBIOINFORMATICS
p175
sg67
V21
p176
sg97
(lp177
(VCONESA
VA
tp178
asg24
I2005
sg59
V3674
p179
sbag1
(g2
g3
NtRp180
(dp181
g69
V10.1038/nature03543
p182
sg65
VNATURE
p183
sg67
V435
p184
sg97
(lp185
(VDHARMASIRI
VN
tp186
asg24
I2005
sg59
V441
p187
sbag1
(g2
g3
NtRp188
(dp189
g69
V10.1101/gad.197201
p190
sg65
VGENE DEV
p191
sg67
V15
p192
sg97
(lp193
(VDIETERLE
VM
tp194
asg24
I2001
sg59
V939
p195
sbag1
(g2
g3
NtRp196
(dp197
g69
V10.1105/tpc.020958
p198
sg65
VPLANT CELL
p199
sg67
V16
p200
sg97
(lp201
(VDILL
VA
tp202
asg24
I2004
sg59
VLANT
p203
sbag1
(g2
g3
NtRp204
(dp205
g69
V10.1073/pnas.1033043100
p206
sg65
VP NATL ACAD SCI USA
p207
sg67
V100
p208
sg97
(lp209
(VDURFEE
VT
tp210
asg24
I2003
sg59
V8571
p211
sbag1
(g2
g3
NtRp212
(dp213
g69
V10.1093/bioinformatics/14.9.755
p214
sg65
VBIOINFORMATICS
p215
sg67
V14
p216
sg97
(lp217
(VEDDY
VS R
tp218
asg24
I1998
sg59
V755
p219
sbag1
(g2
g3
NtRp220
(dp221
g69
V10.1007/s00239-005-0176-2
p222
sg65
VJ MOL EVOL
p223
sg67
V62
p224
sg97
(lp225
(VEVANS
VJ
tp226
asg24
I2006
sg59
V785
p227
sbag1
(g2
g3
NtRp228
(dp229
g69
Nsg65
VCLADISTICS
p230
sg67
V5
sg97
(lp231
(VFELSENSTEIN
VJ
tp232
asg24
I1989
sg59
V164
p233
sbag1
(g2
g3
NtRp234
(dp235
g69
V10.1093/nar/gkg770
p236
sg65
VNUCLEIC ACIDS RES
p237
sg67
V31
p238
sg97
(lp239
(VHAAS
VB J
tp240
asg24
I2003
sg59
V5654
p241
sbag1
(g2
g3
NtRp242
(dp243
g69
V10.1111/j.1365-313X.2004.02207.x
p244
sg65
VPLANT J
p245
sg67
V40
p246
sg97
(lp247
(VHAN
VL Q
tp248
asg24
I2004
sg59
VLANT
p249
sbag1
(g2
g3
NtRp250
(dp251
g69
V10.1126/science.1110586
p252
sg65
VSCIENCE
p253
sg67
V309
p254
sg97
(lp255
(VIMAIZUMI
VT
tp256
asg24
I2005
sg59
V293
p257
sbag1
(g2
g3
NtRp258
(dp259
g69
V10.1038/nature06148
p260
sg65
VNATURE
p261
sg67
V449
p262
sg97
(lp263
(VJAILLON
VO
tp264
asg24
I2007
sg59
V463
p265
sbag1
(g2
g3
NtRp266
(dp267
g69
V10.1016/S0076-6879(05)99020-4
p268
sg65
VMETHOD ENZYMOL
p269
sg67
V399
p270
sg97
(lp271
(VJIN
VJ P
tp272
asg24
I2005
sg59
V287
p273
sbag1
(g2
g3
NtRp274
(dp275
g69
V10.1146/annurev.arplant.57.032905.105218
p276
sg65
VANNU REV PLANT BIOL
p277
sg67
V57
p278
sg97
(lp279
(VJONES-RHOADES
VM W
tp280
asg24
I2006
sg59
V19
p281
sbag1
(g2
g3
NtRp282
(dp283
g69
V10.1093/nar/gki198
p284
sg65
VNUCLEIC ACIDS RES
p285
sg67
V33
p286
sg97
(lp287
(VKATOH
VK
tp288
asg24
I2005
sg59
V511
p289
sbag1
(g2
g3
NtRp290
(dp291
g69
V10.1104/pp.105.074864
p292
sg65
VPLANT PHYSIOL
p293
sg67
V140
p294
sg97
(lp295
(VKEVEI
VE
tp296
asg24
I2006
sg59
VLANT
p297
sbag1
(g2
g3
NtRp298
(dp299
g69
V10.1111/j.1365-313X.2007.03052.x
p300
sg65
VPLANT J
p301
sg67
V50
p302
sg97
(lp303
(VKILIAN
VJ
tp304
asg24
I2007
sg59
VLANT
p305
sbag1
(g2
g3
NtRp306
(dp307
g69
V10.1105/tpc.001867
p308
sg65
VPLANT CELL
p309
sg67
V14
p310
sg97
(lp311
(VKIM
VH S
tp312
asg24
I2002
sg59
VLANT
p313
sbag1
(g2
g3
NtRp314
(dp315
g69
Nsg65
VGENOME BIOL
p316
sg67
V1
sg97
(lp317
(VKIPREOS
VE T
tp318
asg24
I2000
sg59
Nsbag1
(g2
g3
NtRp319
(dp320
g69
V10.1146/annurev.genet.39.073003.114725
p321
sg65
VANNU REV GENET
p322
sg67
V39
p323
sg97
(lp324
(VKOONIN
VE V
tp325
asg24
I2005
sg59
V309
p326
sbag1
(g2
g3
NtRp327
(dp328
g69
V10.1104/pp.103.037820
p329
sg65
VPLANT PHYSIOL
p330
sg67
V134
p331
sg97
(lp332
(VLAI
VC P
tp333
asg24
I2004
sg59
VLANT
p334
sbag1
(g2
g3
NtRp335
(dp336
g69
V10.1016/j.pbi.2006.09.003
p337
sg65
VCURR OPIN PLANT BIOL
p338
sg67
V9
sg97
(lp339
(VLECHNER
VE
tp340
asg24
I2006
sg59
V631
p341
sbag1
(g2
g3
NtRp342
(dp343
g69
V10.2174/138920206779315728
p344
sg65
VCURR GENOMICS
p345
sg67
V7
sg97
(lp346
(VMAZZUCOTELLI
VE
tp347
asg24
I2006
sg59
V509
p348
sbag1
(g2
g3
NtRp349
(dp350
g69
V10.1038/nature06856
p351
sg65
VNATURE
p352
sg67
V452
p353
sg97
(lp354
(VMING
VR
tp355
asg24
I2008
sg59
V991
p356
sbag1
(g2
g3
NtRp357
(dp358
g69
V10.1093/nar/gkl841
p359
sg65
VNUCLEIC ACIDS RES
p360
sg67
V35
p361
sg97
(lp362
(VMULDER
VN J
tp363
asg24
I2007
sg59
VD224
p364
sbag1
(g2
g3
NtRp365
(dp366
g69
V10.1093/nar/gkl976
p367
sg65
VNUCLEIC ACIDS RES
p368
sg67
V35
p369
sg97
(lp370
(VOUYANG
VS
tp371
asg24
I2007
sg59
VD883
p372
sbag1
(g2
g3
NtRp373
(dp374
g69
V10.1105/tpc.104.024919
p375
sg65
VPLANT CELL
p376
sg67
V16
p377
sg97
(lp378
(VQIAO
VH
tp379
asg24
I2004
sg59
VLANT
p380
sbag1
(g2
g3
NtRp381
(dp382
g69
V10.1093/nar/gkg076
p383
sg65
VNUCLEIC ACIDS RES
p384
sg67
V31
p385
sg97
(lp386
(VRHEE
VS Y
tp387
asg24
I2003
sg59
V224
p388
sbag1
(g2
g3
NtRp389
(dp390
g69
V10.1093/molbev/msl159
p391
sg65
VMOL BIOL EVOL
p392
sg67
V24
p393
sg97
(lp394
(VROY
VS W
tp395
asg24
I2007
sg59
V171
p396
sbag1
(g2
g3
NtRp397
(dp398
g69
V10.1038/ng1543
p399
sg65
VNAT GENET
p400
sg67
V37
p401
sg97
(lp402
(VSCHMID
VM
tp403
asg24
I2005
sg59
V501
p404
sbag1
(g2
g3
NtRp405
(dp406
g69
V10.1038/nature02523
p407
sg65
VNATURE
p408
sg67
V429
p409
sg97
(lp410
(VSIJACIC
VP
tp411
asg24
I2004
sg59
V302
p412
sbag1
(g2
g3
NtRp413
(dp414
g69
V10.1111/j.1365-313X.2007.03032.x
p415
sg65
VPLANT J
p416
sg67
V50
p417
sg97
(lp418
(VSTIRNBERG
VP
tp419
asg24
I2007
sg59
VLANT
p420
sbag1
(g2
g3
NtRp421
(dp422
g69
V10.1146/annurev.arplant.56.032604.144249
p423
sg65
VANNU REV PLANT BIOL
p424
sg67
V56
p425
sg97
(lp426
(VTAKAYAMA
VS
tp427
asg24
I2005
sg59
V467
p428
sbag1
(g2
g3
NtRp429
(dp430
g69
V10.1093/molbev/msm092
p431
sg65
VMOL BIOL EVOL
p432
sg67
V24
p433
sg97
(lp434
(VTAMURA
VK
tp435
asg24
I2007
sg59
V1596
p436
sbag1
(g2
g3
NtRp437
(dp438
g69
V10.1126/science.1128691
p439
sg65
VSCIENCE
p440
sg67
V313
p441
sg97
(lp442
(VTUSKAN
VG A
tp443
asg24
I2006
sg59
V1596
p444
sbag1
(g2
g3
NtRp445
(dp446
g69
V10.1007/s11103-004-6236-y
p447
sg65
VPLANT MOL BIOL
p448
sg67
V56
p449
sg97
(lp450
(VWANG
VL
tp451
asg24
I2004
sg59
VLANT
p452
sbag1
(g2
g3
NtRp453
(dp454
g69
V10.1105/tpc.13.8.1779
p455
sg65
VPLANT CELL
p456
sg67
V13
p457
sg97
(lp458
(VWOO
VH R
tp459
asg24
I2001
sg59
VLANT
p460
sbag1
(g2
g3
NtRp461
(dp462
g69
V10.1101/gr.7076308
p463
sg65
VGENOME RES
p464
sg67
V18
p465
sg97
(lp466
(VYIN
VT
tp467
asg24
I2008
sg59
V422
p468
sbasb.