ccopy_reg
_reconstructor
p1
(ctethne.classes.paper
Paper
p2
c__builtin__
object
p3
NtRp4
(dp5
S'publisherCity'
p6
VROCKVILLE
p7
sS'reprintAddress'
p8
VSomerville, CR (reprint author), Carnegie Inst Washington, Dept Plant Biol, 290 Panama St, Stanford, CA 94305 USA.
p9
sS'WC'
p10
VPlant Sciences
p11
sS'GA'
p12
V862NG
p13
sS'abstract'
p14
VThe gravitropism defective 2 (grv2) mutants of Arabidopsis show reduced shoot phototropism and gravitropism. Amyloplasts in the shoot endodermal cells of grv2 do not sediment to the same degree as in wild type. The GRV2 gene encodes a 277-kD polypeptide that is 42% similar to the Caenorhabditis elegans RME-8 protein, which is required for endocytosis. We hypothesize that a defect in endocytosis may affect both the initial gravity sensing via amyloplasts sedimentation and the subsequent more general tropic growth response.
p15
sS'pageEnd'
p16
I3103
sS'date'
p17
I2004
sS'documentType'
p18
VArticle
p19
sS'subject'
p20
VPlant Sciences
p21
sS'isoSource'
p22
VPlant Physiol.
p23
sS'timesCited'
p24
(lp25
I28
aVZ9 31
p26
asS'PT'
p27
VJ
sS'title'
p28
VThe Gravitropism Defective 2 Mutants Of Arabidopsis Are Deficient In A Protein Implicated In Endocytosis In Caenorhabditis Elegans
p29
sS'ISSN'
p30
(lp31
V0032-0889
p32
aVJ9 PLANT PHYSIOL
p33
asS'authors_full'
p34
(lp35
(VSILADY
VRA
tp36
a(VKATO
VT
tp37
a(VLUKOWITZ
VW
tp38
a(VSIEBER
VP
tp39
a(VTASAKA
VM
tp40
a(VSOMERVILLE
VCR
tp41
asS'PG'
p42
I9
sS'PD'
p43
VOCT
p44
sS'pageStart'
p45
I3095
sS'issue'
p46
I2
sS'RI'
p47
VSomerville, Christopher/A-4048-2009
p48
sS'journal'
p49
VPLANT PHYSIOLOGY
p50
sS'volume'
p51
V136
p52
sS'doi'
p53
V10.1104/pp.104.050583
p54
sS'emailAddress'
p55
Vcrs@stanford.edu
p56
sS'authorAddress'
p57
(lp58
VCarnegie Inst Washington, Dept Plant Biol, Stanford, CA 94305 USA.
p59
aVStanford Univ, Dept Biol Sci, Stanford, CA 94305 USA.
p60
aVNara Inst Sci & Technol, Grad Sch Biol Sci, Nara 6300101, Japan.
p61
asS'publisherAddress'
p62
V15501 MONONA DRIVE, ROCKVILLE, MD 20855 USA
p63
sS'ER'
p64
V
sS'publisher'
p65
VAMER SOC PLANT BIOLOGISTS
p66
sS'authorKeywords'
p67
(lp68
VJ-DOMAIN PROTEIN
p69
aVSHOOT GRAVITROPISM
p70
aVAUXIN TRANSPORT
p71
aVALTERED RESPONSE
p72
aVTHALIANA
p73
aVGRAVITY
p74
aVSNARE
p75
aVMUTAGENESIS
p76
aVENDODERMIS
p77
aVINTERACTS
p78
asS'language'
p79
VEnglish
p80
sS'wosid'
p81
VWOS:000224497000019
p82
sS'citationCount'
p83
I27
sS'authors_init'
p84
(lp85
(VSILADY
VR A
tp86
a(VKATO
VT
tp87
a(VLUKOWITZ
VW
tp88
a(VSIEBER
VP
tp89
a(VTASAKA
VM
tp90
a(VSOMERVILLE
VC R
tp91
asS'citedReferences'
p92
(lp93
g1
(g2
g3
NtRp94
(dp95
g53
V10.1126/science.1086391
p96
sg49
VSCIENCE
p97
sg51
V301
p98
sg84
(lp99
(VALONSO
VJ M
tp100
asg17
I2003
sg45
V653
p101
sbag1
(g2
g3
NtRp102
(dp103
g53
V10.1105/tpc.015560
p104
sg49
VPLANT CELL
p105
sg51
V15
p106
sg84
(lp107
(VBOONSIRICHAI
VK
tp108
asg17
I2003
sg45
VLANT
p109
sbag1
(g2
g3
NtRp110
(dp111
g53
V10.1007/BF00392807
p112
sg49
VPLANTA
p113
sg51
V177
p114
sg84
(lp115
(VCASPAR
VT
tp116
asg17
I1989
sg45
VLANTA
p117
sbag1
(g2
g3
NtRp118
(dp119
g53
V10.1083/jcb.200311084
p120
sg49
VJ CELL BIOL
p121
sg51
V164
p122
sg84
(lp123
(VCHANG
VH C
tp124
asg17
I2004
sg45
V1055
p125
sbag1
(g2
g3
NtRp126
(dp127
g53
V10.1016/S0092-8674(00)80115-4
p128
sg49
VCELL
p129
sg51
V86
p130
sg84
(lp131
(VDILAURENZIO
VL
tp132
asg17
I1996
sg45
V423
p133
sbag1
(g2
g3
NtRp134
(dp135
g53
Nsg49
VNATURE
p136
sg51
V415
p137
sg84
(lp138
(VFRIML
VJ
tp139
asg17
I2002
sg45
V806
p140
sbag1
(g2
g3
NtRp141
(dp142
g53
V10.1046/j.1365-313X.1998.00137.x
p143
sg49
VPLANT J
p144
sg51
V14
p145
sg84
(lp146
(VFUKAKI
VH
tp147
asg17
I1998
sg45
VLANT
p148
sbag1
(g2
g3
NtRp149
(dp150
g53
V10.1104/pp.110.3.945
p151
sg49
VPLANT PHYSIOL
p152
sg51
V110
p153
sg84
(lp154
(VFUKAKI
VH
tp155
asg17
I1996
sg45
VLANT
p156
sbag1
(g2
g3
NtRp157
(dp158
g53
V10.1007/BF02344538
p159
sg49
VJ PLANT RES
p160
sg51
V109
p161
sg84
(lp162
(VFUKAKI
VH
tp163
asg17
I1996
sg45
V129
p164
sbag1
(g2
g3
NtRp165
(dp166
g53
V10.1126/science.282.5397.2226
p167
sg49
VSCIENCE
p168
sg51
V282
p169
sg84
(lp170
(VGALWEILER
VL
tp171
asg17
I1998
sg45
V2226
p172
sbag1
(g2
g3
NtRp173
(dp174
g53
V10.1038/35096571
p175
sg49
VNATURE
p176
sg51
V413
p177
sg84
(lp178
(VGELDNER
VN
tp179
asg17
I2001
sg45
V425
p180
sbag1
(g2
g3
NtRp181
(dp182
g53
V10.1034/j.1399-3054.2003.00080.x
p183
sg49
VPHYSIOL PLANTARUM
p184
sg51
V118
p185
sg84
(lp186
(VHATAKEDA
VY
tp187
asg17
I2003
sg45
VHYSIOL
p188
sbag1
(g2
g3
NtRp189
(dp190
g53
V10.1016/S0092-8674(00)80865-X
p191
sg49
VCELL
p192
sg51
V101
p193
sg84
(lp194
(VHELARIUTTA
VY
tp195
asg17
I2000
sg45
V555
p196
sbag1
(g2
g3
NtRp197
(dp198
g53
V10.1104/pp.003533
p199
sg49
VPLANT PHYSIOL
p200
sg51
V129
p201
sg84
(lp202
(VJANDER
VG
tp203
asg17
I2002
sg45
VLANT
p204
sbag1
(g2
g3
NtRp205
(dp206
g53
V10.1105/tpc.010215
p207
sg49
VPLANT CELL
p208
sg51
V14
p209
sg84
(lp210
(VKATO
VT
tp211
asg17
I2002
sg45
VLANT
p212
sbag1
(g2
g3
NtRp213
(dp214
g53
Nsg49
VARABIDOPSIS BOOK
p215
sg51
Nsg84
(lp216
(VMASSON
VP H
tp217
asg17
I2002
sg45
Nsbag1
(g2
g3
NtRp218
(dp219
g53
V10.1126/science.8197457
p220
sg49
VSCIENCE
p221
sg51
V264
p222
sg84
(lp223
(VMEYER
VK
tp224
asg17
I1994
sg45
V1452
p225
sbag1
(g2
g3
NtRp226
(dp227
g53
V10.1105/tpc.010216
p228
sg49
VPLANT CELL
p229
sg51
V14
p230
sg84
(lp231
(VMORITA
VM T
tp232
asg17
I2002
sg45
VLANT
p233
sbag1
(g2
g3
NtRp234
(dp235
g53
V10.2307/2444235
p236
sg49
VAM J BOT
p237
sg51
V73
p238
sg84
(lp239
(VSACK
VF D
tp240
asg17
I1986
sg45
V1692
p241
sbag1
(g2
g3
NtRp242
(dp243
g53
V10.1016/S0074-7696(08)60695-6
p244
sg49
VINT REV CYTOL
p245
sg51
V127
p246
sg84
(lp247
(VSACK
VF D
tp248
asg17
I1991
sg45
V193
p249
sbag1
(g2
g3
NtRp250
(dp251
g53
V10.1073/pnas.96.3.1140
p252
sg49
VP NATL ACAD SCI USA
p253
sg51
V96
p254
sg84
(lp255
(VSEDBROOK
VJ C
tp256
asg17
I1999
sg45
V1140
p257
sbag1
(g2
g3
NtRp258
(dp259
g53
Nsg49
VJ BIOL CHEM
p260
sg51
V266
p261
sg84
(lp262
(VSULLIVAN
VM L
tp263
asg17
I1991
sg45
V23878
p264
sbag1
(g2
g3
NtRp265
(dp266
g53
V10.1101/gad.9.14.1797
p267
sg49
VGENE DEV
p268
sg51
V9
sg84
(lp269
(VSUNDARESAN
VV
tp270
asg17
I1995
sg45
V1797
p271
sbag1
(g2
g3
NtRp272
(dp273
g53
V10.1105/tpc.016121
p274
sg49
VPLANT CELL
p275
sg51
V15
p276
sg84
(lp277
(VSURPIN
VM
tp278
asg17
I2003
sg45
VLANT
p279
sbag1
(g2
g3
NtRp280
(dp281
g53
Nsg49
VPLANT CELL PHYSIOL
p282
sg51
V38
p283
sg84
(lp284
(VYAMAUCHI
VY
tp285
asg17
I1997
sg45
VLANT
p286
sbag1
(g2
g3
NtRp287
(dp288
g53
V10.1073/pnas.1430749100
p289
sg49
VP NATL ACAD SCI USA
p290
sg51
V100
p291
sg84
(lp292
(VYANO
VD
tp293
asg17
I2003
sg45
V8589
p294
sbag1
(g2
g3
NtRp295
(dp296
g53
Nsg49
VMOL BIOL CELL
p297
sg51
V12
p298
sg84
(lp299
(VZHANG
VY H
tp300
asg17
I2001
sg45
V2011
p301
sbasb.