ccopy_reg
_reconstructor
p1
(ctethne.classes.paper
Paper
p2
c__builtin__
object
p3
NtRp4
(dp5
S'publisherCity'
p6
VROCKVILLE
p7
sS'reprintAddress'
p8
VMesserschmidt, A (reprint author), Max Planck Inst Biochem, Abt Strukturforsch, Klopferspitz 18A, D-82152 Martinsried, Germany.
p9
sS'WC'
p10
VPlant Sciences
p11
sS'GA'
p12
V442QT
p13
sS'abstract'
p14
VThe pyridoxal 5 ' -phosphate-dependent enzyme cystathionine P-lyase (CBL) catalyzes the penultimate step in the de novo biosynthesis of Met in microbes and plants. Absence of CBL in higher organisms makes it an important target for the development of antibiotics and herbicides. The three-dimensional structure of cystathionine P-lyase from Arabidopsis was determined by Patterson search techniques, using the structure of tobacco (Nicotiana tabacum) cystathionine gamma -synthase as starting point. At a resolution of 2.3 Angstrom, the model was refined to a final crystallographic R-factor of 24.9%. The overall structure is very similar to other pyridoxal 5 ' -phosphate-dependent enzymes of the gamma -family. Exchange of a few critical residues within the active site causes the different substrate preferences between Escherichia coli and Arabidopsis CBL. Loss of interactions at the ol-carboxyl site is the reason for the poorer substrate binding of Arabidopsis CBI;. In addition, the binding pocket of Arabidopsis CBL is larger than that of E. coli CBL, explaining the similar binding of L-cystathionine and L-djenkolate in Arabidopsis CBT, in contrast to E. coli CBL, where the substrate binding site is optimized for the natural substrate cystathionine.
p15
sS'pageEnd'
p16
I642
sS'date'
p17
I2001
sS'documentType'
p18
VArticle
p19
sS'subject'
p20
VPlant Sciences
p21
sS'isoSource'
p22
VPlant Physiol.
p23
sS'timesCited'
p24
(lp25
I26
aVZ9 28
p26
asS'PT'
p27
VJ
sS'title'
p28
VThe Three-Dimensional Structure Of Cystathionine Beta-Lyase From Arabidopsis And Its Substrate Specificity
p29
sS'ISSN'
p30
(lp31
V0032-0889
p32
aVJ9 PLANT PHYSIOL
p33
asS'authors_full'
p34
(lp35
(VBREITINGER
VU
tp36
a(VCLAUSEN
VT
tp37
a(VEHLERT
VS
tp38
a(VHUBER
VR
tp39
a(VLABER
VB
tp40
a(VSCHMIDT
VF
tp41
a(VPOHL
VE
tp42
a(VMESSERSCHMIDT
VA
tp43
asS'PG'
p44
I12
sS'PD'
p45
VJUN
p46
sS'pageStart'
p47
I631
sS'issue'
p48
I2
sS'RI'
p49
VMesserschmidt, Albrecht/A-8337-2008; Pohl, Ehmke/I-2408-2012
p50
sS'journal'
p51
VPLANT PHYSIOLOGY
p52
sS'volume'
p53
V126
p54
sS'doi'
p55
V10.1104/pp.126.2.631
p56
sS'emailAddress'
p57
Vmessersc@biochem.mpg.de
p58
sS'authorAddress'
p59
(lp60
VMax Planck Inst Biochem, Abt Strukturforsch, D-82152 Martinsried, Germany.
p61
aVDESY, Outstn Hamburg, EMBL, D-22603 Hamburg, Germany.
p62
aVAventis CropSci UK, Biochem Res, Ongar CM5 0HW, Essex, England.
p63
aVAventis CropSci, Forsch Biochem, D-65926 Frankfurt, Germany.
p64
asS'publisherAddress'
p65
V15501 MONONA DRIVE, ROCKVILLE, MD 20855 USA
p66
sS'ER'
p67
V
sS'publisher'
p68
VAMER SOC PLANT BIOLOGISTS
p69
sS'authorKeywords'
p70
(lp71
VESCHERICHIA-COLI
p72
aVGAMMA-SYNTHASE
p73
aVCRYSTAL-STRUCTURE
p74
aVX-RAY
p75
aVMETHIONINE BIOSYNTHESIS
p76
aVBORDETELLA-AVIUM
p77
aVHIGHER-PLANTS
p78
aVPURIFICATION
p79
aVTHALIANA
p80
aVENZYMES
p81
asS'language'
p82
VEnglish
p83
sS'wosid'
p84
VWOS:000169297000021
p85
sS'citationCount'
p86
I46
sS'authors_init'
p87
(lp88
(VBREITINGER
VU
tp89
a(VCLAUSEN
VT
tp90
a(VEHLERT
VS
tp91
a(VHUBER
VR
tp92
a(VLABER
VB
tp93
a(VSCHMIDT
VF
tp94
a(VPOHL
VE
tp95
a(VMESSERSCHMIDT
VA
tp96
asS'citedReferences'
p97
(lp98
g1
(g2
g3
NtRp99
(dp100
g55
V10.1111/j.1432-1033.1994.tb18577.x
p101
sg51
VEUR J BIOCHEM
p102
sg53
V219
p103
sg87
(lp104
(VALEXANDER
VF W
tp105
asg17
I1994
sg47
V953
p106
sbag1
(g2
g3
NtRp107
(dp108
g55
V10.1093/protein/6.1.37
p109
sg51
VPROTEIN ENG
p110
sg53
V6
sg87
(lp111
(VBARTON
VG J
tp112
asg17
I1993
sg47
VROTEIN
p113
sbag1
(g2
g3
NtRp114
(dp115
g55
V10.1073/pnas.83.4.867
p116
sg51
VP NATL ACAD SCI USA
p117
sg53
V83
p118
sg87
(lp119
(VBELFAIZA
VJ
tp120
asg17
I1986
sg47
V867
p121
sbag1
(g2
g3
NtRp122
(dp123
g55
Nsg51
VTHESIS U ERLANGEN ER
p124
sg53
Nsg87
(lp125
(VBREITINGER
VU
tp126
asg17
I2000
sg47
Nsbag1
(g2
g3
NtRp127
(dp128
g55
V10.1107/S0907444998003254
p129
sg51
VACTA CRYSTALLOGR D
p130
sg53
V54
p131
sg87
(lp132
(VBRUNGER
VA T
tp133
asg17
I1998
sg47
V905
p134
sbag1
(g2
g3
NtRp135
(dp136
g55
V10.1038/80697
p137
sg51
VNAT STRUCT BIOL
p138
sg53
V7
sg87
(lp139
(VBURLEY
VS K
tp140
asg17
I2000
sg47
V932
p141
sbag1
(g2
g3
NtRp142
(dp143
g55
V10.1016/0005-2744(77)90158-9
p144
sg51
VBIOCHIM BIOPHYS ACTA
p145
sg53
V481
p146
sg87
(lp147
(VBURNELL
VJ N
tp148
asg17
I1977
sg47
V266
p149
sbag1
(g2
g3
NtRp150
(dp151
g55
V10.1006/jmbi.1996.0508
p152
sg51
VJ MOL BIOL
p153
sg53
V262
p154
sg87
(lp155
(VCLAUSEN
VT
tp156
asg17
I1996
sg47
V202
p157
sbag1
(g2
g3
NtRp158
(dp159
g55
V10.1093/emboj/17.23.6827
p160
sg51
VEMBO J
p161
sg53
V17
p162
sg87
(lp163
(VCLAUSEN
VT
tp164
asg17
I1998
sg47
V6827
p165
sbag1
(g2
g3
NtRp166
(dp167
g55
V10.1021/bi970630m
p168
sg51
VBIOCHEMISTRY
p169
sg53
V36
p170
sg87
(lp171
(VCLAUSEN
VT
tp172
asg17
I1997
sg47
V12633
p173
sbag1
(g2
g3
NtRp174
(dp175
g55
V10.1006/abbi.1995.1078
p176
sg51
VARCH BIOCHEM BIOPHYS
p177
sg53
V316
p178
sg87
(lp179
(VDROUX
VM
tp180
asg17
I1995
sg47
V585
p181
sbag1
(g2
g3
NtRp182
(dp183
g55
V10.1021/bi00256a005
p184
sg51
VBIOCHEMISTRY
p185
sg53
V21
p186
sg87
(lp187
(VDWIVEDI
VC M
tp188
asg17
I1982
sg47
V3064
p189
sbag1
(g2
g3
NtRp190
(dp191
g55
V10.1107/S0108767391001071
p192
sg51
VACTA CRYSTALLOGR A
p193
sg53
V47
p194
sg87
(lp195
(VENGH
VR A
tp196
asg17
I1991
sg47
V392
p197
sbag1
(g2
g3
NtRp198
(dp199
g55
V10.1016/0263-7855(93)87009-T
p200
sg51
VJ MOL GRAPHICS
p201
sg53
V11
p202
sg87
(lp203
(VEVANS
VS V
tp204
asg17
I1993
sg47
V134
p205
sbag1
(g2
g3
NtRp206
(dp207
g55
Nsg51
VJ BIOL CHEM
p208
sg53
V270
p209
sg87
(lp210
(VGENTRYWEEKS
VC R
tp211
asg17
I1995
sg47
V7695
p212
sbag1
(g2
g3
NtRp213
(dp214
g55
Nsg51
VJ BIOL CHEM
p215
sg53
V268
p216
sg87
(lp217
(VGENTRYWEEKS
VC R
tp218
asg17
I1993
sg47
V7298
p219
sbag1
(g2
g3
NtRp220
(dp221
g55
Nsg51
VPLANT PHYSIOL
p222
sg53
V51
p223
sg87
(lp224
(VGIOVANELLI
VJ
tp225
asg17
I1972
sg47
VLANT
p226
sbag1
(g2
g3
NtRp227
(dp228
g55
V10.1016/0005-2744(71)90015-5
p229
sg51
VBIOCHIM BIOPHYS ACTA
p230
sg53
V227
p231
sg87
(lp232
(VGIOVANELJ
S''
tp233
asg17
I1971
sg47
V654
p234
sbag1
(g2
g3
NtRp235
(dp236
g55
V10.1016/0006-291X(90)92037-Z
p237
sg51
VBIOCHEM BIOPH RES CO
p238
sg53
V167
p239
sg87
(lp240
(VHAYASHI
VH
tp241
asg17
I1990
sg47
V407
p242
sbag1
(g2
g3
NtRp243
(dp244
g55
V10.1021/bi00454a019
p245
sg51
VBIOCHEMISTRY
p246
sg53
V29
p247
sg87
(lp248
(VHOLBROOK
VE L
tp249
asg17
I1990
sg47
V435
p250
sbag1
(g2
g3
NtRp251
(dp252
g55
Nsg51
VBIOL MACROMOL
p253
sg53
V3
sg87
(lp254
(VJANSONIUS
VJ N
tp255
asg17
I1987
sg47
V187
p256
sbag1
(g2
g3
NtRp257
(dp258
g55
V10.1016/0167-4838(95)00025-P
p259
sg51
VBBA
p260
sg53
V1248
p261
sg87
(lp262
(VJOHN
VR A
tp263
asg17
I1995
sg47
V81
p264
sbag1
(g2
g3
NtRp265
(dp266
g55
V10.1107/S0108767390010224
p267
sg51
VACTA CRYSTALLOGR A
p268
sg53
V47
p269
sg87
(lp270
(VJONES
VT A
tp271
asg17
I1991
sg47
V110
p272
sbag1
(g2
g3
NtRp273
(dp274
g55
Nsg51
VMOL REPLACEMENT CCP4
p275
sg53
Nsg87
(lp276
(VJONES
VT A
tp277
asg17
I1992
sg47
V99
p278
sbag1
(g2
g3
NtRp279
(dp280
g55
Nsg51
VJ BIOL CHEM
p281
sg53
V241
p282
sg87
(lp283
(VKAPLAN
VM M
tp284
asg17
I1996
sg47
V5781
p285
sbag1
(g2
g3
NtRp286
(dp287
g55
Nsg51
VESF CCP4 NEWSLETTER
p288
sg53
V31
p289
sg87
(lp290
(VKLEYWEGT
VG J
tp291
asg17
I1994
sg47
V9
sbag1
(g2
g3
NtRp292
(dp293
g55
V10.1107/S0021889891004399
p294
sg51
VJ APPL CRYSTALLOGR
p295
sg53
V24
p296
sg87
(lp297
(VKRAULIS
VP J
tp298
asg17
I1991
sg47
V946
p299
sbag1
(g2
g3
NtRp300
(dp301
g55
Nsg51
VPLANT PHYSIOL
p302
sg53
V104
p303
sg87
(lp304
(VKREFT
VB D
tp305
asg17
I1994
sg47
VLANT
p306
sbag1
(g2
g3
NtRp307
(dp308
g55
V10.1107/S0021889892009944
p309
sg51
VJ APPL CRYSTALLOGR
p310
sg53
V26
p311
sg87
(lp312
(VLASKOWSKI
VR A
tp313
asg17
I1993
sg47
V283
p314
sbag1
(g2
g3
NtRp315
(dp316
g55
Nsg51
VBIOCH VITAMIN B6
p317
sg53
Nsg87
(lp318
(VMARTEL
VA
tp319
asg17
I1987
sg47
V341
p320
sbag1
(g2
g3
NtRp321
(dp322
g55
V10.1107/S0907444994006396
p323
sg51
VACTA CRYSTALLOGR D
p324
sg53
V50
p325
sg87
(lp326
(VMERRITT
VE A
tp327
asg17
I1994
sg47
V869
p328
sbag1
(g2
g3
NtRp329
(dp330
g55
Nsg51
VJ BACTERIOL
p331
sg53
V172
p332
sg87
(lp333
(VMINAMISAWA
VK
tp334
asg17
I1990
sg47
V4505
p335
sbag1
(g2
g3
NtRp336
(dp337
g55
Nsg51
VPLANT J
p338
sg53
V2
sg87
(lp339
(VMINET
VM
tp340
asg17
I1992
sg47
VLANT
p341
sbag1
(g2
g3
NtRp342
(dp343
g55
V10.1107/S0108767393007597
p344
sg51
VACTA CRYSTALLOGR A
p345
sg53
V50
p346
sg87
(lp347
(VNAVAZA
VJ
tp348
asg17
I1994
sg47
V157
p349
sbag1
(g2
g3
NtRp350
(dp351
g55
V10.1016/S0076-6879(97)76066-X
p352
sg51
VMETHOD ENZYMOL
p353
sg53
V276
p354
sg87
(lp355
(VOTWINOWSKI
VZ
tp356
asg17
I1997
sg47
V307
p357
sbag1
(g2
g3
NtRp358
(dp359
g55
V10.1016/0304-4165(68)90134-7
p360
sg51
VBIOCHIM BIOPHYS ACTA
p361
sg53
V158
p362
sg87
(lp363
(VOWENS
VL D
tp364
asg17
I1968
sg47
V219
p365
sbag1
(g2
g3
NtRp366
(dp367
g55
V10.1016/S0065-3233(08)60402-7
p368
sg51
VAdv Protein Chem
p369
sg53
V23
p370
sg87
(lp371
(VRAMACHANDRAN
VG N
tp372
asg17
I1968
sg47
V283
p373
sbag1
(g2
g3
NtRp374
(dp375
g55
V10.1021/ar50092a004
p376
sg51
VACCOUNTS CHEM RES
p377
sg53
V8
sg87
(lp378
(VRANDO
VR R
tp379
asg17
I1975
sg47
V281
p380
sbag1
(g2
g3
NtRp381
(dp382
g55
V10.1007/BF00041177
p383
sg51
VPLANT MOL BIOL
p384
sg53
V29
p385
sg87
(lp386
(VRAVANEL
VS
tp387
asg17
I1995
sg47
VLANT
p388
sbag1
(g2
g3
NtRp389
(dp390
g55
Nsg51
VBIOCHEM J
p391
sg53
V320
p392
sg87
(lp393
(VRAVANEL
VS
tp394
asg17
I1996
sg47
V383
p395
sbag1
(g2
g3
NtRp396
(dp397
g55
V10.1006/jmbi.1996.0061
p398
sg51
VJ MOL BIOL
p399
sg53
V255
p400
sg87
(lp401
(VSCHMIDT
VT G M
tp402
asg17
I1996
sg47
V753
p403
sbag1
(g2
g3
NtRp404
(dp405
g55
V10.1016/0378-1119(94)90643-2
p406
sg51
VGENE
p407
sg53
V151
p408
sg87
(lp409
(VSKERRA
VA
tp410
asg17
I1994
sg47
V131
p411
sbag1
(g2
g3
NtRp412
(dp413
g55
V10.1006/jmbi.1999.2935
p414
sg51
VJ MOL BIOL
p415
sg53
V290
p416
sg87
(lp417
(VSTEEGBORN
VC
tp418
asg17
I1999
sg47
V983
p419
sbag1
(g2
g3
NtRp420
(dp421
g55
Nsg51
VNATURE
p422
sg53
V408
p423
sg87
(lp424
(VKAUL
VS
tp425
asg17
I2000
sg47
V796
p426
sbag1
(g2
g3
NtRp427
(dp428
g55
V10.1016/S0031-9422(97)00566-9
p429
sg51
VPHYTOCHEMISTRY
p430
sg53
V47
p431
sg87
(lp432
(VTURNER
VW L
tp433
asg17
I1998
sg47
VHYTOCHEMISTRY
p434
sbag1
(g2
g3
NtRp435
(dp436
g55
V10.1016/0378-1119(85)90120-9
p437
sg51
VGENE
p438
sg53
V33
p439
sg87
(lp440
(VYANISCHPERRON
VC
tp441
asg17
I1985
sg47
V103
p442
sbasb.