ccopy_reg
_reconstructor
p1
(ctethne.classes.paper
Paper
p2
c__builtin__
object
p3
NtRp4
(dp5
S'publisherCity'
p6
VROCKVILLE
p7
sS'reprintAddress'
p8
VWeaver, LM (reprint author), John Innes Ctr, Sainsbury Lab, Coloney Lane, Norwich NR4 7UH, Norfolk, England.
p9
sS'WC'
p10
VPlant Sciences
p11
sS'GA'
p12
V493YN
p13
sS'abstract'
p14
VIt has long been known that leaf senescence can be induced in many plant species by detaching leaves and placing them in the darkness. It recently has been shown that entire Arabidopsis plants placed in the darkness are not induced to senesce, as judged by visible yellowing and certain molecular markers. Here, we show that when individual Arabidopsis leaves are darkened, but not when entire plants are darkened, senescence is induced in the covered leaves. This induction of senescence is highly localized. The phenomenon is leaf age dependent in that it occurs more rapidly and strongly in older leaves than in younger ones, as is the case with many forms of induced senescence. Whole adult plants placed in darkness, in contrast, show delayed senescence, although seedlings lacking primary leaves do not. These observations imply that the light status of the entire plant affects the senescence of individual leaves. A model summarizing the results is presented.
p15
sS'pageEnd'
p16
I886
sS'publisherAddress'
p17
V15501 MONONA DRIVE, ROCKVILLE, MD 20855 USA
p18
sS'documentType'
p19
VArticle
p20
sS'subject'
p21
VPlant Sciences
p22
sS'isoSource'
p23
VPlant Physiol.
p24
sS'timesCited'
p25
(lp26
I99
aVZ9 105
p27
asS'PT'
p28
VJ
sS'title'
p29
VSenescence Is Induced In Individually Darkened Arabidopsis Leaves But Inhibited In Whole Darkened Plants
p30
sS'ISSN'
p31
(lp32
V0032-0889
p33
aVJ9 PLANT PHYSIOL
p34
asS'authors_full'
p35
(lp36
(VWEAVER
VLM
tp37
a(VAMASINO
VRM
tp38
asS'PG'
p39
I11
sS'PD'
p40
VNOV
p41
sS'pageStart'
p42
I876
sS'issue'
p43
I3
sS'journal'
p44
VPLANT PHYSIOLOGY
p45
sS'volume'
p46
V127
p47
sS'doi'
p48
V10.1104/pp.010312
p49
sS'authorAddress'
p50
(lp51
VJohn Innes Ctr, Sainsbury Lab, Norwich NR4 7UH, Norfolk, England.
p52
aVUniv Wisconsin, Dept Biochem, Madison, WI 53706 USA.
p53
asS'date'
p54
I2001
sS'ER'
p55
V
sS'publisher'
p56
VAMER SOC PLANT BIOLOGISTS
p57
sS'authorKeywords'
p58
(lp59
VPHYTOCHROME-CHROMOPHORE BIOSYNTHESIS
p60
aVLEAF SENESCENCE
p61
aVBINDING PROTEINS
p62
aVWHEAT LEAVES
p63
aVTHALIANA
p64
aVLIGHT
p65
aVIDENTIFICATION
p66
aVEXPRESSION
p67
aVPHOTOCONTROL
p68
aVDEGRADATION
p69
asS'language'
p70
VEnglish
p71
sS'wosid'
p72
VWOS:000172251200020
p73
sS'citationCount'
p74
I30
sS'authors_init'
p75
(lp76
(VWEAVER
VL M
tp77
a(VAMASINO
VR M
tp78
asS'citedReferences'
p79
(lp80
g1
(g2
g3
NtRp81
(dp82
g48
Nsg44
VPLANT CELL PHYSIOL
p83
sg46
V24
p84
sg75
(lp85
(VBISWAL
VB
tp86
asg54
I1983
sg42
VLANT
p87
sbag1
(g2
g3
NtRp88
(dp89
g48
Nsg44
VPLANT CELL PHYSIOL
p90
sg46
V27
p91
sg75
(lp92
(VBISWAL
VB
tp93
asg54
I1986
sg42
VLANT
p94
sbag1
(g2
g3
NtRp95
(dp96
g48
V10.1111/j.1751-1097.1984.tb08874.x
p97
sg44
VPHOTOCHEM PHOTOBIOL
p98
sg46
V39
p99
sg75
(lp100
(VBISWAL
VU C
tp101
asg54
I1984
sg42
VHOTOCHEM
p102
sbag1
(g2
g3
NtRp103
(dp104
g48
V10.1111/j.1751-1097.1982.tb03839.x
p105
sg44
VPHOTOCHEM PHOTOBIOL
p106
sg46
V35
p107
sg75
(lp108
(VBISWAL
VU C
tp109
asg54
I1982
sg42
VHOTOCHEM
p110
sbag1
(g2
g3
NtRp111
(dp112
g48
V10.1104/pp.97.4.1402
p113
sg44
VPLANT PHYSIOL
p114
sg46
V97
p115
sg75
(lp116
(VBLANK
VA
tp117
asg54
I1991
sg42
VLANT
p118
sbag1
(g2
g3
NtRp119
(dp120
g48
V10.1104/pp.97.4.1409
p121
sg44
VPLANT PHYSIOL
p122
sg46
V97
p123
sg75
(lp124
(VBLANK
VA
tp125
asg54
I1991
sg42
VLANT
p126
sbag1
(g2
g3
NtRp127
(dp128
g48
V10.1104/pp.96.3.775
p129
sg44
VPLANT PHYSIOL
p130
sg46
V96
p131
sg75
(lp132
(VCHERRY
VJ R
tp133
asg54
I1991
sg42
VLANT
p134
sbag1
(g2
g3
NtRp135
(dp136
g48
V10.1073/pnas.96.11.6541
p137
sg44
VP NATL ACAD SCI USA
p138
sg46
V96
p139
sg75
(lp140
(VDAVIS
VS J
tp141
asg54
I1999
sg42
V6541
p142
sbag1
(g2
g3
NtRp143
(dp144
g48
V10.1046/j.1365-313X.1995.8040595.x
p145
sg44
VPLANT J
p146
sg46
V8
sg75
(lp147
(VGRBIC
VV
tp148
asg54
I1995
sg42
VLANT
p149
sbag1
(g2
g3
NtRp150
(dp151
g48
V10.1086/337760
p152
sg44
VBOT GAZ
p153
sg46
V150
p154
sg75
(lp155
(VGUIAMET
VJ J
tp156
asg54
I1989
sg42
V148
p157
sbag1
(g2
g3
NtRp158
(dp159
g48
V10.1007/s004250050199
p160
sg44
VPLANTA
p161
sg46
V203
p162
sg75
(lp163
(VKLEBERJANKE
VT
tp164
asg54
I1997
sg42
VLANTA
p165
sbag1
(g2
g3
NtRp166
(dp167
g48
Nsg44
VMOL GEN GENET
p168
sg46
V229
p169
sg75
(lp170
(VKOOMNEEF
VM
tp171
asg54
I1991
sg42
V57
p172
sbag1
(g2
g3
NtRp173
(dp174
g48
Nsg44
VZ PFLANZENPHYSIOL
p175
sg46
V100
p176
sg75
(lp177
(VKOORNNEEF
VM
tp178
asg54
I1980
sg42
V147
p179
sbag1
(g2
g3
NtRp180
(dp181
g48
V10.1034/j.1399-3054.1994.920218.x
p182
sg44
VPHYSIOL PLANTARUM
p183
sg46
V92
p184
sg75
(lp185
(VLOHMAN
VK N
tp186
asg54
I1994
sg42
VHYSIOL
p187
sbag1
(g2
g3
NtRp188
(dp189
g48
Nsg44
VPHYSIOL PLANTARUM
p190
sg46
V96
p191
sg75
(lp192
(VNOODEN
VL D
tp193
asg54
I1996
sg42
VHYSIOL
p194
sbag1
(g2
g3
NtRp195
(dp196
g48
V10.1007/BF00019008
p197
sg44
VPLANT MOL BIOL
p198
sg46
V30
p199
sg75
(lp200
(VOH
VS A
tp201
asg54
I1996
sg42
VLANT
p202
sbag1
(g2
g3
NtRp203
(dp204
g48
V10.1046/j.1365-313X.1997.00527.x
p205
sg44
VPLANT J
p206
sg46
V12
p207
sg75
(lp208
(VOH
VS A
tp209
asg54
I1997
sg42
VLANT
p210
sbag1
(g2
g3
NtRp211
(dp212
g48
Nsg44
VPLANT CELL
p213
sg46
V3
sg75
(lp214
(VPARKS
VB M
tp215
asg54
I1991
sg42
VLANT
p216
sbag1
(g2
g3
NtRp217
(dp218
g48
V10.1046/j.1365-3040.1997.d01-51.x
p219
sg44
VPLANT CELL ENVIRON
p220
sg46
V20
p221
sg75
(lp222
(VROUSSEAUX
VM C
tp223
asg54
I1997
sg42
VLANT
p224
sbag1
(g2
g3
NtRp225
(dp226
g48
Nsg44
VPHYSIOL PLANTARUM
p227
sg46
V96
p228
sg75
(lp229
(VROUSSEAUX
VM C
tp230
asg54
I1996
sg42
VHYSIOL
p231
sbag1
(g2
g3
NtRp232
(dp233
g48
V10.1073/pnas.84.2.359
p234
sg44
VP NATL ACAD SCI USA
p235
sg46
V84
p236
sg75
(lp237
(VSHANKLIN
VJ
tp238
asg54
I1987
sg42
V359
p239
sbag1
(g2
g3
NtRp240
(dp241
g48
V10.1016/S0005-2728(05)80336-6
p242
sg44
VBIOCHIM BIOPHYS ACTA
p243
sg46
V1098
p244
sg75
(lp245
(VSIGRIST
VM
tp246
asg54
I1992
sg42
V191
p247
sbag1
(g2
g3
NtRp248
(dp249
g48
Nsg44
VPLANT CELL
p250
sg46
V3
sg75
(lp251
(VSOMERS
VD E
tp252
asg54
I1991
sg42
VLANT
p253
sbag1
(g2
g3
NtRp254
(dp255
g48
V10.1073/pnas.76.6.2770
p256
sg44
VP NATL ACAD SCI USA
p257
sg46
V76
p258
sg75
(lp259
(VTHIMANN
VK V
tp260
asg54
I1979
sg42
V2770
p261
sbag1
(g2
g3
NtRp262
(dp263
g48
V10.1016/0304-4211(81)90031-6
p264
sg44
VPLANT SCI LETT
p265
sg46
V23
p266
sg75
(lp267
(VTUCKER
VD J
tp268
asg54
I1981
sg42
VLANT
p269
sbag1
(g2
g3
NtRp270
(dp271
g48
V10.1016/0378-1119(93)90450-H
p272
sg44
VGENE
p273
sg46
V136
p274
sg75
(lp275
(VVANGYSEL
VA
tp276
asg54
I1993
sg42
V79
p277
sbag1
(g2
g3
NtRp278
(dp279
g48
Nsg44
VPHYSIOL PLANTARUM
p280
sg46
V71
p281
sg75
(lp282
(VVEIRERSKOV
VB
tp283
asg54
I1987
sg42
VHYSIOL
p284
sbag1
(g2
g3
NtRp285
(dp286
g48
V10.1023/A:1005934428906
p287
sg44
VPLANT MOL BIOL
p288
sg46
V37
p289
sg75
(lp290
(VWEAVER
VL M
tp291
asg54
I1998
sg42
VLANT
p292
sbag1
(g2
g3
NtRp293
(dp294
g48
V10.1016/0926-6585(65)90170-6
p295
sg44
VBIOCHIM BIOPHYS ACTA
p296
sg46
V109
p297
sg75
(lp298
(VWINTERMAJF
S''
tp299
asg54
I1965
sg42
V448
p300
sbag1
(g2
g3
NtRp301
(dp302
g48
V10.1104/pp.59.6.1039
p303
sg44
VPLANT PHYSIOL
p304
sg46
V59
p305
sg75
(lp306
(VWITTENBACH
VV A
tp307
asg54
I1977
sg42
VLANT
p308
sbasb.