ccopy_reg
_reconstructor
p1
(ctethne.classes.paper
Paper
p2
c__builtin__
object
p3
NtRp4
(dp5
S'publisherCity'
p6
VROCKVILLE
p7
sS'reprintAddress'
p8
VRetzel, EF (reprint author), Univ Minnesota, Ctr Computat Genom & Bioinformat, Minneapolis, MN 55455 USA.
p9
sS'WC'
p10
VPlant Sciences
p11
sS'GA'
p12
V925AE
p13
sS'abstract'
p14
VAn international consortium is sequencing the euchromatic genespace of Medicago truncatula. Extensive bioinformatic and database resources support the marker- anchored bacterial artificial chromosome ( BAC) sequencing strategy. Existing physical and genetic maps and deep BAC- end sequencing help to guide the sequencing effort, while EST databases provide essential resources for genome annotation as well as transcriptome characterization and microarray design. Finished BAC sequences are joined into overlapping sequence assemblies and undergo an automated annotation process that integrates ab initio predictions with EST, protein, and other recognizable features. Because of the sequencing project's international and collaborative nature, data production, storage, and visualization tools are broadly distributed. This paper describes databases and Web resources for the project, which provide support for physical and genetic maps, genome sequence assembly, gene prediction, and integration of EST data. A central project Web site at medicago. org/ genome provides access to genome viewers and other resources project- wide, including an Ensembl implementation at medicago. org, physical map and marker resources at mtgenome. ucdavis. edu, and genome viewers at the University of Oklahoma ( www. genome. ou. edu), the Institute for Genomic Research ( www. tigr. org), and Munich Information for Protein Sequences Center ( mips. gsf. de).
p15
sS'pageEnd'
p16
I46
sS'publisherAddress'
p17
V15501 MONONA DRIVE, ROCKVILLE, MD 20855 USA
p18
sS'documentType'
p19
VArticle
p20
sS'subject'
p21
VPlant Sciences
p22
sS'isoSource'
p23
VPlant Physiol.
p24
sS'timesCited'
p25
(lp26
I38
aVZ9 42
p27
asS'PT'
p28
VJ
sS'title'
p29
VDatabases And Information Integration For The Medicago Truncatula Genome And Transcriptome
p30
sS'ISSN'
p31
(lp32
V0032-0889
p33
aVJ9 PLANT PHYSIOL
p34
asS'authors_full'
p35
(lp36
(VCANNON
VSB
tp37
a(VCROW
VJA
tp38
a(VHEUER
VML
tp39
a(VWANG
VXH
tp40
a(VCANNON
VEKS
tp41
a(VDWAN
VC
tp42
a(VLAMBLIN
VAF
tp43
a(VVASDEWANI
VJ
tp44
a(VMUDGE
VJ
tp45
a(VCOOK
VA
tp46
a(VGISH
VJ
tp47
a(VCHEUNG
VF
tp48
a(VKENTON
VS
tp49
a(VKUNAU
VTM
tp50
a(VBROWN
VD
tp51
a(VMAY
VGD
tp52
a(VKIM
VD
tp53
a(VCOOK
VDR
tp54
a(VROE
VBA
tp55
a(VTOWN
VCD
tp56
a(VYOUNG
VND
tp57
a(VRETZEL
VEF
tp58
asS'PG'
p59
I9
sS'PD'
p60
VMAY
p61
sS'pageStart'
p62
I38
sS'issue'
p63
I1
sS'journal'
p64
VPLANT PHYSIOLOGY
p65
sS'volume'
p66
V138
p67
sS'doi'
p68
V10.1104/pp.104.059204
p69
sS'emailAddress'
p70
Vernest@ccgb.umn.edu
p71
sS'authorAddress'
p72
(lp73
VUniv Minnesota, Ctr Computat Genom & Bioinformat, Minneapolis, MN 55455 USA.
p74
aVUniv Minnesota, Dept Plant Pathol, St Paul, MN 55108 USA.
p75
aVUniv Calif Davis, Dept Plant Pathol, Davis, CA 95616 USA.
p76
aVInst Genom Res, Rockville, MD 20850 USA.
p77
aVUniv Oklahoma, Dept Chem & Biochem, Norman, OK 73019 USA.
p78
aVSamuel Roberts Noble Fdn Inc, Div Plant Biol, Ardmore, OK 73401 USA.
p79
aVN Carolina State Univ, Fungal Genom Lab, Dept Plant Pathol, Raleigh, NC 27695 USA.
p80
asS'date'
p81
I2005
sS'ER'
p82
V
sS'publisher'
p83
VAMER SOC PLANT BIOLOGISTS
p84
sS'authorKeywords'
p85
(lp86
VLOTUS-JAPONICUS
p87
aVMAIZE
p88
aVDNA
p89
aVPREDICTION
p90
aVSEQUENCES
p91
aVPROGRAMS
p92
aVCLONES
p93
aVSATIVA
p94
aVEST
p95
aVMAP
p96
asS'language'
p97
VEnglish
p98
sS'wosid'
p99
VWOS:000229023100005
p100
sS'citationCount'
p101
I34
sS'authors_init'
p102
(lp103
(VCANNON
VS B
tp104
a(VCROW
VJ A
tp105
a(VHEUER
VM L
tp106
a(VWANG
VX H
tp107
a(VCANNON
VE K S
tp108
a(VDWAN
VC
tp109
a(VLAMBLIN
VA F
tp110
a(VVASDEWANI
VJ
tp111
a(VMUDGE
VJ
tp112
a(VCOOK
VA
tp113
a(VGISH
VJ
tp114
a(VCHEUNG
VF
tp115
a(VKENTON
VS
tp116
a(VKUNAU
VT M
tp117
a(VBROWN
VD
tp118
a(VMAY
VG D
tp119
a(VKIM
VD
tp120
a(VCOOK
VD R
tp121
a(VROE
VB A
tp122
a(VTOWN
VC D
tp123
a(VYOUNG
VN D
tp124
a(VRETZEL
VE F
tp125
asS'citedReferences'
p126
(lp127
g1
(g2
g3
NtRp128
(dp129
g68
V10.1093/nar/25.17.3389
p130
sg64
VNUCLEIC ACIDS RES
p131
sg66
V25
p132
sg102
(lp133
(VALTSCHUL
VS F
tp134
asg81
I1997
sg62
V3389
p135
sbag1
(g2
g3
NtRp136
(dp137
g68
V10.1093/nar/gkh131
p138
sg64
VNUCLEIC ACIDS RES
p139
sg66
V32
p140
sg102
(lp141
(VAPWEILER
VR
tp142
asg81
I2004
sg62
VD115
p143
sbag1
(g2
g3
NtRp144
(dp145
g68
VDOI 10.1007/BF02672069
p146
sg64
VPLANT MOL BIOL REP
p147
sg66
V9
sg102
(lp148
(VARUMUGANATHAN
VK
tp149
asg81
I1991
sg62
VLANT
p150
sbag1
(g2
g3
NtRp151
(dp152
g68
V10.1093/nar/29.1.114
p153
sg64
VNUCLEIC ACIDS RES
p154
sg66
V29
p155
sg102
(lp156
(VBELL
VC J
tp157
asg81
I2001
sg62
V114
p158
sbag1
(g2
g3
NtRp159
(dp160
g68
V10.1093/nar/gkh038
p161
sg64
VNUCLEIC ACIDS RES
p162
sg66
V32
p163
sg102
(lp164
(VBIRNEY
VE
tp165
asg81
I2004
sg62
VD468
p166
sbag1
(g2
g3
NtRp167
(dp168
g68
V10.1139/g94-037
p169
sg64
VGENOME
p170
sg66
V37
p171
sg102
(lp172
(VBLONDON
VF
tp173
asg81
I1994
sg62
V264
p174
sbag1
(g2
g3
NtRp175
(dp176
g68
V10.1093/nar/gki034
p177
sg64
VNUCLEIC ACIDS RES
p178
sg66
V33
p179
sg102
(lp180
(VBRU
VC
tp181
asg81
I2005
sg62
VD212
p182
sbag1
(g2
g3
NtRp183
(dp184
g68
V10.1006/jmbi.1997.0951
p185
sg64
VJ MOL BIOL
p186
sg66
V268
p187
sg102
(lp188
(VBURGE
VC
tp189
asg81
I1997
sg62
V78
p190
sbag1
(g2
g3
NtRp191
(dp192
g68
V10.1534/genetics.166.3.1463
p193
sg64
VGENETICS
p194
sg66
V166
p195
sg102
(lp196
(VCHOI
VH K
tp197
asg81
I2004
sg62
V1463
p198
sbag1
(g2
g3
NtRp199
(dp200
g68
V10.1073/pnas.0400961101
p201
sg64
VP NATL ACAD SCI USA
p202
sg66
V101
p203
sg102
(lp204
(VCOOK
VD R
tp205
asg81
I2004
sg62
V4339
p206
sbag1
(g2
g3
NtRp207
(dp208
g68
V10.1093/bioinformatics/bti166
p209
sg64
VBIOINFORMATICS
p210
sg66
V21
p211
sg102
(lp212
(VDEGROEVE
VS
tp213
asg81
I2005
sg62
V1332
p214
sbag1
(g2
g3
NtRp215
(dp216
g68
V10.1186/1471-2105-2-7
p217
sg64
VBMC Bioinformatics
p218
sg66
V2
sg102
(lp219
(VDOWELL
VR D
tp220
asg81
I2001
sg62
V7
sbag1
(g2
g3
NtRp221
(dp222
g68
V10.1093/nar/gkg586#
p223
sg64
VNUCLEIC ACIDS RES
p224
sg66
V31
p225
sg102
(lp226
(VFOISSAC
VS
tp227
asg81
I2003
sg62
V3742
p228
sbag1
(g2
g3
NtRp229
(dp230
g68
V10.1093/nar/gkg770
p231
sg64
VNUCLEIC ACIDS RES
p232
sg66
V31
p233
sg102
(lp234
(VHAAS
VB J
tp235
asg81
I2003
sg62
V5654
p236
sbag1
(g2
g3
NtRp237
(dp238
g68
V10.1093/nar/24.17.3439
p239
sg64
VNUCLEIC ACIDS RES
p240
sg66
V24
p241
sg102
(lp242
(VHEBSGAARD
VS M
tp243
asg81
I1996
sg62
V3439
p244
sbag1
(g2
g3
NtRp245
(dp246
g68
V10.1093/nar/gkf685
p247
sg64
VNUCLEIC ACIDS RES
p248
sg66
V30
p249
sg102
(lp250
(VJOURNET
VE P
tp251
asg81
I2002
sg62
V5579
p252
sbag1
(g2
g3
NtRp253
(dp254
g68
V10.1093/dnares/10.6.277
p255
sg64
VDNA RES
p256
sg66
V10
p257
sg102
(lp258
(VKATO
VT
tp259
asg81
I2003
sg62
V277
p260
sbag1
(g2
g3
NtRp261
(dp262
g68
V10.1007/s00412-004-0315-3
p263
sg64
VCHROMOSOMA
p264
sg66
V113
p265
sg102
(lp266
(VKULIKOVA
VO
tp267
asg81
I2004
sg62
V276
p268
sbag1
(g2
g3
NtRp269
(dp270
g68
V10.1046/j.1365-313x.2001.01057.x
p271
sg64
VPLANT J
p272
sg66
V27
p273
sg102
(lp274
(VKULIKOVA
VO
tp275
asg81
I2001
sg62
VLANT
p276
sbag1
(g2
g3
NtRp277
(dp278
g68
V10.1093/nar/gkg119
p279
sg64
VNUCLEIC ACIDS RES
p280
sg66
V31
p281
sg102
(lp282
(VLAMBLIN
VA F J
tp283
asg81
I2003
sg62
V196
p284
sbag1
(g2
g3
NtRp285
(dp286
g68
V10.1093/nar/gki064
p287
sg64
VNUCLEIC ACIDS RES
p288
sg66
V33
p289
sg102
(lp290
(VLEE
VY
tp291
asg81
I2005
sg62
VD71
p292
sbag1
(g2
g3
NtRp293
(dp294
g68
V10.1016/S1369-5266(03)00068-2
p295
sg64
VCURR OPIN PLANT BIOL
p296
sg66
V6
sg102
(lp297
(VLIMPENS
VE
tp298
asg81
I2003
sg62
V343
p299
sbag1
(g2
g3
NtRp300
(dp301
g68
Nsg64
VGENOME RES
p302
sg66
V7
sg102
(lp303
(VMARRA
VM A
tp304
asg81
I1997
sg62
V1072
p305
sbag1
(g2
g3
NtRp306
(dp307
g68
V10.1016/j.cub.2004.02.013
p308
sg64
VCURR BIOL
p309
sg66
V14
p310
sg102
(lp311
(VMAY
VG D
tp312
asg81
I2004
sg62
VR180
p313
sbag1
(g2
g3
NtRp314
(dp315
g68
V10.1186/gb-2004-5-5-223
p316
sg64
VGENOME BIOL
p317
sg66
V5
sg102
(lp318
(VOKAGAKI
VR J
tp319
asg81
I2004
sg62
Nsbag1
(g2
g3
NtRp320
(dp321
g68
V10.1126/science.1091265
p322
sg64
VSCIENCE
p323
sg66
V302
p324
sg102
(lp325
(VPALMER
VL E
tp326
asg81
I2003
sg62
V2115
p327
sbag1
(g2
g3
NtRp328
(dp329
g68
Nsg64
VGENETICS
p330
sg66
V161
p331
sg102
(lp332
(VPEDROSA
VA
tp333
asg81
I2002
sg62
V1661
p334
sbag1
(g2
g3
NtRp335
(dp336
g68
V10.1093/nar/gkg076
p337
sg64
VNUCLEIC ACIDS RES
p338
sg66
V31
p339
sg102
(lp340
(VRHEE
VS Y
tp341
asg81
I2003
sg62
V224
p342
sbag1
(g2
g3
NtRp343
(dp344
g68
V10.1101/gr.10.4.516
p345
sg64
VGENOME RES
p346
sg66
V10
p347
sg102
(lp348
(VSALAMOV
VA A
tp349
asg81
I2000
sg62
V516
p350
sbag1
(g2
g3
NtRp351
(dp352
g68
Nsg64
VREPEATMASKER OPEN 3
p353
sg66
Nsg102
(lp354
(VSMIT
VA
tp355
asg81
I2004
sg62
Nsbag1
(g2
g3
NtRp356
(dp357
g68
V10.1101/gr.GR-1375R
p358
sg64
VGENOME RES
p359
sg66
V10
p360
sg102
(lp361
(VSODERLUND
VC
tp362
asg81
I2000
sg62
V1772
p363
sbag1
(g2
g3
NtRp364
(dp365
g68
V10.1101/gr.403602
p366
sg64
VGENOME RES
p367
sg66
V12
p368
sg102
(lp369
(VSTEIN
VL D
tp370
asg81
I2002
sg62
V1599
p371
sbag1
(g2
g3
NtRp372
(dp373
g68
V10.1126/science.1090047
p374
sg64
VSCIENCE
p375
sg66
V302
p376
sg102
(lp377
(VWHITELAW
VC A
tp378
asg81
I2003
sg62
V2118
p379
sbag1
(g2
g3
NtRp380
(dp381
g68
V10.1104/pp.104.057034
p382
sg64
VPLANT PHYSIOL
p383
sg66
V137
p384
sg102
(lp385
(VYOUNG
VN D
tp386
asg81
I2005
sg62
VLANT
p387
sbasb.