ccopy_reg
_reconstructor
p1
(ctethne.classes.paper
Paper
p2
c__builtin__
object
p3
NtRp4
(dp5
S'publisherCity'
p6
VROCKVILLE
p7
sS'reprintAddress'
p8
VFinch-Savage, WE (reprint author), Univ Warwick, Sch Life Sci, Wellesbourne CV35 9EF, Warwick, England.
p9
sS'WC'
p10
VPlant Sciences
p11
sS'GA'
p12
V744LH
p13
sS'FX'
p14
(lp15
VThis work was supported by the Biotechnology and Biological Sciences
p16
aVResearch Council (grant no. BB/E006418/1 to W.F.-S.), the Deutsche
p17
aVForschungsgemeinschaft (grant no. DFG LE720/6 to G.L.-M.), the Deutscher
p18
aVAkademischer Austauschdienst (grant no. DAAD D/0628197 to G.L.-M.), the
p19
aVWissenschaftliche Gesellschaft Freiburg (to G.L.-M. and A.L.), the
p20
aVGuangdong Natural Science Foundation (grant no. 07006658 to X.W.), a
p21
aVpostdoctoral fellowship of the Deutsche Forschungsgemeinschaft to Ke.M.
p22
aV(grant no. MU3114/1-1), and an Alexander von Humboldt Foundation
p23
aVResearch Fellowship to K.O.
p24
asS'abstract'
p25
VThe completion of germination in Lepidium sativum and other endospermic seeds (e. g. Arabidopsis [ Arabidopsis thaliana]) is regulated by two opposing forces, the growth potential of the radicle (RAD) and the resistance to this growth from the micropylar endosperm cap (CAP) surrounding it. We show by puncture force measurement that the CAP progressively weakens during germination, and we have conducted a time-course transcript analysis of RAD and CAP tissues throughout this process. We have also used specific inhibitors to investigate the importance of transcription, translation, and posttranslation levels of regulation of endosperm weakening in isolated CAPs. Although the impact of inhibiting translation is greater, both transcription and translation are required for the completion of endosperm weakening in the whole seed population. The majority of genes expressed during this process occur in both tissues, but where they are uniquely expressed, or significantly differentially expressed between tissues, this relates to the functions of the RAD as growing tissue and the CAP as a regulator of germination through weakening. More detailed analysis showed that putative orthologs of cell wall-remodeling genes are expressed in a complex manner during CAP weakening, suggesting distinct roles in the RAD and CAP. Expression patterns are also consistent with the CAP being a receptor for environmental signals influencing germination. Inhibitors of the aspartic, serine, and cysteine proteases reduced the number of isolated CAPs in which weakening developed, and inhibition of the 26S proteasome resulted in its complete cessation. This indicates that targeted protein degradation is a major control point for endosperm weakening.
p26
sS'pageEnd'
p27
I1870
sS'date'
p28
I2011
sS'documentType'
p29
VArticle
p30
sS'subject'
p31
VPlant Sciences
p32
sS'isoSource'
p33
VPlant Physiol.
p34
sS'timesCited'
p35
(lp36
I12
aVZ9 13
p37
asS'funding'
p38
(lp39
(VBiotechnology and Biological Sciences Research Council
VBB/E006418/1
tp40
a(VDeutsche Forschungsgemeinschaft
VDFG LE720/6, MU3114/1-1
tp41
a(VDeutscher Akademischer Austauschdienst
VDAAD D/0628197
tp42
a(VWissenschaftliche Gesellschaft Freiburg
Ntp43
a(VGuangdong Natural Science Foundation
V07006658
tp44
a(VAlexander von Humboldt Foundation
Ntp45
asS'PT'
p46
VJ
sS'title'
p47
VRegulation Of Seed Germination In The Close Arabidopsis Relative Lepidium Sativum: A Global Tissue-Specific Transcript Analysis
p48
sS'ISSN'
p49
(lp50
V0032-0889
p51
aVJ9 PLANT PHYSIOL
p52
asS'authors_full'
p53
(lp54
(VMORRIS
VKARL
tp55
a(VLINKIES
VADA
tp56
a(VMUELLER
VKERSTIN
tp57
a(VORACZ
VKRYSTYNA
tp58
a(VWANG
VXIAOFENG
tp59
a(VLYNN
VJAMES R
tp60
a(VLEUBNERMETZGER
VGERHARD
tp61
a(VFINCHSAVAGE
VWILLIAM E
tp62
asS'PG'
p63
I20
sS'PD'
p64
VAPR
p65
sS'pageStart'
p66
I1851
sS'issue'
p67
I4
sS'RI'
p68
VLeubner, Gerhard/A-1999-2013
p69
sS'journal'
p70
VPLANT PHYSIOLOGY
p71
sS'volume'
p72
V155
p73
sS'doi'
p74
V10.1104/pp.110.169706
p75
sS'emailAddress'
p76
Vbill.finch-savage@warwick.ac.uk
p77
sS'authorAddress'
p78
(lp79
V[Morris, Karl; Lynn, James R.; Finch-Savage, William E.] Univ Warwick, Sch Life Sci, Wellesbourne CV35 9EF, Warwick, England.
p80
aV[Linkies, Ada; Mueller, Kerstin; Oracz, Krystyna; Leubner-Metzger, Gerhard] Univ Freiburg, Fac Biol, Inst Biol 2, D-79104 Freiburg, Germany.
p81
aV[Wang, Xiaofeng] S China Agr Univ, Coll Life Sci, Guangzhou 510642, Guangdong, Peoples R China.
p82
asS'publisherAddress'
p83
V15501 MONONA DRIVE, ROCKVILLE, MD 20855 USA
p84
sS'ER'
p85
V
sS'publisher'
p86
VAMER SOC PLANT BIOLOGISTS
p87
sS'authorKeywords'
p88
(lp89
VENDO-BETA-MANNANASE
p90
aVPLANT-CELL WALL
p91
aVSTRUCTURALLY ALTERED GALACTOMANNANS
p92
aVDATURA-FEROX SEEDS
p93
aVABSCISIC-ACID
p94
aVEXPRESSION PATTERNS
p95
aVENDOSPERM CAP
p96
aVGENE-EXPRESSION
p97
aVTHALIANA SEEDS
p98
aVASPARTIC PROTEASE
p99
asS'OI'
p100
VLeubner, Gerhard/0000-0002-6045-8713
p101
sS'language'
p102
VEnglish
p103
sS'wosid'
p104
VWOS:000289095500036
p105
sS'citationCount'
p106
I122
sS'authors_init'
p107
(lp108
(VMORRIS
VK
tp109
a(VLINKIES
VA
tp110
a(VMULLER
VK
tp111
a(VORACZ
VK
tp112
a(VWANG
VX F
tp113
a(VLYNN
VJ R
tp114
a(VLEUBNERMETZGER
VG
tp115
a(VFINCHSAVAGE
VW E
tp116
asS'citedReferences'
p117
(lp118
g1
(g2
g3
NtRp119
(dp120
g74
V10.1104/pp.104.051300
p121
sg70
VPLANT PHYSIOL
p122
sg72
V137
p123
sg107
(lp124
(VALLEMEERSCH
VJ
tp125
asg28
I2005
sg66
VLANT
p126
sbag1
(g2
g3
NtRp127
(dp128
g74
V10.1007/s00425-005-0134-7
p129
sg70
VPLANTA
p130
sg72
V223
p131
sg107
(lp132
(VARANA
VM V
tp133
asg28
I2006
sg66
VLANTA
p134
sbag1
(g2
g3
NtRp135
(dp136
g74
Nsg70
VJ PLANT PHYSIOL
p137
sg72
V139
p138
sg107
(lp139
(VARCILA
VJ
tp140
asg28
I1992
sg66
V460
p141
sbag1
(g2
g3
NtRp142
(dp143
g74
V10.1016/j.tig.2007.02.003
p144
sg70
VTRENDS GENET
p145
sg72
V23
p146
sg107
(lp147
(VBAR-OR
VC
tp148
asg28
I2007
sg66
V200
p149
sbag1
(g2
g3
NtRp150
(dp151
g74
V10.1104/pp.109.137901
p152
sg70
VPLANT PHYSIOL
p153
sg72
V150
p154
sg107
(lp155
(VBARRERO
VJ M
tp156
asg28
I2009
sg66
VLANT
p157
sbag1
(g2
g3
NtRp158
(dp159
g74
V10.1007/s11103-006-0021-z
p160
sg70
VPLANT MOL BIOL
p161
sg72
V61
p162
sg107
(lp163
(VBECNEL
VJ
tp164
asg28
I2006
sg66
VLANT
p165
sbag1
(g2
g3
NtRp166
(dp167
g74
V10.1016/j.phytochem.2003.09.005
p168
sg70
VPHYTOCHEMISTRY
p169
sg72
V65
p170
sg107
(lp171
(VBEERS
VE P
tp172
asg28
I2004
sg66
VHYTOCHEMISTRY
p173
sbag1
(g2
g3
NtRp174
(dp175
g74
V10.1007/s00425-007-0607-y
p176
sg70
VPLANTA
p177
sg72
V227
p178
sg107
(lp179
(VBELOTSERKOVSKY
VH
tp180
asg28
I2007
sg66
VLANTA
p181
sbag1
(g2
g3
NtRp182
(dp183
g74
Nsg70
VJ ROY STAT SOC B MET
p184
sg72
V57
p185
sg107
(lp186
(VBENJAMINI
VY
tp187
asg28
I1995
sg66
V289
p188
sbag1
(g2
g3
NtRp189
(dp190
g74
Nsg70
VGENE DEV
p191
sg72
V14
p192
sg107
(lp193
(VBERGER
VD
tp194
asg28
I2000
sg66
V1119
p195
sbag1
(g2
g3
NtRp196
(dp197
g74
V10.1104/pp.106.093435
p198
sg70
VPLANT PHYSIOL
p199
sg72
V143
p200
sg107
(lp201
(VBETHKE
VP C
tp202
asg28
I2007
sg66
VLANT
p203
sbag1
(g2
g3
NtRp204
(dp205
g74
V10.1016/S1360-1385(97)01147-3
p206
sg70
VTRENDS PLANT SCI
p207
sg72
V2
sg107
(lp208
(VBEWLEY
VJ D
tp209
asg28
I1997
sg66
V464
p210
sbag1
(g2
g3
NtRp211
(dp212
g74
V10.1006/abio.2001.5450
p213
sg70
VANAL BIOCHEM
p214
sg72
V300
p215
sg107
(lp216
(VBOURGAULT
VR
tp217
asg28
I2002
sg66
V87
p218
sbag1
(g2
g3
NtRp219
(dp220
g74
V10.1111/j.1469-8137.2008.02640.x
p221
sg70
VNEW PHYTOL
p222
sg72
V180
p223
sg107
(lp224
(VBROADLEY
VM R
tp225
asg28
I2008
sg66
V587
p226
sbag1
(g2
g3
NtRp227
(dp228
g74
V10.1104/pp.107.096057
p229
sg70
VPLANT PHYSIOL
p230
sg72
V143
p231
sg107
(lp232
(VCARRERA
VE
tp233
asg28
I2007
sg66
VLANT
p234
sbag1
(g2
g3
NtRp235
(dp236
g74
V10.1111/j.1365-313X.2007.03331.x
p237
sg70
VPLANT J
p238
sg72
V53
p239
sg107
(lp240
(VCARRERA
VE
tp241
asg28
I2008
sg66
VLANT
p242
sbag1
(g2
g3
NtRp243
(dp244
g74
V10.1007/BF00023238
p245
sg70
VPLANT MOL BIOL
p246
sg72
V25
p247
sg107
(lp248
(VCERVANTES
VE
tp249
asg28
I1994
sg66
VLANT
p250
sbag1
(g2
g3
NtRp251
(dp252
g74
V10.1007/BF02670468
p253
sg70
VPlant Molecular Biology Reporter
p254
sg72
V11
p255
sg107
(lp256
(VCHANG
VS J
tp257
asg28
I1993
sg66
Vlant
p258
sbag1
(g2
g3
NtRp259
(dp260
g74
V10.1093/jexbot/53.367.215
p261
sg70
VJ EXP BOT
p262
sg72
V53
p263
sg107
(lp264
(VCHEN
VF
tp265
asg28
I2002
sg66
V215
p266
sbag1
(g2
g3
NtRp267
(dp268
g74
V10.1104/pp.124.3.1265
p269
sg70
VPLANT PHYSIOL
p270
sg72
V124
p271
sg107
(lp272
(VCHEN
VF
tp273
asg28
I2000
sg66
VLANT
p274
sbag1
(g2
g3
NtRp275
(dp276
g74
V10.1111/j.1399-3054.2005.00612.x
p277
sg70
VPHYSIOL PLANTARUM
p278
sg72
V126
p279
sg107
(lp280
(VCHOI
VD
tp281
asg28
I2006
sg66
VHYSIOL
p282
sbag1
(g2
g3
NtRp283
(dp284
g74
V10.1105/tpc.1.3.293
p285
sg70
VPLANT CELL
p286
sg72
V1
sg107
(lp287
(VCOMAI
VL
tp288
asg28
I1989
sg66
VLANT
p289
sbag1
(g2
g3
NtRp290
(dp291
g74
V10.1038/nrm1746
p292
sg70
VNAT REV MOL CELL BIO
p293
sg72
V6
sg107
(lp294
(VCOSGROVE
VD J
tp295
asg28
I2005
sg66
V850
p296
sbag1
(g2
g3
NtRp297
(dp298
g74
V10.1146/annurev-arplant-042809-112122
p299
sg70
VANNU REV PLANT BIOL
p300
sg72
V61
p301
sg107
(lp302
(VCUTLER
VS R
tp303
asg28
I2010
sg66
V651
p304
sbag1
(g2
g3
NtRp305
(dp306
g74
V10.1007/s00425-004-1344-0
p307
sg70
VPLANTA
p308
sg72
V220
p309
sg107
(lp310
(VDA
VSILVA E A A
tp311
asg28
I2004
sg66
VLANTA
p312
sbag1
(g2
g3
NtRp313
(dp314
g74
V10.1093/jxb/eri096
p315
sg70
VJ EXP BOT
p316
sg72
V56
p317
sg107
(lp318
(VDA
VSILVA E A A
tp319
asg28
I2005
sg66
V1029
p320
sbag1
(g2
g3
NtRp321
(dp322
g74
V10.1104/pp.122.2.415
p323
sg70
VPLANT PHYSIOL
p324
sg72
V122
p325
sg107
(lp326
(VDEBEAUJON
VI
tp327
asg28
I2000
sg66
VLANT
p328
sbag1
(g2
g3
NtRp329
(dp330
g74
V10.1104/pp.122.2.403
p331
sg70
VPLANT PHYSIOL
p332
sg72
V122
p333
sg107
(lp334
(VDEBEAUJON
VI
tp335
asg28
I2000
sg66
VLANT
p336
sbag1
(g2
g3
NtRp337
(dp338
g74
V10.1093/jexbot/51.347.1127
p339
sg70
VJ EXP BOT
p340
sg72
V51
p341
sg107
(lp342
(VDE
VMIGUEL L
tp343
asg28
I2000
sg66
V1127
p344
sbag1
(g2
g3
NtRp345
(dp346
g74
V10.1126/science.1090908
p347
sg70
VSCIENCE
p348
sg72
V303
p349
sg107
(lp350
(VDHUGGA
VK S
tp351
asg28
I2004
sg66
V363
p352
sbag1
(g2
g3
NtRp353
(dp354
g74
V10.1073/pnas.251534098
p355
sg70
VP NATL ACAD SCI USA
p356
sg72
V98
p357
sg107
(lp358
(VDILL
VA
tp359
asg28
I2001
sg66
V14162
p360
sbag1
(g2
g3
NtRp361
(dp362
g74
V10.1104/pp.103.029967
p363
sg70
VPLANT PHYSIOL
p364
sg72
V134
p365
sg107
(lp366
(VEDWARDS
VM E
tp367
asg28
I2004
sg66
VLANT
p368
sbag1
(g2
g3
NtRp369
(dp370
g74
V10.1093/jexbot/52.359.1239
p371
sg70
VJ EXP BOT
p372
sg72
V52
p373
sg107
(lp374
(VFEURTADO
VJ A
tp375
asg28
I2001
sg66
V1239
p376
sbag1
(g2
g3
NtRp377
(dp378
g74
V10.1111/j.1469-8137.2006.01787.x
p379
sg70
VNEW PHYTOL
p380
sg72
V171
p381
sg107
(lp382
(VFINCH-SAVAGE
VW E
tp383
asg28
I2006
sg66
V501
p384
sbag1
(g2
g3
NtRp385
(dp386
g74
V10.1146/annurev.arplant.59.032607.092740
p387
sg70
VANNU REV PLANT BIOL
p388
sg72
V59
p389
sg107
(lp390
(VFINKELSTEIN
VR
tp391
asg28
I2008
sg66
V387
p392
sbag1
(g2
g3
NtRp393
(dp394
g74
Nsg70
VTAXON
p395
sg72
V58
p396
sg107
(lp397
(VFRANZKE
VA
tp398
asg28
I2009
sg66
V425
p399
sbag1
(g2
g3
NtRp400
(dp401
g74
V10.1016/S0962-8924(02)02308-5
p402
sg70
VTRENDS CELL BIOL
p403
sg72
V12
p404
sg107
(lp405
(VFRUGIS
VG
tp406
asg28
I2002
sg66
V308
p407
sbag1
(g2
g3
NtRp408
(dp409
g74
V10.1111/j.1469-8137.2003.00980.x
p410
sg70
VNEW PHYTOL
p411
sg72
V161
p412
sg107
(lp413
(VFRY
VS C
tp414
asg28
I2004
sg66
V641
p415
sbag1
(g2
g3
NtRp416
(dp417
g74
V10.1042/0264-6021:3570729
p418
sg70
VBIOCHEM J
p419
sg72
V357
p420
sg107
(lp421
(VFRY
VS C
tp422
asg28
I2001
sg66
V729
p423
sbag1
(g2
g3
NtRp424
(dp425
g74
Nsg70
VSEED SCI RES
p426
sg72
V5
sg107
(lp427
(VFUJIKURA
VY
tp428
asg28
I1995
sg66
V177
p429
sbag1
(g2
g3
NtRp430
(dp431
g74
V10.1016/j.postharvbio.2009.03.007
p432
sg70
VPOSTHARVEST BIOL TEC
p433
sg72
V53
p434
sg107
(lp435
(VGAETE-EASTMAN
VC
tp436
asg28
I2009
sg66
VOSTHARVEST
p437
sbag1
(g2
g3
NtRp438
(dp439
g74
V10.1073/pnas.162339999
p440
sg70
VP NATL ACAD SCI USA
p441
sg72
V99
p442
sg107
(lp443
(VGAGNE
VJ M
tp444
asg28
I2002
sg66
V11519
p445
sbag1
(g2
g3
NtRp446
(dp447
g74
V10.1017/S0960258507786233
p448
sg70
VSEED SCI RES
p449
sg72
V17
p450
sg107
(lp451
(VGONG
VX M
tp452
asg28
I2007
sg66
V143
p453
sbag1
(g2
g3
NtRp454
(dp455
g74
V10.1105/tpc.106.047415
p456
sg70
VPLANT CELL
p457
sg72
V18
p458
sg107
(lp459
(VGRIFFITHS
VJ
tp460
asg28
I2006
sg66
VLANT
p461
sbag1
(g2
g3
NtRp462
(dp463
g74
V10.1007/s00425-008-0830-1
p464
sg70
VPLANTA
p465
sg72
V229
p466
sg107
(lp467
(VHARTWECK
VL M
tp468
asg28
I2008
sg66
VLANTA
p469
sbag1
(g2
g3
NtRp470
(dp471
g74
V10.3732/ajb.2007404
p472
sg70
VAM J BOT
p473
sg72
V95
p474
sg107
(lp475
(VHELM
VM
tp476
asg28
I2008
sg66
V1049
p477
sbag1
(g2
g3
NtRp478
(dp479
g74
V10.1101/gr.2544504
p480
sg70
VGENOME RES
p481
sg72
V14
p482
sg107
(lp483
(VHILSON
VP
tp484
asg28
I2004
sg66
V2176
p485
sbag1
(g2
g3
NtRp486
(dp487
g74
V10.1016/j.tplants.2007.11.002
p488
sg70
VTRENDS PLANT SCI
p489
sg72
V13
p490
sg107
(lp491
(VHOLDSWORTH
VM J
tp492
asg28
I2008
sg66
V7
sbag1
(g2
g3
NtRp493
(dp494
g74
V10.1111/j.1469-8137.2008.02437.x
p495
sg70
VNEW PHYTOL
p496
sg72
V179
p497
sg107
(lp498
(VHOLDSWORTH
VM J
tp499
asg28
I2008
sg66
V33
p500
sbag1
(g2
g3
NtRp501
(dp502
g74
Nsg70
VPLANT CELL
p503
sg72
V3
sg107
(lp504
(VHUGHES
VD W
tp505
asg28
I1991
sg66
VLANT
p506
sbag1
(g2
g3
NtRp507
(dp508
g74
V10.1101/gad.3.3.358
p509
sg70
VGENE DEV
p510
sg72
V3
sg107
(lp511
(VHUGHES
VD W
tp512
asg28
I1989
sg66
V358
p513
sbag1
(g2
g3
NtRp514
(dp515
g74
Nsg70
VJ EXP BOT
p516
sg72
V60
p517
sg107
(lp518
(VIGLESIASFERNA
VN
tp519
asg28
I2009
sg66
V1645
p520
sbag1
(g2
g3
NtRp521
(dp522
g74
V10.1007/s00425-010-1257-z
p523
sg70
VPLANTA
p524
sg72
V233
p525
sg107
(lp526
(VIGLESIAS-FERNANDEZ
VR
tp527
asg28
I2011
sg66
VLANTA
p528
sbag1
(g2
g3
NtRp529
(dp530
g74
Nsg70
VPLANT CELL PHYSIOL
p531
sg72
V4
sg107
(lp532
(VIKUMA
VH
tp533
asg28
I1963
sg66
VLANT
p534
sbag1
(g2
g3
NtRp535
(dp536
g74
V10.1093/jxb/erg291
p537
sg70
VJ EXP BOT
p538
sg72
V54
p539
sg107
(lp540
(VITAI
VA
tp541
asg28
I2003
sg66
V2615
p542
sbag1
(g2
g3
NtRp543
(dp544
g74
Nsg70
VJ BIOL CHEM
p545
sg72
V255
p546
sg107
(lp547
(VJENDRISAK
VJ
tp548
asg28
I1980
sg66
V8529
p549
sbag1
(g2
g3
NtRp550
(dp551
g74
V10.1105/tpc.108.058859
p552
sg70
VPLANT CELL
p553
sg72
V20
p554
sg107
(lp555
(VKIM
VD H
tp556
asg28
I2008
sg66
VLANT
p557
sbag1
(g2
g3
NtRp558
(dp559
g74
V10.1007/s11103-010-9603-x
p560
sg70
VPLANT MOL BIOL
p561
sg72
V73
p562
sg107
(lp563
(VKIMURA
VM
tp564
asg28
I2010
sg66
VLANT
p565
sbag1
(g2
g3
NtRp566
(dp567
g74
V10.1111/j.1469-8137.2008.02470.x
p568
sg70
VNEW PHYTOL
p569
sg72
V179
p570
sg107
(lp571
(VKNOX
VJ P
tp572
asg28
I2008
sg66
V1
sbag1
(g2
g3
NtRp573
(dp574
g74
V10.1079/SSR2005218
p575
sg70
VSEED SCI RES
p576
sg72
V15
p577
sg107
(lp578
(VKUCERA
VB
tp579
asg28
I2005
sg66
V281
p580
sbag1
(g2
g3
NtRp581
(dp582
g74
V10.1007/s00425-002-0837-y
p583
sg70
VPLANTA
p584
sg72
V215
p585
sg107
(lp586
(VLEUBNER-METZGER
VG
tp587
asg28
I2002
sg66
VLANTA
p588
sbag1
(g2
g3
NtRp589
(dp590
g74
V10.1079/SSR2002121
p591
sg70
VSEED SCI RES
p592
sg72
V13
p593
sg107
(lp594
(VLEUBNER-METZGER
VG
tp595
asg28
I2003
sg66
V17
p596
sbag1
(g2
g3
NtRp597
(dp598
g74
V10.1073/pnas.0409179102
p599
sg70
VP NATL ACAD SCI USA
p600
sg72
V102
p601
sg107
(lp602
(VLIEPMAN
VA H
tp603
asg28
I2005
sg66
V2221
p604
sbag1
(g2
g3
NtRp605
(dp606
g74
V10.1111/j.1365-313X.2007.03317.x
p607
sg70
VPLANT J
p608
sg72
V52
p609
sg107
(lp610
(VLIM
VP O
tp611
asg28
I2007
sg66
VLANT
p612
sbag1
(g2
g3
NtRp613
(dp614
g74
V10.1105/tpc.109.070201
p615
sg70
VPLANT CELL
p616
sg72
V21
p617
sg107
(lp618
(VLINKIES
VA
tp619
asg28
I2009
sg66
VLANT
p620
sbag1
(g2
g3
NtRp621
(dp622
g74
V10.1016/j.tplants.2007.12.005
p623
sg70
VTRENDS PLANT SCI
p624
sg72
V13
p625
sg107
(lp626
(VLIU
VZ C
tp627
asg28
I2008
sg66
V137
p628
sbag1
(g2
g3
NtRp629
(dp630
g74
V10.1093/jxb/erp380
p631
sg70
VJ EXP BOT
p632
sg72
V61
p633
sg107
(lp634
(VLIZANA
VX C
tp635
asg28
I2010
sg66
V1147
p636
sbag1
(g2
g3
NtRp637
(dp638
g74
V10.1101/gad.1055803
p639
sg70
VGENE DEV
p640
sg72
V17
p641
sg107
(lp642
(VLOPEZ-MOLINA
VL
tp643
asg28
I2003
sg66
V410
p644
sbag1
(g2
g3
NtRp645
(dp646
g74
V10.1111/j.1365-313X.2010.04319.x
p647
sg70
VPLANT J
p648
sg72
V64
p649
sg107
(lp650
(VMARCUS
VS E
tp651
asg28
I2010
sg66
VLANT
p652
sbag1
(g2
g3
NtRp653
(dp654
g74
V10.1093/jxb/erp229
p655
sg70
VJ EXP BOT
p656
sg72
V60
p657
sg107
(lp658
(VMARIS
VA
tp659
asg28
I2009
sg66
V3959
p660
sbag1
(g2
g3
NtRp661
(dp662
g74
V10.1079/SSR2003155
p663
sg70
VSEED SCI RES
p664
sg72
V14
p665
sg107
(lp666
(VMELLA
VR A
tp667
asg28
I2004
sg66
V61
p668
sbag1
(g2
g3
NtRp669
(dp670
g74
V10.1007/s00425-001-0725-x
p671
sg70
VPLANTA
p672
sg72
V215
p673
sg107
(lp674
(VMO
VB X
tp675
asg28
I2002
sg66
VLANTA
p676
sbag1
(g2
g3
NtRp677
(dp678
g74
V10.1104/pp.109.139204
p679
sg70
VPLANT PHYSIOL
p680
sg72
V150
p681
sg107
(lp682
(VMULLER
VK
tp683
asg28
I2009
sg66
VLANT
p684
sbag1
(g2
g3
NtRp685
(dp686
g74
V10.1093/pcp/pcj059
p687
sg70
VPLANT CELL PHYSIOL
p688
sg72
V47
p689
sg107
(lp690
(VMULLER
VK
tp691
asg28
I2006
sg66
VLANT
p692
sbag1
(g2
g3
NtRp693
(dp694
g74
V10.1002/pmic.200900548
p695
sg70
VPROTEOMICS
p696
sg72
V10
p697
sg107
(lp698
(VMULLER
VK
tp699
asg28
I2010
sg66
VROTEOMICS
p700
sbag1
(g2
g3
NtRp701
(dp702
g74
Nsg70
VSEED SCI RES
p703
sg72
V9
sg107
(lp704
(VMUTLU
VA
tp705
asg28
I1999
sg66
V75
p706
sbag1
(g2
g3
NtRp707
(dp708
g74
V10.1111/j.1365-313X.2005.02337.x
p709
sg70
VPLANT J
p710
sg72
V41
p711
sg107
(lp712
(VNAKABAYASHI
VK
tp713
asg28
I2005
sg66
VLANT
p714
sbag1
(g2
g3
NtRp715
(dp716
g74
V10.1093/dnares/6.1.13
p717
sg70
VDNA Res
p718
sg72
V6
sg107
(lp719
(VNEUTEBOOM
VL W
tp720
asg28
I1999
sg66
V13
p721
sbag1
(g2
g3
NtRp722
(dp723
g74
V10.1104/pp.123.4.1235
p724
sg70
VPLANT PHYSIOL
p725
sg72
V123
p726
sg107
(lp727
(VNONOGAKI
VH
tp728
asg28
I2000
sg66
VLANT
p729
sbag1
(g2
g3
NtRp730
(dp731
g74
V10.1002/9780470988848.ch11
p732
sg70
VSeed development
p733
sg72
Nsg107
(lp734
(VNONOGAKI
VH
tp735
asg28
I2007
sg66
V264
p736
sbag1
(g2
g3
NtRp737
(dp738
g74
V10.1105/tpc.011650
p739
sg70
VPLANT CELL
p740
sg72
V15
p741
sg107
(lp742
(VOGAWA
VM
tp743
asg28
I2003
sg66
VLANT
p744
sbag1
(g2
g3
NtRp745
(dp746
g74
V10.1111/j.1365-313X.2010.04135.x
p747
sg70
VPLANT J
p748
sg72
V62
p749
sg107
(lp750
(VOKAMOTO
VM
tp751
asg28
I2010
sg66
VLANT
p752
sbag1
(g2
g3
NtRp753
(dp754
g74
V10.1038/nature08854
p755
sg70
VNATURE
p756
sg72
V464
p757
sg107
(lp758
(VPAUWELS
VL
tp759
asg28
I2010
sg66
V788
p760
sbag1
(g2
g3
NtRp761
(dp762
g74
V10.1105/tpc.106.041277
p763
sg70
VPLANT CELL
p764
sg72
V18
p765
sg107
(lp766
(VPENFIELD
VS
tp767
asg28
I2006
sg66
VLANT
p768
sbag1
(g2
g3
NtRp769
(dp770
g74
V10.1016/j.cub.2005.11.010
p771
sg70
VCURR BIOL
p772
sg72
V15
p773
sg107
(lp774
(VPENFIELD
VS
tp775
asg28
I2005
sg66
V1998
p776
sbag1
(g2
g3
NtRp777
(dp778
g74
V10.1098/rspb.2009.0592
p779
sg70
VP R SOC B
p780
sg72
V276
p781
sg107
(lp782
(VPENFIELD
VS
tp783
asg28
I2009
sg66
V3561
p784
sbag1
(g2
g3
NtRp785
(dp786
g74
V10.1079/SSR2003132
p787
sg70
VSEED SCI RES
p788
sg72
V13
p789
sg107
(lp790
(VPETRUZZELLI
VL
tp791
asg28
I2003
sg66
V139
p792
sbag1
(g2
g3
NtRp793
(dp794
g74
V10.1093/aob/mcm211
p795
sg70
VANN BOT
p796
sg72
V100
p797
sg107
(lp798
(VPINTO
VL V A
tp799
asg28
I2007
sg66
V1175
p800
sbag1
(g2
g3
NtRp801
(dp802
g74
Nsg70
VPlant Signal Behav
p803
sg72
V4
sg107
(lp804
(VPISKUREWICZ
VURSZULA
tp805
asg28
I2009
sg66
Vlant
p806
sbag1
(g2
g3
NtRp807
(dp808
g74
V10.1093/pcp/pcp121
p809
sg70
VPLANT CELL PHYSIOL
p810
sg72
V50
p811
sg107
(lp812
(VPRESTON
VJ
tp813
asg28
I2009
sg66
VLANT
p814
sbag1
(g2
g3
NtRp815
(dp816
g74
V10.1104/pp.103.036293
p817
sg70
VPLANT PHYSIOL
p818
sg72
V134
p819
sg107
(lp820
(VRAJJOU
VL
tp821
asg28
I2004
sg66
VLANT
p822
sbag1
(g2
g3
NtRp823
(dp824
g74
V10.1371/journal.pcbi.0010040
p825
sg70
VPLOS COMPUT BIOL
p826
sg72
V1
sg107
(lp827
(VRAUTENGARTEN
VC
tp828
asg28
I2005
sg66
VLOS
p829
sbag1
(g2
g3
NtRp830
(dp831
g74
V10.1104/pp.102.016840
p832
sg70
VPLANT PHYSIOL
p833
sg72
V131
p834
sg107
(lp835
(VREID
VJ S G
tp836
asg28
I2003
sg66
VLANT
p837
sbag1
(g2
g3
NtRp838
(dp839
g74
V10.1017/S0960258508037987
p840
sg70
VSEED SCI RES
p841
sg72
V18
p842
sg107
(lp843
(VREN
VY F
tp844
asg28
I2008
sg66
V139
p845
sbag1
(g2
g3
NtRp846
(dp847
g74
V10.1104/pp.107.097477
p848
sg70
VPLANT PHYSIOL
p849
sg72
V144
p850
sg107
(lp851
(VSALADIE
VM
tp852
asg28
I2007
sg66
VLANT
p853
sbag1
(g2
g3
NtRp854
(dp855
g74
V10.1186/gb-2005-6-12-242
p856
sg70
VGENOME BIOL
p857
sg72
V6
sg107
(lp858
(VSAMPEDRO
VJ
tp859
asg28
I2005
sg66
Nsbag1
(g2
g3
NtRp860
(dp861
g74
Nsg70
VJ EXP BOT
p862
sg72
V37
p863
sg107
(lp864
(VSANCHEZ
VR A
tp865
asg28
I1986
sg66
V1574
p866
sbag1
(g2
g3
NtRp867
(dp868
g74
V10.1111/j.1365-313X.2010.04112.x
p869
sg70
VPLANT J
p870
sg72
V61
p871
sg107
(lp872
(VSANTNER
VA
tp873
asg28
I2010
sg66
VLANT
p874
sbag1
(g2
g3
NtRp875
(dp876
g74
Nsg70
VBIOFACTORS
p877
sg72
V28
p878
sg107
(lp879
(VSCHOPFER
VP
tp880
asg28
I2006
sg66
V73
p881
sbag1
(g2
g3
NtRp882
(dp883
g74
V10.3732/ajb.93.10.1415
p884
sg70
VAM J BOT
p885
sg72
V93
p886
sg107
(lp887
(VSCHOPFER
VP
tp888
asg28
I2006
sg66
V1415
p889
sbag1
(g2
g3
NtRp890
(dp891
g74
V10.1093/aob/mcp120
p892
sg70
VANN BOT
p893
sg72
V104
p894
sg107
(lp895
(VSCHRODER
VR
tp896
asg28
I2009
sg66
V197
p897
sbag1
(g2
g3
NtRp898
(dp899
g74
V10.1093/jxb/erp203
p900
sg70
VJ EXP BOT
p901
sg72
V60
p902
sg107
(lp903
(VSLIWINSKA
VE
tp904
asg28
I2009
sg66
V3587
p905
sbag1
(g2
g3
NtRp906
(dp907
g74
V10.1104/pp.107.102632
p908
sg70
VPLANT PHYSIOL
p909
sg72
V145
p910
sg107
(lp911
(VSLOTTE
VT
tp912
asg28
I2007
sg66
VLANT
p913
sbag1
(g2
g3
NtRp914
(dp915
g74
V10.1016/S1046-2023(03)00155-5
p916
sg70
VMETHODS
p917
sg72
V31
p918
sg107
(lp919
(VSMYTH
VG K
tp920
asg28
I2003
sg66
V265
p921
sbag1
(g2
g3
NtRp922
(dp923
g74
Nsg70
VSTAT BIOL HEALTH
p924
sg72
Nsg107
(lp925
(VSMYTH
VG K
tp926
asg28
I2005
sg66
V397
p927
sbag1
(g2
g3
NtRp928
(dp929
g74
VDOI 10.2202/1544-6115.1027
p930
sg70
VSTAT APPL GENET MOL
p931
sg72
V3
sg107
(lp932
(VSMYTH
VG K
tp933
asg28
I2004
sg66
V3
sbag1
(g2
g3
NtRp934
(dp935
g74
Nsg70
VPLANT PHYSIOL
p936
sg72
V113
p937
sg107
(lp938
(VSTILL
VD W
tp939
asg28
I1997
sg66
VLANT
p940
sbag1
(g2
g3
NtRp941
(dp942
g74
V10.1104/pp.104.052423
p943
sg70
VPLANT PHYSIOL
p944
sg72
V137
p945
sg107
(lp946
(VSTONE
VS L
tp947
asg28
I2005
sg66
VLANT
p948
sbag1
(g2
g3
NtRp949
(dp950
g74
V10.1146/annurev.arplant.55.031903.141753
p951
sg70
VANNU REV PLANT BIOL
p952
sg72
V55
p953
sg107
(lp954
(VSUN
VT P
tp955
asg28
I2004
sg66
V197
p956
sbag1
(g2
g3
NtRp957
(dp958
g74
Nsg70
VDEVELOPMENT
p959
sg72
V128
p960
sg107
(lp961
(VTANAKA
VH
tp962
asg28
I2001
sg66
V4681
p963
sbag1
(g2
g3
NtRp964
(dp965
g74
V10.1016/S0168-9452(99)00245-9
p966
sg70
VPLANT SCI
p967
sg72
V154
p968
sg107
(lp969
(VTINE
VM A S
tp970
asg28
I2000
sg66
VLANT
p971
sbag1
(g2
g3
NtRp972
(dp973
g74
V10.1093/jexbot/51.349.1371
p974
sg70
VJ EXP BOT
p975
sg72
V51
p976
sg107
(lp977
(VTOOROP
VP E
tp978
asg28
I2000
sg66
V1371
p979
sbag1
(g2
g3
NtRp980
(dp981
g74
V10.1111/j.1469-8137.2006.01708.x
p982
sg70
VNEW PHYTOL
p983
sg72
V170
p984
sg107
(lp985
(VVAN
VD E MORTEL J E
tp986
asg28
I2006
sg66
V199
p987
sbag1
(g2
g3
NtRp988
(dp989
g74
Nsg70
VP NATL ACAD SCI USA
p990
sg72
V87
p991
sg107
(lp992
(VVANGELDER
VR N
tp993
asg28
I1990
sg66
V1663
p994
sbag1
(g2
g3
NtRp995
(dp996
g74
V10.1093/aob/mcm248
p997
sg70
VANN BOT
p998
sg72
V100
p999
sg107
(lp1000
(VVAN
VSANDT V S T
tp1001
asg28
I2007
sg66
V1467
p1002
sbag1
(g2
g3
NtRp1003
(dp1004
g74
V10.1038/nrm2688
p1005
sg70
VNAT REV MOL CELL BIO
p1006
sg72
V10
p1007
sg107
(lp1008
(VVIERSTRA
VR D
tp1009
asg28
I2009
sg66
V385
p1010
sbag1
(g2
g3
NtRp1011
(dp1012
g74
V10.1105/tpc.107.051441
p1013
sg70
VPLANT CELL
p1014
sg72
V19
p1015
sg107
(lp1016
(VWILLIGE
VB C
tp1017
asg28
I2007
sg66
VLANT
p1018
sbag1
(g2
g3
NtRp1019
(dp1020
g74
V10.1038/sj.emboj.7600086
p1021
sg70
VEMBO J
p1022
sg72
V23
p1023
sg107
(lp1024
(VXIA
VY J
tp1025
asg28
I2004
sg66
V980
p1026
sbag1
(g2
g3
NtRp1027
(dp1028
g74
V10.1046/j.1365-313X.2001.01168.x
p1029
sg70
VPLANT J
p1030
sg72
V28
p1031
sg107
(lp1032
(VYAMAGUCHI
VS
tp1033
asg28
I2001
sg66
VLANT
p1034
sbag1
(g2
g3
NtRp1035
(dp1036
g74
V10.1105/tpc.018143
p1037
sg70
VPLANT CELL
p1038
sg72
V16
p1039
sg107
(lp1040
(VYAMAUCHI
VY
tp1041
asg28
I2004
sg66
VLANT
p1042
sbag1
(g2
g3
NtRp1043
(dp1044
g74
V10.1007/s10142-006-0034-3
p1045
sg70
VFUNCT INTEGR GENOMIC
p1046
sg72
V7
sg107
(lp1047
(VYUAN
VJ S
tp1048
asg28
I2007
sg66
V1
sbag1
(g2
g3
NtRp1049
(dp1050
g74
Nsg70
VTHESIS STATE U NEW Y
p1051
sg72
Nsg107
(lp1052
(VZHOU
VZ
tp1053
asg28
I2009
sg66
Nsbasb.