ccopy_reg
_reconstructor
p1
(ctethne.classes.paper
Paper
p2
c__builtin__
object
p3
NtRp4
(dp5
S'publisherCity'
p6
VROCKVILLE
p7
sS'reprintAddress'
p8
VSprent, JI (reprint author), Univ Dundee, Coll Life Sci, Div Appl & Environm Biol, Dundee DD1 5EH, Scotland.
p9
sS'WC'
p10
VPlant Sciences
p11
sS'GA'
p12
V176HH
p13
sS'pageEnd'
p14
I581
sS'publisherAddress'
p15
V15501 MONONA DRIVE, ROCKVILLE, MD 20855 USA
p16
sS'documentType'
p17
VArticle
p18
sS'subject'
p19
VPlant Sciences
p20
sS'isoSource'
p21
VPlant Physiol.
p22
sS'timesCited'
p23
(lp24
I54
aVZ9 57
p25
asS'PT'
p26
VJ
sS'title'
p27
VLegume Evolution: Where Do Nodules And Mycorrhizas Fit In?
p28
sS'ISSN'
p29
(lp30
V0032-0889
p31
aVJ9 PLANT PHYSIOL
p32
asS'authors_full'
p33
(lp34
(VSPRENT
VJANET I
tp35
a(VJAMES
VEUAN K
tp36
asS'PG'
p37
I7
sS'PD'
p38
VJUN
p39
sS'pageStart'
p40
I575
sS'issue'
p41
I2
sS'RI'
p42
VJames, Euan/K-1135-2012
p43
sS'journal'
p44
VPLANT PHYSIOLOGY
p45
sS'volume'
p46
V144
p47
sS'doi'
p48
V10.1104/pp.107.096156
p49
sS'emailAddress'
p50
Vjisprent@aol.com
p51
sS'authorAddress'
p52
VUniv Dundee, Coll Life Sci, Div Appl & Environm Biol, Dundee DD1 5EH, Scotland.
p53
sS'date'
p54
I2007
sS'ER'
p55
V
sS'publisher'
p56
VAMER SOC PLANT BIOLOGISTS
p57
sS'authorKeywords'
p58
(lp59
VNITROGEN-FIXATION
p60
aVROOT-NODULES
p61
aVSP-NOV.
p62
aVBURKHOLDERIA-PHYMATUM
p63
aVALPHA-PROTEOBACTERIA
p64
aVWHITE CLOVER
p65
aVMIMOSA SPP.
p66
aVNODULATION
p67
aVSYMBIOSIS
p68
aVECTOMYCORRHIZAL
p69
asS'language'
p70
VEnglish
p71
sS'wosid'
p72
VWOS:000247075000005
p73
sS'citationCount'
p74
I55
sS'authors_init'
p75
(lp76
(VSPRENT
VJ I
tp77
a(VJAMES
VE K
tp78
asS'citedReferences'
p79
(lp80
g1
(g2
g3
NtRp81
(dp82
g48
Nsg44
VADV LEGUME BIOL MONG
p83
sg46
V29
p84
sg75
(lp85
(VALEXANDER
VI J
tp86
asg54
I1989
sg40
V617
p87
sbag1
(g2
g3
NtRp88
(dp89
g48
Nsg44
VLEGUMINOSAE SOURCE B
p90
sg46
Nsg75
(lp91
(VALLEN
VO N
tp92
asg54
I1981
sg40
Nsbag1
(g2
g3
NtRp93
(dp94
g48
V10.1038/nrmicro1044
p95
sg44
VNAT REV MICROBIOL
p96
sg46
V2
sg75
(lp97
(VBATUT
VJ
tp98
asg54
I2004
sg40
V933
p99
sbag1
(g2
g3
NtRp100
(dp101
g48
V10.1128/IAI.71.9.5306-5313.2003
p102
sg44
VINFECT IMMUN
p103
sg46
V71
p104
sg75
(lp105
(VBERNIER
VS P
tp106
asg54
I2003
sg40
V5306
p107
sbag1
(g2
g3
NtRp108
(dp109
g48
V10.1007/BF01403948
p110
sg44
VPROTOPLASMA
p111
sg46
V179
p112
sg75
(lp113
(VBLAUENFELDT
VJ
tp114
asg54
I1994
sg40
VROTOPLASMA
p115
sbag1
(g2
g3
NtRp116
(dp117
g48
V10.1038/nature03115
p118
sg44
VNATURE
p119
sg46
V432
p120
sg75
(lp121
(VBOWEN
VG J
tp122
asg54
I2004
sg40
V495
p123
sbag1
(g2
g3
NtRp124
(dp125
g48
V10.1080/07352680490480734
p126
sg44
VCRIT REV PLANT SCI
p127
sg46
V23
p128
sg75
(lp129
(VBREWIN
VN J
tp130
asg54
I2004
sg40
V293
p131
sbag1
(g2
g3
NtRp132
(dp133
g48
V10.1007/BF00035069
p134
sg44
VPLANT SOIL
p135
sg46
V186
p136
sg75
(lp137
(VBRYAN
VJ A
tp138
asg54
I1996
sg40
VLANT
p139
sbag1
(g2
g3
NtRp140
(dp141
g48
V10.1099/ijs.0.64325-0
p142
sg44
VINT J SYST EVOL MICR
p143
sg46
V56
p144
sg75
(lp145
(VCHEN
VW M
tp146
asg54
I2006
sg40
V1847
p147
sbag1
(g2
g3
NtRp148
(dp149
g48
Nsg44
VIN PRESS INT J SYST
p150
sg46
Nsg75
(lp151
(VCHEN
VW M
tp152
asg54
I2007
sg40
Nsbag1
(g2
g3
NtRp153
(dp154
g48
Nsg44
VINT J SYST EVOL MICR
p155
sg46
V51
p156
sg75
(lp157
(VCHEN
VW M
tp158
asg54
I2001
sg40
V1729
p159
sbag1
(g2
g3
NtRp160
(dp161
g48
Nsg44
VNaturalia 
p162
sg46
V21
p163
sg75
(lp164
(VCORDEIRO
VLAZARA
tp165
asg54
I1996
sg40
V9
sbag1
(g2
g3
NtRp166
(dp167
g48
V10.1038/nrmicro884
p168
sg44
VNAT REV MICROBIOL
p169
sg46
V2
sg75
(lp170
(VDOBRINDT
VU
tp171
asg54
I2004
sg40
V414
p172
sbag1
(g2
g3
NtRp173
(dp174
g48
V10.1104/pp.102.018150
p175
sg44
VPLANT PHYSIOL
p176
sg46
V131
p177
sg75
(lp178
(VDOYLE
VJ J
tp179
asg54
I2003
sg40
VLANT
p180
sbag1
(g2
g3
NtRp181
(dp182
g48
V10.1111/j.1469-8137.2006.01894.x
p183
sg44
VNEW PHYTOL
p184
sg46
V173
p185
sg75
(lp186
(VELLIOTT
VG N
tp187
asg54
I2007
sg40
V168
p188
sbag1
(g2
g3
NtRp189
(dp190
g48
Nsg44
VAPPL ENVIRON MICROB
p191
sg46
V67
p192
sg75
(lp193
(VESTRADA DE LOS SANTOS P
S''
tp194
asg54
I2001
sg40
V2790
p195
sbag1
(g2
g3
NtRp196
(dp197
g48
V10.1007/s00442-006-0437-9
p198
sg44
VOECOLOGIA
p199
sg46
V149
p200
sg75
(lp201
(VGEHRING
VC A
tp202
asg54
I2006
sg40
V158
p203
sbag1
(g2
g3
NtRp204
(dp205
g48
V10.1038/nature04812
p206
sg44
VNATURE
p207
sg46
V441
p208
sg75
(lp209
(VGLEASON
VC
tp210
asg54
I2006
sg40
V1149
p211
sbag1
(g2
g3
NtRp212
(dp213
g48
V10.1094/MPMI-19-0173
p214
sg44
VMOL PLANT MICROBE IN
p215
sg46
V19
p216
sg75
(lp217
(VGONZALEZ-SAMA
VA
tp218
asg54
I2006
sg40
V173
p219
sbag1
(g2
g3
NtRp220
(dp221
g48
V10.1111/j.1469-8137.2004.01121.x
p222
sg44
VNEW PHYTOL
p223
sg46
V163
p224
sg75
(lp225
(VGONZALEZ-SAMA
VA
tp226
asg54
I2004
sg40
V371
p227
sbag1
(g2
g3
NtRp228
(dp229
g48
Nsg44
VIN PRESS LEGUMINOUS
p230
sg46
Nsg75
(lp231
(VGRAHAM
VP H
tp232
asg54
I2007
sg40
Nsbag1
(g2
g3
NtRp233
(dp234
g48
Nsg44
VJ ECOL
p235
sg46
V74
p236
sg75
(lp237
(VHOGBERG
VP
tp238
asg54
I1986
sg40
V755
p239
sbag1
(g2
g3
NtRp240
(dp241
g48
V10.1046/j.1469-8137.1999.00394.x
p242
sg44
VNEW PHYTOL
p243
sg46
V142
p244
sg75
(lp245
(VJAMES
VE K
tp246
asg54
I1999
sg40
V219
p247
sbag1
(g2
g3
NtRp248
(dp249
g48
V10.1007/s00203-006-0124-6
p250
sg44
VARCH MICROBIOL
p251
sg46
V186
p252
sg75
(lp253
(VKALITA
VM
tp254
asg54
I2006
sg40
V87
p255
sbag1
(g2
g3
NtRp256
(dp257
g48
V10.1071/FP06056
p258
sg44
VFUNCT PLANT BIOL
p259
sg46
V33
p260
sg75
(lp261
(VKINKEMA
VM
tp262
asg54
I2006
sg40
V707
p263
sbag1
(g2
g3
NtRp264
(dp265
g48
Nsg44
VSYST BIOL
p266
sg46
V54
p267
sg75
(lp268
(VLAVIN
VM
tp269
asg54
I2005
sg40
V574
p270
sbag1
(g2
g3
NtRp271
(dp272
g48
V10.2307/2657116
p273
sg44
VAM J BOT
p274
sg46
V88
p275
sg75
(lp276
(VLAVIN
VM
tp277
asg54
I2001
sg40
V503
p278
sbag1
(g2
g3
NtRp279
(dp280
g48
V10.1073/pnas.77.4.2113
p281
sg44
VP NATL ACAD SCI
p282
sg46
V77
p283
sg75
(lp284
(VMALLOCH
VD W
tp285
asg54
I1980
sg40
V2113
p286
sbag1
(g2
g3
NtRp287
(dp288
g48
V10.1094/MPMI.2000.13.2.170
p289
sg44
VMOL PLANT MICROBE IN
p290
sg46
V13
p291
sg75
(lp292
(VMATHESIUS
VU
tp293
asg54
I2000
sg40
V170
p294
sbag1
(g2
g3
NtRp295
(dp296
g48
V10.1073/pnas.0600912103
p297
sg44
VP NATL ACAD SCI USA
p298
sg46
V103
p299
sg75
(lp300
(VMERGAERT
VP
tp301
asg54
I2006
sg40
V5230
p302
sbag1
(g2
g3
NtRp303
(dp304
g48
V10.1139/G06-009
p305
sg44
VGENOME
p306
sg46
V49
p307
sg75
(lp308
(VMOOLHUIJZEN
VP
tp309
asg54
I2006
sg40
V689
p310
sbag1
(g2
g3
NtRp311
(dp312
g48
V10.1038/35082070
p313
sg44
VNATURE
p314
sg46
V411
p315
sg75
(lp316
(VMOULIN
VL
tp317
asg54
I2001
sg40
V948
p318
sbag1
(g2
g3
NtRp319
(dp320
g48
V10.1007/s005720050241
p321
sg44
VMYCORRHIZA
p322
sg46
V8
sg75
(lp323
(VMOYERSOEN
VB
tp324
asg54
I1999
sg40
V247
p325
sbag1
(g2
g3
NtRp326
(dp327
g48
V10.1111/j.1469-8137.1992.tb00077.x
p328
sg44
VNEW PHYTOL
p329
sg46
V122
p330
sg75
(lp331
(VNAISBITT
VT
tp332
asg54
I1992
sg40
V487
p333
sbag1
(g2
g3
NtRp334
(dp335
g48
V10.1126/science.1124975
p336
sg44
VSCIENCE
p337
sg46
V313
p338
sg75
(lp339
(VNATHAN
VR
tp340
asg54
I2006
sg40
V786
p341
sbag1
(g2
g3
NtRp342
(dp343
g48
Nsg44
VECOL MONOGR
p344
sg46
V67
p345
sg75
(lp346
(VNEWBERY
VD M
tp347
asg54
I1997
sg40
V367
p348
sbag1
(g2
g3
NtRp349
(dp350
g48
Nsg44
VPROTOPLASMA
p351
sg46
V162
p352
sg75
(lp353
(VPA
VJ
tp354
asg54
I1991
sg40
VROTOPLASMA
p355
sbag1
(g2
g3
NtRp356
(dp357
g48
V10.1111/j.1469-8137.2006.01902.x
p358
sg44
VNEW PHYTOL
p359
sg46
V172
p360
sg75
(lp361
(VPENNINGTON
VR T
tp362
asg54
I2006
sg40
V605
p363
sbag1
(g2
g3
NtRp364
(dp365
g48
V10.1111/j.1365-294X.2005.02730.x
p366
sg44
VMOL ECOL
p367
sg46
V14
p368
sg75
(lp369
(VRASOLOMAMPIANINA
VR
tp370
asg54
I2005
sg40
V4135
p371
sbag1
(g2
g3
NtRp372
(dp373
g48
V10.1111/j.1469-8137.2006.01858.x
p374
sg44
VNEW PHYTOL
p375
sg46
V172
p376
sg75
(lp377
(VSCHEUBLIN
VT R
tp378
asg54
I2006
sg40
V732
p379
sbag1
(g2
g3
NtRp380
(dp381
g48
Nsg44
VBIOL SKRIFTER
p382
sg46
V55
p383
sg75
(lp384
(VSCHRIRE
VB D
tp385
asg54
I2005
sg40
V375
p386
sbag1
(g2
g3
NtRp387
(dp388
g48
V10.1093/aob/mcl154
p389
sg44
VANN BOT
p390
sg46
V98
p391
sg75
(lp392
(VSCHULZE
VJ
tp393
asg54
I2006
sg40
V731
p394
sbag1
(g2
g3
NtRp395
(dp396
g48
V10.1006/bojl.2000.0380
p397
sg44
VBOT J LINN SOC
p398
sg46
V133
p399
sg75
(lp400
(VSOLTIS
VD E
tp401
asg54
I2000
sg40
V381
p402
sbag1
(g2
g3
NtRp403
(dp404
g48
V10.1099/mic.0.29112-0
p405
sg44
VMICROBIOL
p406
sg46
V152
p407
sg75
(lp408
(VSOTO
VM J
tp409
asg54
I2006
sg40
V3167
p410
sbag1
(g2
g3
NtRp411
(dp412
g48
Nsg44
VNODULATION LEGUMES
p413
sg46
Nsg75
(lp414
(VSPRENT
VJ
tp415
asg54
I2001
sg40
Nsbag1
(g2
g3
NtRp416
(dp417
g48
V10.1111/j.1469-8137.2005.01499.x
p418
sg44
VNEW PHYTOL
p419
sg46
V167
p420
sg75
(lp421
(VSPRENT
VJ
tp422
asg54
I2005
sg40
V326
p423
sbag1
(g2
g3
NtRp424
(dp425
g48
Nsg44
VNEW PHYTOL
p426
sg46
V171
p427
sg75
(lp428
(VSPRENT
VJ I
tp429
asg54
I2007
sg40
V11
p430
sbag1
(g2
g3
NtRp431
(dp432
g48
V10.1016/j.pbi.2006.01.005
p433
sg44
VCURR OPIN PLANT BIOL
p434
sg46
V9
sg75
(lp435
(VSTACEY
VG
tp436
asg54
I2006
sg40
V110
p437
sbag1
(g2
g3
NtRp438
(dp439
g48
Nsg44
VPLANTA
p440
sg46
V196
p441
sg75
(lp442
(VSUBBARAO
VN S
tp443
asg54
I1995
sg40
VLANTA
p444
sbag1
(g2
g3
NtRp445
(dp446
g48
V10.1038/nature04862
p447
sg44
VNATURE
p448
sg46
V441
p449
sg75
(lp450
(VTIRICHINE
VL
tp451
asg54
I2006
sg40
V1153
p452
sbag1
(g2
g3
NtRp453
(dp454
g48
V10.1126/science.1128691
p455
sg44
VSCIENCE
p456
sg46
V313
p457
sg75
(lp458
(VTUSKAN
VG A
tp459
asg54
I2006
sg40
V1596
p460
sbag1
(g2
g3
NtRp461
(dp462
g48
V10.1078/07232020260517634
p463
sg44
VSYST APPL MICROBIOL
p464
sg46
V25
p465
sg75
(lp466
(VVANDAMME
VP
tp467
asg54
I2002
sg40
V507
p468
sbag1
(g2
g3
NtRp469
(dp470
g48
V10.1046/j.1469-8137.2001.00120.x
p471
sg44
VNEW PHYTOL
p472
sg46
V150
p473
sg75
(lp474
(VVEGA-HERNANDEZ
VM C
tp475
asg54
I2001
sg40
V707
p476
sbag1
(g2
g3
NtRp477
(dp478
g48
V10.1007/s00572-005-0033-6
p479
sg44
VMYCORRHIZA
p480
sg46
V16
p481
sg75
(lp482
(VWANG
VB
tp483
asg54
I2006
sg40
V299
p484
sbag1
(g2
g3
NtRp485
(dp486
g48
V10.1073/pnas.0407926102
p487
sg44
VP NATL ACAD SCI USA
p488
sg46
V102
p489
sg75
(lp490
(VWEERASINGHE
VR R
tp491
asg54
I2005
sg40
V3147
p492
sbasb.