ccopy_reg
_reconstructor
p1
(ctethne.classes.paper
Paper
p2
c__builtin__
object
p3
NtRp4
(dp5
S'publisherCity'
p6
VROCKVILLE
p7
sS'reprintAddress'
p8
VVerbelen, JP (reprint author), Univ Instelling Antwerp, Dept Biol, Univ Pl 1, B-2610 Wilrijk, Belgium.
p9
sS'WC'
p10
VPlant Sciences
p11
sS'GA'
p12
V492AY
p13
sS'pageEnd'
p14
I385
sS'publisherAddress'
p15
V15501 MONONA DRIVE, ROCKVILLE, MD 20855 USA
p16
sS'documentType'
p17
VLetter
p18
sS'subject'
p19
VPlant Sciences
p20
sS'isoSource'
p21
VPlant Physiol.
p22
sS'timesCited'
p23
(lp24
I49
aVZ9 50
p25
asS'PT'
p26
VJ
sS'title'
p27
VCell Walls At The Plant Surface Behave Mechanically Like Fiber-Reinforced Composite Materials
p28
sS'ISSN'
p29
(lp30
V0032-0889
p31
aVJ9 PLANT PHYSIOL
p32
asS'authors_full'
p33
(lp34
(VKERSTENS
VS
tp35
a(VDECRAEMER
VWF
tp36
a(VVERBELEN
VJP
tp37
asS'PG'
p38
I5
sS'PD'
p39
VOCT
p40
sS'pageStart'
p41
I381
sS'issue'
p42
I2
sS'journal'
p43
VPLANT PHYSIOLOGY
p44
sS'volume'
p45
V127
p46
sS'doi'
p47
V10.1104/pp.010423
p48
sS'authorAddress'
p49
(lp50
VUniv Instelling Antwerp, Dept Biol, B-2610 Wilrijk, Belgium.
p51
aVUniv Antwerp, RUCA, Lab Biomed Phys, Dept Phys, B-2020 Antwerp, Belgium.
p52
asS'date'
p53
I2001
sS'ER'
p54
V
sS'publisher'
p55
VAMER SOC PLANT BIOLOGISTS
p56
sS'authorKeywords'
p57
(lp58
VEXTENSIBILITY
p59
aVTISSUES
p60
aVGROWTH
p61
asS'language'
p62
VEnglish
p63
sS'wosid'
p64
VWOS:000172144500004
p65
sS'citationCount'
p66
I25
sS'authors_init'
p67
(lp68
(VKERSTENS
VS
tp69
a(VDECRAEMER
VW F
tp70
a(VVERBELEN
VJ P
tp71
asS'citedReferences'
p72
(lp73
g1
(g2
g3
NtRp74
(dp75
g47
Nsg43
VMAT SCI ENG
p76
sg45
Nsg67
(lp77
(VCALLISTER
VW D
tp78
asg53
I1991
sg41
Nsbag1
(g2
g3
NtRp79
(dp80
g47
V10.1111/j.1365-313X.1993.tb00007.x
p81
sg43
VPLANT J
p82
sg45
V3
sg67
(lp83
(VCARPITA
VN C
tp84
asg53
I1993
sg41
VLANT
p85
sbag1
(g2
g3
NtRp86
(dp87
g47
V10.1007/BF00411139
p88
sg43
VPLANTA
p89
sg45
V160
p90
sg67
(lp91
(VCLELAND
VR E
tp92
asg53
I1984
sg41
VLANTA
p93
sbag1
(g2
g3
NtRp94
(dp95
g47
V10.1105/tpc.9.7.1031
p96
sg43
VPLANT CELL
p97
sg45
V9
sg67
(lp98
(VCOSGROVE
VD J
tp99
asg53
I1997
sg41
VLANT
p100
sbag1
(g2
g3
NtRp101
(dp102
g47
V10.1038/35030000
p103
sg43
VNATURE
p104
sg45
V407
p105
sg67
(lp106
(VCOSGROVE
VD J
tp107
asg53
I2000
sg41
V321
p108
sbag1
(g2
g3
NtRp109
(dp110
g47
Nsg43
VTHESIS U ANTWERP WIL
p111
sg45
Nsg67
(lp112
(VDECRAEMER
VW F
tp113
asg53
I1977
sg41
Nsbag1
(g2
g3
NtRp114
(dp115
g47
Nsg43
VVISCOELASTIC PROPERT
p116
sg45
VISCOELASTIC
p117
sg67
(lp118
(VFERRY
VJ D
tp119
asg53
I1970
sg41
Nsbag1
(g2
g3
NtRp120
(dp121
g47
Nsg43
VPLANT CELL PHYSIOL
p122
sg45
V41
p123
sg67
(lp124
(VFUJINO
VT
tp125
asg53
I2000
sg41
VLANT
p126
sbag1
(g2
g3
NtRp127
(dp128
g47
V10.1146/annurev.pp.31.060180.000411
p129
sg43
VANNU REV PLANT PHYS
p130
sg45
V31
p131
sg67
(lp132
(VGREEN
VP B
tp133
asg53
I1980
sg41
V51
p134
sbag1
(g2
g3
NtRp135
(dp136
g47
Nsg43
VPLANT CELL
p137
sg45
V5
sg67
(lp138
(VHERNANDEZ
VL F
tp139
asg53
I1993
sg41
VLANT
p140
sbag1
(g2
g3
NtRp141
(dp142
g47
Nsg43
VBERICHTE VERHANDL MP
p143
sg45
V11
p144
sg67
(lp145
(VHOFMEISTER
VW
tp146
asg53
I1859
sg41
V175
p147
sbag1
(g2
g3
NtRp148
(dp149
g47
V10.1093/jxb/47.9.1387
p150
sg43
VJ EXP BOT
p151
sg45
V47
p152
sg67
(lp153
(VKUTSCHERA
VU
tp154
asg53
I1996
sg41
V1387
p155
sbag1
(g2
g3
NtRp156
(dp157
g47
Nsg43
VPLANT BIOMECHANICS 2
p158
sg45
Nsg67
(lp159
(VLICHTENEGGER
VH
tp160
asg53
I2000
sg41
VLANT
p161
sbag1
(g2
g3
NtRp162
(dp163
g47
Nsg43
VPLANT BIOMECHANICS E
p164
sg45
Nsg67
(lp165
(VNIKLAS
VK J
tp166
asg53
I1992
sg41
VLANT
p167
sbag1
(g2
g3
NtRp168
(dp169
g47
V10.2307/2446340
p170
sg43
VAM J BOT
p171
sg45
V85
p172
sg67
(lp173
(VNIKLAS
VK J
tp174
asg53
I1998
sg41
V1068
p175
sbag1
(g2
g3
NtRp176
(dp177
g47
V10.2307/2445809
p178
sg43
VAM J BOT
p179
sg45
V84
p180
sg67
(lp181
(VNIKLAS
VK J
tp182
asg53
I1997
sg41
V735
p183
sbag1
(g2
g3
NtRp184
(dp185
g47
V10.1093/jxb/48.12.2103
p186
sg43
VJ EXP BOT
p187
sg45
V48
p188
sg67
(lp189
(VNOLTE
VT
tp190
asg53
I1997
sg41
V2103
p191
sbag1
(g2
g3
NtRp192
(dp193
g47
V10.1046/j.1365-313X.1999.00630.x
p194
sg43
VPLANT J
p195
sg45
V20
p196
sg67
(lp197
(VPAULY
VM
tp198
asg53
I1999
sg41
VLANT
p199
sbag1
(g2
g3
NtRp200
(dp201
g47
Nsg43
VLOADBEARING FIBER CO
p202
sg45
Nsg67
(lp203
(VPIGGOTT
VM R
tp204
asg53
I1980
sg41
Nsbag1
(g2
g3
NtRp205
(dp206
g47
V10.1016/0248-4900(89)90056-7
p207
sg43
VBIOL CELL
p208
sg45
V67
p209
sg67
(lp210
(VROLAND
VJ C
tp211
asg53
I1989
sg41
V209
p212
sbag1
(g2
g3
NtRp213
(dp214
g47
Nsg43
VJ EXP BIOL
p215
sg45
V202
p216
sg67
(lp217
(VSPATZ
VH C
tp218
asg53
I1999
sg41
V3269
p219
sbag1
(g2
g3
NtRp220
(dp221
g47
Nsg43
VJ MICROSC
p222
sg45
V177
p223
sg67
(lp224
(VSTICKENS
VD
tp225
asg53
I1995
sg41
V1
sbag1
(g2
g3
NtRp226
(dp227
g47
V10.1078/0176-1617-00277
p228
sg43
VJ PLANT PHYSIOL
p229
sg45
V158
p230
sg67
(lp231
(VVERBELEN
VJ P
tp232
asg53
I2001
sg41
V537
p233
sbag1
(g2
g3
NtRp234
(dp235
g47
V10.1046/j.1365-2818.2000.00691.x
p236
sg43
VJ MICROSC
p237
sg45
V198
p238
sg67
(lp239
(VVERBELEN
VJ P
tp240
asg53
I2000
sg41
V101
p241
sbag1
(g2
g3
NtRp242
(dp243
g47
Nsg43
VBIOMECHANICS MAT
p244
sg45
Nsg67
(lp245
(VVINCENT
VJ F V
tp246
asg53
I1992
sg41
V57
p247
sbasb.