ccopy_reg
_reconstructor
p1
(ctethne.classes.paper
Paper
p2
c__builtin__
object
p3
NtRp4
(dp5
S'publisherCity'
p6
VROCKVILLE
p7
sS'reprintAddress'
p8
VJones, AM (reprint author), Univ N Carolina, Dept Biol, CB 3280, Chapel Hill, NC 27599 USA.
p9
sS'WC'
p10
VPlant Sciences
p11
sS'GA'
p12
V658TM
p13
sS'pageEnd'
p14
I482
sS'publisherAddress'
p15
V15501 MONONA DRIVE, ROCKVILLE, MD 20855 USA
p16
sS'documentType'
p17
VArticle
p18
sS'subject'
p19
VPlant Sciences
p20
sS'isoSource'
p21
VPlant Physiol.
p22
sS'timesCited'
p23
(lp24
I11
aVZ9 13
p25
asS'PT'
p26
VJ
sS'title'
p27
VAbscisic Acid Receptors
p28
sS'ISSN'
p29
(lp30
V0032-0889
p31
aVJ9 PLANT PHYSIOL
p32
asS'authors_full'
p33
(lp34
(VKLINE
VKELLI G
tp35
a(VSUSSMAN
VMICHAEL R
tp36
a(VJONES
VALAN M
tp37
asS'PG'
p38
I4
sS'PD'
p39
VOCT
p40
sS'pageStart'
p41
I479
sS'issue'
p42
I2
sS'journal'
p43
VPLANT PHYSIOLOGY
p44
sS'volume'
p45
V154
p46
sS'doi'
p47
V10.1104/pp.110.160846
p48
sS'emailAddress'
p49
Valan_jones@unc.edu
p50
sS'authorAddress'
p51
(lp52
V[Jones, Alan M.] Univ N Carolina, Dept Biol, Chapel Hill, NC 27599 USA.
p53
aV[Kline, Kelli G.; Sussman, Michael R.] Univ Wisconsin, Dept Biochem, Madison, WI 53706 USA.
p54
asS'date'
p55
I2010
sS'ER'
p56
V
sS'publisher'
p57
VAMER SOC PLANT BIOLOGISTS
p58
sS'authorKeywords'
p59
(lp60
VKINASE-PHOSPHATASE PAIR
p61
aVGUARD-CELLS
p62
aVARABIDOPSIS
p63
aVFAMILY
p64
aVTOLERANCE
p65
aVMECHANISM
p66
aVPROTEINS
p67
aVCHANNEL
p68
asS'language'
p69
VEnglish
p70
sS'wosid'
p71
VWOS:000282512300012
p72
sS'citationCount'
p73
I25
sS'authors_init'
p74
(lp75
(VKLINE
VK G
tp76
a(VSUSSMAN
VM R
tp77
a(VJONES
VA M
tp78
asS'citedReferences'
p79
(lp80
g1
(g2
g3
NtRp81
(dp82
g47
Nsg43
VCURR MED CHEM
p83
sg45
V17
p84
sg74
(lp85
(VBASSAGANYA-RIERA
VJ
tp86
asg55
I2010
sg41
V467
p87
sbag1
(g2
g3
NtRp88
(dp89
g47
V10.1074/jbc.M802603200
p90
sg43
VJ BIOL CHEM
p91
sg45
V283
p92
sg74
(lp93
(VBRUZZONE
VS
tp94
asg55
I2008
sg41
V32188
p95
sbag1
(g2
g3
NtRp96
(dp97
g47
V10.4161/psb.5.4.11213
p98
sg43
VPlant Signal Behav
p99
sg45
V5
sg74
(lp100
(VCASTELLS
VENRIC
tp101
asg55
I2010
sg41
Vlant
p102
sbag1
(g2
g3
NtRp103
(dp104
g47
V10.1038/nature06006
p105
sg43
VNATURE
p106
sg45
V448
p107
sg74
(lp108
(VCHINI
VA
tp109
asg55
I2007
sg41
V666
p110
sbag1
(g2
g3
NtRp111
(dp112
g47
V10.1146/annurev-arplant-042809-112122
p113
sg43
VANNU REV PLANT BIOL
p114
sg45
V61
p115
sg74
(lp116
(VCUTLER
VS R
tp117
asg55
I2010
sg41
V651
p118
sbag1
(g2
g3
NtRp119
(dp120
g47
V10.1038/nature03543
p121
sg43
VNATURE
p122
sg45
V435
p123
sg74
(lp124
(VDHARMASIRI
VN
tp125
asg55
I2005
sg41
V441
p126
sbag1
(g2
g3
NtRp127
(dp128
g47
V10.1038/nature08599
p129
sg43
VNATURE
p130
sg45
V462
p131
sg74
(lp132
(VFUJII
VH
tp133
asg55
I2009
sg41
V660
p134
sbag1
(g2
g3
NtRp135
(dp136
g47
V10.1073/pnas.0912021106
p137
sg43
VP NATL ACAD SCI USA
p138
sg45
V106
p139
sg74
(lp140
(VGEIGER
VD
tp141
asg55
I2009
sg41
V21425
p142
sbag1
(g2
g3
NtRp143
(dp144
g47
V10.1105/tpc.106.047415
p145
sg43
VPLANT CELL
p146
sg45
V18
p147
sg74
(lp148
(VGRIFFITHS
VJ
tp149
asg55
I2006
sg41
VLANT
p150
sbag1
(g2
g3
NtRp151
(dp152
g47
V10.1016/j.clnu.2006.07.008
p153
sg43
VCLIN NUTR
p154
sg45
V26
p155
sg74
(lp156
(VGURI
VA J
tp157
asg55
I2007
sg41
V107
p158
sbag1
(g2
g3
NtRp159
(dp160
g47
V10.1073/pnas.0909222107
p161
sg43
VP NATL ACAD SCI USA
p162
sg45
V107
p163
sg74
(lp164
(VKANG
VJ
tp165
asg55
I2010
sg41
V2355
p166
sbag1
(g2
g3
NtRp167
(dp168
g47
V10.1073/pnas.0912516107
p169
sg43
VP NATL ACAD SCI USA
p170
sg45
V107
p171
sg74
(lp172
(VKUROMORI
VT
tp173
asg55
I2010
sg41
V2361
p174
sbag1
(g2
g3
NtRp175
(dp176
g47
V10.1073/pnas.0910601106
p177
sg43
VP NATL ACAD SCI USA
p178
sg45
V106
p179
sg74
(lp180
(VLEE
VS C
tp181
asg55
I2009
sg41
V21419
p182
sbag1
(g2
g3
NtRp183
(dp184
g47
V10.1093/jxb/erq099
p185
sg43
VJ EXP BOT
p186
sg45
V61
p187
sg74
(lp188
(VLESHEM
VY
tp189
asg55
I2010
sg41
V2615
p190
sbag1
(g2
g3
NtRp191
(dp192
g47
V10.1126/science.1172408
p193
sg43
VSCIENCE
p194
sg45
V324
p195
sg74
(lp196
(VMA
VY
tp197
asg55
I2009
sg41
V1064
p198
sbag1
(g2
g3
NtRp199
(dp200
g47
V10.1038/nature08613
p201
sg43
VNATURE
p202
sg45
V462
p203
sg74
(lp204
(VMELCHER
VK
tp205
asg55
I2009
sg41
V602
p206
sbag1
(g2
g3
NtRp207
(dp208
g47
V10.1038/nature08583
p209
sg43
VNATURE
p210
sg45
V462
p211
sg74
(lp212
(VMIYAZONO
VK
tp213
asg55
I2009
sg41
V609
p214
sbag1
(g2
g3
NtRp215
(dp216
g47
Nsg43
VSCIENCE
p217
sg45
V326
p218
sg74
(lp219
(VTHE
VNEWS STAFF
tp220
asg55
I2009
sg41
V1600
p221
sbag1
(g2
g3
NtRp222
(dp223
g47
V10.1126/science.1181829
p224
sg43
VSCIENCE
p225
sg45
V326
p226
sg74
(lp227
(VNISHIMURA
VN
tp228
asg55
I2009
sg41
V1373
p229
sbag1
(g2
g3
NtRp230
(dp231
g47
V10.1126/science.1173041
p232
sg43
VSCIENCE
p233
sg45
V324
p234
sg74
(lp235
(VPARK
VS Y
tp236
asg55
I2009
sg41
V1068
p237
sbag1
(g2
g3
NtRp238
(dp239
g47
V10.1016/S0014-5793(97)01558-5
p240
sg43
VFEBS LETT
p241
sg45
V421
p242
sg74
(lp243
(VRODRIGUEZ
VP L
tp244
asg55
I1998
sg41
V185
p245
sbag1
(g2
g3
NtRp246
(dp247
g47
V10.1038/nature08591
p248
sg43
VNATURE
p249
sg45
V462
p250
sg74
(lp251
(VSANTIAGO
VJ
tp252
asg55
I2009
sg41
V665
p253
sbag1
(g2
g3
NtRp254
(dp255
g47
V10.1111/j.1365-313X.2009.03981.x
p256
sg43
VPLANT J
p257
sg45
V60
p258
sg74
(lp259
(VSANTIAGO
VJ
tp260
asg55
I2009
sg41
VLANT
p261
sbag1
(g2
g3
NtRp262
(dp263
g47
V10.1038/nsmb.1730
p264
sg43
VNAT STRUCT MOL BIOL
p265
sg45
V16
p266
sg74
(lp267
(VYIN
VP
tp268
asg55
I2009
sg41
V1230
p269
sbag1
(g2
g3
NtRp270
(dp271
g47
V10.1021/pr901011h
p272
sg43
VJ PROTEOME RES
p273
sg45
V9
sg74
(lp274
(VZHAO
VZ X
tp275
asg55
I2010
sg41
V1637
p276
sbasb.