ccopy_reg
_reconstructor
p1
(ctethne.classes.paper
Paper
p2
c__builtin__
object
p3
NtRp4
(dp5
S'publisherCity'
p6
VROCKVILLE
p7
sS'reprintAddress'
p8
VIshii, T (reprint author), Forestry & Forest Prod Res Inst, POB 16, Tsukuba, Ibaraki 3058687, Japan.
p9
sS'WC'
p10
VPlant Sciences
p11
sS'GA'
p12
V462HC
p13
sS'abstract'
p14
VBoron (B) deficiency results in inhibition of pumpkin (Cucurbia moschata Duchesne) growth that is accompanied by swelling of the cell walls. Monomeric rhamnogalacturonan II (mRG-II) accounted for 80% to 90% of the total RG-II in B-deficient walls, whereas the borate ester cross-linked RG-II dimer (dRG-II-B) accounted for more than 80% of the RG-II in control plants. The results of glycosyl residue and glycosyl linkage composition analyses of the RG-II from control and B-deficient plants were similar. Thus, B deficiency does not alter the primary structure of RG-II. The addition of B-10-enriched boric acid to B-deficient plants resulted within 5 h in the conversion of mRG-II to dRG-II-B-10. The wall thickness of the B-10-treated plants and control plants was similar. The formation and possible functions of a borate ester cross-linked RG-II in the cell walls are discussed.
p15
sS'pageEnd'
p16
I1705
sS'publisherAddress'
p17
V15501 MONONA DRIVE, ROCKVILLE, MD 20855 USA
p18
sS'documentType'
p19
VArticle
p20
sS'subject'
p21
VPlant Sciences
p22
sS'isoSource'
p23
VPlant Physiol.
p24
sS'timesCited'
p25
(lp26
I69
aVZ9 73
p27
asS'PT'
p28
VJ
sS'title'
p29
VFormation Of Rhamnogalacturonan Ii-Borate Dimer In Pectin Determines Cell Wall Thickness Of Pumpkin Tissue
p30
sS'ISSN'
p31
(lp32
V0032-0889
p33
aVJ9 PLANT PHYSIOL
p34
asS'authors_full'
p35
(lp36
(VISHII
VT
tp37
a(VMATSUNAGA
VT
tp38
a(VHAYASHI
VN
tp39
asS'PG'
p40
I8
sS'PD'
p41
VAUG
p42
sS'pageStart'
p43
I1698
sS'issue'
p44
I4
sS'journal'
p45
VPLANT PHYSIOLOGY
p46
sS'volume'
p47
V126
p48
sS'doi'
p49
V10.1104/pp.126.4.1698
p50
sS'authorAddress'
p51
(lp52
VForestry & Forest Prod Res Inst, Tsukuba, Ibaraki 3058687, Japan.
p53
aVNatl Agr Res Ctr, Kumamoto 8611192, Japan.
p54
asS'date'
p55
I2001
sS'ER'
p56
V
sS'publisher'
p57
VAMER SOC PLANT PHYSIOLOGISTS
p58
sS'authorKeywords'
p59
(lp60
VPLANT-CELL
p61
aVBORON NUTRITION
p62
aVSTRUCTURAL ROLE
p63
aVPOLYSACCHARIDE
p64
aVESTER
p65
aVTOBACCO
p66
aVCOMPLEX
p67
asS'language'
p68
VEnglish
p69
sS'wosid'
p70
VWOS:000170413800036
p71
sS'citationCount'
p72
I20
sS'authors_init'
p73
(lp74
(VISHII
VT
tp75
a(VMATSUNAGA
VT
tp76
a(VHAYASHI
VN
tp77
asS'citedReferences'
p78
(lp79
g1
(g2
g3
NtRp80
(dp81
g49
V10.1016/0003-2697(73)90377-1
p82
sg45
VANAL BIOCHEM
p83
sg47
V54
p84
sg73
(lp85
(VBLUMENKRN
S''
tp86
asg55
I1973
sg43
V484
p87
sbag1
(g2
g3
NtRp88
(dp89
g49
V10.1023/A:1004245823080
p90
sg45
VPLANT SOIL
p91
sg47
V196
p92
sg73
(lp93
(VBROWN
VP H
tp94
asg55
I1997
sg43
VLANT
p95
sbag1
(g2
g3
NtRp96
(dp97
g49
V10.1111/j.1365-313X.1993.tb00007.x
p98
sg45
VPLANT J
p99
sg47
V3
sg73
(lp100
(VCARPITA
VN C
tp101
asg55
I1993
sg43
VLANT
p102
sbag1
(g2
g3
NtRp103
(dp104
g49
V10.1104/pp.121.3.829
p105
sg45
VPLANT PHYSIOL
p106
sg47
V121
p107
sg73
(lp108
(VFLEISCHER
VA
tp109
asg55
I1999
sg43
VLANT
p110
sbag1
(g2
g3
NtRp111
(dp112
g49
Nsg45
VJ PLANT PHYSIOL
p113
sg47
V123
p114
sg73
(lp115
(VGOLDBACH
VH
tp116
asg55
I1986
sg43
V263
p117
sbag1
(g2
g3
NtRp118
(dp119
g49
Nsg45
VCALIF AES C
p120
sg47
V347
p121
sg73
(lp122
(VHOAGLAND
VD R
tp123
asg55
I1950
sg43
V1
sbag1
(g2
g3
NtRp124
(dp125
g49
Nsg45
VPLANT PHYSIOL
p126
sg47
V105
p127
sg73
(lp128
(VHU
VH I
tp129
asg55
I1994
sg43
VLANT
p130
sbag1
(g2
g3
NtRp131
(dp132
g49
V10.1074/jbc.274.19.13098
p133
sg45
VJ BIOL CHEM
p134
sg47
V274
p135
sg73
(lp136
(VISHII
VT
tp137
asg55
I1999
sg43
V13098
p138
sbag1
(g2
g3
NtRp139
(dp140
g49
V10.1016/0008-6215(96)00010-9
p141
sg45
VCARBOHYD RES
p142
sg47
V284
p143
sg73
(lp144
(VISHII
VT
tp145
asg55
I1996
sg43
V1
sbag1
(g2
g3
NtRp146
(dp147
g49
Nsg45
VIN PRESS PHYTOCHEMIS
p148
sg47
Nsg73
(lp149
(VISHII
VT
tp150
asg55
I2001
sg43
Nsbag1
(g2
g3
NtRp151
(dp152
g49
Nsg45
VPLANT PHYSIOL
p153
sg47
V110
p154
sg73
(lp155
(VKOBAYASHI
VM
tp156
asg55
I1996
sg43
VLANT
p157
sbag1
(g2
g3
NtRp158
(dp159
g49
Nsg45
VSoil Science and Plant Nutrition
p160
sg47
V22
p161
sg73
(lp162
(VKOUCHI
VH
tp163
asg55
I1976
sg43
V53
p164
sbag1
(g2
g3
NtRp165
(dp166
g49
Nsg45
VBIOFACTORS
p167
sg47
V3
sg73
(lp168
(VLOOMIS
VW D
tp169
asg55
I1992
sg43
V229
p170
sbag1
(g2
g3
NtRp171
(dp172
g49
V10.1023/A:1004207824251
p173
sg45
VPLANT SOIL
p174
sg47
V193
p175
sg73
(lp176
(VMATOH
VT
tp177
asg55
I1997
sg43
VLANT
p178
sbag1
(g2
g3
NtRp179
(dp180
g49
Nsg45
VPLANT CELL PHYSIOL
p181
sg47
V41
p182
sg73
(lp183
(VMATOH
VT
tp184
asg55
I2000
sg43
VLANT
p185
sbag1
(g2
g3
NtRp186
(dp187
g49
Nsg45
VJ BIOL CHEM
p188
sg47
V271
p189
sg73
(lp190
(VONEILL
VM A
tp191
asg55
I1996
sg43
V22923
p192
sbag1
(g2
g3
NtRp193
(dp194
g49
V10.1007/s004250050178
p195
sg45
VPLANTA
p196
sg47
V203
p197
sg73
(lp198
(VREDGWELL
VR J
tp199
asg55
I1997
sg43
VLANTA
p200
sbag1
(g2
g3
NtRp201
(dp202
g49
V10.1104/pp.32.4.308
p203
sg45
VPLANT PHYSIOL
p204
sg47
V32
p205
sg73
(lp206
(VSKOK
VJ
tp207
asg55
I1957
sg43
VLANT
p208
sbag1
(g2
g3
NtRp209
(dp210
g49
V10.1105/tpc.9.5.689
p211
sg45
VPLANT CELL
p212
sg47
V9
sg73
(lp213
(VTURNER
VS R
tp214
asg55
I1997
sg43
VLANT
p215
sbag1
(g2
g3
NtRp216
(dp217
g49
Nsg45
VMETHOD ENZYMOL
p218
sg47
V118
p219
sg73
(lp220
(VYORK
VW S
tp221
asg55
I1985
sg43
V3
sbasb.