ccopy_reg
_reconstructor
p1
(ctethne.classes.paper
Paper
p2
c__builtin__
object
p3
NtRp4
(dp5
S'publisherCity'
p6
VROCKVILLE
p7
sS'reprintAddress'
p8
VMatsuda, Y (reprint author), Kwansei Gakuin Univ, Sch Sci & Technol, Dept Biosci, Sanda, Hyogo 6691337, Japan.
p9
sS'WC'
p10
VPlant Sciences
p11
sS'GA'
p12
V973CJ
p13
sS'abstract'
p14
VCells of the marine diatom Phaeodactylum tricornutum Bohlin (UTEX 642) grown in 5% CO2 were transferred to air-level CO2 in the light or dark and allowed to acclimate to air. No accumulation of the transcript of the P. tricornutum beta-carbonic anhydrase 1 (ptca1) was detected in 5% CO2-grown cells, but ptca1 mRNA accumulated and reached a peak after 6 h acclimation to air but decreased over the next 18 h. A similar accumulation time course was observed in cells air-acclimated in the dark, except that levels of mRNA were, 50% those in the light. These results suggest that air-level [ CO 2] is required to trigger the transcription of ptca1 and that light affects the extent of acclimation. During acclimation to air for 120 h in the light, levels of ptca1 mRNA exhibited a periodic oscillation with a cycle of about 24 h, which, however, was not reflected in protein accumulation levels. A 5'-upstream region from the transcription-start site toward 21,292 bp of ptca1 was cloned by inverse polymerase chain reaction, and 5'-truncations were carried out on this fragment. The truncated promoter regions were fused with the beta-glucuronidase gene (uidA) and introduced into P. tricornutum. The promoter fragments, truncated at positions 1,292, -824, -484, -225, and -70 bp, conferred on transformants clear CO2-responsive beta-glucuronidase expressions. In contrast, the CO2-responsive regulation was severely impaired or completely abolished by truncations, respectively, at position 250 or 230 bp. These results indicate that critical cis-elements required for CO2-responsive transcription of ptca1 may be located between -70 and -30 bp relative to the transcription start site.
p15
sS'pageEnd'
p16
I1050
sS'publisherAddress'
p17
V15501 MONONA DRIVE, ROCKVILLE, MD 20855 USA
p18
sS'documentType'
p19
VArticle
p20
sS'subject'
p21
VPlant Sciences
p22
sS'isoSource'
p23
VPlant Physiol.
p24
sS'timesCited'
p25
(lp26
I19
aVZ9 20
p27
asS'PT'
p28
VJ
sS'title'
p29
VRegulation Of The Expression Of Intracellular Beta-Carbonic Anhydrase In Response To Co2 And Light In The Marine Diatom Phaeodactylum Tricornutum
p30
sS'ISSN'
p31
(lp32
V0032-0889
p33
aVJ9 PLANT PHYSIOL
p34
asS'authors_full'
p35
(lp36
(VHARADA
VH
tp37
a(VNAKATSUMA
VD
tp38
a(VISHIDA
VM
tp39
a(VMATSUDA
VY
tp40
asS'PG'
p41
I10
sS'PD'
p42
VOCT
p43
sS'pageStart'
p44
I1041
sS'issue'
p45
I2
sS'journal'
p46
VPLANT PHYSIOLOGY
p47
sS'volume'
p48
V139
p49
sS'doi'
p50
V10.1104/pp.105.065185
p51
sS'emailAddress'
p52
Vyusuke@ksc.kwansei.ac.jp
p53
sS'authorAddress'
p54
VKwansei Gakuin Univ, Sch Sci & Technol, Dept Biosci, Sanda, Hyogo 6691337, Japan.
p55
sS'date'
p56
I2005
sS'ER'
p57
V
sS'publisher'
p58
VAMER SOC PLANT BIOLOGISTS
p59
sS'authorKeywords'
p60
(lp61
VALGA CHLORELLA-ELLIPSOIDEA
p62
aVNUCLEAR-PROTEIN CBP
p63
aVCHLAMYDOMONAS-REINHARDTII
p64
aVINORGANIC CARBON
p65
aVCO2-CONCENTRATING MECHANISMS
p66
aVCONCENTRATING MECHANISM
p67
aVBICARBONATE TRANSPORT
p68
aVADENYLYL-CYCLASE
p69
aVACTIVE UPTAKE
p70
aVINDUCTION
p71
asS'language'
p72
VEnglish
p73
sS'wosid'
p74
VWOS:000232500200041
p75
sS'citationCount'
p76
I51
sS'authors_init'
p77
(lp78
(VHARADA
VH
tp79
a(VNAKATSUMA
VD
tp80
a(VISHIDA
VM
tp81
a(VMATSUDA
VY
tp82
asS'citedReferences'
p83
(lp84
g1
(g2
g3
NtRp85
(dp86
g50
Nsg46
VCAN J BOT
p87
sg48
V76
p88
sg77
(lp89
(VBADGER
VM R
tp90
asg56
I1998
sg44
V1052
p91
sbag1
(g2
g3
NtRp92
(dp93
g50
V10.1104/pp.66.3.407
p94
sg46
VPLANT PHYSIOL
p95
sg48
V66
p96
sg77
(lp97
(VBADGER
VM R
tp98
asg56
I1980
sg44
VLANT
p99
sbag1
(g2
g3
NtRp100
(dp101
g50
Nsg46
VNUCLEIC ACIDS RES
p102
sg48
V21
p103
sg77
(lp104
(VBHAYA
VD
tp105
asg56
I1993
sg44
V4458
p106
sbag1
(g2
g3
NtRp107
(dp108
g50
V10.1093/jexbot/51.349.1341
p109
sg46
VJ EXP BOT
p110
sg48
V51
p111
sg77
(lp112
(VBOZZO
VG G
tp113
asg56
I2000
sg44
V1341
p114
sbag1
(g2
g3
NtRp115
(dp116
g50
V10.1046/j.1365-3040.2000.00623.x
p117
sg46
VPLANT CELL ENVIRON
p118
sg48
V23
p119
sg77
(lp120
(VBOZZO
VG G
tp121
asg56
I2000
sg44
VLANT
p122
sbag1
(g2
g3
NtRp123
(dp124
g50
Nsg46
VANAL BIOCHEM
p125
sg48
V72
p126
sg77
(lp127
(VBRADFORD
VM M
tp128
asg56
I1976
sg44
V254
p129
sbag1
(g2
g3
NtRp130
(dp131
g50
V10.1126/science.289.5479.625
p132
sg46
VSCIENCE
p133
sg48
V289
p134
sg77
(lp135
(VCHEN
VY Q
tp136
asg56
I2000
sg44
V625
p137
sbag1
(g2
g3
NtRp138
(dp139
g50
Nsg46
VANAL BIOCHEM
p140
sg48
V162
p141
sg77
(lp142
(VCHOMCZYNSKI
VP
tp143
asg56
I1987
sg44
V156
p144
sbag1
(g2
g3
NtRp145
(dp146
g50
V10.1038/365855a0
p147
sg46
VNATURE
p148
sg48
V365
p149
sg77
(lp150
(VCHRIVIA
VJ C
tp151
asg56
I1993
sg44
V855
p152
sbag1
(g2
g3
NtRp153
(dp154
g50
V10.1111/j.1365-3040.1995.tb00601.x
p155
sg46
VPLANT CELL ENVIRON
p156
sg48
V18
p157
sg77
(lp158
(VCOLMAN
VB
tp159
asg56
I1995
sg44
VLANT
p160
sbag1
(g2
g3
NtRp161
(dp162
g50
V10.1104/pp.94.3.1103
p163
sg46
VPLANT PHYSIOL
p164
sg48
V94
p165
sg77
(lp166
(VDIONISIOSESE
VM L
tp167
asg56
I1990
sg44
VLANT
p168
sbag1
(g2
g3
NtRp169
(dp170
g50
V10.1104/pp.116.2.637
p171
sg46
VPLANT PHYSIOL
p172
sg48
V116
p173
sg77
(lp174
(VERIKSSON
VM
tp175
asg56
I1998
sg44
VLANT
p176
sbag1
(g2
g3
NtRp177
(dp178
g50
V10.1073/pnas.93.21.12031
p179
sg46
VP NATL ACAD SCI USA
p180
sg48
V93
p181
sg77
(lp182
(VERIKSSON
VM
tp183
asg56
I1996
sg44
V12031
p184
sbag1
(g2
g3
NtRp185
(dp186
g50
V10.1126/science.1095964
p187
sg46
VSCIENCE
p188
sg48
V305
p189
sg77
(lp190
(VFALKOWSKI
VP G
tp191
asg56
I2004
sg44
V354
p192
sbag1
(g2
g3
NtRp193
(dp194
g50
V10.1007/BF00020215
p195
sg46
VPLANT MOL BIOL
p196
sg48
V32
p197
sg77
(lp198
(VFUJIWARA
VS
tp199
asg56
I1996
sg44
VLANT
p200
sbag1
(g2
g3
NtRp201
(dp202
g50
V10.1073/pnas.87.11.4383
p203
sg46
VP NATL ACAD SCI USA
p204
sg48
V87
p205
sg77
(lp206
(VFUKUZAWA
VH
tp207
asg56
I1990
sg44
V4383
p208
sbag1
(g2
g3
NtRp209
(dp210
g50
V10.1104/pp.114.1.237
p211
sg46
VPLANT PHYSIOL
p212
sg48
V114
p213
sg77
(lp214
(VFUNKE
VR P
tp215
asg56
I1997
sg44
VLANT
p216
sbag1
(g2
g3
NtRp217
(dp218
g50
Nsg46
VCAN J MICROBIOL
p219
sg48
V8
sg77
(lp220
(VGUILLARD
VR R
tp221
asg56
I1962
sg44
V229
p222
sbag1
(g2
g3
NtRp223
(dp224
g50
V10.1104/pp.84.3.872
p225
sg46
VPLANT PHYSIOL
p226
sg48
V84
p227
sg77
(lp228
(VGUY
VC L
tp229
asg56
I1987
sg44
VLANT
p230
sbag1
(g2
g3
NtRp231
(dp232
g50
Nsg46
VIN PRESS CAN J BOT
p233
sg48
Nsg77
(lp234
(VHARADA
VH
tp235
asg56
I2005
sg44
Nsbag1
(g2
g3
NtRp236
(dp237
g50
V10.1111/j.0022-3646.1980.00028.x
p238
sg46
VJ PHYCOL
p239
sg48
V16
p240
sg77
(lp241
(VHARRISON
VP J
tp242
asg56
I1980
sg44
V28
p243
sbag1
(g2
g3
NtRp244
(dp245
g50
V10.1080/09670269600651491
p246
sg46
VEUR J PHYCOL
p247
sg48
V31
p248
sg77
(lp249
(VJOHNSTON
VA M
tp250
asg56
I1996
sg44
V285
p251
sbag1
(g2
g3
NtRp252
(dp253
g50
V10.1093/emboj/17.5.1208
p254
sg46
VEMBO J
p255
sg48
V17
p256
sg77
(lp257
(VKARLSSON
VJ
tp258
asg56
I1998
sg44
V1208
p259
sbag1
(g2
g3
NtRp260
(dp261
g50
V10.1104/pp.121.4.1329
p262
sg46
VPLANT PHYSIOL
p263
sg48
V121
p264
sg77
(lp265
(VKUCHO
VK
tp266
asg56
I1999
sg44
VLANT
p267
sbag1
(g2
g3
NtRp268
(dp269
g50
V10.1104/pp.103.026492
p270
sg46
VPLANT PHYSIOL
p271
sg48
V133
p272
sg77
(lp273
(VKUCHO
VK
tp274
asg56
I2003
sg44
VLANT
p275
sbag1
(g2
g3
NtRp276
(dp277
g50
V10.1038/370223a0
p278
sg46
VNATURE
p279
sg48
V370
p280
sg77
(lp281
(VKWOK
VR P S
tp282
asg56
I1994
sg44
V223
p283
sbag1
(g2
g3
NtRp284
(dp285
g50
V10.1038/227680a0
p286
sg46
VNATURE
p287
sg48
V227
p288
sg77
(lp289
(VLAEMMLI
VU K
tp290
asg56
I1970
sg44
V680
p291
sbag1
(g2
g3
NtRp292
(dp293
g50
Nsg46
VPLANT PHYSIOL
p294
sg48
V108
p295
sg77
(lp296
(VMATSUDA
VY
tp297
asg56
I1995
sg44
VLANT
p298
sbag1
(g2
g3
NtRp299
(dp300
g50
V10.1071/PP01186
p301
sg46
VFUNCT PLANT BIOL
p302
sg48
V29
p303
sg77
(lp304
(VMATSUDA
VY
tp305
asg56
I2002
sg44
V279
p306
sbag1
(g2
g3
NtRp307
(dp308
g50
V10.1046/j.1365-3040.2001.00702.x
p309
sg46
VPLANT CELL ENVIRON
p310
sg48
V24
p311
sg77
(lp312
(VMATSUDA
VY
tp313
asg56
I2001
sg44
VLANT
p314
sbag1
(g2
g3
NtRp315
(dp316
g50
Nsg46
VPLANT PHYSIOL
p317
sg48
V108
p318
sg77
(lp319
(VMATSUDA
VY
tp320
asg56
I1995
sg44
VLANT
p321
sbag1
(g2
g3
NtRp322
(dp323
g50
Nsg46
VCAN J BOT
p324
sg48
V68
p325
sg77
(lp326
(VMILLER
VA G
tp327
asg56
I1990
sg44
V1291
p328
sbag1
(g2
g3
NtRp329
(dp330
g50
V10.1104/pp.104.041400
p331
sg46
VPLANT PHYSIOL
p332
sg48
V135
p333
sg77
(lp334
(VMIURA
VK
tp335
asg56
I2004
sg44
VLANT
p336
sbag1
(g2
g3
NtRp337
(dp338
g50
V10.1104/pp.119.1.9
p339
sg46
VPLANT PHYSIOL
p340
sg48
V119
p341
sg77
(lp342
(VMORONEY
VJ V
tp343
asg56
I1999
sg44
VLANT
p344
sbag1
(g2
g3
NtRp345
(dp346
g50
Nsg46
VBLOOD
p347
sg48
V93
p348
sg77
(lp349
(VOIKE
VY
tp350
asg56
I1999
sg44
V2771
p351
sbag1
(g2
g3
NtRp352
(dp353
g50
V10.1074/jbc.M309543200
p354
sg46
VJ BIOL CHEM
p355
sg48
V278
p356
sg77
(lp357
(VPASTOR-SOLER
VN
tp358
asg56
I2003
sg44
V49523
p359
sbag1
(g2
g3
NtRp360
(dp361
g50
V10.1046/j.1365-3040.1997.d01-67.x
p362
sg46
VPLANT CELL ENVIRON
p363
sg48
V20
p364
sg77
(lp365
(VRAVEN
VJ A
tp366
asg56
I1997
sg44
VLANT
p367
sbag1
(g2
g3
NtRp368
(dp369
g50
Nsg46
VPLANT PHYSIOL
p370
sg48
V109
p371
sg77
(lp372
(VRAWAT
VM
tp373
asg56
I1995
sg44
VLANT
p374
sbag1
(g2
g3
NtRp375
(dp376
g50
Nsg46
VMOL CELL BIOL
p377
sg48
V12
p378
sg77
(lp379
(VRIKITAKE
VY
tp380
asg56
I1992
sg44
V2826
p381
sbag1
(g2
g3
NtRp382
(dp383
g50
V10.1111/j.0022-3646.1997.00845.x
p384
sg46
VJ PHYCOL
p385
sg48
V33
p386
sg77
(lp387
(VROBERTS
VS B
tp388
asg56
I1997
sg44
V845
p389
sbag1
(g2
g3
NtRp390
(dp391
g50
Nsg46
VMOL CLONING LAB MANU
p392
sg48
Nsg77
(lp393
(VSAMBROOK
VJ
tp394
asg56
I2001
sg44
V64
p395
sbag1
(g2
g3
NtRp396
(dp397
g50
V10.1104/pp.126.4.1459
p398
sg46
VPLANT PHYSIOL
p399
sg48
V126
p400
sg77
(lp401
(VSATOH
VD
tp402
asg56
I2001
sg44
VLANT
p403
sbag1
(g2
g3
NtRp404
(dp405
g50
V10.1016/0014-5793(82)81202-7
p406
sg46
VFEBS LETT
p407
sg48
V145
p408
sg77
(lp409
(VSPALDING
VM H
tp410
asg56
I1982
sg44
V41
p411
sbag1
(g2
g3
NtRp412
(dp413
g50
Nsg46
VCAN J BOT
p414
sg48
V69
p415
sg77
(lp416
(VSULTEMEYER
VD F
tp417
asg56
I1991
sg44
V995
p418
sbag1
(g2
g3
NtRp419
(dp420
g50
V10.1073/pnas.94.19.10215
p421
sg46
VP NATL ACAD SCI USA
p422
sg48
V94
p423
sg77
(lp424
(VTANAKA
VY
tp425
asg56
I1997
sg44
V10215
p426
sbag1
(g2
g3
NtRp427
(dp428
g50
V10.1104/pp.104.058982
p429
sg46
VPLANT PHYSIOL
p430
sg48
V138
p431
sg77
(lp432
(VTANAKA
VY
tp433
asg56
I2005
sg44
VLANT
p434
sbag1
(g2
g3
NtRp435
(dp436
g50
V10.1038/36765
p437
sg46
VNATURE
p438
sg48
V390
p439
sg77
(lp440
(VTORTELL
VP D
tp441
asg56
I1997
sg44
V243
p442
sbag1
(g2
g3
NtRp443
(dp444
g50
V10.1126/science.268.5209.375
p445
sg46
VSCIENCE
p446
sg48
V268
p447
sg77
(lp448
(VTREGUER
VP
tp449
asg56
I1995
sg44
V375
p450
sbag1
(g2
g3
NtRp451
(dp452
g50
Nsg46
VBIOCHEM J
p453
sg48
V327
p454
sg77
(lp455
(VVILLAND
VP
tp456
asg56
I1997
sg44
V51
p457
sbag1
(g2
g3
NtRp458
(dp459
g50
Nsg46
VDIATOMS
p460
sg48
Nsg77
(lp461
(VWERNER
VD
tp462
asg56
I1977
sg44
V1
sbag1
(g2
g3
NtRp463
(dp464
g50
V10.1046/j.1529-8817.2000.99164.x
p465
sg46
VJ PHYCOL
p466
sg48
V36
p467
sg77
(lp468
(VZASLAVSKAIA
VL A
tp469
asg56
I2000
sg44
V379
p470
sbasb.