ccopy_reg
_reconstructor
p1
(ctethne.classes.paper
Paper
p2
c__builtin__
object
p3
NtRp4
(dp5
S'publisherCity'
p6
VROCKVILLE
p7
sS'reprintAddress'
p8
VStushnoff, C (reprint author), Colorado State Univ, Dept Hort & Landscape Architecture, Ft Collins, CO 80523 USA.
p9
sS'WC'
p10
VPlant Sciences
p11
sS'GA'
p12
V732ZE
p13
sS'abstract'
p14
Valpha-Galactosidase (alpha-Gal; EC 3.2.1.22) is involved in many aspects of plant metabolism, including hydrolysis of the alpha-1,6 linkage of raffinose oligosaccharides during deacclimation. To examine the relationship between endogenous sugars and freezing stress, the expression of alpha-Gal was modified in transgenic petunia (Petunia X hybrida cv Mitchell). The tomato (Lycopersicon esculentum) Lea-Gal gene under the control of the Figwort Mosaic Virus promoter was introduced into petunia in the sense and antisense orientations using Agrobacterium tumefaciens-mediated transformation. RNA gel blots confirmed that a-Gal transcripts were reduced in antisense lines compared with wild type, whereas sense plants had increased accumulation of alpha-Gal mRNAs. alpha-Gal activity followed a similar trend, with reduced activity in antisense lines and increased activity in all sense lines evaluated. Raffinose content of nonacclimated antisense plants increased 12- to 22-fold compared with wild type, and 22- to 53-fold after cold acclimation. Based upon electrolyte leakage tests, freezing tolerance of the antisense lines increased from -4degreesC for cold-acclimated wild-type plants to -8degreesC for the most tolerant antisense line. Down-regulating alpha-Gal in petunia results in an increase in freezing tolerance at the whole-plant level in nonacclimated and cold-acclimated plants, whereas overexpression of the alpha-Gal gene caused a decrease in endogenous raffinose and impaired freezing tolerance. These results suggest that engineering raffinose metabolism by transformation with alpha-Gal provides an additional method for improving the freezing tolerance of plants.
p15
sS'pageEnd'
p16
I909
sS'publisherAddress'
p17
V15501 MONONA DRIVE, ROCKVILLE, MD 20855 USA
p18
sS'documentType'
p19
VArticle
p20
sS'subject'
p21
VPlant Sciences
p22
sS'isoSource'
p23
VPlant Physiol.
p24
sS'timesCited'
p25
(lp26
I62
aVZ9 69
p27
asS'PT'
p28
VJ
sS'title'
p29
VDown-Regulating Alpha-Galactosidase Enhances Freezing Tolerance In Transgenic Petunia
p30
sS'ISSN'
p31
(lp32
V0032-0889
p33
aVJ9 PLANT PHYSIOL
p34
asS'authors_full'
p35
(lp36
(VPENNYCOOKE
VJC
tp37
a(VJONES
VML
tp38
a(VSTUSHNOFF
VC
tp39
asS'PG'
p40
I9
sS'PD'
p41
VOCT
p42
sS'pageStart'
p43
I901
sS'issue'
p44
I2
sS'journal'
p45
VPLANT PHYSIOLOGY
p46
sS'volume'
p47
V133
p48
sS'doi'
p49
V10.1104/pp.103..024554
p50
sS'authorAddress'
p51
(lp52
VColorado State Univ, Dept Hort & Landscape Architecture, Ft Collins, CO 80523 USA.
p53
aVOhio State Univ, Ohio Agr Res & Dev Ctr, Dept Hort & Crop Sci, Wooster, OH 44691 USA.
p54
asS'date'
p55
I2003
sS'ER'
p56
V
sS'publisher'
p57
VAMER SOC PLANT BIOLOGISTS
p58
sS'authorKeywords'
p59
(lp60
VBATATAS L. LAM.
p61
aVCOLD-ACCLIMATION
p62
aVARABIDOPSIS-THALIANA
p63
aVSTRESS TOLERANCE
p64
aVSHOOT TIPS
p65
aVEXPRESSION
p66
aVINJURY
p67
aVGENES
p68
aVVITRIFICATION
p69
aVTEMPERATURES
p70
asS'language'
p71
VEnglish
p72
sS'wosid'
p73
VWOS:000185974800049
p74
sS'citationCount'
p75
I37
sS'authors_init'
p76
(lp77
(VPENNYCOOKE
VJ C
tp78
a(VJONES
VM L
tp79
a(VSTUSHNOFF
VC
tp80
asS'citedReferences'
p81
(lp82
g1
(g2
g3
NtRp83
(dp84
g49
Nsg45
VPLANT PHYSIOL
p85
sg47
V105
p86
sg76
(lp87
(VBACHMANN
VM
tp88
asg55
I1994
sg43
VLANT
p89
sbag1
(g2
g3
NtRp90
(dp91
g49
V10.1016/0011-2240(88)90032-6
p92
sg45
VCRYOBIOLOGY
p93
sg47
V25
p94
sg76
(lp95
(VCARPENTER
VJ F
tp96
asg55
I1988
sg43
V244
p97
sbag1
(g2
g3
NtRp98
(dp99
g49
Nsg45
VCROP SCI
p100
sg47
V38
p101
sg76
(lp102
(VCASTONGUAY
VY
tp103
asg55
I1998
sg43
V1183
p104
sbag1
(g2
g3
NtRp105
(dp106
g49
V10.1104/pp.73.3.773
p107
sg45
VPLANT PHYSIOL
p108
sg47
V73
p109
sg76
(lp110
(VCHEN
VT H H
tp111
asg55
I1983
sg43
VLANT
p112
sbag1
(g2
g3
NtRp113
(dp114
g49
V10.1093/jexbot/52.359.1239
p115
sg45
VJ EXP BOT
p116
sg47
V52
p117
sg76
(lp118
(VFEURTADO
VJ A
tp119
asg55
I2001
sg43
V1239
p120
sbag1
(g2
g3
NtRp121
(dp122
g49
V10.1105/tpc.003483
p123
sg45
VPLANT CELL
p124
sg47
V14
p125
sg76
(lp126
(VFOWLER
VS
tp127
asg55
I2002
sg43
VLANT
p128
sbag1
(g2
g3
NtRp129
(dp130
g49
V10.1104/pp.87.3.745
p131
sg45
VPLANT PHYSIOL
p132
sg47
V87
p133
sg76
(lp134
(VGILMOUR
VS J
tp135
asg55
I1988
sg43
VLANT
p136
sbag1
(g2
g3
NtRp137
(dp138
g49
V10.1146/annurev.pp.41.060190.001155
p139
sg45
VANNU REV PLANT PHYS
p140
sg47
V41
p141
sg76
(lp142
(VGUY
VC L
tp143
asg55
I1990
sg43
V187
p144
sbag1
(g2
g3
NtRp145
(dp146
g49
Nsg45
VP NATL ACAD SCI USA
p147
sg47
V81
p148
sg76
(lp149
(VGUY
VC L
tp150
asg55
I1985
sg43
V3973
p151
sbag1
(g2
g3
NtRp152
(dp153
g49
V10.1111/j.1399-3054.1979.tb03207.x
p154
sg45
VPHYSIOL PLANTARUM
p155
sg47
V47
p156
sg76
(lp157
(VHAISSIG
VB E
tp158
asg55
I1979
sg43
VHYSIOL
p159
sbag1
(g2
g3
NtRp160
(dp161
g49
V10.1104/pp.93.3.1246
p162
sg45
VPLANT PHYSIOL
p163
sg47
V93
p164
sg76
(lp165
(VHAJELA
VR K
tp166
asg55
I1990
sg43
VLANT
p167
sbag1
(g2
g3
NtRp168
(dp169
g49
V10.1007/BF00020397
p170
sg45
VPLANT MOL BIOL
p171
sg47
V28
p172
sg76
(lp173
(VJONES
VM L
tp174
asg55
I1995
sg43
VLANT
p175
sbag1
(g2
g3
NtRp176
(dp177
g49
V10.1007/BF00040715
p178
sg45
VPLANT MOL BIOL
p179
sg47
V31
p180
sg76
(lp181
(VJORGENSEN
VR A
tp182
asg55
I1996
sg43
VLANT
p183
sbag1
(g2
g3
NtRp184
(dp185
g49
Nsg45
VRESPONSES PLANTS ENV
p186
sg47
V1
sg76
(lp187
(VLEVITT
VJ
tp188
asg55
I1980
sg43
Nsbag1
(g2
g3
NtRp189
(dp190
g49
Nsg45
VJ BIOL CHEM
p191
sg47
V193
p192
sg76
(lp193
(VLOWRY
VO H
tp194
asg55
I1951
sg43
V265
p195
sbag1
(g2
g3
NtRp196
(dp197
g49
Nsg45
VJ BIOL CHEM
p198
sg47
V49
p199
sg76
(lp200
(VMCIIVAINE
VT C
tp201
asg55
I1921
sg43
V183
p202
sbag1
(g2
g3
NtRp203
(dp204
g49
Nsg45
VAGRON J
p205
sg47
V85
p206
sg76
(lp207
(VOLIEN
VC R
tp208
asg55
I1993
sg43
V21
p209
sbag1
(g2
g3
NtRp210
(dp211
g49
Nsg45
VACTIVE OXYGEN OXIDAT
p212
sg47
Nsg76
(lp213
(VPELL
VE J
tp214
asg55
I1991
sg43
V107
p215
sbag1
(g2
g3
NtRp216
(dp217
g49
Nsg45
VCRYOLETTERS
p218
sg47
V22
p219
sg76
(lp220
(VPENNYCOOKE
VJ C
tp221
asg55
I2001
sg43
V381
p222
sbag1
(g2
g3
NtRp223
(dp224
g49
V10.1007/s002999900171
p225
sg45
VPLANT CELL REP
p226
sg47
V19
p227
sg76
(lp228
(VPENNYCOOKE
VJ C
tp229
asg55
I2000
sg43
VLANT
p230
sbag1
(g2
g3
NtRp231
(dp232
g49
Nsg45
VIN PRESS ACTA HORTIC
p233
sg47
Nsg76
(lp234
(VPENNYCOOKE
VJ C
tp235
asg55
I2003
sg43
Nsbag1
(g2
g3
NtRp236
(dp237
g49
V10.1111/j.1399-3054.1983.tb00768.x
p238
sg45
VPHYSIOL PLANTARUM
p239
sg47
V59
p240
sg76
(lp241
(VPOLLOCK
VC J
tp242
asg55
I1983
sg43
VHYSIOL
p243
sbag1
(g2
g3
NtRp244
(dp245
g49
V10.1016/0168-1923(85)90060-7
p246
sg45
VAGR FOREST METEOROL
p247
sg47
V36
p248
sg76
(lp249
(VRENQUIST
VA R
tp250
asg55
I1985
sg43
V1
sbag1
(g2
g3
NtRp251
(dp252
g49
Nsg45
VPLANTA
p253
sg47
V136
p254
sg76
(lp255
(VSANITARIUS
VK A
tp256
asg55
I1977
sg43
VLANTA
p257
sbag1
(g2
g3
NtRp258
(dp259
g49
Nsg45
VPLANTA
p260
sg47
V113
p261
sg76
(lp262
(VSANITARIUS
VK A
tp263
asg55
I1973
sg43
VLANTA
p264
sbag1
(g2
g3
NtRp265
(dp266
g49
V10.1046/j.1365-313X.2002.01359.x
p267
sg45
VPLANT J
p268
sg47
V31
p269
sg76
(lp270
(VSEKI
VM
tp271
asg55
I2002
sg43
VLANT
p272
sbag1
(g2
g3
NtRp273
(dp274
g49
V10.1104/pp.66.4.731
p275
sg45
VPLANT PHYSIOL
p276
sg47
V66
p277
sg76
(lp278
(VSMART
VE L
tp279
asg55
I1980
sg43
VLANT
p280
sbag1
(g2
g3
NtRp281
(dp282
g49
V10.1146/annurev.pp.35.060184.002551
p283
sg45
VANNU REV PLANT PHYS
p284
sg47
V35
p285
sg76
(lp286
(VSTEPONKUS
VP L
tp287
asg55
I1984
sg43
V543
p288
sbag1
(g2
g3
NtRp289
(dp290
g49
V10.1046/j.1365-3040.2003.00983.x
p291
sg45
VPLANT CELL ENVIRON
p292
sg47
V26
p293
sg76
(lp294
(VSTRAND
VA
tp295
asg55
I2003
sg43
VLANT
p296
sbag1
(g2
g3
NtRp297
(dp298
g49
Nsg45
VMOL BIOL BIOCHEMSIST
p299
sg47
Nsg76
(lp300
(VSTUSHNOFF
VC
tp301
asg55
I1998
sg43
V301
p302
sbag1
(g2
g3
NtRp303
(dp304
g49
Nsg45
VNATO ASI SERIES 1
p305
sg47
V16
p306
sg76
(lp307
(VSTUSHNOFF
VC
tp308
asg55
I1993
sg43
V647
p309
sbag1
(g2
g3
NtRp310
(dp311
g49
Nsg45
VPLANT PHYSIOL
p312
sg47
Nsg76
(lp313
(VTAIZ
VL
tp314
asg55
I2002
sg43
VLANT
p315
sbag1
(g2
g3
NtRp316
(dp317
g49
V10.1046/j.0960-7412.2001.01227.x
p318
sg45
VPLANT J
p319
sg47
V29
p320
sg76
(lp321
(VTAJI
VT
tp322
asg55
I2002
sg43
VLANT
p323
sbag1
(g2
g3
NtRp324
(dp325
g49
V10.1104/pp.125.1.89
p326
sg45
VPLANT PHYSIOL
p327
sg47
V125
p328
sg76
(lp329
(VTHOMASHOW
VM F
tp330
asg55
I2001
sg43
VLANT
p331
sbag1
(g2
g3
NtRp332
(dp333
g49
V10.1104/pp.102.013227
p334
sg45
VPLANT PHYSIOL
p335
sg47
V131
p336
sg76
(lp337
(VUEMURA
VM
tp338
asg55
I2003
sg43
VLANT
p339
sbag1
(g2
g3
NtRp340
(dp341
g49
Nsg45
VPLANT PHYSIOL
p342
sg47
V104
p343
sg76
(lp344
(VWEBB
VM S
tp345
asg55
I1994
sg43
VLANT
p346
sbag1
(g2
g3
NtRp347
(dp348
g49
V10.1104/pp.89.2.444
p349
sg45
VPLANT PHYSIOL
p350
sg47
V89
p351
sg76
(lp352
(VYELENOSKY
VG
tp353
asg55
I1989
sg43
VLANT
p354
sbasb.