ccopy_reg
_reconstructor
p1
(ctethne.classes.paper
Paper
p2
c__builtin__
object
p3
NtRp4
(dp5
S'publisherCity'
p6
VROCKVILLE
p7
sS'reprintAddress'
p8
VWischmann, B (reprint author), Royal Vet & Agr Univ, Dept Plant Biol, Plant Biochem Lab, 40 Thorvaldsensvej, DK-1871 Frederiksberg C, Denmark.
p9
sS'WC'
p10
VPlant Sciences
p11
sS'GA'
p12
V166PP
p13
sS'abstract'
p14
VIntact amyloplasts from potato (Solanum tuberosum L.) were used to study starch biosynthesis and phosphorylation. Assessed by the degree of intactness and by the level of cytosolic and vacuolar contamination, the best preparations were selected by searching for amyloplasts containing small starch grains. The isolated, small amyloplasts were 80% intact and were free from cytosolic and vacuolar contamination. Biosynthetic studies of the amyloplasts showed that [1-C-14]glucose-6-phosphate (Glc-6-P) was an efficient precursor for starch synthesis in a manner highly dependent on amyloplast integrity. Starch biosynthesis from [1-C-14]Glc-1-P in small, intact amyloplasts was 5-fold lower and largely independent of amyloplast intactness. When [P-33]Glc-6-P was administered to the amyloplasts, radiophosphorylated starch was produced. isoamylase treatment of the starch followed by high-performance anion-exchange chromatography with pulsed amperometric detection revealed the separated phosphorylated alpha-glucans. Acid hydrolysis of the phosphorylated alpha-glucans and high-performance anion-exchange chromatography analyses showed that the incorporated phosphate was preferentially positioned at C-6 of the Glc moiety. The incorporation of radiolabel from Glc-1-P into starch in preparations of amyloplasts containing large grains was independent of intactness and most likely catalyzed by starch phosphorylase bound to naked starch grains.
p15
sS'pageEnd'
p16
I462
sS'publisherAddress'
p17
V15501 MONONA DRIVE, ROCKVILLE, MD 20855 USA
p18
sS'documentType'
p19
VArticle
p20
sS'subject'
p21
VPlant Sciences
p22
sS'isoSource'
p23
VPlant Physiol.
p24
sS'timesCited'
p25
(lp26
I26
aVZ9 28
p27
asS'PT'
p28
VJ
sS'title'
p29
VIn Vitro Biosynthesis Of Phosphorylated Starch In Intact Potato Amyloplasts
p30
sS'ISSN'
p31
(lp32
V0032-0889
p33
aVJ9 PLANT PHYSIOL
p34
asS'authors_full'
p35
(lp36
(VWISCHMANN
VB
tp37
a(VNIELSEN
VTH
tp38
a(VMOLLER
VBL
tp39
asS'PG'
p40
I8
sS'PD'
p41
VFEB
p42
sS'pageStart'
p43
I455
sS'issue'
p44
I2
sS'journal'
p45
VPLANT PHYSIOLOGY
p46
sS'volume'
p47
V119
p48
sS'doi'
p49
V10.1104/pp.119.2.455
p50
sS'emailAddress'
p51
Vbw@kvl.dk
p52
sS'authorAddress'
p53
VRoyal Vet & Agr Univ, Dept Plant Biol, Plant Biochem Lab, DK-1871 Frederiksberg C, Denmark.
p54
sS'date'
p55
I1999
sS'ER'
p56
V
sS'publisher'
p57
VAMER SOC PLANT PHYSIOLOGISTS
p58
sS'authorKeywords'
p59
(lp60
VDEVELOPING PEA EMBRYOS
p61
aVSOLANUM-TUBEROSUM L
p62
aVWHEAT ENDOSPERM
p63
aVTRIOSE PHOSPHATES
p64
aVMAIZE ENDOSPERM
p65
aVADP-GLUCOSE
p66
aVPLASTIDS
p67
aVCELLS
p68
aVFRUCTOSE-1,6-BISPHOSPHATASE
p69
aVTRANSPORT
p70
asS'language'
p71
VEnglish
p72
sS'wosid'
p73
VWOS:000078586300011
p74
sS'citationCount'
p75
I34
sS'authors_init'
p76
(lp77
(VWISCHMANN
VB
tp78
a(VNIELSEN
VT H
tp79
a(VMOLLER
VB L
tp80
asS'citedReferences'
p81
(lp82
g1
(g2
g3
NtRp83
(dp84
g49
V10.1046/j.1365-313X.1996.10060981.x
p85
sg45
VPLANT J
p86
sg47
V10
p87
sg76
(lp88
(VABEL
VG J W
tp89
asg55
I1996
sg43
VLANT
p90
sbag1
(g2
g3
NtRp91
(dp92
g49
Nsg45
VSTARCH
p93
sg47
V46
p94
sg76
(lp95
(VBAYSMIDT
VA M
tp96
asg55
I1994
sg43
V167
p97
sbag1
(g2
g3
NtRp98
(dp99
g49
V10.1016/S0008-6215(98)00015-9
p100
sg45
VCARBOHYD RES
p101
sg47
V307
p102
sg76
(lp103
(VBLENNOW
VA
tp104
asg55
I1998
sg43
V45
p105
sbag1
(g2
g3
NtRp106
(dp107
g49
V10.1104/pp.86.3.786
p108
sg45
VPLANT PHYSIOL
p109
sg47
V86
p110
sg76
(lp111
(VECHEVERRIA
VE
tp112
asg55
I1988
sg43
VLANT
p113
sbag1
(g2
g3
NtRp114
(dp115
g49
Nsg45
VPHYTOCHEMISTRY
p116
sg47
V27
p117
sg76
(lp118
(VENTWISTLE
VG
tp119
asg55
I1988
sg43
VHYTOCHEMISTRY
p120
sbag1
(g2
g3
NtRp121
(dp122
g49
Nsg45
VBIOCHEM J
p123
sg47
V271
p124
sg76
(lp125
(VENTWISTLE
VG
tp126
asg55
I1990
sg43
V467
p127
sbag1
(g2
g3
NtRp128
(dp129
g49
V10.1007/BF00446381
p130
sg45
VPLANTA
p131
sg47
V167
p132
sg76
(lp133
(VGROSS
VP
tp134
asg55
I1986
sg43
VLANTA
p135
sbag1
(g2
g3
NtRp136
(dp137
g49
Nsg45
VPLANTA
p138
sg47
V180
p139
sg76
(lp140
(VHATZFELD
VW D
tp141
asg55
I1990
sg43
VLANTA
p142
sbag1
(g2
g3
NtRp143
(dp144
g49
Nsg45
VPLANTA
p145
sg47
V185
p146
sg76
(lp147
(VHILL
VL M
tp148
asg55
I1991
sg43
VLANTA
p149
sbag1
(g2
g3
NtRp150
(dp151
g49
Nsg45
VSTARCH
p152
sg47
V22
p153
sg76
(lp154
(VHIZUKURI
VS
tp155
asg55
I1970
sg43
V330
p156
sbag1
(g2
g3
NtRp157
(dp158
g49
Nsg45
VCEREAL FOOD WORLD
p159
sg47
V41
p160
sg76
(lp161
(VJANE
VJ
tp162
asg55
I1996
sg43
V827
p163
sbag1
(g2
g3
NtRp164
(dp165
g49
V10.1104/pp.87.2.311
p166
sg45
VPLANT PHYSIOL
p167
sg47
V87
p168
sg76
(lp169
(VKEELING
VP L
tp170
asg55
I1988
sg43
VLANT
p171
sbag1
(g2
g3
NtRp172
(dp173
g49
V10.1034/j.1399-3054.1994.910116.x
p174
sg45
VPHYSIOL PLANTARUM
p175
sg47
V91
p176
sg76
(lp177
(VKOSEGARTEN
VH
tp178
asg55
I1994
sg43
VHYSIOL
p179
sbag1
(g2
g3
NtRp180
(dp181
g49
V10.1007/BF01160706
p182
sg45
VPLANTA
p183
sg47
V188
p184
sg76
(lp185
(VKOSSMANN
VJ
tp186
asg55
I1992
sg43
VLANTA
p187
sbag1
(g2
g3
NtRp188
(dp189
g49
Nsg45
VPatent No
p190
sg47
Nsg76
(lp191
(VLORBERT
VR
tp192
asg55
I1997
sg43
Vatent
p193
sbag1
(g2
g3
NtRp194
(dp195
g49
V10.1016/0304-4165(83)90276-3
p196
sg45
VBIOCHIM BIOPHYS ACTA
p197
sg47
V755
p198
sg76
(lp199
(VMACDONALD
VF D
tp200
asg55
I1983
sg43
V81
p201
sbag1
(g2
g3
NtRp202
(dp203
g49
Nsg45
VPLANT CELL
p204
sg47
V7
sg76
(lp205
(VMARTIN
VC
tp206
asg55
I1995
sg43
VLANT
p207
sbag1
(g2
g3
NtRp208
(dp209
g49
Nsg45
VMETHOD ENZYMAT AN
p210
sg47
V6
sg76
(lp211
(VMICHAL
VG
tp212
asg55
I1984
sg43
V191
p213
sbag1
(g2
g3
NtRp214
(dp215
g49
V10.1104/pp.88.4.1222
p216
sg45
VPLANT PHYSIOL
p217
sg47
V88
p218
sg76
(lp219
(VMOHABIR
VG
tp220
asg55
I1988
sg43
VLANT
p221
sbag1
(g2
g3
NtRp222
(dp223
g49
Nsg45
VBIOCHEM J
p224
sg47
V324
p225
sg76
(lp226
(VMOHLMANN
VT
tp227
asg55
I1997
sg43
V503
p228
sbag1
(g2
g3
NtRp229
(dp230
g49
V10.1046/j.1365-313X.1997.11051095.x
p231
sg45
VPLANT J
p232
sg47
V11
p233
sg76
(lp234
(VNAEEM
VM
tp235
asg55
I1997
sg43
VLANT
p236
sbag1
(g2
g3
NtRp237
(dp238
g49
Nsg45
VBIOCHEM J
p239
sg47
V296
p240
sg76
(lp241
(VNEUHAUS
VH E
tp242
asg55
I1993
sg43
V395
p243
sbag1
(g2
g3
NtRp244
(dp245
g49
Nsg45
VPLANT PHYSIOL
p246
sg47
V105
p247
sg76
(lp248
(VNIELSEN
VT H
tp249
asg55
I1994
sg43
VLANT
p250
sbag1
(g2
g3
NtRp251
(dp252
g49
V10.1002/jlcr.2580360710
p253
sg45
VJ LABELLED COMPD RAD
p254
sg47
V36
p255
sg76
(lp256
(VNIELSEN
VT H
tp257
asg55
I1995
sg43
V679
p258
sbag1
(g2
g3
NtRp259
(dp260
g49
V10.1034/j.1399-3054.1991.820227.x
p261
sg45
VPHYSIOL PLANTARUM
p262
sg47
V82
p263
sg76
(lp264
(VNIELSEN
VT H
tp265
asg55
I1991
sg43
VHYSIOL
p266
sbag1
(g2
g3
NtRp267
(dp268
g49
V10.1104/pp.94.3.1012
p269
sg45
VPLANT PHYSIOL
p270
sg47
V94
p271
sg76
(lp272
(VRASMUSSON
VA G
tp273
asg55
I1990
sg43
VLANT
p274
sbag1
(g2
g3
NtRp275
(dp276
g49
V10.1007/BF01106756
p277
sg45
VPLANTA
p278
sg47
V196
p279
sg76
(lp280
(VSCHOTT
VK
tp281
asg55
I1995
sg43
VLANTA
p282
sbag1
(g2
g3
NtRp283
(dp284
g49
V10.1007/BF02411449
p285
sg45
VPLANTA
p286
sg47
V180
p287
sg76
(lp288
(VSMITH
VA M
tp289
asg55
I1990
sg43
VLANTA
p290
sbag1
(g2
g3
NtRp291
(dp292
g49
V10.1104/pp.57.1.63
p293
sg45
VPLANT PHYSIOL
p294
sg47
V57
p295
sg76
(lp296
(VSOWOKINOS
VJ R
tp297
asg55
I1976
sg43
VLANT
p298
sbag1
(g2
g3
NtRp299
(dp300
g49
Nsg45
VMETHOD ENZYMOL
p301
sg47
V174
p302
sg76
(lp303
(VSTITT
VM
tp304
asg55
I1989
sg43
V518
p305
sbag1
(g2
g3
NtRp306
(dp307
g49
V10.1016/S0008-6215(00)85242-8
p308
sg45
VCARBOHYD RES
p309
sg47
V89
p310
sg76
(lp311
(VTAKEDA
VY
tp312
asg55
I1981
sg43
V174
p313
sbag1
(g2
g3
NtRp314
(dp315
g49
Nsg45
VPLANTA
p316
sg47
V189
p317
sg76
(lp318
(VTETLOW
VI J
tp319
asg55
I1993
sg43
VLANTA
p320
sbag1
(g2
g3
NtRp321
(dp322
g49
V10.1007/BF00402879
p323
sg45
VPLANTA
p324
sg47
V175
p325
sg76
(lp326
(VTYSON
VR H
tp327
asg55
I1988
sg43
VLANTA
p328
sbag1
(g2
g3
NtRp329
(dp330
g49
Nsg45
VPLANTA
p331
sg47
V183
p332
sg76
(lp333
(VVIOLA
VR
tp334
asg55
I1991
sg43
VLANTA
p335
sbasb.