ccopy_reg
_reconstructor
p1
(ctethne.classes.paper
Paper
p2
c__builtin__
object
p3
NtRp4
(dp5
S'publisherCity'
p6
VROCKVILLE
p7
sS'reprintAddress'
p8
VViotti, A (reprint author), CNR, Ist Biol & Biotecnol Agr, I-20133 Milan, Italy.
p9
sS'WC'
p10
VPlant Sciences
p11
sS'GA'
p12
V228FK
p13
sS'abstract'
p14
VThe Opaque2 (O2) basic leucine (Leu)-zipper transcriptional activator controls the expression of several genes in maize (Zea mays). We investigated the phosphorylation extent of wild-type O2 and mutant-defective or mutant-truncated o2 polypeptides in endosperm cells, their subcellular localization, participation in complex formation, and involvement in functional activity. Besides wild type, four mutant alleles (o2T, o2-52, o2It, and o2-676) producing o2 polypeptides and a null transcript allele (o2R) were considered. Observing the effects of these mutations, multiphosphorylation events in O2 or o2 proteins were confirmed and further investigated, and the involvement of both the nuclear localization signal (NLS)-B and Leu-zipper domains in proper targeting to the nucleus was ascertained. The absence of these domains in the o2T and o2It-S mutant-truncated forms holds them within the cytoplasm, where they are partially phosphorylated, whereas the presence of NLS-B and a partial Leu-zipper domain in o2-52 distributes this mutant-truncated form in both cytoplasm and nucleus. Although mutated in the NLS-B domain, the o2It-L and o2-676 mutant-defective forms are, respectively, partially or completely distributed into the nucleus. Only wild-type O2 and mutant-defective o2 polypeptides bearing the Leu-zipper are able to form complexes whose components were proven to bind the O2-zein target site by in vitro analyses. The transcription of a subset of H-zein genes as well as H-zein polypeptide accumulation in several o2-mutant-defective genotypes indicate the in vivo involvement of o2-mutant-defective proteins in O2-zein target site recognition. The gathered information broadens our knowledge on O2 functional activity and our view on possible quality protein maize trait manipulation or plant transformation via the utilization of cisgenic elements.
p15
sS'pageEnd'
p16
I945
sS'publisherAddress'
p17
V15501 MONONA DRIVE, ROCKVILLE, MD 20855 USA
p18
sS'documentType'
p19
VArticle
p20
sS'subject'
p21
VPlant Sciences
p22
sS'isoSource'
p23
VPlant Physiol.
p24
sS'timesCited'
p25
(lp26
I4
aVZ9 4
p27
asS'PT'
p28
VJ
sS'title'
p29
VWild-Type Opaque2 And Defective Opaque2 Polypeptides Form Complexes In Maize Endosperm Cells And Bind The Opaque2-Zein Target Site
p30
sS'ISSN'
p31
(lp32
V0032-0889
p33
aVJ9 PLANT PHYSIOL
p34
asS'authors_full'
p35
(lp36
(VGAVAZZI
VFLORIANA
tp37
a(VLAZZARI
VBARBARA
tp38
a(VCICERI
VPIETRO
tp39
a(VGIANAZZA
VELISABETTA
tp40
a(VVIOTTI
VANGELO
tp41
asS'PG'
p42
I13
sS'PD'
p43
VNOV
p44
sS'pageStart'
p45
I933
sS'issue'
p46
I3
sS'journal'
p47
VPLANT PHYSIOLOGY
p48
sS'volume'
p49
V145
p50
sS'doi'
p51
V10.1104/pp.107.103606
p52
sS'emailAddress'
p53
Vviotti@ibba.cnr.it
p54
sS'authorAddress'
p55
(lp56
VCNR, Ist Biol & Biotecnol Agr, I-20133 Milan, Italy.
p57
aVParco Tecnol Padano, I-26900 Lodi, Italy.
p58
aVUniv Milan, Dipartimento Sci Farmacol, Grp Studio Proteom & Struttura Proteine, I-20133 Milan, Italy.
p59
asS'date'
p60
I2007
sS'ER'
p61
V
sS'publisher'
p62
VAMER SOC PLANT BIOLOGISTS
p63
sS'authorKeywords'
p64
(lp65
VTRANSCRIPTIONAL ACTIVATOR OPAQUE-2
p66
aVREGULATORY PROTEIN OPAQUE-2
p67
aVZEIN MULTIGENE FAMILY
p68
aVZEA-MAYS L
p69
aVDNA-BINDING
p70
aVGENE-EXPRESSION
p71
aVIN-VITRO
p72
aVMOLECULAR ANALYSIS
p73
aVSTORAGE PROTEINS
p74
aVMUTANT ALLELES
p75
asS'language'
p76
VEnglish
p77
sS'wosid'
p78
VWOS:000250712800031
p79
sS'citationCount'
p80
I52
sS'authors_init'
p81
(lp82
(VGAVAZZI
VF
tp83
a(VLAZZARI
VB
tp84
a(VCICERI
VP
tp85
a(VGIANAZZA
VE
tp86
a(VVIOTTI
VA
tp87
asS'citedReferences'
p88
(lp89
g1
(g2
g3
NtRp90
(dp91
g51
V10.1101/gad.5.2.310
p92
sg47
VGENE DEV
p93
sg49
V5
sg81
(lp94
(VAUKERMAN
VM J
tp95
asg60
I1991
sg45
V310
p96
sbag1
(g2
g3
NtRp97
(dp98
g51
Nsg47
VNUCLEIC ACIDS RES
p99
sg49
V19
p100
sg81
(lp101
(VBAIROCH
VA
tp102
asg60
I1991
sg45
V2241
p103
sbag1
(g2
g3
NtRp104
(dp105
g51
V10.1007/BF00014448
p106
sg47
VPLANT MOL BIOL
p107
sg49
V24
p108
sg81
(lp109
(VBERNARD
VL
tp110
asg60
I1994
sg45
VLANT
p111
sbag1
(g2
g3
NtRp112
(dp113
g51
V10.1007/s11103-004-0553-z
p114
sg47
VPLANT MOL BIOL
p115
sg49
V55
p116
sg81
(lp117
(VBHAT
VR A
tp118
asg60
I2004
sg45
VLANT
p119
sbag1
(g2
g3
NtRp120
(dp121
g51
V10.1002/elps.11501401163
p122
sg47
VELECTROPHORESIS
p123
sg49
V14
p124
sg81
(lp125
(VBJELLQVIST
VB
tp126
asg60
I1993
sg45
V1023
p127
sbag1
(g2
g3
NtRp128
(dp129
g51
V10.1104/pp.121.4.1321
p130
sg47
VPLANT PHYSIOL
p131
sg49
V121
p132
sg81
(lp133
(VCICERI
VP
tp134
asg60
I1999
sg45
VLANT
p135
sbag1
(g2
g3
NtRp136
(dp137
g51
Nsg47
VPLANT CELL
p138
sg49
V9
sg81
(lp139
(VCICERI
VP
tp140
asg60
I1997
sg45
VLANT
p141
sbag1
(g2
g3
NtRp142
(dp143
g51
V10.1104/pp.124.1.451
p144
sg47
VPLANT PHYSIOL
p145
sg49
V124
p146
sg81
(lp147
(VCICERI
VP
tp148
asg60
I2000
sg45
VLANT
p149
sbag1
(g2
g3
NtRp150
(dp151
g51
V10.1002/dvg.1020130404
p152
sg47
VDEV GENET
p153
sg49
V13
p154
sg81
(lp155
(VDOLFINI
VS F
tp156
asg60
I1992
sg45
V264
p157
sbag1
(g2
g3
NtRp158
(dp159
g51
Nsg47
VMOL GEN GENET
p160
sg49
V244
p161
sg81
(lp162
(VGALLUSCI
VP
tp163
asg60
I1994
sg45
V391
p164
sbag1
(g2
g3
NtRp165
(dp166
g51
V10.1016/j.tig.2005.02.009
p167
sg47
VTRENDS GENET
p168
sg49
V21
p169
sg81
(lp170
(VGIBBON
VB C
tp171
asg60
I2005
sg45
V227
p172
sbag1
(g2
g3
NtRp173
(dp174
g51
V10.1007/BF00027347
p175
sg47
VPLANT MOL BIOL
p176
sg49
V19
p177
sg81
(lp178
(VGIOVINAZZO
VG
tp179
asg60
I1992
sg45
VLANT
p180
sbag1
(g2
g3
NtRp181
(dp182
g51
V10.1016/0006-291X(89)92019-6
p183
sg47
VBIOCHEM BIOPH RES CO
p184
sg49
V162
p185
sg81
(lp186
(VGRASSER
VK D
tp187
asg60
I1989
sg45
V456
p188
sbag1
(g2
g3
NtRp189
(dp190
g51
V10.1007/s00239-005-0003-9
p191
sg47
VJ MOL EVOL
p192
sg49
V61
p193
sg81
(lp194
(VHENRY
VA M
tp195
asg60
I2005
sg45
V551
p196
sbag1
(g2
g3
NtRp197
(dp198
g51
V10.1006/jmbi.1993.1230
p199
sg47
VJ MOL BIOL
p200
sg49
V230
p201
sg81
(lp202
(VIZAWA
VT
tp203
asg60
I1993
sg45
V1131
p204
sbag1
(g2
g3
NtRp205
(dp206
g51
V10.1105/tpc.11.10.1981
p207
sg47
VPLANT CELL
p208
sg49
V11
p209
sg81
(lp210
(VKEMPER
VE L
tp211
asg60
I1999
sg45
VLANT
p212
sbag1
(g2
g3
NtRp213
(dp214
g51
V10.1016/0092-8674(83)90559-7
p215
sg47
VCELL
p216
sg49
V34
p217
sg81
(lp218
(VLANGRIDGE
VP
tp219
asg60
I1983
sg45
V1015
p220
sbag1
(g2
g3
NtRp221
(dp222
g51
Nsg47
VMAYDICA
p223
sg49
V47
p224
sg81
(lp225
(VLAZZARI
VB
tp226
asg60
I2002
sg45
V253
p227
sbag1
(g2
g3
NtRp228
(dp229
g51
V10.1034/j.1399-3054.2001.1120315.x
p230
sg47
VPHYSIOL PLANTARUM
p231
sg49
V112
p232
sg81
(lp233
(VLOCATELLI
VF
tp234
asg60
I2001
sg45
VHYSIOL
p235
sbag1
(g2
g3
NtRp236
(dp237
g51
V10.1074/jbc.M000647200
p238
sg47
VJ BIOL CHEM
p239
sg49
V275
p240
sg81
(lp241
(VLOCATELLI
VF
tp242
asg60
I2000
sg45
V17619
p243
sbag1
(g2
g3
NtRp244
(dp245
g51
Nsg47
VEMBO J
p246
sg49
V10
p247
sg81
(lp248
(VLOHMER
VS
tp249
asg60
I1991
sg45
V617
p250
sbag1
(g2
g3
NtRp251
(dp252
g51
V10.1105/tpc.5.1.65
p253
sg47
VPLANT CELL
p254
sg49
V5
sg81
(lp255
(VLOHMER
VS
tp256
asg60
I1993
sg45
VLANT
p257
sbag1
(g2
g3
NtRp258
(dp259
g51
V10.1046/j.1365-313X.1995.8040571.x
p260
sg47
VPLANT J
p261
sg49
V8
sg81
(lp262
(VLUND
VG
tp263
asg60
I1995
sg45
VLANT
p264
sbag1
(g2
g3
NtRp265
(dp266
g51
V10.1007/s004380050117
p267
sg47
VMOL GEN GENET
p268
sg49
V250
p269
sg81
(lp270
(VMADDALONI
VM
tp271
asg60
I1996
sg45
V647
p272
sbag1
(g2
g3
NtRp273
(dp274
g51
Nsg47
VEMBO J
p275
sg49
V6
sg81
(lp276
(VMAIER
VU G
tp277
asg60
I1987
sg45
V17
p278
sbag1
(g2
g3
NtRp279
(dp280
g51
Nsg47
VMOL GEN GENET
p281
sg49
V241
p282
sg81
(lp283
(VMAURI
VI
tp284
asg60
I1993
sg45
V319
p285
sbag1
(g2
g3
NtRp286
(dp287
g51
V10.1105/tpc.5.2.227
p288
sg47
VPLANT CELL
p289
sg49
V5
sg81
(lp290
(VPYSH
VL D
tp291
asg60
I1993
sg45
VLANT
p292
sbag1
(g2
g3
NtRp293
(dp294
g51
V10.1007/BF00017726
p295
sg47
VPLANT MOL BIOL
p296
sg49
V15
p297
sg81
(lp298
(VQUATTROCCHIO
VF
tp299
asg60
I1990
sg45
VLANT
p300
sbag1
(g2
g3
NtRp301
(dp302
g51
Nsg47
VIMMOBILIZED PH GRADI
p303
sg49
Nsg81
(lp304
(VRIGHETTI
VP G
tp305
asg60
I1990
sg45
Nsbag1
(g2
g3
NtRp306
(dp307
g51
Nsg47
VMAYDICA
p308
sg49
V46
p309
sg81
(lp310
(VROSSI
VV
tp311
asg60
I2001
sg45
V147
p312
sbag1
(g2
g3
NtRp313
(dp314
g51
Nsg47
VAdvances in Cereal Science and Technology
p315
sg49
V8
sg81
(lp316
(VRUBENSTEIN
VI
tp317
asg60
I1986
sg45
V297
p318
sbag1
(g2
g3
NtRp319
(dp320
g51
Nsg47
VCONTROL PLANT GENE E
p321
sg49
Nsg81
(lp322
(VSCHMIDT
VR
tp323
asg60
I1993
sg45
Nsbag1
(g2
g3
NtRp324
(dp325
g51
V10.1073/pnas.87.1.46
p326
sg47
VP NATL ACAD SCI USA
p327
sg49
V87
p328
sg81
(lp329
(VSCHMIDT
VR J
tp330
asg60
I1990
sg45
V46
p331
sbag1
(g2
g3
NtRp332
(dp333
g51
Nsg47
VPLANT CELL
p334
sg49
V4
sg81
(lp335
(VSCHMIDT
VR J
tp336
asg60
I1992
sg45
VLANT
p337
sbag1
(g2
g3
NtRp338
(dp339
g51
V10.1126/science.2823388
p340
sg47
VSCIENCE
p341
sg49
V238
p342
sg81
(lp343
(VSCHMIDT
VR J
tp344
asg60
I1987
sg45
V960
p345
sbag1
(g2
g3
NtRp346
(dp347
g51
V10.1105/tpc.7.7.945
p348
sg47
VPLANT CELL
p349
sg49
V7
sg81
(lp350
(VSHEWRY
VP R
tp351
asg60
I1995
sg45
VLANT
p352
sbag1
(g2
g3
NtRp353
(dp354
g51
Nsg47
VBIOCHEM J
p355
sg49
V267
p356
sg81
(lp357
(VSHEWRY
VP R
tp358
asg60
I1990
sg45
V1
sbag1
(g2
g3
NtRp359
(dp360
g51
V10.1098/rstb.1984.0029
p361
sg47
VPHILOS T ROY SOC B
p362
sg49
V304
p363
sg81
(lp364
(VSOAVE
VC
tp365
asg60
I1984
sg45
VHILOS
p366
sbag1
(g2
g3
NtRp367
(dp368
g51
V10.1073/pnas.1032999100
p369
sg47
VP NATL ACAD SCI USA
p370
sg49
V100
p371
sg81
(lp372
(VSONG
VR T
tp373
asg60
I2003
sg45
V9055
p374
sbag1
(g2
g3
NtRp375
(dp376
g51
V10.1023/A:1010686721797
p377
sg47
VPLANT MOL BIOL
p378
sg49
V46
p379
sg81
(lp380
(VSTURARO
VM
tp381
asg60
I2001
sg45
VLANT
p382
sbag1
(g2
g3
NtRp383
(dp384
g51
V10.1105/tpc.5.8.831
p385
sg47
VPLANT CELL
p386
sg49
V5
sg81
(lp387
(VUNGER
VE
tp388
asg60
I1993
sg45
VLANT
p389
sbag1
(g2
g3
NtRp390
(dp391
g51
V10.1105/tpc.3.2.105
p392
sg47
VPLANT CELL
p393
sg49
V3
sg81
(lp394
(VVARAGONA
VM J
tp395
asg60
I1991
sg45
VLANT
p396
sbag1
(g2
g3
NtRp397
(dp398
g51
Nsg47
VPLANT J
p399
sg49
V2
sg81
(lp400
(VVARAGONA
VM J
tp401
asg60
I1994
sg45
VLANT
p402
sbag1
(g2
g3
NtRp403
(dp404
g51
V10.1105/tpc.4.10.1213
p405
sg47
VPLANT CELL
p406
sg49
V4
sg81
(lp407
(VVARAGONA
VM J
tp408
asg60
I1992
sg45
VLANT
p409
sbag1
(g2
g3
NtRp410
(dp411
g51
V10.1073/pnas.94.14.7685
p412
sg47
VP NATL ACAD SCI USA
p413
sg49
V94
p414
sg81
(lp415
(VVICENTECARBAJOSA
VJ
tp416
asg60
I1997
sg45
V7685
p417
sbag1
(g2
g3
NtRp418
(dp419
g51
Nsg47
VEMBO J
p420
sg49
V4
sg81
(lp421
(VVIOTTI
VA
tp422
asg60
I1985
sg45
V1103
p423
sbag1
(g2
g3
NtRp424
(dp425
g51
Nsg47
VEMBO J
p426
sg49
V1
sg81
(lp427
(VVIOTTI
VA
tp428
asg60
I1982
sg45
V53
p429
sbag1
(g2
g3
NtRp430
(dp431
g51
V10.1016/S0378-1119(98)00245-5
p432
sg47
VGENE
p433
sg49
V223
p434
sg81
(lp435
(VWANG
VZ
tp436
asg60
I1998
sg45
V333
p437
sbag1
(g2
g3
NtRp438
(dp439
g51
V10.1016/S0378-1119(98)00244-3
p440
sg47
VGENE
p441
sg49
V223
p442
sg81
(lp443
(VWANG
VZ D
tp444
asg60
I1998
sg45
V321
p445
sbag1
(g2
g3
NtRp446
(dp447
g51
Nsg47
VPLANT CELL
p448
sg49
V10
p449
sg81
(lp450
(VYUNES
VJ A
tp451
asg60
I1998
sg45
VLANT
p452
sbag1
(g2
g3
NtRp453
(dp454
g51
V10.1105/tpc.6.2.237
p455
sg47
VPLANT CELL
p456
sg49
V6
sg81
(lp457
(VYUNES
VJ A
tp458
asg60
I1994
sg45
VLANT
p459
sbag1
(g2
g3
NtRp460
(dp461
g51
Nsg47
VPLANT PHYSIOL
p462
sg49
V103
p463
sg81
(lp464
(VZHANG
VS Q
tp465
asg60
I1993
sg45
VLANT
p466
sbasb.