ccopy_reg
_reconstructor
p1
(ctethne.classes.paper
Paper
p2
c__builtin__
object
p3
NtRp4
(dp5
S'publisherCity'
p6
VROCKVILLE
p7
sS'reprintAddress'
p8
VLassalles, JP (reprint author), Univ Rouen, Fac Sci, UMR CNRS 6037, F-76821 Mont St Aignan, France.
p9
sS'WC'
p10
VPlant Sciences
p11
sS'GA'
p12
V493YN
p13
sS'abstract'
p14
VPlant organs such as leaves or petals move as a result of changes in the shape and/or the volume of motor cells. In a similar manner, stomates open and close when the turgor in the guard cells changes. The time scale of such movements ran-es from several milliseconds to hours. The most detailed studies of cellular movement have been done with stomata. Stomatal opening requires the uptake of K+ by guard cell, and the presence of K+ channels in their plasma membranes and tonoplasts that mediate this K+ flux (Fischer, 1968). If water follows K+ flux by osmosis, then the rate of flux would determine the rate of volume change (Schroeder et al., 1984). This explanation is frequently used as a paradigm for other nyctinastic and seismonastic movements (Moran et al., 1990; Fleurat-Lessard et al., 1997; Moshelion and Moran, 2000). For example, in Mimosa pudica, the observed potassium exchanges and the nature of the anatomical structures of pulvinule and pulvinus have led to suggestions that movements are the result of modifications in the volume of motor cells at the base of each leaflet and leaf by a "lever" effect. However, none of the movements in plants is really understood at the molecular level. Here, we discuss the constraints brought to the paradigm of movement by considering the values of cell membrane transport parameters and the characteristic time of the movement.
p15
sS'pageEnd'
p16
I723
sS'publisherAddress'
p17
V15501 MONONA DRIVE, ROCKVILLE, MD 20855 USA
p18
sS'documentType'
p19
VArticle
p20
sS'subject'
p21
VPlant Sciences
p22
sS'isoSource'
p23
VPlant Physiol.
p24
sS'timesCited'
p25
(lp26
I28
aVZ9 30
p27
asS'PT'
p28
VJ
sS'title'
p29
VRapid Movements Of Plants Organs Require Solute-Water Cotransporters Or Contractile Proteins
p30
sS'ISSN'
p31
(lp32
V0032-0889
p33
aVJ9 PLANT PHYSIOL
p34
asS'authors_full'
p35
(lp36
(VMORILLON
VR
tp37
a(VLIENARD
VD
tp38
a(VCHRISPEELS
VMJ
tp39
a(VLASSALLES
VJP
tp40
asS'PG'
p41
I4
sS'PD'
p42
VNOV
p43
sS'pageStart'
p44
I720
sS'issue'
p45
I3
sS'journal'
p46
VPLANT PHYSIOLOGY
p47
sS'volume'
p48
V127
p49
sS'doi'
p50
V10.1104/pp.010732
p51
sS'authorAddress'
p52
(lp53
VUniv Rouen, Fac Sci, UMR CNRS 6037, F-76821 Mont St Aignan, France.
p54
aVUniv Calif San Diego, Div Biol, La Jolla, CA 92093 USA.
p55
asS'date'
p56
I2001
sS'ER'
p57
V
sS'publisher'
p58
VAMER SOC PLANT BIOLOGISTS
p59
sS'authorKeywords'
p60
(lp61
VGUARD-CELL PROTOPLASTS
p62
aVMIMOSA-PUDICA L
p63
aVSAMANEA-SAMAN
p64
aVVICIA-FABA
p65
aVCHANNELS
p66
aVTRANSPORT
p67
aVCALCIUM
p68
asS'language'
p69
VEnglish
p70
sS'wosid'
p71
VWOS:000172251200006
p72
sS'citationCount'
p73
I19
sS'authors_init'
p74
(lp75
(VMORILLON
VR
tp76
a(VLIENARD
VD
tp77
a(VCHRISPEELS
VM J
tp78
a(VLASSALLES
VJ P
tp79
asS'citedReferences'
p80
(lp81
g1
(g2
g3
NtRp82
(dp83
g50
V10.1038/318285a0
p84
sg46
VNATURE
p85
sg48
V318
p86
sg74
(lp87
(VASSMANN
VS M
tp88
asg56
I1985
sg44
V285
p89
sbag1
(g2
g3
NtRp90
(dp91
g50
V10.1126/science.160.3829.784
p92
sg46
VSCIENCE
p93
sg48
V160
p94
sg74
(lp95
(VFISCHER
VR A
tp96
asg56
I1968
sg44
V784
p97
sbag1
(g2
g3
NtRp98
(dp99
g50
Nsg46
VPLANT PHYSIOL
p100
sg48
V114
p101
sg74
(lp102
(VFLEURATLESSARD
VP
tp103
asg56
I1997
sg44
VLANT
p104
sbag1
(g2
g3
NtRp105
(dp106
g50
Nsg46
VQ REV BIOPHYS
p107
sg48
V14
p108
sg74
(lp109
(VHILL
VB S
tp110
asg56
I1981
sg44
V173
p111
sbag1
(g2
g3
NtRp112
(dp113
g50
Nsg46
VPHYSL GIANT ALGAL CE
p114
sg48
Nsg74
(lp115
(VHOPE
VA B
tp116
asg56
I1975
sg44
VHYSL
p117
sbag1
(g2
g3
NtRp118
(dp119
g50
V10.1038/35024149
p120
sg46
VNATURE
p121
sg48
V407
p122
sg74
(lp123
(VKAMEYAMA
VK
tp124
asg56
I2000
sg44
V37
p125
sbag1
(g2
g3
NtRp126
(dp127
g50
Nsg46
VTRANSPORT ENERGY
p128
sg48
Nsg74
(lp129
(VLUTTGE
VU
tp130
asg56
I1976
sg44
Nsbag1
(g2
g3
NtRp131
(dp132
g50
V10.1111/j.1469-7793.2001.0367k.x
p133
sg46
VJ PHYSIOL
p134
sg48
V530
p135
sg74
(lp136
(VMACAULAY
VN
tp137
asg56
I2001
sg44
V367
p138
sbag1
(g2
g3
NtRp139
(dp140
g50
Nsg46
VJ PHYSIOL
p141
sg48
V508
p142
sg74
(lp143
(VMEINILD
VA K
tp144
asg56
I1998
sg44
V15
p145
sbag1
(g2
g3
NtRp146
(dp147
g50
V10.1104/pp.94.2.424
p148
sg46
VPLANT PHYSIOL
p149
sg48
V94
p150
sg74
(lp151
(VMORAN
VN
tp152
asg56
I1990
sg44
VLANT
p153
sbag1
(g2
g3
NtRp154
(dp155
g50
V10.1104/pp.124.2.911
p156
sg46
VPLANT PHYSIOL
p157
sg48
V124
p158
sg74
(lp159
(VMOSHELION
VM
tp160
asg56
I2000
sg44
VLANT
p161
sbag1
(g2
g3
NtRp162
(dp163
g50
V10.1104/pp.119.3.885
p164
sg46
VPLANT PHYSIOL
p165
sg48
V119
p166
sg74
(lp167
(VRAMAHALEO
VT
tp168
asg56
I1999
sg44
VLANT
p169
sbag1
(g2
g3
NtRp170
(dp171
g50
V10.1038/312361a0
p172
sg46
VNATURE
p173
sg48
V312
p174
sg74
(lp175
(VSCHROEDER
VJ I
tp176
asg56
I1984
sg44
V361
p177
sbag1
(g2
g3
NtRp178
(dp179
g50
V10.1146/annurev.pp.20.060169.001121
p180
sg46
VANNU REV PLANT PHYS
p181
sg48
V20
p182
sg74
(lp183
(VSIBAOKA
VT
tp184
asg56
I1969
sg44
V165
p185
sbag1
(g2
g3
NtRp186
(dp187
g50
V10.1093/jxb/46.9.1067
p188
sg46
VJ EXP BOT
p189
sg48
V46
p190
sg74
(lp191
(VSTEUDLE
VE
tp192
asg56
I1995
sg44
V1067
p193
sbag1
(g2
g3
NtRp194
(dp195
g50
V10.1023/A:1026439226716
p196
sg46
VPLANT SOIL
p197
sg48
V226
p198
sg74
(lp199
(VSTEUDLE
VE
tp200
asg56
I2000
sg44
VLANT
p201
sbag1
(g2
g3
NtRp202
(dp203
g50
Nsg46
VJ MEMBRANE BIOL
p204
sg48
V146
p205
sg74
(lp206
(VSTOECKEL
VH
tp207
asg56
I1995
sg44
V201
p208
sbag1
(g2
g3
NtRp209
(dp210
g50
V10.1016/S0248-4900(97)83383-7
p211
sg46
VBIOL CELL
p212
sg48
V89
p213
sg74
(lp214
(VZEUTHEN
VT
tp215
asg56
I1997
sg44
V307
p216
sbag1
(g2
g3
NtRp217
(dp218
g50
Nsg46
VJ MEMBRANE BIOL
p219
sg48
V137
p220
sg74
(lp221
(VZEUTHEN
VT
tp222
asg56
I1994
sg44
V179
p223
sbasb.