ccopy_reg
_reconstructor
p1
(ctethne.classes.paper
Paper
p2
c__builtin__
object
p3
NtRp4
(dp5
S'publisherCity'
p6
VROCKVILLE
p7
sS'reprintAddress'
p8
VJardinaud, MF (reprint author), Univ Toulouse, INPT, Lab Symboise & Pathol Plantes, ENSAT, BP 31607, F-31326 Castanet Tolosan, France.
p9
sS'WC'
p10
VPlant Sciences
p11
sS'GA'
p12
V479WJ
p13
sS'abstract'
p14
VRalstonia solanacearum is the causal agent of the devastating bacterial wilt disease, which colonizes susceptible Medicago truncatula via the intact root tip. Infection involves four steps: appearance of root tip symptoms, root tip cortical cell invasion, vessel colonization, and foliar wilting. We examined this pathosystem by in vitro inoculation of intact roots of susceptible or resistant M. truncatula with the pathogenic strain GMI1000. The infection process was type III secretion system dependent and required two type III effectors, Gala7 and AvrA, which were shown to be involved at different stages of infection. Both effectors were involved in development of root tip symptoms, and Gala7 was the main determinant for bacterial invasion of cortical cells. Vessel invasion depended on the host genetic background and was never observed in the resistant line. The invasion of the root tip vasculature in the susceptible line caused foliar wilting. The avrA mutant showed reduced aggressiveness in all steps of the infection process, suggesting a global role in R. solanacearum pathogenicity. The roles of these two effectors in subsequent stages were studied using an assay that bypassed the penetration step; with this assay, the avrA mutant showed no effect compared with the GMI1000 strain, indicating that AvrA is important in early stages of infection. However, later disease symptoms were reduced in the gala7 mutant, indicating a key role in later stages of infection.
p15
sS'pageEnd'
p16
I1722
sS'publisherAddress'
p17
V15501 MONONA DRIVE, ROCKVILLE, MD 20855 USA
p18
sS'documentType'
p19
VArticle
p20
sS'subject'
p21
VPlant Sciences
p22
sS'isoSource'
p23
VPlant Physiol.
p24
sS'timesCited'
p25
(lp26
I15
aVZ9 16
p27
asS'PT'
p28
VJ
sS'title'
p29
VDissection Of Bacterial Wilt On Medicago Truncatula Revealed Two Type Iii Secretion System Effectors Acting On Root Infection Process And Disease Development
p30
sS'ISSN'
p31
(lp32
V0032-0889
p33
aVJ9 PLANT PHYSIOL
p34
asS'authors_full'
p35
(lp36
(VTURNER
VMARIE
tp37
a(VJAUNEAU
VALAIN
tp38
a(VGENIN
VSTEPHANE
tp39
a(VTAVELLA
VMARIEJOSE
tp40
a(VVAILLEAU
VFABIENNE
tp41
a(VGENTZBITTEL
VLAURENT
tp42
a(VJARDINAUD
VMARIEFRANCOISE
tp43
asS'PG'
p44
I10
sS'PD'
p45
VAUG
p46
sS'pageStart'
p47
I1713
sS'issue'
p48
I4
sS'journal'
p49
VPLANT PHYSIOLOGY
p50
sS'volume'
p51
V150
p52
sS'doi'
p53
V10.1104/pp.109.141523
p54
sS'emailAddress'
p55
Vjardinaud@ensat.fr
p56
sS'authorAddress'
p57
(lp58
V[Turner, Marie; Tavella, Marie-Jose; Vailleau, Fabienne; Gentzbittel, Laurent; Jardinaud, Marie-Francoise] Univ Toulouse, INPT, Lab Symboise & Pathol Plantes, ENSAT, F-31326 Castanet Tolosan, France.
p59
aV[Jauneau, Alain] UPS, CNRS, UMR 5546, F-31326 Castanet Tolosan, France.
p60
aV[Genin, Stephane] CNRS, INRA, UMR 441 2594, Lab Interact Plantes Microorganismes, F-31326 Castanet Tolosan, France.
p61
asS'date'
p62
I2009
sS'ER'
p63
V
sS'publisher'
p64
VAMER SOC PLANT BIOLOGISTS
p65
sS'authorKeywords'
p66
(lp67
VPATHOGEN RALSTONIA-SOLANACEARUM
p68
aVPSEUDOMONAS-SOLANACEARUM
p69
aVARABIDOPSIS-THALIANA
p70
aVVIRULENCE
p71
aVRESISTANCE
p72
aVTOMATO
p73
aVCOLONIZATION
p74
aVPROTEINS
p75
aVINVASION
p76
aVGENES
p77
asS'language'
p78
VEnglish
p79
sS'wosid'
p80
VWOS:000268692200011
p81
sS'citationCount'
p82
I47
sS'authors_init'
p83
(lp84
(VTURNER
VM
tp85
a(VJAUNEAU
VA
tp86
a(VGENIN
VS
tp87
a(VTAVELLA
VM J
tp88
a(VVAILLEAU
VF
tp89
a(VGENTZBITTEL
VL
tp90
a(VJARDINAUD
VM F
tp91
asS'citedReferences'
p92
(lp93
g1
(g2
g3
NtRp94
(dp95
g53
V10.1073/pnas.0509393103
p96
sg49
VP NATL ACAD SCI USA
p97
sg51
V103
p98
sg83
(lp99
(VANGOT
VA
tp100
asg62
I2006
sg47
V14620
p101
sbag1
(g2
g3
NtRp102
(dp103
g53
V10.1016/j.pbi.2008.06.007
p104
sg49
VCURR OPIN PLANT BIOL
p105
sg51
V11
p106
sg83
(lp107
(VBLOCK
VA
tp108
asg62
I2008
sg47
V396
p109
sbag1
(g2
g3
NtRp110
(dp111
g53
V10.1094/MPMI.2001.14.6.695
p112
sg49
VMOL PLANT MICROBE IN
p113
sg51
V14
p114
sg83
(lp115
(VBOISSON-DERNIER
VA
tp116
asg62
I2001
sg47
V695
p117
sbag1
(g2
g3
NtRp118
(dp119
g53
V10.1046/j.1365-313X.2003.01729.x
p120
sg49
VPLANT J
p121
sg51
V34
p122
sg83
(lp123
(VCANO-DELGADO
VA
tp124
asg62
I2003
sg47
VLANT
p125
sbag1
(g2
g3
NtRp126
(dp127
g53
Nsg49
VJ BACTERIOL
p128
sg51
V172
p129
sg83
(lp130
(VCARNEY
VB F
tp131
asg62
I1990
sg47
V4836
p132
sbag1
(g2
g3
NtRp133
(dp134
g53
V10.1006/pmpp.1998.0149
p135
sg49
VPHYSIOL MOL PLANT P
p136
sg51
V52
p137
sg83
(lp138
(VCARVER
VT L W
tp139
asg62
I1998
sg47
VHYSIOL
p140
sbag1
(g2
g3
NtRp141
(dp142
g53
V10.1111/j.1365-2958.2004.04118.x
p143
sg49
VMOL MICROBIOL
p144
sg51
V53
p145
sg83
(lp146
(VCUNNAC
VS
tp147
asg62
I2004
sg47
V115
p148
sbag1
(g2
g3
NtRp149
(dp150
g53
V10.1073/pnas.1230660100
p151
sg49
VP NATL ACAD SCI USA
p152
sg51
V100
p153
sg83
(lp154
(VDESLANDES
VL
tp155
asg62
I2003
sg47
V8024
p156
sbag1
(g2
g3
NtRp157
(dp158
g53
V10.1094/MPMI.1998.11.7.659
p159
sg49
VMOL PLANT MICROBE IN
p160
sg51
V11
p161
sg83
(lp162
(VDESLANDES
VL
tp163
asg62
I1998
sg47
V659
p164
sbag1
(g2
g3
NtRp165
(dp166
g53
V10.1111/j.1439-0434.2007.01258.x
p167
sg49
VJ PHYTOPATHOL
p168
sg51
V155
p169
sg83
(lp170
(VDITA
VM A
tp171
asg62
I2007
sg47
V462
p172
sbag1
(g2
g3
NtRp173
(dp174
g53
V10.1094/MPMI.1998.11.9.869
p175
sg49
VMOL PLANT MICROBE IN
p176
sg51
V11
p177
sg83
(lp178
(VETCHEBAR
VC
tp179
asg62
I1998
sg47
V869
p180
sbag1
(g2
g3
NtRp181
(dp182
g53
Nsg49
VJ GEN MICROBIOL
p183
sg51
V16
p184
sg83
(lp185
(VFAHRAEUS
VG
tp186
asg62
I1957
sg47
V374
p187
sbag1
(g2
g3
NtRp188
(dp189
g53
Nsg49
VPLANTA
p190
sg51
V194
p191
sg83
(lp192
(VFREYTAG
VS
tp193
asg62
I1994
sg47
VLANTA
p194
sbag1
(g2
g3
NtRp195
(dp196
g53
V10.1128/JB.182.23.6659-6666.2000
p197
sg49
VJ BACTERIOL
p198
sg51
V182
p199
sg83
(lp200
(VGARG
VR P
tp201
asg62
I2000
sg47
V6659
p202
sbag1
(g2
g3
NtRp203
(dp204
g53
V10.1016/j.febslet.2005.02.058
p205
sg49
VFEBS LETT
p206
sg51
V579
p207
sg83
(lp208
(VGENIN
VS
tp209
asg62
I2005
sg47
V2077
p210
sbag1
(g2
g3
NtRp211
(dp212
g53
V10.1046/j.1364-3703.2002.00102.x
p213
sg49
VMOL PLANT PATHOL
p214
sg51
V3
sg83
(lp215
(VGENIN
VS
tp216
asg62
I2002
sg47
V111
p217
sbag1
(g2
g3
NtRp218
(dp219
g53
V10.1094/MPMI.2003.16.6.536
p220
sg49
VMOL PLANT MICROBE IN
p221
sg51
V16
p222
sg83
(lp223
(VGONZALEZ
VE T
tp224
asg62
I2003
sg47
V536
p225
sbag1
(g2
g3
NtRp226
(dp227
g53
V10.1111/j.1439-0434.1995.tb00274.x
p228
sg49
VJ PHYTOPATHOL
p229
sg51
V143
p230
sg83
(lp231
(VGRIMAULT
VV
tp232
asg62
I1995
sg47
V349
p233
sbag1
(g2
g3
NtRp234
(dp235
g53
V10.1086/380985
p236
sg49
VINT J PLANT SCI
p237
sg51
V165
p238
sg83
(lp239
(VGROOT
VE P
tp240
asg62
I2004
sg47
V97
p241
sbag1
(g2
g3
NtRp242
(dp243
g53
V10.1146/annurev.py.29.090191.000433
p244
sg49
VANNU REV PHYTOPATHOL
p245
sg51
V29
p246
sg83
(lp247
(VHAYWARD
VA C
tp248
asg62
I1991
sg47
V65
p249
sbag1
(g2
g3
NtRp250
(dp251
g53
Nsg49
VSTAIN TECHNOL
p252
sg51
V45
p253
sg83
(lp254
(VHESLOPHAJ
S''
tp255
asg62
I1970
sg47
V115
p256
sbag1
(g2
g3
NtRp257
(dp258
g53
V10.1007/BF01989402
p259
sg49
VNetherlands Journal of Plant Pathology
p260
sg51
V69
p261
sg83
(lp262
(VHIJWEGEN
VT
tp263
asg62
I1963
sg47
V314
p264
sbag1
(g2
g3
NtRp265
(dp266
g53
V10.1007/BF02667740
p267
sg49
VPLANT MOL BIOL REP
p268
sg51
V5
sg83
(lp269
(VJEFFERSON
VR
tp270
asg62
I1987
sg47
VLANT
p271
sbag1
(g2
g3
NtRp272
(dp273
g53
V10.1038/nature05286
p274
sg49
VNATURE
p275
sg51
V444
p276
sg83
(lp277
(VJONES
VJ D G
tp278
asg62
I2006
sg47
V323
p279
sbag1
(g2
g3
NtRp280
(dp281
g53
V10.1094/MPMI.2003.16.5.447
p282
sg49
VMOL PLANT MICROBE IN
p283
sg51
V16
p284
sg83
(lp285
(VKANDA
VA
tp286
asg62
I2003
sg47
V447
p287
sbag1
(g2
g3
NtRp288
(dp289
g53
V10.1094/MPMI.2002.15.10.1058
p290
sg49
VMOL PLANT MICROBE IN
p291
sg51
V15
p292
sg83
(lp293
(VLAVIE
VM
tp294
asg62
I2002
sg47
V1058
p295
sbag1
(g2
g3
NtRp296
(dp297
g53
V10.1094/MPMI-18-1296
p298
sg49
VMOL PLANT MICROBE IN
p299
sg51
V18
p300
sg83
(lp301
(VLIU
VH L
tp302
asg62
I2005
sg47
V1296
p303
sbag1
(g2
g3
NtRp304
(dp305
g53
V10.1016/S0885-5765(03)00041-9
p306
sg49
VPHYSIOL MOL PLANT P
p307
sg51
V62
p308
sg83
(lp309
(VLORIA
VR
tp310
asg62
I2003
sg47
VHYSIOL
p311
sbag1
(g2
g3
NtRp312
(dp313
g53
V10.1111/j.1365-3059.1985.tb02770.x
p314
sg49
VPLANT PATHOL
p315
sg51
V34
p316
sg83
(lp317
(VNIEVESBRUN
VC
tp318
asg62
I1985
sg47
VLANT
p319
sbag1
(g2
g3
NtRp320
(dp321
g53
V10.1094/MPMI-18-0938
p322
sg49
VMOL PLANT MICROBE IN
p323
sg51
V18
p324
sg83
(lp325
(VOCCHIALINI
VA
tp326
asg62
I2005
sg47
V938
p327
sbag1
(g2
g3
NtRp328
(dp329
g53
Nsg49
VJ BIOL CHEM
p330
sg51
V266
p331
sg83
(lp332
(VORGAMBIDE
VG
tp333
asg62
I1991
sg47
V8312
p334
sbag1
(g2
g3
NtRp335
(dp336
g53
V10.1111/j.1744-7348.2007.00164.x
p337
sg49
VANN APPL BIOL
p338
sg51
V151
p339
sg83
(lp340
(VPEREZ-DE-LUQUE
VA
tp341
asg62
I2007
sg47
V89
p342
sbag1
(g2
g3
NtRp343
(dp344
g53
V10.1094/MPMI-22-5-0538
p345
sg49
VMOL PLANT MICROBE IN
p346
sg51
V22
p347
sg83
(lp348
(VPOUEYMIRO
VM
tp349
asg62
I2009
sg47
V538
p350
sbag1
(g2
g3
NtRp351
(dp352
g53
V10.1016/j.mib.2008.11.008
p353
sg49
VCURR OPIN MICROBIOL
p354
sg51
V12
p355
sg83
(lp356
(VPOUEYMIRO
VM
tp357
asg62
I2009
sg47
V44
p358
sbag1
(g2
g3
NtRp359
(dp360
g53
V10.1016/0378-1119(84)90059-3
p361
sg49
VGENE
p362
sg51
V29
p363
sg83
(lp364
(VPRENTKI
VP
tp365
asg62
I1984
sg47
V303
p366
sbag1
(g2
g3
NtRp367
(dp368
g53
Nsg49
VBACTERIAL WILT DIS M
p369
sg51
Nsg83
(lp370
(VPRIOR
VP
tp371
asg62
I1998
sg47
Nsbag1
(g2
g3
NtRp372
(dp373
g53
V10.1094/PHYTO.1997.87.12.1264
p374
sg49
VPHYTOPATHOLOGY
p375
sg51
V87
p376
sg83
(lp377
(VSAILE
VE
tp378
asg62
I1997
sg47
VHYTOPATHOLOGY
p379
sbag1
(g2
g3
NtRp380
(dp381
g53
V10.1146/annurev.phyto.38.1.263
p382
sg49
VANNU REV PHYTOPATHOL
p383
sg51
V38
p384
sg83
(lp385
(VSCHELL
VM A
tp386
asg62
I2000
sg47
V263
p387
sbag1
(g2
g3
NtRp388
(dp389
g53
V10.1111/j.1462-5822.2007.01078.x
p390
sg49
VCELL MICROBIOL
p391
sg51
V10
p392
sg83
(lp393
(VSTAVRINIDES
VJ
tp394
asg62
I2008
sg47
V285
p395
sbag1
(g2
g3
NtRp396
(dp397
g53
Nsg49
VAPPL ENVIRON MICROB
p398
sg51
V64
p399
sg83
(lp400
(VTANS-KERSTEN
VJ
tp401
asg62
I1998
sg47
V4918
p402
sbag1
(g2
g3
NtRp403
(dp404
g53
V10.1094/MPMI.2004.17.8.909
p405
sg49
VMOL PLANT MICROBE IN
p406
sg51
V17
p407
sg83
(lp408
(VTORREGROSA
VC
tp409
asg62
I2004
sg47
V909
p410
sbag1
(g2
g3
NtRp411
(dp412
g53
V10.1094/MPMI-20-20-0159
p413
sg49
VMOL PLANT MICROBE IN
p414
sg51
V20
p415
sg83
(lp416
(VVAILLEAU
VF
tp417
asg62
I2007
sg47
V159
p418
sbag1
(g2
g3
NtRp419
(dp420
g53
V10.1094/MPMI.2000.13.3.259
p421
sg49
VMOL PLANT MICROBE IN
p422
sg51
V13
p423
sg83
(lp424
(VVASSE
VJ
tp425
asg62
I2000
sg47
V259
p426
sbag1
(g2
g3
NtRp427
(dp428
g53
V10.1094/MPMI-8-0241
p429
sg49
VMOL PLANT MICROBE IN
p430
sg51
V8
sg83
(lp431
(VVASSE
VJ
tp432
asg62
I1995
sg47
V241
p433
sbag1
(g2
g3
NtRp434
(dp435
g53
V10.1146/annurev.phyto.41.052002.095652
p436
sg49
VANNU REV PHYTOPATHOL
p437
sg51
V41
p438
sg83
(lp439
(VVON
VBODMAN S B
tp440
asg62
I2003
sg47
V455
p441
sbag1
(g2
g3
NtRp442
(dp443
g53
V10.1128/JB.188.10-3697-3708.2006
p444
sg49
VJ BACTERIOL
p445
sg51
V188
p446
sg83
(lp447
(VYAO
VJ
tp448
asg62
I2006
sg47
V3697
p449
sbag1
(g2
g3
NtRp450
(dp451
g53
V10.1094/MPMI-19-0597
p452
sg49
VMOL PLANT MICROBE IN
p453
sg51
V19
p454
sg83
(lp455
(VZOLOBOWSKA
VL
tp456
asg62
I2006
sg47
V597
p457
sbasb.