ccopy_reg
_reconstructor
p1
(ctethne.classes.paper
Paper
p2
c__builtin__
object
p3
NtRp4
(dp5
S'publisherCity'
p6
VROCKVILLE
p7
sS'reprintAddress'
p8
VInze, D (reprint author), Univ Ghent VIB, Dept Plant Syst Biol, B-9052 Ghent, Belgium.
p9
sS'WC'
p10
VPlant Sciences
p11
sS'GA'
p12
V369UN
p13
sS'FX'
p14
(lp15
VThis work was supported by the European Union Framework Program 6
p16
aVDiatomics project (grant no. LSHG-CT-2004-512035), the Research Fund of
p17
aVGhent University (Geconcerteerde Onderzoeksacties grant no. 12050398),
p18
aVthe Belgian Coordinated Collections of Microorganisms Culture Collection
p19
aVproject (grant no. C3/00/14; Belgian Federal Science Policy), Research
p20
aVFoundation-Flanders (postdoctoral fellowship to L. D. V.), and the
p21
aVInstitute for the Promotion of Innovation through Science and Technology
p22
aVin Flanders (predoctoral fellowships to J. G., V. D., M. J. J. H., C.
p23
aVM., and K. V.).
p24
asS'abstract'
p25
VDespite the growing interest in diatom genomics, detailed time series of gene expression in relation to key cellular processes are still lacking. Here, we investigated the relationships between the cell cycle and chloroplast development in the pennate diatom Seminavis robusta. This diatom possesses two chloroplasts with a well-orchestrated developmental cycle, common to many pennate diatoms. By assessing the effects of induced cell cycle arrest with microscopy and flow cytometry, we found that division and reorganization of the chloroplasts are initiated only after S-phase progression. Next, we quantified the expression of the S. robusta FtsZ homolog to address the division status of chloroplasts during synchronized growth and monitored microscopically their dynamics in relation to nuclear division and silicon deposition. We show that chloroplasts divide and relocate during the S/G2 phase, after which a girdle band is deposited to accommodate cell growth. Synchronized cultures of two genotypes were subsequently used for a cDNA-amplified fragment length polymorphism-based genome-wide transcript profiling, in which 917 reproducibly modulated transcripts were identified. We observed that genes involved in pigment biosynthesis and coding for light-harvesting proteins were up-regulated during G2/M phase and cell separation. Light and cell cycle progression were both found to affect fucoxanthin-chlorophyll a/c-binding protein expression and accumulation of fucoxanthin cell content. Because chloroplasts elongate at the stage of cytokinesis, cell cycle-modulated photosynthetic gene expression and synthesis of pigments in concert with cell division might balance chloroplast growth, which confirms that chloroplast biogenesis in S. robusta is tightly regulated.
p26
sS'pageEnd'
p27
I1411
sS'date'
p28
I2008
sS'documentType'
p29
VReview
p30
sS'subject'
p31
VPlant Sciences
p32
sS'isoSource'
p33
VPlant Physiol.
p34
sS'timesCited'
p35
(lp36
I16
aVZ9 16
p37
asS'funding'
p38
(lp39
(VEuropean Union Framework Program 6 Diatomics project
VLSHG-CT-2004-512035
tp40
a(VResearch Fund of Ghent University
V12050398
tp41
a(VBelgian Coordinated Collections of Microorganisms Culture Collection project
VC3/00/14
tp42
a(VResearch Foundation-Flanders
Ntp43
a(VInstitute for the Promotion of Innovation through Science and Technology in Flanders
Ntp44
asS'PT'
p45
VJ
sS'title'
p46
VPhysiological And Transcriptomic Evidence For A Close Coupling Between Chloroplast Ontogeny And Cell Cycle Progression In The Pennate Diatom Seminavis Robusta
p47
sS'ISSN'
p48
(lp49
V0032-0889
p50
aVJ9 PLANT PHYSIOL
p51
asS'authors_full'
p52
(lp53
(VGILLARD
VJEROEN
tp54
a(VDEVOS
VVALERIE
tp55
a(VHUYSMAN
VMARIE J J
tp56
a(VDE VEYLDER
VLIEVEN
tp57
a(VDHONDT
VSOFIE
tp58
a(VMARTENS
VCINDY
tp59
a(VVANORMELINGEN
VPIETER
tp60
a(VVANNERUM
VKATRIJN
tp61
a(VSABBE
VKOEN
tp62
a(VCHEPURNOV
VVICTOR A
tp63
a(VINZE
VDIRK
tp64
a(VVUYLSTEKE
VMARNIK
tp65
a(VVYVERMAN
VWIM
tp66
asS'PG'
p67
I18
sS'PD'
p68
VNOV
p69
sS'pageStart'
p70
I1394
sS'issue'
p71
I3
sS'RI'
p72
VDasseville, Renaat /B-3561-2010; Gillard, Jeroen/C-1246-2013
p73
sS'journal'
p74
VPLANT PHYSIOLOGY
p75
sS'volume'
p76
V148
p77
sS'doi'
p78
V10.1104/pp.108.122176
p79
sS'emailAddress'
p80
Vdirk.inze@psb.ugent.be
p81
sS'authorAddress'
p82
(lp83
V[Gillard, Jeroen; Devos, Valerie; Huysman, Marie J. J.; De Veylder, Lieven; Martens, Cindy; Vannerum, Katrijn; Inze, Dirk; Vuylsteke, Marnik] Univ Ghent VIB, Dept Plant Syst Biol, B-9052 Ghent, Belgium.
p84
aV[Gillard, Jeroen; Devos, Valerie; Huysman, Marie J. J.; D'Hondt, Sofie; Vanormelingen, Pieter; Vannerum, Katrijn; Sabbe, Koen; Chepurnov, Victor A.; Vyverman, Wim] Univ Ghent, Lab Protistol & Aquat Ecol, Dept Biol, B-9000 Ghent, Belgium.
p85
aV[Gillard, Jeroen; Devos, Valerie; Huysman, Marie J. J.; De Veylder, Lieven; Martens, Cindy; Vannerum, Katrijn; Inze, Dirk; Vuylsteke, Marnik] Univ Ghent, Dept Mol Genet, B-9052 Ghent, Belgium.
p86
asS'publisherAddress'
p87
V15501 MONONA DRIVE, ROCKVILLE, MD 20855 USA
p88
sS'ER'
p89
V
sS'publisher'
p90
VAMER SOC PLANT BIOLOGISTS
p91
sS'authorKeywords'
p92
(lp93
VMANGANESE SUPEROXIDE-DISMUTASE
p94
aVALGA CYANIDIOSCHYZON MEROLAE
p95
aVSILICA SHELL FORMATION
p96
aVMARINE DIATOMS
p97
aVFINE-STRUCTURE
p98
aVPHAEODACTYLUM-TRICORNUTUM
p99
aVTHALASSIOSIRA-PSEUDONANA
p100
aVCYCLOTELLA-CRYPTICA
p101
aVCYLINDROTHECA-FUSIFORMIS
p102
aVSCENEDESMUS-QUADRICAUDA
p103
asS'language'
p104
VEnglish
p105
sS'wosid'
p106
VWOS:000260719500018
p107
sS'citationCount'
p108
I131
sS'authors_init'
p109
(lp110
(VGILLARD
VJ
tp111
a(VDEVOS
VV
tp112
a(VHUYSMAN
VM J J
tp113
a(VDE VEYLDER
VL
tp114
a(VDHONDT
VS
tp115
a(VMARTENS
VC
tp116
a(VVANORMELINGEN
VP
tp117
a(VVANNERUM
VK
tp118
a(VSABBE
VK
tp119
a(VCHEPURNOV
VV A
tp120
a(VINZE
VD
tp121
a(VVUYLSTEKE
VM
tp122
a(VVYVERMAN
VW
tp123
asS'citedReferences'
p124
(lp125
g1
(g2
g3
NtRp126
(dp127
g78
V10.1007/s00425-008-0692-6
p128
sg74
VPLANTA
p129
sg76
V227
p130
sg109
(lp131
(VADAMS
VS
tp132
asg28
I2008
sg70
VLANTA
p133
sbag1
(g2
g3
NtRp134
(dp135
g78
V10.1093/nar/25.17.3389
p136
sg74
VNUCLEIC ACIDS RES
p137
sg76
V25
p138
sg109
(lp139
(VALTSCHUL
VS F
tp140
asg28
I1997
sg70
V3389
p141
sbag1
(g2
g3
NtRp142
(dp143
g78
V10.1146/annurev.arplant.55.031903.141701
p144
sg74
VANNU REV PLANT BIOL
p145
sg76
V55
p146
sg109
(lp147
(VAPEL
VK
tp148
asg28
I2004
sg70
V373
p149
sbag1
(g2
g3
NtRp150
(dp151
g78
V10.1242/jcs.00092
p152
sg74
VJ CELL SCI
p153
sg76
V115
p154
sg109
(lp155
(VAPT
VK E
tp156
asg28
I2002
sg70
V4061
p157
sbag1
(g2
g3
NtRp158
(dp159
g78
V10.1126/science.1101156
p160
sg74
VSCIENCE
p161
sg76
V306
p162
sg109
(lp163
(VARMBRUST
VE V
tp164
asg28
I2004
sg70
V79
p165
sbag1
(g2
g3
NtRp166
(dp167
g78
Nsg74
VLIMNOL OCEANOGR
p168
sg76
V27
p169
sg109
(lp170
(VBANSE
VK
tp171
asg28
I1982
sg70
V1059
p172
sbag1
(g2
g3
NtRp173
(dp174
g78
V10.1078/1434-4610-00003
p175
sg74
VPROTIST
p176
sg76
V151
p177
sg109
(lp178
(VBEECH
VP L
tp179
asg28
I2000
sg70
VROTIST
p180
sbag1
(g2
g3
NtRp181
(dp182
g78
Nsg74
VNUCLEIC ACIDS RES
p183
sg76
V21
p184
sg109
(lp185
(VBHAYA
VD
tp186
asg28
I1993
sg70
V4458
p187
sbag1
(g2
g3
NtRp188
(dp189
g78
Nsg74
VNATURE IN PRESS
p190
sg76
Nsg109
(lp191
(VBOWLER
VC
tp192
asg28
I2008
sg70
Nsbag1
(g2
g3
NtRp193
(dp194
g78
V10.1073/pnas.222561199
p195
sg74
VP NATL ACAD SCI USA
p196
sg76
V99
p197
sg109
(lp198
(VBREYNE
VP
tp199
asg28
I2002
sg70
V14825
p200
sbag1
(g2
g3
NtRp201
(dp202
g78
V10.3354/meps067083
p203
sg74
VMAR ECOL PROG SER
p204
sg76
V67
p205
sg109
(lp206
(VBRZEZINSKI
VM A
tp207
asg28
I1990
sg70
V83
p208
sbag1
(g2
g3
NtRp209
(dp210
g78
Nsg74
VPHOTOBIOCH PHOTOBIOP
p211
sg76
V10
p212
sg109
(lp213
(VBUTKO
VP
tp214
asg28
I1985
sg70
VHOTOBIOCH
p215
sbag1
(g2
g3
NtRp216
(dp217
g78
V10.1111/j.1529-8817.1978.tb02458.x
p218
sg74
VJ PHYCOL
p219
sg76
V14
p220
sg109
(lp221
(VCHAN
VA T
tp222
asg28
I1978
sg70
V396
p223
sbag1
(g2
g3
NtRp224
(dp225
g78
V10.1111/j.1529-8817.1980.tb03056.x
p226
sg74
VJ PHYCOL
p227
sg76
V16
p228
sg109
(lp229
(VCHAN
VA T
tp230
asg28
I1980
sg70
V428
p231
sbag1
(g2
g3
NtRp232
(dp233
g78
V10.1002/bies.20773
p234
sg74
VBIOESSAYS
p235
sg76
V30
p236
sg109
(lp237
(VCHEPURNOV
VV A
tp238
asg28
I2008
sg70
V692
p239
sbag1
(g2
g3
NtRp240
(dp241
g78
V10.1046/j.1529-8817.2002.t01-1-01233.x
p242
sg74
VJ PHYCOL
p243
sg76
V38
p244
sg109
(lp245
(VCHEPURNOV
VV A
tp246
asg28
I2002
sg70
V1004
p247
sbag1
(g2
g3
NtRp248
(dp249
g78
V10.1007/BF01275654
p250
sg74
VPROTOPLASMA
p251
sg76
V93
p252
sg109
(lp253
(VCHIAPPINO
VM L
tp254
asg28
I1977
sg70
VROTOPLASMA
p255
sbag1
(g2
g3
NtRp256
(dp257
g78
V10.1515/BOT.2006.045
p258
sg74
VBOT MAR
p259
sg76
V49
p260
sg109
(lp261
(VCHIOVITTI
VA
tp262
asg28
I2006
sg70
V360
p263
sbag1
(g2
g3
NtRp264
(dp265
g78
Nsg74
VNAT GENET
p266
sg76
V27
p267
sg109
(lp268
(VCHO
VR J
tp269
asg28
I2001
sg70
V48
p270
sbag1
(g2
g3
NtRp271
(dp272
g78
V10.1080/0967026032000157165
p273
sg74
VEUR J PHYCOL
p274
sg76
V39
p275
sg109
(lp276
(VCLAQUIN
VP
tp277
asg28
I2004
sg70
V33
p278
sbag1
(g2
g3
NtRp279
(dp280
g78
Nsg74
VMOL BIOL CELL
p281
sg76
V3
sg109
(lp282
(VCOHN
VS A
tp283
asg28
I1992
sg70
VA361
p284
sbag1
(g2
g3
NtRp285
(dp286
g78
Nsg74
VINT REV CYTOL
p287
sg76
V193
p288
sg109
(lp289
(VCOLEMAN
VA W
tp290
asg28
I1999
sg70
V125
p291
sbag1
(g2
g3
NtRp292
(dp293
g78
V10.1093/bioinformatics/bti610
p294
sg74
VBIOINFORMATICS
p295
sg76
V21
p296
sg109
(lp297
(VCONESA
VA
tp298
asg28
I2005
sg70
V3674
p299
sbag1
(g2
g3
NtRp300
(dp301
g78
V10.1104/pp.42.11.1601
p302
sg74
VPLANT PHYSIOL
p303
sg76
V42
p304
sg109
(lp305
(VCOOMBS
VJ
tp306
asg28
I1967
sg70
VLANT
p307
sbag1
(g2
g3
NtRp308
(dp309
g78
V10.1016/0014-4827(67)90233-9
p310
sg74
VEXP CELL RES
p311
sg76
V47
p312
sg109
(lp313
(VCOOMBS
VJ
tp314
asg28
I1967
sg70
V302
p315
sbag1
(g2
g3
NtRp316
(dp317
g78
V10.1017/S0967026202003724
p318
sg74
VEUR J PHYCOL
p319
sg76
V37
p320
sg109
(lp321
(VDANIELIDIS
VD B
tp322
asg28
I2002
sg70
V429
p323
sbag1
(g2
g3
NtRp324
(dp325
g78
V10.1111/j.0022-3646.1973.00165.x
p326
sg74
VJ PHYCOL
p327
sg76
V9
sg109
(lp328
(VDAWSON
VP A
tp329
asg28
I1973
sg70
V165
p330
sbag1
(g2
g3
NtRp331
(dp332
g78
Nsg74
VCYTOBIOLOGIE
p333
sg76
V14
p334
sg109
(lp335
(VDEFRANCISCO
VA
tp336
asg28
I1977
sg70
V191
p337
sbag1
(g2
g3
NtRp338
(dp339
g78
V10.1038/nrm2227
p340
sg74
VNAT REV MOL CELL BIO
p341
sg76
V8
sg109
(lp342
(VDE
VVEYLDER L
tp343
asg28
I2007
sg70
V655
p344
sbag1
(g2
g3
NtRp345
(dp346
g78
V10.1016/S1074-5521(99)80059-3
p347
sg74
VCHEM BIOL
p348
sg76
V6
sg109
(lp349
(VDIWU
VZ J
tp350
asg28
I1999
sg70
V411
p351
sbag1
(g2
g3
NtRp352
(dp353
g78
V10.1023/A:1005815725371
p354
sg74
VPHOTOSYNTH RES
p355
sg76
V53
p356
sg109
(lp357
(VDURNFORD
VD G
tp358
asg28
I1997
sg70
VHOTOSYNTH
p359
sbag1
(g2
g3
NtRp360
(dp361
g78
Nsg74
VP NATL ACAD SCI USA
p362
sg76
V96
p363
sg109
(lp364
(VEISEN
VM B
tp365
asg28
I1998
sg70
V10943
p366
sbag1
(g2
g3
NtRp367
(dp368
g78
V10.1007/s00438-002-0660-y
p369
sg74
VMOL GENET GENOMICS
p370
sg76
V267
p371
sg109
(lp372
(VEL-SHAMI
VM
tp373
asg28
I2002
sg70
V254
p374
sbag1
(g2
g3
NtRp375
(dp376
g78
Nsg74
VMOL GEN GENET
p377
sg76
V260
p378
sg109
(lp379
(VEPPARD
VM
tp380
asg28
I1998
sg70
V335
p381
sbag1
(g2
g3
NtRp382
(dp383
g78
V10.1078/1434-4610-00005
p384
sg74
VPROTIST
p385
sg76
V151
p386
sg109
(lp387
(VEPPARD
VM
tp388
asg28
I2000
sg70
VROTIST
p389
sbag1
(g2
g3
NtRp390
(dp391
g78
V10.1111/j.0022-3646.1991.00008.x
p392
sg74
VJ PHYCOL
p393
sg76
V27
p394
sg109
(lp395
(VFALKOWSKI
VP G
tp396
asg28
I1991
sg70
V8
sbag1
(g2
g3
NtRp397
(dp398
g78
V10.1126/science.1095964
p399
sg74
VSCIENCE
p400
sg76
V305
p401
sg109
(lp402
(VFALKOWSKI
VP G
tp403
asg28
I2004
sg70
V354
p404
sbag1
(g2
g3
NtRp405
(dp406
g78
Nsg74
VLIMNOL OCEANOGR
p407
sg76
V30
p408
sg109
(lp409
(VFALKOWSKI
VP G
tp410
asg28
I1985
sg70
V311
p411
sbag1
(g2
g3
NtRp412
(dp413
g78
V10.1016/j.pbi.2004.03.007
p414
sg74
VCURR OPIN PLANT BIOL
p415
sg76
V7
sg109
(lp416
(VFERNIE
VA R
tp417
asg28
I2004
sg70
V254
p418
sbag1
(g2
g3
NtRp419
(dp420
g78
V10.1074/mcp.M500174-MCP200
p421
sg74
VMOL CELL PROTEOMICS
p422
sg76
V5
sg109
(lp423
(VFRIGERI
VL G
tp424
asg28
I2006
sg70
V182
p425
sbag1
(g2
g3
NtRp426
(dp427
g78
V10.1023/B:HYDR.0000043198.08168.d3
p428
sg74
VHYDROBIOLOGIA
p429
sg76
V527
p430
sg109
(lp431
(VFURUSATO
VE
tp432
asg28
I2004
sg70
V153
p433
sbag1
(g2
g3
NtRp434
(dp435
g78
V10.1104/pp.86.1.98
p436
sg74
VPLANT PHYSIOL
p437
sg76
V86
p438
sg109
(lp439
(VGEE
VR W
tp440
asg28
I1988
sg70
VLANT
p441
sbag1
(g2
g3
NtRp442
(dp443
g78
V10.1111/j.0022-3646.1992.00507.x
p444
sg74
VJ PHYCOL
p445
sg76
V28
p446
sg109
(lp447
(VGOERICKE
VR
tp448
asg28
I1992
sg70
V507
p449
sbag1
(g2
g3
NtRp450
(dp451
g78
V10.1139/B05-077
p452
sg74
VCAN J BOT
p453
sg76
V83
p454
sg109
(lp455
(VGRANUM
VE
tp456
asg28
I2005
sg70
V898
p457
sbag1
(g2
g3
NtRp458
(dp459
g78
V10.1146/annurev.arplant.47.1.685
p460
sg74
VANNU REV PLANT PHYS
p461
sg76
V47
p462
sg109
(lp463
(VGREEN
VB R
tp464
asg28
I1996
sg70
V685
p465
sbag1
(g2
g3
NtRp466
(dp467
g78
V10.1111/j.1742-4658.2005.04846.x
p468
sg74
VFEBS J
p469
sg76
V272
p470
sg109
(lp471
(VGUGLIELMI
VG
tp472
asg28
I2005
sg70
V4339
p473
sbag1
(g2
g3
NtRp474
(dp475
g78
Nsg74
VCULTURE PHYTOPLANKTO
p476
sg76
Nsg109
(lp477
(VGUILLARD
VR R L
tp478
asg28
I1975
sg70
Nsbag1
(g2
g3
NtRp479
(dp480
g78
V10.1007/s10265-005-0214-6
p481
sg74
VJ PLANT RES
p482
sg76
V118
p483
sg109
(lp484
(VHASHIMOTO
VH
tp485
asg28
I2005
sg70
V163
p486
sbag1
(g2
g3
NtRp487
(dp488
g78
V10.1016/j.cub.2005.11.044
p489
sg74
VCURR BIOL
p490
sg76
V16
p491
sg109
(lp492
(VHASWELL
VE S
tp493
asg28
I2006
sg70
V1
sbag1
(g2
g3
NtRp494
(dp495
g78
V10.1111/j.1529-8817.2005.04131.x
p496
sg74
VJ PHYCOL
p497
sg76
V41
p498
sg109
(lp499
(VHAZELAAR
VS
tp500
asg28
I2005
sg70
V354
p501
sbag1
(g2
g3
NtRp502
(dp503
g78
V10.1186/gb-2007-8-2-r19
p504
sg74
VGENOME BIOL
p505
sg76
V8
sg109
(lp506
(VHELLEMANS
VJ
tp507
asg28
I2007
sg70
Nsbag1
(g2
g3
NtRp508
(dp509
g78
V10.1111/j.1529-8817.2007.00361.x
p510
sg74
VJ PHYCOL
p511
sg76
V43
p512
sg109
(lp513
(VHILDEBRAND
VM
tp514
asg28
I2007
sg70
V730
p515
sbag1
(g2
g3
NtRp516
(dp517
g78
V10.1111/j.0022-3646.1993.00537.x
p518
sg74
VJ PHYCOL
p519
sg76
V29
p520
sg109
(lp521
(VHOAGLAND
VK D
tp522
asg28
I1993
sg70
V537
p523
sbag1
(g2
g3
NtRp524
(dp525
g78
V10.1146/annurev.arplant.47.1.655
p526
sg74
VANNU REV PLANT PHYS
p527
sg76
V47
p528
sg109
(lp529
(VHORTON
VP
tp530
asg28
I1996
sg70
V655
p531
sbag1
(g2
g3
NtRp532
(dp533
g78
V10.1080/09670260701822033
p534
sg74
VEUR J PHYCOL
p535
sg76
V43
p536
sg109
(lp537
(VHU
VY
tp538
asg28
I2008
sg70
V207
p539
sbag1
(g2
g3
NtRp540
(dp541
g78
V10.1074/jbc.M210886200
p542
sg74
VJ BIOL CHEM
p543
sg76
V278
p544
sg109
(lp545
(VIIDA
VR
tp546
asg28
I2003
sg70
V6301
p547
sbag1
(g2
g3
NtRp548
(dp549
g78
V10.1038/275458a0
p550
sg74
VNATURE
p551
sg76
V275
p552
sg109
(lp553
(VIKEGAMI
VS
tp554
asg28
I1978
sg70
V458
p555
sbag1
(g2
g3
NtRp556
(dp557
g78
Nsg74
VEUR J CELL BIOL
p558
sg76
V71
p559
sg109
(lp560
(VITOH
VR
tp561
asg28
I1996
sg70
V303
p562
sbag1
(g2
g3
NtRp563
(dp564
g78
Nsg74
VJ BIOL CHEM
p565
sg76
V259
p566
sg109
(lp567
(VJOHANNINGMEIER
VU
tp568
asg28
I1984
sg70
V3541
p569
sbag1
(g2
g3
NtRp570
(dp571
g78
V10.1104/pp.120.2.433
p572
sg74
VPLANT PHYSIOL
p573
sg76
V120
p574
sg109
(lp575
(VKAFTAN
VD
tp576
asg28
I1999
sg70
VLANT
p577
sbag1
(g2
g3
NtRp578
(dp579
g78
V10.1104/pp.98.2.621
p580
sg74
VPLANT PHYSIOL
p581
sg76
V98
p582
sg109
(lp583
(VKAPROS
VT
tp584
asg28
I1992
sg70
VLANT
p585
sbag1
(g2
g3
NtRp586
(dp587
g78
V10.1078/1434461000168
p588
sg74
VPROTIST
p589
sg76
V155
p590
sg109
(lp591
(VKIEFEL
VB R
tp592
asg28
I2004
sg70
VROTIST
p593
sbag1
(g2
g3
NtRp594
(dp595
g78
V10.1111/j.1365-313X.2004.02294.x
p596
sg74
VPLANT J
p597
sg76
V41
p598
sg109
(lp599
(VKILIAN
VO
tp600
asg28
I2005
sg70
VLANT
p601
sbag1
(g2
g3
NtRp602
(dp603
g78
Nsg74
VPROG MOLEC
p604
sg76
V33
p605
sg109
(lp606
(VKOOISTRA
VWHCF
tp607
asg28
I2003
sg70
VROG
p608
sbag1
(g2
g3
NtRp609
(dp610
g78
V10.1126/science. 1140516
p611
sg74
VSCIENCE
p612
sg76
V316
p613
sg109
(lp614
(VKOUSSEVITZKY
VS
tp615
asg28
I2007
sg70
V715
p616
sbag1
(g2
g3
NtRp617
(dp618
g78
V10.1078/1434-4610-00024
p619
sg74
VPROTIST
p620
sg76
V151
p621
sg109
(lp622
(VKROGER
VN
tp623
asg28
I2000
sg70
VROTIST
p624
sbag1
(g2
g3
NtRp625
(dp626
g78
V10.1016/1011-1344(94)07069-5
p627
sg74
VJ PHOTOCH PHOTOBIO B
p628
sg76
V26
p629
sg109
(lp630
(VKRUPINSKA
VK
tp631
asg28
I1994
sg70
V217
p632
sbag1
(g2
g3
NtRp633
(dp634
g78
V10.1042/BC20060077
p635
sg74
VBIOL CELL
p636
sg76
V99
p637
sg109
(lp638
(VKRZESZOWIEC
VW
tp639
asg28
I2007
sg70
V251
p640
sbag1
(g2
g3
NtRp641
(dp642
g78
V10.1046/j.1529-8817.2004.03026.x
p643
sg74
VJ PHYCOL
p644
sg76
V40
p645
sg109
(lp646
(VLAVAUD
VJ
tp647
asg28
I2004
sg70
V130
p648
sbag1
(g2
g3
NtRp649
(dp650
g78
V10.1023/A:1006256300969
p651
sg74
VPLANT MOL BIOL
p652
sg76
V40
p653
sg109
(lp654
(VLEBLANC
VC
tp655
asg28
I1999
sg70
VLANT
p656
sbag1
(g2
g3
NtRp657
(dp658
g78
Nsg74
VLIMNOL OCEANOGR
p659
sg76
V3
sg109
(lp660
(VLEBLANC
VK
tp661
asg28
I2005
sg70
V462
p662
sbag1
(g2
g3
NtRp663
(dp664
g78
Nsg74
VBOT BULL ACAD SINICA
p665
sg76
V33
p666
sg109
(lp667
(VLEE
VM
tp668
asg28
I1992
sg70
V317
p669
sbag1
(g2
g3
NtRp670
(dp671
g78
V10.1146/annurev.arplant.52.1.469
p672
sg74
VANNU REV PLANT PHYS
p673
sg76
V52
p674
sg109
(lp675
(VMAESHIMA
VM
tp676
asg28
I2001
sg70
V469
p677
sbag1
(g2
g3
NtRp678
(dp679
g78
Nsg74
VP249
p680
sg76
Nsg109
(lp681
(VMANN
VDAVID G
tp682
asg28
I1996
sg70
V249
p683
sbag1
(g2
g3
NtRp684
(dp685
g78
V10.1038//nrm1745
p686
sg74
VNAT REV MOL CELL BIO
p687
sg76
V6
sg109
(lp688
(VMARGOLIN
VW
tp689
asg28
I2005
sg70
V862
p690
sbag1
(g2
g3
NtRp691
(dp692
g78
V10.1007/s10265-002-0039-5
p693
sg74
VJ PLANT RES
p694
sg76
V115
p695
sg109
(lp696
(VMAYAMA
VS
tp697
asg28
I2002
sg70
V289
p698
sbag1
(g2
g3
NtRp699
(dp700
g78
V10.1104/pp.125.1.50
p701
sg74
VPLANT PHYSIOL
p702
sg76
V125
p703
sg109
(lp704
(VMCFADDEN
VG I
tp705
asg28
I2001
sg70
VLANT
p706
sbag1
(g2
g3
NtRp707
(dp708
g78
V10.1074/jbc.M207570200
p709
sg74
VJ BIOL CHEM
p710
sg76
V277
p711
sg109
(lp712
(VMENGES
VM
tp713
asg28
I2002
sg70
V41987
p714
sbag1
(g2
g3
NtRp715
(dp716
g78
Nsg74
VJ BOT MOROT
p717
sg76
V18
p718
sg109
(lp719
(VMERESCHKOWSKY
VC
tp720
asg28
I1904
sg70
V76
p721
sbag1
(g2
g3
NtRp722
(dp723
g78
Nsg74
VJ BOT
p724
sg76
V18
p725
sg109
(lp726
(VMERESCHKOWSKY
VC
tp727
asg28
I1904
sg70
V17
p728
sbag1
(g2
g3
NtRp729
(dp730
g78
V10.1111/j.1529-8817.2007.00342.x
p731
sg74
VJ PHYCOL
p732
sg76
V43
p733
sg109
(lp734
(VMONTSANT
VA
tp735
asg28
I2007
sg70
V585
p736
sbag1
(g2
g3
NtRp737
(dp738
g78
V10.1091/mbc.E05-01-0068
p739
sg74
VMOL BIOL CELL
p740
sg76
V16
p741
sg109
(lp742
(VNISHIDA
VK
tp743
asg28
I2005
sg70
V2493
p744
sbag1
(g2
g3
NtRp745
(dp746
g78
V10.1146/annurev.arplant.57.032905.105310
p747
sg74
VANNU REV PLANT BIOL
p748
sg76
V57
p749
sg109
(lp750
(VNOTT
VA
tp751
asg28
I2006
sg70
V739
p752
sbag1
(g2
g3
NtRp753
(dp754
g78
Nsg74
VINT MICROBIOL
p755
sg76
V7
sg109
(lp756
(VOELTJEN
VA
tp757
asg28
I2004
sg70
V127
p758
sbag1
(g2
g3
NtRp759
(dp760
g78
V10.1055/s-2002-25737
p761
sg74
VPLANT BIOLOGY
p762
sg76
V4
sg109
(lp763
(VOELTJEN
VA
tp764
asg28
I2002
sg70
VLANT
p765
sbag1
(g2
g3
NtRp766
(dp767
g78
V10.1105/tpc.7.7.957
p768
sg74
VPLANT CELL
p769
sg76
V7
sg109
(lp770
(VOHLROGGE
VJ
tp771
asg28
I1995
sg70
VLANT
p772
sbag1
(g2
g3
NtRp773
(dp774
g78
V10.1104/pp.80.4.918
p775
sg74
VPLANT PHYSIOL
p776
sg76
V80
p777
sg109
(lp778
(VOLSON
VR J
tp779
asg28
I1986
sg70
VLANT
p780
sbag1
(g2
g3
NtRp781
(dp782
g78
V10.1126/science.1082192
p783
sg74
VSCIENCE
p784
sg76
V302
p785
sg109
(lp786
(VOSTERYOUNG
VK W
tp787
asg28
I2003
sg70
V1698
p788
sbag1
(g2
g3
NtRp789
(dp790
g78
V10.1038/376473b0
p791
sg74
VNATURE
p792
sg76
V376
p793
sg109
(lp794
(VOSTERYOUNG
VK W
tp795
asg28
I1995
sg70
V473
p796
sbag1
(g2
g3
NtRp797
(dp798
g78
V10.1016/j.tibtech.2005.05.014
p799
sg74
VTRENDS BIOTECHNOL
p800
sg76
V23
p801
sg109
(lp802
(VOTERO
VA
tp803
asg28
I2005
sg70
V448
p804
sbag1
(g2
g3
NtRp805
(dp806
g78
V10.1093/nar/29.9.e45
p807
sg74
VNUCLEIC ACIDS RES
p808
sg76
V29
p809
sg109
(lp810
(VPFAFFL
VM W
tp811
asg28
I2001
sg70
Nsbag1
(g2
g3
NtRp812
(dp813
g78
Nsg74
VPROGR PHYCOLOGICAL R
p814
sg76
V7
sg109
(lp815
(VPICKETT-HEAPS
VJ D
tp816
asg28
I1990
sg70
VROGR
p817
sbag1
(g2
g3
NtRp818
(dp819
g78
Nsg74
VANN REV PLANT PHYSIO
p820
sg76
V17
p821
sg109
(lp822
(VPIRSON
VA
tp823
asg28
I1966
sg70
V439
p824
sbag1
(g2
g3
NtRp825
(dp826
g78
Nsg74
VBRIT PHYCOL J
p827
sg76
V20
p828
sg109
(lp829
(VPOST
VA F
tp830
asg28
I1985
sg70
V391
p831
sbag1
(g2
g3
NtRp832
(dp833
g78
V10.1105/tpc.11.4.549
p834
sg74
VPLANT CELL
p835
sg76
V11
p836
sg109
(lp837
(VPYKE
VK A
tp838
asg28
I1999
sg70
VLANT
p839
sbag1
(g2
g3
NtRp840
(dp841
g78
V10.1093/plankt/fbm002
p842
sg74
VJ PLANKTON RES
p843
sg76
V29
p844
sg109
(lp845
(VRAGNI
VM
tp846
asg28
I2007
sg70
V141
p847
sbag1
(g2
g3
NtRp848
(dp849
g78
V10.1111/j.1469-8137.1988.tb00282.x
p850
sg74
VNEW PHYTOL
p851
sg76
V110
p852
sg109
(lp853
(VRAVEN
VJ A
tp854
asg28
I1988
sg70
V441
p855
sbag1
(g2
g3
NtRp856
(dp857
g78
V10.1073/pnas.0502564102
p858
sg74
VP NATL ACAD SCI USA
p859
sg76
V102
p860
sg109
(lp861
(VRAYNAUD
VC
tp862
asg28
I2005
sg70
V8216
p863
sbag1
(g2
g3
NtRp864
(dp865
g78
V10.1038/35039665
p866
sg74
VNATURE
p867
sg76
V407
p868
sg109
(lp869
(VRIEBESELL
VU
tp870
asg28
I2000
sg70
V959
p871
sbag1
(g2
g3
NtRp872
(dp873
g78
V10.1104/pp.64.1.49
p874
sg74
VPLANT PHYSIOL
p875
sg76
V64
p876
sg109
(lp877
(VRIPER
VD M
tp878
asg28
I1979
sg70
VLANT
p879
sbag1
(g2
g3
NtRp880
(dp881
g78
V10.1007/s11120-007-9172-2
p882
sg74
VPHOTOSYNTH RES
p883
sg76
V93
p884
sg109
(lp885
(VROBERTS
VK
tp886
asg28
I2007
sg70
VHOTOSYNTH
p887
sbag1
(g2
g3
NtRp888
(dp889
g78
V10.1093/nar/26.7.1628
p890
sg74
VNUCLEIC ACIDS RES
p891
sg76
V26
p892
sg109
(lp893
(VROSE
VT M
tp894
asg28
I1998
sg70
V1628
p895
sbag1
(g2
g3
NtRp896
(dp897
g78
V10.1007/s11120-004-1456-1
p898
sg74
VPHOTOSYNTH RES
p899
sg76
V82
p900
sg109
(lp901
(VRUBAN
VA V
tp902
asg28
I2004
sg70
VHOTOSYNTH
p903
sbag1
(g2
g3
NtRp904
(dp905
g78
Nsg74
VBIOTECHNIQUES
p906
sg76
V34
p907
sg109
(lp908
(VSAEED
VA I
tp909
asg28
I2003
sg70
V374
p910
sbag1
(g2
g3
NtRp911
(dp912
g78
V10.1016/j.seares.2004.01.007
p913
sg74
VJ SEA RES
p914
sg76
V53
p915
sg109
(lp916
(VSARTHOU
VG
tp917
asg28
I2005
sg70
V25
p918
sbag1
(g2
g3
NtRp919
(dp920
g78
V10.1007/s11120-005-0479-6
p921
sg74
VPHOTOSYNTH RES
p922
sg76
V84
p923
sg109
(lp924
(VSETLIKOVA
VE
tp925
asg28
I2005
sg70
VHOTOSYNTH
p926
sbag1
(g2
g3
NtRp927
(dp928
g78
V10.1016/S1074-5521(01)00072-2
p929
sg74
VCHEM BIOL
p930
sg76
V8
sg109
(lp931
(VSHIMIZU
VK
tp932
asg28
I2001
sg70
V1051
p933
sbag1
(g2
g3
NtRp934
(dp935
g78
V10.1016/j.gene.2007.05.022
p936
sg74
VGENE
p937
sg76
V406
p938
sg109
(lp939
(VSIAUT
VM
tp940
asg28
I2007
sg70
V23
p941
sbag1
(g2
g3
NtRp942
(dp943
g78
V10.1111/j.1567-1364.2007.00266.x
p944
sg74
VFEMS YEAST RES
p945
sg76
V7
sg109
(lp946
(VSIPICZKI
VM
tp947
asg28
I2007
sg70
V761
p948
sbag1
(g2
g3
NtRp949
(dp950
g78
V10.2307/2440138
p951
sg74
VAM J BOT
p952
sg76
V52
p953
sg109
(lp954
(VSTOERMER
VE F
tp955
asg28
I1965
sg70
V1067
p956
sbag1
(g2
g3
NtRp957
(dp958
g78
Nsg74
VMOL GEN GENET
p959
sg76
V264
p960
sg109
(lp961
(VTAKAHARA
VM
tp962
asg28
I2000
sg70
V452
p963
sbag1
(g2
g3
NtRp964
(dp965
g78
V10.1016/S0955-0674(00)00153-8
p966
sg74
VCURR OPIN CELL BIOL
p967
sg76
V12
p968
sg109
(lp969
(VTAKISAWA
VH
tp970
asg28
I2000
sg70
V690
p971
sbag1
(g2
g3
NtRp972
(dp973
g78
V10.1146/annurev.pp.17.060166.000245
p974
sg74
VANN REV PLANT PHYSIO
p975
sg76
V17
p976
sg109
(lp977
(VTAMIYA
VH
tp978
asg28
I1966
sg70
V1
sbag1
(g2
g3
NtRp979
(dp980
g78
V10.1111/j.0022-3646.1996.00080.x
p981
sg74
VJ PHYCOL
p982
sg76
V32
p983
sg109
(lp984
(VTANG
VE P Y
tp985
asg28
I1996
sg70
V80
p986
sbag1
(g2
g3
NtRp987
(dp988
g78
V10.1111/j.1529-8817.2008.00531.x
p989
sg74
VJ PHYCOL
p990
sg76
V44
p991
sg109
(lp992
(VTHOMPSON
VS E M
tp993
asg28
I2008
sg70
V967
p994
sbag1
(g2
g3
NtRp995
(dp996
g78
V10.1006/bbrc.1997.6865
p997
sg74
VBIOCHEM BIOPH RES CO
p998
sg76
V236
p999
sg109
(lp1000
(VTSURUGA
VH
tp1001
asg28
I1997
sg70
V118
p1002
sbag1
(g2
g3
NtRp1003
(dp1004
g78
V10.1016/S0981-9428(03)00028-7
p1005
sg74
VPLANT PHYSIOL BIOCH
p1006
sg76
V41
p1007
sg109
(lp1008
(VTUKAJ
VZ
tp1009
asg28
I2003
sg70
VLANT
p1010
sbag1
(g2
g3
NtRp1011
(dp1012
g78
VDOI 10.1186/GB-2002-3-7-RESEARCH0034
p1013
sg74
VGENOME BIOL
p1014
sg76
V3
sg109
(lp1015
(VVANDESOMPELE
VJ
tp1016
asg28
I2002
sg70
V3431
p1017
sbag1
(g2
g3
NtRp1018
(dp1019
g78
V10.1016/0014-4827(86)90202-8
p1020
sg74
VEXP CELL RES
p1021
sg76
V167
p1022
sg109
(lp1023
(VVAULOT
VD
tp1024
asg28
I1986
sg70
V38
p1025
sbag1
(g2
g3
NtRp1026
(dp1027
g78
V10.1105/tpc.7.7.1039
p1028
sg74
VPLANT CELL
p1029
sg76
V7
sg109
(lp1030
(VVON
VWETTSTEIN D
tp1031
asg28
I1995
sg70
VLANT
p1032
sbag1
(g2
g3
NtRp1033
(dp1034
g78
V10.1111/j.1365-313X.2005.02630.x
p1035
sg74
VPLANT J
p1036
sg76
V45
p1037
sg109
(lp1038
(VVUYLSTEKE
VM
tp1039
asg28
I2006
sg70
VLANT
p1040
sbag1
(g2
g3
NtRp1041
(dp1042
g78
V10.1038/nprot.2007.174
p1043
sg74
VNAT PROTOC
p1044
sg76
V2
sg109
(lp1045
(VVUYLSTEKE
VM
tp1046
asg28
I2007
sg70
V1399
p1047
sbag1
(g2
g3
NtRp1048
(dp1049
g78
V10.1111/j.1365-2958.2005.04673.x
p1050
sg74
VMOL MICROBIOL
p1051
sg76
V57
p1052
sg109
(lp1053
(VWEART
VR B
tp1054
asg28
I2005
sg70
V238
p1055
sbag1
(g2
g3
NtRp1056
(dp1057
g78
V10.1046/j.1529-8817.1998.340009.x
p1058
sg74
VJ PHYCOL
p1059
sg76
V34
p1060
sg109
(lp1061
(VWETHERBEE
VR
tp1062
asg28
I1998
sg70
V9
sbag1
(g2
g3
NtRp1063
(dp1064
g78
V10.1016/j.protis.2006.02.003
p1065
sg74
VPROTIST
p1066
sg76
V157
p1067
sg109
(lp1068
(VWILHELM
VC
tp1069
asg28
I2006
sg70
VROTIST
p1070
sbag1
(g2
g3
NtRp1071
(dp1072
g78
V10.1104/pp.81.2.548
p1073
sg74
VPLANT PHYSIOL
p1074
sg76
V81
p1075
sg109
(lp1076
(VWINTER
VJ
tp1077
asg28
I1986
sg70
VLANT
p1078
sbag1
(g2
g3
NtRp1079
(dp1080
g78
V10.1104/pp.106.088963
p1081
sg74
VPLANT PHYSIOL
p1082
sg76
V142
p1083
sg109
(lp1084
(VWOLFE-SIMON
VF
tp1085
asg28
I2006
sg70
VLANT
p1086
sbag1
(g2
g3
NtRp1087
(dp1088
g78
Nsg74
VPHYTOPLANKTON PIGMEN
p1089
sg76
Nsg109
(lp1090
(VWRIGHT
VS W
tp1091
asg28
I1997
sg70
VHYTOPLANKTON
p1092
sbag1
(g2
g3
NtRp1093
(dp1094
g78
V10.1111/j.1365-2958.2005.04507.x
p1095
sg74
VMOL MICROBIOL
p1096
sg76
V55
p1097
sg109
(lp1098
(VYEONG
VF M
tp1099
asg28
I2005
sg70
V1325
p1100
sbag1
(g2
g3
NtRp1101
(dp1102
g78
V10.1126/science.146.3648.1172
p1103
sg74
VSCIENCE
p1104
sg76
V146
p1105
sg109
(lp1106
(VYOUNG
VC W
tp1107
asg28
I1964
sg70
V1172
p1108
sbag1
(g2
g3
NtRp1109
(dp1110
g78
V10.1104/pp.010709
p1111
sg74
VPLANT PHYSIOL
p1112
sg76
V127
p1113
sg109
(lp1114
(VZURZOLO
VC
tp1115
asg28
I2001
sg70
VLANT
p1116
sbasb.