ccopy_reg
_reconstructor
p1
(ctethne.classes.paper
Paper
p2
c__builtin__
object
p3
NtRp4
(dp5
S'publisherCity'
p6
VROCKVILLE
p7
sS'reprintAddress'
p8
VKoornneef, M (reprint author), Univ Wageningen & Res Ctr, Genet Lab, Arboretumlaan 4, NL-6703 BD Wageningen, Netherlands.
p9
sS'WC'
p10
VPlant Sciences
p11
sS'GA'
p12
V717FT
p13
sS'abstract'
p14
VSeeds are usually stored in physiological conditions in which they gradually lose their viability and vigor depending on storage conditions, storage time, and genotype. Very little is known about the underlying genetics of seed storability and seed deterioration. We analyzed a mutant in Arabidopsis disturbed in seed storability. This mutant was isolated as a grs (green-seeded) mutant in an abi3-1 (abscisic acid 3) mutant background. Genetic and physiological characterization showed that the monogenic grs mutant was not visibly green seeded and mapped on chromosome 4. This enhancer mutation did not affect the ABA sensitivity of seed germination or seed dormancy but was found to affect seed storability and seedling vigor. Seed storability was assessed in a controlled deterioration test, in which the germination capacity of the mutant decreased with the duration of the treatment. The decrease in viability and vigor was confirmed by storing the seeds in two relative humidities (RHs) for a prolonged period. At 60% RH, the mutant lost germinability, but storage at 32% RH showed no decrease of germination although seed vigor decreased. The decrease in viability and vigor could be related to an increase in conductivity, suggesting membrane deterioration. This was not affected by light conditions during imbibition, expected to influence the generation of active oxygen species. During seed maturation, ABI3 regulates several processes: acquiring dormancy and long-term storability and loss of chlorophyll. Our results indicate that GRS is a common regulator in the latter two but not of dormancy/germination.
p15
sS'pageEnd'
p16
I1084
sS'publisherAddress'
p17
V15501 MONONA DRIVE, ROCKVILLE, MD 20855 USA
p18
sS'documentType'
p19
VArticle
p20
sS'subject'
p21
VPlant Sciences
p22
sS'isoSource'
p23
VPlant Physiol.
p24
sS'timesCited'
p25
(lp26
I14
aVZ9 14
p27
asS'PT'
p28
VJ
sS'title'
p29
VCharacterization Of Green Seed, An Enhancer Of Abi3-1 In Arabidopsis That Affects Seed Longevity
p30
sS'ISSN'
p31
(lp32
V0032-0889
p33
aVJ9 PLANT PHYSIOL
p34
asS'authors_full'
p35
(lp36
(VCLERKX
VEJM
tp37
a(VBLANKESTIJNDE VRIES
VH
tp38
a(VRUYS
VGJ
tp39
a(VGROOT
VSPC
tp40
a(VKOORNNEEF
VM
tp41
asS'PG'
p42
I8
sS'PD'
p43
VJUN
p44
sS'pageStart'
p45
I1077
sS'issue'
p46
I2
sS'journal'
p47
VPLANT PHYSIOLOGY
p48
sS'volume'
p49
V132
p50
sS'doi'
p51
V10.1104/pp.103.022715
p52
sS'emailAddress'
p53
Vmaarten.koornneef@wur.nl
p54
sS'authorAddress'
p55
(lp56
VUniv Wageningen & Res Ctr, Genet Lab, NL-6703 BD Wageningen, Netherlands.
p57
aVUniv Wageningen & Res Ctr, Grad Sch Expt Plant Sci, NL-6700 AA Wageningen, Netherlands.
p58
aVUniv Wageningen & Res Ctr, Plant Res Int, NL-6700 AA Wageningen, Netherlands.
p59
asS'date'
p60
I2003
sS'ER'
p61
V
sS'publisher'
p62
VAMER SOC PLANT BIOLOGISTS
p63
sS'authorKeywords'
p64
(lp65
VABSCISIC-ACID BIOSYNTHESIS
p66
aVCHLOROPHYLL DEGRADATION
p67
aVPROTEIN ACCUMULATION
p68
aVSIGNAL-TRANSDUCTION
p69
aVSTAY-GREEN
p70
aVMUTANTS
p71
aVTHALIANA
p72
aVQUALITY
p73
aVGENE
p74
aVDETERIORATION
p75
asS'language'
p76
VEnglish
p77
sS'wosid'
p78
VWOS:000185076600068
p79
sS'citationCount'
p80
I41
sS'authors_init'
p81
(lp82
(VCLERKX
VE J M
tp83
a(VBLANKESTIJNDE VRIES
VH
tp84
a(VRUYS
VG J
tp85
a(VGROOT
VS P C
tp86
a(VKOORNNEEF
VM
tp87
asS'citedReferences'
p88
(lp89
g1
(g2
g3
NtRp90
(dp91
g51
Nsg47
VJ EXP BOT
p92
sg49
V52
p93
sg81
(lp94
(VBAILLY
VC
tp95
asg60
I2001
sg45
V701
p96
sbag1
(g2
g3
NtRp97
(dp98
g51
Nsg47
VTHESIS WAGENINGEN U
p99
sg49
Nsg81
(lp100
(VBENTSINK
VL
tp101
asg60
I2002
sg45
Nsbag1
(g2
g3
NtRp102
(dp103
g51
V10.1007/BF00288567
p104
sg47
VTHEOR APPL GENET
p105
sg49
V72
p106
sg81
(lp107
(VBERNATZKY
VR
tp108
asg60
I1986
sg45
V314
p109
sbag1
(g2
g3
NtRp110
(dp111
g51
V10.1023/A:1006252512202
p112
sg47
VPLANT MOL BIOL
p113
sg49
V40
p114
sg81
(lp115
(VBIES-ETHEVE
VN
tp116
asg60
I1999
sg45
VLANT
p117
sbag1
(g2
g3
NtRp118
(dp119
g51
Nsg47
VPLANT PHYSIOL
p120
sg49
V107
p121
sg81
(lp122
(VCHAO
VW S
tp123
asg60
I1995
sg45
VLANT
p124
sbag1
(g2
g3
NtRp125
(dp126
g51
Nsg47
VHORTSCIENCE
p127
sg49
V15
p128
sg81
(lp129
(VDICKSON
VM H
tp130
asg60
I1980
sg45
V771
p131
sbag1
(g2
g3
NtRp132
(dp133
g51
V10.1105/tpc.010441
p134
sg47
VPLANT CELL
p135
sg49
V14
p136
sg81
(lp137
(VFINKELSTEIN
VR R
tp138
asg60
I2002
sg45
VLANT
p139
sbag1
(g2
g3
NtRp140
(dp141
g51
Nsg47
VHDB VIGOUR TEST METH
p142
sg49
Nsg81
(lp143
(VHAMPTON
VJ G
tp144
asg60
I1995
sg45
V117
p145
sbag1
(g2
g3
NtRp146
(dp147
g51
V10.1016/0003-9861(68)90654-1
p148
sg47
VARCH BIOCHEM BIOPHYS
p149
sg49
V125
p150
sg81
(lp151
(VHEATH
VR L
tp152
asg60
I1968
sg45
V189
p153
sbag1
(g2
g3
NtRp154
(dp155
g51
Nsg47
VCURR PLANT SCI BIOT
p156
sg49
V30
p157
sg81
(lp158
(VHENDRY
VG A F
tp159
asg60
I1997
sg45
V657
p160
sbag1
(g2
g3
NtRp161
(dp162
g51
V10.1016/S1360-1385(99)01429-6
p163
sg47
VTRENDS PLANT SCI
p164
sg49
V4
sg81
(lp165
(VHOLDSWORTH
VM
tp166
asg60
I1999
sg45
V275
p167
sbag1
(g2
g3
NtRp168
(dp169
g51
Nsg47
VTHESIS WAGENINGEN U
p170
sg49
Nsg81
(lp171
(VILLIPRONTI
VR A
tp172
asg60
I1997
sg45
Nsbag1
(g2
g3
NtRp173
(dp174
g51
Nsg47
VSEED SCI RES
p175
sg49
V8
sg81
(lp176
(VJALINK
VH
tp177
asg60
I1998
sg45
V437
p178
sbag1
(g2
g3
NtRp179
(dp180
g51
Nsg47
VJ PLANT PHYSIOL
p181
sg49
V136
p182
sg81
(lp183
(VJOHNSONFLANAGAN
VA M
tp184
asg60
I1990
sg45
V180
p185
sbag1
(g2
g3
NtRp186
(dp187
g51
Nsg47
VCROP SCI
p188
sg49
V34
p189
sg81
(lp190
(VJOHNSONFLANAGAN
VA M
tp191
asg60
I1994
sg45
V1618
p192
sbag1
(g2
g3
NtRp193
(dp194
g51
V10.1016/S0981-9428(98)80093-4
p195
sg47
VPLANT PHYSIOL BIOCH
p196
sg49
V36
p197
sg81
(lp198
(VKOORNNEEF
VM
tp199
asg60
I1998
sg45
VLANT
p200
sbag1
(g2
g3
NtRp201
(dp202
g51
V10.1104/pp.90.2.463
p203
sg47
VPLANT PHYSIOL
p204
sg49
V90
p205
sg81
(lp206
(VKOORNNEEF
VM
tp207
asg60
I1989
sg45
VLANT
p208
sbag1
(g2
g3
NtRp209
(dp210
g51
Nsg47
VCURR PLANT SCI BIOT
p211
sg49
V12
p212
sg81
(lp213
(VKWONG
VF Y
tp214
asg60
I1991
sg45
V13
p215
sbag1
(g2
g3
NtRp216
(dp217
g51
V10.1104/pp.110.1.233
p218
sg47
VPLANT PHYSIOL
p219
sg49
V110
p220
sg81
(lp221
(VLEONKLOOSTERZIEL
VK M
tp222
asg60
I1996
sg45
VLANT
p223
sbag1
(g2
g3
NtRp224
(dp225
g51
V10.1146/annurev.arplant.49.1.199
p226
sg47
VANNU REV PLANT PHYS
p227
sg49
V49
p228
sg81
(lp229
(VLEUNG
VJ
tp230
asg60
I1998
sg45
V199
p231
sbag1
(g2
g3
NtRp232
(dp233
g51
V10.1105/tpc.10.2.267
p234
sg47
VPLANT CELL
p235
sg49
V10
p236
sg81
(lp237
(VLU
VY P
tp238
asg60
I1998
sg45
VLANT
p239
sbag1
(g2
g3
NtRp240
(dp241
g51
Nsg47
VSEED SCI TECHNOL
p242
sg49
V27
p243
sg81
(lp244
(VMCDONALD
VM B
tp245
asg60
I1999
sg45
V177
p246
sbag1
(g2
g3
NtRp247
(dp248
g51
V10.1105/tpc.6.8.1049
p249
sg47
VPLANT CELL
p250
sg49
V6
sg81
(lp251
(VMEINKE
VD W
tp252
asg60
I1994
sg45
VLANT
p253
sbag1
(g2
g3
NtRp254
(dp255
g51
V10.1104/pp.014134
p256
sg47
VPLANT PHYSIOL
p257
sg49
V131
p258
sg81
(lp259
(VMEINKE
VD W
tp260
asg60
I2003
sg45
VLANT
p261
sbag1
(g2
g3
NtRp262
(dp263
g51
Nsg47
VIDS BULL
p264
sg49
V31
p265
sg81
(lp266
(VMOORE
VM
tp267
asg60
I2000
sg45
V21
p268
sbag1
(g2
g3
NtRp269
(dp270
g51
V10.1111/j.1365-313X.1992.00435.x
p271
sg47
VPLANT J
p272
sg49
V2
sg81
(lp273
(VNAMBARA
VE
tp274
asg60
I1992
sg45
VLANT
p275
sbag1
(g2
g3
NtRp276
(dp277
g51
Nsg47
VDEVELOPMENT
p278
sg49
V121
p279
sg81
(lp280
(VNAMBARA
VE
tp281
asg60
I1995
sg45
V629
p282
sbag1
(g2
g3
NtRp283
(dp284
g51
Nsg47
VPLANT PHYSIOL
p285
sg49
V102
p286
sg81
(lp287
(VOOMS
VJ J J
tp288
asg60
I1993
sg45
VLANT
p289
sbag1
(g2
g3
NtRp290
(dp291
g51
V10.1038/nrg730
p292
sg47
VNAT REV GENET
p293
sg49
V3
sg81
(lp294
(VPAGE
VD R
tp295
asg60
I2002
sg45
V124
p296
sbag1
(g2
g3
NtRp297
(dp298
g51
Nsg47
VSEED ANAL
p299
sg49
V14
p300
sg81
(lp301
(VPANDEY
VD K
tp302
asg60
I1992
sg45
V273
p303
sbag1
(g2
g3
NtRp304
(dp305
g51
Nsg47
VPLANT CELL
p306
sg49
V9
sg81
(lp307
(VPARCY
VF
tp308
asg60
I1997
sg45
VLANT
p309
sbag1
(g2
g3
NtRp310
(dp311
g51
Nsg47
VPLANT CELL
p312
sg49
V6
sg81
(lp313
(VPARCY
VF
tp314
asg60
I1994
sg45
VLANT
p315
sbag1
(g2
g3
NtRp316
(dp317
g51
V10.1034/j.1399-3054.2002.1150415.x
p318
sg47
VPHYSIOL PLANTARUM
p319
sg49
V115
p320
sg81
(lp321
(VPEETERS
VA J M
tp322
asg60
I2002
sg45
VHYSIOL
p323
sbag1
(g2
g3
NtRp324
(dp325
g51
V10.1111/j.1744-7348.1989.tb06798.x
p326
sg47
VANN APPL BIOL
p327
sg49
V114
p328
sg81
(lp329
(VSTECKEL
VJ R A
tp330
asg60
I1989
sg45
V177
p331
sbag1
(g2
g3
NtRp332
(dp333
g51
Nsg47
VSEED SCI TECHNOL
p334
sg49
V30
p335
sg81
(lp336
(VTESNIER
VK
tp337
asg60
I2002
sg45
V149
p338
sbag1
(g2
g3
NtRp339
(dp340
g51
V10.1093/jexbot/53.370.801
p341
sg47
VJ EXP BOT
p342
sg49
V53
p343
sg81
(lp344
(VTHOMAS
VH
tp345
asg60
I2002
sg45
V801
p346
sbag1
(g2
g3
NtRp347
(dp348
g51
Nsg47
VBOT ACTA
p349
sg49
V109
p350
sg81
(lp351
(VTHOMAS
VH
tp352
asg60
I1996
sg45
V3
sbag1
(g2
g3
NtRp353
(dp354
g51
V10.1111/j.1744-7348.1993.tb04086.x
p355
sg47
VANN APPL BIOL
p356
sg49
V123
p357
sg81
(lp358
(VTHOMAS
VH
tp359
asg60
I1993
sg45
V193
p360
sbag1
(g2
g3
NtRp361
(dp362
g51
V10.1073/pnas.96.26.15362
p363
sg47
VP NATL ACAD SCI USA
p364
sg49
V96
p365
sg81
(lp366
(VTSUCHIYA
VT
tp367
asg60
I1999
sg45
V15362
p368
sbag1
(g2
g3
NtRp369
(dp370
g51
Nsg47
VCAN J PLANT SCI
p371
sg49
V75
p372
sg81
(lp373
(VWARD
VK
tp374
asg60
I1995
sg45
V413
p375
sbag1
(g2
g3
NtRp376
(dp377
g51
V10.1046/j.1365-313x.2000.00667.x
p378
sg47
VPLANT J
p379
sg49
V21
p380
sg81
(lp381
(VWUTHRICH
VK L
tp382
asg60
I2000
sg45
VLANT
p383
sbasb.