ccopy_reg
_reconstructor
p1
(ctethne.classes.paper
Paper
p2
c__builtin__
object
p3
NtRp4
(dp5
S'publisherCity'
p6
VROCKVILLE
p7
sS'reprintAddress'
p8
VSteup, M (reprint author), Univ Potsdam, Dept Plant Physiol, D-14476 Potsdam Golm, Germany.
p9
sS'WC'
p10
VPlant Sciences
p11
sS'GA'
p12
V369UN
p13
sS'FX'
p14
(lp15
VThis work was supported by the Deutsche Forschungsgemeinschaft:
p16
aVSonderforschungsbereich 429 "Molecular Physiology, Energetics, and
p17
aVRegulation of Primary Metabolism in Plants," Teilprojekte A11 (A. R.
p18
aVF.), and B2 (J.F. and M. Steup).
p19
asS'abstract'
p20
VThe cytosolic pools of glucose-1-phosphate (Glc-1-P) and glucose-6-phosphate are essential intermediates in several biosynthetic paths, including the formation of sucrose and cell wall constituents, and they are also linked to the cytosolic starch-related heteroglycans. In this work, structural features and biochemical properties of starch-related heteroglycans were analyzed as affected by the cytosolic glucose monophosphate metabolism using both source and sink organs from wild-type and various transgenic potato (Solanum tuberosum) plants. In leaves, increased levels of the cytosolic phosphoglucomutase (cPGM) did affect the cytosolic heteroglycans, as both the glucosyl content and the size distribution were diminished. By contrast, underexpression of cPGM resulted in an unchanged size distribution and an unaltered or even increased glucosyl content of the heteroglycans. Heteroglycans prepared from potato tubers were found to be similar to those from leaves but were not significantly affected by the level of cPGM activity. However, external glucose or Glc-1-P exerted entirely different effects on the cytosolic heteroglycans when added to tuber discs. Glucose was directed mainly toward starch and cell wall material, but incorporation into the constituents of the cytosolic heteroglycans was very low and roughly reflected the relative monomeric abundance. By contrast, Glc-1-P was selectively taken up by the tuber discs and resulted in a fast increase in the glucosyl content of the heteroglycans that quantitatively reflected the level of the cytosolic phosphorylase activity. Based on C-14 labeling experiments, we propose that in the cytosol, glucose and Glc-1-P are metabolized by largely separated paths.
p21
sS'pageEnd'
p22
I1629
sS'date'
p23
I2008
sS'documentType'
p24
VArticle
p25
sS'subject'
p26
VPlant Sciences
p27
sS'isoSource'
p28
VPlant Physiol.
p29
sS'timesCited'
p30
(lp31
I14
aVZ9 15
p32
asS'funding'
p33
(lp34
(VDeutsche Forschungsgemeinschaft: Sonderforschungsbereich 429
Ntp35
a(VTeilprojekte A11
Ntp36
a(VB2
Ntp37
asS'PT'
p38
VJ
sS'title'
p39
VAlterations In Cytosolic Glucose-Phosphate Metabolism Affect Structural Features And Biochemical Properties Of Starch-Related Heteroglycans
p40
sS'ISSN'
p41
(lp42
V0032-0889
p43
aVJ9 PLANT PHYSIOL
p44
asS'authors_full'
p45
(lp46
(VFETTKE
VJOERG
tp47
a(VNUNESNESI
VADRIANO
tp48
a(VALPERS
VJESSICA
tp49
a(VSZKOP
VMICHAL
tp50
a(VFERNIE
VALISDAIR R
tp51
a(VSTEUP
VMARTIN
tp52
asS'PG'
p53
I16
sS'PD'
p54
VNOV
p55
sS'pageStart'
p56
I1614
sS'issue'
p57
I3
sS'RI'
p58
VNunes-Nesi, Adriano/D-6430-2013
p59
sS'journal'
p60
VPLANT PHYSIOLOGY
p61
sS'volume'
p62
V148
p63
sS'doi'
p64
V10.1104/pp.108.127969
p65
sS'emailAddress'
p66
Vmsteup@rz.uni-potsdam.de
p67
sS'authorAddress'
p68
(lp69
V[Fettke, Joerg; Alpers, Jessica; Szkop, Michal; Steup, Martin] Univ Potsdam, Dept Plant Physiol, D-14476 Potsdam Golm, Germany.
p70
aV[Nunes-Nesi, Adriano; Fernie, Alisdair R.] Univ Potsdam, Max Planck Inst Mol Plant Physiol, D-14476 Potsdam Golm, Germany.
p71
asS'publisherAddress'
p72
V15501 MONONA DRIVE, ROCKVILLE, MD 20855 USA
p73
sS'ER'
p74
V
sS'publisher'
p75
VAMER SOC PLANT BIOLOGISTS
p76
sS'authorKeywords'
p77
(lp78
VGROWING POTATO-TUBERS
p79
aVPHO-2 PHOSPHORYLASE ISOZYME
p80
aVARABIDOPSIS-THALIANA L
p81
aVWATER DIKINASE
p82
aVPLASTIDIAL PHOSPHOGLUCOMUTASE
p83
aVSUBCELLULAR-LOCALIZATION
p84
aVANTISENSE REPRESSION
p85
aVMALTOSE METABOLISM
p86
aVBETA-AMYLASES
p87
aVWILD-TYPE
p88
asS'language'
p89
VEnglish
p90
sS'wosid'
p91
VWOS:000260719500035
p92
sS'citationCount'
p93
I57
sS'authors_init'
p94
(lp95
(VFETTKE
VJ
tp96
a(VNUNESNESI
VA
tp97
a(VALPERS
VJ
tp98
a(VSZKOP
VM
tp99
a(VFERNIE
VA R
tp100
a(VSTEUP
VM
tp101
asS'citedReferences'
p102
(lp103
g1
(g2
g3
NtRp104
(dp105
g64
V10.1007/s004250050122
p106
sg60
VPLANTA
p107
sg62
V202
p108
sg94
(lp109
(VAPPELDOORN
VN J G
tp110
asg23
I1997
sg56
VLANTA
p111
sbag1
(g2
g3
NtRp112
(dp113
g64
V10.1111/j.1432-1033.1988.tb14301.x
p114
sg60
VEUR J BIOCHEM
p115
sg62
V176
p116
sg94
(lp117
(VBAJORATH
VJ
tp118
asg23
I1988
sg56
V441
p119
sbag1
(g2
g3
NtRp120
(dp121
g64
V10.1126/science.250.4983.959
p122
sg60
VSCIENCE
p123
sg62
V250
p124
sg94
(lp125
(VBENFEY
VP N
tp126
asg23
I1990
sg56
V959
p127
sbag1
(g2
g3
NtRp128
(dp129
g64
Nsg60
VANAL BIOCHEM
p130
sg62
V72
p131
sg94
(lp132
(VBRADFORD
VM M
tp133
asg23
I1976
sg56
V254
p134
sbag1
(g2
g3
NtRp135
(dp136
g64
V10.1104/pp.106.088534
p137
sg60
VPLANT PHYSIOL
p138
sg62
V142
p139
sg94
(lp140
(VCARRARI
VF
tp141
asg23
I2006
sg56
VLANT
p142
sbag1
(g2
g3
NtRp143
(dp144
g64
V10.1104/pp.79.1.11
p145
sg60
VPLANT PHYSIOL
p146
sg62
V79
p147
sg94
(lp148
(VCASPAR
VT
tp149
asg23
I1985
sg56
VLANT
p150
sbag1
(g2
g3
NtRp151
(dp152
g64
V10.1111/j.1365-313X.2003.02012.x
p153
sg60
VPLANT J
p154
sg62
V37
p155
sg94
(lp156
(VCHIA
VT
tp157
asg23
I2004
sg56
VLANT
p158
sbag1
(g2
g3
NtRp159
(dp160
g64
Nsg60
VPLANT J
p161
sg62
V26
p162
sg94
(lp163
(VCHRITCHLEY
VJ H
tp164
asg23
I2001
sg56
VLANT
p165
sbag1
(g2
g3
NtRp166
(dp167
g64
V10.1111/j.1749-6632.1964.tb14213.x
p168
sg60
VANN NY ACAD SCI
p169
sg62
V121
p170
sg94
(lp171
(VDAVIS
VB J
tp172
asg23
I1964
sg56
V404
p173
sbag1
(g2
g3
NtRp174
(dp175
g64
V10.1093/molbev/msm280
p176
sg60
VMOL BIOL EVOL
p177
sg62
V25
p178
sg94
(lp179
(VDESCHAMPS
VP
tp180
asg23
I2008
sg56
V536
p181
sbag1
(g2
g3
NtRp182
(dp183
g64
V10.1105/tpc.106.044073
p184
sg60
VPLANT CELL
p185
sg62
V18
p186
sg94
(lp187
(VDEUSCHLE
VK
tp188
asg23
I2006
sg56
VLANT
p189
sbag1
(g2
g3
NtRp190
(dp191
g64
V10.1006/abio.2002.5628
p192
sg60
VANAL BIOCHEM
p193
sg62
V304
p194
sg94
(lp195
(VECKERMANN
VN
tp196
asg23
I2002
sg56
V180
p197
sbag1
(g2
g3
NtRp198
(dp199
g64
V10.1104/pp.107.104224
p200
sg60
VPLANT PHYSIOL
p201
sg62
V145
p202
sg94
(lp203
(VEDNER
VC
tp204
asg23
I2007
sg56
VLANT
p205
sbag1
(g2
g3
NtRp206
(dp207
g64
V10.1104/pp.127.2.685
p208
sg60
VPLANT PHYSIOL
p209
sg62
V127
p210
sg94
(lp211
(VFARRE
VE M
tp212
asg23
I2001
sg56
VLANT
p213
sbag1
(g2
g3
NtRp214
(dp215
g64
V10.1016/S0981-9428(02)01457-2
p216
sg60
VPLANT PHYSIOL BIOCH
p217
sg62
V40
p218
sg94
(lp219
(VFERNIE
VA R
tp220
asg23
I2002
sg56
VLANT
p221
sbag1
(g2
g3
NtRp222
(dp223
g64
V10.1104/pp.125.4.1967
p224
sg60
VPLANT PHYSIOL
p225
sg62
V125
p226
sg94
(lp227
(VFERNIE
VA R
tp228
asg23
I2001
sg56
VLANT
p229
sbag1
(g2
g3
NtRp230
(dp231
g64
V10.1007/s004250100644
p232
sg60
VPLANTA
p233
sg62
V214
p234
sg94
(lp235
(VFERNIE
VA R
tp236
asg23
I2002
sg56
VLANTA
p237
sbag1
(g2
g3
NtRp238
(dp239
g64
Nsg60
VCELL MOL BIOL
p240
sg62
V52
p241
sg94
(lp242
(VFETTKE
VJ
tp243
asg23
I2007
sg56
VOL883
p244
sbag1
(g2
g3
NtRp245
(dp246
g64
V10.1093/pcp/pci214
p247
sg60
VPLANT CELL PHYSIOL
p248
sg62
V46
p249
sg94
(lp250
(VFETTKE
VJ
tp251
asg23
I2005
sg56
VLANT
p252
sbag1
(g2
g3
NtRp253
(dp254
g64
V10.1111/j.1365-313X.2004.02181.x
p255
sg60
VPLANT J
p256
sg62
V39
p257
sg94
(lp258
(VFETTKE
VJ
tp259
asg23
I2004
sg56
VLANT
p260
sbag1
(g2
g3
NtRp261
(dp262
g64
V10.1111/j.1365-313X.2005.02475.x
p263
sg60
VPLANT J
p264
sg62
V43
p265
sg94
(lp266
(VFETTKE
VJ
tp267
asg23
I2005
sg56
VLANT
p268
sbag1
(g2
g3
NtRp269
(dp270
g64
V10.1111/j.1365-313X.2006.02732.x
p271
sg60
VPLANT J
p272
sg62
V46
p273
sg94
(lp274
(VFETTKE
VJ
tp275
asg23
I2006
sg56
VLANT
p276
sbag1
(g2
g3
NtRp277
(dp278
g64
V10.1105/tpc.107.056507
p279
sg60
VPLANT CELL
p280
sg62
V20
p281
sg94
(lp282
(VFULTON
VD C
tp283
asg23
I2008
sg56
VLANT
p284
sbag1
(g2
g3
NtRp285
(dp286
g64
V10.1111/j.1365-3040.2004.01183.x
p287
sg60
VPLANT CELL ENVIRON
p288
sg62
V27
p289
sg94
(lp290
(VGEIGENBERGER
VP
tp291
asg23
I2004
sg56
VLANT
p292
sbag1
(g2
g3
NtRp293
(dp294
g64
V10.1007/s004250050395
p295
sg60
VPLANTA
p296
sg62
V206
p297
sg94
(lp298
(VGEIGER
VM
tp299
asg23
I1998
sg56
VLANTA
p300
sbag1
(g2
g3
NtRp301
(dp302
g64
V10.1105/tpc.012500
p303
sg60
VPLANT CELL
p304
sg62
V15
p305
sg94
(lp306
(VGIEGE
VP
tp307
asg23
I2003
sg56
VLANT
p308
sbag1
(g2
g3
NtRp309
(dp310
g64
V10.1105/tpc.107.053371
p311
sg60
VPLANT CELL
p312
sg62
V19
p313
sg94
(lp314
(VGRAHAM
VJ W A
tp315
asg23
I2007
sg56
VLANT
p316
sbag1
(g2
g3
NtRp317
(dp318
g64
V10.1111/j.0960-7412.2008.03513.x
p319
sg60
VPLANT J
p320
sg62
V55
p321
sg94
(lp322
(VHEJAZI
VM
tp323
asg23
I2008
sg56
VLANT
p324
sbag1
(g2
g3
NtRp325
(dp326
g64
V10.1111/j.1399-3054.2005.00548.x
p327
sg60
VPHYSIOL PLANTARUM
p328
sg62
V125
p329
sg94
(lp330
(VHOLTGRAWE
VD
tp331
asg23
I2005
sg56
VHYSIOL
p332
sbag1
(g2
g3
NtRp333
(dp334
g64
V10.1007/PL00008698
p335
sg60
VMOL GEN GENET
p336
sg62
V263
p337
sg94
(lp338
(VKOFLER
VH
tp339
asg23
I2000
sg56
V978
p340
sbag1
(g2
g3
NtRp341
(dp342
g64
V10.1034/j.1399-3054.1994.910116.x
p343
sg60
VPHYSIOL PLANTARUM
p344
sg62
V91
p345
sg94
(lp346
(VKOSEGARTEN
VH
tp347
asg23
I1994
sg56
VHYSIOL
p348
sbag1
(g2
g3
NtRp349
(dp350
g64
Nsg60
VPLANTA
p351
sg62
V207
p352
sg94
(lp353
(VLU
VY
tp354
asg23
I2004
sg56
VLANTA
p355
sbag1
(g2
g3
NtRp356
(dp357
g64
V10.1093/pcp/pci058
p358
sg60
VPLANT CELL PHYSIOL
p359
sg62
V46
p360
sg94
(lp361
(VLYTOVCHENKO
VA
tp362
asg23
I2005
sg56
VLANT
p363
sbag1
(g2
g3
NtRp364
(dp365
g64
V10.1007/s00425-005-1490-z
p366
sg60
VPLANTA
p367
sg62
V221
p368
sg94
(lp369
(VLYTOVCHENKO
VA
tp370
asg23
I2005
sg56
VLANTA
p371
sbag1
(g2
g3
NtRp372
(dp373
g64
V10.1007/s00425-002-0826-1
p374
sg60
VPLANTA
p375
sg62
V215
p376
sg94
(lp377
(VLYTOVCHENKO
VA
tp378
asg23
I2002
sg56
VLANTA
p379
sbag1
(g2
g3
NtRp380
(dp381
g64
V10.1007/s00425-002-0810-9
p382
sg60
VPLANTA
p383
sg62
V215
p384
sg94
(lp385
(VLYTOVCHENKO
VA
tp386
asg23
I2002
sg56
VLANTA
p387
sbag1
(g2
g3
NtRp388
(dp389
g64
V10.1046/j.1365-313X.1997.11051095.x
p390
sg60
VPLANT J
p391
sg62
V11
p392
sg94
(lp393
(VNAEEM
VM
tp394
asg23
I1997
sg56
VLANT
p395
sbag1
(g2
g3
NtRp396
(dp397
g64
V10.1126/science.1091811
p398
sg60
VSCIENCE
p399
sg62
V303
p400
sg94
(lp401
(VNIITTYLA
VT
tp402
asg23
I2004
sg56
V87
p403
sbag1
(g2
g3
NtRp404
(dp405
g64
Nsg60
VINT REV CYTOL
p406
sg62
V174
p407
sg94
(lp408
(VNOTHNAGEL
VE A
tp409
asg23
I1997
sg56
V195
p410
sbag1
(g2
g3
NtRp411
(dp412
g64
V10.1016/j.pbi.2008.03.009
p413
sg60
VCURR OPIN PLANT BIOL
p414
sg62
V11
p415
sg94
(lp416
(VREITER
VW D
tp417
asg23
I2008
sg56
V236
p418
sbag1
(g2
g3
NtRp419
(dp420
g64
V10.1073/pnas.062053099
p421
sg60
VP NATL ACAD SCI USA
p422
sg62
V99
p423
sg94
(lp424
(VRITTE
VG
tp425
asg23
I2002
sg56
V7166
p426
sbag1
(g2
g3
NtRp427
(dp428
g64
V10.1016/j.pbi.2004.03.006
p429
sg60
VCURR OPIN PLANT BIOL
p430
sg62
V7
sg94
(lp431
(VSCHEIBLE
VW R
tp432
asg23
I2004
sg56
V285
p433
sbag1
(g2
g3
NtRp434
(dp435
g64
V10.1046/j.1365-313X.2002.01317.x
p436
sg60
VPLANT J
p437
sg62
V30
p438
sg94
(lp439
(VSCHEIDIG
VA
tp440
asg23
I2002
sg56
VLANT
p441
sbag1
(g2
g3
NtRp442
(dp443
g64
V10.1111/j.1365-3040.2007.01708.x
p444
sg60
VPLANT CELL ENVIRON
p445
sg62
V30
p446
sg94
(lp447
(VSMITH
VA M
tp448
asg23
I2007
sg56
VLANT
p449
sbag1
(g2
g3
NtRp450
(dp451
g64
V10.1146/annurev.arplant.56.032604.144257
p452
sg60
VANNU REV PLANT BIOL
p453
sg62
V56
p454
sg94
(lp455
(VSMITH
VA M
tp456
asg23
I2005
sg56
V73
p457
sbag1
(g2
g3
NtRp458
(dp459
g64
V10.1074/jbc.M803051200
p460
sg60
VJ BIOL CHEM
p461
sg62
V283
p462
sg94
(lp463
(VSTEICHEN
VJ M
tp464
asg23
I2008
sg56
V20797
p465
sbag1
(g2
g3
NtRp466
(dp467
g64
Nsg60
VMETHODS PLANT BIOCH
p468
sg62
V3
sg94
(lp469
(VSTEUP
VM
tp470
asg23
I1990
sg56
V103
p471
sbag1
(g2
g3
NtRp472
(dp473
g64
V10.1007/BF00379929
p474
sg60
VPLANTA
p475
sg62
V145
p476
sg94
(lp477
(VSTEUP
VM
tp478
asg23
I1979
sg56
VLANTA
p479
sbag1
(g2
g3
NtRp480
(dp481
g64
Nsg60
VPLANT CELL PHYSIOL
p482
sg62
V19
p483
sg94
(lp484
(VTAKAMIYA
VS
tp485
asg23
I1978
sg56
VLANT
p486
sbag1
(g2
g3
NtRp487
(dp488
g64
V10.1046/j.1365-313x.2000.00783.x
p489
sg60
VPLANT J
p490
sg62
V23
p491
sg94
(lp492
(VTAUBERGER
VE
tp493
asg23
I2000
sg56
VLANT
p494
sbag1
(g2
g3
NtRp495
(dp496
g64
V10.1105/tpc.13.2.385
p497
sg60
VPLANT CELL
p498
sg62
V13
p499
sg94
(lp500
(VVIOLA
VR
tp501
asg23
I2001
sg56
VLANT
p502
sbag1
(g2
g3
NtRp503
(dp504
g64
V10.1105/tpc.12.5.787
p505
sg60
VPLANT CELL
p506
sg62
V12
p507
sg94
(lp508
(VWEBER
VA
tp509
asg23
I2000
sg56
VLANT
p510
sbag1
(g2
g3
NtRp511
(dp512
g64
V10.1007/s00425-003-1128-y
p513
sg60
VPLANTA
p514
sg62
V218
p515
sg94
(lp516
(VWEISE
VS E
tp517
asg23
I2004
sg56
VLANTA
p518
sbag1
(g2
g3
NtRp519
(dp520
g64
Nsg60
VBIOCHEM J
p521
sg62
V85
p522
sg94
(lp523
(VYARIV
VJ
tp524
asg23
I1962
sg56
V383
p525
sbag1
(g2
g3
NtRp526
(dp527
g64
V10.1042/BJ20061393
p528
sg60
VBIOCHEM J
p529
sg62
V401
p530
sg94
(lp531
(VZEEMAN
VS C
tp532
asg23
I2007
sg56
V13
p533
sbag1
(g2
g3
NtRp534
(dp535
g64
V10.1071/FP06313
p536
sg60
VFUNCT PLANT BIOL
p537
sg62
V34
p538
sg94
(lp539
(VZEEMAN
VS C
tp540
asg23
I2007
sg56
V465
p541
sbag1
(g2
g3
NtRp542
(dp543
g64
V10.1111/j.1467-7652.2008.00332.x
p544
sg60
VPLANT BIOTECHNOL J
p545
sg62
V6
sg94
(lp546
(VZHANG
VL
tp547
asg23
I2008
sg56
VLANT
p548
sbasb.