ccopy_reg
_reconstructor
p1
(ctethne.classes.paper
Paper
p2
c__builtin__
object
p3
NtRp4
(dp5
S'publisherCity'
p6
VROCKVILLE
p7
sS'reprintAddress'
p8
VTranbarger, TJ (reprint author), Inst Rech Dev, UMR Divers & Adaptat & Dev Plantes, F-34394 Montpellier 5, France.
p9
sS'WC'
p10
VPlant Sciences
p11
sS'GA'
p12
V771HC
p13
sS'FX'
p14
(lp15
VThis work was supported by PalmElit SAS/Institut de Recherche pour le
p16
aVDeveloppement/Centre de Cooperation Internationale en Recherche
p17
aVAgronomique pour le Developpement.
p18
asS'abstract'
p19
VFruit provide essential nutrients and vitamins for the human diet. Not only is the lipid-rich fleshy mesocarp tissue of the oil palm (Elaeis guineensis) fruit the main source of edible oil for the world, but it is also the richest dietary source of provitamin A. This study examines the transcriptional basis of these two outstanding metabolic characters in the oil palm mesocarp. Morphological, cellular, biochemical, and hormonal features defined key phases of mesocarp development. A 454 pyrosequencing-derived transcriptome was then assembled for the developmental phases preceding and during maturation and ripening, when high rates of lipid and carotenoid biosynthesis occur. A total of 2,629 contigs with differential representation revealed coordination of metabolic and regulatory components. Further analysis focused on the fatty acid and triacylglycerol assembly pathways and during carotenogenesis. Notably, a contig similar to the Arabidopsis (Arabidopsis thaliana) seed oil transcription factor WRINKLED1 was identified with a transcript profile coordinated with those of several fatty acid biosynthetic genes and the high rates of lipid accumulation, suggesting some common regulatory features between seeds and fruits. We also focused on transcriptional regulatory networks of the fruit, in particular those related to ethylene transcriptional and GLOBOSA/PISTILLATA-like proteins in the mesocarp and a central role for ethylene-coordinated transcriptional regulation of type VII ethylene response factors during ripening. Our results suggest that divergence has occurred in the regulatory components in thismonocot fruit compared with those identified in the dicot tomato (Solanum lycopersicum) fleshy fruit model.
p20
sS'pageEnd'
p21
I584
sS'date'
p22
I2011
sS'documentType'
p23
VArticle
p24
sS'subject'
p25
VPlant Sciences
p26
sS'isoSource'
p27
VPlant Physiol.
p28
sS'timesCited'
p29
(lp30
I21
aVZ9 22
p31
asS'funding'
p32
(lp33
(VPalmElit SAS/Institut de Recherche pour le Developpement/Centre de Cooperation Internationale en Recherche Agronomique pour le Developpement
Ntp34
asS'PT'
p35
VJ
sS'title'
p36
VRegulatory Mechanisms Underlying Oil Palm Fruit Mesocarp Maturation, Ripening, And Functional Specialization In Lipid And Carotenoid Metabolism
p37
sS'ISSN'
p38
(lp39
V0032-0889
p40
aVJ9 PLANT PHYSIOL
p41
asS'authors_full'
p42
(lp43
(VTRANBARGER
VTIMOTHY J
tp44
a(VDUSSERT
VSTEPHANE
tp45
a(VJOET
VTHIERRY
tp46
a(VARGOUT
VXAVIER
tp47
a(VSUMMO
VMARILYNE
tp48
a(VCHAMPION
VANTONY
tp49
a(VCROS
VDAVID
tp50
a(VOMORE
VALPHONSE
tp51
a(VNOUY
VBRUNO
tp52
a(VMORCILLO
VFABIENNE
tp53
asS'PG'
p54
I21
sS'PD'
p55
VJUN
p56
sS'pageStart'
p57
I564
sS'issue'
p58
I2
sS'RI'
p59
VTranbarger, Timothy/B-3123-2011
p60
sS'journal'
p61
VPLANT PHYSIOLOGY
p62
sS'volume'
p63
V156
p64
sS'doi'
p65
V10.1104/pp.111.175141
p66
sS'emailAddress'
p67
Vtimothy.tranbarger@ird.fr
p68
sS'authorAddress'
p69
(lp70
V[Tranbarger, Timothy J.; Dussert, Stephane; Joet, Thierry; Champion, Antony] Inst Rech Dev, UMR Divers & Adaptat & Dev Plantes, F-34394 Montpellier 5, France.
p71
aV[Argout, Xavier; Summo, Marilyne; Cros, David] Ctr Cooperat Int Rech Agron Dev, UMR Ameliorat Genet & Adaptat Plantes, F-34398 Montpellier, France.
p72
aV[Omore, Alphonse] Ctr Rech Agr Plantes Perennes, Inst Natl Rech Agr Benin, Pobe, Benin.
p73
aV[Nouy, Bruno] PalmElit SAS, F-34980 Montferrier Sur Lez, France.
p74
aV[Morcillo, Fabienne] Ctr Cooperat Int Rech Agron Dev, UMR Divers & Adaptat & Dev Plantes, F-34398 Montpellier, France.
p75
asS'publisherAddress'
p76
V15501 MONONA DRIVE, ROCKVILLE, MD 20855 USA
p77
sS'ER'
p78
V
sS'publisher'
p79
VAMER SOC PLANT BIOLOGISTS
p80
sS'authorKeywords'
p81
(lp82
VMADS-BOX GENES
p83
aVELAEIS-GUINEENSIS JACQ.
p84
aVPHYTOENE SYNTHASE GENE
p85
aVGENOME-WIDE ANALYSIS
p86
aVVITIS-VINIFERA L.
p87
aVTOMATO FRUIT
p88
aVBERRY DEVELOPMENT
p89
aVTRANSCRIPTION FACTOR
p90
aVETHYLENE BIOSYNTHESIS
p91
aVNONCLIMACTERIC FRUIT
p92
asS'language'
p93
VEnglish
p94
sS'wosid'
p95
VWOS:000291146800012
p96
sS'citationCount'
p97
I130
sS'authors_init'
p98
(lp99
(VTRANBARGER
VT J
tp100
a(VDUSSERT
VS
tp101
a(VJOET
VT
tp102
a(VARGOUT
VX
tp103
a(VSUMMO
VM
tp104
a(VCHAMPION
VA
tp105
a(VCROS
VD
tp106
a(VOMORE
VA
tp107
a(VNOUY
VB
tp108
a(VMORCILLO
VF
tp109
asS'citedReferences'
p110
(lp111
g1
(g2
g3
NtRp112
(dp113
g65
V10.1002/ejlt.200900165
p114
sg61
VEUR J LIPID SCI TECH
p115
sg63
V112
p116
sg98
(lp117
(VACHIR
VN
tp118
asg22
I2010
sg57
V349
p119
sbag1
(g2
g3
NtRp120
(dp121
g65
V10.1007/s00239-005-0333-7
p122
sg61
VJ MOL EVOL
p123
sg63
V62
p124
sg98
(lp125
(VADAM
VH
tp126
asg22
I2006
sg57
V15
p127
sbag1
(g2
g3
NtRp128
(dp129
g65
V10.1093/aob/mcm027
p130
sg61
VANN BOT
p131
sg63
V100
p132
sg98
(lp133
(VADAM
VH
tp134
asg22
I2007
sg57
V1
sbag1
(g2
g3
NtRp135
(dp136
g65
V10.1093/jxb/erl263
p137
sg61
VJ EXP BOT
p138
sg63
V58
p139
sg98
(lp140
(VADAM
VH
tp141
asg22
I2007
sg57
V1245
p142
sbag1
(g2
g3
NtRp143
(dp144
g65
V10.1006/jmbi.1990.9999
p145
sg61
VJ MOL BIOL
p146
sg63
V215
p147
sg98
(lp148
(VALTSCHUL
VS F
tp149
asg22
I1990
sg57
V403
p150
sbag1
(g2
g3
NtRp151
(dp152
g65
Nsg61
VBIOCHEM J
p153
sg63
V336
p154
sg98
(lp155
(VARANGO
VY
tp156
asg22
I1998
sg57
V531
p157
sbag1
(g2
g3
NtRp158
(dp159
g65
V10.1186/1471-2164-9-512
p160
sg61
VBMC GENOMICS
p161
sg63
V9
sg98
(lp162
(VARGOUT
VX
tp163
asg22
I2008
sg57
Nsbag1
(g2
g3
NtRp164
(dp165
g65
Nsg61
VGENOME RES
p166
sg63
V7
sg98
(lp167
(VAUDIC
VS
tp168
asg22
I1997
sg57
V986
p169
sbag1
(g2
g3
NtRp170
(dp171
g65
V10.1016/j.pbi.2006.03.005
p172
sg61
VCURR OPIN PLANT BIOL
p173
sg63
V9
sg98
(lp174
(VAULDRIDGE
VM E
tp175
asg22
I2006
sg57
V315
p176
sbag1
(g2
g3
NtRp177
(dp178
g65
V10.1111/j.1365-313X.2006.02666.x
p179
sg61
VPLANT J
p180
sg63
V45
p181
sg98
(lp182
(VAULDRIDGE
VM E
tp183
asg22
I2006
sg57
VLANT
p184
sbag1
(g2
g3
NtRp185
(dp186
g65
V10.1093/jxb/erq286
p187
sg61
VJ EXP BOT
p188
sg63
V62
p189
sg98
(lp190
(VBANILAS
VG
tp191
asg22
I2011
sg57
V521
p192
sbag1
(g2
g3
NtRp193
(dp194
g65
V10.1073/pnas.0602319103
p195
sg61
VP NATL ACAD SCI USA
p196
sg63
V103
p197
sg98
(lp198
(VBARRY
VC S
tp199
asg22
I2006
sg57
V7923
p200
sbag1
(g2
g3
NtRp201
(dp202
g65
V10.1104/pp.123.3.979
p203
sg61
VPLANT PHYSIOL
p204
sg63
V123
p205
sg98
(lp206
(VBARRY
VC S
tp207
asg22
I2000
sg57
VLANT
p208
sbag1
(g2
g3
NtRp209
(dp210
g65
V10.1104/pp.109.137737
p211
sg61
VPLANT PHYSIOL
p212
sg63
V150
p213
sg98
(lp214
(VBATES
VP D
tp215
asg22
I2009
sg57
VLANT
p216
sbag1
(g2
g3
NtRp217
(dp218
g65
V10.1111/j.1365-313X.2007.03092.x
p219
sg61
VPLANT J
p220
sg63
V50
p221
sg98
(lp222
(VBAUD
VS
tp223
asg22
I2007
sg57
VLANT
p224
sbag1
(g2
g3
NtRp225
(dp226
g65
V10.1111/j.1365-313X.2009.04011.x
p227
sg61
VPLANT J
p228
sg63
V60
p229
sg98
(lp230
(VBAUD
VS
tp231
asg22
I2009
sg57
VLANT
p232
sbag1
(g2
g3
NtRp233
(dp234
g65
V10.1016/j.plipres.2010.01.001
p235
sg61
VPROG LIPID RES
p236
sg63
V49
p237
sg98
(lp238
(VBAUD
VS
tp239
asg22
I2010
sg57
VROG
p240
sbag1
(g2
g3
NtRp241
(dp242
g65
V10.1016/j.plaphy.2008.12.006
p243
sg61
VPLANT PHYSIOL BIOCH
p244
sg63
V47
p245
sg98
(lp246
(VBAUD
VS
tp247
asg22
I2009
sg57
VLANT
p248
sbag1
(g2
g3
NtRp249
(dp250
g65
V10.1016/S1055-7903(03)00207-0
p251
sg61
VMOL PHYLOGENET EVOL
p252
sg63
V29
p253
sg98
(lp254
(VBECKER
VA
tp255
asg22
I2003
sg57
V464
p256
sbag1
(g2
g3
NtRp257
(dp258
g65
Nsg61
VGenome Inform
p259
sg63
V16
p260
sg98
(lp261
(VBLU\u0308THGEN
VNILS
tp262
asg22
I2005
sg57
V106
p263
sbag1
(g2
g3
NtRp264
(dp265
g65
V10.1093/nar/gkg095
p266
sg61
VNUCLEIC ACIDS RES
p267
sg63
V31
p268
sg98
(lp269
(VBOECKMANN
VB
tp270
asg22
I2003
sg57
V365
p271
sbag1
(g2
g3
NtRp272
(dp273
g65
V10.1016/S0168-9452(02)00034-1
p274
sg61
VPLANT SCI
p275
sg63
V162
p276
sg98
(lp277
(VBOSS
VP K
tp278
asg22
I2002
sg57
VLANT
p279
sbag1
(g2
g3
NtRp280
(dp281
g65
V10.1023/A:1010634132156
p282
sg61
VPLANT MOL BIOL
p283
sg63
V45
p284
sg98
(lp285
(VBOSS
VP K
tp286
asg22
I2001
sg57
VLANT
p287
sbag1
(g2
g3
NtRp288
(dp289
g65
V10.1023/A:1025001402838
p290
sg61
VPlant Molecular Biology
p291
sg63
V52
p292
sg98
(lp293
(VBUSI
VMARIA VICTORIA
tp294
asg22
I2003
sg57
Vlant
p295
sbag1
(g2
g3
NtRp296
(dp297
g65
V10.1105/tpc.108.063131
p298
sg61
VPLANT CELL
p299
sg63
V21
p300
sg98
(lp301
(VCAZZONELLI
VC I
tp302
asg22
I2009
sg57
VLANT
p303
sbag1
(g2
g3
NtRp304
(dp305
g65
V10.1016/j.tplants.2010.02.003
p306
sg61
VTRENDS PLANT SCI
p307
sg63
V15
p308
sg98
(lp309
(VCAZZONELLI
VC I
tp310
asg22
I2010
sg57
V266
p311
sbag1
(g2
g3
NtRp312
(dp313
g65
V10.1111/j.1365-313X.2004.02235.x
p314
sg61
VPLANT J
p315
sg63
V40
p316
sg98
(lp317
(VCERNAC
VA
tp318
asg22
I2004
sg57
VLANT
p319
sbag1
(g2
g3
NtRp320
(dp321
g65
V10.1104/pp.110.153916
p322
sg61
VPLANT PHYSIOL
p323
sg63
V153
p324
sg98
(lp325
(VCHEN
VY
tp326
asg22
I2010
sg57
VLANT
p327
sbag1
(g2
g3
NtRp328
(dp329
g65
V10.1111/j.1399-3054.2008.01158.x
p330
sg61
VPHYSIOL PLANTARUM
p331
sg63
V134
p332
sg98
(lp333
(VCHERVIN
VC
tp334
asg22
I2008
sg57
VHYSIOL
p335
sbag1
(g2
g3
NtRp336
(dp337
g65
V10.1016/j.plantsci.2004.06.026
p338
sg61
VPLANT SCI
p339
sg63
V167
p340
sg98
(lp341
(VCHERVIN
VC
tp342
asg22
I2004
sg57
VLANT
p343
sbag1
(g2
g3
NtRp344
(dp345
g65
V10.1046/j.1365-313X.2003.01800.x
p346
sg61
VPLANT J
p347
sg63
V35
p348
sg98
(lp349
(VCHIWOCHA
VS D S
tp350
asg22
I2003
sg57
VLANT
p351
sbag1
(g2
g3
NtRp352
(dp353
g65
V10.1111/j.1365-313X.2010.04384.x
p354
sg61
VPLANT J
p355
sg63
V64
p356
sg98
(lp357
(VCHUNG
VM Y
tp358
asg22
I2010
sg57
VLANT
p359
sbag1
(g2
g3
NtRp360
(dp361
g65
V10.1007/s11295-009-0203-3
p362
sg61
VTREE GENET GENOMES
p363
sg63
V5
sg98
(lp364
(VCOCHARD
VB
tp365
asg22
I2009
sg57
V493
p366
sbag1
(g2
g3
NtRp367
(dp368
g65
V10.1104/pp.51.4.629
p369
sg61
VPLANT PHYSIOL
p370
sg63
V51
p371
sg98
(lp372
(VCOOMBE
VB G
tp373
asg22
I1973
sg57
VLANT
p374
sbag1
(g2
g3
NtRp375
(dp376
g65
Nsg61
VPLANT PHYSIOL
p377
sg63
V115
p378
sg98
(lp379
(VDAVIES
VC
tp380
asg22
I1997
sg57
VLANT
p381
sbag1
(g2
g3
NtRp382
(dp383
g65
V10.1186/1471-2164-8-429
p384
sg61
VBMC GENOMICS
p385
sg63
V8
sg98
(lp386
(VDELUC
VL G
tp387
asg22
I2007
sg57
Nsbag1
(g2
g3
NtRp388
(dp389
g65
V10.1093/nar/gkn180
p390
sg61
VNUCLEIC ACIDS RES
p391
sg63
V36
p392
sg98
(lp393
(VDEREEPER
VA
tp394
asg22
I2008
sg57
VW465
p395
sbag1
(g2
g3
NtRp396
(dp397
g65
V10.1104/pp.108.131052
p398
sg61
VPLANT PHYSIOL
p399
sg63
V149
p400
sg98
(lp401
(VDIAZ-RIQUELME
VJ
tp402
asg22
I2009
sg57
VLANT
p403
sbag1
(g2
g3
NtRp404
(dp405
g65
V10.1016/j.plaphy.2006.09.006
p406
sg61
VPLANT PHYSIOL BIOCH
p407
sg63
V44
p408
sg98
(lp409
(VEBONOGUE
VG F N
tp410
asg22
I2006
sg57
VLANT
p411
sbag1
(g2
g3
NtRp412
(dp413
g65
V10.1073/pnas.95.25.14863
p414
sg61
VP NATL ACAD SCI USA
p415
sg63
V95
p416
sg98
(lp417
(VEISEN
VM B
tp418
asg22
I1998
sg57
V14863
p419
sbag1
(g2
g3
NtRp420
(dp421
g65
V10.1093/jxb/erq017
p422
sg61
VJ EXP BOT
p423
sg63
V61
p424
sg98
(lp425
(VELITZUR
VT
tp426
asg22
I2010
sg57
V1523
p427
sbag1
(g2
g3
NtRp428
(dp429
g65
V10.1093/jxb/ern354
p430
sg61
VJ EXP BOT
p431
sg63
V60
p432
sg98
(lp433
(VEL-SHARKAWY
VI
tp434
asg22
I2009
sg57
V907
p435
sbag1
(g2
g3
NtRp436
(dp437
g65
V10.2307/2408678
p438
sg61
VEVOLUTION
p439
sg63
V39
p440
sg98
(lp441
(VFELSENSTEIN
VJ
tp442
asg22
I1985
sg57
V783
p443
sbag1
(g2
g3
NtRp444
(dp445
g65
V10.1104/pp.118.1.91
p446
sg61
VPLANT PHYSIOL
p447
sg63
V118
p448
sg98
(lp449
(VFOCKS
VN
tp450
asg22
I1998
sg57
VLANT
p451
sbag1
(g2
g3
NtRp452
(dp453
g65
Nsg61
VPLANT PHYSIOL
p454
sg63
V105
p455
sg98
(lp456
(VFRASER
VP D
tp457
asg22
I1994
sg57
VLANT
p458
sbag1
(g2
g3
NtRp459
(dp460
g65
V10.1007/s00425-010-1165-2
p461
sg61
VPLANTA
p462
sg63
V232
p463
sg98
(lp464
(VGAMBETTA
VG A
tp465
asg22
I2010
sg57
VLANTA
p466
sbag1
(g2
g3
NtRp467
(dp468
g65
V10.1105/tpc.5.10.1439
p469
sg61
VPLANT CELL
p470
sg63
V5
sg98
(lp471
(VGILLASPY
VG
tp472
asg22
I1993
sg57
VLANT
p473
sbag1
(g2
g3
NtRp474
(dp475
g65
V10.1371/journal.pone.0014427
p476
sg61
VPLOS ONE
p477
sg63
V5
sg98
(lp478
(VGIMENEZ
VE
tp479
asg22
I2010
sg57
VLOS
p480
sbag1
(g2
g3
NtRp481
(dp482
g65
V10.1016/j.pbi.2007.04.008
p483
sg61
VCURR OPIN PLANT BIOL
p484
sg63
V10
p485
sg98
(lp486
(VGIOVANNONI
VJ J
tp487
asg22
I2007
sg57
V283
p488
sbag1
(g2
g3
NtRp489
(dp490
g65
V10.1105/tpc.019158
p491
sg61
VPLANT CELL
p492
sg63
V16
p493
sg98
(lp494
(VGIOVANNONI
VJ J
tp495
asg22
I2004
sg57
VLANT
p496
sbag1
(g2
g3
NtRp497
(dp498
g65
V10.1093/nar/gkn176
p499
sg61
VNUCLEIC ACIDS RES
p500
sg63
V36
p501
sg98
(lp502
(VGOTZ
VS
tp503
asg22
I2008
sg57
V3420
p504
sbag1
(g2
g3
NtRp505
(dp506
g65
V10.1093/molbev/msl095
p507
sg61
VMOL BIOL EVOL
p508
sg63
V23
p509
sg98
(lp510
(VHILEMAN
VL C
tp511
asg22
I2006
sg57
V2245
p512
sbag1
(g2
g3
NtRp513
(dp514
g65
V10.1016/S1369-5266(00)00163-1
p515
sg61
VCURR OPIN PLANT BIOL
p516
sg63
V4
sg98
(lp517
(VHIRSCHBERG
VJ
tp518
asg22
I2001
sg57
V210
p519
sbag1
(g2
g3
NtRp520
(dp521
g65
V10.1111/j.1365-3040.2005.01492.x
p522
sg61
VPLANT CELL ENVIRON
p523
sg63
V29
p524
sg98
(lp525
(VHOWITT
VC A
tp526
asg22
I2006
sg57
VLANT
p527
sbag1
(g2
g3
NtRp528
(dp529
g65
V10.1093/nar/gkn785
p530
sg61
VNUCLEIC ACIDS RES
p531
sg63
V37
p532
sg98
(lp533
(VHUNTER
VS
tp534
asg22
I2009
sg57
VD211
p535
sbag1
(g2
g3
NtRp536
(dp537
g65
V10.1016/S0031-9422(00)80476-8
p538
sg61
VPHYTOCHEMISTRY
p539
sg63
V23
p540
sg98
(lp541
(VIKEMEFUNA
VJ
tp542
asg22
I1984
sg57
VHYTOCHEMISTRY
p543
sbag1
(g2
g3
NtRp544
(dp545
g65
V10.1111/j.1365-313X.2009.04064.x
p546
sg61
VPLANT J
p547
sg63
V60
p548
sg98
(lp549
(VITKIN
VM
tp550
asg22
I2009
sg57
VLANT
p551
sbag1
(g2
g3
NtRp552
(dp553
g65
V10.1111/j.1365-313X.2008.03491.x
p554
sg61
VPLANT J
p555
sg63
V55
p556
sg98
(lp557
(VITO
VY
tp558
asg22
I2008
sg57
VLANT
p559
sbag1
(g2
g3
NtRp560
(dp561
g65
V10.1104/pp.110.158279
p562
sg61
VPLANT PHYSIOL
p563
sg63
V153
p564
sg98
(lp565
(VJAAKOLA
VL
tp566
asg22
I2010
sg57
VLANT
p567
sbag1
(g2
g3
NtRp568
(dp569
g65
V10.1111/j.1469-8137.2008.02742.x
p570
sg61
VNEW PHYTOL
p571
sg63
V182
p572
sg98
(lp573
(VJOET
VT
tp574
asg22
I2009
sg57
V146
p575
sbag1
(g2
g3
NtRp576
(dp577
g65
Nsg61
VCOMPUT APPL BIOSCI
p578
sg63
V8
sg98
(lp579
(VJONES
VD T
tp580
asg22
I1992
sg57
V275
p581
sbag1
(g2
g3
NtRp582
(dp583
g65
V10.1104/pp.123.4.1427
p584
sg61
VPLANT PHYSIOL
p585
sg63
V123
p586
sg98
(lp587
(VJOSSE
VE M
tp588
asg22
I2000
sg57
VLANT
p589
sbag1
(g2
g3
NtRp590
(dp591
g65
V10.1016/j.plantsci.2005.05.001
p592
sg61
VPLANT SCI
p593
sg63
V169
p594
sg98
(lp595
(VKHEMVONG
VS
tp596
asg22
I2005
sg57
VLANT
p597
sbag1
(g2
g3
NtRp598
(dp599
g65
V10.1016/j.plaphy.2007.01.012
p600
sg61
VPLANT PHYSIOL BIOCH
p601
sg63
V45
p602
sg98
(lp603
(VLAFFARGUE
VA
tp604
asg22
I2007
sg57
VLANT
p605
sbag1
(g2
g3
NtRp606
(dp607
g65
V10.1007/s11745-010-3385-4
p608
sg61
VLIPIDS
p609
sg63
V45
p610
sg98
(lp611
(VLI
VR Z
tp612
asg22
I2010
sg57
V145
p613
sbag1
(g2
g3
NtRp614
(dp615
g65
V10.1142/S0219720010005129
p616
sg61
VJ BIOINFORM COMPUT B
p617
sg63
V8
sg98
(lp618
(VLI
VY
tp619
asg22
I2010
sg57
V33
p620
sbag1
(g2
g3
NtRp621
(dp622
g65
VDOI 10.1199/TAB.0999
p623
sg61
VARABIDOPSIS BOOK
p624
sg63
V8
sg98
(lp625
(VLIBEISSON
VY
tp626
asg22
I2010
sg57
VE999
p627
sbag1
(g2
g3
NtRp628
(dp629
g65
V10.1111/j.1365-313X.2008.03505.x
p630
sg61
VPLANT J
p631
sg63
V55
p632
sg98
(lp633
(VLIN
VZ F
tp634
asg22
I2008
sg57
VLANT
p635
sbag1
(g2
g3
NtRp636
(dp637
g65
V10.1111/j.1745-6584.2009.00611.x
p638
sg61
VGROUND WATER
p639
sg63
V48
p640
sg98
(lp641
(VLIU
VJ
tp642
asg22
I2010
sg57
V1
sbag1
(g2
g3
NtRp643
(dp644
g65
V10.1007/s00299-008-0613-y
p645
sg61
VPLANT CELL REP
p646
sg63
V28
p647
sg98
(lp648
(VLIU
VJ H
tp649
asg22
I2009
sg57
VLANT
p650
sbag1
(g2
g3
NtRp651
(dp652
g65
V10.1073/pnas.0400935101
p653
sg61
VP NATL ACAD SCI USA
p654
sg63
V101
p655
sg98
(lp656
(VLIU
VY S
tp657
asg22
I2004
sg57
V9897
p658
sbag1
(g2
g3
NtRp659
(dp660
g65
V10.1093/jxb/erm299
p661
sg61
VJ EXP BOT
p662
sg63
V59
p663
sg98
(lp664
(VLOPEZ
VA B
tp665
asg22
I2008
sg57
V213
p666
sbag1
(g2
g3
NtRp667
(dp668
g65
V10.1073/pnas.0908848106
p669
sg61
VP NATL ACAD SCI USA
p670
sg63
V106
p671
sg98
(lp672
(VLU
VC F
tp673
asg22
I2009
sg57
V18837
p674
sbag1
(g2
g3
NtRp675
(dp676
g65
V10.1111/j.1744-7909.2008.00708.x
p677
sg61
VJ INTEGR PLANT BIOL
p678
sg63
V50
p679
sg98
(lp680
(VLU
VS
tp681
asg22
I2008
sg57
V778
p682
sbag1
(g2
g3
NtRp683
(dp684
g65
V10.1105/tpc.106.046417
p685
sg61
VPLANT CELL
p686
sg63
V18
p687
sg98
(lp688
(VLU
VS
tp689
asg22
I2006
sg57
VLANT
p690
sbag1
(g2
g3
NtRp691
(dp692
g65
V10.1371/journal.pone.0006373
p693
sg61
VPLOS ONE
p694
sg63
V4
sg98
(lp695
(VMAASS
VD
tp696
asg22
I2009
sg57
VLOS
p697
sbag1
(g2
g3
NtRp698
(dp699
g65
V10.1111/j.1365-313X.2009.03967.x
p700
sg61
VPLANT J
p701
sg63
V60
p702
sg98
(lp703
(VMAEO
VK
tp704
asg22
I2009
sg57
VLANT
p705
sbag1
(g2
g3
NtRp706
(dp707
g65
V10.1038/ng1841
p708
sg61
VNAT GENET
p709
sg63
V38
p710
sg98
(lp711
(VMANNING
VK
tp712
asg22
I2006
sg57
V948
p713
sbag1
(g2
g3
NtRp714
(dp715
g65
V10.1093/nar/gkn805
p716
sg61
VNUCLEIC ACIDS RES
p717
sg63
V37
p718
sg98
(lp719
(VMITUYAMA
VT
tp720
asg22
I2009
sg57
VD89
p721
sbag1
(g2
g3
NtRp722
(dp723
g65
Nsg61
VTREE PHYSIOL
p724
sg63
V26
p725
sg98
(lp726
(VMORCILLO
VF
tp727
asg22
I2006
sg57
V585
p728
sbag1
(g2
g3
NtRp729
(dp730
g65
V10.1104/pp.108.126342
p731
sg61
VPLANT PHYSIOL
p732
sg63
V148
p733
sg98
(lp734
(VMU
VJ Y
tp735
asg22
I2008
sg57
VLANT
p736
sbag1
(g2
g3
NtRp737
(dp738
g65
Nsg61
VLIPID TECHNOLOGY
p739
sg63
V21
p740
sg98
(lp741
(VMURPHY
VD J
tp742
asg22
I2009
sg57
V257
p743
sbag1
(g2
g3
NtRp744
(dp745
g65
V10.1105/tpc.11.2.145
p746
sg61
VPLANT CELL
p747
sg63
V11
p748
sg98
(lp749
(VMUSTILLI
VA C
tp750
asg22
I1999
sg57
VLANT
p751
sbag1
(g2
g3
NtRp752
(dp753
g65
V10.1104/pp.105.073783
p754
sg61
VPLANT PHYSIOL
p755
sg63
V140
p756
sg98
(lp757
(VNAKANO
VT
tp758
asg22
I2006
sg57
VLANT
p759
sbag1
(g2
g3
NtRp760
(dp761
g65
V10.1104/pp.118.4.1295
p762
sg61
VPLANT PHYSIOL
p763
sg63
V118
p764
sg98
(lp765
(VNAKATSUKA
VA
tp766
asg22
I1998
sg57
VLANT
p767
sbag1
(g2
g3
NtRp768
(dp769
g65
V10.1016/j.plantsci.2008.05.023
p770
sg61
VPLANT SCI
p771
sg63
V175
p772
sg98
(lp773
(VNAKKAEW
VA
tp774
asg22
I2008
sg57
VLANT
p775
sbag1
(g2
g3
NtRp776
(dp777
g65
V10.1016/j.tplants.2004.12.010
p778
sg61
VTRENDS PLANT SCI
p779
sg63
V10
p780
sg98
(lp781
(VOLSEN
VA N
tp782
asg22
I2005
sg57
V79
p783
sbag1
(g2
g3
NtRp784
(dp785
g65
V10.1042/0300-5127:0280619
p786
sg61
VBIOCHEM SOC T
p787
sg63
V28
p788
sg98
(lp789
(VOTHMAN
VA
tp790
asg22
I2000
sg57
V619
p791
sbag1
(g2
g3
NtRp792
(dp793
g65
V10.1093/jxb/erq046
p794
sg61
VJ EXP BOT
p795
sg63
V61
p796
sg98
(lp797
(VPAN
VI L
tp798
asg22
I2010
sg57
V1795
p799
sbag1
(g2
g3
NtRp800
(dp801
g65
V10.1093/bioinformatics/btg034
p802
sg61
VBIOINFORMATICS
p803
sg63
V19
p804
sg98
(lp805
(VPERTEA
VG
tp806
asg22
I2003
sg57
V651
p807
sbag1
(g2
g3
NtRp808
(dp809
g65
V10.1016/j.gene.2007.08.005
p810
sg61
VGENE
p811
sg63
V404
p812
sg98
(lp813
(VPOUPIN
VM J
tp814
asg22
I2007
sg57
V10
p815
sbag1
(g2
g3
NtRp816
(dp817
g65
Nsg61
VPLANT PHYSL IN PRESS
p818
sg63
Nsg98
(lp819
(VPOUVREAU
VB
tp820
asg22
I2011
sg57
VLANT
p821
sbag1
(g2
g3
NtRp822
(dp823
g65
Nsg61
VBIOCHEM SOC T
p824
sg63
V30
p825
sg98
(lp826
(VRAMLI
VU S
tp827
asg22
I2002
sg57
V1043
p828
sbag1
(g2
g3
NtRp829
(dp830
g65
V10.1111/j.1469-8137.2009.02962.x
p831
sg61
VNEW PHYTOL
p832
sg63
V184
p833
sg98
(lp834
(VRAMLI
VU S
tp835
asg22
I2009
sg57
V330
p836
sbag1
(g2
g3
NtRp837
(dp838
g65
Nsg61
VASIA PAC J MOL BIOL
p839
sg63
V16
p840
sg98
(lp841
(VRASID
VO A
tp842
asg22
I2008
sg57
V17
p843
sbag1
(g2
g3
NtRp844
(dp845
g65
V10.1046/j.1365-313X.1999.00381.x
p846
sg61
VPLANT J
p847
sg63
V17
p848
sg98
(lp849
(VRONEN
VG
tp850
asg22
I1999
sg57
VLANT
p851
sbag1
(g2
g3
NtRp852
(dp853
g65
V10.1105/tpc.000877
p854
sg61
VPLANT CELL
p855
sg63
V14
p856
sg98
(lp857
(VRUUSKA
VS A
tp858
asg22
I2002
sg57
VLANT
p859
sbag1
(g2
g3
NtRp860
(dp861
g65
Nsg61
VMOL BIOL EVOL
p862
sg63
V4
sg98
(lp863
(VSAITOU
VN
tp864
asg22
I1987
sg57
V406
p865
sbag1
(g2
g3
NtRp866
(dp867
g65
V10.1016/S0163-7827(00)00015-1
p868
sg61
VPROG LIPID RES
p869
sg63
V39
p870
sg98
(lp871
(VSAMBANTHAMURTHI
VR
tp872
asg22
I2000
sg57
VROG
p873
sbag1
(g2
g3
NtRp874
(dp875
g65
V10.1016/j.pbi.2007.09.003
p876
sg61
VCURR OPIN PLANT BIOL
p877
sg63
V11
p878
sg98
(lp879
(VSEYMOUR
VG
tp880
asg22
I2008
sg57
V58
p881
sbag1
(g2
g3
NtRp882
(dp883
g65
V10.1093/jxb/erq360
p884
sg61
VJ EXP BOT
p885
sg63
V62
p886
sg98
(lp887
(VSEYMOUR
VG B
tp888
asg22
I2011
sg57
V1179
p889
sbag1
(g2
g3
NtRp890
(dp891
g65
V10.1007/s00438-010-0580-1
p892
sg61
VMOL GENET GENOMICS
p893
sg63
V284
p894
sg98
(lp895
(VSHARMA
VM K
tp896
asg22
I2010
sg57
V455
p897
sbag1
(g2
g3
NtRp898
(dp899
g65
V10.1104/pp.110.157537
p900
sg61
VPLANT PHYSIOL
p901
sg63
V153
p902
sg98
(lp903
(VSHEN
VB
tp904
asg22
I2010
sg57
VLANT
p905
sbag1
(g2
g3
NtRp906
(dp907
g65
V10.1046/j.1365-313x.1999.00611.x
p908
sg61
VPLANT J
p909
sg63
V20
p910
sg98
(lp911
(VSHEWMAKER
VC K
tp912
asg22
I1999
sg57
VLANT
p913
sbag1
(g2
g3
NtRp914
(dp915
g65
V10.1105/tpc.106.041269
p916
sg61
VPLANT CELL
p917
sg63
V18
p918
sg98
(lp919
(VSILOTO
VR M P
tp920
asg22
I2006
sg57
VLANT
p921
sbag1
(g2
g3
NtRp922
(dp923
g65
Nsg61
VASIA PAC J CLIN NUTR
p924
sg63
V12
p925
sg98
(lp926
(VSOLOMONS
VN W
tp927
asg22
I2003
sg57
V373
p928
sbag1
(g2
g3
NtRp929
(dp930
g65
Nsg61
VFEBS LETT
p931
sg63
V235
p932
sg98
(lp933
(VSTAHL
VU
tp934
asg22
I2008
sg57
V305
p935
sbag1
(g2
g3
NtRp936
(dp937
g65
V10.1093/jxb/ern313
p938
sg61
VJ EXP BOT
p939
sg63
V60
p940
sg98
(lp941
(VTADIELLO
VA
tp942
asg22
I2009
sg57
V651
p943
sbag1
(g2
g3
NtRp944
(dp945
g65
V10.1002/dvdy.20851
p946
sg61
VDEV DYNAM
p947
sg63
V235
p948
sg98
(lp949
(VTAKEUCHI
VT
tp950
asg22
I2006
sg57
V2449
p951
sbag1
(g2
g3
NtRp952
(dp953
g65
V10.1111/j.1365-313X.2008.03447.x
p954
sg61
VPLANT J
p955
sg63
V54
p956
sg98
(lp957
(VTANAKA
VY
tp958
asg22
I2008
sg57
VLANT
p959
sbag1
(g2
g3
NtRp960
(dp961
g65
V10.1046/j.1365-313x.2000.00789.x
p962
sg61
VPLANT J
p963
sg63
V23
p964
sg98
(lp965
(VTHOMPSON
VA J
tp966
asg22
I2000
sg57
VLANT
p967
sbag1
(g2
g3
NtRp968
(dp969
g65
V10.1104/pp.120.2.383
p970
sg61
VPLANT PHYSIOL
p971
sg63
V120
p972
sg98
(lp973
(VTHOMPSON
VA J
tp974
asg22
I1999
sg57
VLANT
p975
sbag1
(g2
g3
NtRp976
(dp977
g65
V10.1093/nar/22.22.4673
p978
sg61
VNUCLEIC ACIDS RES
p979
sg63
V22
p980
sg98
(lp981
(VTHOMPSON
VJ D
tp982
asg22
I1994
sg57
V4673
p983
sbag1
(g2
g3
NtRp984
(dp985
g65
V10.1073/pnas.0914428107
p986
sg61
VP NATL ACAD SCI USA
p987
sg63
V107
p988
sg98
(lp989
(VTOLEDO-ORTIZ
VG
tp990
asg22
I2010
sg57
V11626
p991
sbag1
(g2
g3
NtRp992
(dp993
g65
V10.1016/S0014-5793(03)00757-9
p994
sg61
VFEBS LETT
p995
sg63
V550
p996
sg98
(lp997
(VTOURNIER
VB
tp998
asg22
I2003
sg57
V149
p999
sbag1
(g2
g3
NtRp1000
(dp1001
g65
V10.1126/science.1068181
p1002
sg61
VSCIENCE
p1003
sg63
V296
p1004
sg98
(lp1005
(VVREBALOV
VJ
tp1006
asg22
I2002
sg57
V343
p1007
sbag1
(g2
g3
NtRp1008
(dp1009
g65
V10.1105/tpc.109.066936
p1010
sg61
VPLANT CELL
p1011
sg63
V21
p1012
sg98
(lp1013
(VVREBALOV
VJ
tp1014
asg22
I2009
sg57
VLANT
p1015
sbag1
(g2
g3
NtRp1016
(dp1017
g65
V10.1093/jxb/erm224
p1018
sg61
VJ EXP BOT
p1019
sg63
V58
p1020
sg98
(lp1021
(VWANG
VA
tp1022
asg22
I2007
sg57
V3743
p1023
sbag1
(g2
g3
NtRp1024
(dp1025
g65
V10.1186/1471-2105-5-187
p1026
sg61
VBMC BIOINFORMATICS
p1027
sg63
V5
sg98
(lp1028
(VWASMUTH
VJ D
tp1029
asg22
I2004
sg57
Nsbag1
(g2
g3
NtRp1030
(dp1031
g65
V10.1105/tpc.110.077560
p1032
sg61
VPLANT CELL
p1033
sg63
V22
p1034
sg98
(lp1035
(VWELSCH
VR
tp1036
asg22
I2010
sg57
VLANT
p1037
sbag1
(g2
g3
NtRp1038
(dp1039
g65
V10.1104/pp.107.104828
p1040
sg61
VPLANT PHYSIOL
p1041
sg63
V145
p1042
sg98
(lp1043
(VWELSCH
VR
tp1044
asg22
I2007
sg57
VLANT
p1045
sbag1
(g2
g3
NtRp1046
(dp1047
g65
V10.1126/science.270.5243.1807
p1048
sg61
VSCIENCE
p1049
sg63
V270
p1050
sg98
(lp1051
(VWILKINSON
VJ Q
tp1052
asg22
I1995
sg57
V1807
p1053
sbag1
(g2
g3
NtRp1054
(dp1055
g65
V10.1093/molbev/msn105
p1056
sg61
VMOL BIOL EVOL
p1057
sg63
V25
p1058
sg98
(lp1059
(VXIE
VZ Y
tp1060
asg22
I2008
sg57
V1581
p1061
sbag1
(g2
g3
NtRp1062
(dp1063
g65
V10.1073/pnas.031502498
p1064
sg61
VP NATL ACAD SCI USA
p1065
sg63
V98
p1066
sg98
(lp1067
(VYAO
VJ L
tp1068
asg22
I2001
sg57
V1306
p1069
sbag1
(g2
g3
NtRp1070
(dp1071
g65
V10.1104/pp.110.157081
p1072
sg61
VPLANT PHYSIOL
p1073
sg63
V153
p1074
sg98
(lp1075
(VYIN
VX R
tp1076
asg22
I2010
sg57
VLANT
p1077
sbag1
(g2
g3
NtRp1078
(dp1079
g65
V10.1093/jxb/erp185
p1080
sg61
VJ EXP BOT
p1081
sg63
V60
p1082
sg98
(lp1083
(VYOKOTANI
VN
tp1084
asg22
I2009
sg57
V3433
p1085
sbag1
(g2
g3
NtRp1086
(dp1087
g65
V10.1093/bioinformatics/17.9.847
p1088
sg61
VBIOINFORMATICS
p1089
sg63
V17
p1090
sg98
(lp1091
(VZDOBNOV
VE M
tp1092
asg22
I2001
sg57
V847
p1093
sbag1
(g2
g3
NtRp1094
(dp1095
g65
V10.1016/S1673-8527(08)60053-3
p1096
sg61
VJ GENET GENOMICS
p1097
sg63
V35
p1098
sg98
(lp1099
(VZHANG
VL
tp1100
asg22
I2008
sg57
V365
p1101
sbag1
(g2
g3
NtRp1102
(dp1103
g65
V10.1093/jxb/erp026
p1104
sg61
VJ EXP BOT
p1105
sg63
V60
p1106
sg98
(lp1107
(VZHANG
VM
tp1108
asg22
I2009
sg57
V1579
p1109
sbag1
(g2
g3
NtRp1110
(dp1111
g65
V10.1105/tpc.109.071795
p1112
sg61
VPLANT CELL
p1113
sg63
V21
p1114
sg98
(lp1115
(VZHANG
VM
tp1116
asg22
I2009
sg57
VLANT
p1117
sbasb.