ccopy_reg
_reconstructor
p1
(ctethne.classes.paper
Paper
p2
c__builtin__
object
p3
NtRp4
(dp5
S'publisherCity'
p6
VROCKVILLE
p7
sS'reprintAddress'
p8
VJetter, R (reprint author), Univ Wurzburg, Lehrstuhl Bot 2, Julius von Sachs Inst Biowissensch, Julius von Sachs Pl 3, D-97082 Wurzburg, Germany.
p9
sS'WC'
p10
VPlant Sciences
p11
sS'GA'
p12
V462HC
p13
sS'abstract'
p14
VThe seasonal development of adaxial Prunus laurocerasus leaf surfaces was studied using newly developed methods for the mechanical removal of epicuticular waxes. During epidermal cell expansion, more than 50 mug leaf(-1) of alkyl acetates accumulated within 10 d, forming an epicuticular wax film approximately 30 nm thick. Then, alcohols dominated for 18 d of leaf development, before alkanes accumulated in an epicuticular wax film with steadily increasing thickness (approximately 60 nm after 60 d), accompanied by small amounts of fatty acids, aldehydes, and alkyl esters. In contrast, the intracuticular waxes stayed fairly constant during development, being dominated by triterpenoids that could not be detected in the epicuticular waxes. The accumulation rates of all cuticular components are indicative for spontaneous segregation of intra- and epicuticular fractions during diffusional transport within the cuticle. This is the first report quantifying the loss of individual compound classes (acetates and alcohols) from the epicuticular wax mixture. Experiments with isolated epicuticular films showed that neither chemical conversion within the epicuticular film nor erosion/evaporation of wax constituents could account for this effect. Instead, transport of epicuticular compounds back into the tissue seems likely. Possible ecological and physiological functions of the coordinate changes in the composition of the plant surface layers are discussed.
p15
sS'pageEnd'
p16
I1737
sS'publisherAddress'
p17
V15501 MONONA DRIVE, ROCKVILLE, MD 20855 USA
p18
sS'documentType'
p19
VArticle
p20
sS'subject'
p21
VPlant Sciences
p22
sS'isoSource'
p23
VPlant Physiol.
p24
sS'timesCited'
p25
(lp26
I118
aVZ9 133
p27
asS'PT'
p28
VJ
sS'title'
p29
VChemical Composition Of The Prunus Laurocerasus Leaf Surface. Dynamic Changes Of The Epicuticular Wax Film During Leaf Development
p30
sS'ISSN'
p31
(lp32
V0032-0889
p33
aVJ9 PLANT PHYSIOL
p34
asS'authors_full'
p35
(lp36
(VJETTER
VR
tp37
a(VSCHAFFER
VS
tp38
asS'PG'
p39
I13
sS'PD'
p40
VAUG
p41
sS'pageStart'
p42
I1725
sS'issue'
p43
I4
sS'journal'
p44
VPLANT PHYSIOLOGY
p45
sS'volume'
p46
V126
p47
sS'doi'
p48
V10.1104/pp.126.4.1725
p49
sS'authorAddress'
p50
VUniv Wurzburg, Lehrstuhl Bot 2, Julius von Sachs Inst Biowissensch, D-97082 Wurzburg, Germany.
p51
sS'date'
p52
I2001
sS'ER'
p53
V
sS'publisher'
p54
VAMER SOC PLANT PHYSIOLOGISTS
p55
sS'authorKeywords'
p56
(lp57
VMINIATA REG LEAVES
p58
aVCUTICULAR WAXES
p59
aVCOLLETOTRICHUM-GLOEOSPORIOIDES
p60
aVAPPRESSORIUM FORMATION
p61
aVSEASONAL-VARIATIONS
p62
aVPLANT CUTICLES
p63
aVHEDERA-HELIX
p64
aVLIPIDS
p65
aVCUTIN
p66
aVAGE
p67
asS'language'
p68
VEnglish
p69
sS'wosid'
p70
VWOS:000170413800039
p71
sS'citationCount'
p72
I60
sS'authors_init'
p73
(lp74
(VJETTER
VR
tp75
a(VSCHAFFER
VS
tp76
asS'citedReferences'
p77
(lp78
g1
(g2
g3
NtRp79
(dp80
g48
V10.1021/np50024a009
p81
sg44
VJ NAT PROD
p82
sg46
V45
p83
sg73
(lp84
(VATKIN
VD S J
tp85
asg52
I1982
sg42
V697
p86
sbag1
(g2
g3
NtRp87
(dp88
g48
Nsg44
VLINNEAN SOC S SERIES
p89
sg46
V10
p90
sg73
(lp91
(VBAKER
VE A
tp92
asg52
I1982
sg42
V33
p93
sbag1
(g2
g3
NtRp94
(dp95
g48
V10.1016/0031-9422(79)80013-8
p96
sg44
VPHYTOCHEMISTRY
p97
sg46
V18
p98
sg73
(lp99
(VBAKER
VE A
tp100
asg52
I1979
sg42
VHYTOCHEMISTRY
p101
sbag1
(g2
g3
NtRp102
(dp103
g48
V10.1002/jsfa.2740260913
p104
sg44
VJ SCI FOOD AGR
p105
sg46
V26
p106
sg73
(lp107
(VBAKER
VE A
tp108
asg52
I1975
sg42
V1347
p109
sbag1
(g2
g3
NtRp110
(dp111
g48
V10.1002/jsfa.2740260807
p112
sg44
VJ SCI FOOD AGR
p113
sg46
V26
p114
sg73
(lp115
(VBAKER
VE A
tp116
asg52
I1975
sg42
V1093
p117
sbag1
(g2
g3
NtRp118
(dp119
g48
Nsg44
VLINNEAN SOC S SERIES
p120
sg46
Nsg73
(lp121
(VBAKER
VE A
tp122
asg52
I1982
sg42
V139
p123
sbag1
(g2
g3
NtRp124
(dp125
g48
V10.1111/j.1469-8137.1981.tb04579.x
p126
sg44
VNEW PHYTOL
p127
sg46
V88
p128
sg73
(lp129
(VBAKER
VE A
tp130
asg52
I1981
sg42
V731
p131
sbag1
(g2
g3
NtRp132
(dp133
g48
V10.1111/j.1095-8339.1998.tb02529.x
p134
sg44
VBOT J LINN SOC
p135
sg46
V126
p136
sg73
(lp137
(VBARTHLOTT
VW
tp138
asg52
I1998
sg42
V237
p139
sbag1
(g2
g3
NtRp140
(dp141
g48
V10.1116/1.577441
p142
sg44
VJ VAC SCI TECHNOL A
p143
sg46
V9
sg73
(lp144
(VBASFORD
VJ A
tp145
asg52
I1991
sg42
V1991
p146
sbag1
(g2
g3
NtRp147
(dp148
g48
V10.1111/j.1365-3059.1990.tb02536.x
p149
sg44
VPLANT PATHOL
p150
sg46
V39
p151
sg73
(lp152
(VCARVER
VT L W
tp153
asg52
I1990
sg42
VLANT
p154
sbag1
(g2
g3
NtRp155
(dp156
g48
V10.1021/bi00712a030
p157
sg44
VBIOCHEMISTRY
p158
sg46
V13
p159
sg73
(lp160
(VCROTEAU
VR
tp161
asg52
I1974
sg42
V3193
p162
sbag1
(g2
g3
NtRp163
(dp164
g48
V10.1086/314234
p165
sg44
VINT J PLANT SCI
p166
sg46
V161
p167
sg73
(lp168
(VENSIKAT
VH J
tp169
asg52
I2000
sg42
V143
p170
sbag1
(g2
g3
NtRp171
(dp172
g48
V10.1111/j.1744-7348.1964.tb03779.x
p173
sg44
VANN APPL BIOL
p174
sg46
V53
p175
sg73
(lp176
(VFERNANDES
VA M S
tp177
asg52
I1964
sg42
V43
p178
sbag1
(g2
g3
NtRp179
(dp180
g48
V10.1006/pmpp.1995.1046
p181
sg44
VPHYSIOL MOL PLANT P
p182
sg46
V47
p183
sg73
(lp184
(VFLAISHMAN
VM A
tp185
asg52
I1995
sg42
VHYSIOL
p186
sbag1
(g2
g3
NtRp187
(dp188
g48
V10.1016/0098-8472(95)00004-9
p189
sg44
VENVIRON EXP BOT
p190
sg46
V35
p191
sg73
(lp192
(VGARREC
VJ P
tp193
asg52
I1995
sg42
V399
p194
sbag1
(g2
g3
NtRp195
(dp196
g48
Nsg44
VZ NATURFORSCH C
p197
sg46
V47
p198
sg73
(lp199
(VGULZ
VP G
tp200
asg52
I1992
sg42
V516
p201
sbag1
(g2
g3
NtRp202
(dp203
g48
V10.1016/0031-9422(91)85249-Y
p204
sg44
VPHYTOCHEMISTRY
p205
sg46
V30
p206
sg73
(lp207
(VGULZ
VP G
tp208
asg52
I1991
sg42
VHYTOCHEMISTRY
p209
sbag1
(g2
g3
NtRp210
(dp211
g48
Nsg44
VZ NATURFORSCH C
p212
sg46
V45
p213
sg73
(lp214
(VPRASAD
VR B N
tp215
asg52
I1990
sg42
V805
p216
sbag1
(g2
g3
NtRp217
(dp218
g48
V10.1016/0304-4211(84)90249-9
p219
sg44
VPLANT SCI LETT
p220
sg46
V36
p221
sg73
(lp222
(VHAAS
VK
tp223
asg52
I1984
sg42
VLANT
p224
sbag1
(g2
g3
NtRp225
(dp226
g48
Nsg44
VBIOCHEM PHYSIOL PFL
p227
sg46
V171
p228
sg73
(lp229
(VHAAS
VK
tp230
asg52
I1977
sg42
V25
p231
sbag1
(g2
g3
NtRp232
(dp233
g48
V10.1007/BF00387646
p234
sg44
VPLANTA
p235
sg46
V93
p236
sg73
(lp237
(VHALLAM
VN D
tp238
asg52
I1970
sg42
VLANTA
p239
sbag1
(g2
g3
NtRp240
(dp241
g48
V10.1007/s004250050456
p242
sg44
VPLANTA
p243
sg46
V207
p244
sg73
(lp245
(VHAUKE
VV
tp246
asg52
I1998
sg42
VLANTA
p247
sbag1
(g2
g3
NtRp248
(dp249
g48
Nsg44
VAngewandte Botanik
p250
sg46
V66
p251
sg73
(lp252
(VHELLMANN
VMONICA
tp253
asg52
I1992
sg42
V109
p254
sbag1
(g2
g3
NtRp255
(dp256
g48
V10.1016/0378-5963(82)90129-5
p257
sg44
VAPPL SURF SCI
p258
sg46
V10
p259
sg73
(lp260
(VHOLLOWAY
VP H
tp261
asg52
I1982
sg42
V1
sbag1
(g2
g3
NtRp262
(dp263
g48
Nsg44
VCRC HDB CHROMATOGRAP
p264
sg46
V1
sg73
(lp265
(VHOLLOWAY
VP J
tp266
asg52
I1984
sg42
V347
p267
sbag1
(g2
g3
NtRp268
(dp269
g48
V10.1016/0031-9422(74)85028-4
p270
sg44
VPHYTOCHEMISTRY
p271
sg46
V13
p272
sg73
(lp273
(VHOLLOWAY
VP J
tp274
asg52
I1974
sg42
VHYTOCHEMISTRY
p275
sbag1
(g2
g3
NtRp276
(dp277
g48
V10.1111/j.1469-8137.1975.tb01417.x
p278
sg44
VNEW PHYTOL
p279
sg46
V75
p280
sg73
(lp281
(VJEFFREE
VC E
tp282
asg52
I1975
sg42
V539
p283
sbag1
(g2
g3
NtRp284
(dp285
g48
V10.1016/0031-9422(95)00898-5
p286
sg44
VPHYTOCHEMISTRY
p287
sg46
V42
p288
sg73
(lp289
(VJENKS
VM A
tp290
asg52
I1996
sg42
VHYTOCHEMISTRY
p291
sbag1
(g2
g3
NtRp292
(dp293
g48
V10.1046/j.1365-3040.2000.00581.x
p294
sg44
VPLANT CELL ENVIRON
p295
sg46
V23
p296
sg73
(lp297
(VJETTER
VR
tp298
asg52
I2000
sg42
VLANT
p299
sbag1
(g2
g3
NtRp300
(dp301
g48
V10.1016/S0031-9422(98)00369-0
p302
sg44
VPHYTOCHEMISTRY
p303
sg46
V50
p304
sg73
(lp305
(VJETTER
VR
tp306
asg52
I1999
sg42
VHYTOCHEMISTRY
p307
sbag1
(g2
g3
NtRp308
(dp309
g48
Nsg44
VPLANTA
p310
sg46
V195
p311
sg73
(lp312
(VJETTER
VR
tp313
asg52
I1994
sg42
VLANTA
p314
sbag1
(g2
g3
NtRp315
(dp316
g48
V10.1080/01483918808076724
p317
sg44
VJ LIQ CHROMATOGR
p318
sg46
V11
p319
sg73
(lp320
(VKHAN
VZ H
tp321
asg52
I1988
sg42
V1605
p322
sbag1
(g2
g3
NtRp323
(dp324
g48
Nsg44
VCAN J BOT
p325
sg46
V62
p326
sg73
(lp327
(VKOLATTUKUDY
VP E
tp328
asg52
I1984
sg42
V2918
p329
sbag1
(g2
g3
NtRp330
(dp331
g48
Nsg44
VJ APPL CHEM
p332
sg46
V19
p333
sg73
(lp334
(VLEROUX
VJ H
tp335
asg52
I1969
sg42
V86
p336
sbag1
(g2
g3
NtRp337
(dp338
g48
Nsg44
VPLANT SCI
p339
sg46
V134
p340
sg73
(lp341
(VMAIER
VC G A
tp342
asg52
I1998
sg42
VLANT
p343
sbag1
(g2
g3
NtRp344
(dp345
g48
V10.1007/s000490050005
p346
sg44
VCHEMOECOLOGY
p347
sg46
V10
p348
sg73
(lp349
(VMARKSTADTER
VC
tp350
asg52
I2000
sg42
V33
p351
sbag1
(g2
g3
NtRp352
(dp353
g48
Nsg44
VTHESIS U KAISERSLAUT
p354
sg46
Nsg73
(lp355
(VMARKSTADTER
VC
tp356
asg52
I1994
sg42
Nsbag1
(g2
g3
NtRp357
(dp358
g48
Nsg44
VCAN J BOT
p359
sg46
V77
p360
sg73
(lp361
(VMEUSEL
VI
tp362
asg52
I1999
sg42
V706
p363
sbag1
(g2
g3
NtRp364
(dp365
g48
V10.1111/j.1469-8137.1987.tb02928.x
p366
sg44
VNEW PHYTOL
p367
sg46
V107
p368
sg73
(lp369
(VPERCY
VK E
tp370
asg52
I1987
sg42
V577
p371
sbag1
(g2
g3
NtRp372
(dp373
g48
Nsg44
VPLANT PHYSIOL
p374
sg46
V103
p375
sg73
(lp376
(VPODILA
VG K
tp377
asg52
I1993
sg42
VLANT
p378
sbag1
(g2
g3
NtRp379
(dp380
g48
V10.1104/pp.116.3.901
p381
sg44
VPLANT PHYSIOL
p382
sg46
V116
p383
sg73
(lp384
(VRHEE
VY
tp385
asg52
I1998
sg42
VLANT
p386
sbag1
(g2
g3
NtRp387
(dp388
g48
Nsg44
VWAXES CHEM MOL BIOL
p389
sg46
Nsg73
(lp390
(VRIEDERER
VM
tp391
asg52
I1995
sg42
V131
p392
sbag1
(g2
g3
NtRp393
(dp394
g48
Nsg44
VPLANT CUTICLES INTEG
p395
sg46
Nsg73
(lp396
(VRIEDERER
VM
tp397
asg52
I1996
sg42
VLANT
p398
sbag1
(g2
g3
NtRp399
(dp400
g48
V10.1007/BF00394885
p401
sg44
VPLANTA
p402
sg46
V174
p403
sg73
(lp404
(VRIEDERER
VM
tp405
asg52
I1988
sg42
VLANTA
p406
sbag1
(g2
g3
NtRp407
(dp408
g48
V10.1007/BF00397478
p409
sg44
VPLANTA
p410
sg46
V156
p411
sg73
(lp412
(VSCHMIDT
VH W
tp413
asg52
I1982
sg42
VLANTA
p414
sbag1
(g2
g3
NtRp415
(dp416
g48
Nsg44
VARCH ENVIRON CON TOX
p417
sg46
V17
p418
sg73
(lp419
(VSCHONHERR
VJ
tp420
asg52
I1988
sg42
V13
p421
sbag1
(g2
g3
NtRp422
(dp423
g48
V10.1007/BF00389989
p424
sg44
VPLANTA
p425
sg46
V131
p426
sg73
(lp427
(VSCHONHERR
VJ
tp428
asg52
I1976
sg42
VLANTA
p429
sbag1
(g2
g3
NtRp430
(dp431
g48
V10.1002/ps.2780380413
p432
sg44
VPESTIC SCI
p433
sg46
V38
p434
sg73
(lp435
(VSCHREIBER
VL
tp436
asg52
I1993
sg42
VESTIC
p437
sbag1
(g2
g3
NtRp438
(dp439
g48
V10.1007/BF01911229
p440
sg44
VPLANTA
p441
sg46
V60
p442
sg73
(lp443
(VSITTE
VP
tp444
asg52
I1963
sg42
VLANTA
p445
sbag1
(g2
g3
NtRp446
(dp447
g48
Nsg44
VJ LIPID RES
p448
sg46
V25
p449
sg73
(lp450
(VSMALL
VD M
tp451
asg52
I1984
sg42
V1490
p452
sbag1
(g2
g3
NtRp453
(dp454
g48
Nsg44
VP105
p455
sg46
Nsg73
(lp456
(VSTADLER
VE
tp457
asg52
I1986
sg42
V105
p458
sbag1
(g2
g3
NtRp459
(dp460
g48
V10.1016/0031-9422(96)00241-5
p461
sg44
VPHYTOCHEMISTRY
p462
sg46
V43
p463
sg73
(lp464
(VSTAMMITTI
VL
tp465
asg52
I1996
sg42
VHYTOCHEMISTRY
p466
sbag1
(g2
g3
NtRp467
(dp468
g48
Nsg44
VPHYTOCHEMISTRY
p469
sg46
V16
p470
sg73
(lp471
(VSTOCKER
VH
tp472
asg52
I1975
sg42
VHYTOCHEMISTRY
p473
sbag1
(g2
g3
NtRp474
(dp475
g48
V10.1111/j.1399-3054.1988.tb05434.x
p476
sg44
VPHYSIOL PLANTARUM
p477
sg46
V73
p478
sg73
(lp479
(VSVENNINGSSON
VM
tp480
asg52
I1988
sg42
VHYSIOL
p481
sbag1
(g2
g3
NtRp482
(dp483
g48
V10.1016/0031-9422(73)85124-6
p484
sg44
VPHYTOCHEMISTRY
p485
sg46
V12
p486
sg73
(lp487
(VTULLOCH
VA P
tp488
asg52
I1973
sg42
VHYTOCHEMISTRY
p489
sbag1
(g2
g3
NtRp490
(dp491
g48
Nsg44
VINSECT PLANT BIOL PH
p492
sg46
Nsg73
(lp493
(VVAN
VLOON J J A
tp494
asg52
I1998
sg42
Nsbag1
(g2
g3
NtRp495
(dp496
g48
Nsg44
VChemoecology
p497
sg46
V3
sg73
(lp498
(VVAN
VLOON J J A
tp499
asg52
I1992
sg42
V39
p500
sbag1
(g2
g3
NtRp501
(dp502
g48
Nsg44
VMETHODS PLANT BIOCH
p503
sg46
V4
sg73
(lp504
(VWALTON
VT J
tp505
asg52
I1990
sg42
V106
p506
sbag1
(g2
g3
NtRp507
(dp508
g48
V10.1071/BT9960691
p509
sg44
VAUST J BOT
p510
sg46
V44
p511
sg73
(lp512
(VWIRTHENSOHN
VM G
tp513
asg52
I1996
sg42
V691
p514
sbag1
(g2
g3
NtRp515
(dp516
g48
Nsg44
VANGEW BOT
p517
sg46
V62
p518
sg73
(lp519
(VWOLTER
VM
tp520
asg52
I1988
sg42
V53
p521
sbasb.