ccopy_reg
_reconstructor
p1
(ctethne.classes.paper
Paper
p2
c__builtin__
object
p3
NtRp4
(dp5
S'publisherCity'
p6
VROCKVILLE
p7
sS'reprintAddress'
p8
VAsamizu, E (reprint author), Univ Tsukuba, Ctr Gene Res, Grad Sch Life & Environm Sci, Tsukuba, Ibaraki 3058572, Japan.
p9
sS'WC'
p10
VPlant Sciences
p11
sS'GA'
p12
V333WR
p13
sS'abstract'
p14
VWe have used reverse genetics to identify genes involved in legume-rhizobium symbiosis in Lotus japonicus. We obtained the sequences of 20 putative transcription factors from previously reported large-scale transcriptome data. The transcription factors were classified according to their DNA binding domains and patterns of expression during the nodulation process. We identified two homologues of Medicago truncatula MtHAP2-1, which encodes a CCAAT-binding protein and has been shown to play a role in nodulation. The functions of the remaining genes in the nodulation process have not been reported. Seven genes were found to encode proteins with AP2-EREBP domains, six of which were similar to proteins that have been implicated in ethylene and/or jasmonic acid signal transduction and defense gene regulation in Arabidopsis (Arabidopsis thaliana). We identified a gene, LjERF1, that is most similar to Arabidopsis ERF1, which is up-regulated by ethylene and jasmonic acid and activates downstream defense genes. LjERF1 showed the same pattern of up-regulation in roots as Arabidopsis ERF1. The nodulation phenotype of roots that overexpressed LjERF1 or inhibited LjERF1 expression using an RNA interference construct indicated that this gene functions as a positive regulator of nodulation. We propose that LjERF1 functions as a key regulator of successful infection of L. japonicus by Mesorhizobium loti.
p15
sS'pageEnd'
p16
I2040
sS'publisherAddress'
p17
V15501 MONONA DRIVE, ROCKVILLE, MD 20855 USA
p18
sS'documentType'
p19
VArticle
p20
sS'subject'
p21
VPlant Sciences
p22
sS'isoSource'
p23
VPlant Physiol.
p24
sS'timesCited'
p25
(lp26
I22
aVZ9 25
p27
asS'PT'
p28
VJ
sS'title'
p29
VA Positive Regulatory Role For Ljerf1 In The Nodulation Process Is Revealed By Systematic Analysis Of Nodule-Associated Transcription Factors Of Lotus Japonicus
p30
sS'ISSN'
p31
(lp32
V0032-0889
p33
aVJ9 PLANT PHYSIOL
p34
asS'authors_full'
p35
(lp36
(VASAMIZU
VERIKA
tp37
a(VSHIMODA
VYOSHIKAZU
tp38
a(VKOUCHI
VHIROSHI
tp39
a(VTABATA
VSATOSHI
tp40
a(VSATO
VSHUSEI
tp41
asS'PG'
p42
I11
sS'PD'
p43
VAUG
p44
sS'pageStart'
p45
I2030
sS'issue'
p46
I4
sS'journal'
p47
VPLANT PHYSIOLOGY
p48
sS'volume'
p49
V147
p50
sS'doi'
p51
V10.1104/pp.108.118141
p52
sS'emailAddress'
p53
Vasamizu@gene.tsukuba.ac.jp
p54
sS'authorAddress'
p55
(lp56
V[Asamizu, Erika; Shimoda, Yoshikazu; Tabata, Satoshi; Sato, Shusei] Kazusa DNA Res Inst, Dept Plant Genome Res, Chiba 2920818, Japan.
p57
aV[Kouchi, Hiroshi] Natl Inst Agrobiol Sci, Tsukuba, Ibaraki 3058602, Japan.
p58
asS'date'
p59
I2008
sS'ER'
p60
V
sS'publisher'
p61
VAMER SOC PLANT BIOLOGISTS
p62
sS'authorKeywords'
p63
(lp64
VFACTOR SIGNAL-TRANSDUCTION
p65
aVMEDICAGO-TRUNCATULA
p66
aVGENE-EXPRESSION
p67
aVPLANT DEFENSE
p68
aVLEGUME SYMBIOSIS
p69
aVROOT-NODULES
p70
aVMODEL LEGUME
p71
aVGRAS FAMILY
p72
aVETHYLENE
p73
aVARABIDOPSIS
p74
asS'language'
p75
VEnglish
p76
sS'wosid'
p77
VWOS:000258184800050
p78
sS'citationCount'
p79
I34
sS'authors_init'
p80
(lp81
(VASAMIZU
VE
tp82
a(VSHIMODA
VY
tp83
a(VKOUCHI
VH
tp84
a(VTABATA
VS
tp85
a(VSATO
VS
tp86
asS'citedReferences'
p87
(lp88
g1
(g2
g3
NtRp89
(dp90
g51
V10.1105/tpc.107.052944
p91
sg47
VPLANT CELL
p92
sg49
V19
p93
sg80
(lp94
(VANDRIANKAJA
VA
tp95
asg59
I2007
sg45
VLANT
p96
sbag1
(g2
g3
NtRp97
(dp98
g51
V10.1094/MPMI-18-0487
p99
sg47
VMOL PLANT MICROBE IN
p100
sg49
V18
p101
sg80
(lp102
(VASAMIZU
VE
tp103
asg59
I2005
sg45
V487
p104
sbag1
(g2
g3
NtRp105
(dp106
g51
V10.1016/0378-1119(95)00313-U
p107
sg47
VGENE
p108
sg49
V162
p109
sg80
(lp110
(VBECKER
VA
tp111
asg59
I1995
sg45
V37
p112
sbag1
(g2
g3
NtRp113
(dp114
g51
V10.1101/gad.402806
p115
sg47
VGENE DEV
p116
sg49
V20
p117
sg80
(lp118
(VCOMBIER
VJ P
tp119
asg59
I2006
sg45
V3084
p120
sbag1
(g2
g3
NtRp121
(dp122
g51
V10.1093/dnares/dsm014
p123
sg47
VDNA RES
p124
sg49
V14
p125
sg80
(lp126
(VDEGUCHI
VY
tp127
asg59
I2007
sg45
V117
p128
sbag1
(g2
g3
NtRp129
(dp130
g51
V10.1038/338579a0
p131
sg47
VNATURE
p132
sg49
V338
p133
sg80
(lp134
(VDIAZ
VC L
tp135
asg59
I1989
sg45
V579
p136
sbag1
(g2
g3
NtRp137
(dp138
g51
V10.1104/pp.104.013612
p139
sg47
VPLANT PHYSIOL
p140
sg49
V136
p141
sg80
(lp142
(VEL
VYAHYAOUI F
tp143
asg59
I2004
sg45
VLANT
p144
sbag1
(g2
g3
NtRp145
(dp146
g51
V10.1016/j.pbi.2007.04.020
p147
sg47
VCURR OPIN PLANT BIOL
p148
sg49
V10
p149
sg80
(lp150
(VEULGEM
VT
tp151
asg59
I2007
sg45
V366
p152
sbag1
(g2
g3
NtRp153
(dp154
g51
V10.1094/MPMI.1998.11.5.393
p155
sg47
VMOL PLANT MICROBE IN
p156
sg49
V11
p157
sg80
(lp158
(VGAMAS
VP
tp159
asg59
I1998
sg45
V393
p160
sbag1
(g2
g3
NtRp161
(dp162
g51
V10.1186/1471-2105-4-25
p163
sg47
VBMC BIOINFORMATICS
p164
sg49
V4
sg80
(lp165
(VDAVULURI
VR V
tp166
asg59
I2003
sg45
Nsbag1
(g2
g3
NtRp167
(dp168
g51
V10.1007/BF00014672
p169
sg47
VPLANT MOL BIOL
p170
sg49
V25
p171
sg80
(lp172
(VHAJDUKIEWICZ
VP
tp173
asg59
I1994
sg45
VLANT
p174
sbag1
(g2
g3
NtRp175
(dp176
g51
V10.1094/MPMI.1997.10.5.665
p177
sg47
VMOL PLANT MICROBE IN
p178
sg49
V10
p179
sg80
(lp180
(VHEARD
VJ
tp181
asg59
I1997
sg45
V665
p182
sbag1
(g2
g3
NtRp183
(dp184
g51
V10.1126/science.1110951
p185
sg47
VSCIENCE
p186
sg49
V308
p187
sg80
(lp188
(VKALO
VP
tp189
asg59
I2005
sg45
V1786
p190
sbag1
(g2
g3
NtRp191
(dp192
g51
V10.1093/dnares/11.4.263
p193
sg47
VDNA RES
p194
sg49
V11
p195
sg80
(lp196
(VKOUCHI
VH
tp197
asg59
I2004
sg45
V263
p198
sbag1
(g2
g3
NtRp199
(dp200
g51
V10.1094/MPMI.2003.16.8.663
p201
sg47
VMOL PLANT MICROBE IN
p202
sg49
V16
p203
sg80
(lp204
(VKUMAGAI
VH
tp205
asg59
I2003
sg45
V663
p206
sbag1
(g2
g3
NtRp207
(dp208
g51
Nsg47
VPLANT PHYSIOL
p209
sg49
V140
p210
sg80
(lp211
(VLOHAR
VD P
tp212
asg59
I2006
sg45
VLANT
p213
sbag1
(g2
g3
NtRp214
(dp215
g51
V10.1105/tpc.007468
p216
sg47
VPLANT CELL
p217
sg49
V15
p218
sg80
(lp219
(VLORENZO
VO
tp220
asg59
I2003
sg45
VLANT
p221
sbag1
(g2
g3
NtRp222
(dp223
g51
V10.1104/pp.105.068544
p224
sg47
VPLANT PHYSIOL
p225
sg49
V139
p226
sg80
(lp227
(VMCGRATH
VK C
tp228
asg59
I2005
sg45
VLANT
p229
sbag1
(g2
g3
NtRp230
(dp231
g51
V10.1105/tpc.106.048264
p232
sg47
VPLANT CELL
p233
sg49
V19
p234
sg80
(lp235
(VMIDDLETON
VP H
tp236
asg59
I2007
sg45
VLANT
p237
sbag1
(g2
g3
NtRp238
(dp239
g51
V10.1016/S1360-1385(02)02336-1
p240
sg47
VTRENDS PLANT SCI
p241
sg49
V7
sg80
(lp242
(VMITHOFER
VA
tp243
asg59
I2002
sg45
V440
p244
sbag1
(g2
g3
NtRp245
(dp246
g51
V10.1093/dnares/dsl017
p247
sg47
VDNA RES
p248
sg49
V13
p249
sg80
(lp250
(VMURAKAMI
VY
tp251
asg59
I2006
sg45
V255
p252
sbag1
(g2
g3
NtRp253
(dp254
g51
V10.1093/pcp/pci222
p255
sg47
VPLANT CELL PHYSIOL
p256
sg49
V47
p257
sg80
(lp258
(VNAKAGAWA
VT
tp259
asg59
I2006
sg45
VLANT
p260
sbag1
(g2
g3
NtRp261
(dp262
g51
V10.1104/pp.105.073783
p263
sg47
VPLANT PHYSIOL
p264
sg49
V140
p265
sg80
(lp266
(VNAKANO
VT
tp267
asg59
I2006
sg45
VLANT
p268
sbag1
(g2
g3
NtRp269
(dp270
g51
V10.1046/j.1365-313X.1999.00464.x
p271
sg47
VPLANT J
p272
sg49
V18
p273
sg80
(lp274
(VNIWA
VY
tp275
asg59
I1999
sg45
VLANT
p276
sbag1
(g2
g3
NtRp277
(dp278
g51
V10.1073/pnas.83.18.6935
p279
sg47
VP NATL ACAD SCI USA
p280
sg49
V83
p281
sg80
(lp282
(VOFFRINGA
VI A
tp283
asg59
I1986
sg45
V6935
p284
sbag1
(g2
g3
NtRp285
(dp286
g51
V10.1105/tpc.13.8.1835
p287
sg47
VPLANT CELL
p288
sg49
V13
p289
sg80
(lp290
(VOLDROYD
VG E D
tp291
asg59
I2001
sg45
VLANT
p292
sbag1
(g2
g3
NtRp293
(dp294
g51
V10.1126/science.275.5299.527
p295
sg47
VSCIENCE
p296
sg49
V275
p297
sg80
(lp298
(VPENMETSA
VR V
tp299
asg59
I1997
sg45
V527
p300
sbag1
(g2
g3
NtRp301
(dp302
g51
VDOI 10.1385/1-59259-192-2:365
p303
sg47
VBIOINFORMATICS METHO
p304
sg49
Nsg80
(lp305
(VROZEN
VS
tp306
asg59
I2000
sg45
V365
p307
sbag1
(g2
g3
NtRp308
(dp309
g51
Nsg47
VDNA RES IN PRESS
p310
sg49
Nsg80
(lp311
(VSATO
VS
tp312
asg59
I2008
sg45
Nsbag1
(g2
g3
NtRp313
(dp314
g51
V10.1038/46058
p315
sg47
VNATURE
p316
sg49
V402
p317
sg80
(lp318
(VSCHAUSER
VL
tp319
asg59
I1999
sg45
V191
p320
sbag1
(g2
g3
NtRp321
(dp322
g51
V10.1111/j.1365-313X.2006.02751.x
p323
sg47
VPLANT J
p324
sg49
V46
p325
sg80
(lp326
(VSUN
VJ H
tp327
asg59
I2006
sg45
VLANT
p328
sbag1
(g2
g3
NtRp329
(dp330
g51
V10.1093/pcp/pci138
p331
sg47
VPLANT CELL PHYSIOL
p332
sg49
V46
p333
sg80
(lp334
(VTAKEDA
VN
tp335
asg59
I2005
sg45
VLANT
p336
sbag1
(g2
g3
NtRp337
(dp338
g51
V10.1046/j.1365-313X.2001.01105.x
p339
sg47
VPLANT J
p340
sg49
V27
p341
sg80
(lp342
(VWESLEY
VS V
tp343
asg59
I2001
sg45
VLANT
p344
sbag1
(g2
g3
NtRp345
(dp346
g51
V10.1094/MPMI.2001.14.12.1463
p347
sg47
VMOL PLANT MICROBE IN
p348
sg49
V14
p349
sg80
(lp350
(VZUCCHERO
VJ C
tp351
asg59
I2001
sg45
V1463
p352
sbasb.