ccopy_reg
_reconstructor
p1
(ctethne.classes.paper
Paper
p2
c__builtin__
object
p3
NtRp4
(dp5
S'publisherCity'
p6
VROCKVILLE
p7
sS'reprintAddress'
p8
VWasteneys, GO (reprint author), Univ British Columbia, Dept Bot, Vancouver, BC V6T 1Z4, Canada.
p9
sS'WC'
p10
VPlant Sciences
p11
sS'GA'
p12
V138YM
p13
sS'FX'
p14
(lp15
VThis work was supported by the Natural Sciences and Engineering Research
p16
aVCouncil of Canada (Discovery Grant no. 298264-09 to G.O.W.), the Working
p17
aVon Walls Collaborative Research and Training Experience program to M.
p18
aVF., and an Undergraduate Summer Research Award to C.L.
p19
asS'abstract'
p20
VMultiple cellulose synthase (CesA) subunits assemble into plasma membrane complexes responsible for cellulose production. In the Arabidopsis (Arabidopsis thaliana) model system, we identified a novel D604N missense mutation, designated anisotropy1 (any1), in the essential primary cell wall CesA1. Most previously identified CesA1 mutants show severe constitutive or conditional phenotypes such as embryo lethality or arrest of cellulose production but any1 plants are viable and produce seeds, thus permitting the study of CesA1 function. The dwarf mutants have reduced anisotropic growth of roots, aerial organs, and trichomes. Interestingly, cellulose microfibrils were disordered only in the epidermal cells of the any1 inflorescence stem, whereas they were transverse to the growth axis in other tissues of the stem and in all elongated cell types of roots and dark-grown hypocotyls. Overall cellulose content was not altered but both cell wall crystallinity and the velocity of cellulose synthase complexes were reduced in any1. We crossed any1 with the temperature-sensitive radial swelling1-1 (rsw1-1) CesA1 mutant and observed partial complementation of the any1 phenotype in the transheterozygotes at rsw1-1's permissive temperature (21 degrees C) and full complementation by any1 of the conditional rsw1-1 root swelling phenotype at the restrictive temperature (29 degrees C). In rsw1-1 homozygotes at restrictive temperature, a striking dissociation of cellulose synthase complexes from the plasma membrane was accompanied by greatly diminished motility of intracellular cellulose synthase-containing compartments. Neither phenomenon was observed in the any1 rsw1-1 transheterozygotes, suggesting that the proteins encoded by the any1 allele replace those encoded by rsw1-1 at restrictive temperature.
p21
sS'pageEnd'
p22
I85
sS'date'
p23
I2013
sS'documentType'
p24
VArticle
p25
sS'subject'
p26
VPlant Sciences
p27
sS'isoSource'
p28
VPlant Physiol.
p29
sS'timesCited'
p30
(lp31
I0
aVZ9 0
p32
asS'funding'
p33
(lp34
(VNatural Sciences and Engineering Research Council of Canada
V298264-09
tp35
a(VWorking on Walls Collaborative Research and Training Experience program
Ntp36
a(VUndergraduate Summer Research Award
Ntp37
asS'PT'
p38
VJ
sS'title'
p39
VThe Anisotropy1 D604N Mutation In The Arabidopsis Cellulose Synthase1 Catalytic Domain Reduces Cell Wall Crystallinity And The Velocity Of Cellulose Synthase Complexes
p40
sS'ISSN'
p41
(lp42
V0032-0889
p43
aVJ9 PLANT PHYSIOL
p44
asS'authors_full'
p45
(lp46
(VFUJITA
VMIKI
tp47
a(VHIMMELSPACH
VREGINA
tp48
a(VWARD
VJULIET
tp49
a(VWHITTINGTON
VANGELA
tp50
a(VHASENBEIN
VNORTRUD
tp51
a(VLIU
VCHRISTINE
tp52
a(VTRUONG
VTHY T
tp53
a(VGALWAY
VMOIRA E
tp54
a(VMANSFIELD
VSHAWN D
tp55
a(VHOCART
VCHARLES H
tp56
a(VWASTENEYS
VGEOFFREY O
tp57
asS'PG'
p58
I12
sS'PD'
p59
VMAY
p60
sS'pageStart'
p61
I74
sS'issue'
p62
I1
sS'journal'
p63
VPLANT PHYSIOLOGY
p64
sS'volume'
p65
V162
p66
sS'doi'
p67
V10.1104/pp.112.211565
p68
sS'emailAddress'
p69
Vgeoffrey.wasteneys@ubc.ca
p70
sS'authorAddress'
p71
(lp72
V[Fujita, Miki; Liu, Christine; Wasteneys, Geoffrey O.] Univ British Columbia, Dept Bot, Vancouver, BC V6T 1Z4, Canada.
p73
aV[Mansfield, Shawn D.] Univ British Columbia, Dept Wood Sci, Vancouver, BC V6T 1Z4, Canada.
p74
aV[Himmelspach, Regina; Ward, Juliet; Whittington, Angela; Hasenbein, Nortrud; Wasteneys, Geoffrey O.] Australian Natl Univ, Res Sch Biol, Plant Cell Biol Grp, Canberra, ACT 0200, Australia.
p75
aV[Truong, Thy T.; Hocart, Charles H.] Australian Natl Univ, Res Sch Biol, Mass Spectrometry Facil, Canberra, ACT 0200, Australia.
p76
aV[Galway, Moira E.] St Francis Xavier Univ, Dept Biol, Antigonish, NS B2G 2W5, Canada.
p77
asS'publisherAddress'
p78
V15501 MONONA DRIVE, ROCKVILLE, MD 20855 USA
p79
sS'ER'
p80
V
sS'publisher'
p81
VAMER SOC PLANT BIOLOGISTS
p82
sS'authorKeywords'
p83
(lp84
VGENETIC-EVIDENCE
p85
aVPLASMA-MEMBRANE
p86
aVHIGHER-PLANTS
p87
aVMICROTUBULES
p88
aVTHALIANA
p89
aVBIOSYNTHESIS
p90
aVCESA
p91
aVELONGATION
p92
aVPROTEIN
p93
aVGROWTH
p94
asS'language'
p95
VEnglish
p96
sS'wosid'
p97
VWOS:000318547900007
p98
sS'citationCount'
p99
I41
sS'authors_init'
p100
(lp101
(VFUJITA
VM
tp102
a(VHIMMELSPACH
VR
tp103
a(VWARD
VJ
tp104
a(VWHITTINGTON
VA
tp105
a(VHASENBEIN
VN
tp106
a(VLIU
VC
tp107
a(VTRUONG
VT T
tp108
a(VGALWAY
VM E
tp109
a(VMANSFIELD
VS D
tp110
a(VHOCART
VC H
tp111
a(VWASTENEYS
VG O
tp112
asS'citedReferences'
p113
(lp114
g1
(g2
g3
NtRp115
(dp116
g67
V10.1126/science.279.5351.717
p117
sg63
VSCIENCE
p118
sg65
V279
p119
sg100
(lp120
(VARIOLI
VT
tp121
asg23
I1998
sg61
V717
p122
sbag1
(g2
g3
NtRp123
(dp124
g67
V10.1104/pp.102.010603
p125
sg63
VPLANT PHYSIOL
p126
sg65
V130
p127
sg100
(lp128
(VBEECKMAN
VT
tp129
asg23
I2002
sg61
VLANT
p130
sbag1
(g2
g3
NtRp131
(dp132
g67
V10.1093/jxb/ern344
p133
sg63
VJ EXP BOT
p134
sg65
V60
p135
sg100
(lp136
(VBISCHOFF
VV
tp137
asg23
I2009
sg61
V955
p138
sbag1
(g2
g3
NtRp139
(dp140
g67
V10.1016/j.cub.2011.09.026
p141
sg63
VCURR BIOL
p142
sg65
V21
p143
sg100
(lp144
(VBISCHOFF
VV
tp145
asg23
I2011
sg61
V1822
p146
sbag1
(g2
g3
NtRp147
(dp148
g67
Nsg63
VTRENDS PLANT SCI
p149
sg65
V1
sg100
(lp150
(VBROWN
VR M
tp151
asg23
I1996
sg61
V149
p152
sbag1
(g2
g3
NtRp153
(dp154
g67
V10.1104/pp.010931
p155
sg63
VPLANT PHYSIOL
p156
sg65
V129
p157
sg100
(lp158
(VBURN
VJ E
tp159
asg23
I2002
sg61
VLANT
p160
sbag1
(g2
g3
NtRp161
(dp162
g67
V10.1073/pnas.1012348107
p163
sg63
VP NATL ACAD SCI USA
p164
sg65
V107
p165
sg100
(lp166
(VCHEN
VS L
tp167
asg23
I2010
sg61
V17188
p168
sbag1
(g2
g3
NtRp169
(dp170
g67
V10.1016/S0022-2836(03)00307-3
p171
sg63
VJ MOL BIOL
p172
sg65
V328
p173
sg100
(lp174
(VCOUTINHO
VP M
tp175
asg23
I2003
sg61
V307
p176
sbag1
(g2
g3
NtRp177
(dp178
g67
V10.1105/tpc.108.065334
p179
sg63
VPLANT CELL
p180
sg65
V21
p181
sg100
(lp182
(VCROWELL
VE F
tp183
asg23
I2009
sg61
VLANT
p184
sbag1
(g2
g3
NtRp185
(dp186
g67
V10.1073/pnas.0706569104
p187
sg63
VP NATL ACAD SCI USA
p188
sg65
V104
p189
sg100
(lp190
(VDESPREZ
VT
tp191
asg23
I2007
sg61
V15572
p192
sbag1
(g2
g3
NtRp193
(dp194
g67
V10.1105/tpc.12.12.2409
p195
sg63
VPLANT CELL
p196
sg65
V12
p197
sg100
(lp198
(VFAGARD
VM
tp199
asg23
I2000
sg61
VLANT
p200
sbag1
(g2
g3
NtRp201
(dp202
g67
V10.1111/j.1365-313X.2011.04552.x
p203
sg63
VPLANT J
p204
sg65
V66
p205
sg100
(lp206
(VFUJITA
VM
tp207
asg23
I2011
sg61
VLANT
p208
sbag1
(g2
g3
NtRp209
(dp210
g67
V10.1083/jcb.200111093
p211
sg63
VJ CELL BIOL
p212
sg65
V156
p213
sg100
(lp214
(VGILLMOR
VC S
tp215
asg23
I2002
sg61
V1003
p216
sbag1
(g2
g3
NtRp217
(dp218
g67
V10.1073/pnas.1007092107
p219
sg63
VP NATL ACAD SCI USA
p220
sg65
V107
p221
sg100
(lp222
(VGU
VY
tp223
asg23
I2010
sg61
V12866
p224
sbag1
(g2
g3
NtRp225
(dp226
g67
V10.1038/ncb1886
p227
sg63
VNAT CELL BIOL
p228
sg65
V11
p229
sg100
(lp230
(VGUTIERREZ
VR
tp231
asg23
I2009
sg61
V797
p232
sbag1
(g2
g3
NtRp233
(dp234
g67
V10.1023/B:CELL.0000046340.99925.57
p235
sg63
VCELLULOSE
p236
sg65
V11
p237
sg100
(lp238
(VHAMANN
VT
tp239
asg23
I2004
sg61
V279
p240
sbag1
(g2
g3
NtRp241
(dp242
g67
V10.1073/pnas.1200352109
p243
sg63
VP NATL ACAD SCI USA
p244
sg65
V109
p245
sg100
(lp246
(VHARRIS
VD M
tp247
asg23
I2012
sg61
V4098
p248
sbag1
(g2
g3
NtRp249
(dp250
g67
V10.1046/j.1365-313X.2003.01906.x
p251
sg63
VPLANT J
p252
sg65
V36
p253
sg100
(lp254
(VHIMMELSPACH
VR
tp255
asg23
I2003
sg61
VLANT
p256
sbag1
(g2
g3
NtRp257
(dp258
g67
V10.1104/pp.103.031088
p259
sg63
VPLANT PHYSIOL
p260
sg65
V134
p261
sg100
(lp262
(VKAZAMA
VH
tp263
asg23
I2004
sg61
VLANT
p264
sbag1
(g2
g3
NtRp265
(dp266
g67
V10.1105/tpc.11.11.2075
p267
sg63
VPLANT CELL
p268
sg65
V11
p269
sg100
(lp270
(VKIMURA
VS
tp271
asg23
I1999
sg61
VLANT
p272
sbag1
(g2
g3
NtRp273
(dp274
g67
V10.1073/pnas.162077099
p275
sg63
VP NATL ACAD SCI USA
p276
sg65
V99
p277
sg100
(lp278
(VKUREK
VI
tp279
asg23
I2002
sg61
V11109
p280
sbag1
(g2
g3
NtRp281
(dp282
g67
V10.1104/pp.126.1.278
p283
sg63
VPLANT PHYSIOL
p284
sg65
V126
p285
sg100
(lp286
(VLANE
VD R
tp287
asg23
I2001
sg61
VLANT
p288
sbag1
(g2
g3
NtRp289
(dp290
g67
V10.1105/tpc.002873
p291
sg63
VPLANT CELL
p292
sg65
V14
p293
sg100
(lp294
(VPAGANT
VS
tp295
asg23
I2002
sg61
VLANT
p296
sbag1
(g2
g3
NtRp297
(dp298
g67
V10.1126/science.1126551
p299
sg63
VSCIENCE
p300
sg65
V312
p301
sg100
(lp302
(VPAREDEZ
VA R
tp303
asg23
I2006
sg61
V1491
p304
sbag1
(g2
g3
NtRp305
(dp306
g67
V10.1104/pp.108.120196
p307
sg63
VPLANT PHYSIOL
p308
sg65
V147
p309
sg100
(lp310
(VPAREDEZ
VA R
tp311
asg23
I2008
sg61
VLANT
p312
sbag1
(g2
g3
NtRp313
(dp314
g67
V10.1073/pnas.93.22.12637
p315
sg63
VP NATL ACAD SCI USA
p316
sg65
V93
p317
sg100
(lp318
(VPEAR
VJ R
tp319
asg23
I1996
sg61
V12637
p320
sbag1
(g2
g3
NtRp321
(dp322
g67
V10.1007/s004250000301
p323
sg63
VPLANTA
p324
sg65
V211
p325
sg100
(lp326
(VPENG
VL C
tp327
asg23
I2000
sg61
VLANTA
p328
sbag1
(g2
g3
NtRp329
(dp330
g67
V10.1073/pnas.0706592104
p331
sg63
VP NATL ACAD SCI USA
p332
sg65
V104
p333
sg100
(lp334
(VPERSSON
VS
tp335
asg23
I2007
sg61
V15566
p336
sbag1
(g2
g3
NtRp337
(dp338
g67
V10.1023/B:CELL.0000046415.45774.80
p339
sg63
VCELLULOSE
p340
sg65
V11
p341
sg100
(lp342
(VROBERT
VS
tp343
asg23
I2004
sg61
V351
p344
sbag1
(g2
g3
NtRp345
(dp346
g67
V10.1105/tpc.111.094672
p347
sg63
VPLANT CELL
p348
sg65
V24
p349
sg100
(lp350
(VSANCHEZ-RODRIGUEZ
VC
tp351
asg23
I2012
sg61
VLANT
p352
sbag1
(g2
g3
NtRp353
(dp354
g67
V10.1093/pcp/pce045
p355
sg63
VPLANT CELL PHYSIOL
p356
sg65
V42
p357
sg100
(lp358
(VSATO
VS
tp359
asg23
I2001
sg61
VLANT
p360
sbag1
(g2
g3
NtRp361
(dp362
g67
V10.3732/ajb.93.10.1415
p363
sg63
VAM J BOT
p364
sg65
V93
p365
sg100
(lp366
(VSCHOPFER
VP
tp367
asg23
I2006
sg61
V1415
p368
sbag1
(g2
g3
NtRp369
(dp370
g67
V10.1104/pp.124.4.1493
p371
sg63
VPLANT PHYSIOL
p372
sg65
V124
p373
sg100
(lp374
(VSUGIMOTO
VK
tp375
asg23
I2000
sg61
VLANT
p376
sbag1
(g2
g3
NtRp377
(dp378
g67
V10.1007/BF01280312
p379
sg63
VPROTOPLASMA
p380
sg65
V215
p381
sg100
(lp382
(VSUGIMOTO
VK
tp383
asg23
I2001
sg61
VROTOPLASMA
p384
sbag1
(g2
g3
NtRp385
(dp386
g67
V10.1073/pnas.0337628100
p387
sg63
VP NATL ACAD SCI USA
p388
sg65
V100
p389
sg100
(lp390
(VTAYLOR
VN G
tp391
asg23
I2003
sg61
V1450
p392
sbag1
(g2
g3
NtRp393
(dp394
g67
V10.1007/BF01279267
p395
sg63
VPROTOPLASMA
p396
sg65
V206
p397
sg100
(lp398
(VUEDA
VK
tp399
asg23
I1999
sg61
VROTOPLASMA
p400
sbag1
(g2
g3
NtRp401
(dp402
g67
V10.1023/A:1010631431620
p403
sg63
VPLANT MOL BIOL
p404
sg65
V47
p405
sg100
(lp406
(VVERGARA
VC E
tp407
asg23
I2001
sg61
VLANT
p408
sbag1
(g2
g3
NtRp409
(dp410
g67
V10.1104/pp.106.084004
p411
sg63
VPLANT PHYSIOL
p412
sg65
V142
p413
sg100
(lp414
(VWANG
VJ
tp415
asg23
I2006
sg61
VLANT
p416
sbag1
(g2
g3
NtRp417
(dp418
g67
V10.1016/j.ppi.2004.09.008
p419
sg63
VCURR OPIN PLANT BIOL
p420
sg65
V7
sg100
(lp421
(VWASTENEYS
VG O
tp422
asg23
I2004
sg61
V651
p423
sbag1
(g2
g3
NtRp424
(dp425
g67
V10.1007/BF01280308
p426
sg63
VPROTOPLASMA
p427
sg65
V215
p428
sg100
(lp429
(VWILLIAMSON
VR E
tp430
asg23
I2001
sg61
VROTOPLASMA
p431
sbag1
(g2
g3
NtRp432
(dp433
g67
V10.1111/j.1365-313X.2010.04238.x
p434
sg63
VPLANT J
p435
sg65
V63
p436
sg100
(lp437
(VZHANG
VM
tp438
asg23
I2010
sg61
VLANT
p439
sbasb.