ccopy_reg
_reconstructor
p1
(ctethne.classes.paper
Paper
p2
c__builtin__
object
p3
NtRp4
(dp5
S'publisherCity'
p6
VROCKVILLE
p7
sS'reprintAddress'
p8
VWillmitzer, L (reprint author), Max Planck Inst Mol Pflanzenphysiol, Muhlenberg 1, D-14476 Golm, Germany.
p9
sS'WC'
p10
VPlant Sciences
p11
sS'GA'
p12
V503WK
p13
sS'pageEnd'
p14
I1465
sS'publisherAddress'
p15
V15501 MONONA DRIVE, ROCKVILLE, MD 20855 USA
p16
sS'documentType'
p17
VArticle
p18
sS'subject'
p19
VPlant Sciences
p20
sS'isoSource'
p21
VPlant Physiol.
p22
sS'timesCited'
p23
(lp24
I122
aVZ9 132
p25
asS'PT'
p26
VJ
sS'title'
p27
VMolecular And Biochemical Triggers Of Potato Tuber Development
p28
sS'ISSN'
p29
(lp30
V0032-0889
p31
aVJ9 PLANT PHYSIOL
p32
asS'authors_full'
p33
(lp34
(VFERNIE
VAR
tp35
a(VWILLMITZER
VL
tp36
asS'PG'
p37
I7
sS'PD'
p38
VDEC
p39
sS'pageStart'
p40
I1459
sS'issue'
p41
I4
sS'RI'
p42
VWillmitzer, Lothar/F-7377-2011
p43
sS'journal'
p44
VPLANT PHYSIOLOGY
p45
sS'volume'
p46
V127
p47
sS'doi'
p48
V10.1104/pp.127.4.1459
p49
sS'emailAddress'
p50
Vwillmitzer@mpimp-golm.mpg.de
p51
sS'authorAddress'
p52
VMax Planck Inst Mol Pflanzenphysiol, D-14476 Golm, Germany.
p53
sS'date'
p54
I2001
sS'ER'
p55
V
sS'publisher'
p56
VAMER SOC PLANT BIOLOGISTS
p57
sS'authorKeywords'
p58
(lp59
VCARBOHYDRATE-METABOLISM
p60
aVGENE-EXPRESSION
p61
aVIN-VITRO
p62
aVPLANTS
p63
aVLEADS
p64
aVINHIBITION
p65
aVSUCROSE
p66
aVTUBERIZATION
p67
aVTRANSPORTER
p68
aVINDUCTION
p69
asS'language'
p70
VEnglish
p71
sS'wosid'
p72
VWOS:000172824500022
p73
sS'citationCount'
p74
I30
sS'authors_init'
p75
(lp76
(VFERNIE
VA R
tp77
a(VWILLMITZER
VL
tp78
asS'citedReferences'
p79
(lp80
g1
(g2
g3
NtRp81
(dp82
g48
V10.1007/s004250050122
p83
sg44
VPLANTA
p84
sg46
V202
p85
sg75
(lp86
(VAPPELDOORN
VN J G
tp87
asg54
I1997
sg40
VLANTA
p88
sbag1
(g2
g3
NtRp89
(dp90
g48
V10.1007/BF02360536
p91
sg44
VPOTATO RES
p92
sg46
V43
p93
sg75
(lp94
(VBACHEM
VC
tp95
asg54
I2000
sg40
VOTATO
p96
sbag1
(g2
g3
NtRp97
(dp98
g48
V10.1046/j.1365-313X.1996.9050745.x
p99
sg44
VPLANT J
p100
sg46
V9
sg75
(lp101
(VBACHEM
VC W B
tp102
asg54
I1996
sg40
VLANT
p103
sbag1
(g2
g3
NtRp104
(dp105
g48
V10.1046/j.1365-313x.2001.00993.x
p106
sg44
VPLANT J
p107
sg46
V25
p108
sg75
(lp109
(VBACHEM
VC W B
tp110
asg54
I2001
sg40
VLANT
p111
sbag1
(g2
g3
NtRp112
(dp113
g48
V10.1023/A:1006492205788
p114
sg44
VPLANT MOL BIOL
p115
sg46
V43
p116
sg75
(lp117
(VBACHEM
VC W B
tp118
asg54
I2000
sg40
VLANT
p119
sbag1
(g2
g3
NtRp120
(dp121
g48
V10.1046/j.1365-313x.2000.00736.x
p122
sg44
VPLANT J
p123
sg46
V22
p124
sg75
(lp125
(VCARRERA
VE
tp126
asg54
I2000
sg40
VLANT
p127
sbag1
(g2
g3
NtRp128
(dp129
g48
V10.1007/BF02360540
p130
sg44
VPOTATO RES
p131
sg46
V43
p132
sg75
(lp133
(VCLAASSENS
VM M J
tp134
asg54
I2000
sg40
VOTATO
p135
sbag1
(g2
g3
NtRp136
(dp137
g48
Nsg44
VAM J POTATO RES
p138
sg46
V78
p139
sg75
(lp140
(VCOLEMAN
VW K
tp141
asg54
I2001
sg40
V47
p142
sbag1
(g2
g3
NtRp143
(dp144
g48
V10.1046/j.1365-313X.1997.12020323.x
p145
sg44
VPLANT J
p146
sg46
V12
p147
sg75
(lp148
(VDUWENIG
VE
tp149
asg54
I1997
sg40
VLANT
p150
sbag1
(g2
g3
NtRp151
(dp152
g48
V10.1038/85726
p153
sg44
VNAT BIOTECHNOL
p154
sg46
V19
p155
sg75
(lp156
(VFARRE
VE M
tp157
asg54
I2001
sg40
V268
p158
sbag1
(g2
g3
NtRp159
(dp160
g48
V10.1007/BF00210916
p161
sg44
VJ PLANT GROWTH REGUL
p162
sg46
V14
p163
sg75
(lp164
(VGALIS
VI
tp165
asg54
I1995
sg40
V143
p166
sbag1
(g2
g3
NtRp167
(dp168
g48
Nsg44
VANN BOT
p169
sg46
V41
p170
sg75
(lp171
(VGREGORY
VL E
tp172
asg54
I1956
sg40
V281
p173
sbag1
(g2
g3
NtRp174
(dp175
g48
V10.1007/BF02357862
p176
sg44
VPOTATO RES
p177
sg46
V42
p178
sg75
(lp179
(VHAJIREZAEI
VM
tp180
asg54
I1999
sg40
VOTATO
p181
sbag1
(g2
g3
NtRp182
(dp183
g48
Nsg44
VPLANT CELL
p184
sg46
V7
sg75
(lp185
(VHARMS
VK
tp186
asg54
I1995
sg40
VLANT
p187
sbag1
(g2
g3
NtRp188
(dp189
g48
V10.1104/pp.117.1.29
p190
sg44
VPLANT PHYSIOL
p191
sg46
V117
p192
sg75
(lp193
(VJACKSON
VS D
tp194
asg54
I1998
sg40
VLANT
p195
sbag1
(g2
g3
NtRp196
(dp197
g48
V10.1104/pp.119.1.1
p198
sg44
VPLANT PHYSIOL
p199
sg46
V119
p200
sg75
(lp201
(VJACKSON
VS D
tp202
asg54
I1999
sg40
VLANT
p203
sbag1
(g2
g3
NtRp204
(dp205
g48
V10.1105/tpc.13.3.613
p206
sg44
VPLANT CELL
p207
sg46
V13
p208
sg75
(lp209
(VKOLOMIETS
VM V
tp210
asg54
I2001
sg40
VLANT
p211
sbag1
(g2
g3
NtRp212
(dp213
g48
V10.1038/nbt0598-473
p214
sg44
VNAT BIOTECHNOL
p215
sg46
V16
p216
sg75
(lp217
(VLORBERTH
VR
tp218
asg54
I1998
sg40
V473
p219
sbag1
(g2
g3
NtRp220
(dp221
g48
Nsg44
VEMBO J
p222
sg46
V11
p223
sg75
(lp224
(VMULLERROBER
VB
tp225
asg54
I1992
sg40
V1229
p226
sbag1
(g2
g3
NtRp227
(dp228
g48
V10.1007/s004250050617
p229
sg44
VPLANTA
p230
sg46
V209
p231
sg75
(lp232
(VPEDROS
VA R
tp233
asg54
I1999
sg40
VLANTA
p234
sbag1
(g2
g3
NtRp235
(dp236
g48
Nsg44
VEMBO J
p237
sg46
V13
p238
sg75
(lp239
(VRIESMEIER
VJ W
tp240
asg54
I1994
sg40
V1
sbag1
(g2
g3
NtRp241
(dp242
g48
V10.1104/pp.127.3.749
p243
sg44
VPLANT PHYSIOL
p244
sg46
V127
p245
sg75
(lp246
(VROESSNER
VU
tp247
asg54
I2001
sg40
VLANT
p248
sbag1
(g2
g3
NtRp249
(dp250
g48
V10.1105/tpc.13.1.11
p251
sg44
VPLANT CELL
p252
sg46
V13
p253
sg75
(lp254
(VROESSNER
VU
tp255
asg54
I2001
sg40
VLANT
p256
sbag1
(g2
g3
NtRp257
(dp258
g48
V10.1038/nbt0897-794
p259
sg44
VNAT BIOTECHNOL
p260
sg46
V15
p261
sg75
(lp262
(VSONNEWALD
VU
tp263
asg54
I1997
sg40
V794
p264
sbag1
(g2
g3
NtRp265
(dp266
g48
V10.1046/j.1365-313X.1998.00317.x
p267
sg44
VPLANT J
p268
sg46
V16
p269
sg75
(lp270
(VTJADEN
VJ
tp271
asg54
I1998
sg40
VLANT
p272
sbag1
(g2
g3
NtRp273
(dp274
g48
V10.1016/S0981-9428(00)80100-X
p275
sg44
VPLANT PHYSIOL BIOCH
p276
sg46
V37
p277
sg75
(lp278
(VVERAMENDI
VJ
tp279
asg54
I1999
sg40
VLANT
p280
sbag1
(g2
g3
NtRp281
(dp282
g48
V10.1105/tpc.13.2.385
p283
sg44
VPLANT CELL
p284
sg46
V13
p285
sg75
(lp286
(VVIOLA
VR
tp287
asg54
I2001
sg40
VLANT
p288
sbag1
(g2
g3
NtRp289
(dp290
g48
V10.1093/jexbot/49.320.573
p291
sg44
VJ EXP BOT
p292
sg46
V49
p293
sg75
(lp294
(VXU
VX
tp295
asg54
I1998
sg40
V573
p296
sbag1
(g2
g3
NtRp297
(dp298
g48
V10.1046/j.1365-313x.2000.00775.x
p299
sg44
VPLANT J
p300
sg46
V23
p301
sg75
(lp302
(VYANOVSKY
VM J
tp303
asg54
I2000
sg40
VLANT
p304
sbag1
(g2
g3
NtRp305
(dp306
g48
V10.1046/j.1365-313X.1995.07010097.x
p307
sg44
VPLANT J
p308
sg46
V7
sg75
(lp309
(VZRENNER
VR
tp310
asg54
I1995
sg40
VLANT
p311
sbasb.