ccopy_reg
_reconstructor
p1
(ctethne.classes.paper
Paper
p2
c__builtin__
object
p3
NtRp4
(dp5
S'publisherCity'
p6
VROCKVILLE
p7
sS'reprintAddress'
p8
VPieterse, CMJ (reprint author), Univ Utrecht, Fac Sci, Inst Environm Biol, NL-3508 TB Utrecht, Netherlands.
p9
sS'WC'
p10
VPlant Sciences
p11
sS'GA'
p12
V658TM
p13
sS'pageEnd'
p14
I540
sS'date'
p15
I2010
sS'documentType'
p16
VArticle
p17
sS'subject'
p18
VPlant Sciences
p19
sS'isoSource'
p20
VPlant Physiol.
p21
sS'timesCited'
p22
(lp23
I53
aVZ9 57
p24
asS'PT'
p25
VJ
sS'title'
p26
VPlant Immunity: It'S The Hormones Talking, But What Do They Say?
p27
sS'ISSN'
p28
(lp29
V0032-0889
p30
aVJ9 PLANT PHYSIOL
p31
asS'authors_full'
p32
(lp33
(VVERHAGE
VADRIAAN
tp34
a(VVAN WEES
VSASKIA C M
tp35
a(VPIETERSE
VCORNE M J
tp36
asS'PG'
p37
I5
sS'PD'
p38
VOCT
p39
sS'pageStart'
p40
I536
sS'issue'
p41
I2
sS'RI'
p42
(lp43
VVan Wees, Saskia/B-8595-2011; Utrecht Univ., PMI/G-9549-2011; Pieterse,
p44
aVCorne/A-9326-2011
p45
asS'journal'
p46
VPLANT PHYSIOLOGY
p47
sS'volume'
p48
V154
p49
sS'doi'
p50
V10.1104/pp.110.161570
p51
sS'emailAddress'
p52
Vc.m.j.pieterse@uu.nl
p53
sS'authorAddress'
p54
(lp55
V[Verhage, Adriaan; van Wees, Saskia C. M.; Pieterse, Corne M. J.] Univ Utrecht, Fac Sci, Inst Environm Biol, NL-3508 TB Utrecht, Netherlands.
p56
aV[Pieterse, Corne M. J.] Ctr BioSyst Genom, NL-6700 AB Wageningen, Netherlands.
p57
asS'publisherAddress'
p58
V15501 MONONA DRIVE, ROCKVILLE, MD 20855 USA
p59
sS'ER'
p60
V
sS'publisher'
p61
VAMER SOC PLANT BIOLOGISTS
p62
sS'authorKeywords'
p63
(lp64
VSYSTEMIC ACQUIRED-RESISTANCE
p65
aVACID SIGNALING PATHWAY
p66
aVSALICYLIC-ACID
p67
aVARABIDOPSIS-THALIANA
p68
aVCROSS-TALK
p69
aVPHYTOTOXIN CORONATINE
p70
aVDEFENSE RESPONSES
p71
aVJASMONIC ACID
p72
aVPATHOGEN
p73
aVDISEASE
p74
asS'OI'
p75
(lp76
VVan Wees, Saskia/0000-0002-2295-7271; Pieterse,
p77
aVCorne/0000-0002-5473-4646
p78
asS'language'
p79
VEnglish
p80
sS'wosid'
p81
VWOS:000282512300024
p82
sS'citationCount'
p83
I58
sS'authors_init'
p84
(lp85
(VVERHAGE
VA
tp86
a(VVAN WEES
VS C M
tp87
a(VPIETERSE
VC M J
tp88
asS'citedReferences'
p89
(lp90
g1
(g2
g3
NtRp91
(dp92
g50
V10.1007/s11103-008-9435-0
p93
sg46
VPLANT MOL BIOL
p94
sg48
V69
p95
sg84
(lp96
(VBARI
VR
tp97
asg15
I2009
sg40
VLANT
p98
sbag1
(g2
g3
NtRp99
(dp100
g50
V10.1111/j.1365-313X.2010.04200.x
p101
sg46
VPLANT J
p102
sg48
V62
p103
sg84
(lp104
(VBRUESSOW
VF
tp105
asg15
I2010
sg40
VLANT
p106
sbag1
(g2
g3
NtRp107
(dp108
g50
V10.1111/j.1469-8137.2009.03149.x
p109
sg46
VNEW PHYTOL
p110
sg48
V185
p111
sg84
(lp112
(VCAMEHL
VI
tp113
asg15
I2010
sg40
V1062
p114
sbag1
(g2
g3
NtRp115
(dp116
g50
V10.1073/pnas.0704901104
p117
sg46
VP NATL ACAD SCI USA
p118
sg48
V104
p119
sg84
(lp120
(VCHEN
VZ Y
tp121
asg15
I2007
sg40
V20131
p122
sbag1
(g2
g3
NtRp123
(dp124
g50
V10.1111/j.1469-8137.2008.02735.x
p125
sg46
VNEW PHYTOL
p126
sg48
V182
p127
sg84
(lp128
(VCLARKE
VS M
tp129
asg15
I2009
sg40
V175
p130
sbag1
(g2
g3
NtRp131
(dp132
g50
V10.1111/j.1365-313X.2009.03875.x
p133
sg46
VPlant J
p134
sg48
V59
p135
sg84
(lp136
(VDE
VTORRES ZABALA MARTA
tp137
asg15
I2009
sg40
Vlant
p138
sbag1
(g2
g3
NtRp139
(dp140
g50
V10.1038/sj.emboj.7601575
p141
sg46
VEMBO J
p142
sg48
V26
p143
sg84
(lp144
(VDE
VTORRESZABALA M
tp145
asg15
I2007
sg40
V1434
p146
sbag1
(g2
g3
NtRp147
(dp148
g50
V10.1104/pp.109.152702
p149
sg46
VPLANT PHYSIOL
p150
sg48
V152
p151
sg84
(lp152
(VDE
VVLEESSCHAUWER D
tp153
asg15
I2010
sg40
VLANT
p154
sbag1
(g2
g3
NtRp155
(dp156
g50
V10.1094/MPMI-18-0923
p157
sg46
VMOL PLANT MICROBE IN
p158
sg48
V18
p159
sg84
(lp160
(VDE
VV O S M
tp161
asg15
I2005
sg40
V923
p162
sbag1
(g2
g3
NtRp163
(dp164
g50
V10.1104/pp.109.139550
p165
sg46
VPLANT PHYSIOL
p166
sg48
V150
p167
sg84
(lp168
(VDIEZEL
VC
tp169
asg15
I2009
sg40
VLANT
p170
sbag1
(g2
g3
NtRp171
(dp172
g50
V10.1111/j.1365-313X.2009.03868.x
p173
sg46
VPLANT J
p174
sg48
V59
p175
sg84
(lp176
(VERB
VM
tp177
asg15
I2009
sg40
VLANT
p178
sbag1
(g2
g3
NtRp179
(dp180
g50
V10.1146/annurev.phyto.43.040204.135923
p181
sg46
VANNU REV PHYTOPATHOL
p182
sg48
V43
p183
sg84
(lp184
(VGLAZEBROOK
VJ
tp185
asg15
I2005
sg40
V205
p186
sbag1
(g2
g3
NtRp187
(dp188
g50
V10.1126/science.1173771
p189
sg46
VSCIENCE
p190
sg48
V324
p191
sg84
(lp192
(VGRANT
VM R
tp193
asg15
I2009
sg40
V750
p194
sbag1
(g2
g3
NtRp195
(dp196
g50
V10.1094/MPMI-22-7-0763
p197
sg46
VMOL PLANT MICROBE IN
p198
sg48
V22
p199
sg84
(lp200
(VGUTJAHR
VC
tp201
asg15
I2009
sg40
V763
p202
sbag1
(g2
g3
NtRp203
(dp204
g50
V10.1146/annurev.arplant.59.032607.092825
p205
sg46
VANNU REV PLANT BIOL
p206
sg48
V59
p207
sg84
(lp208
(VHOWE
VG A
tp209
asg15
I2008
sg40
V41
p210
sbag1
(g2
g3
NtRp211
(dp212
g50
V10.1094/MPMI-23-6-0791
p213
sg46
VMOL PLANT MICROBE IN
p214
sg48
V23
p215
sg84
(lp216
(VJIANG
VC J
tp217
asg15
I2010
sg40
V791
p218
sbag1
(g2
g3
NtRp219
(dp220
g50
V10.1073/pnas.0802332105
p221
sg46
VP NATL ACAD SCI USA
p222
sg48
V105
p223
sg84
(lp224
(VKATSIR
VL
tp225
asg15
I2008
sg40
V7100
p226
sbag1
(g2
g3
NtRp227
(dp228
g50
V10.1093/bioinformatics/btp673
p229
sg46
VBIOINFORMATICS
p230
sg48
V26
p231
sg84
(lp232
(VKIDDLE
VS J
tp233
asg15
I2010
sg40
V355
p234
sbag1
(g2
g3
NtRp235
(dp236
g50
V10.1104/pp.107.112029
p237
sg46
VPLANT PHYSIOL
p238
sg48
V146
p239
sg84
(lp240
(VKOORNNEEF
VA
tp241
asg15
I2008
sg40
VLANT
p242
sbag1
(g2
g3
NtRp243
(dp244
g50
V10.1104/pp.108.121392
p245
sg46
VPLANT PHYSIOL
p246
sg48
V147
p247
sg84
(lp248
(VKOORNNEEF
VA
tp249
asg15
I2008
sg40
VLANT
p250
sbag1
(g2
g3
NtRp251
(dp252
g50
V10.1094/MPMI-23-2-0187
p253
sg46
VMOL PLANT MICROBE IN
p254
sg48
V23
p255
sg84
(lp256
(VLEON-REYES
VA
tp257
asg15
I2010
sg40
V187
p258
sbag1
(g2
g3
NtRp259
(dp260
g50
V10.1104/pp.108.133926
p261
sg46
VPLANT PHYSIOL
p262
sg48
V149
p263
sg84
(lp264
(VLEON-REYES
VA
tp265
asg15
I2009
sg40
VLANT
p266
sbag1
(g2
g3
NtRp267
(dp268
g50
V10.1016/j.pbi.2008.05.002
p269
sg46
VCURR OPIN PLANT BIOL
p270
sg48
V11
p271
sg84
(lp272
(VLOPEZ
VM A
tp273
asg15
I2008
sg40
V420
p274
sbag1
(g2
g3
NtRp275
(dp276
g50
V10.1093/jxb/erq089
p277
sg46
VJ EXP BOT
p278
sg48
V61
p279
sg84
(lp280
(VLOPEZ-RAEZ
VJ A
tp281
asg15
I2010
sg40
V2589
p282
sbag1
(g2
g3
NtRp283
(dp284
g50
V10.1105/tpc.109.069658
p285
sg46
VPLANT CELL
p286
sg48
V22
p287
sg84
(lp288
(VMILLET
VY A
tp289
asg15
I2010
sg40
VLANT
p290
sbag1
(g2
g3
NtRp291
(dp292
g50
V10.1073/pnas.0900701106
p293
sg46
VP NATL ACAD SCI USA
p294
sg48
V106
p295
sg84
(lp296
(VMORENO
VJ E
tp297
asg15
I2009
sg40
V4935
p298
sbag1
(g2
g3
NtRp299
(dp300
g50
Nsg46
VPLANT PHYSIOL
p301
sg48
V140
p302
sg84
(lp303
(VMUR
VL A J
tp304
asg15
I2006
sg40
VLANT
p305
sbag1
(g2
g3
NtRp306
(dp307
g50
V10.1016/j.cub.2008.03.060
p308
sg46
VCURR BIOL
p309
sg48
V18
p310
sg84
(lp311
(VNAVARRO
VL
tp312
asg15
I2008
sg40
V650
p313
sbag1
(g2
g3
NtRp314
(dp315
g50
V10.1038/nchembio.164
p316
sg46
VNAT CHEM BIOL
p317
sg48
V5
sg84
(lp318
(VPIETERSE
VC M J
tp319
asg15
I2009
sg40
V308
p320
sbag1
(g2
g3
NtRp321
(dp322
g50
V10.1016/j.tplants.2010.05.007
p323
sg46
VTRENDS PLANT SCI
p324
sg48
V15
p325
sg84
(lp326
(VPINEDA
VA
tp327
asg15
I2010
sg40
V507
p328
sbag1
(g2
g3
NtRp329
(dp330
g50
V10.1104/pp.109.149583
p331
sg46
VPLANT PHYSIOL
p332
sg48
V152
p333
sg84
(lp334
(VPITZSCHKE
VA
tp335
asg15
I2010
sg40
VLANT
p336
sbag1
(g2
g3
NtRp337
(dp338
g50
V10.1111/j.1365-294X.2008.03838.x
p339
sg46
VMOL ECOL
p340
sg48
V17
p341
sg84
(lp342
(VPOELMAN
VE H
tp343
asg15
I2008
sg40
V3352
p344
sbag1
(g2
g3
NtRp345
(dp346
g50
V10.1111/j.1469-8137.2008.02578.x
p347
sg46
VNEW PHYTOL
p348
sg48
V180
p349
sg84
(lp350
(VPOZO
VM J
tp351
asg15
I2008
sg40
V511
p352
sbag1
(g2
g3
NtRp353
(dp354
g50
V10.1111/j.1365-313X.2009.03804.x
p355
sg46
VPLANT J
p356
sg48
V58
p357
sg84
(lp358
(VRAMIREZ
VV
tp359
asg15
I2009
sg40
VLANT
p360
sbag1
(g2
g3
NtRp361
(dp362
g50
V10.1093/jxb/erp270
p363
sg46
VJ EXP BOT
p364
sg48
V60
p365
sg84
(lp366
(VCAMPOS
VM L
tp367
asg15
I2009
sg40
V4346
p368
sbag1
(g2
g3
NtRp369
(dp370
g50
V10.1016/j.pbi.2007.06.003
p371
sg46
VCURR OPIN PLANT BIOL
p372
sg48
V10
p373
sg84
(lp374
(VROBERT-SEILANIANTZ
VA
tp375
asg15
I2007
sg40
V372
p376
sbag1
(g2
g3
NtRp377
(dp378
g50
V10.1105/tpc.109.067728
p379
sg46
VPLANT CELL
p380
sg48
V22
p381
sg84
(lp382
(VROBSON
VF
tp383
asg15
I2010
sg40
VLANT
p384
sbag1
(g2
g3
NtRp385
(dp386
g50
V10.1111/j.1365-313X.2010.04112.x
p387
sg46
VPLANT J
p388
sg48
V61
p389
sg84
(lp390
(VSANTNER
VA
tp391
asg15
I2010
sg40
VLANT
p392
sbag1
(g2
g3
NtRp393
(dp394
g50
V10.1073/pnas.0708139104
p395
sg46
VP NATL ACAD SCI USA
p396
sg48
V104
p397
sg84
(lp398
(VSPOEL
VS H
tp399
asg15
I2007
sg40
V18842
p400
sbag1
(g2
g3
NtRp401
(dp402
g50
V10.1016/j.chom.2008.05.009
p403
sg46
VCELL HOST MICROBE
p404
sg48
V3
sg84
(lp405
(VSPOEL
VS H
tp406
asg15
I2008
sg40
V348
p407
sbag1
(g2
g3
NtRp408
(dp409
g50
V10.1111/j.1469-8137.2009.03125.x
p410
sg46
VNEW PHYTOL
p411
sg48
V186
p412
sg84
(lp413
(VSPOEL
VS H
tp414
asg15
I2010
sg40
V333
p415
sbag1
(g2
g3
NtRp416
(dp417
g50
V10.1111/j.1365-313X.2009.03831.x
p418
sg46
VPLANT J
p419
sg48
V58
p420
sg84
(lp421
(VTHATCHER
VL F
tp422
asg15
I2009
sg40
VLANT
p423
sbag1
(g2
g3
NtRp424
(dp425
g50
V10.1016/j.tplants.2009.03.006
p426
sg46
VTRENDS PLANT SCI
p427
sg48
V14
p428
sg84
(lp429
(VTON
VJ
tp430
asg15
I2009
sg40
V310
p431
sbag1
(g2
g3
NtRp432
(dp433
g50
V10.1371/journal.pgen.1000772
p434
sg46
VPLOS GENET
p435
sg48
V5
sg84
(lp436
(VTSUDA
VK
tp437
asg15
I2009
sg40
VLOS
p438
sbag1
(g2
g3
NtRp439
(dp440
g50
V10.1094/MPMI-20-8-0955
p441
sg46
VMOL PLANT MICROBE IN
p442
sg48
V20
p443
sg84
(lp444
(VUPPALAPATI
VS R
tp445
asg15
I2007
sg40
V955
p446
sbag1
(g2
g3
NtRp447
(dp448
g50
Nsg46
VNEW PHYTOL
p449
sg48
V183
p450
sg84
(lp451
(VVANDEREN
S''
tp452
asg15
I2009
sg40
V419
p453
sbag1
(g2
g3
NtRp454
(dp455
g50
V10.1016/j.phytochem.2009.06.009
p456
sg46
VPHYTOCHEMISTRY
p457
sg48
V70
p458
sg84
(lp459
(VVAN
VD E R E N T S
tp460
asg15
I2009
sg40
VHYTOCHEMISTRY
p461
sbag1
(g2
g3
NtRp462
(dp463
g50
Nsg46
VMOL PLANT MICROBE IN
p464
sg48
V21
p465
sg84
(lp466
(VVANOOSTEN
S''
tp467
asg15
I2008
sg40
V919
p468
sbag1
(g2
g3
NtRp469
(dp470
g50
Nsg46
VCURR OPIN PLANT BIOL
p471
sg48
V11
p472
sg84
(lp473
(VVANWEES
S''
tp474
asg15
I2008
sg40
V443
p475
sbag1
(g2
g3
NtRp476
(dp477
g50
V10.1104/pp.109.138289
p478
sg46
VPLANT PHYSIOL
p479
sg48
V150
p480
sg84
(lp481
(VVOLODARSKY
VD
tp482
asg15
I2009
sg40
VLANT
p483
sbag1
(g2
g3
NtRp484
(dp485
g50
V10.1016/j.cub.2007.09.025
p486
sg46
VCURR BIOL
p487
sg48
V17
p488
sg84
(lp489
(VWANG
VD
tp490
asg15
I2007
sg40
V1784
p491
sbag1
(g2
g3
NtRp492
(dp493
g50
V10.1094/MPMI-21-11-1408
p494
sg46
VMOL PLANT MICROBE IN
p495
sg48
V21
p496
sg84
(lp497
(VWANG
VL
tp498
asg15
I2008
sg40
V1408
p499
sbag1
(g2
g3
NtRp500
(dp501
g50
V10.1093/jxb/ern108
p502
sg46
VJ EXP BOT
p503
sg48
V59
p504
sg84
(lp505
(VWEECH
VM H
tp506
asg15
I2008
sg40
V2437
p507
sbag1
(g2
g3
NtRp508
(dp509
g50
V10.1105/tpc.109.065730
p510
sg46
VPLANT CELL
p511
sg48
V21
p512
sg84
(lp513
(VYAN
VJ B
tp514
asg15
I2009
sg40
VLANT
p515
sbag1
(g2
g3
NtRp516
(dp517
g50
V10.1105/tpc.107.054296
p518
sg46
VPLANT CELL
p519
sg48
V20
p520
sg84
(lp521
(VYASUDA
VM
tp522
asg15
I2008
sg40
VLANT
p523
sbag1
(g2
g3
NtRp524
(dp525
g50
Nsg46
VPLANT J
p526
sg48
V61
p527
sg84
(lp528
(VZANDER
VM
tp529
asg15
I2009
sg40
VLANT
p530
sbag1
(g2
g3
NtRp531
(dp532
g50
V10.1104/pp.106.090035
p533
sg46
VPLANT PHYSIOL
p534
sg48
V143
p535
sg84
(lp536
(VZARATE
VS I
tp537
asg15
I2007
sg40
VLANT
p538
sbag1
(g2
g3
NtRp539
(dp540
g50
V10.1073/pnas.0907890106
p541
sg46
VP NATL ACAD SCI USA
p542
sg48
V106
p543
sg84
(lp544
(VZHANG
VP J
tp545
asg15
I2009
sg40
V21202
p546
sbasb.