ccopy_reg
_reconstructor
p1
(ctethne.classes.paper
Paper
p2
c__builtin__
object
p3
NtRp4
(dp5
S'publisherCity'
p6
VROCKVILLE
p7
sS'reprintAddress'
p8
VRobatzek, S (reprint author), Sainsbury Lab, Norwich Res Pk, Norwich NR4 7UH, Norfolk, England.
p9
sS'WC'
p10
VPlant Sciences
p11
sS'GA'
p12
V658TM
p13
sS'pageEnd'
p14
I554
sS'publisherAddress'
p15
V15501 MONONA DRIVE, ROCKVILLE, MD 20855 USA
p16
sS'documentType'
p17
VArticle
p18
sS'subject'
p19
VPlant Sciences
p20
sS'isoSource'
p21
VPlant Physiol.
p22
sS'timesCited'
p23
(lp24
I23
aVZ9 24
p25
asS'PT'
p26
VJ
sS'title'
p27
VPathogen-Associated Molecular Pattern-Triggered Immunity: Veni, Vidi ... ?
p28
sS'ISSN'
p29
(lp30
V0032-0889
p31
aVJ9 PLANT PHYSIOL
p32
asS'authors_full'
p33
(lp34
(VZIPFEL
VCYRIL
tp35
a(VROBATZEK
VSILKE
tp36
asS'PG'
p37
I4
sS'PD'
p38
VOCT
p39
sS'pageStart'
p40
I551
sS'issue'
p41
I2
sS'RI'
p42
VRobatzek, Silke/B-6844-2013; ZIPFEL, CYRIL/D-7103-2011
p43
sS'journal'
p44
VPLANT PHYSIOLOGY
p45
sS'volume'
p46
V154
p47
sS'doi'
p48
V10.1104/pp.110.161547
p49
sS'emailAddress'
p50
Vrobatzek@tsl.ac.uk
p51
sS'authorAddress'
p52
V[Zipfel, Cyril; Robatzek, Silke] Sainsbury Lab, Norwich NR4 7UH, Norfolk, England.
p53
sS'date'
p54
I2010
sS'ER'
p55
V
sS'publisher'
p56
VAMER SOC PLANT BIOLOGISTS
p57
sS'authorKeywords'
p58
(lp59
VINNATE IMMUNITY
p60
aVDEFENSE RESPONSES
p61
aVRECEPTOR
p62
aVARABIDOPSIS
p63
aVRECOGNITION
p64
aVSIGNALS
p65
aVCOMPLEX
p66
aVKINASE
p67
aVPERCEPTION
p68
aVRESISTANCE
p69
asS'language'
p70
VEnglish
p71
sS'wosid'
p72
VWOS:000282512300027
p73
sS'citationCount'
p74
I26
sS'authors_init'
p75
(lp76
(VZIPFEL
VC
tp77
a(VROBATZEK
VS
tp78
asS'citedReferences'
p79
(lp80
g1
(g2
g3
NtRp81
(dp82
g48
V10.1038/nature08800
p83
sg44
VNATURE
p84
sg46
V465
p85
sg75
(lp86
(VATWELL
VS
tp87
asg54
I2010
sg40
V627
p88
sbag1
(g2
g3
NtRp89
(dp90
g48
V10.1146/annurev.arplant.46.1.189
p91
sg44
VANNU REV PLANT PHYS
p92
sg46
V46
p93
sg75
(lp94
(VBOLLER
VT
tp95
asg54
I1995
sg40
V189
p96
sbag1
(g2
g3
NtRp97
(dp98
g48
V10.1146/annurev.arplant.57.032905.105346
p99
sg44
VANNU REV PLANT BIOL
p100
sg46
V60
p101
sg75
(lp102
(VBOLLER
VT
tp103
asg54
I2009
sg40
V379
p104
sbag1
(g2
g3
NtRp105
(dp106
g48
V10.1038/nature08794
p107
sg44
VNATURE
p108
sg46
V464
p109
sg75
(lp110
(VBOUDSOCQ
VM
tp111
asg54
I2010
sg40
V418
p112
sbag1
(g2
g3
NtRp113
(dp114
g48
V10.1016/j.tplants.2009.08.002
p115
sg44
VTRENDS PLANT SCI
p116
sg46
V14
p117
sg75
(lp118
(VCHINCHILLA
VD
tp119
asg54
I2009
sg40
V535
p120
sbag1
(g2
g3
NtRp121
(dp122
g48
V10.1126/science.1164627
p123
sg44
VSCIENCE
p124
sg46
V323
p125
sg75
(lp126
(VCLAY
VN K
tp127
asg54
I2009
sg40
V95
p128
sbag1
(g2
g3
NtRp129
(dp130
g48
V10.1038/35081161
p131
sg44
VNATURE
p132
sg46
V411
p133
sg75
(lp134
(VDANGL
VJ L
tp135
asg54
I2001
sg40
V826
p136
sbag1
(g2
g3
NtRp137
(dp138
g48
V10.1146/annurev.phyto.46.120407.110050
p139
sg44
VANNU REV PHYTOPATHOL
p140
sg46
V46
p141
sg75
(lp142
(VGOHRE
VV
tp143
asg54
I2008
sg40
V189
p144
sbag1
(g2
g3
NtRp145
(dp146
g48
V10.1016/j.pbi.2010.04.003
p147
sg44
VCURR OPIN PLANT BIOL
p148
sg46
V13
p149
sg75
(lp150
(VHANN
VD R
tp151
asg54
I2010
sg40
V388
p152
sbag1
(g2
g3
NtRp153
(dp154
g48
V10.1073/pnas.0703343104
p155
sg44
VP NATL ACAD SCI USA
p156
sg46
V104
p157
sg75
(lp158
(VHUFFAKER
VA
tp159
asg54
I2007
sg40
V10732
p160
sbag1
(g2
g3
NtRp161
(dp162
g48
V10.1038/nature05286
p163
sg44
VNATURE
p164
sg46
V444
p165
sg75
(lp166
(VJONES
VJ D G
tp167
asg54
I2006
sg40
V323
p168
sbag1
(g2
g3
NtRp169
(dp170
g48
V10.1074/jbc.M109.097394
p171
sg44
VJ BIOL CHEM
p172
sg46
V285
p173
sg75
(lp174
(VKROL
VE
tp175
asg54
I2010
sg40
V13471
p176
sbag1
(g2
g3
NtRp177
(dp178
g48
V10.1038/nbt.1613
p179
sg44
VNAT BIOTECHNOL
p180
sg46
V28
p181
sg75
(lp182
(VLACOMBE
VS
tp183
asg54
I2010
sg40
V365
p184
sbag1
(g2
g3
NtRp185
(dp186
g48
V10.1126/science.1173438
p187
sg44
VSCIENCE
p188
sg46
V326
p189
sg75
(lp190
(VLEE
VS W
tp191
asg54
I2009
sg40
V850
p192
sbag1
(g2
g3
NtRp193
(dp194
g48
V10.1073/pnas.0909705107
p195
sg44
VP NATL ACAD SCI USA
p196
sg46
V107
p197
sg75
(lp198
(VLU
VD P
tp199
asg54
I2010
sg40
V496
p200
sbag1
(g2
g3
NtRp201
(dp202
g48
V10.1016/S0092-8674(00)80412-2
p203
sg44
VCELL
p204
sg46
V91
p205
sg75
(lp206
(VMEDZHITOV
VR
tp207
asg54
I1997
sg40
V295
p208
sbag1
(g2
g3
NtRp209
(dp210
g48
V10.1016/S1369-5266(02)00265-0
p211
sg44
VCURR OPIN PLANT BIOL
p212
sg46
V5
sg75
(lp213
(VNURNBERGER
VT
tp214
asg54
I2002
sg40
V318
p215
sbag1
(g2
g3
NtRp216
(dp217
g48
V10.1111/j.1462-5822.2010.01472.x
p218
sg44
VCELL MICROBIOL
p219
sg46
V12
p220
sg75
(lp221
(VSAIJO
VY
tp222
asg54
I2010
sg40
V716
p223
sbag1
(g2
g3
NtRp224
(dp225
g48
V10.1074/jbc.M109.096842
p226
sg44
VJ BIOL CHEM
p227
sg46
V285
p228
sg75
(lp229
(VSCHULZE
VB
tp230
asg54
I2010
sg40
V9444
p231
sbag1
(g2
g3
NtRp232
(dp233
g48
V10.1126/science.1136372
p234
sg44
VSCIENCE
p235
sg46
V315
p236
sg75
(lp237
(VSHEN
VQ H
tp238
asg54
I2007
sg40
V1098
p239
sbag1
(g2
g3
NtRp240
(dp241
g48
V10.1146/annurev.arplant.59.032607.092906
p242
sg44
VANNU REV PLANT BIOL
p243
sg46
V60
p244
sg75
(lp245
(VSHIRASU
VK
tp246
asg54
I2009
sg40
V139
p247
sbag1
(g2
g3
NtRp248
(dp249
g48
V10.1016/j.devcel.2008.06.011
p250
sg44
VDEV CELL
p251
sg46
V15
p252
sg75
(lp253
(VWANG
VX F
tp254
asg54
I2008
sg40
V220
p255
sbag1
(g2
g3
NtRp256
(dp257
g48
V10.1105/tpc.109.068874
p258
sg44
VPLANT CELL
p259
sg46
V22
p260
sg75
(lp261
(VYAMAGUCHI
VY
tp262
asg54
I2010
sg40
VLANT
p263
sbag1
(g2
g3
NtRp264
(dp265
g48
V10.1104/pp.110.157016
p266
sg44
VPLANT PHYSIOL
p267
sg46
V153
p268
sg75
(lp269
(VZENG
VW Q
tp270
asg54
I2010
sg40
VLANT
p271
sbag1
(g2
g3
NtRp272
(dp273
g48
V10.1016/j.chom.2010.03.007
p274
sg44
VCELL HOST MICROBE
p275
sg46
V7
sg75
(lp276
(VZHANG
VJ
tp277
asg54
I2010
sg40
V290
p278
sbag1
(g2
g3
NtRp279
(dp280
g48
V10.1016/j.pbi.2009.06.003
p281
sg44
VCURR OPIN PLANT BIOL
p282
sg46
V12
p283
sg75
(lp284
(VZIPFEL
VC
tp285
asg54
I2009
sg40
V414
p286
sbasb.