ccopy_reg
_reconstructor
p1
(ctethne.classes.paper
Paper
p2
c__builtin__
object
p3
NtRp4
(dp5
S'publisherCity'
p6
VWASHINGTON
p7
sS'reprintAddress'
p8
VSimpson, AJ (reprint author), Univ Toronto Scarborough, Dept Phys & Environm Sci, Environm NMR Ctr, 1265 Mil Trail, Toronto, ON M1C 1A4, Canada.
p9
sS'WC'
p10
(lp11
VCHEMISTRY, MULTIDISCIPLINARY
p12
aVEDUCATION, SCIENTIFIC DISCIPLINES
p13
asS'GA'
p14
VCG5XA
p15
sS'abstract'
p16
VNMR spectroscopy has great potential as an instrumental method for environmental chemistry research and monitoring but may be underused in teaching laboratories because of its complexity and the level of expertise required in operating the instrument and interpreting data. This laboratory experiment introduces environmental NMR spectroscopy to upper-level undergraduate and graduate students in a simple and accessible manner. Students investigate the partitioning of crude oil. components into water under various environmental conditions; assess the effects of agitation and dispersants on dissolution; and identify benzene, toluene, ethylbenzene, and xylene components through standard addition. Furthermore, electronic referencing is introduced as an effective method for quantification in complex unaltered samples.
p17
sS'keywordsPlus'
p18
(lp19
VUpper-Division Undergraduate; Graduate Education/Research; Environmental
p20
aVChemistry; Laboratory Instruction; Hands-On Learning/Manipulatives; NMR
p21
aVSpectroscopy; Micelles; Equilibrium; Qualitative Analysis; Quantitative
p22
aVAnalysis
p23
asS'pageEnd'
p24
I697
sS'date'
p25
I2015
sS'documentType'
p26
VArticle
p27
sS'subject'
p28
(lp29
VCHEMISTRY
p30
aVEDUCATION & EDUCATIONAL RESEARCH
p31
asS'isoSource'
p32
VJ. Chem. Educ.
p33
sS'timesCited'
p34
VZ9 0
p35
sS'PT'
p36
VJ
sS'title'
p37
VAn Oil Spill In A Tube: An Accessible Approach For Teaching Environmental Nmr Spectroscopy
p38
sS'ISSN'
p39
V0021-9584
p40
sS'authors_full'
p41
(lp42
(VSIMPSON
VANDRE J
tp43
a(VMITCHELL
VPERRY J
tp44
a(VMASOOM
VHUSSAIN
tp45
a(VMOBARHAN
VYALDA LIAGHATI
tp46
a(VADAMO
VANTONIO
tp47
a(VDICKS
VANDREW P
tp48
asS'PG'
p49
I5
sS'PD'
p50
VAPR
p51
sS'pageStart'
p52
I693
sS'issue'
p53
I4
sS'EI'
p54
(lp55
V1938-1328
p56
aVJ9 J CHEM EDUC
p57
asS'journal'
p58
VJOURNAL OF CHEMICAL EDUCATION
p59
sS'volume'
p60
V92
p61
sS'doi'
p62
V10.1021/ed500364b
p63
sS'emailAddress'
p64
Vandre.simpson@utoronto.ca
p65
sS'authorAddress'
p66
(lp67
V[Simpson, Andre J.; Mitchell, Perry J.; Masoom, Hussain; Mobarhan, Yalda Liaghati] Univ Toronto Scarborough, Dept Phys & Environm Sci, Environm NMR Ctr, Toronto, ON M1C 1A4, Canada.
p68
aV[Adamo, Antonio] Univ Toronto Scarborough, TRACES Ctr, Dept Phys & Environm Sci, Toronto, ON M1C 1A4, Canada.
p69
aV[Simpson, Andre J.; Mitchell, Perry J.; Masoom, Hussain; Dicks, Andrew P.] Univ Toronto, Dept Chem, Toronto, ON M5S 3H6, Canada.
p70
asS'publisherAddress'
p71
V1155 16TH ST, NW, WASHINGTON, DC 20036 USA
p72
sS'publisher'
p73
VAMER CHEMICAL SOC
p74
sS'authorKeywords'
p75
(lp76
VION CHROMATOGRAPHY
p77
aVCHEMISTRY
p78
aVSPECTROMETRY
p79
aVFOCUS
p80
aVSOIL
p81
asS'language'
p82
VEnglish
p83
sS'wosid'
p84
VWOS:000353368000020
p85
sS'citationCount'
p86
I20
sS'authors_init'
p87
(lp88
(VSIMPSON
VA J
tp89
a(VMITCHELL
VP J
tp90
a(VMASOOM
VH
tp91
a(VMOBARHAN
VY L
tp92
a(VADAMO
VA
tp93
a(VDICKS
VA P
tp94
asS'citedReferences'
p95
(lp96
g1
(g2
g3
NtRp97
(dp98
g62
Nsg58
VERETIC2 SOFTW MAN
p99
sg60
Nsg87
(lp100
(V[ANONYMOUS]
S''
tp101
asg25
I2012
sg52
V1
sbag1
(g2
g3
NtRp102
(dp103
g62
Nsg58
VJ CHEM EDUC
p104
sg60
V77
p105
sg87
(lp106
(VATTERHOLT
VC
tp107
asg25
I2000
sg52
V1550
p108
sbag1
(g2
g3
NtRp109
(dp110
g62
V10.1016/j.pnmrs.2004.06.002
p111
sg58
VPROG NUCL MAG RES SP
p112
sg60
V45
p113
sg87
(lp114
(VCARDOZA
VL A
tp115
asg25
I2004
sg52
VROG
p116
sbag1
(g2
g3
NtRp117
(dp118
g62
Nsg58
VJ CHEM EDUC
p119
sg60
V76
p120
sg87
(lp121
(VCRISP
VG T
tp122
asg25
I1999
sg52
V1691
p123
sbag1
(g2
g3
NtRp124
(dp125
g62
V10.1021/ed100634v
p126
sg58
VJ CHEM EDUC
p127
sg60
V88
p128
sg87
(lp129
(VDAVIS
VC M
tp130
asg25
I2011
sg52
V306
p131
sbag1
(g2
g3
NtRp132
(dp133
g62
V10.1016/j.aca.2005.05.069
p134
sg58
VANAL CHIM ACTA
p135
sg60
V548
p136
sg87
(lp137
(VFUGUET
VE
tp138
asg25
I2005
sg52
V95
p139
sbag1
(g2
g3
NtRp140
(dp141
g62
Nsg58
VJ CHEM EDUC
p142
sg60
V51
p143
sg87
(lp144
(VGORDON
VG E
tp145
asg25
I1974
sg52
V769
p146
sbag1
(g2
g3
NtRp147
(dp148
g62
V10.1002/nbm.1476
p149
sg58
VNMR BIOMED
p150
sg60
V23
p151
sg87
(lp152
(VHEINZER-SCHWEIZER
VS
tp153
asg25
I2010
sg52
V406
p154
sbag1
(g2
g3
NtRp155
(dp156
g62
V10.1007/s10661-008-0242-5
p157
sg58
VENVIRON MONIT ASSESS
p158
sg60
V150
p159
sg87
(lp160
(VIOVINO
VP
tp161
asg25
I2009
sg52
V437
p162
sbag1
(g2
g3
NtRp163
(dp164
g62
V10.1021/ed1010932
p165
sg58
VJ CHEM EDUC
p166
sg60
V88
p167
sg87
(lp168
(VMANBECK
VK A
tp169
asg25
I2011
sg52
V1444
p170
sbag1
(g2
g3
NtRp171
(dp172
g62
V10.1097/00010694-199603000-00002
p173
sg58
VSOIL SCI
p174
sg60
V161
p175
sg87
(lp176
(VPRESTON
VC M
tp177
asg25
I1996
sg52
V144
p178
sbag1
(g2
g3
NtRp179
(dp180
g62
Nsg58
VJ CHEM EDUC
p181
sg60
V75
p182
sg87
(lp183
(VQUACH
VD T
tp184
asg25
I1998
sg52
V1595
p185
sbag1
(g2
g3
NtRp186
(dp187
g62
V10.1016/j.envpol.2012.09.024
p188
sg58
VENVIRON POLLUT
p189
sg60
V173
p190
sg87
(lp191
(VRICO-MARTINEZ
VR
tp192
asg25
I2013
sg52
V5
sbag1
(g2
g3
NtRp193
(dp194
g62
V10.1021/ed100401z
p195
sg58
VJ CHEM EDUC
p196
sg60
V87
p197
sg87
(lp198
(VSABA
VS
tp199
asg25
I2010
sg52
V1238
p200
sbag1
(g2
g3
NtRp201
(dp202
g62
Nsg58
VJ CHEM EDUC
p203
sg60
V80
p204
sg87
(lp205
(VSALIDO
VA
tp206
asg25
I2003
sg52
V22
p207
sbag1
(g2
g3
NtRp208
(dp209
g62
V10.1016/j.pnmrs.2010.09.001
p210
sg58
VPROG NUCL MAG RES SP
p211
sg60
V58
p212
sg87
(lp213
(VSIMPSON
VA J
tp214
asg25
I2011
sg52
VROG
p215
sbag1
(g2
g3
NtRp216
(dp217
g62
Nsg58
VJ CHEM EDUC
p218
sg60
V86
p219
sg87
(lp220
(VSIMPSON
VA J
tp221
asg25
I2009
sg52
V360
p222
sbag1
(g2
g3
NtRp223
(dp224
g62
V10.1021/es302154w
p225
sg58
VENVIRON SCI TECHNOL
p226
sg60
V46
p227
sg87
(lp228
(VSIMPSON
VA J
tp229
asg25
I2012
sg52
V11488
p230
sbag1
(g2
g3
NtRp231
(dp232
g62
Nsg58
VJ CHEM EDUC
p233
sg60
V61
p234
sg87
(lp235
(VWALLACE
VT
tp236
asg25
I1984
sg52
V1074
p237
sbag1
(g2
g3
NtRp238
(dp239
g62
Nsg58
VJ CHEM EDUC
p240
sg60
V80
p241
sg87
(lp242
(VXIA
VK
tp243
asg25
I2003
sg52
V71
p244
sbasb.