ccopy_reg
_reconstructor
p1
(ctethne.classes.paper
Paper
p2
c__builtin__
object
p3
NtRp4
(dp5
S'publisherCity'
p6
VROCKVILLE
p7
sS'reprintAddress'
p8
VQu, LJ (reprint author), Peking Univ, Peking Yale Joint Res Ctr Plant Mol Genet & Agrob, Coll Life Sci, Beijing 100871, Peoples R China.
p9
sS'WC'
p10
VPlant Sciences
p11
sS'GA'
p12
V757BJ
p13
sS'abstract'
p14
VA microarray based on PCR amplicons of 1,864 confirmed and predicted Arabidopsis transcription factor genes was produced and used to profile the global expression pattern in seedlings, specifically their light regulation. We detected expression of 1,371 and 1,241 genes in white-light- and dark-grown 6-d-old seedlings, respectively. Together they account for 84% of the transcription factor genes examined. This array was further used to study the kinetics of transcription factor gene expression change of dark-grown seedlings in response to blue light and the role of specific photoreceptors in this blue-light regulation. The expression of about 20% of those transcription factor genes are responsive to blue-light exposure, with 249 and 115 genes up or down-regulated, respectively. A large portion of blue-light-responsive transcription factor genes exhibited very rapid expression changes in response to blue light, earlier than the bulk of blue-light-regulated genes. This result suggests the involvement of transcription cascades in blue-light control of genome expression. Comparative analysis of the expression profiles of wild type and various photoreceptor mutants demonstrated that during early seedling development cryptochromes are the major photoreceptors for blue-light control of transcription factor gene expression, whereas phytochrome A and phototropins play rather limited roles.
p15
sS'pageEnd'
p16
I1493
sS'date'
p17
I2003
sS'documentType'
p18
VArticle
p19
sS'subject'
p20
VPlant Sciences
p21
sS'isoSource'
p22
VPlant Physiol.
p23
sS'timesCited'
p24
(lp25
I61
aVZ9 69
p26
asS'PT'
p27
VJ
sS'title'
p28
VA Genome-Wide Analysis Of Blue-Light Regulation Of Arabidopsis Transcription Factor Gene Expression During Seedling Development
p29
sS'ISSN'
p30
(lp31
V0032-0889
p32
aVJ9 PLANT PHYSIOL
p33
asS'authors_full'
p34
(lp35
(VJIAO
VYL
tp36
a(VYANG
VHJ
tp37
a(VMA
VLG
tp38
a(VSUN
VN
tp39
a(VYU
VHY
tp40
a(VLIU
VT
tp41
a(VGAO
VY
tp42
a(VGU
VHY
tp43
a(VCHEN
VZL
tp44
a(VWADA
VM
tp45
a(VGERSTEIN
VM
tp46
a(VZHAO
VHY
tp47
a(VQU
VLJ
tp48
a(VDENG
VXW
tp49
asS'PG'
p50
I14
sS'PD'
p51
VDEC
p52
sS'pageStart'
p53
I1480
sS'issue'
p54
I4
sS'RI'
p55
VJiao, Yuling/A-5489-2011
p56
sS'journal'
p57
VPLANT PHYSIOLOGY
p58
sS'volume'
p59
V133
p60
sS'doi'
p61
V10.1104/pp.103.029439
p62
sS'emailAddress'
p63
Vqulj@lsc.pku.edu.cn; xingwang.deng@yale.edu
p64
sS'authorAddress'
p65
(lp66
VPeking Univ, Peking Yale Joint Res Ctr Plant Mol Genet & Agrob, Coll Life Sci, Beijing 100871, Peoples R China.
p67
aVYale Univ, Dept Mol Cellular & Dev Biol, New Haven, CT 06520 USA.
p68
aVYale Univ, Sch Med, Dept Epidemiol & Publ Hlth, New Haven, CT 06520 USA.
p69
aVYale Univ, Dept Mol Biophys & Biochem, New Haven, CT 06520 USA.
p70
aVTokyo Metropolitan Univ, Grad Sch Sci, Dept Biol Sci, Hachioji, Tokyo 1920397, Japan.
p71
asS'publisherAddress'
p72
V15501 MONONA DRIVE, ROCKVILLE, MD 20855 USA
p73
sS'ER'
p74
V
sS'publisher'
p75
VAMER SOC PLANT BIOLOGISTS
p76
sS'authorKeywords'
p77
(lp78
VDISRUPTS CIRCADIAN-RHYTHMS
p79
aVSIGNAL-TRANSDUCTION
p80
aVPHYTOCHROME-B
p81
aVMICROARRAY ANALYSIS
p82
aVGROWTH-INHIBITION
p83
aVHIGH-RESOLUTION
p84
aVIN-VITRO
p85
aVPROTEIN
p86
aVFAMILY
p87
aVCRYPTOCHROME
p88
asS'language'
p89
VEnglish
p90
sS'wosid'
p91
VWOS:000187528700009
p92
sS'citationCount'
p93
I74
sS'authors_init'
p94
(lp95
(VJIAO
VY L
tp96
a(VYANG
VH J
tp97
a(VMA
VL G
tp98
a(VSUN
VN
tp99
a(VYU
VH Y
tp100
a(VLIU
VT
tp101
a(VGAO
VY
tp102
a(VGU
VH Y
tp103
a(VCHEN
VZ L
tp104
a(VWADA
VM
tp105
a(VGERSTEIN
VM
tp106
a(VZHAO
VH Y
tp107
a(VQU
VL J
tp108
a(VDENG
VX W
tp109
asS'citedReferences'
p110
(lp111
g1
(g2
g3
NtRp112
(dp113
g61
V10.1016/S1097-2765(00)80094-5
p114
sg57
VMOL CELL
p115
sg59
V1
sg94
(lp116
(VAHMAD
VM
tp117
asg17
I1998
sg53
V939
p118
sbag1
(g2
g3
NtRp119
(dp120
g61
V10.1016/S1097-2765(00)80022-2
p121
sg57
VMOL CELL
p122
sg59
V1
sg94
(lp123
(VANG
VL H
tp124
asg17
I1998
sg53
V213
p125
sbag1
(g2
g3
NtRp126
(dp127
g61
V10.1073/pnas.042294599
p128
sg57
VP NATL ACAD SCI USA
p129
sg59
V99
p130
sg94
(lp131
(VBABOURINA
VO
tp132
asg17
I2002
sg53
V2433
p133
sbag1
(g2
g3
NtRp134
(dp135
g61
V10.1016/S1360-1385(02)02245-8
p136
sg57
VTRENDS PLANT SCI
p137
sg59
V7
sg94
(lp138
(VBRIGGS
VW R
tp139
asg17
I2002
sg53
V204
p140
sbag1
(g2
g3
NtRp141
(dp142
g61
V10.1016/S1097-2765(03)00008-X
p143
sg57
VMOL CELL
p144
sg59
V11
p145
sg94
(lp146
(VBRUDLER
VR
tp147
asg17
I2003
sg53
V59
p148
sbag1
(g2
g3
NtRp149
(dp150
g61
V10.1016/S0378-1119(99)00308-X
p151
sg57
VGENE
p152
sg59
V237
p153
sg94
(lp154
(VCARDON
VG
tp155
asg17
I1999
sg53
V91
p156
sbag1
(g2
g3
NtRp157
(dp158
g61
V10.1105/tpc.010410
p159
sg57
VPLANT CELL
p160
sg59
V14
p161
sg94
(lp162
(VCHEN
VW Q
tp163
asg17
I2002
sg53
VLANT
p164
sbag1
(g2
g3
NtRp165
(dp166
g61
V10.1074/jbc.275.3.1723
p167
sg57
VJ BIOL CHEM
p168
sg59
V275
p169
sg94
(lp170
(VCHOI
VH I
tp171
asg17
I2000
sg53
V1723
p172
sbag1
(g2
g3
NtRp173
(dp174
g61
V10.1105/tpc.9.7.1225
p175
sg57
VPLANT CELL
p176
sg59
V9
sg94
(lp177
(VCHORY
VJ
tp178
asg17
I1997
sg53
VLANT
p179
sbag1
(g2
g3
NtRp180
(dp181
g61
V10.1073/pnas.95.25.14863
p182
sg57
VP NATL ACAD SCI USA
p183
sg59
V95
p184
sg94
(lp185
(VEISEN
VM B
tp186
asg17
I1998
sg53
V14863
p187
sbag1
(g2
g3
NtRp188
(dp189
g61
V10.1046/j.1365-313x.2001.01038.x
p190
sg57
VPLANT J
p191
sg59
V26
p192
sg94
(lp193
(VFOLTA
VK M
tp194
asg17
I2001
sg53
VLANT
p195
sbag1
(g2
g3
NtRp196
(dp197
g61
V10.1046/j.1365-313X.2001.01157.x
p198
sg57
VPLANT J
p199
sg59
V28
p200
sg94
(lp201
(VFOLTA
VK M
tp202
asg17
I2001
sg53
VLANT
p203
sbag1
(g2
g3
NtRp204
(dp205
g61
V10.1016/S1534-5807(02)00184-3
p206
sg57
VDEV CELL
p207
sg59
V2
sg94
(lp208
(VGREEN
VR M
tp209
asg17
I2002
sg53
V516
p210
sbag1
(g2
g3
NtRp211
(dp212
g61
V10.1126/science.290.5499.2110
p213
sg57
VSCIENCE
p214
sg59
V290
p215
sg94
(lp216
(VHARMER
VS L
tp217
asg17
I2000
sg53
V2110
p218
sbag1
(g2
g3
NtRp219
(dp220
g61
V10.1016/0161-7346(89)90086-2
p221
sg57
VULTRASONIC IMAGING
p222
sg59
V11
p223
sg94
(lp224
(VHERMENT
VA
tp225
asg17
I1989
sg53
V1
sbag1
(g2
g3
NtRp226
(dp227
g61
V10.1101/gad.969702
p228
sg57
VGENE DEV
p229
sg59
V16
p230
sg94
(lp231
(VHOLM
VM
tp232
asg17
I2002
sg53
V1247
p233
sbag1
(g2
g3
NtRp234
(dp235
g61
Nsg57
VPLANT CELL
p236
sg59
V5
sg94
(lp237
(VHOU
VY M
tp238
asg17
I1993
sg53
VLANT
p239
sbag1
(g2
g3
NtRp240
(dp241
g61
Nsg57
VEMBO J
p242
sg59
V15
p243
sg94
(lp244
(VHUQ
VE
tp245
asg17
I2002
sg53
V24441
p246
sbag1
(g2
g3
NtRp247
(dp248
g61
V10.1093/pcp/pcg014
p249
sg57
VPLANT CELL PHYSIOL
p250
sg59
V44
p251
sg94
(lp252
(VIMAMURA
VA
tp253
asg17
I2003
sg53
VLANT
p254
sbag1
(g2
g3
NtRp255
(dp256
g61
V10.1093/nar/28.22.4552
p257
sg57
VNUCLEIC ACIDS RES
p258
sg59
V28
p259
sg94
(lp260
(VKANE
VM D
tp261
asg17
I2000
sg53
V4552
p262
sbag1
(g2
g3
NtRp263
(dp264
g61
V10.1126/science.1068597
p265
sg57
VSCIENCE
p266
sg59
V296
p267
sg94
(lp268
(VKAPRANOV
VP
tp269
asg17
I2002
sg53
V916
p270
sbag1
(g2
g3
NtRp271
(dp272
g61
V10.1105/tpc.9.7.1197
p273
sg57
VPLANT CELL
p274
sg59
V9
sg94
(lp275
(VKENDE
VH
tp276
asg17
I1997
sg53
VLANT
p277
sbag1
(g2
g3
NtRp278
(dp279
g61
V10.1101/gr.552003
p280
sg57
VGENOME RES
p281
sg59
V13
p282
sg94
(lp283
(VKIM
VH
tp284
asg17
I2003
sg53
V327
p285
sbag1
(g2
g3
NtRp286
(dp287
g61
V10.1046/j.1365-313X.2003.01787.x
p288
sg57
VPLANT J
p289
sg59
V35
p290
sg94
(lp291
(VKLEINE
VT
tp292
asg17
I2003
sg53
VLANT
p293
sbag1
(g2
g3
NtRp294
(dp295
g61
V10.1046/j.1365-313x.2000.00809.x
p296
sg57
VPLANT J
p297
sg59
V23
p298
sg94
(lp299
(VKLEINOW
VT
tp300
asg17
I2000
sg53
VLANT
p301
sbag1
(g2
g3
NtRp302
(dp303
g61
V10.1101/gad.257403
p304
sg57
VGENE DEV
p305
sg59
V17
p306
sg94
(lp307
(VKOHLER
VC
tp308
asg17
I2003
sg53
V1540
p309
sbag1
(g2
g3
NtRp310
(dp311
g61
V10.1046/j.1365-313x.2001.01003.x
p312
sg57
VPlant Journal
p313
sg59
V26
p314
sg94
(lp315
(VLEDGER
VSUSAN
tp316
asg17
I2001
sg53
Vlant
p317
sbag1
(g2
g3
NtRp318
(dp319
g61
V10.1006/bbrc.2001.4904
p320
sg57
VBIOCHEM BIOPH RES CO
p321
sg59
V284
p322
sg94
(lp323
(VLEE
VY H
tp324
asg17
I2001
sg53
V133
p325
sbag1
(g2
g3
NtRp326
(dp327
g61
V10.1016/S0005-2736(00)00142-5
p328
sg57
VBBA
p329
sg59
V1465
p330
sg94
(lp331
(VLEMOINE
VR
tp332
asg17
I2000
sg53
V246
p333
sbag1
(g2
g3
NtRp334
(dp335
g61
V10.1105/tpc.000646
p336
sg57
VPLANT CELL
p337
sg59
V14
p338
sg94
(lp339
(VLIN
VC T
tp340
asg17
I2002
sg53
VLANT
p341
sbag1
(g2
g3
NtRp342
(dp343
g61
V10.2307/3870648
p344
sg57
VPLANT CELL
p345
sg59
V10
p346
sg94
(lp347
(VLIU
VQ
tp348
asg17
I1998
sg53
VLANT
p349
sbag1
(g2
g3
NtRp350
(dp351
g61
V10.1101/gad.5.3.484
p352
sg57
VGENE DEV
p353
sg59
V5
sg94
(lp354
(VMA
VH
tp355
asg17
I1991
sg53
V484
p356
sbag1
(g2
g3
NtRp357
(dp358
g61
V10.1242/dev.00281
p359
sg57
VDEVELOPMENT
p360
sg59
V130
p361
sg94
(lp362
(VMA
VL G
tp363
asg17
I2003
sg53
V969
p364
sbag1
(g2
g3
NtRp365
(dp366
g61
V10.1105/tpc.004416
p367
sg57
VPLANT CELL
p368
sg59
V14
p369
sg94
(lp370
(VMA
VL G
tp371
asg17
I2002
sg53
VLANT
p372
sbag1
(g2
g3
NtRp373
(dp374
g61
V10.1105/tpc.13.12.2589
p375
sg57
VPLANT CELL
p376
sg59
V13
p377
sg94
(lp378
(VMA
VL G
tp379
asg17
I2001
sg53
VLANT
p380
sbag1
(g2
g3
NtRp381
(dp382
g61
V10.1038/35041583
p383
sg57
VNATURE
p384
sg59
V408
p385
sg94
(lp386
(VMAS
VP
tp387
asg17
I2000
sg53
V207
p388
sbag1
(g2
g3
NtRp389
(dp390
g61
V10.1038/35079635
p391
sg57
VNATURE
p392
sg59
V411
p393
sg94
(lp394
(VMCCONNELL
VJ R
tp395
asg17
I2001
sg53
V709
p396
sbag1
(g2
g3
NtRp397
(dp398
g61
Nsg57
VDEVELOPMENT
p399
sg59
V126
p400
sg94
(lp401
(VMOCKLER
VT C
tp402
asg17
I1999
sg53
V2073
p403
sbag1
(g2
g3
NtRp404
(dp405
g61
V10.1016/S1360-1385(02)02314-2
p406
sg57
VTRENDS PLANT SCI
p407
sg59
V7
sg94
(lp408
(VMORELLI
VG
tp409
asg17
I2002
sg53
V399
p410
sbag1
(g2
g3
NtRp411
(dp412
g61
V10.1093/jexbot/52.362.1741
p413
sg57
VJ EXP BOT
p414
sg59
V52
p415
sg94
(lp416
(VMUNTZ
VK
tp417
asg17
I2001
sg53
V1741
p418
sbag1
(g2
g3
NtRp419
(dp420
g61
Nsg57
VPLANT PHYSIOL
p421
sg59
V102
p422
sg94
(lp423
(VNAGATANI
VA
tp424
asg17
I1993
sg53
VLANT
p425
sbag1
(g2
g3
NtRp426
(dp427
g61
Nsg57
VGENE DEV
p428
sg59
V14
p429
sg94
(lp430
(VNEFF
VM M
tp431
asg17
I2000
sg53
V257
p432
sbag1
(g2
g3
NtRp433
(dp434
g61
V10.1016/S0092-8674(00)81636-0
p435
sg57
VCELL
p436
sg59
V95
p437
sg94
(lp438
(VNI
VM
tp439
asg17
I1998
sg53
V657
p440
sbag1
(g2
g3
NtRp441
(dp442
g61
V10.1038/23500
p443
sg57
VNATURE
p444
sg59
V400
p445
sg94
(lp446
(VNI
VM
tp447
asg17
I1999
sg53
V781
p448
sbag1
(g2
g3
NtRp449
(dp450
g61
V10.1016/0092-8674(95)90288-0
p451
sg57
VCELL
p452
sg59
V80
p453
sg94
(lp454
(VPUTTERILL
VJ
tp455
asg17
I1995
sg53
V847
p456
sbag1
(g2
g3
NtRp457
(dp458
g61
V10.1046/j.1365-313X.1999.00431.x
p459
sg57
VPLANT J
p460
sg59
V18
p461
sg94
(lp462
(VPYSH
VL D
tp463
asg17
I1999
sg53
VLANT
p464
sbag1
(g2
g3
NtRp465
(dp466
g61
V10.1016/S0955-0674(02)00309-5
p467
sg57
VCURR OPIN CELL BIOL
p468
sg59
V14
p469
sg94
(lp470
(VQUAIL
VP H
tp471
asg17
I2002
sg53
V180
p472
sbag1
(g2
g3
NtRp473
(dp474
g61
V10.1126/science.290.5499.2105
p475
sg57
VSCIENCE
p476
sg59
V290
p477
sg94
(lp478
(VRIECHMANN
VJ L
tp479
asg17
I2000
sg53
V2105
p480
sbag1
(g2
g3
NtRp481
(dp482
g61
Nsg57
VARABIDOPSIS BOOK
p483
sg59
Nsg94
(lp484
(VRIECHMANN
VJ L
tp485
asg17
I2002
sg53
Nsbag1
(g2
g3
NtRp486
(dp487
g61
V10.1101/gad.1055203
p488
sg57
VGENE DEV
p489
sg59
V17
p490
sg94
(lp491
(VRINN
VJ L
tp492
asg17
I2003
sg53
V529
p493
sbag1
(g2
g3
NtRp494
(dp495
g61
V10.1007/BF00020881
p496
sg57
VPLANT MOL BIOL
p497
sg59
V27
p498
sg94
(lp499
(VROMANO
VC P
tp500
asg17
I1995
sg53
VLANT
p501
sbag1
(g2
g3
NtRp502
(dp503
g61
V10.1046/j.1365-313X.1998.00254.x
p504
sg57
VPLANT J
p505
sg59
V15
p506
sg94
(lp507
(VRUAN
VY
tp508
asg17
I1998
sg53
VLANT
p509
sbag1
(g2
g3
NtRp510
(dp511
g61
V10.1073/pnas.101137598
p512
sg57
VP NATL ACAD SCI USA
p513
sg59
V98
p514
sg94
(lp515
(VSAKAI
VT
tp516
asg17
I2001
sg53
V6969
p517
sbag1
(g2
g3
NtRp518
(dp519
g61
V10.1093/pcp/pcf166
p520
sg57
VPLANT CELL PHYSIOL
p521
sg59
V43
p522
sg94
(lp523
(VSATO
VE
tp524
asg17
I2002
sg53
VLANT
p525
sbag1
(g2
g3
NtRp526
(dp527
g61
V10.1046/j.1365-313X.2002.01488.x
p528
sg57
VPLANT J
p529
sg59
V32
p530
sg94
(lp531
(VSAWA
VS
tp532
asg17
I2002
sg53
VLANT
p533
sbag1
(g2
g3
NtRp534
(dp535
g61
V10.1105/tpc.13.1.113
p536
sg57
VPLANT CELL
p537
sg59
V13
p538
sg94
(lp539
(VSCHAFFER
VR
tp540
asg17
I2001
sg53
VLANT
p541
sbag1
(g2
g3
NtRp542
(dp543
g61
V10.1016/S0092-8674(00)81465-8
p544
sg57
VCELL
p545
sg59
V93
p546
sg94
(lp547
(VSCHAFFER
VR
tp548
asg17
I1998
sg53
V1219
p549
sbag1
(g2
g3
NtRp550
(dp551
g61
V10.1073/pnas.97.21.11655
p552
sg57
VP NATL ACAD SCI USA
p553
sg59
V97
p554
sg94
(lp555
(VSCHENK
VP M
tp556
asg17
I2000
sg53
V11655
p557
sbag1
(g2
g3
NtRp558
(dp559
g61
V10.1046/j.1365-313X.1993.04010137.x
p560
sg57
VPLANT J
p561
sg59
V4
sg94
(lp562
(VSCHINDLER
VU
tp563
asg17
I1993
sg53
VLANT
p564
sbag1
(g2
g3
NtRp565
(dp566
g61
V10.1038/35057141
p567
sg57
VNATURE
p568
sg59
V409
p569
sg94
(lp570
(VSHOEMAKER
VD D
tp571
asg17
I2001
sg53
V922
p572
sbag1
(g2
g3
NtRp573
(dp574
g61
V10.1073/pnas.092271599
p575
sg57
VP NATL ACAD SCI USA
p576
sg59
V99
p577
sg94
(lp578
(VSMITH
VH M S
tp579
asg17
I2002
sg53
V9579
p580
sbag1
(g2
g3
NtRp581
(dp582
g61
V10.1126/science.282.5393.1488
p583
sg57
VSCIENCE
p584
sg59
V282
p585
sg94
(lp586
(VSOMERS
VD E
tp587
asg17
I1998
sg53
V1488
p588
sbag1
(g2
g3
NtRp589
(dp590
g61
Nsg57
VDEVELOPMENT
p591
sg59
V127
p592
sg94
(lp593
(VSONG
VJ Y
tp594
asg17
I2000
sg53
V2207
p595
sbag1
(g2
g3
NtRp596
(dp597
g61
V10.1016/S1369-5266(00)00199-0
p598
sg57
VCURR OPIN PLANT BIOL
p599
sg59
V4
sg94
(lp600
(VSTRACKE
VR
tp601
asg17
I2001
sg53
V447
p602
sbag1
(g2
g3
NtRp603
(dp604
g61
V10.1023/A:1006184519697
p605
sg57
VPLANT MOL BIOL
p606
sg59
V39
p607
sg94
(lp608
(VTAKATSUJI
VH
tp609
asg17
I1999
sg53
VLANT
p610
sbag1
(g2
g3
NtRp611
(dp612
g61
V10.1073/pnas.161300998
p613
sg57
VP NATL ACAD SCI USA
p614
sg59
V98
p615
sg94
(lp616
(VTEPPERMAN
VJ M
tp617
asg17
I2001
sg53
V9437
p618
sbag1
(g2
g3
NtRp619
(dp620
g61
Nsg57
VNATURE
p621
sg59
V408
p622
sg94
(lp623
(VKAUL
VS
tp624
asg17
I2000
sg53
V796
p625
sbag1
(g2
g3
NtRp626
(dp627
g61
V10.1105/tpc.013839
p628
sg57
VPLANT CELL
p629
sg59
V15
p630
sg94
(lp631
(VTOLEDO-ORTIZ
VG
tp632
asg17
I2003
sg53
VLANT
p633
sbag1
(g2
g3
NtRp634
(dp635
g61
V10.1016/S0092-8674(00)81464-6
p636
sg57
VCELL
p637
sg59
V93
p638
sg94
(lp639
(VWANG
VZ Y
tp640
asg17
I1998
sg53
V1207
p641
sbag1
(g2
g3
NtRp642
(dp643
g61
V10.1101/gad.852200
p644
sg57
VGENE DEV
p645
sg59
V14
p646
sg94
(lp647
(VXIE
VQ
tp648
asg17
I2000
sg53
V3024
p649
sbag1
(g2
g3
NtRp650
(dp651
g61
V10.1101/gad.13.16.2108
p652
sg57
VGENE DEV
p653
sg59
V13
p654
sg94
(lp655
(VYANG
VW C
tp656
asg17
I1999
sg53
V2108
p657
sbag1
(g2
g3
NtRp658
(dp659
g61
V10.1093/nar/29.8.e41
p660
sg57
VNUCLEIC ACIDS RES
p661
sg59
V29
p662
sg94
(lp663
(VYUE
VH B
tp664
asg17
I2001
sg53
Nsbag1
(g2
g3
NtRp665
(dp666
g61
V10.1126/science.291.5502.306
p667
sg57
VSCIENCE
p668
sg59
V291
p669
sg94
(lp670
(VZHAO
VY D
tp671
asg17
I2001
sg53
V306
p672
sbag1
(g2
g3
NtRp673
(dp674
g61
V10.1105/tpc.006353
p675
sg57
VPLANT CELL
p676
sg59
V15
p677
sg94
(lp678
(VZIK
VM
tp679
asg17
I2003
sg53
VLANT
p680
sbasb.