ccopy_reg
_reconstructor
p1
(ctethne.classes.paper
Paper
p2
c__builtin__
object
p3
NtRp4
(dp5
S'publisherCity'
p6
VROCKVILLE
p7
sS'reprintAddress'
p8
VBouwmeester, HJ (reprint author), Res Inst Agrobiol & Soil Fertil, POB 14, NL-6700 AA Wageningen, Netherlands.
p9
sS'WC'
p10
VPlant Sciences
p11
sS'GA'
p12
V236BL
p13
sS'abstract'
p14
VMany plant species respond to herbivory with de novo production of a mixture of volatiles that attracts carnivorous enemies of the herbivores. One of the major components in the blend of volatiles produced by many different plant species in response to herbivory by insects and spider mites is the homoterpene 4,8-dimethyl-1,3(E),7-nonatriene, One study (J. Donath, W. Boland [1995] Phytochemistry 39: 785-790) demonstrated that a number of plant species can convert the acyclic sesquiterpene alcohol (3S)(E)-nerolidol to this homoterpene. Cucumber (Cucumis sativus L.) and lima bean (Phaseolus lunatus L.) both produce 4,8-dimethyl-1,3(E),7-nonatriene in response to herbivory. We report the presence in cucumber and lima bean of a sesquiterpene synthase catalyzing the formation of (3S)-(E)-nerolidol from farnesyl diphosphate. The enzyme is inactive in uninfested cucumber leaves, slightly active in uninfested lima bean leaves, and strongly induced by feeding of the two-spotted spider mite (Tetranychus urticae Koch) on both plant species, but not by mechanical wounding. The activities of the (3S)-(E)-nerolidol synthase correlated well with the levels of release of 4,8-dimethyl-1,3(E),7-nonatriene from the leaves of the different treatments. Thus, (3S)-(E)-nerolidol synthase is a good candidate for a regulatory role in the release of the important signaling molecule 4,8-dimethyl-1,3(E),7-nonatuiene.
p15
sS'pageEnd'
p16
I180
sS'date'
p17
I1999
sS'documentType'
p18
VArticle
p19
sS'subject'
p20
VPlant Sciences
p21
sS'isoSource'
p22
VPlant Physiol.
p23
sS'timesCited'
p24
(lp25
I66
aVZ9 73
p26
asS'PT'
p27
VJ
sS'title'
p28
VSpider Mite-Induced (3S)-(E)-Nerolidol Synthase Activity In Cucumber And Lima Bean. The First Dedicated Step In Acyclic C11-Homoterpene Biosynthesis
p29
sS'ISSN'
p30
(lp31
V0032-0889
p32
aVJ9 PLANT PHYSIOL
p33
asS'authors_full'
p34
(lp35
(VBOUWMEESTER
VHJ
tp36
a(VVERSTAPPEN
VFWA
tp37
a(VPOSTHUMUS
VMA
tp38
a(VDICKE
VM
tp39
asS'PG'
p40
I8
sS'PD'
p41
VSEP
p42
sS'pageStart'
p43
I173
sS'issue'
p44
I1
sS'RI'
p45
VBouwmeester, Harro/C-1414-2008; Dicke, Marcel/B-2300-2010
p46
sS'journal'
p47
VPLANT PHYSIOLOGY
p48
sS'volume'
p49
V121
p50
sS'doi'
p51
V10.1104/pp.121.1.173
p52
sS'emailAddress'
p53
Vh.j.bouwmeester@ab.dlo.nl
p54
sS'authorAddress'
p55
(lp56
VRes Inst Agrobiol & Soil Fertil, NL-6700 AA Wageningen, Netherlands.
p57
aVAgr Univ Wageningen, Organ Chem Lab, NL-6703 HB Wageningen, Netherlands.
p58
aVAgr Univ Wageningen, Entomol Lab, NL-6709 PD Wageningen, Netherlands.
p59
asS'publisherAddress'
p60
V15501 MONONA DRIVE, ROCKVILLE, MD 20855 USA
p61
sS'ER'
p62
V
sS'publisher'
p63
VAMER SOC PLANT BIOLOGISTS
p64
sS'authorKeywords'
p65
(lp66
VSESQUITERPENE CYCLASE ACTIVITY
p67
aVPREDATOR-PREY INTERACTIONS
p68
aVPARASITIC WASPS
p69
aVCOMMITTED STEP
p70
aVCOTTON PLANTS
p71
aVFLORAL SCENT
p72
aVELICITOR
p73
aVALLELOCHEMICALS
p74
aVIDENTIFICATION
p75
aVHOMOTERPENES
p76
asS'OI'
p77
VDicke, Marcel/0000-0001-8565-8896
p78
sS'language'
p79
VEnglish
p80
sS'wosid'
p81
VWOS:000082578300019
p82
sS'citationCount'
p83
I39
sS'authors_init'
p84
(lp85
(VBOUWMEESTER
VH J
tp86
a(VVERSTAPPEN
VF W A
tp87
a(VPOSTHUMUS
VM A
tp88
a(VDICKE
VM
tp89
asS'citedReferences'
p90
(lp91
g1
(g2
g3
NtRp92
(dp93
g51
V10.1126/science.276.5314.945
p94
sg47
VSCIENCE
p95
sg49
V276
p96
sg84
(lp97
(VALBORN
VH T
tp98
asg17
I1997
sg43
V945
p99
sbag1
(g2
g3
NtRp100
(dp101
g51
Nsg47
VCOMMON FRAGRANCE FLA
p102
sg49
Nsg84
(lp103
(VBAUER
VK
tp104
asg17
I1990
sg43
Nsbag1
(g2
g3
NtRp105
(dp106
g51
V10.1073/pnas.95.8.4126
p107
sg47
VP NATL ACAD SCI USA
p108
sg49
V95
p109
sg84
(lp110
(VBOHLMANN
VJ
tp111
asg17
I1998
sg43
V4126
p112
sbag1
(g2
g3
NtRp113
(dp114
g51
V10.1104/pp.117.3.901
p115
sg47
VPLANT PHYSIOL
p116
sg49
V117
p117
sg84
(lp118
(VBOUWMEESTER
VH J
tp119
asg17
I1998
sg43
VLANT
p120
sbag1
(g2
g3
NtRp121
(dp122
g51
Nsg47
VIN PRESS PHYTOCHEMIS
p123
sg49
Nsg84
(lp124
(VBOUWMEESTER
VH J
tp125
asg17
I1999
sg43
Nsbag1
(g2
g3
NtRp126
(dp127
g51
V10.1016/0031-9422(95)00067-H
p128
sg47
VPHYTOCHEMISTRY
p129
sg49
V39
p130
sg84
(lp131
(VDAVIS
VG D
tp132
asg17
I1995
sg43
VHYTOCHEMISTRY
p133
sbag1
(g2
g3
NtRp134
(dp135
g51
V10.1104/pp.117.4.1381
p136
sg47
VPLANT PHYSIOL
p137
sg49
V117
p138
sg84
(lp139
(VDE
VKRAKER J W
tp140
asg17
I1998
sg43
VLANT
p141
sbag1
(g2
g3
NtRp142
(dp143
g51
V10.1007/BF01021772
p144
sg47
VJ CHEM ECOL
p145
sg49
V16
p146
sg84
(lp147
(VDICKE
VM
tp148
asg17
I1990
sg43
V381
p149
sbag1
(g2
g3
NtRp150
(dp151
g51
V10.1007/BF00979614
p152
sg47
VJ CHEM ECOL
p153
sg49
V16
p154
sg84
(lp155
(VDICKE
VM
tp156
asg17
I1990
sg43
V3091
p157
sbag1
(g2
g3
NtRp158
(dp159
g51
Nsg47
VJ PLANT PHYSIOL
p160
sg49
V143
p161
sg84
(lp162
(VDICKE
VM
tp163
asg17
I1994
sg43
V465
p164
sbag1
(g2
g3
NtRp165
(dp166
g51
Nsg47
VP62
p167
sg49
Nsg84
(lp168
(VDICKE
VMARCEL
tp169
asg17
I1999
sg43
V62
p170
sbag1
(g2
g3
NtRp171
(dp172
g51
V10.1016/0031-9422(95)00082-I
p173
sg47
VPHYTOCHEMISTRY
p174
sg49
V39
p175
sg84
(lp176
(VDONATH
VJ
tp177
asg17
I1995
sg43
VHYTOCHEMISTRY
p178
sbag1
(g2
g3
NtRp179
(dp180
g51
Nsg47
VJ PLANT PHYSIOL
p181
sg49
V143
p182
sg84
(lp183
(VDONATH
VJ
tp184
asg17
I1994
sg43
V473
p185
sbag1
(g2
g3
NtRp186
(dp187
g51
V10.1105/tpc.8.7.1137
p188
sg47
VPLANT CELL
p189
sg49
V8
sg84
(lp190
(VDUDAREVA
VN
tp191
asg17
I1996
sg43
VLANT
p192
sbag1
(g2
g3
NtRp193
(dp194
g51
Nsg47
VPLANT PHYSIOL
p195
sg49
V106
p196
sg84
(lp197
(VFUNK
VC
tp198
asg17
I1994
sg43
VLANT
p199
sbag1
(g2
g3
NtRp200
(dp201
g51
V10.1002/hlca.19910740820
p202
sg47
VHELV CHIM ACTA
p203
sg49
V74
p204
sg84
(lp205
(VGABLER
VA
tp206
asg17
I1991
sg43
V1773
p207
sbag1
(g2
g3
NtRp208
(dp209
g51
Nsg47
VRECENT ADV PHYTOCHEM
p210
sg49
V24
p211
sg84
(lp212
(VGERSHENZON
VJ
tp213
asg17
I1990
sg43
V99
p214
sbag1
(g2
g3
NtRp215
(dp216
g51
Nsg47
VPERFUMES ART SCI TEC
p217
sg49
Nsg84
(lp218
(VKAISER
VR
tp219
asg17
I1991
sg43
VERFUMES
p220
sbag1
(g2
g3
NtRp221
(dp222
g51
V10.1016/0031-9422(93)85502-I
p223
sg47
VPHYTOCHEMISTRY
p224
sg49
V33
p225
sg84
(lp226
(VKNUDSEN
VJ T
tp227
asg17
I1993
sg43
VHYTOCHEMISTRY
p228
sbag1
(g2
g3
NtRp229
(dp230
g51
Nsg47
VJ BIOL CHEM
p231
sg49
V270
p232
sg84
(lp233
(VKOEPP
VA E
tp234
asg17
I1995
sg43
V8686
p235
sbag1
(g2
g3
NtRp236
(dp237
g51
V10.1002/jhrc.1240150603
p238
sg47
VJ HIGH RES CHROMATOG
p239
sg49
V15
p240
sg84
(lp241
(VKONIG
VW A
tp242
asg17
I1992
sg43
V367
p243
sbag1
(g2
g3
NtRp244
(dp245
g51
Nsg47
VHRC
p246
sg49
V17
p247
sg84
(lp248
(VKONIG
VW A
tp249
asg17
I1994
sg43
V315
p250
sbag1
(g2
g3
NtRp251
(dp252
g51
Nsg47
VIN PRESS J CHEM ECOL
p253
sg49
Nsg84
(lp254
(VKRIPS
VO E
tp255
asg17
I1999
sg43
Nsbag1
(g2
g3
NtRp256
(dp257
g51
V10.1073/pnas.91.25.11836
p258
sg47
VP NATL ACAD SCI USA
p259
sg49
V91
p260
sg84
(lp261
(VLOUGHRIN
VJ H
tp262
asg17
I1994
sg43
V11836
p263
sbag1
(g2
g3
NtRp264
(dp265
g51
Nsg47
VPLANT CELL
p266
sg49
V7
sg84
(lp267
(VMCCARVEY
VD J
tp268
asg17
I1995
sg43
VLANT
p269
sbag1
(g2
g3
NtRp270
(dp271
g51
Nsg47
VAdv Biochem Eng Biotechnol
p272
sg49
V55
p273
sg84
(lp274
(VMCCASKILL
VD
tp275
asg17
I1997
sg43
V107
p276
sbag1
(g2
g3
NtRp277
(dp278
g51
V10.1016/0003-9861(90)90086-E
p279
sg47
VARCH BIOCHEM BIOPHYS
p280
sg49
V282
p281
sg84
(lp282
(VMUNCK
VS L
tp283
asg17
I1990
sg43
V58
p284
sbag1
(g2
g3
NtRp285
(dp286
g51
Nsg47
VPLANT PHYSIOL
p287
sg49
V114
p288
sg84
(lp289
(VPARE
VP W
tp290
asg17
I1997
sg43
VLANT
p291
sbag1
(g2
g3
NtRp292
(dp293
g51
Nsg47
VPLANT PHYSIOL
p294
sg49
V106
p295
sg84
(lp296
(VPICHERSKY
VE
tp297
asg17
I1994
sg43
VLANT
p298
sbag1
(g2
g3
NtRp299
(dp300
g51
Nsg47
VPLANT PHYSIOL
p301
sg49
V111
p302
sg84
(lp303
(VROSE
VU S R
tp304
asg17
I1996
sg43
VLANT
p305
sbag1
(g2
g3
NtRp306
(dp307
g51
V10.1038/385718a0
p308
sg47
VNATURE
p309
sg49
V385
p310
sg84
(lp311
(VSHULAEV
VV
tp312
asg17
I1997
sg43
V718
p313
sbag1
(g2
g3
NtRp314
(dp315
g51
V10.1007/BF02059811
p316
sg47
VJ CHEM ECOL
p317
sg49
V20
p318
sg84
(lp319
(VTAKABAYASHI
VJ
tp320
asg17
I1994
sg43
V1329
p321
sbag1
(g2
g3
NtRp322
(dp323
g51
V10.1073/pnas.92.10.4169
p324
sg47
VP NATL ACAD SCI USA
p325
sg49
V92
p326
sg84
(lp327
(VTURLINGS
VT C J
tp328
asg17
I1995
sg43
V4169
p329
sbag1
(g2
g3
NtRp330
(dp331
g51
V10.1126/science.250.4985.1251
p332
sg47
VSCIENCE
p333
sg49
V250
p334
sg84
(lp335
(VTURLINGS
VT C J
tp336
asg17
I1990
sg43
V1251
p337
sbag1
(g2
g3
NtRp338
(dp339
g51
V10.1007/BF00988004
p340
sg47
VJ CHEM ECOL
p341
sg49
V17
p342
sg84
(lp343
(VTURLINGS
VT C J
tp344
asg17
I1991
sg43
V2235
p345
sbag1
(g2
g3
NtRp346
(dp347
g51
V10.1146/annurev.en.37.010192.001041
p348
sg47
VANNU REV ENTOMOL
p349
sg49
V37
p350
sg84
(lp351
(VVET
VL E M
tp352
asg17
I1992
sg43
V141
p353
sbag1
(g2
g3
NtRp354
(dp355
g51
V10.1104/pp.93.1.182
p356
sg47
VPLANT PHYSIOL
p357
sg49
V93
p358
sg84
(lp359
(VVOGELI
VU
tp360
asg17
I1990
sg43
VLANT
p361
sbag1
(g2
g3
NtRp362
(dp363
g51
V10.1101/gad.11.13.1621
p364
sg47
VGENE DEV
p365
sg49
V11
p366
sg84
(lp367
(VYANG
VY O
tp368
asg17
I1997
sg43
V1621
p369
sbag1
(g2
g3
NtRp370
(dp371
g51
V10.1016/0031-9422(92)83703-2
p372
sg47
VPHYTOCHEMISTRY
p373
sg49
V31
p374
sg84
(lp375
(VZOOK
VM N
tp376
asg17
I1992
sg43
VHYTOCHEMISTRY
p377
sbasb.