ccopy_reg
_reconstructor
p1
(ctethne.classes.paper
Paper
p2
c__builtin__
object
p3
NtRp4
(dp5
S'publisherCity'
p6
VROCKVILLE
p7
sS'reprintAddress'
p8
VKay, SA (reprint author), Scripps Res Inst, 10550 N Torrey Pines Rd, La Jolla, CA 92037 USA.
p9
sS'WC'
p10
VPlant Sciences
p11
sS'GA'
p12
V757BJ
p13
sS'abstract'
p14
VPlants respond to the proximity of neighboring vegetation by elongating to prevent shading. Red-depleted light reflected from neighboring vegetation triggers a shade avoidance response leading to a dramatic change in plant architecture. These changes in light quality are detected by the phytochrome family of photoreceptors. We analyzed global changes in gene expression over time in wild-type, phyB mutant, and phyA phyB double mutant seedlings of Arabidopsis in response to simulated shade. Using pattern fitting software, we identified 301 genes as shade responsive with patterns of expression corresponding to one of various physiological response modes. A requirement for a consistent pattern of expression across 12 chips in this way allowed more subtle changes in gene expression to be considered meaningful. A number of previously characterized genes involved in light and hormone signaling were identified as shade responsive, as well as several putative, novel shade-specific signal transduction factors. In addition, changes in expression of genes in a range of pathways associated with elongation growth and stress responses were observed. The majority of shade-responsive genes demonstrated antagonistic regulation by phyA and phyB in response to shade following the pattern of many physiological responses. An analysis of promoter elements of genes regulated in this way identified conserved promoter motifs potentially important in shade regulation.
p15
sS'pageEnd'
p16
I1629
sS'date'
p17
I2003
sS'documentType'
p18
VArticle
p19
sS'subject'
p20
VPlant Sciences
p21
sS'isoSource'
p22
VPlant Physiol.
p23
sS'timesCited'
p24
(lp25
I105
aVZ9 113
p26
asS'PT'
p27
VJ
sS'title'
p28
VA Genomic Analysis Of The Shade Avoidance Response In Arabidopsis
p29
sS'ISSN'
p30
(lp31
V0032-0889
p32
aVJ9 PLANT PHYSIOL
p33
asS'authors_full'
p34
(lp35
(VDEVLIN
VPF
tp36
a(VYANOVSKY
VMJ
tp37
a(VKAY
VSA
tp38
asS'PG'
p39
I13
sS'PD'
p40
VDEC
p41
sS'pageStart'
p42
I1617
sS'issue'
p43
I4
sS'RI'
p44
VKay, Steve/F-6025-2011
p45
sS'journal'
p46
VPLANT PHYSIOLOGY
p47
sS'volume'
p48
V133
p49
sS'doi'
p50
V10.1104/pp.103.034397
p51
sS'authorAddress'
p52
VScripps Res Inst, La Jolla, CA 92037 USA.
p53
sS'publisherAddress'
p54
V15501 MONONA DRIVE, ROCKVILLE, MD 20855 USA
p55
sS'ER'
p56
V
sS'publisher'
p57
VAMER SOC PLANT BIOLOGISTS
p58
sS'authorKeywords'
p59
(lp60
VCIRCADIAN-RHYTHMS
p61
aVGENE-EXPRESSION
p62
aVPHYTOCHROME-B
p63
aVPHYSIOLOGICAL-RESPONSES
p64
aVTRANSCRIPTION FACTOR
p65
aVFLOWERING TIME
p66
aVBZIP PROTEIN
p67
aVLIGHT
p68
aVREGULATOR
p69
aVTHALIANA
p70
asS'OI'
p71
VKay, Steve/0000-0002-0402-2878
p72
sS'language'
p73
VEnglish
p74
sS'wosid'
p75
VWOS:000187528700022
p76
sS'citationCount'
p77
I47
sS'authors_init'
p78
(lp79
(VDEVLIN
VP F
tp80
a(VYANOVSKY
VM J
tp81
a(VKAY
VS A
tp82
asS'citedReferences'
p83
(lp84
g1
(g2
g3
NtRp85
(dp86
g50
V10.1021/bi00197a022
p87
sg46
VBIOCHEMISTRY
p88
sg48
V33
p89
sg78
(lp90
(VADES
VS E
tp91
asg17
I1994
sg42
V9187
p92
sbag1
(g2
g3
NtRp93
(dp94
g50
V10.1126/science.1061320
p95
sg46
VSCIENCE
p96
sg48
V293
p97
sg78
(lp98
(VALABADI
VD
tp99
asg17
I2001
sg42
V880
p100
sbag1
(g2
g3
NtRp101
(dp102
g50
V10.1046/j.1365-3040.1997.d01-112.x
p103
sg46
VPLANT CELL ENVIRON
p104
sg48
V20
p105
sg78
(lp106
(VBALLARE
VC L
tp107
asg17
I1997
sg42
VLANT
p108
sbag1
(g2
g3
NtRp109
(dp110
g50
Nsg46
VONCOGENE
p111
sg48
V7
sg78
(lp112
(VBERBERICH
VS
tp113
asg17
I1992
sg42
V775
p114
sbag1
(g2
g3
NtRp115
(dp116
g50
V10.1073/pnas.96.25.14652
p117
sg46
VP NATL ACAD SCI USA
p118
sg48
V96
p119
sg78
(lp120
(VBOGNAR
VL K
tp121
asg17
I1999
sg42
V14652
p122
sbag1
(g2
g3
NtRp123
(dp124
g50
V10.1046/j.1365-313X.1993.04030469.x
p125
sg46
VPLANT J
p126
sg48
V4
sg78
(lp127
(VCARABELLI
VM
tp128
asg17
I1993
sg42
VLANT
p129
sbag1
(g2
g3
NtRp130
(dp131
g50
Nsg46
VPLANT CELL
p132
sg48
V10
p133
sg78
(lp134
(VCHATTOPADHYAY
VS
tp135
asg17
I1998
sg42
VLANT
p136
sbag1
(g2
g3
NtRp137
(dp138
g50
V10.1038/44176
p139
sg46
VNATURE
p140
sg48
V401
p141
sg78
(lp142
(VCHOI
VG
tp143
asg17
I1999
sg42
V610
p144
sbag1
(g2
g3
NtRp145
(dp146
g50
V10.1046/j.1365-313X.1999.00410.x
p147
sg46
VPLANT J
p148
sg48
V17
p149
sg78
(lp150
(VCOLES
VJ P
tp151
asg17
I1999
sg42
VLANT
p152
sbag1
(g2
g3
NtRp153
(dp154
g50
V10.1104/pp.124.4.1728
p155
sg46
VPLANT PHYSIOL
p156
sg48
V124
p157
sg78
(lp158
(VCOLON-CARMONA
VA
tp159
asg17
I2000
sg42
VLANT
p160
sbag1
(g2
g3
NtRp161
(dp162
g50
Nsg46
VPLANT CELL
p163
sg48
V10
p164
sg78
(lp165
(VDEVLIN
VP F
tp166
asg17
I1998
sg42
VLANT
p167
sbag1
(g2
g3
NtRp168
(dp169
g50
V10.1104/pp.119.3.909
p170
sg46
VPLANT PHYSIOL
p171
sg48
V119
p172
sg78
(lp173
(VDEVLIN
VP F
tp174
asg17
I1999
sg42
VLANT
p175
sbag1
(g2
g3
NtRp176
(dp177
g50
V10.1126/science.284.5419.1539
p178
sg46
VSCIENCE
p179
sg48
V284
p180
sg78
(lp181
(VFANKHAUSER
VC
tp182
asg17
I1999
sg42
V1539
p183
sbag1
(g2
g3
NtRp184
(dp185
g50
V10.1104/pp.102.015487
p186
sg46
VPLANT PHYSIOL
p187
sg48
V131
p188
sg78
(lp189
(VFRANKLIN
VK A
tp190
asg17
I2003
sg42
VLANT
p191
sbag1
(g2
g3
NtRp192
(dp193
g50
Nsg46
VNATURE
p194
sg48
V415
p195
sg78
(lp196
(VFRIML
VJ
tp197
asg17
I2002
sg42
V806
p198
sbag1
(g2
g3
NtRp199
(dp200
g50
V10.1046/j.1365-313X.2002.01441.x
p201
sg46
VPLANT J
p202
sg48
V32
p203
sg78
(lp204
(VHALL
VA
tp205
asg17
I2002
sg42
VLANT
p206
sbag1
(g2
g3
NtRp207
(dp208
g50
V10.1073/pnas.170283997
p209
sg46
VP NATL ACAD SCI USA
p210
sg48
V97
p211
sg78
(lp212
(VHUQ
VE
tp213
asg17
I2000
sg42
V9789
p214
sbag1
(g2
g3
NtRp215
(dp216
g50
Nsg46
VPLANT PHYSIOL
p217
sg48
V105
p218
sg78
(lp219
(VJOHNSON
VE
tp220
asg17
I1994
sg42
VLANT
p221
sbag1
(g2
g3
NtRp222
(dp223
g50
V10.1046/j.1365-313X.1996.09040441.x
p224
sg46
VPLANT J
p225
sg48
V9
sg78
(lp226
(VKIM
VB C
tp227
asg17
I1996
sg42
VLANT
p228
sbag1
(g2
g3
NtRp229
(dp230
g50
V10.1023/A:1015255030047
p231
sg46
VPLANT MOL BIOL
p232
sg48
V49
p233
sg78
(lp234
(VLISCUM
VE
tp235
asg17
I2002
sg42
VLANT
p236
sbag1
(g2
g3
NtRp237
(dp238
g50
V10.1002/(SICI)1097-4644(19971001)67:1<66::AID-JCB7>3.0.CO;2-U
p239
sg46
VJ CELL BIOCHEM
p240
sg48
V67
p241
sg78
(lp242
(VLIU
VY
tp243
asg17
I1997
sg42
V66
p244
sbag1
(g2
g3
NtRp245
(dp246
g50
V10.1093/pcp/pcf005
p247
sg46
VPLANT CELL PHYSIOL
p248
sg48
V43
p249
sg78
(lp250
(VMAKINO
VS
tp251
asg17
I2002
sg42
VLANT
p252
sbag1
(g2
g3
NtRp253
(dp254
g50
V10.1126/science.288.5467.859
p255
sg46
VSCIENCE
p256
sg48
V288
p257
sg78
(lp258
(VMARTINEZ-GARCIA
VJ F
tp259
asg17
I2000
sg42
V859
p260
sbag1
(g2
g3
NtRp261
(dp262
g50
V10.1105/tpc.006734
p263
sg46
VPLANT CELL
p264
sg48
V15
p265
sg78
(lp266
(VMAS
VP
tp267
asg17
I2003
sg42
VLANT
p268
sbag1
(g2
g3
NtRp269
(dp270
g50
V10.1016/S1534-5807(02)00170-3
p271
sg46
VDEV CELL
p272
sg48
V2
sg78
(lp273
(VMIZOGUCHI
VT
tp274
asg17
I2002
sg42
V629
p275
sbag1
(g2
g3
NtRp276
(dp277
g50
V10.1126/science.286.5441.961
p278
sg46
VSCIENCE
p279
sg48
V286
p280
sg78
(lp281
(VMOTCHOULSKI
VA
tp282
asg17
I1999
sg42
V961
p283
sbag1
(g2
g3
NtRp284
(dp285
g50
V10.1016/S0092-8674(02)00814-0
p286
sg46
VCELL
p287
sg48
V110
p288
sg78
(lp289
(VNAM
VK H
tp290
asg17
I2002
sg42
V203
p291
sbag1
(g2
g3
NtRp292
(dp293
g50
V10.1016/S0092-8674(00)81636-0
p294
sg46
VCELL
p295
sg48
V95
p296
sg78
(lp297
(VNI
VM
tp298
asg17
I1998
sg42
V657
p299
sbag1
(g2
g3
NtRp300
(dp301
g50
V10.1101/gad.11.22.2983
p302
sg46
VGENE DEV
p303
sg48
V11
p304
sg78
(lp305
(VOYAMA
VT
tp306
asg17
I1997
sg42
V2983
p307
sbag1
(g2
g3
NtRp308
(dp309
g50
Nsg46
VGENOME BIOL
p310
sg48
V2
sg78
(lp311
(VPAVLIDIS
VP
tp312
asg17
I2001
sg42
Nsbag1
(g2
g3
NtRp313
(dp314
g50
V10.1101/gad.11.23.3194
p315
sg46
VGENE DEV
p316
sg48
V11
p317
sg78
(lp318
(VPENG
VJ R
tp319
asg17
I1997
sg42
V3194
p320
sbag1
(g2
g3
NtRp321
(dp322
g50
V10.1098/rstb.1998.0294
p323
sg46
VPHILOS T R SOC B
p324
sg48
V353
p325
sg78
(lp326
(VQUAIL
VP H
tp327
asg17
I1998
sg42
VHILOS
p328
sbag1
(g2
g3
NtRp329
(dp330
g50
V10.1105/tpc.5.2.147
p331
sg46
VPLANT CELL
p332
sg48
V5
sg78
(lp333
(VREED
VJ W
tp334
asg17
I1993
sg42
VLANT
p335
sbag1
(g2
g3
NtRp336
(dp337
g50
V10.1038/nbt0896-995
p338
sg46
VNAT BIOTECHNOL
p339
sg48
V14
p340
sg78
(lp341
(VROBSON
VP R H
tp342
asg17
I1996
sg42
V995
p343
sbag1
(g2
g3
NtRp344
(dp345
g50
V10.1016/S0092-8674(00)81465-8
p346
sg46
VCELL
p347
sg48
V93
p348
sg78
(lp349
(VSCHAFFER
VR
tp350
asg17
I1998
sg42
V1219
p351
sbag1
(g2
g3
NtRp352
(dp353
g50
V10.1101/gad.7.3.367
p354
sg46
VGENE DEV
p355
sg48
V7
sg78
(lp356
(VSCHENA
VM
tp357
asg17
I1993
sg42
V367
p358
sbag1
(g2
g3
NtRp359
(dp360
g50
V10.1016/S0962-8924(01)02091-8
p361
sg46
VTRENDS CELL BIOL
p362
sg48
V11
p363
sg78
(lp364
(VSCHWECHHEIMER
VC
tp365
asg17
I2001
sg42
V420
p366
sbag1
(g2
g3
NtRp367
(dp368
g50
V10.1046/j.1365-3040.1997.d01-104.x
p369
sg46
VPLANT CELL ENVIRON
p370
sg48
V20
p371
sg78
(lp372
(VSMITH
VH
tp373
asg17
I1997
sg42
VLANT
p374
sbag1
(g2
g3
NtRp375
(dp376
g50
Nsg46
VPHOTOCHEM PHOTOBIOL
p377
sg48
V25
p378
sg78
(lp379
(VSMITH
VH
tp380
asg17
I1977
sg42
VHOTOCHEM
p381
sbag1
(g2
g3
NtRp382
(dp383
g50
Nsg46
VPHOTOMORPHOGENESIS P
p384
sg48
V2
sg78
(lp385
(VSMITH
VH
tp386
asg17
I1994
sg42
VHOTOMORPHOGENESIS
p387
sbag1
(g2
g3
NtRp388
(dp389
g50
Nsg46
VPLANT PHYSIOL
p390
sg48
V107
p391
sg78
(lp392
(VSOMERS
VD E
tp393
asg17
I1995
sg42
VLANT
p394
sbag1
(g2
g3
NtRp395
(dp396
g50
Nsg46
VDEVELOPMENT
p397
sg48
V126
p398
sg78
(lp399
(VSTEINDLER
VC
tp400
asg17
I1999
sg42
V4235
p401
sbag1
(g2
g3
NtRp402
(dp403
g50
Nsg46
VDEVELOPMENT
p404
sg48
V126
p405
sg78
(lp406
(VTIAN
VQ
tp407
asg17
I1999
sg42
V711
p408
sbag1
(g2
g3
NtRp409
(dp410
g50
V10.1105/tpc.5.7.757
p411
sg46
VPLANT CELL
p412
sg48
V5
sg78
(lp413
(VWHITELAM
VG C
tp414
asg17
I1993
sg42
VLANT
p415
sbag1
(g2
g3
NtRp416
(dp417
g50
V10.1046/j.1365-3040.1997.d01-100.x
p418
sg46
VPLANT CELL ENVIRON
p419
sg48
V20
p420
sg78
(lp421
(VWHITELAM
VG C
tp422
asg17
I1997
sg42
VLANT
p423
sbag1
(g2
g3
NtRp424
(dp425
g50
V10.1038/nbt1297-1359
p426
sg46
VNAT BIOTECHNOL
p427
sg48
V15
p428
sg78
(lp429
(VWODICKA
VL
tp430
asg17
I1997
sg42
V1359
p431
sbag1
(g2
g3
NtRp432
(dp433
g50
Nsg46
VMOL CELL BIOL
p434
sg48
V14
p435
sg78
(lp436
(VYASUMOTO
VK I
tp437
asg17
I1994
sg42
V8058
p438
sbasb.