ccopy_reg
_reconstructor
p1
(ctethne.classes.paper
Paper
p2
c__builtin__
object
p3
NtRp4
(dp5
S'publisherCity'
p6
VROCKVILLE
p7
sS'reprintAddress'
p8
VKranz, RG (reprint author), Washington Univ, Dept Biol, Campus Box 1137, St Louis, MO 63130 USA.
p9
sS'WC'
p10
VPlant Sciences
p11
sS'GA'
p12
V124EP
p13
sS'abstract'
p14
VNitrogen is an essential macronutrient for plant growth and survival. Here, the temporal and spatial sensing of nitrogen starvation is analyzed in Arabidopsis (Arabidopsis thaliana). The promoter for the high-affinity ammonium transporter, AtAmt1.1, is shown to be a valid indicator for nitrogen status in leaves and roots. An AtAmt1.1-Gal4 transgene using three 5 x upstream activating sequence-driven reporters (luciferase, green fluorescent protein, and beta-glucuronidase) facilitated in vivo profiling at the whole-plant and cellular levels. The effects of nitrogen supply, light duration, light intensity, and carbon on the expression of the AtAmt1.1 gene in the roots and aerial tissues are reported. Under nitrogen starvation, high expression is observed in the roots and, under nitrogen-sufficient conditions, high expression is observed in the leaves. This reciprocal regulation of AtAmt1.1 was confirmed by quantitative reverse transcription-polymerase chain reaction, which was also used to quantitate expression of the five other Amt genes in Arabidopsis. Although some of these show tissue specificity (roots or leaves), none exhibit reciprocal regulation like the AtAmt1.1-encoded high-affinity transporter. This robust reciprocal expression suggests that Arabidopsis undergoes rapid resource reallocation in plants grown under different nitrogen supply regimens. Ultimately, nitrogen starvation-mediated reallocation results in root architectural restructuring. We describe the precise timing and cellular aspects of this nitrogen limitation response.
p15
sS'pageEnd'
p16
I250
sS'publisherAddress'
p17
V15501 MONONA DRIVE, ROCKVILLE, MD 20855 USA
p18
sS'documentType'
p19
VArticle
p20
sS'subject'
p21
VPlant Sciences
p22
sS'isoSource'
p23
VPlant Physiol.
p24
sS'timesCited'
p25
(lp26
I9
aVZ9 15
p27
asS'PT'
p28
VJ
sS'title'
p29
VReciprocal Leaf And Root Expression Of Atamt1.1 And Root Architectural Changes In Response To Nitrogen Starvation
p30
sS'ISSN'
p31
(lp32
V0032-0889
p33
aVJ9 PLANT PHYSIOL
p34
asS'authors_full'
p35
(lp36
(VENGINEER
VCAWAS B
tp37
a(VKRANZ
VROBERT G
tp38
asS'PG'
p39
I15
sS'PD'
p40
VJAN
p41
sS'pageStart'
p42
I236
sS'issue'
p43
I1
sS'journal'
p44
VPLANT PHYSIOLOGY
p45
sS'volume'
p46
V143
p47
sS'doi'
p48
V10.1104/pp.106.088500
p49
sS'emailAddress'
p50
Vkranz@biology.wustl.edu
p51
sS'authorAddress'
p52
VWashington Univ, Dept Biol, St Louis, MO 63130 USA.
p53
sS'date'
p54
I2007
sS'ER'
p55
V
sS'publisher'
p56
VAMER SOC PLANT BIOLOGISTS
p57
sS'authorKeywords'
p58
(lp59
VAFFINITY NH4+ TRANSPORTER
p60
aVARABIDOPSIS-THALIANA
p61
aVAMMONIUM TRANSPORTER
p62
aVDIFFERENTIAL REGULATION
p63
aVNITRATE
p64
aVPLANTS
p65
aVGENES
p66
aVPHOSPHORUS
p67
aVHAIRS
p68
aVAVAILABILITY
p69
asS'language'
p70
VEnglish
p71
sS'wosid'
p72
VWOS:000243350600024
p73
sS'citationCount'
p74
I33
sS'authors_init'
p75
(lp76
(VENGINEER
VC B
tp77
a(VKRANZ
VR G
tp78
asS'citedReferences'
p79
(lp80
g1
(g2
g3
NtRp81
(dp82
g48
V10.1111/j.1365-3040.1996.tb00386.x
p83
sg44
VPLANT CELL ENVIRON
p84
sg46
V19
p85
sg75
(lp86
(VBATES
VT R
tp87
asg54
I1996
sg42
VLANT
p88
sbag1
(g2
g3
NtRp89
(dp90
g48
Nsg44
VPHYSIOLOGY AND DETERMINATION OF CROP YIELD
p91
sg46
Nsg75
(lp92
(VBLOOM
VA J
tp93
asg54
I1994
sg42
VHYSIOLOGY
p94
sbag1
(g2
g3
NtRp95
(dp96
g48
V10.1074/jbc.M510945200
p97
sg44
VJ BIOL CHEM
p98
sg46
V281
p99
sg75
(lp100
(VCHEN
VY M
tp101
asg54
I2006
sg42
V5726
p102
sbag1
(g2
g3
NtRp103
(dp104
g48
V10.1111/j.1469-8137.1975.tb01409.x
p105
sg44
VNEW PHYTOL
p106
sg46
V75
p107
sg75
(lp108
(VDREW
VM C
tp109
asg54
I1975
sg42
V479
p110
sbag1
(g2
g3
NtRp111
(dp112
g48
V10.1186/1471-2229-5-9
p113
sg44
VBMC PLANT BIOL
p114
sg46
V5
sg75
(lp115
(VENGINEER
VC B
tp116
asg54
I2005
sg42
Nsbag1
(g2
g3
NtRp117
(dp118
g48
Nsg44
VADV BOT RES
p119
sg46
V30
p120
sg75
(lp121
(VFORDE
VB G
tp122
asg54
I1999
sg42
V1
sbag1
(g2
g3
NtRp123
(dp124
g48
V10.1046/j.1365-313x.2001.01016.x
p125
sg44
VPLANT J
p126
sg46
V26
p127
sg75
(lp128
(VGANSEL
VX
tp129
asg54
I2001
sg42
VLANT
p130
sbag1
(g2
g3
NtRp131
(dp132
g48
V10.1105/tpc.11.5.937
p133
sg44
VPLANT CELL
p134
sg46
V11
p135
sg75
(lp136
(VGAZZARRINI
VS
tp137
asg54
I1999
sg42
VLANT
p138
sbag1
(g2
g3
NtRp139
(dp140
g48
V10.1073/pnas.95.23.13965
p141
sg44
VP NATL ACAD SCI USA
p142
sg46
V95
p143
sg75
(lp144
(VHSIEH
VM H
tp145
asg54
I1998
sg42
V13965
p146
sbag1
(g2
g3
NtRp147
(dp148
g48
V10.1104/pp.102.010843
p149
sg44
VPLANT PHYSIOL
p150
sg46
V130
p151
sg75
(lp152
(VKAISER
VB N
tp153
asg54
I2002
sg42
VLANT
p154
sbag1
(g2
g3
NtRp155
(dp156
g48
V10.1073/pnas.1030961100
p157
sg44
VP NATL ACAD SCI USA
p158
sg46
V100
p159
sg75
(lp160
(VKANG
VJ M
tp161
asg54
I2003
sg42
V6872
p162
sbag1
(g2
g3
NtRp163
(dp164
g48
V10.1046/j.1365-3040.2003.01023.x
p165
sg44
VPLANT CELL ENVIRON
p166
sg46
V26
p167
sg75
(lp168
(VKUMAR
VA
tp169
asg54
I2003
sg42
VLANT
p170
sbag1
(g2
g3
NtRp171
(dp172
g48
V10.1073/pnas.93.15.8139
p173
sg44
VP NATL ACAD SCI USA
p174
sg46
V93
p175
sg75
(lp176
(VLAUTER
VF R
tp177
asg54
I1996
sg42
V8139
p178
sbag1
(g2
g3
NtRp179
(dp180
g48
Nsg44
VPLANT MOL BIOL REP
p181
sg46
V18
p182
sg75
(lp183
(VLEEUWEN
VW
tp184
asg54
I2000
sg42
VLANT
p185
sbag1
(g2
g3
NtRp186
(dp187
g48
V10.1105/tpc.013516
p188
sg44
VPLANT CELL
p189
sg46
V15
p190
sg75
(lp191
(VLEJAY
VL
tp192
asg54
I2003
sg42
VLANT
p193
sbag1
(g2
g3
NtRp194
(dp195
g48
V10.1093/jxb/erh147
p196
sg44
VJ EXP BOT
p197
sg46
V55
p198
sg75
(lp199
(VLOQUE
VD
tp200
asg54
I2004
sg42
V1293
p201
sbag1
(g2
g3
NtRp202
(dp203
g48
V10.1104/pp.127.3.899
p204
sg44
VPLANT PHYSIOL
p205
sg46
V127
p206
sg75
(lp207
(VMALAMY
VJ E
tp208
asg54
I2001
sg42
VLANT
p209
sbag1
(g2
g3
NtRp210
(dp211
g48
Nsg44
VMINERAL NUTR HIGHER
p212
sg46
Nsg75
(lp213
(VMARSCHNER
VH
tp214
asg54
I1995
sg42
Nsbag1
(g2
g3
NtRp215
(dp216
g48
Nsg44
VPLANT CELL
p217
sg46
V4
sg75
(lp218
(VMILLAR
VA J
tp219
asg54
I1992
sg42
VLANT
p220
sbag1
(g2
g3
NtRp221
(dp222
g48
Nsg44
VPLANT J
p223
sg46
V2
sg75
(lp224
(VMINET
VM
tp225
asg54
I1992
sg42
VLANT
p226
sbag1
(g2
g3
NtRp227
(dp228
g48
Nsg44
VEMBO J
p229
sg46
V13
p230
sg75
(lp231
(VNINNEMANN
VO
tp232
asg54
I1994
sg42
V3464
p233
sbag1
(g2
g3
NtRp234
(dp235
g48
V10.1046/j.1365-313X.1999.00505.x
p236
sg44
VPLANT J
p237
sg46
V19
p238
sg75
(lp239
(VRAWAT
VS R
tp240
asg54
I1999
sg42
VLANT
p241
sbag1
(g2
g3
NtRp242
(dp243
g48
V10.1104/pp.105.073825
p244
sg44
VPLANT PHYSIOL
p245
sg46
V140
p246
sg75
(lp247
(VSANCHEZ-CALDERON
VL
tp248
asg54
I2006
sg42
VLANT
p249
sbag1
(g2
g3
NtRp250
(dp251
g48
V10.1353/ncr.2003.0059
p252
sg44
VCR
p253
sg46
V1
sg75
(lp254
(VSHELL
VM
tp255
asg54
I2001
sg42
V1
sbag1
(g2
g3
NtRp256
(dp257
g48
V10.1093/pcp/pci145
p258
sg44
VPLANT CELL PHYSIOL
p259
sg46
V46
p260
sg75
(lp261
(VSHIN
VR
tp262
asg54
I2005
sg42
VLANT
p263
sbag1
(g2
g3
NtRp264
(dp265
g48
V10.1104/pp.008599
p266
sg44
VPLANT PHYSIOL
p267
sg46
V130
p268
sg75
(lp269
(VSOHLENKAMP
VC
tp270
asg54
I2002
sg42
VLANT
p271
sbag1
(g2
g3
NtRp272
(dp273
g48
V10.1016/S0014-5793(00)01153-4
p274
sg44
VFEBS LETT
p275
sg46
V467
p276
sg75
(lp277
(VSOHLENKAMP
VC
tp278
asg54
I2000
sg42
V273
p279
sbag1
(g2
g3
NtRp280
(dp281
g48
V10.1016/0378-1119(91)90270-L
p282
sg44
VGENE
p283
sg46
V103
p284
sg75
(lp285
(VTHOMPSON
VJ F
tp286
asg54
I1991
sg42
V171
p287
sbag1
(g2
g3
NtRp288
(dp289
g48
V10.1046/j.1365-313x.2000.00665.x
p290
sg44
VPLANT J
p291
sg46
V21
p292
sg75
(lp293
(VVON
VWIREN N
tp294
asg54
I2000
sg42
VLANT
p295
sbag1
(g2
g3
NtRp296
(dp297
g48
V10.1016/S1369-5266(00)00073-X
p298
sg44
VCURR OPIN PLANT BIOL
p299
sg46
V3
sg75
(lp300
(VVON
VWIREN N
tp301
asg54
I2000
sg42
V254
p302
sbag1
(g2
g3
NtRp303
(dp304
g48
V10.1105/tpc.12.8.1491
p305
sg44
VPLANT CELL
p306
sg46
V12
p307
sg75
(lp308
(VWANG
VR C
tp309
asg54
I2000
sg42
VLANT
p310
sbag1
(g2
g3
NtRp311
(dp312
g48
V10.1073/pnas.0402267101
p313
sg44
VP NATL ACAD SCI USA
p314
sg46
V101
p315
sg75
(lp316
(VYANAGISAWA
VS
tp317
asg54
I2004
sg42
V7833
p318
sbag1
(g2
g3
NtRp319
(dp320
g48
V10.1093/jexbot/51.342.51
p321
sg44
VJ EXP BOT
p322
sg46
V51
p323
sg75
(lp324
(VZHANG
VH M
tp325
asg54
I2000
sg42
V51
p326
sbasb.