ccopy_reg
_reconstructor
p1
(ctethne.classes.paper
Paper
p2
c__builtin__
object
p3
NtRp4
(dp5
S'publisherCity'
p6
VROCKVILLE
p7
sS'reprintAddress'
p8
VBuell, CR (reprint author), Inst Genom Res, 9712 Med Ctr Dr, Rockville, MD 20850 USA.
p9
sS'WC'
p10
VPlant Sciences
p11
sS'GA'
p12
V628JL
p13
sS'pageEnd'
p14
I1586
sS'publisherAddress'
p15
V15501 MONONA DRIVE, ROCKVILLE, MD 20855 USA
p16
sS'documentType'
p17
VArticle
p18
sS'subject'
p19
VPlant Sciences
p20
sS'isoSource'
p21
VPlant Physiol.
p22
sS'timesCited'
p23
(lp24
I18
aVZ9 18
p25
asS'PT'
p26
VJ
sS'title'
p27
VCurrent Status Of The Sequence Of The Rice Genome And Prospects For Finishing The First Monocot Genome
p28
sS'ISSN'
p29
(lp30
V0032-0889
p31
aVJ9 PLANT PHYSIOL
p32
asS'authors_full'
p33
(lp34
(VBUELL
VCR
tp35
asS'PG'
p36
I2
sS'PD'
p37
VDEC
p38
sS'pageStart'
p39
I1585
sS'issue'
p40
I4
sS'journal'
p41
VPLANT PHYSIOLOGY
p42
sS'volume'
p43
V130
p44
sS'doi'
p45
V10.1104/pp.014878
p46
sS'emailAddress'
p47
Vrbuell@tigr.org
p48
sS'authorAddress'
p49
VInst Genom Res, Rockville, MD 20850 USA.
p50
sS'date'
p51
I2002
sS'ER'
p52
V
sS'publisher'
p53
VAMER SOC PLANT BIOLOGISTS
p54
sS'authorKeywords'
p55
(lp56
VDRAFT SEQUENCE
p57
aVSSP INDICA
p58
asS'language'
p59
VEnglish
p60
sS'wosid'
p61
VWOS:000179990100001
p62
sS'citationCount'
p63
I9
sS'authors_init'
p64
(lp65
(VBUELL
VC R
tp66
asS'citedReferences'
p67
(lp68
g1
(g2
g3
NtRp69
(dp70
g45
VDOI 10.1007/BF02672069
p71
sg41
VPLANT MOL BIOL REP
p72
sg43
V9
sg64
(lp73
(VARUMUGANATHAN
VK
tp74
asg51
I1991
sg39
VLANT
p75
sbag1
(g2
g3
NtRp76
(dp77
g45
V10.1104/pp.125.3.1164
p78
sg41
VPLANT PHYSIOL
p79
sg43
V125
p80
sg64
(lp81
(VBARRY
VG F
tp82
asg51
I2001
sg39
VLANT
p83
sbag1
(g2
g3
NtRp84
(dp85
g45
V10.1073/pnas.95.5.1971
p86
sg41
VP NATL ACAD SCI USA
p87
sg43
V95
p88
sg64
(lp89
(VGALE
VM D
tp90
asg51
I1998
sg39
V1971
p91
sbag1
(g2
g3
NtRp92
(dp93
g45
Nsg41
VSCIENCE
p94
sg43
V296
p95
sg64
(lp96
(VGOFF
VS A
tp97
asg51
I2002
sg39
V45
p98
sbag1
(g2
g3
NtRp99
(dp100
g45
V10.1126/science.1068275
p101
sg41
VSCIENCE
p102
sg43
V296
p103
sg64
(lp104
(VGOFF
VS A
tp105
asg51
I2002
sg39
V92
p106
sbag1
(g2
g3
NtRp107
(dp108
g45
V10.1016/S1369-5266(99)00047-3
p109
sg41
VCURR OPIN PLANT BIOL
p110
sg43
V3
sg64
(lp111
(VSASAKI
VT
tp112
asg51
I2000
sg39
V138
p113
sbag1
(g2
g3
NtRp114
(dp115
g45
Nsg41
VNATURE
p116
sg43
V408
p117
sg64
(lp118
(VKAUL
VS
tp119
asg51
I2000
sg39
V796
p120
sbag1
(g2
g3
NtRp121
(dp122
g45
V10.1007/BF02901901
p123
sg41
VCHINESE SCI BULL
p124
sg43
V46
p125
sg64
(lp126
(VYU
VJ
tp127
asg51
I2001
sg39
V1937
p128
sbag1
(g2
g3
NtRp129
(dp130
g45
V10.1126/science.1068037
p131
sg41
VSCIENCE
p132
sg43
V296
p133
sg64
(lp134
(VYU
VJ
tp135
asg51
I2002
sg39
V79
p136
sbasb.