ccopy_reg
_reconstructor
p1
(ctethne.classes.paper
Paper
p2
c__builtin__
object
p3
NtRp4
(dp5
S'publisherCity'
p6
VROCKVILLE
p7
sS'reprintAddress'
p8
VFelle, HH (reprint author), Univ Giessen, Inst Bot 1, D-35390 Giessen, Germany.
p9
sS'WC'
p10
VPlant Sciences
p11
sS'GA'
p12
V414DI
p13
sS'FX'
p14
(lp15
VThis work was supported by the Deutsche Forschungsgemeinschaft (grant
p16
aVnos. Fe 213/15-1 and Fe 213/15-2) and the Max Planck Society.
p17
asS'abstract'
p18
VSystemic signaling was investigated in both a dicot (Vicia faba) and a monocot (Hordeum vulgare) plant. Stimuli were applied to one leaf (S-leaf), and apoplastic responses were monitored on a distant leaf (target; T-leaf) with microelectrodes positioned in substomatal cavities of open stomata. Leaves that had been injured by cutting and to which a variety of cations were subsequently added caused voltage transients at the T-leaf, which are neither action potentials nor variation potentials: with respect to the cell interior, the initial polarity of these voltage transients is hyperpolarizing; they do not obey the all-or-none rule but depend on both the concentration and the type of substance added and propagate at 5 to 10 cm min(-1). This response is thought to be due to the stimulation of the plasma membrane H(+)-ATPase, a notion supported by the action of fusicoccin, which also causes such voltage transients to appear on the T-leaf, whereas orthovanadate prevents their propagation. Moreover, apoplastic ion flux analysis reveals that, in contrast to action or variation potentials, all of the investigated ion movements (Ca(2+), K(+), H(+), and Cl(-)) occur after the voltage change begins. We suggest that these wound-induced "system potentials" represent a new type of electrical long-distance signaling in higher plants.
p19
sS'pageEnd'
p20
I1600
sS'date'
p21
I2009
sS'documentType'
p22
VArticle
p23
sS'subject'
p24
VPlant Sciences
p25
sS'isoSource'
p26
VPlant Physiol.
p27
sS'timesCited'
p28
(lp29
I31
aVZ9 33
p30
asS'funding'
p31
(lp32
(VDeutsche Forschungsgemeinschaft
VFe 213/15-1, Fe 213/15-2
tp33
a(VMax Planck Society
Ntp34
asS'PT'
p35
VJ
sS'title'
p36
VSystem Potentials, A Novel Electrical Long-Distance Apoplastic Signal In Plants, Induced By Wounding
p37
sS'ISSN'
p38
(lp39
V0032-0889
p40
aVJ9 PLANT PHYSIOL
p41
asS'authors_full'
p42
(lp43
(VZIMMERMANN
VMATTHIAS R
tp44
a(VMAISCHAK
VHEIKO
tp45
a(VMITHOEFER
VAXEL
tp46
a(VBOLAND
VWILHELM
tp47
a(VFELLE
VHUBERT H
tp48
asS'PG'
p49
I8
sS'PD'
p50
VMAR
p51
sS'pageStart'
p52
I1593
sS'issue'
p53
I3
sS'journal'
p54
VPLANT PHYSIOLOGY
p55
sS'volume'
p56
V149
p57
sS'doi'
p58
V10.1104/pp.108.133884
p59
sS'emailAddress'
p60
Vhubert.felle@bio.uni-giessen.de
p61
sS'authorAddress'
p62
(lp63
V[Zimmermann, Matthias R.; Felle, Hubert H.] Univ Giessen, Inst Bot 1, D-35390 Giessen, Germany.
p64
aV[Maischak, Heiko; Mithoefer, Axel; Boland, Wilhelm] Max Planck Inst Chem Okol, D-07745 Jena, Germany.
p65
asS'publisherAddress'
p66
V15501 MONONA DRIVE, ROCKVILLE, MD 20855 USA
p67
sS'ER'
p68
V
sS'publisher'
p69
VAMER SOC PLANT BIOLOGISTS
p70
sS'authorKeywords'
p71
(lp72
VPROTEINASE-INHIBITOR
p73
aVGENE-EXPRESSION
p74
aVPLASMA-MEMBRANE
p75
aVANION CHANNELS
p76
aVGUARD-CELLS
p77
aVDEFENSE
p78
aVPH
p79
aVFUSICOCCIN
p80
aVLEAVES
p81
aVINDUCTION
p82
asS'language'
p83
VEnglish
p84
sS'wosid'
p85
VWOS:000263843700030
p86
sS'citationCount'
p87
I33
sS'authors_init'
p88
(lp89
(VZIMMERMANN
VM R
tp90
a(VMAISCHAK
VH
tp91
a(VMITHOFER
VA
tp92
a(VBOLAND
VW
tp93
a(VFELLE
VH H
tp94
asS'citedReferences'
p95
(lp96
g1
(g2
g3
NtRp97
(dp98
g58
V10.1093/jxb/36.7.1142
p99
sg54
VJ EXP BOT
p100
sg56
V36
p101
sg88
(lp102
(VBERTL
VA
tp103
asg21
I1985
sg52
V1142
p104
sbag1
(g2
g3
NtRp105
(dp106
g58
V10.1111/j.1365-3040.1987.tb01844.x
p107
sg54
VPLANT CELL ENVIRON
p108
sg56
V10
p109
sg88
(lp110
(VDAVIES
VE
tp111
asg21
I1987
sg52
VLANT
p112
sbag1
(g2
g3
NtRp113
(dp114
g58
V10.1007/978-3-540-37843-3_17
p115
sg54
VPLANT ELECTROPHYSIOL
p116
sg56
Nsg88
(lp117
(VDAVIES
VE
tp118
asg21
I2006
sg52
VLANT
p119
sbag1
(g2
g3
NtRp120
(dp121
g58
V10.1016/S0010-8545(02)00029-2
p122
sg54
VCRIT REV PLANT SCI
p123
sg56
V20
p124
sg88
(lp125
(VDE
VBRUXELLES G L
tp126
asg21
I2001
sg52
V487
p127
sbag1
(g2
g3
NtRp128
(dp129
g58
Nsg54
VBOT ACTA
p130
sg56
V101
p131
sg88
(lp132
(VESCHRICH
VW
tp133
asg21
I1988
sg52
V327
p134
sbag1
(g2
g3
NtRp135
(dp136
g58
V10.1093/jexbot/49.323.987
p137
sg54
VJ EXP BOT
p138
sg56
V49
p139
sg88
(lp140
(VFELLE
VH H
tp141
asg21
I1998
sg52
V987
p142
sbag1
(g2
g3
NtRp143
(dp144
g58
V10.1007/s00425-006-0458-y
p145
sg54
VPLANTA
p146
sg56
V226
p147
sg88
(lp148
(VFELLE
VH H
tp149
asg21
I2007
sg52
VLANTA
p150
sbag1
(g2
g3
NtRp151
(dp152
g58
V10.1046/j.1365-313x.2000.00878.x
p153
sg54
VPLANT J
p154
sg56
V24
p155
sg88
(lp156
(VFELLE
VH H
tp157
asg21
I2000
sg52
VLANT
p158
sbag1
(g2
g3
NtRp159
(dp160
g58
V10.1007/s00709-005-0131-5
p161
sg54
VPROTOPLASMA
p162
sg56
V227
p163
sg88
(lp164
(VFELLE
VH H
tp165
asg21
I2005
sg52
VROTOPLASMA
p166
sbag1
(g2
g3
NtRp167
(dp168
g58
V10.1093/aob/mcl193
p169
sg54
VANN BOT
p170
sg56
V98
p171
sg88
(lp172
(VFELLE
VH H
tp173
asg21
I2006
sg52
V1085
p174
sbag1
(g2
g3
NtRp175
(dp176
g58
Nsg54
VJ PLANT PHYSIOL
p177
sg56
V141
p178
sg88
(lp179
(VFROMM
VJ
tp180
asg21
I1993
sg52
V673
p181
sbag1
(g2
g3
NtRp182
(dp183
g58
V10.1034/j.1399-3054.1997.990403.x
p184
sg54
VPHYSIOL PLANTARUM
p185
sg56
V99
p186
sg88
(lp187
(VFROMM
VJ
tp188
asg21
I1997
sg52
VHYSIOL
p189
sbag1
(g2
g3
NtRp190
(dp191
g58
V10.1007/BF00392137
p192
sg54
VPLANTA
p193
sg56
V169
p194
sg88
(lp195
(VGRAHAM
VJ S
tp196
asg21
I1986
sg52
VLANTA
p197
sbag1
(g2
g3
NtRp198
(dp199
g58
V10.1126/science.175.4023.776
p200
sg54
VSCIENCE
p201
sg56
V175
p202
sg88
(lp203
(VGREEN
VT R
tp204
asg21
I1972
sg52
V776
p205
sbag1
(g2
g3
NtRp206
(dp207
g58
V10.1046/j.1365-313X.1994.6050741.x
p208
sg54
VPLANT J
p209
sg56
V6
sg88
(lp210
(VHEDRICH
VR
tp211
asg21
I1994
sg52
VLANT
p212
sbag1
(g2
g3
NtRp213
(dp214
g58
V10.1016/j.tplants.2008.03.005
p215
sg54
VTRENDS PLANT SCI
p216
sg56
V13
p217
sg88
(lp218
(VHEIL
VM
tp219
asg21
I2008
sg52
V264
p220
sbag1
(g2
g3
NtRp221
(dp222
g58
V10.1073/pnas.0610266104
p223
sg54
VP NATL ACAD SCI USA
p224
sg56
V104
p225
sg88
(lp226
(VHEIL
VM
tp227
asg21
I2007
sg52
V5467
p228
sbag1
(g2
g3
NtRp229
(dp230
g58
Nsg54
VBOT ACTA
p231
sg56
V111
p232
sg88
(lp233
(VHERDE
VO
tp234
asg21
I1998
sg52
V383
p235
sbag1
(g2
g3
NtRp236
(dp237
g58
V10.1146/annurev.arplant.59.032607.092825
p238
sg54
VANNU REV PLANT BIOL
p239
sg56
V59
p240
sg88
(lp241
(VHOWE
VG A
tp242
asg21
I2008
sg52
V41
p243
sbag1
(g2
g3
NtRp244
(dp245
g58
V10.1016/S1360-1385(97)90052-2
p246
sg54
VTRENDS PLANT SCI
p247
sg56
V2
sg88
(lp248
(VKOIWA
VH
tp249
asg21
I1997
sg52
V379
p250
sbag1
(g2
g3
NtRp251
(dp252
g58
V10.1104/pp.105.064196
p253
sg54
VPLANT PHYSIOL
p254
sg56
V138
p255
sg88
(lp256
(VLAUTNER
VS
tp257
asg21
I2005
sg52
VLANT
p258
sbag1
(g2
g3
NtRp259
(dp260
g58
V10.1146/annurev.pp.30.060179.001421
p261
sg54
VANNU REV PLANT PHYS
p262
sg56
V30
p263
sg88
(lp264
(VMARRE
VE
tp265
asg21
I1979
sg52
V273
p266
sbag1
(g2
g3
NtRp267
(dp268
g58
Nsg54
VANN PLANT REV PLANT
p269
sg56
Nsg88
(lp270
(VMITHOFER
VA
tp271
asg21
I2009
sg52
V261
p272
sbag1
(g2
g3
NtRp273
(dp274
g58
V10.1016/j.molcel.2006.12.017
p275
sg54
VMOL CELL
p276
sg56
V25
p277
sg88
(lp278
(VOTTMANN
VC
tp279
asg21
I2007
sg52
V427
p280
sbag1
(g2
g3
NtRp281
(dp282
g58
Nsg54
VPLANTA
p283
sg56
V200
p284
sg88
(lp285
(VRHODES
VJ D
tp286
asg21
I1996
sg52
VLANTA
p287
sbag1
(g2
g3
NtRp288
(dp289
g58
Nsg54
VPLANT PHYSIOL
p290
sg56
V106
p291
sg88
(lp292
(VSCHMIDT
VC
tp293
asg21
I1994
sg52
VLANT
p294
sbag1
(g2
g3
NtRp295
(dp296
g58
Nsg54
VPLANT PHYSIOL
p297
sg56
V113
p298
sg88
(lp299
(VSTAHLBERG
VR
tp300
asg21
I1997
sg52
VLANT
p301
sbag1
(g2
g3
NtRp302
(dp303
g58
V10.1007/s004250050143
p304
sg54
VPLANTA
p305
sg56
V202
p306
sg88
(lp307
(VSTANKOVIC
VB
tp308
asg21
I1997
sg52
VLANTA
p309
sbag1
(g2
g3
NtRp310
(dp311
g58
Nsg54
VCAN J PHYSIOL PHARM
p312
sg56
V61
p313
sg88
(lp314
(VSTEWART
VP A
tp315
asg21
I1983
sg52
V1444
p316
sbag1
(g2
g3
NtRp317
(dp318
g58
V10.1111/j.1365-3040.1991.tb00947.x
p319
sg54
VPLANT CELL ENVIRON
p320
sg56
V14
p321
sg88
(lp322
(VULLRICH
VC I
tp323
asg21
I1991
sg52
VLANT
p324
sbag1
(g2
g3
NtRp325
(dp326
g58
V10.1104/pp.94.4.1561
p327
sg54
VPLANT PHYSIOL
p328
sg56
V94
p329
sg88
(lp330
(VULLRICH
VC I
tp331
asg21
I1990
sg52
VLANT
p332
sbag1
(g2
g3
NtRp333
(dp334
g58
V10.1038/360062a0
p335
sg54
VNATURE
p336
sg56
V360
p337
sg88
(lp338
(VWILDON
VD C
tp339
asg21
I1992
sg52
V62
p340
sbag1
(g2
g3
NtRp341
(dp342
g58
V10.1023/A:1006203715640
p343
sg54
VPLANT GROWTH REGUL
p344
sg56
V29
p345
sg88
(lp346
(VWILKINSON
VS
tp347
asg21
I1999
sg52
VLANT
p348
sbasb.