ccopy_reg
_reconstructor
p1
(ctethne.classes.paper
Paper
p2
c__builtin__
object
p3
NtRp4
(dp5
S'publisherCity'
p6
VROCKVILLE
p7
sS'reprintAddress'
p8
VSack, FD (reprint author), Ohio State Univ, Dept Plant Biol, 1735 Neil Ave, Columbus, OH 43210 USA.
p9
sS'WC'
p10
VPlant Sciences
p11
sS'GA'
p12
V311UA
p13
sS'abstract'
p14
VRoot gravitropism in wild-type Arabidopsis and in two starchless mutants, pgm1-1 and adg1-1, was evaluated as a function of light position to determine the relative strengths of negative phototropism and of gravitropism and how much phototropism affects gravitropic measurements. Gravitropism was stronger than phototropism in some but not all light positions in wild-type roots grown for an extended period, indicating that the relationship between the two tropisms is more complex than previously reported. Root phototropism significantly influenced the time course of gravitropic curvature and the two measures of sensitivity. Light from above during horizontal exposure overestimated all three parameters for all three genotypes except the wild-type perception time. At the irradiance used (80 mu mol m(-2) s(-1)), the shortest periods of illumination found to exaggerate gravitropism were 45 min of continuous illumination and 2-min doses of intermittent illumination. By growing roots in circumlateral light or by gravistimulating in the dark, corrected values were obtained for each gravitropic parameter. Roots of both starchless mutants were determined to be about three times less sensitive than prior estimates. This study demonstrates the importance of accounting for phototropism in the design of root gravitropism experiments in Arabidopsis.
p15
sS'pageEnd'
p16
I461
sS'publisherAddress'
p17
V15501 MONONA DRIVE, ROCKVILLE, MD 20855 USA
p18
sS'documentType'
p19
VArticle
p20
sS'subject'
p21
VPlant Sciences
p22
sS'isoSource'
p23
VPlant Physiol.
p24
sS'timesCited'
p25
(lp26
I49
aVZ9 57
p27
asS'PT'
p28
VJ
sS'title'
p29
VInteraction Of Root Gravitropism And Phototropism In Arabidopsis Wild-Type And Starchless Mutants
p30
sS'ISSN'
p31
(lp32
V0032-0889
p33
aVJ9 PLANT PHYSIOL
p34
asS'authors_full'
p35
(lp36
(VVITHA
VS
tp37
a(VZHAO
VLM
tp38
a(VSACK
VFD
tp39
asS'PG'
p40
I9
sS'PD'
p41
VFEB
p42
sS'pageStart'
p43
I453
sS'issue'
p44
I2
sS'journal'
p45
VPLANT PHYSIOLOGY
p46
sS'volume'
p47
V122
p48
sS'doi'
p49
V10.1104/pp.122.2.453
p50
sS'authorAddress'
p51
(lp52
VOhio State Univ, Dept Plant Biol, Columbus, OH 43210 USA.
p53
aVAcad Sci Czech Republ, Inst Plant Mol Biol, CZ-37005 Ceske Budejovice, Czech Republic.
p54
asS'date'
p55
I2000
sS'ER'
p56
V
sS'publisher'
p57
VAMER SOC PLANT PHYSIOLOGISTS
p58
sS'authorKeywords'
p59
(lp60
VCHLOROPLAST PHOSPHOGLUCOMUTASE ACTIVITY
p61
aVTHALIANA L DEFICIENT
p62
aVNICOTIANA-SYLVESTRIS
p63
aVGRAVITY
p64
aVCELLS
p65
aVLIGHT
p66
aVAMYLOPLASTS
p67
aVSENSITIVITY
p68
asS'language'
p69
VEnglish
p70
sS'wosid'
p71
VWOS:000086903000015
p72
sS'citationCount'
p73
I31
sS'authors_init'
p74
(lp75
(VVITHA
VS
tp76
a(VZHAO
VL M
tp77
a(VSACK
VF D
tp78
asS'citedReferences'
p79
(lp80
g1
(g2
g3
NtRp81
(dp82
g49
V10.1104/pp.116.1.213
p83
sg45
VPLANT PHYSIOL
p84
sg47
V116
p85
sg74
(lp86
(VBLANCAFLOR
VE B
tp87
asg55
I1998
sg43
VLANT
p88
sbag1
(g2
g3
NtRp89
(dp90
g49
V10.1104/pp.79.1.11
p91
sg45
VPLANT PHYSIOL
p92
sg47
V79
p93
sg74
(lp94
(VCASPAR
VT
tp95
asg55
I1985
sg43
VLANT
p96
sbag1
(g2
g3
NtRp97
(dp98
g49
V10.1007/BF00392807
p99
sg45
VPLANTA
p100
sg47
V177
p101
sg74
(lp102
(VCASPAR
VT
tp103
asg55
I1989
sg43
VLANTA
p104
sbag1
(g2
g3
NtRp105
(dp106
g49
V10.1104/pp.120.2.343
p107
sg45
VPLANT PHYSIOL
p108
sg47
V120
p109
sg74
(lp110
(VCHEN
VR J
tp111
asg55
I1999
sg43
VLANT
p112
sbag1
(g2
g3
NtRp113
(dp114
g49
V10.1126/science.282.5394.1698
p115
sg45
VSCIENCE
p116
sg47
V282
p117
sg74
(lp118
(VCHRISTIE
VJ M
tp119
asg55
I1998
sg43
V1698
p120
sbag1
(g2
g3
NtRp121
(dp122
g49
Nsg45
VARB BOT I WURZBURG
p123
sg47
V2
sg74
(lp124
(VDARWIN
VF
tp125
asg55
I1880
sg43
V521
p126
sbag1
(g2
g3
NtRp127
(dp128
g49
Nsg45
VPLANT CELL PHYSIOL
p129
sg47
V38
p130
sg74
(lp131
(VFUKAKI
VH
tp132
asg55
I1997
sg43
VLANT
p133
sbag1
(g2
g3
NtRp134
(dp135
g49
V10.1046/j.1365-3040.1997.d01-124.x
p136
sg45
VPLANT CELL ENVIRON
p137
sg47
V20
p138
sg74
(lp139
(VHANGARTER
VR P
tp140
asg55
I1997
sg43
VLANT
p141
sbag1
(g2
g3
NtRp142
(dp143
g49
V10.1007/s004250050636
p144
sg45
VPLANTA
p145
sg47
V209
p146
sg74
(lp147
(VKERN
VV D
tp148
asg55
I1999
sg43
VLANTA
p149
sbag1
(g2
g3
NtRp150
(dp151
g49
V10.1007/BF02411418
p152
sg45
VPLANTA
p153
sg47
V180
p154
sg74
(lp155
(VKISS
VJ Z
tp156
asg55
I1989
sg43
VLANTA
p157
sbag1
(g2
g3
NtRp158
(dp159
g49
V10.1034/j.1399-3054.1996.970205.x
p160
sg45
VPHYSIOL PLANTARUM
p161
sg47
V97
p162
sg74
(lp163
(VKISS
VJ Z
tp164
asg55
I1996
sg43
VHYSIOL
p165
sbag1
(g2
g3
NtRp166
(dp167
g49
V10.1007/BF00392808
p168
sg45
VPLANTA
p169
sg47
V177
p170
sg74
(lp171
(VKISS
VJ Z
tp172
asg55
I1989
sg43
VLANTA
p173
sbag1
(g2
g3
NtRp174
(dp175
g49
V10.1104/pp.94.4.1867
p176
sg45
VPLANT PHYSIOL
p177
sg47
V94
p178
sg74
(lp179
(VKISS
VJ Z
tp180
asg55
I1990
sg43
VLANT
p181
sbag1
(g2
g3
NtRp182
(dp183
g49
Nsg45
VZ BOT
p184
sg47
V45
p185
sg74
(lp186
(VKOHLBECKER
VR
tp187
asg55
I1957
sg43
V507
p188
sbag1
(g2
g3
NtRp189
(dp190
g49
V10.1046/j.1365-3040.1997.d01-71.x
p191
sg45
VPLANT CELL ENVIRON
p192
sg47
V20
p193
sg74
(lp194
(VLASCEVE
VG
tp195
asg55
I1997
sg43
VLANT
p196
sbag1
(g2
g3
NtRp197
(dp198
g49
V10.1104/pp.86.4.1131
p199
sg45
VPLANT PHYSIOL
p200
sg47
V86
p201
sg74
(lp202
(VLIN
VT P
tp203
asg55
I1988
sg43
VLANT
p204
sbag1
(g2
g3
NtRp205
(dp206
g49
V10.1104/pp.112.1.291
p207
sg45
VPLANT PHYSIOL
p208
sg47
V112
p209
sg74
(lp210
(VLISCUM
VE
tp211
asg55
I1996
sg43
VLANT
p212
sbag1
(g2
g3
NtRp213
(dp214
g49
V10.1104/pp.120.1.183
p215
sg45
VPLANT PHYSIOL
p216
sg47
V120
p217
sg74
(lp218
(VMACCLEERY
VS A
tp219
asg55
I1999
sg43
VLANT
p220
sbag1
(g2
g3
NtRp221
(dp222
g49
Nsg45
VHDB PFLANZENPHYSIOLO
p223
sg47
V16
p224
sg74
(lp225
(VMOHR
VH
tp226
asg55
I1961
sg43
V439
p227
sbag1
(g2
g3
NtRp228
(dp229
g49
Nsg45
VANN BOT
p230
sg47
V59
p231
sg74
(lp232
(VMOORE
VR
tp233
asg55
I1987
sg43
V661
p234
sbag1
(g2
g3
NtRp235
(dp236
g49
Nsg45
VFLORA
p237
sg47
V59
p238
sg74
(lp239
(VMULLER
VH
tp240
asg55
I1876
sg43
V88
p241
sbag1
(g2
g3
NtRp242
(dp243
g49
V10.2307/2445602
p244
sg45
VAM J BOT
p245
sg47
V80
p246
sg74
(lp247
(VMURGIA
VM
tp248
asg55
I1993
sg43
V824
p249
sbag1
(g2
g3
NtRp250
(dp251
g49
Nsg45
VSTUDY PLANT STRUCTUR
p252
sg47
Nsg74
(lp253
(VO'BRIEN
VT P
tp254
asg55
I1981
sg43
Nsbag1
(g2
g3
NtRp255
(dp256
g49
Nsg45
VAUST J PLANT PHYSIOL
p257
sg47
V19
p258
sg74
(lp259
(VOKADA
VK
tp260
asg55
I1992
sg43
V439
p261
sbag1
(g2
g3
NtRp262
(dp263
g49
Nsg45
VARABIDOPSIS
p264
sg47
Nsg74
(lp265
(VOKADA
VK
tp266
asg55
I1994
sg43
V655
p267
sbag1
(g2
g3
NtRp268
(dp269
g49
V10.1016/S0074-7696(08)60695-6
p270
sg45
VINT REV CYTOL
p271
sg47
V127
p272
sg74
(lp273
(VSACK
VF D
tp274
asg55
I1991
sg43
V193
p275
sbag1
(g2
g3
NtRp276
(dp277
g49
V10.2307/2444616
p278
sg45
VAM J BOT
p279
sg47
V76
p280
sg74
(lp281
(VSACK
VF D
tp282
asg55
I1989
sg43
V454
p283
sbag1
(g2
g3
NtRp284
(dp285
g49
Nsg45
VINT C AR RES JUL 4 8
p286
sg47
Nsg74
(lp287
(VSAKAI
VT
tp288
asg55
I1999
sg43
Nsbag1
(g2
g3
NtRp289
(dp290
g49
Nsg45
VZ BOT
p291
sg47
V52
p292
sg74
(lp293
(VSCHNEIDER
VH
tp294
asg55
I1964
sg43
V451
p295
sbag1
(g2
g3
NtRp296
(dp297
g49
Nsg45
VPLANTA
p298
sg47
V203
p299
sg74
(lp300
(VSTAVES
VM P
tp301
asg55
I1997
sg43
VLANTA
p302
sbag1
(g2
g3
NtRp303
(dp304
g49
V10.1046/j.1365-313X.1998.00009.x
p305
sg45
VPLANT J
p306
sg47
V13
p307
sg74
(lp308
(VWANG
VS M
tp309
asg55
I1998
sg43
VLANT
p310
sbasb.