ccopy_reg
_reconstructor
p1
(ctethne.classes.paper
Paper
p2
c__builtin__
object
p3
NtRp4
(dp5
S'publisherCity'
p6
VROCKVILLE
p7
sS'reprintAddress'
p8
VWurtzel, ET (reprint author), CUNY, Lehman Coll, Dept Biol Sci, New York, NY 10468 USA.
p9
sS'WC'
p10
VPlant Sciences
p11
sS'GA'
p12
V176HH
p13
sS'abstract'
p14
VCarotenoids are a diverse group of pigments found in plants, fungi, and bacteria. They serve essential functions in plants and provide health benefits for humans and animals. In plants, it was thought that conversion of the C40 carotenoid backbone, 15-cis-phytoene, to all-trans-lycopene, the geometrical isomer required by downstream enzymes, required two desaturases (phytoene desaturase and xi-carotene desaturase [ZDS]) plus a carotene isomerase (CRTISO), in addition to light-mediated photoisomerization of the 15-cis-double bond; bacteria employ only a single enzyme, CRTI. Characterization of the maize (Zea mays) pale yellow9 (y9) locus has brought to light a new isomerase required in plant carotenoid biosynthesis. We report that maize Y9 encodes a factor required for isomerase activity upstream of CRTISO, which weterm Z-ISO, an activity that catalyzes the cis-to trans-conversion of the 15-cis-bond in 9,15,9'-tri-cis-xi-carotene, the product of phytoene desaturase, to form 9,9'-di-cis-xi-carotene, the substrate of ZDS. We show that recessive y9 alleles condition accumulation of 9,15,9'-tri-cis-xi-carotene in dark tissues, such as roots and etiolated leaves, in contrast to accumulation of 9,9'-di-cis-xi-carotene in a ZDS mutant, viviparous9. We also identify a locus in Euglena gracilis, which is similarly required for Z-ISO activity. These data, taken together with the geometrical isomer substrate requirement of ZDS in evolutionarily distant plants, suggest that Z-ISO activity is not unique to maize, but will be found in all higher plants. Further analysis of this new gene-controlled step is critical to understanding regulation of this essential biosynthetic pathway.
p15
sS'pageEnd'
p16
I1189
sS'date'
p17
I2007
sS'documentType'
p18
VArticle
p19
sS'subject'
p20
VPlant Sciences
p21
sS'isoSource'
p22
VPlant Physiol.
p23
sS'timesCited'
p24
(lp25
I58
aVZ9 62
p26
asS'PT'
p27
VJ
sS'title'
p28
VMaize Y9 Encodes A Product Essential For 15-Cis-Zeta-Carotene Isomerization
p29
sS'ISSN'
p30
(lp31
V0032-0889
p32
aVJ9 PLANT PHYSIOL
p33
asS'authors_full'
p34
(lp35
(VLI
VFAQIANG
tp36
a(VMURILLO
VCHRISTINA
tp37
a(VWURTZEL
VELEANORE T
tp38
asS'PG'
p39
I9
sS'PD'
p40
VJUN
p41
sS'pageStart'
p42
I1181
sS'issue'
p43
I2
sS'RI'
p44
VLi, Faqiang/H-2043-2011
p45
sS'journal'
p46
VPLANT PHYSIOLOGY
p47
sS'volume'
p48
V144
p49
sS'doi'
p50
V10.1104/PP.107.098996
p51
sS'emailAddress'
p52
Vwurtzel@lehman.cuny.edu
p53
sS'authorAddress'
p54
(lp55
VCUNY, Lehman Coll, Dept Biol Sci, New York, NY 10468 USA.
p56
aVCUNY, Grad Sch, New York, NY 10016 USA.
p57
asS'publisherAddress'
p58
V15501 MONONA DRIVE, ROCKVILLE, MD 20855 USA
p59
sS'ER'
p60
V
sS'publisher'
p61
VAMER SOC PLANT BIOLOGISTS
p62
sS'authorKeywords'
p63
(lp64
VZETA-CAROTENE DESATURASE
p65
aVSCENEDESMUS MUTANT C-6D
p66
aVPHYTOENE DESATURASE
p67
aVESCHERICHIA-COLI
p68
aVDAFFODIL CHROMOPLASTS
p69
aVBIOSYNTHETIC-PATHWAY
p70
aVGEOMETRICAL-ISOMERS
p71
aVMOLECULAR-OXYGEN
p72
aVABSCISIC-ACID
p73
aVIN-VITRO
p74
asS'language'
p75
VEnglish
p76
sS'wosid'
p77
VWOS:000247075000056
p78
sS'citationCount'
p79
I46
sS'authors_init'
p80
(lp81
(VLI
VF Q
tp82
a(VMURILLO
VC
tp83
a(VWURTZEL
VE T
tp84
asS'citedReferences'
p85
(lp86
g1
(g2
g3
NtRp87
(dp88
g50
V10.1046/j.1432-1327.1999.00051.x
p89
sg46
VEUR J BIOCHEM
p90
sg48
V259
p91
sg80
(lp92
(VBARTLEY
VG E
tp93
asg17
I1999
sg42
V396
p94
sbag1
(g2
g3
NtRp95
(dp96
g50
V10.1111/j.1432-1033.1985.tb09308.x
p97
sg46
VEUR J BIOCHEM
p98
sg48
V153
p99
sg80
(lp100
(VBEYER
VP
tp101
asg17
I1985
sg42
V341
p102
sbag1
(g2
g3
NtRp103
(dp104
g50
V10.1111/j.1432-1033.1989.tb15000.x
p105
sg46
VEUR J BIOCHEM
p106
sg48
V184
p107
sg80
(lp108
(VBEYER
VP
tp109
asg17
I1989
sg42
V141
p110
sbag1
(g2
g3
NtRp111
(dp112
g50
V10.1016/S0305-0491(00)00278-9
p113
sg46
VCOMP BIOCHEM PHYS B
p114
sg48
V127
p115
sg80
(lp116
(VBJERKENG
VB
tp117
asg17
I2000
sg42
V423
p118
sbag1
(g2
g3
NtRp119
(dp120
g50
V10.1016/j.cub.2004.06.061
p121
sg46
VCURR BIOL
p122
sg48
V14
p123
sg80
(lp124
(VBOOKER
VJ
tp125
asg17
I2004
sg42
V1232
p126
sbag1
(g2
g3
NtRp127
(dp128
g50
V10.1105/tpc.006536
p129
sg46
VPLANT CELL
p130
sg48
V15
p131
sg80
(lp132
(VBOUVIER
VF
tp133
asg17
I2003
sg42
VLANT
p134
sbag1
(g2
g3
NtRp135
(dp136
g50
V10.1007/s00425-004-1395-2
p137
sg46
VPLANTA
p138
sg48
V220
p139
sg80
(lp140
(VBREITENBACH
VJ
tp141
asg17
I2005
sg42
VLANTA
p142
sbag1
(g2
g3
NtRp143
(dp144
g50
Nsg46
VZ NATURFORSCH C
p145
sg48
V56
p146
sg80
(lp147
(VBREITENBACH
VJ
tp148
asg17
I2001
sg42
V915
p149
sbag1
(g2
g3
NtRp150
(dp151
g50
Nsg46
VCAROTENOIDS HDB
p152
sg48
Nsg80
(lp153
(VBRITTON
VG
tp154
asg17
I2004
sg42
Nsbag1
(g2
g3
NtRp155
(dp156
g50
V10.1016/S0031-9422(00)94368-1
p157
sg46
VPHYTOCHEMISTRY
p158
sg48
V16
p159
sg80
(lp160
(VBRITTON
VG
tp161
asg17
I1977
sg42
VHYTOCHEMISTRY
p162
sbag1
(g2
g3
NtRp163
(dp164
g50
V10.1007/BF00492036
p165
sg46
VARCH MICROBIOL
p166
sg48
V113
p167
sg80
(lp168
(VBRITTON
VG
tp169
asg17
I1977
sg42
V281
p170
sbag1
(g2
g3
NtRp171
(dp172
g50
V10.1104/pp.105.067827
p173
sg46
VPLANT PHYSIOL
p174
sg48
V139
p175
sg80
(lp176
(VCASTILLO
VR
tp177
asg17
I2005
sg42
VLANT
p178
sbag1
(g2
g3
NtRp179
(dp180
g50
V10.1093/pcp/pch052
p181
sg46
VPLANT CELL PHYSIOL
p182
sg48
V45
p183
sg80
(lp184
(VCONTI
VA
tp185
asg17
I2004
sg42
VLANT
p186
sbag1
(g2
g3
NtRp187
(dp188
g50
V10.1111/j.1751-1097.1985.tb08945.x
p189
sg46
VPHOTOCHEM PHOTOBIOL
p190
sg48
V42
p191
sg80
(lp192
(VCUNNINGHAM
VF X
tp193
asg17
I1985
sg42
VHOTOCHEM
p194
sbag1
(g2
g3
NtRp195
(dp196
g50
V10.1146/annurev.arplant.56.032604.144301
p197
sg46
VANNU REV PLANT BIOL
p198
sg48
V57
p199
sg80
(lp200
(VDELLAPENNA
VD
tp201
asg17
I2006
sg42
V711
p202
sbag1
(g2
g3
NtRp203
(dp204
g50
V10.1073/pnas.85.19.7054
p205
sg46
VP NATL ACAD SCI USA
p206
sg48
V85
p207
sg80
(lp208
(VDOGBO
VO
tp209
asg17
I1988
sg42
V7054
p210
sbag1
(g2
g3
NtRp211
(dp212
g50
V10.1007/BF00408255
p213
sg46
VARCH MICROBIOL
p214
sg48
V150
p215
sg80
(lp216
(VERNST
VS
tp217
asg17
I1988
sg42
V590
p218
sbag1
(g2
g3
NtRp219
(dp220
g50
V10.1016/j.plipres.2003.10.002
p221
sg46
VPROG LIPID RES
p222
sg48
V43
p223
sg80
(lp224
(VFRASER
VP D
tp225
asg17
I2004
sg42
VROG
p226
sbag1
(g2
g3
NtRp227
(dp228
g50
V10.1104/pp.104.039818
p229
sg46
VPLANT PHYSIOL
p230
sg48
V135
p231
sg80
(lp232
(VGALLAGHER
VC E
tp233
asg17
I2004
sg42
VLANT
p234
sbag1
(g2
g3
NtRp235
(dp236
g50
V10.1080/10715760000300101
p237
sg46
VFREE RADICAL RES
p238
sg48
V32
p239
sg80
(lp240
(VHOLLOWAY
VD E
tp241
asg17
I2000
sg42
V93
p242
sbag1
(g2
g3
NtRp243
(dp244
g50
V10.1104/pp.104.052092
p245
sg46
VPLANT PHYSIOL
p246
sg48
V136
p247
sg80
(lp248
(VISAACSON
VT
tp249
asg17
I2004
sg42
VLANT
p250
sbag1
(g2
g3
NtRp251
(dp252
g50
V10.1105/tpc.010303
p253
sg46
VPLANT CELL
p254
sg48
V14
p255
sg80
(lp256
(VISAACSON
VT
tp257
asg17
I2002
sg42
VLANT
p258
sbag1
(g2
g3
NtRp259
(dp260
g50
Nsg46
VMAYDICA
p261
sg48
V46
p262
sg80
(lp263
(VJANICK-BUCKNER
VD
tp264
asg17
I2001
sg42
V41
p265
sbag1
(g2
g3
NtRp266
(dp267
g50
V10.1016/0003-9861(65)90121-9
p268
sg46
VARCH BIOCHEM BIOPHYS
p269
sg48
V110
p270
sg80
(lp271
(VJUNGALWAFB
S''
tp272
asg17
I1965
sg42
V291
p273
sbag1
(g2
g3
NtRp274
(dp275
g50
V10.1073/pnas.0511207103
p276
sg46
VP NATL ACAD SCI USA
p277
sg48
V103
p278
sg80
(lp279
(VKIM
VJ
tp280
asg17
I2006
sg42
V3474
p281
sbag1
(g2
g3
NtRp282
(dp283
g50
Nsg46
VJ NUTR
p284
sg48
V120
p285
sg80
(lp286
(VKRINSKY
VN I
tp287
asg17
I1990
sg42
V1654
p288
sbag1
(g2
g3
NtRp289
(dp290
g50
V10.1021/jf981029d
p291
sg46
VJ AGR FOOD CHEM
p292
sg48
V47
p293
sg80
(lp294
(VKURILICH
VA C
tp295
asg17
I1999
sg42
V1948
p296
sbag1
(g2
g3
NtRp297
(dp298
g50
Nsg46
VZ NATURFORSCH C
p299
sg48
V46
p300
sg80
(lp301
(VLINDEN
VH
tp302
asg17
I1991
sg42
V1045
p303
sbag1
(g2
g3
NtRp304
(dp305
g50
V10.1093/pcp/pce167
p306
sg46
VPLANT CELL PHYSIOL
p307
sg48
V42
p308
sg80
(lp309
(VMASAMOTO
VK
tp310
asg17
I2001
sg42
VLANT
p311
sbag1
(g2
g3
NtRp312
(dp313
g50
V10.1093/jxb/erg235
p314
sg46
VJ EXP BOT
p315
sg48
V54
p316
sg80
(lp317
(VMATTHEWS
VP D
tp318
asg17
I2003
sg42
V2215
p319
sbag1
(g2
g3
NtRp320
(dp321
g50
V10.1104/pp.105.061382
p322
sg46
VPLANT PHYSIOL
p323
sg48
V139
p324
sg80
(lp325
(VMATUSOVA
VR
tp326
asg17
I2005
sg42
VLANT
p327
sbag1
(g2
g3
NtRp328
(dp329
g50
V10.1111/j.1432-1033.1990.tb19130.x
p330
sg46
VEUR J BIOCHEM
p331
sg48
V191
p332
sg80
(lp333
(VMAYER
VM P
tp334
asg17
I1990
sg42
V359
p335
sbag1
(g2
g3
NtRp336
(dp337
g50
V10.1093/jexbot/52.359.1145
p338
sg46
VJ EXP BOT
p339
sg48
V52
p340
sg80
(lp341
(VMILBORROW
VB V
tp342
asg17
I2001
sg42
V1145
p343
sbag1
(g2
g3
NtRp344
(dp345
g50
Nsg46
VJ BIOCHEM
p346
sg48
V116
p347
sg80
(lp348
(VMISAWA
VN
tp349
asg17
I1994
sg42
V980
p350
sbag1
(g2
g3
NtRp351
(dp352
g50
V10.1016/j.tplants.2005.02.006
p353
sg46
VTRENDS PLANT SCI
p354
sg48
V10
p355
sg80
(lp356
(VMOISE
VA R
tp357
asg17
I2005
sg42
V178
p358
sbag1
(g2
g3
NtRp359
(dp360
g50
V10.1146/annurev.arplant.56.032604.144046
p361
sg46
VANNU REV PLANT BIOL
p362
sg48
V56
p363
sg80
(lp364
(VNAMBARA
VE
tp365
asg17
I2005
sg42
V165
p366
sbag1
(g2
g3
NtRp367
(dp368
g50
Nsg46
VJ NUTR
p369
sg48
V129
p370
sg80
(lp371
(VOSTERLIE
VM
tp372
asg17
I1999
sg42
V391
p373
sbag1
(g2
g3
NtRp374
(dp375
g50
V10.1105/tpc.010302
p376
sg46
VPLANT CELL
p377
sg48
V14
p378
sg80
(lp379
(VPARK
VH
tp380
asg17
I2002
sg42
VLANT
p381
sbag1
(g2
g3
NtRp382
(dp383
g50
Nsg46
VAltern Med Rev
p384
sg48
V5
sg80
(lp385
(VPATRICK
VL
tp386
asg17
I2000
sg42
V530
p387
sbag1
(g2
g3
NtRp388
(dp389
g50
Nsg46
VARCH BIOCHEM BIOPHYS
p390
sg48
V146
p391
sg80
(lp392
(VQUINLAN
VR
tp393
asg17
I2007
sg42
V146
p394
sbag1
(g2
g3
NtRp395
(dp396
g50
Nsg46
VJ HERED
p397
sg48
V66
p398
sg80
(lp399
(VROBERTSON
VD S
tp400
asg17
I1975
sg42
V67
p401
sbag1
(g2
g3
NtRp402
(dp403
g50
Nsg46
VJ HERED
p404
sg48
V66
p405
sg80
(lp406
(VROBERTSON
VD S
tp407
asg17
I1975
sg42
V127
p408
sbag1
(g2
g3
NtRp409
(dp410
g50
V10.1007/BF00252205
p411
sg46
VARCH MICROBIOL
p412
sg48
V155
p413
sg80
(lp414
(VSANDMANN
VG
tp415
asg17
I1991
sg42
V229
p416
sbag1
(g2
g3
NtRp417
(dp418
g50
V10.1074/jbc.M409004200
p419
sg46
VJ BIOL CHEM
p420
sg48
V279
p421
sg80
(lp422
(VSCHWARTZ
VS H
tp423
asg17
I2004
sg42
V46940
p424
sbag1
(g2
g3
NtRp425
(dp426
g50
V10.1111/j.1365-313X.2004.02263.x
p427
sg46
VPLANT J
p428
sg48
V40
p429
sg80
(lp430
(VSIMKIN
VA J
tp431
asg17
I2004
sg42
VLANT
p432
sbag1
(g2
g3
NtRp433
(dp434
g50
Nsg46
VRECENT ADV PHYTOCHEM
p435
sg48
V38
p436
sg80
(lp437
(VWURTZEL
VE T
tp438
asg17
I2004
sg42
V85
p439
sbasb.