ccopy_reg
_reconstructor
p1
(ctethne.classes.paper
Paper
p2
c__builtin__
object
p3
NtRp4
(dp5
S'publisherCity'
p6
VROCKVILLE
p7
sS'reprintAddress'
p8
VPical, C (reprint author), Lund Univ, Dept Plant Biochem, POB 124, SE-22100 Lund, Sweden.
p9
sS'WC'
p10
VPlant Sciences
p11
sS'GA'
p12
V595BV
p13
sS'abstract'
p14
VPhosphoinositides (PIs) constitute a minor fraction of total cellular lipids in all eukaryotic cells. They fulfill many important functions through interaction with a wide range of cellular proteins. Members of distinct inositol lipid kinase families catalyze the synthesis of these phospholipids from phosphatidylinositol. The hydrolysis of PIs involves phosphatases and isoforms of PI-specific phospholipase C. Although our knowledge of the roles played by plant PIs is clearly limited at present, there is no doubt that they are involved in many physiological processes during plant growth and development. In this review, we concentrate on inositol lipid-metabolizing enzymes from the model plant Arabidopsis for which biochemical characterization data are available, namely the inositol lipid kinases and PI-specific phospholipase Cs. The biochemical properties and structure of characterized and genome-predicted isoforms are presented and compared with those of the animal enzymes to show that the plant enzymes have some features clearly unique to this kingdom.
p15
sS'pageEnd'
p16
I46
sS'publisherAddress'
p17
V15501 MONONA DRIVE, ROCKVILLE, MD 20855 USA
p18
sS'documentType'
p19
VReview
p20
sS'subject'
p21
VPlant Sciences
p22
sS'isoSource'
p23
VPlant Physiol.
p24
sS'timesCited'
p25
(lp26
I166
aVZ9 198
p27
asS'PT'
p28
VJ
sS'title'
p29
VInositol Phospholipid Metabolism In Arabidopsis. Characterized And Putative Isoforms Of Inositol Phospholipid Kinase And Phosphoinositide-Specific Phospholipase C
p30
sS'ISSN'
p31
(lp32
V0032-0889
p33
aVJ9 PLANT PHYSIOL
p34
asS'authors_full'
p35
(lp36
(VMUELLERROEBER
VB
tp37
a(VPICAL
VC
tp38
asS'PG'
p39
I25
sS'PD'
p40
VSEP
p41
sS'pageStart'
p42
I22
sS'issue'
p43
I1
sS'journal'
p44
VPLANT PHYSIOLOGY
p45
sS'volume'
p46
V130
p47
sS'doi'
p48
V10.1104/pp.004770
p49
sS'authorAddress'
p50
(lp51
VLund Univ, Dept Plant Biochem, SE-22100 Lund, Sweden.
p52
aVUniv Potsdam, Inst Biochem & Biol, Mol Biol Abt, D-14476 Golm Potsdam, Germany.
p53
asS'date'
p54
I2002
sS'ER'
p55
V
sS'publisher'
p56
VAMER SOC PLANT BIOLOGISTS
p57
sS'authorKeywords'
p58
(lp59
VPLECKSTRIN HOMOLOGY DOMAIN
p60
aVSOLUBLE PHOSPHATIDYLINOSITOL 4-KINASE
p61
aVPLANT PLASMA-MEMBRANES
p62
aVSTOMATAL GUARD-CELLS
p63
aVORYZA-SATIVA L
p64
aVPROTEIN-KINASE
p65
aVABSCISIC-ACID
p66
aVLIPID KINASE
p67
aVPOLYPHOSPHATE 1-PHOSPHATASE
p68
aVSCHIZOSACCHAROMYCES-POMBE
p69
asS'language'
p70
VEnglish
p71
sS'wosid'
p72
VWOS:000178087700005
p73
sS'citationCount'
p74
I144
sS'authors_init'
p75
(lp76
(VMUELLERROEBER
VB
tp77
a(VPICAL
VC
tp78
asS'citedReferences'
p79
(lp80
g1
(g2
g3
NtRp81
(dp82
g48
V10.1038/343567a0
p83
sg44
VNATURE
p84
sg46
V343
p85
sg75
(lp86
(VALEXANDRE
VJ
tp87
asg54
I1990
sg42
V567
p88
sbag1
(g2
g3
NtRp89
(dp90
g48
Nsg44
VJ BIOL CHEM
p91
sg46
V277
p92
sg75
(lp93
(VANANTHANARAYANAB
S''
tp94
asg54
I2001
sg42
V3568
p95
sbag1
(g2
g3
NtRp96
(dp97
g48
Nsg44
VMOL BIOL CELL
p98
sg46
V11
p99
sg75
(lp100
(VAUDHYA
VA
tp101
asg54
I2000
sg42
V2673
p102
sbag1
(g2
g3
NtRp103
(dp104
g48
V10.1074/jbc.273.8.4465
p105
sg44
VJ BIOL CHEM
p106
sg46
V273
p107
sg75
(lp108
(VBAE
VY S
tp109
asg54
I1998
sg42
V4465
p110
sbag1
(g2
g3
NtRp111
(dp112
g48
V10.1016/S0005-2760(98)00134-9
p113
sg44
VBBA
p114
sg46
V1436
p115
sg75
(lp116
(VBALLA
VT
tp117
asg54
I1998
sg42
V69
p118
sbag1
(g2
g3
NtRp119
(dp120
g48
V10.1074/jbc.272.29.18358
p121
sg44
VJ BIOL CHEM
p122
sg46
V272
p123
sg75
(lp124
(VBALLA
VT
tp125
asg54
I1997
sg42
V18358
p126
sbag1
(g2
g3
NtRp127
(dp128
g48
V10.1074/jbc.273.19.11630
p129
sg44
VJ BIOL CHEM
p130
sg46
V273
p131
sg75
(lp132
(VBANFIC
VH
tp133
asg54
I1998
sg42
V11630
p134
sbag1
(g2
g3
NtRp135
(dp136
g48
V10.1074/jbc.C000861200
p137
sg44
VJ BIOL CHEM
p138
sg46
V276
p139
sg75
(lp140
(VBARYLKO
VB
tp141
asg54
I2001
sg42
V7705
p142
sbag1
(g2
g3
NtRp143
(dp144
g48
V10.1104/pp.126.2.801
p145
sg44
VPLANT PHYSIOL
p146
sg46
V126
p147
sg75
(lp148
(VBERDY
VS E
tp149
asg54
I2001
sg42
VLANT
p150
sbag1
(g2
g3
NtRp151
(dp152
g48
V10.1038/361315a0
p153
sg44
VNATURE
p154
sg46
V361
p155
sg75
(lp156
(VBERRIDGE
VM J
tp157
asg54
I1993
sg42
V315
p158
sbag1
(g2
g3
NtRp159
(dp160
g48
V10.1038/341197a0
p161
sg44
VNATURE
p162
sg46
V341
p163
sg75
(lp164
(VBERRIDGE
VM J
tp165
asg54
I1989
sg42
V197
p166
sbag1
(g2
g3
NtRp167
(dp168
g48
V10.1038/346766a0
p169
sg44
VNATURE
p170
sg46
V346
p171
sg75
(lp172
(VBLATT
VM R
tp173
asg54
I1990
sg42
V766
p174
sbag1
(g2
g3
NtRp175
(dp176
g48
V10.1016/S0092-8674(88)80017-5
p177
sg44
VCELL
p178
sg46
V54
p179
sg75
(lp180
(VBLOOMQUIST
VB T
tp181
asg54
I1988
sg42
V723
p182
sbag1
(g2
g3
NtRp183
(dp184
g48
V10.1006/bbrc.2001.5969
p185
sg44
VBIOCHEM BIOPH RES CO
p186
sg46
V289
p187
sg75
(lp188
(VBOVET
VL
tp189
asg54
I2001
sg42
V269
p190
sbag1
(g2
g3
NtRp191
(dp192
g48
Nsg44
VBIOCHEM J
p193
sg46
V311
p194
sg75
(lp195
(VBREARLEY
VC A
tp196
asg54
I1995
sg42
V1001
p197
sbag1
(g2
g3
NtRp198
(dp199
g48
Nsg44
VDEVELOPMENT
p200
sg46
V127
p201
sg75
(lp202
(VBRILL
VJ A
tp203
asg54
I2000
sg42
V3855
p204
sbag1
(g2
g3
NtRp205
(dp206
g48
Nsg44
VCOLD SPRING HARB SYM
p207
sg46
V53
p208
sg75
(lp209
(VBRISTOL
VA
tp210
asg54
I1988
sg42
V915
p211
sbag1
(g2
g3
NtRp212
(dp213
g48
V10.1105/tpc.12.9.1679
p214
sg44
VPLANT CELL
p215
sg46
V12
p216
sg75
(lp217
(VBUNNEY
VT D
tp218
asg54
I2000
sg42
VLANT
p219
sbag1
(g2
g3
NtRp220
(dp221
g48
V10.1021/bi00503a001
p222
sg44
VBIOCHEMISTRY
p223
sg46
V29
p224
sg75
(lp225
(VCARPENTER
VC L
tp226
asg54
I1990
sg42
V11147
p227
sbag1
(g2
g3
NtRp228
(dp229
g48
V10.1038/ng1096-157
p230
sg44
VNAT GENET
p231
sg46
V14
p232
sg75
(lp233
(VCARVAJAL
VJ J
tp234
asg54
I1996
sg42
V157
p235
sbag1
(g2
g3
NtRp236
(dp237
g48
V10.1104/pp.107.3.845
p238
sg44
VPLANT PHYSIOL
p239
sg46
V107
p240
sg75
(lp241
(VCHO
VM H
tp242
asg54
I1995
sg42
VLANT
p243
sbag1
(g2
g3
NtRp244
(dp245
g48
V10.1016/S0960-9822(07)00513-1
p246
sg44
VCURR BIOL
p247
sg46
V8
sg75
(lp248
(VCOOKE
VF T
tp249
asg54
I1998
sg42
V1219
p250
sbag1
(g2
g3
NtRp251
(dp252
g48
Nsg44
VBIOCHEM J
p253
sg46
V305
p254
sg75
(lp255
(VCRAXTON
VA
tp256
asg54
I1995
sg42
V491
p257
sbag1
(g2
g3
NtRp258
(dp259
g48
Nsg44
VCURR BIOL
p260
sg46
V11
p261
sg75
(lp262
(VCULLEN
VP J
tp263
asg54
I2001
sg42
V882
p264
sbag1
(g2
g3
NtRp265
(dp266
g48
V10.1042/0264-6021:3510095
p267
sg44
VBIOCHEM J
p268
sg46
V351
p269
sg75
(lp270
(VDAVIES
VS P
tp271
asg54
I2000
sg42
V95
p272
sbag1
(g2
g3
NtRp273
(dp274
g48
V10.1016/S0014-5793(99)00556-6
p275
sg44
VFEBS LETT
p276
sg46
V451
p277
sg75
(lp278
(VDEAK
VM
tp279
asg54
I1999
sg42
V220
p280
sbag1
(g2
g3
NtRp281
(dp282
g48
V10.1126/science.271.5255.1533
p283
sg44
VSCIENCE
p284
sg46
V271
p285
sg75
(lp286
(VDECAMILLI
VP
tp287
asg54
I1996
sg42
V1533
p288
sbag1
(g2
g3
NtRp289
(dp290
g48
V10.1074/jbc.273.25.15787
p291
sg44
VJ BIOL CHEM
p292
sg46
V273
p293
sg75
(lp294
(VDESRIVIERES
VS
tp295
asg54
I1998
sg42
V15787
p296
sbag1
(g2
g3
NtRp297
(dp298
g48
V10.1104/pp.126.2.759
p299
sg44
VPLANT PHYSIOL
p300
sg46
V126
p301
sg75
(lp302
(VDEWALD
VD B
tp303
asg54
I2001
sg42
VLANT
p304
sbag1
(g2
g3
NtRp305
(dp306
g48
V10.1038/36613
p307
sg44
VNATURE
p308
sg46
V390
p309
sg75
(lp310
(VDOVE
VS K
tp311
asg54
I1997
sg42
V187
p312
sbag1
(g2
g3
NtRp313
(dp314
g48
V10.1016/S0074-7696(08)61386-8
p315
sg44
VINT REV CYTOL
p316
sg46
V189
p317
sg75
(lp318
(VDROBAK
VB K
tp319
asg54
I1999
sg42
V95
p320
sbag1
(g2
g3
NtRp321
(dp322
g48
V10.1006/bbrc.1994.2727
p323
sg44
VBIOCHEM BIOPH RES CO
p324
sg46
V205
p325
sg75
(lp326
(VDROBAK
VB K
tp327
asg54
I1994
sg42
V739
p328
sbag1
(g2
g3
NtRp329
(dp330
g48
V10.1046/j.1365-313X.1994.06030389.x
p331
sg44
VPLANT J
p332
sg46
V6
sg75
(lp333
(VDROBAK
VB K
tp334
asg54
I1994
sg42
VLANT
p335
sbag1
(g2
g3
NtRp336
(dp337
g48
Nsg44
VBIOCHEM J
p338
sg46
V288
p339
sg75
(lp340
(VDROBAK
VB K
tp341
asg54
I1992
sg42
V697
p342
sbag1
(g2
g3
NtRp343
(dp344
g48
V10.1104/pp.90.3.1115
p345
sg44
VPLANT PHYSIOL
p346
sg46
V90
p347
sg75
(lp348
(VEINSPAHR
VK J
tp349
asg54
I1989
sg42
VLANT
p350
sbag1
(g2
g3
NtRp351
(dp352
g48
V10.1046/j.1365-313x.2001.01051.x
p353
sg44
VPLANT J
p354
sg46
V26
p355
sg75
(lp356
(VELGE
VS
tp357
asg54
I2001
sg42
VLANT
p358
sbag1
(g2
g3
NtRp359
(dp360
g48
Nsg44
VJ CELL SCI
p361
sg46
V115
p362
sg75
(lp363
(VELLSON
VC D
tp364
asg54
I2002
sg42
V1099
p365
sbag1
(g2
g3
NtRp366
(dp367
g48
Nsg44
VJ BIOL CHEM
p368
sg46
V264
p369
sg75
(lp370
(VEMORI
VY
tp371
asg54
I1989
sg42
V21885
p372
sbag1
(g2
g3
NtRp373
(dp374
g48
V10.1021/bi00395a039
p375
sg44
VBIOCHEMISTRY
p376
sg46
V26
p377
sg75
(lp378
(VENDEMANN
VG
tp379
asg54
I1987
sg42
V6845
p380
sbag1
(g2
g3
NtRp381
(dp382
g48
Nsg44
VBIOCHEM J
p383
sg46
V273
p384
sg75
(lp385
(VENDEMANN
VG C
tp386
asg54
I1991
sg42
V63
p387
sbag1
(g2
g3
NtRp388
(dp389
g48
V10.1038/380595a0
p390
sg44
VNATURE
p391
sg46
V380
p392
sg75
(lp393
(VESSEN
VL O
tp394
asg54
I1996
sg42
V595
p395
sbag1
(g2
g3
NtRp396
(dp397
g48
V10.1093/emboj/17.2.414
p398
sg44
VEMBO J
p399
sg46
V17
p400
sg75
(lp401
(VFALASCA
VM
tp402
asg54
I1998
sg42
V414
p403
sbag1
(g2
g3
NtRp404
(dp405
g48
V10.1083/jcb.143.1.65
p406
sg44
VJ CELL BIOL
p407
sg46
V143
p408
sg75
(lp409
(VGARY
VJ D
tp410
asg54
I1998
sg42
V65
p411
sbag1
(g2
g3
NtRp412
(dp413
g48
V10.1105/tpc.7.12.2175
p414
sg44
VPLANT CELL
p415
sg46
V7
sg75
(lp416
(VGILLASPY
VG E
tp417
asg54
I1995
sg42
VLANT
p418
sbag1
(g2
g3
NtRp419
(dp420
g48
V10.1038/346769a0
p421
sg44
VNATURE
p422
sg46
V346
p423
sg75
(lp424
(VGILROY
VS
tp425
asg54
I1990
sg42
V769
p426
sbag1
(g2
g3
NtRp427
(dp428
g48
V10.1016/0168-9452(95)04258-V
p429
sg44
VPLANT SCI
p430
sg46
V112
p431
sg75
(lp432
(VHANENBERG
VA
tp433
asg54
I1995
sg42
VLANT
p434
sbag1
(g2
g3
NtRp435
(dp436
g48
Nsg44
VMETHOD ENZYMOL
p437
sg46
V200
p438
sg75
(lp439
(VHANKS
VS K
tp440
asg54
I1991
sg42
V38
p441
sbag1
(g2
g3
NtRp442
(dp443
g48
Nsg44
VJ BIOL CHEM
p444
sg46
V262
p445
sg75
(lp446
(VHARDEN
VT K
tp447
asg54
I1987
sg42
V9057
p448
sbag1
(g2
g3
NtRp449
(dp450
g48
Nsg44
VMOL CELL BIOL
p451
sg46
V10
p452
sg75
(lp453
(VHERMAN
VP K
tp454
asg54
I1990
sg42
V6742
p455
sbag1
(g2
g3
NtRp456
(dp457
g48
V10.1016/S0005-2760(98)00140-4
p458
sg44
VBBA
p459
sg46
V1436
p460
sg75
(lp461
(VHINCHLIFFE
VK A
tp462
asg54
I1998
sg42
V87
p463
sbag1
(g2
g3
NtRp464
(dp465
g48
V10.1073/pnas.92.9.3903
p466
sg44
VP NATL ACAD SCI USA
p467
sg46
V92
p468
sg75
(lp469
(VHIRAYAMA
VT
tp470
asg54
I1995
sg42
V3903
p471
sbag1
(g2
g3
NtRp472
(dp473
g48
V10.1023/A:1005885230896
p474
sg44
VPLANT MOL BIOL
p475
sg46
V34
p476
sg75
(lp477
(VHIRAYAMA
VT
tp478
asg54
I1997
sg42
VLANT
p479
sbag1
(g2
g3
NtRp480
(dp481
g48
V10.1046/j.1365-313X.1995.08020257.x
p482
sg44
VPLANT J
p483
sg46
V8
sg75
(lp484
(VHUANG
VC H
tp485
asg54
I1995
sg42
VLANT
p486
sbag1
(g2
g3
NtRp487
(dp488
g48
V10.1042/0264-6021:3500337
p489
sg44
VBIOCHEM J
p490
sg46
V350
p491
sg75
(lp492
(VHUGHES
VW E
tp493
asg54
I2000
sg42
V337
p494
sbag1
(g2
g3
NtRp495
(dp496
g48
V10.1038/325362a0
p497
sg44
VNATURE
p498
sg46
V325
p499
sg75
(lp500
(VJANMEY
VP A
tp501
asg54
I1987
sg42
V362
p502
sbag1
(g2
g3
NtRp503
(dp504
g48
V10.1042/0264-6021:3590165
p505
sg44
VBIOCHEM J
p506
sg46
V359
p507
sg75
(lp508
(VJENSEN
VR B
tp509
asg54
I2001
sg42
V165
p510
sbag1
(g2
g3
NtRp511
(dp512
g48
V10.1006/scdb.1997.0150
p513
sg44
VSEMIN CELL DEV BIOL
p514
sg46
V8
sg75
(lp515
(VKATAN
VM
tp516
asg54
I1997
sg42
V287
p517
sbag1
(g2
g3
NtRp518
(dp519
g48
Nsg44
VCOLD SPRING HARB SYM
p520
sg46
V53
p521
sg75
(lp522
(VKATAN
VM
tp523
asg54
I1988
sg42
V921
p524
sbag1
(g2
g3
NtRp525
(dp526
g48
V10.1105/tpc.13.2.287
p527
sg44
VPLANT CELL
p528
sg46
V13
p529
sg75
(lp530
(VKIM
VD H
tp531
asg54
I2001
sg42
VLANT
p532
sbag1
(g2
g3
NtRp533
(dp534
g48
V10.1104/pp.116.1.239
p535
sg44
VPLANT PHYSIOL
p536
sg46
V116
p537
sg75
(lp538
(VKOPKA
VJ
tp539
asg54
I1998
sg42
VLANT
p540
sbag1
(g2
g3
NtRp541
(dp542
g48
V10.1083/jcb.145.2.317
p543
sg44
VJ CELL BIOL
p544
sg46
V145
p545
sg75
(lp546
(VKOST
VB
tp547
asg54
I1999
sg42
V317
p548
sbag1
(g2
g3
NtRp549
(dp550
g48
V10.1007/PL00008136
p551
sg44
VPLANTA
p552
sg46
V210
p553
sg75
(lp554
(VKUIN
VH
tp555
asg54
I2000
sg42
VLANTA
p556
sbag1
(g2
g3
NtRp557
(dp558
g48
V10.1016/S1097-2765(00)80398-6
p559
sg44
VMOL CELL
p560
sg46
V5
sg75
(lp561
(VKUNZ
VJ
tp562
asg54
I2000
sg42
V1
sbag1
(g2
g3
NtRp563
(dp564
g48
V10.1038/314472a0
p565
sg44
VNATURE
p566
sg46
V314
p567
sg75
(lp568
(VLASSING
VI
tp569
asg54
I1985
sg42
V472
p570
sbag1
(g2
g3
NtRp571
(dp572
g48
Nsg44
VJ BIOL CHEM
p573
sg46
V268
p574
sg75
(lp575
(VLEGENDRE
VL
tp576
asg54
I1993
sg42
V24559
p577
sbag1
(g2
g3
NtRp578
(dp579
g48
V10.1074/jbc.M008119200
p580
sg44
VJ BIOL CHEM
p581
sg46
V276
p582
sg75
(lp583
(VLOPEZ
VI
tp584
asg54
I2001
sg42
V2758
p585
sbag1
(g2
g3
NtRp586
(dp587
g48
V10.1146/annurev.biochem.70.1.247
p588
sg44
VANNU REV BIOCHEM
p589
sg46
V70
p590
sg75
(lp591
(VMAEHAMA
VT
tp592
asg54
I2001
sg42
V247
p593
sbag1
(g2
g3
NtRp594
(dp595
g48
V10.1083/jcb.130.6.1307
p596
sg44
VJ CELL BIOL
p597
sg46
V130
p598
sg75
(lp599
(VMATSUOKA
VK
tp600
asg54
I1995
sg42
V1307
p601
sbag1
(g2
g3
NtRp602
(dp603
g48
V10.1074/jbc.274.48.33905
p604
sg44
VJ BIOL CHEM
p605
sg46
V274
p606
sg75
(lp607
(VMCEWEN
VR K
tp608
asg54
I1999
sg42
V33905
p609
sbag1
(g2
g3
NtRp610
(dp611
g48
Nsg44
VPLANTA
p612
sg46
V208
p613
sg75
(lp614
(VMEIJER
VH J G
tp615
asg54
I1999
sg42
VLANTA
p616
sbag1
(g2
g3
NtRp617
(dp618
g48
V10.1042/0264-6021:3600491
p619
sg44
VBIOCHEM J
p620
sg46
V360
p621
sg75
(lp622
(VMEIJER
VH J G
tp623
asg54
I2001
sg42
V491
p624
sbag1
(g2
g3
NtRp625
(dp626
g48
V10.1016/0014-5793(87)80515-X
p627
sg44
VFEBS LETT
p628
sg46
V223
p629
sg75
(lp630
(VMELIN
VP M
tp631
asg54
I1987
sg42
V87
p632
sbag1
(g2
g3
NtRp633
(dp634
g48
Nsg44
VJ BIOL CHEM
p635
sg46
V272
p636
sg75
(lp637
(VMEYERS
VR
tp638
asg54
I1997
sg42
V4384
p639
sbag1
(g2
g3
NtRp640
(dp641
g48
V10.1046/j.1365-313X.1998.00227.x
p642
sg44
VPLANT J
p643
sg46
V15
p644
sg75
(lp645
(VMIKAMI
VK
tp646
asg54
I1998
sg42
VLANT
p647
sbag1
(g2
g3
NtRp648
(dp649
g48
V10.1074/jbc.M100982200
p650
sg44
VJ BIOL CHEM
p651
sg46
V276
p652
sg75
(lp653
(VMINOGUE
VS
tp654
asg54
I2001
sg42
V16635
p655
sbag1
(g2
g3
NtRp656
(dp657
g48
Nsg44
VPLANTA
p658
sg46
V193
p659
sg75
(lp660
(VMUNNIK
VT
tp661
asg54
I1994
sg42
VLANTA
p662
sbag1
(g2
g3
NtRp663
(dp664
g48
V10.1007/s004250050465
p665
sg44
VPLANTA
p666
sg46
V207
p667
sg75
(lp668
(VMUNNIK
VT
tp669
asg54
I1998
sg42
VLANTA
p670
sbag1
(g2
g3
NtRp671
(dp672
g48
V10.1016/S0005-2760(97)00158-6
p673
sg44
VBBA
p674
sg46
V1389
p675
sg75
(lp676
(VMUNNIK
VT
tp677
asg54
I1998
sg42
V222
p678
sbag1
(g2
g3
NtRp679
(dp680
g48
Nsg44
VBIOCHEM J
p681
sg46
V320
p682
sg75
(lp683
(VNAKAGAWA
VT
tp684
asg54
I1996
sg42
V643
p685
sbag1
(g2
g3
NtRp686
(dp687
g48
V10.1006/bbrc.1995.1822
p688
sg44
VBIOCHEM BIOPH RES CO
p689
sg46
V211
p690
sg75
(lp691
(VNAKASHIMA
VS
tp692
asg54
I1995
sg42
V364
p693
sbag1
(g2
g3
NtRp694
(dp695
g48
V10.1006/bbrc.2000.3011
p696
sg44
VBIOCHEM BIOPH RES CO
p697
sg46
V273
p698
sg75
(lp699
(VNISHI
VM
tp700
asg54
I2000
sg42
V920
p701
sbag1
(g2
g3
NtRp702
(dp703
g48
V10.1074/jbc.273.17.10624
p704
sg44
VJ BIOL CHEM
p705
sg46
V273
p706
sg75
(lp707
(VOH
VE S
tp708
asg54
I1998
sg42
V10624
p709
sbag1
(g2
g3
NtRp710
(dp711
g48
Nsg44
VPLANT PHYSIOL
p712
sg46
V107
p713
sg75
(lp714
(VOKPODU
VC M
tp715
asg54
I1995
sg42
VLANT
p716
sbag1
(g2
g3
NtRp717
(dp718
g48
V10.1016/S0014-5793(01)02453-X
p719
sg44
VFEBS LETT
p720
sg46
V497
p721
sg75
(lp722
(VOTTERHAG
VL
tp723
asg54
I2001
sg42
V165
p724
sbag1
(g2
g3
NtRp725
(dp726
g48
Nsg44
VJ BIOL CHEM
p727
sg46
V272
p728
sg75
(lp729
(VPAPPAN
VK
tp730
asg54
I1997
sg42
V7048
p731
sbag1
(g2
g3
NtRp732
(dp733
g48
V10.1046/j.1365-313X.1993.04020255.x
p734
sg44
VPLANT J
p735
sg46
V4
sg75
(lp736
(VPARMAR
VP N
tp737
asg54
I1993
sg42
VLANT
p738
sbag1
(g2
g3
NtRp739
(dp740
g48
Nsg44
VBIOCHEM J
p741
sg46
V312
p742
sg75
(lp743
(VPATERSON
VH F
tp744
asg54
I1995
sg42
V661
p745
sbag1
(g2
g3
NtRp746
(dp747
g48
V10.1074/jbc.274.53.38232
p748
sg44
VJ BIOL CHEM
p749
sg46
V274
p750
sg75
(lp751
(VPICAL
VC
tp752
asg54
I1999
sg42
V38232
p753
sbag1
(g2
g3
NtRp754
(dp755
g48
Nsg44
VPLANT PHYSIOL
p756
sg46
V114
p757
sg75
(lp758
(VPICAL
VC
tp759
asg54
I1997
sg42
VLANT
p760
sbag1
(g2
g3
NtRp761
(dp762
g48
V10.1210/er.13.4.692
p763
sg44
VENDOCR REV
p764
sg46
V13
p765
sg75
(lp766
(VPIKE
VL J
tp767
asg54
I1992
sg42
V692
p768
sbag1
(g2
g3
NtRp769
(dp770
g48
V10.1083/jcb.116.3.737
p771
sg44
VJ CELL BIOL
p772
sg46
V116
p773
sg75
(lp774
(VQUARMBY
VL M
tp775
asg54
I1992
sg42
V737
p776
sbag1
(g2
g3
NtRp777
(dp778
g48
V10.1105/tpc.8.3.529
p779
sg44
VPLANT CELL
p780
sg46
V8
sg75
(lp781
(VQUINTERO
VF J
tp782
asg54
I1996
sg42
VLANT
p783
sbag1
(g2
g3
NtRp784
(dp785
g48
V10.1038/36621
p786
sg44
VNATURE
p787
sg46
V390
p788
sg75
(lp789
(VRAMEH
VL E
tp790
asg54
I1997
sg42
V192
p791
sbag1
(g2
g3
NtRp792
(dp793
g48
V10.1016/S0092-8674(00)81741-9
p794
sg44
VCELL
p795
sg46
V94
p796
sg75
(lp797
(VRAO
VV D
tp798
asg54
I1998
sg42
V829
p799
sbag1
(g2
g3
NtRp800
(dp801
g48
Nsg44
VPHYSIOL REV
p802
sg46
V80
p803
sg75
(lp804
(VREBECCHI
VM J
tp805
asg54
I2000
sg42
VHYSIOL
p806
sbag1
(g2
g3
NtRp807
(dp808
g48
V10.1146/annurev.biochem.70.1.281
p809
sg44
VANNU REV BIOCHEM
p810
sg46
V70
p811
sg75
(lp812
(VRHEE
VS G
tp813
asg54
I2001
sg42
V281
p814
sbag1
(g2
g3
NtRp815
(dp816
g48
V10.1074/jbc.273.26.15879
p817
sg44
VJ BIOL CHEM
p818
sg46
V273
p819
sg75
(lp820
(VRIZO
VJ
tp821
asg54
I1998
sg42
V15879
p822
sbag1
(g2
g3
NtRp823
(dp824
g48
V10.1105/tpc.13.5.1143
p825
sg44
VPLANT CELL
p826
sg46
V13
p827
sg75
(lp828
(VSANCHEZ
VJ P
tp829
asg54
I2001
sg42
VLANT
p830
sbag1
(g2
g3
NtRp831
(dp832
g48
Nsg44
VDEVELOPMENT
p833
sg46
V129
p834
sg75
(lp835
(VSAUNDERS
VC M
tp836
asg54
I2002
sg42
V3533
p837
sbag1
(g2
g3
NtRp838
(dp839
g48
V10.1021/bi001897f
p840
sg44
VBIOCHEMISTRY
p841
sg46
V39
p842
sg75
(lp843
(VSBRISSA
VD
tp844
asg54
I2000
sg42
V15980
p845
sbag1
(g2
g3
NtRp846
(dp847
g48
V10.2165/00019053-199303040-00002
p848
sg44
VPharmacoeconomics
p849
sg46
V3
sg75
(lp850
(VSCHUG
VS A
tp851
asg54
I1993
sg42
Vharmacoeconomics
p852
sbag1
(g2
g3
NtRp853
(dp854
g48
V10.1046/j.1365-313X.1995.08030381.x
p855
sg44
VPLANT J
p856
sg46
V8
sg75
(lp857
(VSHI
VJ R
tp858
asg54
I1995
sg42
VLANT
p859
sbag1
(g2
g3
NtRp860
(dp861
g48
V10.1016/0005-2760(88)90185-3
p862
sg44
VBIOCHIM BIOPHYS ACTA
p863
sg46
V958
p864
sg75
(lp865
(VSOMMARIN
VM
tp866
asg54
I1988
sg42
V268
p867
sbag1
(g2
g3
NtRp868
(dp869
g48
V10.1074/jbc.M008324200
p870
sg44
VJ BIOL CHEM
p871
sg46
V276
p872
sg75
(lp873
(VSONG
VC
tp874
asg54
I2001
sg42
V2752
p875
sbag1
(g2
g3
NtRp876
(dp877
g48
V10.1083/jcb.129.2.321
p878
sg44
VJ CELL BIOL
p879
sg46
V129
p880
sg75
(lp881
(VSTACK
VJ H
tp882
asg54
I1995
sg42
V321
p883
sbag1
(g2
g3
NtRp884
(dp885
g48
Nsg44
VJ BIOL CHEM
p886
sg46
V269
p887
sg75
(lp888
(VSTACK
VJ H
tp889
asg54
I1994
sg42
V31552
p890
sbag1
(g2
g3
NtRp891
(dp892
g48
V10.1038/332269a0
p893
sg44
VNATURE
p894
sg46
V332
p895
sg75
(lp896
(VSTAHL
VM L
tp897
asg54
I1988
sg42
V269
p898
sbag1
(g2
g3
NtRp899
(dp900
g48
V10.1073/pnas.96.4.1779
p901
sg44
VP NATL ACAD SCI USA
p902
sg46
V96
p903
sg75
(lp904
(VSTAXEN
VI
tp905
asg54
I1999
sg42
V1779
p906
sbag1
(g2
g3
NtRp907
(dp908
g48
V10.1016/0168-9452(94)90246-1
p909
sg44
VPLANT SCI
p910
sg46
V101
p911
sg75
(lp912
(VSTEINERT
VP
tp913
asg54
I1994
sg42
VLANT
p914
sbag1
(g2
g3
NtRp915
(dp916
g48
Nsg44
VJ BIOL CHEM
p917
sg46
V271
p918
sg75
(lp919
(VSTENMARK
VH
tp920
asg54
I1996
sg42
V24048
p921
sbag1
(g2
g3
NtRp922
(dp923
g48
Nsg44
VJ CELL SCI
p924
sg46
V112
p925
sg75
(lp926
(VSTENMARK
VH
tp927
asg54
I1999
sg42
V4175
p928
sbag1
(g2
g3
NtRp929
(dp930
g48
V10.1074/jbc.273.35.22761
p931
sg44
VJ BIOL CHEM
p932
sg46
V273
p933
sg75
(lp934
(VSTEVENSON
VJ M
tp935
asg54
I1998
sg42
V22761
p936
sbag1
(g2
g3
NtRp937
(dp938
g48
V10.1016/S1360-1385(00)01652-6
p939
sg44
VTRENDS PLANT SCI
p940
sg46
V5
sg75
(lp941
(VSTEVENSON
VJ M
tp942
asg54
I2000
sg42
V252
p943
sbag1
(g2
g3
NtRp944
(dp945
g48
Nsg44
VMOL CELLS
p946
sg46
V8
sg75
(lp947
(VSUH
VB C
tp948
asg54
I1998
sg42
V162
p949
sbag1
(g2
g3
NtRp950
(dp951
g48
V10.1016/0092-8674(88)90548-X
p952
sg44
VCELL
p953
sg46
V54
p954
sg75
(lp955
(VSUH
VP G
tp956
asg54
I1988
sg42
V161
p957
sbag1
(g2
g3
NtRp958
(dp959
g48
Nsg44
VJ CELL SCI
p960
sg46
V108
p961
sg75
(lp962
(VTAKEGAWA
VK
tp963
asg54
I1995
sg42
V3745
p964
sbag1
(g2
g3
NtRp965
(dp966
g48
V10.1016/S1097-2765(00)00003-4
p967
sg44
VMOL CELL
p968
sg46
V6
sg75
(lp969
(VTAKESHIMA
VH
tp970
asg54
I2000
sg42
V11
p971
sbag1
(g2
g3
NtRp972
(dp973
g48
V10.1073/pnas.160255697
p974
sg44
VP NATL ACAD SCI USA
p975
sg46
V97
p976
sg75
(lp977
(VTAYLOR
VG S
tp978
asg54
I2000
sg42
V8910
p979
sbag1
(g2
g3
NtRp980
(dp981
g48
V10.1074/jbc.273.29.18040
p982
sg44
VJ BIOL CHEM
p983
sg46
V273
p984
sg75
(lp985
(VTOLIAS
VK F
tp986
asg54
I1998
sg42
V18040
p987
sbag1
(g2
g3
NtRp988
(dp989
g48
Nsg44
VPLANT PHYSIOL
p990
sg46
V111
p991
sg75
(lp992
(VTUCKER
VE B
tp993
asg54
I1996
sg42
VLANT
p994
sbag1
(g2
g3
NtRp995
(dp996
g48
V10.1006/excr.1999.4701
p997
sg44
VEXP CELL RES
p998
sg46
V253
p999
sg75
(lp1000
(VVANHAESEBROECK
VB
tp1001
asg54
I1999
sg42
V239
p1002
sbag1
(g2
g3
NtRp1003
(dp1004
g48
V10.1146/annurev.biochem.70.1.535
p1005
sg44
VANNU REV BIOCHEM
p1006
sg46
V70
p1007
sg75
(lp1008
(VVANHAESEBROECK
VB
tp1009
asg54
I2001
sg42
V535
p1010
sbag1
(g2
g3
NtRp1011
(dp1012
g48
V10.1093/jexbot/50.341.1735
p1013
sg44
VJ EXP BOT
p1014
sg46
V50
p1015
sg75
(lp1016
(VVAN
VHIMBERGEN J A J
tp1017
asg54
I1999
sg42
V1735
p1018
sbag1
(g2
g3
NtRp1019
(dp1020
g48
V10.1126/science.290.5499.2114
p1021
sg44
VSCIENCE
p1022
sg46
V290
p1023
sg75
(lp1024
(VVISION
VT J
tp1025
asg54
I2000
sg42
V2114
p1026
sbag1
(g2
g3
NtRp1027
(dp1028
g48
Nsg44
VJ BIOL CHEM
p1029
sg46
V269
p1030
sg75
(lp1031
(VVLAHOS
VC J
tp1032
asg54
I1994
sg42
V5241
p1033
sbag1
(g2
g3
NtRp1034
(dp1035
g48
Nsg44
VEMBO J
p1036
sg46
V14
p1037
sg75
(lp1038
(VVOLINIA
VS
tp1039
asg54
I1995
sg42
V3339
p1040
sbag1
(g2
g3
NtRp1041
(dp1042
g48
V10.1016/S1097-2765(05)00089-4
p1043
sg44
VMOL CELL
p1044
sg46
V6
sg75
(lp1045
(VWALKER
VE H
tp1046
asg54
I2000
sg42
V909
p1047
sbag1
(g2
g3
NtRp1048
(dp1049
g48
V10.1073/pnas.91.24.11398
p1050
sg44
VP NATL ACAD SCI USA
p1051
sg46
V91
p1052
sg75
(lp1053
(VWELTERS
VP
tp1054
asg54
I1994
sg42
V11398
p1055
sbag1
(g2
g3
NtRp1056
(dp1057
g48
V10.1042/0264-6021:3590583
p1058
sg44
VBIOCHEM J
p1059
sg46
V359
p1060
sg75
(lp1061
(VWESTERGREN
VT
tp1062
asg54
I2001
sg42
V583
p1063
sbag1
(g2
g3
NtRp1064
(dp1065
g48
V10.1104/pp.121.2.507
p1066
sg44
VPLANT PHYSIOL
p1067
sg46
V121
p1068
sg75
(lp1069
(VWESTERGREN
VT
tp1070
asg54
I1999
sg42
VLANT
p1071
sbag1
(g2
g3
NtRp1072
(dp1073
g48
V10.1074/jbc.M010471200
p1074
sg44
VJ BIOL CHEM
p1075
sg46
V276
p1076
sg75
(lp1077
(VWIRADJAJA
VF
tp1078
asg54
I2001
sg42
V7643
p1079
sbag1
(g2
g3
NtRp1080
(dp1081
g48
Nsg44
VJ BIOL CHEM
p1082
sg46
V269
p1083
sg75
(lp1084
(VWONG
VK
tp1085
asg54
I1994
sg42
V28878
p1086
sbag1
(g2
g3
NtRp1087
(dp1088
g48
Nsg44
VBIOL PHOSPHOINOSITID
p1089
sg46
Nsg75
(lp1090
(VWOSCHOLSKI
VR
tp1091
asg54
I2000
sg42
V320
p1092
sbag1
(g2
g3
NtRp1093
(dp1094
g48
V10.1074/jbc.274.14.9129
p1095
sg44
VJ BIOL CHEM
p1096
sg46
V274
p1097
sg75
(lp1098
(VWURMSER
VA E
tp1099
asg54
I1999
sg42
V9129
p1100
sbag1
(g2
g3
NtRp1101
(dp1102
g48
V10.1016/S0005-2760(98)00139-8
p1103
sg44
VBBA
p1104
sg46
V1436
p1105
sg75
(lp1106
(VWYMANN
VM P
tp1107
asg54
I1998
sg42
V127
p1108
sbag1
(g2
g3
NtRp1109
(dp1110
g48
V10.1101/gad.891901
p1111
sg44
VGENE DEV
p1112
sg46
V15
p1113
sg75
(lp1114
(VXIONG
VL M
tp1115
asg54
I2001
sg42
V1971
p1116
sbag1
(g2
g3
NtRp1117
(dp1118
g48
V10.1074/jbc.274.9.5738
p1119
sg44
VJ BIOL CHEM
p1120
sg46
V274
p1121
sg75
(lp1122
(VXUE
VH W
tp1123
asg54
I1999
sg42
V5738
p1124
sbag1
(g2
g3
NtRp1125
(dp1126
g48
V10.1023/A:1006308909105
p1127
sg44
VPLANT MOL BIOL
p1128
sg46
V42
p1129
sg75
(lp1130
(VXUE
VH W
tp1131
asg54
I2000
sg42
VLANT
p1132
sbag1
(g2
g3
NtRp1133
(dp1134
g48
Nsg44
VMOL BIOL CELL
p1135
sg46
V6
sg75
(lp1136
(VYAMAMOTO
VA
tp1137
asg54
I1995
sg42
V525
p1138
sbag1
(g2
g3
NtRp1139
(dp1140
g48
Nsg44
VJ BIOL CHEM
p1141
sg46
V269
p1142
sg75
(lp1143
(VYANG
VW
tp1144
asg54
I1994
sg42
V3852
p1145
sbag1
(g2
g3
NtRp1146
(dp1147
g48
Nsg44
VJ BIOL CHEM
p1148
sg46
V268
p1149
sg75
(lp1150
(VYANG
VW N
tp1151
asg54
I1993
sg42
V392
p1152
sbag1
(g2
g3
NtRp1153
(dp1154
g48
Nsg44
VBIOSCI BIOTECH BIOCH
p1155
sg46
V56
p1156
sg75
(lp1157
(VYOTSUSHIMA
VK
tp1158
asg54
I1992
sg42
V1247
p1159
sbag1
(g2
g3
NtRp1160
(dp1161
g48
Nsg44
VPLANT PHYSIOL
p1162
sg46
V102
p1163
sg75
(lp1164
(VYOTSUSHIMA
VK
tp1165
asg54
I1993
sg42
VLANT
p1166
sbag1
(g2
g3
NtRp1167
(dp1168
g48
V10.1083/jcb.123.4.869
p1169
sg44
VJ CELL BIOL
p1170
sg46
V123
p1171
sg75
(lp1172
(VYUEH
VY G
tp1173
asg54
I1993
sg42
V869
p1174
sbasb.