ccopy_reg
_reconstructor
p1
(ctethne.classes.paper
Paper
p2
c__builtin__
object
p3
NtRp4
(dp5
S'publisherCity'
p6
VROCKVILLE
p7
sS'reprintAddress'
p8
VScofield, SR (reprint author), USDA ARS, Crop Prod & Pest Control Unit, W Lafayette, IN 47907 USA.
p9
sS'WC'
p10
VPlant Sciences
p11
sS'GA'
p12
V391VE
p13
sS'pageEnd'
p14
I157
sS'publisherAddress'
p15
V15501 MONONA DRIVE, ROCKVILLE, MD 20855 USA
p16
sS'documentType'
p17
VEditorial Material
p18
sS'subject'
p19
VPlant Sciences
p20
sS'isoSource'
p21
VPlant Physiol.
p22
sS'timesCited'
p23
(lp24
I32
aVZ9 37
p25
asS'PT'
p26
VJ
sS'title'
p27
VResources For Virus-Induced Gene Silencing In The Grasses
p28
sS'ISSN'
p29
(lp30
V0032-0889
p31
aVJ9 PLANT PHYSIOL
p32
asS'authors_full'
p33
(lp34
(VSCOFIELD
VSTEVEN R
tp35
a(VNELSON
VRICHARD S
tp36
asS'PG'
p37
I6
sS'PD'
p38
VJAN
p39
sS'pageStart'
p40
I152
sS'issue'
p41
I1
sS'journal'
p42
VPLANT PHYSIOLOGY
p43
sS'volume'
p44
V149
p45
sS'doi'
p46
V10.1104/pp.108.128702
p47
sS'emailAddress'
p48
Vscofield@purdue.edu
p49
sS'authorAddress'
p50
(lp51
V[Scofield, Steven R.] USDA ARS, Crop Prod & Pest Control Unit, W Lafayette, IN 47907 USA.
p52
aV[Scofield, Steven R.] Purdue Univ, Dept Agron, W Lafayette, IN 47907 USA.
p53
aV[Nelson, Richard S.] Samuel Roberts Noble Fdn Inc, Ardmore, OK 73401 USA.
p54
asS'date'
p55
I2009
sS'ER'
p56
V
sS'publisher'
p57
VAMER SOC PLANT BIOLOGISTS
p58
sS'authorKeywords'
p59
(lp60
VSTRIPE-MOSAIC-VIRUS
p61
aVLENGTH CDNA-CLONE
p62
aVTOBACCO RATTLE VIRUS
p63
aVTRANSCRIBED IN-VITRO
p64
aVYELLOW MOTTLE VIRUS
p65
aVWHEAT DWARF VIRUS
p66
aVNUCLEOTIDE-SEQUENCE
p67
aVSTREAK-VIRUS
p68
aVDISEASE-RESISTANCE
p69
aVSYSTEMIC INFECTION
p70
asS'language'
p71
VEnglish
p72
sS'wosid'
p73
VWOS:000262261500022
p74
sS'citationCount'
p75
I58
sS'authors_init'
p76
(lp77
(VSCOFIELD
VS R
tp78
a(VNELSON
VR S
tp79
asS'citedReferences'
p80
(lp81
g1
(g2
g3
NtRp82
(dp83
g46
V10.1016/S1369-5266(99)80022-3
p84
sg42
VCURR OPIN PLANT BIOL
p85
sg44
V2
sg76
(lp86
(VBAULCOMBE
VD C
tp87
asg55
I1999
sg40
V109
p88
sbag1
(g2
g3
NtRp89
(dp90
g46
V10.1099/0022-1317-74-1-15
p91
sg42
VJ GEN VIROL
p92
sg44
V74
p93
sg76
(lp94
(VBOUHIDA
VM
tp95
asg55
I1993
sg40
V15
p96
sbag1
(g2
g3
NtRp97
(dp98
g46
V10.1099/0022-1317-73-5-1041
p99
sg42
VJ GEN VIROL
p100
sg44
V73
p101
sg76
(lp102
(VBRIDDON
VR W
tp103
asg55
I1992
sg40
V1041
p104
sbag1
(g2
g3
NtRp105
(dp106
g46
V10.1111/j.1365-313X.2004.02122.x
p107
sg42
VPLANT J
p108
sg44
V39
p109
sg76
(lp110
(VBRIGNETI
VG
tp111
asg55
I2004
sg40
VLANT
p112
sbag1
(g2
g3
NtRp113
(dp114
g46
V10.1016/S0042-6822(95)80025-5
p115
sg42
VVIROLOGY
p116
sg44
VIROLOGY
p117
sg76
(lp118
(VBRUGIDOU
VC
tp119
asg55
I1995
sg40
V108
p120
sbag1
(g2
g3
NtRp121
(dp122
g46
V10.1094/MPMI-20-11-1323
p123
sg42
VMOL PLANT MICROBE IN
p124
sg44
V20
p125
sg76
(lp126
(VBRUUN-RASMUSSEN
VM
tp127
asg55
I2007
sg40
V1323
p128
sbag1
(g2
g3
NtRp129
(dp130
g46
V10.1104/pp.084624
p131
sg42
VPLANT PHYSIOL
p132
sg44
V142
p133
sg76
(lp134
(VBURCH-SMITH
VT M
tp135
asg55
I2006
sg40
VLANT
p136
sbag1
(g2
g3
NtRp137
(dp138
g46
V10.1111/j.1365-313X.2004.02158.x
p139
sg42
VPLANT J
p140
sg44
V39
p141
sg76
(lp142
(VBURCH-SMITH
VT M
tp143
asg55
I2004
sg40
VLANT
p144
sbag1
(g2
g3
NtRp145
(dp146
g46
V10.1099/0022-1317-71-8-1857
p147
sg42
VJ GEN VIROL
p148
sg44
V71
p149
sg76
(lp150
(VBURGYAN
VJ
tp151
asg55
I1990
sg40
V1857
p152
sbag1
(g2
g3
NtRp153
(dp154
g46
V10.1556/CRC.36.2008.Suppl.B.18
p155
sg42
VCEREAL RES COMMUN
p156
sg44
V36
p157
sg76
(lp158
(VCAKIR
VC
tp159
asg55
I2008
sg40
V217
p160
sbag1
(g2
g3
NtRp161
(dp162
g46
V10.1007/BF01718163
p163
sg42
VARCH VIROL
p164
sg44
V141
p165
sg76
(lp166
(VCHEN
VJ
tp167
asg55
I1996
sg40
V885
p168
sbag1
(g2
g3
NtRp169
(dp170
g46
V10.1094/PHYTO.1999.89.12.1182
p171
sg42
VPHYTOPATHOLOGY
p172
sg44
V89
p173
sg76
(lp174
(VCHOI
VI R
tp175
asg55
I1999
sg40
VHYTOPATHOLOGY
p176
sbag1
(g2
g3
NtRp177
(dp178
g46
V10.1099/0022-1317-72-6-1215
p179
sg42
VJ GEN VIROL
p180
sg44
V72
p181
sg76
(lp182
(VDASGUPTA
VI
tp183
asg55
I1991
sg40
V1215
p184
sbag1
(g2
g3
NtRp185
(dp186
g46
V10.1094/MPMI-19-1229
p187
sg42
VMOL PLANT MICROBE IN
p188
sg44
V19
p189
sg76
(lp190
(VDING
VX S
tp191
asg55
I2006
sg40
V1229
p192
sbag1
(g2
g3
NtRp193
(dp194
g46
V10.1104/pp.107.107391
p195
sg42
VPLANT PHYSIOL
p196
sg44
V145
p197
sg76
(lp198
(VDONG
VY
tp199
asg55
I2007
sg40
VLANT
p200
sbag1
(g2
g3
NtRp201
(dp202
g46
V10.1104/pp.103.037507
p203
sg42
VPLANT PHYSIOL
p204
sg44
V134
p205
sg76
(lp206
(VFAIVRE-RAMPANT
VO
tp207
asg55
I2004
sg40
VLANT
p208
sbag1
(g2
g3
NtRp209
(dp210
g46
V10.1038/325177a0
p211
sg42
VNATURE
p212
sg44
V325
p213
sg76
(lp214
(VGRIMSLEY
VN
tp215
asg55
I1987
sg40
V177
p216
sbag1
(g2
g3
NtRp217
(dp218
g46
V10.1094/MPMI-21-12-1539
p219
sg42
VMOL PLANT MICROBE IN
p220
sg44
V21
p221
sg76
(lp222
(VHARRIES
VP A
tp223
asg55
I2008
sg40
V1539
p224
sbag1
(g2
g3
NtRp225
(dp226
g46
V10.1099/0022-1317-69-4-891
p227
sg42
VJ GEN VIROL
p228
sg44
V69
p229
sg76
(lp230
(VHAYES
VR J
tp231
asg55
I1988
sg40
V891
p232
sbag1
(g2
g3
NtRp233
(dp234
g46
V10.1104/pp.105.062810
p235
sg42
VPLANT PHYSIOL
p236
sg44
V138
p237
sg76
(lp238
(VHEIN
VI
tp239
asg55
I2005
sg40
VLANT
p240
sbag1
(g2
g3
NtRp241
(dp242
g46
V10.1046/j.1365-313X.2002.01291.x
p243
sg42
VPLANT J
p244
sg44
V30
p245
sg76
(lp246
(VHOLZBERG
VS
tp247
asg55
I2002
sg40
VLANT
p248
sbag1
(g2
g3
NtRp249
(dp250
g46
Nsg42
VMOL PLANT M IN PRESS
p251
sg44
Nsg76
(lp252
(VHU
VP
tp253
asg55
I2009
sg40
Nsbag1
(g2
g3
NtRp254
(dp255
g46
V10.1073/pnas.92.5.1679
p256
sg42
VP NATL ACAD SCI USA
p257
sg44
V92
p258
sg76
(lp259
(VKUMAGAI
VM H
tp260
asg55
I1995
sg40
V1679
p261
sbag1
(g2
g3
NtRp262
(dp263
g46
V10.1046/j.1365-313X.2003.01733.x
p264
sg42
VPLANT J
p265
sg44
V34
p266
sg76
(lp267
(VLACOMME
VC
tp268
asg55
I2003
sg40
VLANT
p269
sbag1
(g2
g3
NtRp270
(dp271
g46
V10.1046/j.1365-313X.2002.01394.x
p272
sg42
VPLANT J
p273
sg44
V31
p274
sg76
(lp275
(VLIU
VY L
tp276
asg55
I2002
sg40
VLANT
p277
sbag1
(g2
g3
NtRp278
(dp279
g46
V10.1046/j.1365-313X.2002.01297.x
p280
sg42
VPLANT J
p281
sg44
V30
p282
sg76
(lp283
(VLIU
VY L
tp284
asg55
I2002
sg40
VLANT
p285
sbag1
(g2
g3
NtRp286
(dp287
g46
V10.1104/pp.106.092742
p288
sg42
VPLANT PHYSIOL
p289
sg44
V143
p290
sg76
(lp291
(VLU
VH C
tp292
asg55
I2007
sg40
VLANT
p293
sbag1
(g2
g3
NtRp294
(dp295
g46
V10.1093/emboj/cdg546
p296
sg42
VEMBO J
p297
sg44
V22
p298
sg76
(lp299
(VLU
VR
tp300
asg55
I2003
sg40
V5690
p301
sbag1
(g2
g3
NtRp302
(dp303
g46
V10.1093/nar/18.18.5505
p304
sg42
VNUCLEIC ACIDS RES
p305
sg44
V18
p306
sg76
(lp307
(VMEDBERRY
VS L
tp308
asg55
I1990
sg40
V5505
p309
sbag1
(g2
g3
NtRp310
(dp311
g46
V10.1104/pp.108.129031
p312
sg42
VPLANT PHYSIOL
p313
sg44
V149
p314
sg76
(lp315
(VMENG
VY
tp316
asg55
I2009
sg40
VLANT
p317
sbag1
(g2
g3
NtRp318
(dp319
g46
Nsg42
VJ GEN VIROL
p320
sg44
V78
p321
sg76
(lp322
(VMEYER
VM
tp323
asg55
I1997
sg40
V3147
p324
sbag1
(g2
g3
NtRp325
(dp326
g46
V10.1094/PD-89-0224
p327
sg42
VPLANT DIS
p328
sg44
V89
p329
sg76
(lp330
(VMIAN
VM A R
tp331
asg55
I2005
sg40
VLANT
p332
sbag1
(g2
g3
NtRp333
(dp334
g46
Nsg42
VPlant Pathology Journal
p335
sg44
V17
p336
sg76
(lp337
(VMOON
VJ S
tp338
asg55
I2001
sg40
Vlant
p339
sbag1
(g2
g3
NtRp340
(dp341
g46
V10.1093/jxb/erm109
p342
sg42
VJ EXP BOT
p343
sg44
V58
p344
sg76
(lp345
(VOIKAWA
VA
tp346
asg55
I2007
sg40
V2617
p347
sbag1
(g2
g3
NtRp348
(dp349
g46
V10.1104/pp.107.108217
p350
sg42
VPLANT PHYSIOL
p351
sg44
V145
p352
sg76
(lp353
(VPERETZ
VY
tp354
asg55
I2007
sg40
VLANT
p355
sbag1
(g2
g3
NtRp356
(dp357
g46
V10.1016/0042-6822(89)90601-6
p358
sg42
VVIROLOGY
p359
sg44
VIROLOGY
p360
sg76
(lp361
(VPETTY
VI T D
tp362
asg55
I1989
sg40
V342
p363
sbag1
(g2
g3
NtRp364
(dp365
g46
V10.1111/j.1365-313X.2008.03620.x
p366
sg42
VPLANT J
p367
sg44
V56
p368
sg76
(lp369
(VPFLIEGER
VS
tp370
asg55
I2008
sg40
VLANT
p371
sbag1
(g2
g3
NtRp372
(dp373
g46
V10.1146/annurev.phyto.40.021102.150133
p374
sg42
VANNU REV PHYTOPATHOL
p375
sg44
V40
p376
sg76
(lp377
(VPOGUE
VG P
tp378
asg55
I2002
sg40
V45
p379
sbag1
(g2
g3
NtRp380
(dp381
g46
V10.1046/j.0960-7412.2000.00942.x
p382
sg42
VPLANT J
p383
sg44
V25
p384
sg76
(lp385
(VRATCLIFF
VF
tp386
asg55
I2001
sg40
VLANT
p387
sbag1
(g2
g3
NtRp388
(dp389
g46
V10.1126/science.276.5318.1558
p390
sg42
VSCIENCE
p391
sg44
V276
p392
sg76
(lp393
(VRATCLIFF
VF
tp394
asg55
I1997
sg40
V1558
p395
sbag1
(g2
g3
NtRp396
(dp397
g46
V10.1146/annurev.arplant.55.031903.141803
p398
sg42
VANNU REV PLANT BIOL
p399
sg44
V55
p400
sg76
(lp401
(VROBERTSON
VD
tp402
asg55
I2004
sg40
V495
p403
sbag1
(g2
g3
NtRp404
(dp405
g46
V10.1007/s007050070084
p406
sg42
VARCH VIROL
p407
sg44
V145
p408
sg76
(lp409
(VROBERTSON
VN L
tp410
asg55
I2000
sg40
V1685
p411
sbag1
(g2
g3
NtRp412
(dp413
g46
V10.1006/viro.1993.1216
p414
sg42
VVIROLOGY
p415
sg44
VIROLOGY
p416
sg76
(lp417
(VSCHEETS
VK
tp418
asg55
I1993
sg40
V1006
p419
sbag1
(g2
g3
NtRp420
(dp421
g46
V10.1016/j.virol.2006.02.004
p422
sg42
VVIROLOGY
p423
sg44
VIROLOGY
p424
sg76
(lp425
(VSCHEETS
VK
tp426
asg55
I2006
sg40
V171
p427
sbag1
(g2
g3
NtRp428
(dp429
g46
V10.1104/pp.105.061861
p430
sg42
VPLANT PHYSIOL
p431
sg44
V138
p432
sg76
(lp433
(VSCOFIELD
VS R
tp434
asg55
I2005
sg40
VLANT
p435
sbag1
(g2
g3
NtRp436
(dp437
g46
V10.1073/pnas.0711406105
p438
sg42
VP NATL ACAD SCI USA
p439
sg44
V105
p440
sg76
(lp441
(VSINDHU
VA
tp442
asg55
I2008
sg40
V1762
p443
sbag1
(g2
g3
NtRp444
(dp445
g46
V10.1007/s00705-007-1065-3
p446
sg42
VARCH VIROL
p447
sg44
V153
p448
sg76
(lp449
(VSTEPHAN
VD
tp450
asg55
I2008
sg40
V181
p451
sbag1
(g2
g3
NtRp452
(dp453
g46
V10.2144/05393BM03
p454
sg42
VBIOTECHNIQUES
p455
sg44
V39
p456
sg76
(lp457
(VTAI
VY S
tp458
asg55
I2005
sg40
V310
p459
sbag1
(g2
g3
NtRp460
(dp461
g46
V10.1111/j.1365-313X.2006.02796.x
p462
sg42
VPLANT J
p463
sg44
V47
p464
sg76
(lp465
(VTOURNIER
VB
tp466
asg55
I2006
sg40
VLANT
p467
sbag1
(g2
g3
NtRp468
(dp469
g46
V10.1006/viro.1997.8939
p470
sg42
VVIROLOGY
p471
sg44
VIROLOGY
p472
sg76
(lp473
(VTURINA
VM
tp474
asg55
I1998
sg40
V141
p475
sbag1
(g2
g3
NtRp476
(dp477
g46
V10.1038/nrg1555
p478
sg42
VNAT REV GENET
p479
sg44
V6
sg76
(lp480
(VVOINNET
VO
tp481
asg55
I2005
sg40
V206
p482
sbag1
(g2
g3
NtRp483
(dp484
g46
V10.1094/MPMI-9-0062
p485
sg42
VMOL PLANT MICROBE IN
p486
sg44
V9
sg76
(lp487
(VWEILAND
VJ J
tp488
asg55
I1996
sg40
V62
p489
sbag1
(g2
g3
NtRp490
(dp491
g46
V10.1007/BF00016012
p492
sg42
VPLANT MOL BIOL
p493
sg44
V11
p494
sg76
(lp495
(VWOOLSTON
VC J
tp496
asg55
I1988
sg40
VLANT
p497
sbag1
(g2
g3
NtRp498
(dp499
g46
V10.1104/pp.106.083295
p500
sg42
VPLANT PHYSIOL
p501
sg44
V142
p502
sg76
(lp503
(VXU
VP
tp504
asg55
I2006
sg40
VLANT
p505
sbag1
(g2
g3
NtRp506
(dp507
g46
V10.1006/viro.2000.0587
p508
sg42
VVIROLOGY
p509
sg44
VIROLOGY
p510
sg76
(lp511
(VYAMAMIYA
VA
tp512
asg55
I2000
sg40
V66
p513
sbag1
(g2
g3
NtRp514
(dp515
g46
V10.1016/0042-6822(91)90042-A
p516
sg42
VVIROLOGY
p517
sg44
VIROLOGY
p518
sg76
(lp519
(VYOUNG
VM J
tp520
asg55
I1991
sg40
V372
p521
sbag1
(g2
g3
NtRp522
(dp523
g46
V10.1007/s007050050276
p524
sg42
VARCH VIROL
p525
sg44
V143
p526
sg76
(lp527
(VYU
VH H
tp528
asg55
I1998
sg40
V163
p529
sbag1
(g2
g3
NtRp530
(dp531
g46
V10.1111/j.1365-313X.2007.03246.x
p532
sg42
VPLANT J
p533
sg44
V52
p534
sg76
(lp535
(VZHOU
VH B
tp536
asg55
I2007
sg40
VLANT
p537
sbasb.