ccopy_reg
_reconstructor
p1
(ctethne.classes.paper
Paper
p2
c__builtin__
object
p3
NtRp4
(dp5
S'publisherCity'
p6
VROCKVILLE
p7
sS'reprintAddress'
p8
VShulaev, V (reprint author), Virginia Polytech Inst & State Univ, Virginia Bioinformat Inst, Blacksburg, VA 24061 USA.
p9
sS'WC'
p10
VPlant Sciences
p11
sS'GA'
p12
V323NU
p13
sS'abstract'
p14
VThe plant family Rosaceae consists of over 100 genera and 3,000 species that include many important fruit, nut, ornamental, and wood crops. Members of this family provide high-value nutritional foods and contribute desirable aesthetic and industrial products. Most rosaceous crops have been enhanced by human intervention through sexual hybridization, asexual propagation, and genetic improvement since ancient times, 4,000 to 5,000 B. C. Modern breeding programs have contributed to the selection and release of numerous cultivars having significant economic impact on the U. S. and world markets. In recent years, the Rosaceae community, both in the United States and internationally, has benefited from newfound organization and collaboration that have hastened progress in developing genetic and genomic resources for representative crops such as apple (Malus spp.), peach (Prunus spp.), and strawberry (Fragaria spp.). These resources, including expressed sequence tags, bacterial artificial chromosome libraries, physical and genetic maps, and molecular markers, combined with genetic transformation protocols and bioinformatics tools, have rendered various rosaceous crops highly amenable to comparative and functional genomics studies. This report serves as a synopsis of the resources and initiatives of the Rosaceae community, recent developments in Rosaceae genomics, and plans to apply newly accumulated knowledge and resources toward breeding and crop improvement.
p15
sS'pageEnd'
p16
I1003
sS'date'
p17
I2008
sS'documentType'
p18
VReview
p19
sS'subject'
p20
VPlant Sciences
p21
sS'isoSource'
p22
VPlant Physiol.
p23
sS'timesCited'
p24
(lp25
I86
aVZ9 95
p26
asS'PT'
p27
VJ
sS'title'
p28
VMultiple Models For Rosaceae Genomics
p29
sS'ISSN'
p30
(lp31
V0032-0889
p32
aVJ9 PLANT PHYSIOL
p33
asS'authors_full'
p34
(lp35
(VSHULAEV
VVLADIMIR
tp36
a(VKORBAN
VSCHUYLER S
tp37
a(VSOSINSKI
VBRYON
tp38
a(VABBOTT
VALBERT G
tp39
a(VALDWINCKLE
VHERB S
tp40
a(VFOLTA
VKEVIN M
tp41
a(VIEZZONI
VAMY
tp42
a(VMAIN
VDORRIE
tp43
a(VARUS
VPERE
tp44
a(VDANDEKAR
VABHAYA M
tp45
a(VLEWERS
VKIM
tp46
a(VBROWN
VSUSAN K
tp47
a(VDAVIS
VTHOMAS M
tp48
a(VGARDINER
VSUSAN E
tp49
a(VPOTTER
VDANIEL
tp50
a(VVEILLEUX
VRICHARD E
tp51
asS'PG'
p52
I19
sS'PD'
p53
VJUL
p54
sS'pageStart'
p55
I985
sS'issue'
p56
I3
sS'RI'
p57
VGardiner, Susan/A-2477-2010
p58
sS'journal'
p59
VPLANT PHYSIOLOGY
p60
sS'volume'
p61
V147
p62
sS'doi'
p63
V10.1104/pp.107.115618
p64
sS'emailAddress'
p65
Vvshulaev@vbi.vt.edu
p66
sS'authorAddress'
p67
(lp68
V[Shulaev, Vladimir; Veilleux, Richard E.] Virginia Polytech Inst & State Univ, Virginia Bioinformat Inst, Blacksburg, VA 24061 USA.
p69
aV[Shulaev, Vladimir; Veilleux, Richard E.] Virginia Polytech Inst & State Univ, Dept Hort, Blacksburg, VA 24061 USA.
p70
aV[Korban, Schuyler S.] Univ Illinois, Dept Nat Resources & Environm Sci, Urbana, IL 61801 USA.
p71
aV[Sosinski, Bryon] N Carolina State Univ, Dept Hort Sci, Raleigh, NC 27695 USA.
p72
aV[Abbott, Albert G.] Clemson Univ, Dept Biochem & Genet, Clemson, SC 29634 USA.
p73
aV[Brown, Susan K.] Cornell Univ, New York State Agr Expt Stn, Dept Hort Sci, Geneva, NY 14456 USA.
p74
aV[Aldwinckle, Herb S.] Cornell Univ, Dept Plant Pathol, Geneva, NY 14456 USA.
p75
aV[Folta, Kevin M.] Dept Hort Sci, Gainesville, FL 32611 USA.
p76
aV[Folta, Kevin M.] Plant Mol & Cellular Biol Program, Gainesville, FL 32611 USA.
p77
aV[Iezzoni, Amy] Michigan State Univ, Dept Hort, E Lansing, MI 48824 USA.
p78
aV[Main, Dorrie] Washington State Univ, Dept Hort & Landscape Architecture, Pullman, WA 99164 USA.
p79
aV[Arus, Pere] UAB, IRTA, CSIC, Ctr Rec Agrigenom, Barcelona 08348, Spain.
p80
aV[Dandekar, Abhaya M.; Potter, Daniel] Univ Calif Davis, Dept Plant Sci, Davis, CA 95616 USA.
p81
aV[Lewers, Kim] USDA ARS, Beltsville Agr Res Ctr, Genet Improvement Fruits & Vegetables Lab, BARC W, Beltsville, MD 20705 USA.
p82
aV[Davis, Thomas M.] Univ New Hampshire, Dept Plant Biol, Durham, NH 03824 USA.
p83
aV[Gardiner, Susan E.] HortRes, Palmerston North 4442, New Zealand.
p84
asS'publisherAddress'
p85
V15501 MONONA DRIVE, ROCKVILLE, MD 20855 USA
p86
sS'ER'
p87
V
sS'publisher'
p88
VAMER SOC PLANT BIOLOGISTS
p89
sS'authorKeywords'
p90
(lp91
VGENETIC-LINKAGE MAP
p92
aVEXPRESSED SEQUENCE TAGS
p93
aVFRAGARIA-X-ANANASSA
p94
aVPERSICA L. BATSCH
p95
aVPRUNUS-ARMENIACA L.
p96
aVAGROBACTERIUM-MEDIATED TRANSFORMATION
p97
aVMYB TRANSCRIPTION FACTOR
p98
aVCHROMOSOME BAC LIBRARY
p99
aVAPPLE SCAB RESISTANCE
p100
aVNUCLEAR-DNA CONTENT
p101
asS'language'
p102
VEnglish
p103
sS'wosid'
p104
VWOS:000257454000008
p105
sS'citationCount'
p106
I180
sS'authors_init'
p107
(lp108
(VSHULAEV
VV
tp109
a(VKORBAN
VS S
tp110
a(VSOSINSKI
VB
tp111
a(VABBOTT
VA G
tp112
a(VALDWINCKLE
VH S
tp113
a(VFOLTA
VK M
tp114
a(VIEZZONI
VA
tp115
a(VMAIN
VD
tp116
a(VARUS
VP
tp117
a(VDANDEKAR
VA M
tp118
a(VLEWERS
VK
tp119
a(VBROWN
VS K
tp120
a(VDAVIS
VT M
tp121
a(VGARDINER
VS E
tp122
a(VPOTTER
VD
tp123
a(VVEILLEUX
VR E
tp124
asS'citedReferences'
p125
(lp126
g1
(g2
g3
NtRp127
(dp128
g63
V10.1186/1471-2164-7-81
p129
sg59
VBMC GENOMICS
p130
sg61
V7
sg107
(lp131
(VJUNG
VS
tp132
asg17
I2006
sg55
Nsbag1
(g2
g3
NtRp133
(dp134
g63
V10.1093/jxb/erf026
p135
sg59
VJ EXP BOT
p136
sg61
V53
p137
sg107
(lp138
(VAHARONI
VA
tp139
asg17
I2002
sg55
V2073
p140
sbag1
(g2
g3
NtRp141
(dp142
g63
V10.1105/tpc.104.023895
p143
sg59
VPLANT CELL
p144
sg61
V16
p145
sg107
(lp146
(VAHARONI
VA
tp147
asg17
I2004
sg55
VLANT
p148
sbag1
(g2
g3
NtRp149
(dp150
g63
V10.1104/pp.003558
p151
sg59
VPLANT PHYSIOL
p152
sg61
V129
p153
sg107
(lp154
(VAHARONI
VA
tp155
asg17
I2002
sg55
VLANT
p156
sbag1
(g2
g3
NtRp157
(dp158
g63
V10.1105/tpc.12.5.647
p159
sg59
VPLANT CELL
p160
sg61
V12
p161
sg107
(lp162
(VAHARONI
VA
tp163
asg17
I2000
sg55
VLANT
p164
sbag1
(g2
g3
NtRp165
(dp166
g63
Nsg59
VCytologia 
p167
sg61
V66
p168
sg107
(lp169
(VAKIYAMA
VYUKIO
tp170
asg17
I2001
sg55
V431
p171
sbag1
(g2
g3
NtRp172
(dp173
g63
V10.1007/s00122-004-1654-4
p174
sg59
VTHEOR APPL GENET
p175
sg61
V109
p176
sg107
(lp177
(VALBANI
VM C
tp178
asg17
I2004
sg55
V571
p179
sbag1
(g2
g3
NtRp180
(dp181
g63
V10.1007/s00299-002-0453-0
p182
sg59
VPLANT CELL REP
p183
sg61
V20
p184
sg107
(lp185
(VALSHEIKH
VM K
tp186
asg17
I2002
sg55
VLANT
p187
sbag1
(g2
g3
NtRp188
(dp189
g63
V10.1006/jmbi.1990.9999
p190
sg59
VJ MOL BIOL
p191
sg61
V215
p192
sg107
(lp193
(VALTSCHUL
VS F
tp194
asg17
I1990
sg55
V403
p195
sbag1
(g2
g3
NtRp196
(dp197
g63
V10.1007/s00122-002-1094-y
p198
sg59
VTHEOR APPL GENET
p199
sg61
V106
p200
sg107
(lp201
(VARANZANA
VM J
tp202
asg17
I2003
sg55
V819
p203
sbag1
(g2
g3
NtRp204
(dp205
g63
Nsg59
VP INT C WAK DOUBL HE
p206
sg61
Nsg107
(lp207
(VARUS
VP
tp208
asg17
I2003
sg55
V309
p209
sbag1
(g2
g3
NtRp210
(dp211
g63
Nsg59
VJ AM SOC HORTIC SCI
p212
sg61
V119
p213
sg107
(lp214
(VBAIRD
VW V
tp215
asg17
I1994
sg55
V1312
p216
sbag1
(g2
g3
NtRp217
(dp218
g63
V10.1007/s00122-004-1624-x
p219
sg59
VTHEOR APPL GENET
p220
sg61
V109
p221
sg107
(lp222
(VBALDI
VP
tp223
asg17
I2004
sg55
V231
p224
sbag1
(g2
g3
NtRp225
(dp226
g63
V10.1093/pcp/pcm066
p227
sg59
VPLANT CELL PHYSIOL
p228
sg61
V48
p229
sg107
(lp230
(VBAN
VY
tp231
asg17
I2007
sg55
VLANT
p232
sbag1
(g2
g3
NtRp233
(dp234
g63
Nsg59
VPLANT BIOL DATABASES
p235
sg61
Nsg107
(lp236
(VBEAVIS
VW
tp237
asg17
I2005
sg55
VLANT
p238
sbag1
(g2
g3
NtRp239
(dp240
g63
Nsg59
VJ HORTIC SCI BIOTECH
p241
sg61
V81
p242
sg107
(lp243
(VBLENDA
VA V
tp244
asg17
I2006
sg55
V281
p245
sbag1
(g2
g3
NtRp246
(dp247
g63
V10.1139/G02-011
p248
sg59
VGENOME
p249
sg61
V45
p250
sg107
(lp251
(VBLISS
VF A
tp252
asg17
I2002
sg55
V520
p253
sbag1
(g2
g3
NtRp254
(dp255
g63
V10.1094/PHYTO.2000.90.1.72
p256
sg59
VPHYTOPATHOLOGY
p257
sg61
V90
p258
sg107
(lp259
(VBOLAR
VJ P
tp260
asg17
I2000
sg55
VHYTOPATHOLOGY
p261
sbag1
(g2
g3
NtRp262
(dp263
g63
V10.1023/A:1013036732691
p264
sg59
VTRANSGENIC RES
p265
sg61
V10
p266
sg107
(lp267
(VBOLAR
VJ P
tp268
asg17
I2001
sg55
V533
p269
sbag1
(g2
g3
NtRp270
(dp271
g63
Nsg59
VHORTSCIENCE
p272
sg61
V25
p273
sg107
(lp274
(VBRINGHURST
VR S
tp275
asg17
I1990
sg55
V879
p276
sbag1
(g2
g3
NtRp277
(dp278
g63
Nsg59
VACTA HORTIC
p279
sg61
V538
p280
sg107
(lp281
(VBUS
VV
tp282
asg17
I2000
sg55
V541
p283
sbag1
(g2
g3
NtRp284
(dp285
g63
Nsg59
VJ HERED
p286
sg61
V81
p287
sg107
(lp288
(VBYRNE
VD H
tp289
asg17
I1990
sg55
V68
p290
sbag1
(g2
g3
NtRp291
(dp292
g63
V10.1007/s00122-004-1891-6
p293
sg59
VTHEOR APPL GENET
p294
sg61
V110
p295
sg107
(lp296
(VCALENGE
VF
tp297
asg17
I2005
sg55
V660
p298
sbag1
(g2
g3
NtRp299
(dp300
g63
Nsg59
VFOOD TECHNOL
p301
sg61
V46
p302
sg107
(lp303
(VCARAGAY
VA B
tp304
asg17
I1992
sg55
V65
p305
sbag1
(g2
g3
NtRp306
(dp307
g63
V10.1186/1471-2164-8-212
p308
sg59
VBMC GENOMICS
p309
sg61
V8
sg107
(lp310
(VCHAGNE
VD
tp311
asg17
I2007
sg55
Nsbag1
(g2
g3
NtRp312
(dp313
g63
Nsg59
VTHEOR APPL GENET
p314
sg61
V87
p315
sg107
(lp316
(VCHAPARRO
VJ X
tp317
asg17
I1994
sg55
V805
p318
sbag1
(g2
g3
NtRp319
(dp320
g63
Nsg59
VJ HORTIC SCI BIOTECH
p321
sg61
V81
p322
sg107
(lp323
(VCIPRIANI
VG
tp324
asg17
I2006
sg55
V668
p325
sbag1
(g2
g3
NtRp326
(dp327
g63
V10.1007/s00122-004-1749-y
p328
sg59
VTHEOR APPL GENET
p329
sg61
V109
p330
sg107
(lp331
(VCLAVERIE
VM
tp332
asg17
I2004
sg55
V1318
p333
sbag1
(g2
g3
NtRp334
(dp335
g63
V10.1021/jf011421i
p336
sg59
VJ AGR FOOD CHEM
p337
sg61
V50
p338
sg107
(lp339
(VCORDENUNSI
VB R
tp340
asg17
I2002
sg55
V2581
p341
sbag1
(g2
g3
NtRp342
(dp343
g63
V10.1111/j.1744-7348.2004.tb00336.x
p344
sg59
VANN APPL BIOL
p345
sg61
V144
p346
sg107
(lp347
(VCORREDOR
VE
tp348
asg17
I2004
sg55
V219
p349
sbag1
(g2
g3
NtRp350
(dp351
g63
V10.1007/s00122-001-0841-9
p352
sg59
VTHEOR APPL GENET
p353
sg61
V105
p354
sg107
(lp355
(VETIENNE
VC
tp356
asg17
I2002
sg55
V145
p357
sbag1
(g2
g3
NtRp358
(dp359
g63
Nsg59
VSTRAWBERRY HIST BREE
p360
sg61
Nsg107
(lp361
(VDARROW
VG M
tp362
asg17
I1966
sg55
Nsbag1
(g2
g3
NtRp363
(dp364
g63
Nsg59
VJ HERED
p365
sg61
V88
p366
sg107
(lp367
(VDAVIS
VT M
tp368
asg17
I1997
sg55
V215
p369
sbag1
(g2
g3
NtRp370
(dp371
g63
Nsg59
VGENOME MAPPING MOL B
p372
sg61
V4
sg107
(lp373
(VDAVIS
VT M
tp374
asg17
I2007
sg55
V189
p375
sbag1
(g2
g3
NtRp376
(dp377
g63
Nsg59
VP 6 N AM ST IN PRESS
p378
sg61
Nsg107
(lp379
(VDAVIS
VT M
tp380
asg17
I2008
sg55
Nsbag1
(g2
g3
NtRp381
(dp382
g63
V10.1007/s001220051310
p383
sg59
VTHEOR APPL GENET
p384
sg61
V99
p385
sg107
(lp386
(VDEBENER
VT
tp387
asg17
I1999
sg55
V891
p388
sbag1
(g2
g3
NtRp389
(dp390
g63
Nsg59
VACTA HORTIC
p391
sg61
V547
p392
sg107
(lp393
(VDEBENER
VT
tp394
asg17
I2001
sg55
V283
p395
sbag1
(g2
g3
NtRp396
(dp397
g63
V10.1021/jf049504x
p398
sg59
VJ AGR FOOD CHEM
p399
sg61
V52
p400
sg107
(lp401
(VDEFILIPPI
VB G
tp402
asg17
I2004
sg55
V5694
p403
sbag1
(g2
g3
NtRp404
(dp405
g63
V10.1016/j.plantsci.2004.12.018
p406
sg59
VPLANT SCI
p407
sg61
V168
p408
sg107
(lp409
(VDEFILIPPI
VB G
tp410
asg17
I2005
sg55
VLANT
p411
sbag1
(g2
g3
NtRp412
(dp413
g63
V10.1139/gen-44-5-783
p414
sg59
VGENOME
p415
sg61
V44
p416
sg107
(lp417
(VDETTORI
VM T
tp418
asg17
I2001
sg55
V783
p419
sbag1
(g2
g3
NtRp420
(dp421
g63
VDOI 10.1007/S11295-006-0053-1
p422
sg59
VTREE GENET GENOMES
p423
sg61
V3
sg107
(lp424
(VDIRLEWANGER
VE
tp425
asg17
I2006
sg55
V1
sbag1
(g2
g3
NtRp426
(dp427
g63
V10.1007/s00122-004-1694-9
p428
sg59
VTHEOR APPL GENET
p429
sg61
V109
p430
sg107
(lp431
(VDIRLEWANGER
VE
tp432
asg17
I2004
sg55
V827
p433
sbag1
(g2
g3
NtRp434
(dp435
g63
V10.1073/pnas.0307937101
p436
sg59
VP NATL ACAD SCI USA
p437
sg61
V101
p438
sg107
(lp439
(VDIRLEWANGER
VE
tp440
asg17
I2004
sg55
V9891
p441
sbag1
(g2
g3
NtRp442
(dp443
g63
V10.1007/s00122-002-0867-7
p444
sg59
VTHEOR APPL GENET
p445
sg61
V105
p446
sg107
(lp447
(VDIRLEWANGER
VE
tp448
asg17
I2002
sg55
V127
p449
sbag1
(g2
g3
NtRp450
(dp451
g63
V10.1046/j.1467-7652.2003.00009.x
p452
sg59
VPLANT BIOTECHNOL J
p453
sg61
V1
sg107
(lp454
(VDOMINGUEZ
VI
tp455
asg17
I2003
sg55
VLANT
p456
sbag1
(g2
g3
NtRp457
(dp458
g63
V10.1007/s11295-006-0059-8
p459
sg59
VTREE GENET GENOMES
p460
sg61
V3
sg107
(lp461
(VDONDINI
VL
tp462
asg17
I2007
sg55
V239
p463
sbag1
(g2
g3
NtRp464
(dp465
g63
V10.1007/s11032-004-0505-y
p466
sg59
VMOL BREEDING
p467
sg61
V14
p468
sg107
(lp469
(VDONDINI
VL
tp470
asg17
I2004
sg55
V407
p471
sbag1
(g2
g3
NtRp472
(dp473
g63
V10.1024/0300-9831.71.1.5
p474
sg59
VINT J VITAM NUTR RES
p475
sg61
V71
p476
sg107
(lp477
(VEICHHOLZER
VM
tp478
asg17
I2001
sg55
V5
sbag1
(g2
g3
NtRp479
(dp480
g63
Nsg59
VPLANT CELL REP
p481
sg61
V15
p482
sg107
(lp483
(VELMANSOURI
VI
tp484
asg17
I1996
sg55
VLANT
p485
sbag1
(g2
g3
NtRp486
(dp487
g63
V10.1046/j.1364-3703.2003.00148.x
p488
sg59
VMOL PLANT PATHOL
p489
sg61
V4
sg107
(lp490
(VESCOBAR
VM A
tp491
asg17
I2003
sg55
V57
p492
sbag1
(g2
g3
NtRp493
(dp494
g63
V10.1111/j.1365-313X.2006.02964.x
p495
sg59
VPLANT J
p496
sg61
V49
p497
sg107
(lp498
(VESPLEY
VR V
tp499
asg17
I2007
sg55
VLANT
p500
sbag1
(g2
g3
NtRp501
(dp502
g63
V10.1080/7352680600824831
p503
sg59
VCRIT REV PLANT SCI
p504
sg61
V25
p505
sg107
(lp506
(VFOLTA
VK M
tp507
asg17
I2006
sg55
V399
p508
sbag1
(g2
g3
NtRp509
(dp510
g63
V10.1079/IVP2006807
p511
sg59
VIN VITRO CELL DEV
p512
sg61
V42
p513
sg107
(lp514
(VFOLTA
VK M
tp515
asg17
I2006
sg55
V482
p516
sbag1
(g2
g3
NtRp517
(dp518
g63
Nsg59
VTHEOR APPL GENET
p519
sg61
V91
p520
sg107
(lp521
(VFOOLAD
VM R
tp522
asg17
I1995
sg55
V262
p523
sbag1
(g2
g3
NtRp524
(dp525
g63
V10.1007/s00122-003-1238-8
p526
sg59
VTHEOR APPL GENET
p527
sg61
V107
p528
sg107
(lp529
(VFOULONGNE
VM
tp530
asg17
I2003
sg55
V227
p531
sbag1
(g2
g3
NtRp532
(dp533
g63
Nsg59
VFruits and nuts
p534
sg61
Nsg107
(lp535
(VGARDINER
VS E
tp536
asg17
I2007
sg55
V1
sbag1
(g2
g3
NtRp537
(dp538
g63
V10.1007/s00122-002-0967-4
p539
sg59
VTHEOR APPL GENET
p540
sg61
V105
p541
sg107
(lp542
(VGEORGI
VL L
tp543
asg17
I2002
sg55
V1151
p544
sbag1
(g2
g3
NtRp545
(dp546
g63
V10.1139/G03-004
p547
sg59
VGENOME
p548
sg61
V46
p549
sg107
(lp550
(VGEORGI
VL L
tp551
asg17
I2003
sg55
V268
p552
sbag1
(g2
g3
NtRp553
(dp554
g63
V10.1007/s11295-007-0113-1
p555
sg59
VTREE GENET GENOMES
p556
sg61
V4
sg107
(lp557
(VGLEAVE
VA P
tp558
asg17
I2008
sg55
V343
p559
sbag1
(g2
g3
NtRp560
(dp561
g63
V10.1093/nar/gki128
p562
sg59
VNUCLEIC ACIDS RES
p563
sg61
V33
p564
sg107
(lp565
(VGONZALES
VM D
tp566
asg17
I2005
sg55
VD660
p567
sbag1
(g2
g3
NtRp568
(dp569
g63
V10.1007/s00122-004-1687-8
p570
sg59
VTHEOR APPL GENET
p571
sg61
V109
p572
sg107
(lp573
(VGRAHAM
VJ
tp574
asg17
I2004
sg55
V740
p575
sbag1
(g2
g3
NtRp576
(dp577
g63
V10.1105/tpc.005207
p578
sg59
VPLANT CELL
p579
sg61
V14
p580
sg107
(lp581
(VGUTERMAN
VI
tp582
asg17
I2002
sg55
VLANT
p583
sbag1
(g2
g3
NtRp584
(dp585
g63
Nsg59
VHORTSCIENCE
p586
sg61
V41
p587
sg107
(lp588
(VHABU
VT
tp589
asg17
I2006
sg55
V1156
p590
sbag1
(g2
g3
NtRp591
(dp592
g63
Nsg59
VACTA HORTIC
p593
sg61
V439
p594
sg107
(lp595
(VHAFFNER
VK
tp596
asg17
I1997
sg55
V325
p597
sbag1
(g2
g3
NtRp598
(dp599
g63
V10.1016/S0963-9969(00)00086-7
p600
sg59
VFOOD RES INT
p601
sg61
V33
p602
sg107
(lp603
(VHAKKINEN
VS H
tp604
asg17
I2000
sg55
V517
p605
sbag1
(g2
g3
NtRp606
(dp607
g63
V10.1002/(SICI)1097-0010(199808)77:4<543::AID-JSFA78>3.0.CO;2-I
p608
sg59
VJ SCI FOOD AGR
p609
sg61
V77
p610
sg107
(lp611
(VHAKKINEN
VS H
tp612
asg17
I1998
sg55
V543
p613
sbag1
(g2
g3
NtRp614
(dp615
g63
V10.1016/j.ygeno.2006.12.010
p616
sg59
VGENOMICS
p617
sg61
V89
p618
sg107
(lp619
(VHAN
VY
tp620
asg17
I2007
sg55
V630
p621
sbag1
(g2
g3
NtRp622
(dp623
g63
V10.1207/S15327914NC402_8
p624
sg59
VNUTR CANCER
p625
sg61
V40
p626
sg107
(lp627
(VHARRIS
VG K
tp628
asg17
I2001
sg55
V125
p629
sbag1
(g2
g3
NtRp630
(dp631
g63
Nsg59
VPLANT CELL REP
p632
sg61
V17
p633
sg107
(lp634
(VHAYMES
VK M
tp635
asg17
I1998
sg55
VLANT
p636
sbag1
(g2
g3
NtRp637
(dp638
g63
Nsg59
VJ AM SOC HORTIC SCI
p639
sg61
V125
p640
sg107
(lp641
(VHAYMES
VK M
tp642
asg17
I2000
sg55
V330
p643
sbag1
(g2
g3
NtRp644
(dp645
g63
Nsg59
VJ HERED
p646
sg61
V85
p647
sg107
(lp648
(VHEMMAT
VM
tp649
asg17
I1994
sg55
V4
sbag1
(g2
g3
NtRp650
(dp651
g63
Nsg59
VJ AM SOC HORTIC SCI
p652
sg61
V128
p653
sg107
(lp654
(VHEMMAT
VM
tp655
asg17
I2003
sg55
V515
p656
sbag1
(g2
g3
NtRp657
(dp658
g63
Nsg59
VHORTSCIENCE
p659
sg61
V36
p660
sg107
(lp661
(VHOKANSON
VS C
tp662
asg17
I2001
sg55
V859
p663
sbag1
(g2
g3
NtRp664
(dp665
g63
V10.1007/s00122-005-1968-x
p666
sg59
VTHEOR APPL GENET
p667
sg61
V110
p668
sg107
(lp669
(VHORN
VR
tp670
asg17
I2005
sg55
V1419
p671
sbag1
(g2
g3
NtRp672
(dp673
g63
V10.1534/genetics.105.043661
p674
sg59
VGENETICS
p675
sg61
V171
p676
sg107
(lp677
(VHOWAD
VW
tp678
asg17
I2005
sg55
V1305
p679
sbag1
(g2
g3
NtRp680
(dp681
g63
V10.1101/gr.9.9.868
p682
sg59
VGENOME RES
p683
sg61
V9
sg107
(lp684
(VHUANG
VX Q
tp685
asg17
I1999
sg55
V868
p686
sbag1
(g2
g3
NtRp687
(dp688
g63
V10.1007/s00122-003-1435-5
p689
sg59
VTHEOR APPL GENET
p690
sg61
V108
p691
sg107
(lp692
(VHUARACHA
VE
tp693
asg17
I2004
sg55
V274
p694
sbag1
(g2
g3
NtRp695
(dp696
g63
V10.1007/s00122-002-0936-y
p697
sg59
VTHEOR APPL GENET
p698
sg61
V105
p699
sg107
(lp700
(VHURTADO
VM A
tp701
asg17
I2002
sg55
V182
p702
sbag1
(g2
g3
NtRp703
(dp704
g63
V10.1093/nar/gkj154
p705
sg59
VNUCLEIC ACIDS RES
p706
sg61
V34
p707
sg107
(lp708
(VJAISWAL
VP
tp709
asg17
I2006
sg55
VD717
p710
sbag1
(g2
g3
NtRp711
(dp712
g63
Nsg59
VFRUIT BREEDING
p713
sg61
VI
sg107
(lp714
(VJANICK
VJ
tp715
asg17
I1996
sg55
V1
sbag1
(g2
g3
NtRp716
(dp717
g63
V10.1007/s001220000511
p718
sg59
VTHEOR APPL GENET
p719
sg61
V102
p720
sg107
(lp721
(VJAUREGUI
VB
tp722
asg17
I2001
sg55
V1169
p723
sbag1
(g2
g3
NtRp724
(dp725
g63
Nsg59
VCAN J GENET CYTOL
p726
sg61
V14
p727
sg107
(lp728
(VJELENKOVG
S''
tp729
asg17
I1972
sg55
V317
p730
sbag1
(g2
g3
NtRp731
(dp732
g63
V10.1139/gen-43-4-649
p733
sg59
VGENOME
p734
sg61
V43
p735
sg107
(lp736
(VJOOBEUR
VT
tp737
asg17
I2000
sg55
V649
p738
sbag1
(g2
g3
NtRp739
(dp740
g63
V10.1007/s001220050988
p741
sg59
VTHEOR APPL GENET
p742
sg61
V97
p743
sg107
(lp744
(VJOOBEUR
VT
tp745
asg17
I1998
sg55
V1034
p746
sbag1
(g2
g3
NtRp747
(dp748
g63
V10.1186/1471-2105-5-130
p749
sg59
VBMC BIOINFORMATICS
p750
sg61
V5
sg107
(lp751
(VJUNG
VS
tp752
asg17
I2004
sg55
Nsbag1
(g2
g3
NtRp753
(dp754
g63
V10.1093/nar/gkm803
p755
sg59
VNUCLEIC ACIDS RES
p756
sg61
V36
p757
sg107
(lp758
(VJUNG
VS
tp759
asg17
I2008
sg55
VD1034
p760
sbag1
(g2
g3
NtRp761
(dp762
g63
V10.1126/science.286.5446.1962
p763
sg59
VSCIENCE
p764
sg61
V286
p765
sg107
(lp766
(VKARDAILSKY
VI
tp767
asg17
I1999
sg55
V1962
p768
sbag1
(g2
g3
NtRp769
(dp770
g63
V10.1007/s00438-002-0784-0
p771
sg59
VMOL GENET GENOMICS
p772
sg61
V268
p773
sg107
(lp774
(VKAUFMANN
VH
tp775
asg17
I2003
sg55
V666
p776
sbag1
(g2
g3
NtRp777
(dp778
g63
V10.1007/s11032-004-5592-2
p779
sg59
VMOL BREEDING
p780
sg61
V15
p781
sg107
(lp782
(VKENIS
VK
tp783
asg17
I2005
sg55
V205
p784
sbag1
(g2
g3
NtRp785
(dp786
g63
V10.1073/pnas.96.11.5968
p787
sg59
VP NATL ACAD SCI USA
p788
sg61
V96
p789
sg107
(lp790
(VKISHORE
VG M
tp791
asg17
I1999
sg55
V5968
p792
sbag1
(g2
g3
NtRp793
(dp794
g63
Nsg59
VJ AM SOC HORTIC SCI
p795
sg61
V123
p796
sg107
(lp797
(VKO
VK
tp798
asg17
I1998
sg55
V11
p799
sbag1
(g2
g3
NtRp800
(dp801
g63
V10.1023/A:1005672601625
p802
sg59
VBIOTECHNOL LETT
p803
sg61
V22
p804
sg107
(lp805
(VKO
VK S
tp806
asg17
I2000
sg55
V373
p807
sbag1
(g2
g3
NtRp808
(dp809
g63
Nsg59
VV8
p810
sg61
V8
sg107
(lp811
(VKORBAN
VSCHUYLER SAFI
tp812
asg17
I1992
sg55
V203
p813
sbag1
(g2
g3
NtRp814
(dp815
g63
V10.1105/tpc.11.12.2283
p816
sg59
VPLANT CELL
p817
sg61
V11
p818
sg107
(lp819
(VKRYSAN
VP J
tp820
asg17
I1999
sg55
VLANT
p821
sbag1
(g2
g3
NtRp822
(dp823
g63
V10.1104/pp.105.063008
p824
sg59
VPLANT PHYSIOL
p825
sg61
V140
p826
sg107
(lp827
(VKURATA
VN
tp828
asg17
I2006
sg55
VLANT
p829
sbag1
(g2
g3
NtRp830
(dp831
g63
V10.1007/s00122-005-0079-z
p832
sg59
VTHEOR APPL GENET
p833
sg61
V111
p834
sg107
(lp835
(VLALLI
VD A
tp836
asg17
I2005
sg55
V1504
p837
sbag1
(g2
g3
NtRp838
(dp839
g63
V10.1007/s00122-003-1526-3
p840
sg59
VTHEOR APPL GENET
p841
sg61
V108
p842
sg107
(lp843
(VLAMBERT
VP
tp844
asg17
I2004
sg55
V1120
p845
sbag1
(g2
g3
NtRp846
(dp847
g63
V10.1104/pp.005330
p848
sg59
VPLANT PHYSIOL
p849
sg61
V129
p850
sg107
(lp851
(VLAVID
VN
tp852
asg17
I2002
sg55
VLANT
p853
sbag1
(g2
g3
NtRp854
(dp855
g63
V10.1093/nar/gkl1048
p856
sg59
VNUCLEIC ACIDS RES
p857
sg61
V35
p858
sg107
(lp859
(VLAWRENCE
VC J
tp860
asg17
I2007
sg55
VD895
p861
sbag1
(g2
g3
NtRp862
(dp863
g63
V10.1186/1471-2105-6-S4-S16
p864
sg59
VBMC BIOINFORMATICS
p865
sg61
V6
sg107
(lp866
(VLAZZARI
VB
tp867
asg17
I2005
sg55
Nsbag1
(g2
g3
NtRp868
(dp869
g63
V10.1007/s00299-007-0308-9
p870
sg59
VPLANT CELL REP
p871
sg61
V26
p872
sg107
(lp873
(VLEE
VY P
tp874
asg17
I2007
sg55
VLANT
p875
sbag1
(g2
g3
NtRp876
(dp877
g63
V10.1007/s00122-003-1300-6
p878
sg59
VTHEOR APPL GENET
p879
sg61
V107
p880
sg107
(lp881
(VLERCETEAU-KOHLER
VE
tp882
asg17
I2003
sg55
V619
p883
sbag1
(g2
g3
NtRp884
(dp885
g63
V10.1007/s00122-003-1209-0
p886
sg59
VTHEOR APPL GENET
p887
sg61
V106
p888
sg107
(lp889
(VLIEBHARD
VR
tp890
asg17
I2003
sg55
V1497
p891
sbag1
(g2
g3
NtRp892
(dp893
g63
V10.1094/PHYTO.2003.93.4.493
p894
sg59
VPHYTOPATHOLOGY
p895
sg61
V93
p896
sg107
(lp897
(VLIEBHARD
VR
tp898
asg17
I2003
sg55
VHYTOPATHOLOGY
p899
sbag1
(g2
g3
NtRp900
(dp901
g63
V10.1023/A:1024886500979
p902
sg59
VPLANT MOL BIOL
p903
sg61
V52
p904
sg107
(lp905
(VLIEBHARD
VR
tp906
asg17
I2003
sg55
VLANT
p907
sbag1
(g2
g3
NtRp908
(dp909
g63
V10.1023/A:1020525906332
p910
sg59
VMOL BREEDING
p911
sg61
V10
p912
sg107
(lp913
(VLIEBHARD
VR
tp914
asg17
I2002
sg55
V217
p915
sbag1
(g2
g3
NtRp916
(dp917
g63
V10.1007/s10681-005-9009-z
p918
sg59
VEUPHYTICA
p919
sg61
V150
p920
sg107
(lp921
(VLOPEZ
VM
tp922
asg17
I2006
sg55
V1
sbag1
(g2
g3
NtRp923
(dp924
g63
V10.1139/gen-41-2-199
p925
sg59
VGENOME
p926
sg61
V41
p927
sg107
(lp928
(VLU
VZ X
tp929
asg17
I1998
sg55
V199
p930
sbag1
(g2
g3
NtRp931
(dp932
g63
Nsg59
VCRIT REV FOOD SCI
p933
sg61
V30
p934
sg107
(lp935
(VMACHEIX
VJ J
tp936
asg17
I1991
sg55
V441
p937
sbag1
(g2
g3
NtRp938
(dp939
g63
V10.1007/s001220050867
p940
sg59
VTHEOR APPL GENET
p941
sg61
V97
p942
sg107
(lp943
(VMALIEPAARD
VC
tp944
asg17
I1998
sg55
V60
p945
sbag1
(g2
g3
NtRp946
(dp947
g63
V10.1093/carcin/11.1.55
p948
sg59
VCARCINOGENESIS
p949
sg61
V11
p950
sg107
(lp951
(VMANDAL
VS
tp952
asg17
I1990
sg55
V55
p953
sbag1
(g2
g3
NtRp954
(dp955
g63
Nsg59
VCHERRIES CHERRY PROD
p956
sg61
V5
sg107
(lp957
(VMARSHALL
VR E
tp958
asg17
I1954
sg55
Nsbag1
(g2
g3
NtRp959
(dp960
g63
V10.1021/jf980864s
p961
sg59
VJ AGR FOOD CHEM
p962
sg61
V47
p963
sg107
(lp964
(VMASUDA
VT
tp965
asg17
I1999
sg55
V1749
p966
sbag1
(g2
g3
NtRp967
(dp968
g63
Nsg59
VBRIT J NUTR
p969
sg61
V83
p970
sg107
(lp971
(VMAZUR
VW M
tp972
asg17
I2000
sg55
V381
p973
sbag1
(g2
g3
NtRp974
(dp975
g63
Nsg59
VV344
p976
sg61
V344
p977
sg107
(lp978
(VMEZZETTI
VBRUNO
tp979
asg17
I2006
sg55
V287
p980
sbag1
(g2
g3
NtRp981
(dp982
g63
Nsg59
VHORTSCIENCE
p983
sg61
V24
p984
sg107
(lp985
(VMILLER
VP J
tp986
asg17
I1989
sg55
V359
p987
sbag1
(g2
g3
NtRp988
(dp989
g63
V10.1104/pp.105.060707
p990
sg59
VPLANT PHYSIOL
p991
sg61
V138
p992
sg107
(lp993
(VMUELLER
VL A
tp994
asg17
I2005
sg55
VLANT
p995
sbag1
(g2
g3
NtRp996
(dp997
g63
V10.1093/bib/bbl015
p998
sg59
VBRIEF BIOINFORM
p999
sg61
V8
sg107
(lp1000
(VNAGARAJ
VS H
tp1001
asg17
I2007
sg55
V6
sbag1
(g2
g3
NtRp1002
(dp1003
g63
V10.1139/G06-085
p1004
sg59
VGENOME
p1005
sg61
V49
p1006
sg107
(lp1007
(VNAIK
VS
tp1008
asg17
I2006
sg55
V959
p1009
sbag1
(g2
g3
NtRp1010
(dp1011
g63
V10.1104/pp.105.076208
p1012
sg59
VPLANT PHYSIOL
p1013
sg61
V141
p1014
sg107
(lp1015
(VNEWCOMB
VR D
tp1016
asg17
I2006
sg55
VLANT
p1017
sbag1
(g2
g3
NtRp1018
(dp1019
g63
Nsg59
VJ HORTIC SCI BIOTECH
p1020
sg61
V81
p1021
sg107
(lp1022
(VNIER
VS
tp1023
asg17
I2006
sg55
V645
p1024
sbag1
(g2
g3
NtRp1025
(dp1026
g63
Nsg59
VPHYTOPATHOLOGY
p1027
sg61
V97
p1028
sg107
(lp1029
(VNORELLI
VJ L
tp1030
asg17
I2007
sg55
VHYTOPATHOLOGY
p1031
sbag1
(g2
g3
NtRp1032
(dp1033
g63
V10.1007/s00425-005-0170-3
p1034
sg59
VPLANTA
p1035
sg61
V223
p1036
sg107
(lp1037
(VOOSUMI
VT
tp1038
asg17
I2006
sg55
VLANTA
p1039
sbag1
(g2
g3
NtRp1040
(dp1041
g63
V10.1104/pp.106.080994
p1042
sg59
VPLANT PHYSIOL
p1043
sg61
V141
p1044
sg107
(lp1045
(VPARK
VS
tp1046
asg17
I2006
sg55
VLANT
p1047
sbag1
(g2
g3
NtRp1048
(dp1049
g63
V10.1073/pnas.85.8.2444
p1050
sg59
VP NATL ACAD SCI USA
p1051
sg61
V85
p1052
sg107
(lp1053
(VPEARSON
VW R
tp1054
asg17
I1988
sg55
V2444
p1055
sbag1
(g2
g3
NtRp1056
(dp1057
g63
V10.1002/pmic.200600723
p1058
sg59
VPROTEOMICS
p1059
sg61
V7
sg107
(lp1060
(VPEDRESCHI
VR
tp1061
asg17
I2007
sg55
VROTEOMICS
p1062
sbag1
(g2
g3
NtRp1063
(dp1064
g63
V10.1007/s11295-006-0073-x
p1065
sg59
VTREE GENET GENOMES
p1066
sg61
V3
sg107
(lp1067
(VPICHLER
VF B
tp1068
asg17
I2007
sg55
V329
p1069
sbag1
(g2
g3
NtRp1070
(dp1071
g63
V10.1007/s00122-004-1775-9
p1072
sg59
VTHEOR APPL GENET
p1073
sg61
V109
p1074
sg107
(lp1075
(VPIERANTONI
VL
tp1076
asg17
I2004
sg55
V1519
p1077
sbag1
(g2
g3
NtRp1078
(dp1079
g63
Nsg59
VHORTSCIENCE
p1080
sg61
V32
p1081
sg107
(lp1082
(VPOOLER
VM R
tp1083
asg17
I1997
sg55
V290
p1084
sbag1
(g2
g3
NtRp1085
(dp1086
g63
V10.1007/s006060200012
p1087
sg59
VPLANT SYST EVOL
p1088
sg61
V231
p1089
sg107
(lp1090
(VPOTTER
VD
tp1091
asg17
I2002
sg55
VLANT
p1092
sbag1
(g2
g3
NtRp1093
(dp1094
g63
V10.1007/s00606-007-0539-9
p1095
sg59
VPLANT SYST EVOL
p1096
sg61
V266
p1097
sg107
(lp1098
(VPOTTER
VD
tp1099
asg17
I2007
sg55
VLANT
p1100
sbag1
(g2
g3
NtRp1101
(dp1102
g63
V10.1007/s00122-004-1703-z
p1103
sg59
VTHEOR APPL GENET
p1104
sg61
V109
p1105
sg107
(lp1106
(VQUILOT
VB
tp1107
asg17
I2004
sg55
V884
p1108
sbag1
(g2
g3
NtRp1109
(dp1110
g63
V10.1007/PL00002912
p1111
sg59
VTHEOR APPL GENET
p1112
sg61
V103
p1113
sg107
(lp1114
(VRAJAPAKSE
VS
tp1115
asg17
I2001
sg55
V575
p1116
sbag1
(g2
g3
NtRp1117
(dp1118
g63
V10.1111/j.1399-3054.2005.00617.x
p1119
sg59
VPHYSIOL PLANTARUM
p1120
sg61
V126
p1121
sg107
(lp1122
(VRENAUT
VJ
tp1123
asg17
I2006
sg55
VHYSIOL
p1124
sbag1
(g2
g3
NtRp1125
(dp1126
g63
Nsg59
VTREE GENET IN PRESS
p1127
sg61
Nsg107
(lp1128
(VRENAUT
VJ
tp1129
asg17
I2008
sg55
Nsbag1
(g2
g3
NtRp1130
(dp1131
g63
V10.1002/pmic.200400874
p1132
sg59
VPROTEOMICS
p1133
sg61
V5
sg107
(lp1134
(VREUTER
VA
tp1135
asg17
I2005
sg55
VROTEOMICS
p1136
sbag1
(g2
g3
NtRp1137
(dp1138
g63
V10.1093/nar/gkg076
p1139
sg59
VNUCLEIC ACIDS RES
p1140
sg61
V31
p1141
sg107
(lp1142
(VRHEE
VS Y
tp1143
asg17
I2003
sg55
V224
p1144
sbag1
(g2
g3
NtRp1145
(dp1146
g63
V[10.1021/jf072540m, 10.1021/jf072.540m]
p1147
sg59
VJ AGR FOOD CHEM
p1148
sg61
V56
p1149
sg107
(lp1150
(VRUDELL
VD R
tp1151
asg17
I2008
sg55
V1138
p1152
sbag1
(g2
g3
NtRp1153
(dp1154
g63
Nsg59
VANN AMELIOR PLANT
p1155
sg61
V27
p1156
sg107
(lp1157
(VSALESSES
VG
tp1158
asg17
I1977
sg55
V363
p1159
sbag1
(g2
g3
NtRp1160
(dp1161
g63
V10.1007/s00122-004-1767-9
p1162
sg59
VTHEOR APPL GENET
p1163
sg61
V109
p1164
sg107
(lp1165
(VSARGENT
VD J
tp1166
asg17
I2004
sg55
V1385
p1167
sbag1
(g2
g3
NtRp1168
(dp1169
g63
V10.1007/s00122-006-0237-y
p1170
sg59
VTHEOR APPL GENET
p1171
sg61
V112
p1172
sg107
(lp1173
(VSARGENT
VD J
tp1174
asg17
I2006
sg55
V1349
p1175
sbag1
(g2
g3
NtRp1176
(dp1177
g63
V10.1007/s00122-006-0441-9
p1178
sg59
VTHEOR APPL GENET
p1179
sg61
V114
p1180
sg107
(lp1181
(VSARGENT
VD J
tp1182
asg17
I2007
sg55
V373
p1183
sbag1
(g2
g3
NtRp1184
(dp1185
g63
V10.1104/pp.105.070961
p1186
sg59
VPLANT PHYSIOL
p1187
sg61
V140
p1188
sg107
(lp1189
(VSCALLIET
VG
tp1190
asg17
I2006
sg55
VLANT
p1191
sbag1
(g2
g3
NtRp1192
(dp1193
g63
V10.1104/pp.106.093765
p1194
sg59
VPLANT PHYSIOL
p1195
sg61
V144
p1196
sg107
(lp1197
(VSCHAFFER
VR J
tp1198
asg17
I2007
sg55
VLANT
p1199
sbag1
(g2
g3
NtRp1200
(dp1201
g63
V10.1016/S0924-2244(02)00012-2
p1202
sg59
VTRENDS FOOD SCI TECH
p1203
sg61
V12
p1204
sg107
(lp1205
(VSCHIEBER
VA
tp1206
asg17
I2001
sg55
V401
p1207
sbag1
(g2
g3
NtRp1208
(dp1209
g63
V10.1016/S0031-9422(00)00405-2
p1210
sg59
VPHYTOCHEMISTRY
p1211
sg61
V56
p1212
sg107
(lp1213
(VSCHWAB
VW
tp1214
asg17
I2001
sg55
VHYTOCHEMISTRY
p1215
sbag1
(g2
g3
NtRp1216
(dp1217
g63
Nsg59
VJ AM SOC HORTIC SCI
p1218
sg61
V110
p1219
sg107
(lp1220
(VSCORZA
VR
tp1221
asg17
I1985
sg55
V547
p1222
sbag1
(g2
g3
NtRp1223
(dp1224
g63
Nsg59
VFRUIT BREEDING
p1225
sg61
VI
sg107
(lp1226
(VSCORZA
VR
tp1227
asg17
I1996
sg55
V325
p1228
sbag1
(g2
g3
NtRp1229
(dp1230
g63
Nsg59
VPHYTOCHEMICALS HUMAN
p1231
sg61
V33
p1232
sg107
(lp1233
(VSELMAR
VD
tp1234
asg17
I1999
sg55
VHYTOCHEMICALS
p1235
sbag1
(g2
g3
NtRp1236
(dp1237
g63
V10.1007/s11295-006-0045-1
p1238
sg59
VTREE GENET GENOMES
p1239
sg61
V2
sg107
(lp1240
(VSILFVERBERG-DILWORTH
VE
tp1241
asg17
I2006
sg55
V202
p1242
sbag1
(g2
g3
NtRp1243
(dp1244
g63
Nsg59
VEVOLUTION CROP PLANT
p1245
sg61
Nsg107
(lp1246
(VSMARTT
VJ
tp1247
asg17
I1995
sg55
Nsbag1
(g2
g3
NtRp1248
(dp1249
g63
V10.1111/j.1439-0523.2005.01144.x
p1250
sg59
VPLANT BREEDING
p1251
sg61
V124
p1252
sg107
(lp1253
(VSUGIMOTO
VT
tp1254
asg17
I2005
sg55
VLANT
p1255
sbag1
(g2
g3
NtRp1256
(dp1257
g63
Nsg59
VMOL CELLS
p1258
sg61
V8
sg107
(lp1259
(VSUNG
VS K
tp1260
asg17
I1998
sg55
V565
p1261
sbag1
(g2
g3
NtRp1262
(dp1263
g63
Nsg59
VPHYTOCHEMICALS NEW P
p1264
sg61
Nsg107
(lp1265
(VSWANSON
VC A
tp1266
asg17
I1998
sg55
VHYTOCHEMICALS
p1267
sbag1
(g2
g3
NtRp1268
(dp1269
g63
V10.1016/j.apsoil.2005.07.008
p1270
sg59
VAPPL SOIL ECOL
p1271
sg61
V32
p1272
sg107
(lp1273
(VTAHMATSIDOU
VV
tp1274
asg17
I2006
sg55
V316
p1275
sbag1
(g2
g3
NtRp1276
(dp1277
g63
Nsg59
VACTA HORTIC
p1278
sg61
V538
p1279
sg107
(lp1280
(VTARTARINI
VS
tp1281
asg17
I2000
sg55
V549
p1282
sbag1
(g2
g3
NtRp1283
(dp1284
g63
Nsg59
VGENOME
p1285
sg61
V48
p1286
sg107
(lp1287
(VTATUM
VT C
tp1288
asg17
I2005
sg55
V924
p1289
sbag1
(g2
g3
NtRp1290
(dp1291
g63
V10.1073/pnas.0605873103
p1292
sg59
VP NATL ACAD SCI USA
p1293
sg61
V103
p1294
sg107
(lp1295
(VTEO
VG
tp1296
asg17
I2006
sg55
V18842
p1297
sbag1
(g2
g3
NtRp1298
(dp1299
g63
Nsg59
VCHRON BOT
p1300
sg61
V13
p1301
sg107
(lp1302
(VVAVILOV
VN I
tp1303
asg17
I1951
sg55
V1
sbag1
(g2
g3
NtRp1304
(dp1305
g63
V10.1007/s00122-005-0006-3
p1306
sg59
VTHEOR APPL GENET
p1307
sg61
V111
p1308
sg107
(lp1309
(VVERDE
VI
tp1310
asg17
I2005
sg55
V1013
p1311
sbag1
(g2
g3
NtRp1312
(dp1313
g63
V10.1007/s00438-003-0874-7
p1314
sg59
VMOL GENET GENOMICS
p1315
sg61
V269
p1316
sg107
(lp1317
(VVILANOVA
VS
tp1318
asg17
I2003
sg55
V685
p1319
sbag1
(g2
g3
NtRp1320
(dp1321
g63
V10.1007/s001220051008
p1322
sg59
VTHEOR APPL GENET
p1323
sg61
V97
p1324
sg107
(lp1325
(VVINATZER
VB A
tp1326
asg17
I1998
sg55
V1183
p1327
sbag1
(g2
g3
NtRp1328
(dp1329
g63
V10.1094/MPMI.2001.14.4.508
p1330
sg59
VMOL PLANT MICROBE IN
p1331
sg61
V14
p1332
sg107
(lp1333
(VVINATZER
VB A
tp1334
asg17
I2001
sg55
V508
p1335
sbag1
(g2
g3
NtRp1336
(dp1337
g63
Nsg59
VTHEOR APPL GENET
p1338
sg61
V91
p1339
sg107
(lp1340
(VVIRUEL
VM A
tp1341
asg17
I1995
sg55
V964
p1342
sbag1
(g2
g3
NtRp1343
(dp1344
g63
V10.1007/s001220051013
p1345
sg59
VTHEOR APPL GENET
p1346
sg61
V97
p1347
sg107
(lp1348
(VWANG
VD
tp1349
asg17
I1998
sg55
V1217
p1350
sbag1
(g2
g3
NtRp1351
(dp1352
g63
V10.1007/s00299-003-0721-7
p1353
sg59
VPLANT CELL REP
p1354
sg61
V22
p1355
sg107
(lp1356
(VWANG
VD
tp1357
asg17
I2004
sg55
VLANT
p1358
sbag1
(g2
g3
NtRp1359
(dp1360
g63
V10.1004/pp.015248
p1361
sg59
VPLANT PHYSIOL
p1362
sg61
V130
p1363
sg107
(lp1364
(VWARE
VD H
tp1365
asg17
I2002
sg55
VLANT
p1366
sbag1
(g2
g3
NtRp1367
(dp1368
g63
V10.1111/j.1439-0523.2007.01430.x
p1369
sg59
VPLANT BREEDING
p1370
sg61
V127
p1371
sg107
(lp1372
(VWEEBADDE
VC K
tp1373
asg17
I2008
sg55
VLANT
p1374
sbag1
(g2
g3
NtRp1375
(dp1376
g63
V10.1104/pp.122.4.1003
p1377
sg59
VPLANT PHYSIOL
p1378
sg61
V122
p1379
sg107
(lp1380
(VWEIGEL
VD
tp1381
asg17
I2000
sg55
VLANT
p1382
sbag1
(g2
g3
NtRp1383
(dp1384
g63
V10.1111/j.1399-3054.2008.01063.x
p1385
sg59
VPHYSIOL PLANTARUM
p1386
sg61
V133
p1387
sg107
(lp1388
(VWISNIEWSKI
VM
tp1389
asg17
I2008
sg55
VHYSIOL
p1390
sbag1
(g2
g3
NtRp1391
(dp1392
g63
V10.1139/gen-44-6-1104
p1393
sg59
VGENOME
p1394
sg61
V44
p1395
sg107
(lp1396
(VXU
VM L
tp1397
asg17
I2001
sg55
V1104
p1398
sbag1
(g2
g3
NtRp1399
(dp1400
g63
V10.1023/A:1019912419709
p1401
sg59
VPLANT MOL BIOL
p1402
sg61
V50
p1403
sg107
(lp1404
(VXU
VM L
tp1405
asg17
I2002
sg55
VLANT
p1406
sbag1
(g2
g3
NtRp1407
(dp1408
g63
Nsg59
VGENETICS
p1409
sg61
V162
p1410
sg107
(lp1411
(VXU
VM L
tp1412
asg17
I2002
sg55
V1995
p1413
sbag1
(g2
g3
NtRp1414
(dp1415
g63
Nsg59
VACTA HORTIC
p1416
sg61
V663
p1417
sg107
(lp1418
(VYAMAMOTO
VT
tp1419
asg17
I2004
sg55
V51
p1420
sbag1
(g2
g3
NtRp1421
(dp1422
g63
V10.1007/s00122-002-0966-5
p1423
sg59
VTHEOR APPL GENET
p1424
sg61
V106
p1425
sg107
(lp1426
(VYAMAMOTO
VT
tp1427
asg17
I2002
sg55
V9
sbag1
(g2
g3
NtRp1428
(dp1429
g63
V10.2503/jjshs.74.204
p1430
sg59
VJ JPN SOC HORTIC SCI
p1431
sg61
V74
p1432
sg107
(lp1433
(VYAMAMOTO
VT
tp1434
asg17
I2005
sg55
V204
p1435
sbag1
(g2
g3
NtRp1436
(dp1437
g63
V10.1007/s00122-004-1903-6
p1438
sg59
VTHEOR APPL GENET
p1439
sg61
V110
p1440
sg107
(lp1441
(VYAN
VZ
tp1442
asg17
I2005
sg55
V766
p1443
sbag1
(g2
g3
NtRp1444
(dp1445
g63
V10.1016/S0024-3205(02)02239-7
p1446
sg59
VLIFE SCI
p1447
sg61
V72
p1448
sg107
(lp1449
(VYAU
VM H
tp1450
asg17
I2002
sg55
V329
p1451
sbag1
(g2
g3
NtRp1452
(dp1453
g63
Nsg59
VACTA HORTIC
p1454
sg61
V713
p1455
sg107
(lp1456
(VZHEBENTYAYEVA
VT N
tp1457
asg17
I2006
sg55
V83
p1458
sbag1
(g2
g3
NtRp1459
(dp1460
g63
V10.1007/BF00115646
p1461
sg59
VCANCER CAUSE CONTROL
p1462
sg61
V7
sg107
(lp1463
(VZIEGLER
VR G
tp1464
asg17
I1996
sg55
V157
p1465
sbasb.