ccopy_reg
_reconstructor
p1
(ctethne.classes.paper
Paper
p2
c__builtin__
object
p3
NtRp4
(dp5
S'publisherCity'
p6
VROCKVILLE
p7
sS'reprintAddress'
p8
VBrutnell, TP (reprint author), Cornell Univ, Boyce Thompson Inst Plant Res, Ithaca, NY 14853 USA.
p9
sS'WC'
p10
VPlant Sciences
p11
sS'GA'
p12
V855GU
p13
sS'abstract'
p14
VThe light insensitive maize (Zea mays) mutant elongated mesocotyl1 (elm1) has previously been shown to be deficient in the synthesis of the phytochrome chromophore 3E-phytochromobilin (PPhiB). To identify the Elm1 gene, a maize homolog of the Arabidopsis PPhiB synthase gene AtHY2 was isolated and designated ZmHy2. ZmHy2 encodes a 297-amino acid protein of 34 kD that is 50% identical to AtHY2. ZmHY2 was predicted to be plastid localized and was targeted to chloroplasts following transient expression in tobacco (Nicotiana plumbaginifolia) leaves. Molecular mapping indicated that ZmHy2 is a single copy gene in maize that is genetically linked to the Elm1 locus. Sequence analysis revealed that the ZmHy2 gene of elm1 mutants contains a single G to A transition at the 3' splice junction of intron III resulting in missplicing and premature translational termination. However, flexibility in the splicing machinery allowed a small pool of in-frame ZmHy2 transcripts to accumulate in elm1 plants. In addition, multiple ZmHy2 transcript forms accumulated in both wild-type and elm1 mutant plants. ZmHy2 splice variants were expressed in Escherichia coli and products examined for activity using a coupled apophytochrome assembly assay Only full-length ZmHY2 (as defined by homology to AtHY2) was found to exhibit PPhiB synthase activity. Thus, the elm1 mutant of maize is deficient in phytochrome response due to a lesion in a gene encoding phytochromobilin synthase that severely compromises the PPhiB pool.
p15
sS'pageEnd'
p16
I2781
sS'date'
p17
I2004
sS'documentType'
p18
VArticle
p19
sS'subject'
p20
VPlant Sciences
p21
sS'isoSource'
p22
VPlant Physiol.
p23
sS'timesCited'
p24
(lp25
I10
aVZ9 12
p26
asS'PT'
p27
VJ
sS'title'
p28
VThe Elm1 (Zmhy2) Gene Of Maize Encodes A Phytochromobilin Synthase
p29
sS'ISSN'
p30
(lp31
V0032-0889
p32
aVJ9 PLANT PHYSIOL
p33
asS'authors_full'
p34
(lp35
(VSAWERS
VRJH
tp36
a(VLINLEY
VPJ
tp37
a(VGUTIERREZMARCOS
VJF
tp38
a(VDELLIBOVI
VT
tp39
a(VFARMER
VPR
tp40
a(VKOHCHI
VT
tp41
a(VTERRY
VMJ
tp42
a(VBRUTNELL
VTP
tp43
asS'PG'
p44
I11
sS'PD'
p45
VSEP
p46
sS'pageStart'
p47
I2771
sS'issue'
p48
I1
sS'RI'
p49
VTerry, Matthew/B-3000-2012
p50
sS'journal'
p51
VPLANT PHYSIOLOGY
p52
sS'volume'
p53
V136
p54
sS'doi'
p55
V10.1104/99.104.046417
p56
sS'emailAddress'
p57
VtpbS@cornell.edu
p58
sS'authorAddress'
p59
(lp60
VCornell Univ, Boyce Thompson Inst Plant Res, Ithaca, NY 14853 USA.
p61
aVUniv Southampton, Sch Biol Sci, Southampton SO16 7PX, Hants, England.
p62
aVUniv Oxford, Dept Plant Sci, Oxford OX1 3RB, England.
p63
aVKyoto Univ, Grad Sch Biostudies, Kyoto 6068502, Japan.
p64
asS'publisherAddress'
p65
V15501 MONONA DRIVE, ROCKVILLE, MD 20855 USA
p66
sS'ER'
p67
V
sS'publisher'
p68
VAMER SOC PLANT BIOLOGISTS
p69
sS'authorKeywords'
p70
(lp71
VSPLICE ACCEPTOR SITE
p72
aVBILIVERDIN IX-ALPHA
p73
aVMESSENGER-RNA
p74
aVCHROMOPHORE BIOSYNTHESIS
p75
aVPHOTOMORPHOGENIC RESPONSES
p76
aVCAENORHABDITIS-ELEGANS
p77
aVBIOCHEMICAL-PROPERTIES
p78
aVDEFICIENT
p79
aVARABIDOPSIS
p80
aVMUTANT
p81
asS'language'
p82
VEnglish
p83
sS'wosid'
p84
VWOS:000223962100030
p85
sS'citationCount'
p86
I49
sS'authors_init'
p87
(lp88
(VSAWERS
VR J H
tp89
a(VLINLEY
VP J
tp90
a(VGUTIERREZMARCOS
VJ F
tp91
a(VDELLIBOVI
VT
tp92
a(VFARMER
VP R
tp93
a(VKOHCHI
VT
tp94
a(VTERRY
VM J
tp95
a(VBRUTNELL
VT P
tp96
asS'citedReferences'
p97
(lp98
g1
(g2
g3
NtRp99
(dp100
g55
Nsg51
VMOL CELL BIOL
p101
sg53
V13
p102
sg87
(lp103
(VAROIAN
VR V
tp104
asg17
I1993
sg47
V626
p105
sbag1
(g2
g3
NtRp106
(dp107
g55
V10.1093/bioinformatics/18.2.298
p108
sg51
VBIOINFORMATICS
p109
sg53
V18
p110
sg87
(lp111
(VBANNAI
VH
tp112
asg17
I2002
sg47
V298
p113
sbag1
(g2
g3
NtRp114
(dp115
g55
V10.1105/tpc.12.11.2201
p116
sg51
VPLANT CELL
p117
sg53
V12
p118
sg87
(lp119
(VBATOKO
VH
tp120
asg17
I2000
sg47
VLANT
p121
sbag1
(g2
g3
NtRp122
(dp123
g55
V10.1017/S1355838200000546
p124
sg51
VRNA
p125
sg53
V6
sg87
(lp126
(VBHATTACHARYA
VA
tp127
asg17
I2000
sg47
V1226
p128
sbag1
(g2
g3
NtRp129
(dp130
g55
V10.1046/j.1365-313X.1996.10050771.x
p131
sg51
VPLANT J
p132
sg53
V10
p133
sg87
(lp134
(VBROWN
VJ W S
tp135
asg17
I1996
sg47
VLANT
p136
sbag1
(g2
g3
NtRp137
(dp138
g55
V10.1146/annurev.arplant.49.1.77
p139
sg51
VANNU REV PLANT PHYS
p140
sg53
V49
p141
sg87
(lp142
(VBROWN
VJ W S
tp143
asg17
I1998
sg47
V77
p144
sbag1
(g2
g3
NtRp145
(dp146
g55
Nsg51
VJ IMMUNOL
p147
sg53
V154
p148
sg87
(lp149
(VBROWN
VW R
tp150
asg17
I1995
sg47
V3836
p151
sbag1
(g2
g3
NtRp152
(dp153
g55
Nsg51
VGENETICS
p154
sg53
V118
p155
sg87
(lp156
(VBURR
VB
tp157
asg17
I1988
sg47
V519
p158
sbag1
(g2
g3
NtRp159
(dp160
g55
V10.1007/BF00043870
p161
sg51
VPLANT MOL BIOL
p162
sg53
V25
p163
sg87
(lp164
(VCLACK
VT
tp165
asg17
I1994
sg47
VLANT
p166
sbag1
(g2
g3
NtRp167
(dp168
g55
V10.1073/pnas.96.11.6541
p169
sg51
VP NATL ACAD SCI USA
p170
sg53
V96
p171
sg87
(lp172
(VDAVIS
VS J
tp173
asg17
I1999
sg47
V6541
p174
sbag1
(g2
g3
NtRp175
(dp176
g55
V10.1104/pp.84.2.304
p177
sg51
VPLANT PHYSIOL
p178
sg53
V84
p179
sg87
(lp180
(VELICH
VT D
tp181
asg17
I1987
sg47
VLANT
p182
sbag1
(g2
g3
NtRp183
(dp184
g55
V10.1104/pp.125.3.1388
p185
sg51
VPLANT PHYSIOL
p186
sg53
V125
p187
sg87
(lp188
(VISSHIKI
VM
tp189
asg17
I2001
sg47
VLANT
p190
sbag1
(g2
g3
NtRp191
(dp192
g55
V10.1046/j.1365-313X.2000.00753.x
p193
sg51
VPLANT J
p194
sg53
V22
p195
sg87
(lp196
(VIZAWA
VT
tp197
asg17
I2000
sg47
VLANT
p198
sbag1
(g2
g3
NtRp199
(dp200
g55
V10.1073/pnas.0307615100
p201
sg51
VP NATL ACAD SCI USA
p202
sg53
V101
p203
sg87
(lp204
(VKAMI
VC
tp205
asg17
I2004
sg47
V1099
p206
sbag1
(g2
g3
NtRp207
(dp208
g55
V10.1105/tpc.13.2.425
p209
sg51
VPLANT CELL
p210
sg53
V13
p211
sg87
(lp212
(VKOHCHI
VT
tp213
asg17
I2001
sg47
VLANT
p214
sbag1
(g2
g3
NtRp215
(dp216
g55
Nsg51
VEMBO J
p217
sg53
V3
sg87
(lp218
(VKONCZ
VC
tp219
asg17
I1984
sg47
V1029
p220
sbag1
(g2
g3
NtRp221
(dp222
g55
Nsg51
VJ PLANT PHYSIOL
p223
sg53
V120
p224
sg87
(lp225
(VKOORNNEEF
VM
tp226
asg17
I1985
sg47
V153
p227
sbag1
(g2
g3
NtRp228
(dp229
g55
Nsg51
VZ PFLANZENPHYSIOL
p230
sg53
V100
p231
sg87
(lp232
(VKOORNNEEF
VM
tp233
asg17
I1980
sg47
V147
p234
sbag1
(g2
g3
NtRp235
(dp236
g55
V10.1007/BF00285279
p237
sg51
VMOL GEN GENET
p238
sg53
V242
p239
sg87
(lp240
(VKRAEPIEL
VY
tp241
asg17
I1994
sg47
V559
p242
sbag1
(g2
g3
NtRp243
(dp244
g55
Nsg51
VANNU REV BIOCHEM
p245
sg53
V65
p246
sg87
(lp247
(VKRAMER
VA
tp248
asg17
I1996
sg47
V367
p249
sbag1
(g2
g3
NtRp250
(dp251
g55
V10.1021/ja00534a042
p252
sg51
VJ AM CHEM SOC
p253
sg53
V102
p254
sg87
(lp255
(VLAGARIAS
VJ C
tp256
asg17
I1980
sg47
V4821
p257
sbag1
(g2
g3
NtRp258
(dp259
g55
V10.1104/pp.120.1.65
p260
sg51
VPLANT PHYSIOL
p261
sg53
V120
p262
sg87
(lp263
(VLAL
VS
tp264
asg17
I1999
sg47
VLANT
p265
sbag1
(g2
g3
NtRp266
(dp267
g55
V10.1109/MIS.2002.1039832
p268
sg51
VIEEE INTELL SYST
p269
sg53
V17
p270
sg87
(lp271
(VLEE
VP Y
tp272
asg17
I2002
sg47
V48
p273
sbag1
(g2
g3
NtRp274
(dp275
g55
V10.1016/S1360-1385(00)01595-8
p276
sg51
VTRENDS PLANT SCI
p277
sg53
V5
sg87
(lp278
(VLORKOVIC
VZ J
tp279
asg17
I2000
sg47
V160
p280
sbag1
(g2
g3
NtRp281
(dp282
g55
V10.1104/pp.103.029694
p283
sg51
VPLANT PHYSIOL
p284
sg53
V133
p285
sg87
(lp286
(VMARKELZ
VN H
tp287
asg17
I2003
sg47
VLANT
p288
sbag1
(g2
g3
NtRp289
(dp290
g55
Nsg51
VMOL BIOL EVOL
p291
sg53
V13
p292
sg87
(lp293
(VMATHEWS
VS
tp294
asg17
I1996
sg47
V1141
p295
sbag1
(g2
g3
NtRp296
(dp297
g55
V10.1104/pp.126.4.1546
p298
sg51
VPLANT PHYSIOL
p299
sg53
V126
p300
sg87
(lp301
(VMCDOWELL
VM T
tp302
asg17
I2001
sg47
VLANT
p303
sbag1
(g2
g3
NtRp304
(dp305
g55
Nsg51
VPLANT CELL
p306
sg53
V11
p307
sg87
(lp308
(VMURAMOTO
VT
tp309
asg17
I1999
sg47
VLANT
p310
sbag1
(g2
g3
NtRp311
(dp312
g55
Nsg51
VGENE DEV
p313
sg53
V14
p314
sg87
(lp315
(VNEFF
VM M
tp316
asg17
I2000
sg47
V257
p317
sbag1
(g2
g3
NtRp318
(dp319
g55
V10.1101/gad.7.10.1885
p320
sg51
VGENE DEV
p321
sg53
V7
sg87
(lp322
(VPULAK
VR
tp323
asg17
I1993
sg47
V1885
p324
sbag1
(g2
g3
NtRp325
(dp326
g55
V10.1038/nrm728
p327
sg51
VNAT REV MOL CELL BIO
p328
sg53
V3
sg87
(lp329
(VQUAIL
VP H
tp330
asg17
I2002
sg47
V85
p331
sbag1
(g2
g3
NtRp332
(dp333
g55
V10.1016/S0092-8674(00)80886-7
p334
sg51
VCELL
p335
sg53
V101
p336
sg87
(lp337
(VRUIZ-ECHEVARRIA
VM J
tp338
asg17
I2000
sg47
V741
p339
sbag1
(g2
g3
NtRp340
(dp341
g55
V10.1104/pp.006411
p342
sg51
VPLANT PHYSIOL
p343
sg53
V130
p344
sg87
(lp345
(VSAWERS
VR J H
tp346
asg17
I2002
sg47
VLANT
p347
sbag1
(g2
g3
NtRp348
(dp349
g55
V10.1534/genetics.103.026096
p350
sg51
VGENETICS
p351
sg53
V167
p352
sg87
(lp353
(VSHEEHAN
VM J
tp354
asg17
I2004
sg47
V1395
p355
sbag1
(g2
g3
NtRp356
(dp357
g55
V10.1046/j.1365-313X.1996.09030369.x
p358
sg51
VPLANT J
p359
sg53
V9
sg87
(lp360
(VSIMPSON
VC G
tp361
asg17
I1996
sg47
VLANT
p362
sbag1
(g2
g3
NtRp363
(dp364
g55
V10.1017/S1355838202015546
p365
sg51
VRNA
p366
sg53
V8
sg87
(lp367
(VSIMPSON
VC G
tp368
asg17
I2002
sg47
V47
p369
sbag1
(g2
g3
NtRp370
(dp371
g55
V10.1105/tpc.010249
p372
sg51
VPLANT CELL
p373
sg53
V15
p374
sg87
(lp375
(VSINGH
VM
tp376
asg17
I2003
sg47
VLANT
p377
sbag1
(g2
g3
NtRp378
(dp379
g55
V10.1038/342243a0
p380
sg51
VNATURE
p381
sg53
V342
p382
sg87
(lp383
(VSMITH
VC W J
tp384
asg17
I1989
sg47
V243
p385
sbag1
(g2
g3
NtRp386
(dp387
g55
V10.1038/35036500
p388
sg51
VNATURE
p389
sg53
V407
p390
sg87
(lp391
(VSMITH
VH
tp392
asg17
I2000
sg47
V585
p393
sbag1
(g2
g3
NtRp394
(dp395
g55
Nsg51
VBird Conservation International
p396
sg53
V3
sg87
(lp397
(VSMITH
VTHOMAS BATES
tp398
asg17
I1993
sg47
V13
p399
sbag1
(g2
g3
NtRp400
(dp401
g55
V10.1074/jbc.270.19.11111
p402
sg51
VJ BIOL CHEM
p403
sg53
V270
p404
sg87
(lp405
(VTERRY
VM J
tp406
asg17
I1995
sg47
V11111
p407
sbag1
(g2
g3
NtRp408
(dp409
g55
V10.1046/j.1365-3040.1997.d01-102.x
p410
sg51
VPLANT CELL ENVIRON
p411
sg53
V20
p412
sg87
(lp413
(VTERRY
VM J
tp414
asg17
I1997
sg47
VLANT
p415
sbag1
(g2
g3
NtRp416
(dp417
g55
Nsg51
VJ BIOL CHEM
p418
sg53
V271
p419
sg87
(lp420
(VTERRY
VM J
tp421
asg17
I1996
sg47
V21681
p422
sbag1
(g2
g3
NtRp423
(dp424
g55
V10.1006/abbi.1993.1473
p425
sg51
VARCH BIOCHEM BIOPHYS
p426
sg53
V306
p427
sg87
(lp428
(VTERRY
VM J
tp429
asg17
I1993
sg47
V1
sbag1
(g2
g3
NtRp430
(dp431
g55
Nsg51
VRNA
p432
sg53
V1
sg87
(lp433
(VUMEN
VJ G
tp434
asg17
I1995
sg47
V869
p435
sbag1
(g2
g3
NtRp436
(dp437
g55
V10.1046/j.1365-313X.1997.11061177.x
p438
sg51
VPLANT J
p439
sg53
V11
p440
sg87
(lp441
(VWELLER
VJ L
tp442
asg17
I1997
sg47
VLANT
p443
sbag1
(g2
g3
NtRp444
(dp445
g55
Nsg51
VPLANT CELL
p446
sg53
V8
sg87
(lp447
(VWELLER
VJ L
tp448
asg17
I1996
sg47
VLANT
p449
sbag1
(g2
g3
NtRp450
(dp451
g55
Nsg51
VJ BIOL CHEM
p452
sg53
V270
p453
sg87
(lp454
(VYASUKAWA
VT
tp455
asg17
I1995
sg47
V25328
p456
sbag1
(g2
g3
NtRp457
(dp458
g55
Nsg51
VJPN J BREED
p459
sg53
V43
p460
sg87
(lp461
(VYOKOO
VM
tp462
asg17
I1993
sg47
V1
sbasb.