ccopy_reg
_reconstructor
p1
(ctethne.classes.paper
Paper
p2
c__builtin__
object
p3
NtRp4
(dp5
S'publisherCity'
p6
VROCKVILLE
p7
sS'reprintAddress'
p8
VInaba, T (reprint author), Iwate Univ, Cryobiofrontier Res Ctr, 21st Century Ctr Excellence Program, Morioka, Iwate 0208550, Japan.
p9
sS'WC'
p10
VPlant Sciences
p11
sS'GA'
p12
V514XQ
p13
sS'FX'
p14
(lp15
VThis work was supported by the 21st Century Centers of Excellence
p16
aVProgram, Grant-in-Aid for Young Scientists (no. 18780247), the
p17
aVAgricultural Chemical Research Foundation, the President of Iwate
p18
aVUniversity, and the Japan Society for the Promotion of Science
p19
aV(postdoctoral fellowship for young scientists to T. K.). 2 Present
p20
aVaddress: National Institute of Vegetable and Tea Science, 360 Kusawa,
p21
aVAno, Tsu, Mie 514-2392, Japan.
p22
asS'abstract'
p23
VExpression of nuclear-encoded plastid proteins and import of those proteins into plastids are indispensable for plastid biogenesis. One possible cellular mechanism that coordinates these two essential processes is retrograde signaling from plastids to the nucleus. However, the molecular details of how this signaling occurs remain elusive. Using the plastid protein import2 mutant of Arabidopsis (Arabidopsis thaliana), which lacks the atToc159 protein import receptor, we demonstrate that the expression of photosynthesis-related nuclear genes is tightly coordinated with their import into plastids. Down-regulation of photosynthesis-related nuclear genes is also observed in mutants lacking other components of the plastid protein import apparatus. Genetic studies indicate that the coordination of plastid protein import and nuclear gene expression is independent of proposed plastid signaling pathways such as the accumulation of Mg-protoporphyrin IX and the activity of ABA INSENSITIVE4 (ABI4). Instead, it may involve GUN1 and the transcription factor AtGLK. The expression level of AtGLK1 is tightly correlated with the expression of photosynthesis-related nuclear genes in mutants defective in plastid protein import. Furthermore, the activity of GUN1 appears to down-regulate the expression of AtGLK1 when plastids are dysfunctional. Based on these data, we suggest that defects in plastid protein import generate a signal that represses photosynthesis-related nuclear genes through repression of AtGLK1 expression but not through activation of ABI4.
p24
sS'pageEnd'
p25
I1353
sS'date'
p26
I2009
sS'documentType'
p27
VArticle
p28
sS'subject'
p29
VPlant Sciences
p30
sS'isoSource'
p31
VPlant Physiol.
p32
sS'timesCited'
p33
(lp34
I32
aVZ9 36
p35
asS'funding'
p36
(lp37
(V21st Century Centers of Excellence Program
Ntp38
a(VAgricultural Chemical Research Foundation
Ntp39
a(VPresident of Iwate University
Ntp40
a(VJapan Society for the Promotion of Science
Ntp41
a(V[18780247]
Ntp42
asS'PT'
p43
VJ
sS'title'
p44
VCoordination Of Plastid Protein Import And Nuclear Gene Expression By Plastid-To-Nucleus Retrograde Signaling
p45
sS'ISSN'
p46
(lp47
V0032-0889
p48
aVJ9 PLANT PHYSIOL
p49
asS'authors_full'
p50
(lp51
(VKAKIZAKI
VTOMOHIRO
tp52
a(VMATSUMURA
VHIDEO
tp53
a(VNAKAYAMA
VKATSUHIRO
tp54
a(VCHE
VFANGSIK
tp55
a(VTERAUCHI
VRYOHEI
tp56
a(VINABA
VTAKEHITO
tp57
asS'PG'
p58
I15
sS'PD'
p59
VNOV
p60
sS'pageStart'
p61
I1339
sS'issue'
p62
I3
sS'RI'
p63
(lp64
VInaba, Takehito/B-3720-2010; Matsumura, Hideo/E-3021-2010; KAKIZAKI,
p65
aVTomohiro/E-6304-2011
p66
asS'journal'
p67
VPLANT PHYSIOLOGY
p68
sS'volume'
p69
V151
p70
sS'doi'
p71
V10.1104/pp.109.145987
p72
sS'emailAddress'
p73
Vtinaba@iwate-u.ac.jp
p74
sS'authorAddress'
p75
(lp76
V[Kakizaki, Tomohiro; Nakayama, Katsuhiro; Inaba, Takehito] Iwate Univ, Cryobiofrontier Res Ctr, 21st Century Ctr Excellence Program, Morioka, Iwate 0208550, Japan.
p77
aV[Matsumura, Hideo; Terauchi, Ryohei] Iwate Biotechnol Res Ctr, Kitakami, Iwate 0240003, Japan.
p78
aV[Che, Fang-Sik] Nagahama Inst Biosci & Technol, Fac Biosci, Dept Environm Biol, Shiga 5260829, Japan.
p79
asS'publisherAddress'
p80
V15501 MONONA DRIVE, ROCKVILLE, MD 20855 USA
p81
sS'ER'
p82
V
sS'publisher'
p83
VAMER SOC PLANT BIOLOGISTS
p84
sS'authorKeywords'
p85
(lp86
VCHLOROPLAST INNER ENVELOPE
p87
aVMG-PROTOPORPHYRIN IX
p88
aVARABIDOPSIS-THALIANA
p89
aVREVERSE GENETICS
p90
aVSTROMAL PROTEIN
p91
aVMACHINERY
p92
aVRECEPTOR
p93
aVMEMBRANE
p94
aVPATHWAYS
p95
aVMUTANTS
p96
asS'language'
p97
VEnglish
p98
sS'wosid'
p99
VWOS:000271430500035
p100
sS'citationCount'
p101
I50
sS'authors_init'
p102
(lp103
(VKAKIZAKI
VT
tp104
a(VMATSUMURA
VH
tp105
a(VNAKAYAMA
VK
tp106
a(VCHE
VF S
tp107
a(VTERAUCHI
VR
tp108
a(VINABA
VT
tp109
asS'citedReferences'
p110
(lp111
g1
(g2
g3
NtRp112
(dp113
g71
V10.1126/science.1086391
p114
sg67
VSCIENCE
p115
sg69
V301
p116
sg102
(lp117
(VALONSO
VJ M
tp118
asg26
I2003
sg61
V653
p119
sbag1
(g2
g3
NtRp120
(dp121
g71
V10.1083/jcb.200208018
p122
sg67
VJ CELL BIOL
p123
sg69
V159
p124
sg102
(lp125
(VBAUER
VJ
tp126
asg26
I2002
sg61
V845
p127
sbag1
(g2
g3
NtRp128
(dp129
g71
V10.1038/35003214
p130
sg67
VNATURE
p131
sg69
V403
p132
sg102
(lp133
(VBAUER
VJ
tp134
asg26
I2000
sg61
V203
p135
sbag1
(g2
g3
NtRp136
(dp137
g71
V10.1007/BF00288994
p138
sg67
VTHEOR APPL GENET
p139
sg69
V72
p140
sg102
(lp141
(VBAUS
VA D
tp142
asg26
I1986
sg61
V577
p143
sbag1
(g2
g3
NtRp144
(dp145
g71
V10.1007/s00425-005-0021-2
p146
sg67
VPLANTA
p147
sg69
V222
p148
sg102
(lp149
(VBECK
VC F
tp150
asg26
I2005
sg61
VLANTA
p151
sbag1
(g2
g3
NtRp152
(dp153
g71
V10.1046/j.1365-313x.1998.00343.x
p154
sg67
VPLANT J
p155
sg69
V16
p156
sg102
(lp157
(VCLOUGH
VS J
tp158
asg26
I1998
sg61
VLANT
p159
sbag1
(g2
g3
NtRp160
(dp161
g71
V10.1126/science.1094884
p162
sg67
VSCIENCE
p163
sg69
V304
p164
sg102
(lp165
(VDYALL
VS D
tp166
asg26
I2004
sg61
V253
p167
sbag1
(g2
g3
NtRp168
(dp169
g71
V10.1105/tpc.12.4.599
p170
sg67
VPLANT CELL
p171
sg69
V10
p172
sg102
(lp173
(VFINKELSTEIN
VR R
tp174
asg26
I1998
sg61
VLANT
p175
sbag1
(g2
g3
NtRp176
(dp177
g71
V10.1046/j.1365-313X.2002.01390.x
p178
sg67
VPLANT J
p179
sg69
V31
p180
sg102
(lp181
(VFITTER
VD W
tp182
asg26
I2002
sg61
VLANT
p183
sbag1
(g2
g3
NtRp184
(dp185
g71
V10.1023/B:PLAN.0000036374.92546.51
p186
sg67
VPLANT MOL BIOL
p187
sg69
V54
p188
sg102
(lp189
(VHILTBRUNNER
VA
tp190
asg26
I2004
sg61
VLANT
p191
sbag1
(g2
g3
NtRp192
(dp193
g71
V10.1105/tpc.105.030700
p194
sg67
VPLANT CELL
p195
sg69
V17
p196
sg102
(lp197
(VINABA
VT
tp198
asg26
I2005
sg61
VLANT
p199
sbag1
(g2
g3
NtRp200
(dp201
g71
V10.1042/BJ20080490
p202
sg67
VBIOCHEM J
p203
sg69
V413
p204
sg102
(lp205
(VINABA
VT
tp206
asg26
I2008
sg61
V15
p207
sbag1
(g2
g3
NtRp208
(dp209
g71
V10.1074/jbc.M306367200
p210
sg67
VJ BIOL CHEM
p211
sg69
V278
p212
sg102
(lp213
(VINABA
VT
tp214
asg26
I2003
sg61
V38617
p215
sbag1
(g2
g3
NtRp216
(dp217
g71
V10.1091/mbc.E03-12-0923
p218
sg67
VMOL BIOL CELL
p219
sg69
V15
p220
sg102
(lp221
(VIVANOVA
VY
tp222
asg26
I2004
sg61
V3379
p223
sbag1
(g2
g3
NtRp224
(dp225
g71
V10.1111/j.1469-8137.2008.02452.x
p226
sg67
VNEW PHYTOL
p227
sg69
V179
p228
sg102
(lp229
(VJARVIS
VP
tp230
asg26
I2008
sg61
V257
p231
sbag1
(g2
g3
NtRp232
(dp233
g71
Nsg67
VPLANT CELL
p234
sg69
V11
p235
sg102
(lp236
(VKEEGSTRA
VK
tp237
asg26
I1999
sg61
VLANT
p238
sbag1
(g2
g3
NtRp239
(dp240
g71
V10.1126/science.7973656
p241
sg67
VSCIENCE
p242
sg69
V266
p243
sg102
(lp244
(VKESSLER
VF
tp245
asg26
I1994
sg61
V1035
p246
sbag1
(g2
g3
NtRp247
(dp248
g71
V10.1111/j.1600-0854.2005.00382.x
p249
sg67
VTRAFFIC
p250
sg69
V7
sg102
(lp251
(VKESSLER
VF
tp252
asg26
I2006
sg61
V248
p253
sbag1
(g2
g3
NtRp254
(dp255
g71
V10.1126/science. 1140516
p256
sg67
VSCIENCE
p257
sg69
V316
p258
sg102
(lp259
(VKOUSSEVITZKY
VS
tp260
asg26
I2007
sg61
V715
p261
sbag1
(g2
g3
NtRp262
(dp263
g71
V10.1074/jbc.275.14.10702
p264
sg67
VJ BIOL CHEM
p265
sg69
V275
p266
sg102
(lp267
(VKOZAKI
VA
tp268
asg26
I2000
sg61
V10702
p269
sbag1
(g2
g3
NtRp270
(dp271
g71
V10.1105/tpc.104.023309
p272
sg67
VPLANT CELL
p273
sg69
V16
p274
sg102
(lp275
(VKUBIS
VS
tp276
asg26
I2004
sg61
VLANT
p277
sbag1
(g2
g3
NtRp278
(dp279
g71
V10.1126/science.1079978
p280
sg67
VSCIENCE
p281
sg69
V299
p282
sg102
(lp283
(VLARKIN
VR M
tp284
asg26
I2003
sg61
V902
p285
sbag1
(g2
g3
NtRp286
(dp287
g71
V10.1007/s004250000477
p288
sg67
VPLANTA
p289
sg69
V213
p290
sg102
(lp291
(VLA
VROCCA N
tp292
asg26
I2001
sg61
VLANTA
p293
sbag1
(g2
g3
NtRp294
(dp295
g71
V10.1038/30234
p296
sg67
VNATURE
p297
sg69
V393
p298
sg102
(lp299
(VMARTIN
VW
tp300
asg26
I1998
sg61
V162
p301
sbag1
(g2
g3
NtRp302
(dp303
g71
V10.1073/pnas.2536670100
p304
sg67
VP NATL ACAD SCI USA
p305
sg69
V100
p306
sg102
(lp307
(VMATSUMURA
VH
tp308
asg26
I2003
sg61
V15718
p309
sbag1
(g2
g3
NtRp310
(dp311
g71
V10.1073/pnas.98.4.2053
p312
sg67
VP NATL ACAD SCI USA
p313
sg69
V98
p314
sg102
(lp315
(VMOCHIZUKI
VN
tp316
asg26
I2001
sg61
V2053
p317
sbag1
(g2
g3
NtRp318
(dp319
g71
V10.1073/pnas.0803245105
p320
sg67
VP NATL ACAD SCI USA
p321
sg69
V105
p322
sg102
(lp323
(VMOCHIZUKI
VN
tp324
asg26
I2008
sg61
V15184
p325
sbag1
(g2
g3
NtRp326
(dp327
g71
V10.1073/pnas.0803054105
p328
sg67
VP NATL ACAD SCI USA
p329
sg69
V105
p330
sg102
(lp331
(VMOULIN
VM
tp332
asg26
I2008
sg61
V15178
p333
sbag1
(g2
g3
NtRp334
(dp335
g71
V10.1071/FP03147
p336
sg67
VFUNCT PLANT BIOL
p337
sg69
V30
p338
sg102
(lp339
(VMULO
VP
tp340
asg26
I2003
sg61
V1097
p341
sbag1
(g2
g3
NtRp342
(dp343
g71
V10.1104/pp.106.094581
p344
sg67
VPLANT PHYSIOL
p345
sg69
V144
p346
sg102
(lp347
(VNAKAYAMA
VK
tp348
asg26
I2007
sg61
VLANT
p349
sbag1
(g2
g3
NtRp350
(dp351
g71
V10.1146/annurev.arplant.57.032905.105310
p352
sg67
VANNU REV PLANT BIOL
p353
sg69
V57
p354
sg102
(lp355
(VNOTT
VA
tp356
asg26
I2006
sg61
V739
p357
sbag1
(g2
g3
NtRp358
(dp359
g71
V10.1111/j.1365-3040.2008.01854.x
p360
sg67
VPLANT CELL ENVIRON
p361
sg69
V31
p362
sg102
(lp363
(VOKAWA
VK
tp364
asg26
I2008
sg61
VLANT
p365
sbag1
(g2
g3
NtRp366
(dp367
g71
V10.1101/gad.11.22.2983
p368
sg67
VGENE DEV
p369
sg69
V11
p370
sg102
(lp371
(VOYAMA
VT
tp372
asg26
I1997
sg61
V2983
p373
sbag1
(g2
g3
NtRp374
(dp375
g71
V10.1083/jcb.112.4.603
p376
sg67
VJ CELL BIOL
p377
sg69
V112
p378
sg102
(lp379
(VPAYAN
VL A
tp380
asg26
I1991
sg61
V603
p381
sbag1
(g2
g3
NtRp382
(dp383
g71
V10.1023/B:PLAN.0000009297.37235.4a
p384
sg67
VPLANT MOL BIOL
p385
sg69
V53
p386
sg102
(lp387
(VROSSO
VM G
tp388
asg26
I2003
sg61
VLANT
p389
sbag1
(g2
g3
NtRp390
(dp391
g71
V10.1105/tpc.107.054312
p392
sg67
VPLANT CELL
p393
sg69
V19
p394
sg102
(lp395
(VRUCKLE
VM E
tp396
asg26
I2007
sg61
VLANT
p397
sbag1
(g2
g3
NtRp398
(dp399
g71
V10.1016/j.bbrc.2007.05.084
p400
sg67
VBIOCHEM BIOPH RES CO
p401
sg69
V359
p402
sg102
(lp403
(VSAVITCH
VL V
tp404
asg26
I2007
sg61
V234
p405
sbag1
(g2
g3
NtRp406
(dp407
g71
V10.1126/science.7973649
p408
sg67
VSCIENCE
p409
sg69
V266
p410
sg102
(lp411
(VSCHNELL
VD J
tp412
asg26
I1994
sg61
V1007
p413
sbag1
(g2
g3
NtRp414
(dp415
g71
V10.1105/tpc.004630
p416
sg67
VPLANT CELL
p417
sg69
V14
p418
sg102
(lp419
(VSESSIONS
VA
tp420
asg26
I2002
sg61
VLANT
p421
sbag1
(g2
g3
NtRp422
(dp423
g71
V10.1083/jcb.200311074
p424
sg67
VJ CELL BIOL
p425
sg69
V165
p426
sg102
(lp427
(VSMITH
VM D
tp428
asg26
I2004
sg61
V323
p429
sbag1
(g2
g3
NtRp430
(dp431
g71
V10.1104/pp.124.4.1752
p432
sg67
VPLANT PHYSIOL
p433
sg69
V124
p434
sg102
(lp435
(VSODERMAN
VE M
tp436
asg26
I2000
sg61
VLANT
p437
sbag1
(g2
g3
NtRp438
(dp439
g71
V10.1038/nrm1333
p440
sg67
VNAT REV MOL CELL BIO
p441
sg69
V5
sg102
(lp442
(VSOLL
VJ
tp443
asg26
I2004
sg61
V198
p444
sbag1
(g2
g3
NtRp445
(dp446
g71
V10.1038/nature01204
p447
sg67
VNATURE
p448
sg69
V421
p449
sg102
(lp450
(VSTRAND
VA
tp451
asg26
I2003
sg61
V79
p452
sbag1
(g2
g3
NtRp453
(dp454
g71
V10.1016/0092-8674(93)90459-4
p455
sg67
VCELL
p456
sg69
V74
p457
sg102
(lp458
(VSUSEK
VR E
tp459
asg26
I1993
sg61
V787
p460
sbag1
(g2
g3
NtRp461
(dp462
g71
V10.1093/pcp/pcf011
p463
sg67
VPLANT CELL PHYSIOL
p464
sg69
V43
p465
sg102
(lp466
(VTAMAI
VH
tp467
asg26
I2002
sg61
VLANT
p468
sbag1
(g2
g3
NtRp469
(dp470
g71
V10.1105/tpc.106.044305
p471
sg67
VPLANT CELL
p472
sg69
V18
p473
sg102
(lp474
(VTENG
VY S
tp475
asg26
I2006
sg61
VLANT
p476
sbag1
(g2
g3
NtRp477
(dp478
g71
V10.1002/9783527622542.ch3
p479
sg67
VHDB PLANT FUNCTIONAL
p480
sg69
Nsg102
(lp481
(VTERAUCHI
VR
tp482
asg26
I2008
sg61
V37
p483
sbag1
(g2
g3
NtRp484
(dp485
g71
V10.1146/annurev.arplant.46.1.445
p486
sg67
VANNU REV PLANT PHYS
p487
sg69
V46
p488
sg102
(lp489
(VTERZAGHI
VW B
tp490
asg26
I1995
sg61
V445
p491
sbag1
(g2
g3
NtRp492
(dp493
g71
V10.1046/j.1365-313x.2000.00936.x
p494
sg67
VPLANT J
p495
sg69
V24
p496
sg102
(lp497
(VVINTI
VG
tp498
asg26
I2000
sg61
VLANT
p499
sbag1
(g2
g3
NtRp500
(dp501
g71
V10.1105/tpc.108.065250
p502
sg67
VPLANT CELL
p503
sg69
V21
p504
sg102
(lp505
(VWATERS
VM T
tp506
asg26
I2009
sg61
VLANT
p507
sbasb.