ccopy_reg
_reconstructor
p1
(ctethne.classes.paper
Paper
p2
c__builtin__
object
p3
NtRp4
(dp5
S'publisherCity'
p6
VROCKVILLE
p7
sS'reprintAddress'
p8
VCattivelli, L (reprint author), Consiglio Ric & Sperimentaz Agr, Ctr Ric Genom, I-29017 Fiorenzuola Darda, Italy.
p9
sS'WC'
p10
VPlant Sciences
p11
sS'GA'
p12
V040VR
p13
sS'abstract'
p14
VPreviously, we have shown that barley (Hordeum vulgare) plants carrying a mutation preventing chloroplast development are completely frost susceptible as well as impaired in the expression of several cold-regulated genes. Here we investigated the transcriptome of barley albina and xantha mutants and the corresponding wild type to assess the effect of the chloroplast on expression of cold-regulated genes. First, by comparing control wild type against cold-hardened wild-type plants 2,735 probe sets with statistically significant changes (P = 0.05; >= 2-fold change) were identified. Expression of these wild-type cold-regulated genes was then analyzed in control and cold-hardened mutants. Only about 11% of the genes cold regulated in wild type were regulated to a similar extent in all genotypes (chloroplast-independent cold- regulated genes); this class includes many genes known to be under C-repeat binding factor control. C-repeat binding factor genes were also equally induced in mutants and wild-type plants. About 67% of wild-type cold- regulated genes were not regulated by cold in any mutant (chloroplast-dependent cold-regulated genes). We found that the lack of cold regulation in the mutants is due to the presence of signaling pathway(s) normally cold activated in wild type but constitutively active in the mutants, as well as to the disruption of low-temperature signaling pathway(s) due to the absence of active chloroplasts. We also found that photooxidative stress signaling pathway is constitutively active in the mutants. These results demonstrate the major role of the chloroplast in the control of the molecular adaptation to cold.
p15
sS'pageEnd'
p16
I270
sS'date'
p17
I2006
sS'documentType'
p18
VArticle
p19
sS'subject'
p20
VPlant Sciences
p21
sS'isoSource'
p22
VPlant Physiol.
p23
sS'timesCited'
p24
(lp25
I46
aVZ9 48
p26
asS'PT'
p27
VJ
sS'title'
p28
VTranscriptome Analysis Of Cold Acclimation In Barley Albina And Xantha Mutants
p29
sS'ISSN'
p30
(lp31
V0032-0889
p32
aVJ9 PLANT PHYSIOL
p33
asS'authors_full'
p34
(lp35
(VSVENSSON
VJT
tp36
a(VCROSATTI
VC
tp37
a(VCAMPOLI
VC
tp38
a(VBASSI
VR
tp39
a(VSTANCA
VAM
tp40
a(VCLOSE
VTJ
tp41
a(VCATTIVELLI
VL
tp42
asS'PG'
p43
I14
sS'PD'
p44
VMAY
p45
sS'pageStart'
p46
I257
sS'issue'
p47
I1
sS'RI'
p48
Vsvensson, jan/D-1815-2009
p49
sS'journal'
p50
VPLANT PHYSIOLOGY
p51
sS'volume'
p52
V141
p53
sS'doi'
p54
V10.1104/pp.105.072645
p55
sS'emailAddress'
p56
Vluigi.cattivelli@entecra.it
p57
sS'authorAddress'
p58
(lp59
VConsiglio Ric & Sperimentaz Agr, Ctr Ric Genom, I-29017 Fiorenzuola Darda, Italy.
p60
aVUniv Calif Riverside, Dept Bot & Plant Sci, Riverside, CA 92521 USA.
p61
aVUniv Verona, Dipartimento Sci & Tecnol, I-37134 Verona, Italy.
p62
asS'publisherAddress'
p63
V15501 MONONA DRIVE, ROCKVILLE, MD 20855 USA
p64
sS'ER'
p65
V
sS'publisher'
p66
VAMER SOC PLANT BIOLOGISTS
p67
sS'authorKeywords'
p68
(lp69
VDEHYDRIN MULTIGENE FAMILY
p70
aVHIGH-SALINITY STRESSES
p71
aVFALSE DISCOVERY RATE
p72
aVDNA-BINDING ACTIVITY
p73
aVGENE-EXPRESSION
p74
aVFREEZING TOLERANCE
p75
aVLOW-TEMPERATURE
p76
aVARABIDOPSIS TRANSCRIPTOME
p77
aVRESPONSE PATHWAY
p78
aVOXIDATIVE STRESS
p79
asS'language'
p80
VEnglish
p81
sS'wosid'
p82
VWOS:000237409400022
p83
sS'citationCount'
p84
I58
sS'authors_init'
p85
(lp86
(VSVENSSON
VJ T
tp87
a(VCROSATTI
VC
tp88
a(VCAMPOLI
VC
tp89
a(VBASSI
VR
tp90
a(VSTANCA
VA M
tp91
a(VCLOSE
VT J
tp92
a(VCATTIVELLI
VL
tp93
asS'citedReferences'
p94
(lp95
g1
(g2
g3
NtRp96
(dp97
g54
V10.1078/0176-1617-00591
p98
sg50
VJ PLANT PHYSIOL
p99
sg52
V158
p100
sg85
(lp101
(VBALDI
VP
tp102
asg17
I2001
sg46
V1541
p103
sbag1
(g2
g3
NtRp104
(dp105
g54
V10.1023/A:1006375332677
p106
sg50
VPLANT MOL BIOL
p107
sg52
V41
p108
sg85
(lp109
(VBALDI
VP
tp110
asg17
I1999
sg46
VLANT
p111
sbag1
(g2
g3
NtRp112
(dp113
g54
Nsg50
VJ ROY STAT SOC B MET
p114
sg52
V57
p115
sg85
(lp116
(VBENJAMINI
VY
tp117
asg17
I1995
sg46
V289
p118
sbag1
(g2
g3
NtRp119
(dp120
g54
V10.1016/S1161-0301(03)00003-0
p121
sg50
VEUR J AGRON
p122
sg52
V19
p123
sg85
(lp124
(VBOURION
VV
tp125
asg17
I2003
sg46
V535
p126
sbag1
(g2
g3
NtRp127
(dp128
g54
V10.1023/A:1014824404623
p129
sg50
VPLANT MOL BIOL
p130
sg52
V48
p131
sg85
(lp132
(VCATTIVELLI
VL
tp133
asg17
I2002
sg46
VLANT
p134
sbag1
(g2
g3
NtRp135
(dp136
g54
V10.1016/S0014-5793(02)02606-6
p137
sg50
VFEBS LETT
p138
sg52
V517
p139
sg85
(lp140
(VCHARRON
VJ B F
tp141
asg17
I2002
sg46
V129
p142
sbag1
(g2
g3
NtRp143
(dp144
g54
V10.1101/gad.1077503
p145
sg50
VGENE DEV
p146
sg52
V17
p147
sg85
(lp148
(VCHINNUSAMY
VV
tp149
asg17
I2003
sg46
V1043
p150
sbag1
(g2
g3
NtRp151
(dp152
g54
Nsg50
VKOREAN J RADIOL
p153
sg52
V3
sg85
(lp154
(VCHOI
VB I
tp155
asg17
I2002
sg46
V1
sbag1
(g2
g3
NtRp156
(dp157
g54
V10.1007/s001220051189
p158
sg50
VTHEOR APPL GENET
p159
sg52
V98
p160
sg85
(lp161
(VCHOI
VD W
tp162
asg17
I1999
sg46
V1234
p163
sbag1
(g2
g3
NtRp164
(dp165
g54
V10.1104/pp.103.034462
p166
sg50
VPLANT PHYSIOL
p167
sg52
V134
p168
sg85
(lp169
(VCLOSE
VT J
tp170
asg17
I2004
sg46
VLANT
p171
sbag1
(g2
g3
NtRp172
(dp173
g54
V10.1104/pp.119.2.671
p174
sg50
VPLANT PHYSIOL
p175
sg52
V119
p176
sg85
(lp177
(VCROSATTI
VC
tp178
asg17
I1999
sg46
VLANT
p179
sbag1
(g2
g3
NtRp180
(dp181
g54
V10.1104/pp.014530
p182
sg50
VPLANT PHYSIOL
p183
sg52
V131
p184
sg85
(lp185
(VDAL
VBOSCO C
tp186
asg17
I2003
sg46
VLANT
p187
sbag1
(g2
g3
NtRp188
(dp189
g54
V10.1046/j.1365-313X.1993.04020215.x
p190
sg50
VPLANT J
p191
sg52
V4
sg85
(lp192
(VDELAUNEY
VA J
tp193
asg17
I1993
sg46
VLANT
p194
sbag1
(g2
g3
NtRp195
(dp196
g54
V10.1104/pp.127.1.159
p197
sg50
VPLANT PHYSIOL
p198
sg52
V127
p199
sg85
(lp200
(VDESIKAN
VR
tp201
asg17
I2001
sg46
VLANT
p202
sbag1
(g2
g3
NtRp203
(dp204
g54
V10.1073/pnas.92.22.10237
p205
sg50
VP NATL ACAD SCI USA
p206
sg52
V92
p207
sg85
(lp208
(VESCOUBAS
VJ M
tp209
asg17
I1995
sg46
V10237
p210
sbag1
(g2
g3
NtRp211
(dp212
g54
Nsg50
VCROP SCI
p213
sg52
V19
p214
sg85
(lp215
(VFOWLER
VD B
tp216
asg17
I1979
sg46
V915
p217
sbag1
(g2
g3
NtRp218
(dp219
g54
V10.1105/tpc.003483
p220
sg50
VPLANT CELL
p221
sg52
V14
p222
sg85
(lp223
(VFOWLER
VS
tp224
asg17
I2002
sg46
VLANT
p225
sbag1
(g2
g3
NtRp226
(dp227
g54
V10.1111/j.1399-3054.1994.tb03042.x
p228
sg50
VPHYSIOL PLANTARUM
p229
sg52
V92
p230
sg85
(lp231
(VFOYER
VC H
tp232
asg17
I1994
sg46
VHYSIOL
p233
sbag1
(g2
g3
NtRp234
(dp235
g54
V10.1007/s00122-003-1468-9
p236
sg50
VTHEOR APPL GENET
p237
sg52
V108
p238
sg85
(lp239
(VFRANCIA
VE
tp240
asg17
I2004
sg46
V670
p241
sbag1
(g2
g3
NtRp242
(dp243
g54
Nsg50
VPLANT PHYSIOL
p244
sg52
V114
p245
sg85
(lp246
(VGRAY
VG R
tp247
asg17
I1997
sg46
VLANT
p248
sbag1
(g2
g3
NtRp249
(dp250
g54
V10.1023/A:1006079916917
p251
sg50
VPLANT MOL BIOL
p252
sg52
V38
p253
sg85
(lp254
(VGROSSI
VM
tp255
asg17
I1998
sg46
VLANT
p256
sbag1
(g2
g3
NtRp257
(dp258
g54
V10.1104/pp.100.1.502
p259
sg50
VPLANT PHYSIOL
p260
sg52
V100
p261
sg85
(lp262
(VGUY
VC L
tp263
asg17
I1992
sg46
VLANT
p264
sbag1
(g2
g3
NtRp265
(dp266
g54
Nsg50
VMUTANTS XANTHA ALBIN
p267
sg52
Nsg85
(lp268
(VHENNINGSEN
VK W
tp269
asg17
I1993
sg46
Nsbag1
(g2
g3
NtRp270
(dp271
g54
V10.1034/j.1399-3054.1996.980218.x
p272
sg50
VPHYSIOL PLANTARUM
p273
sg52
V98
p274
sg85
(lp275
(VHUNER
VN P A
tp276
asg17
I1996
sg46
VHYSIOL
p277
sbag1
(g2
g3
NtRp278
(dp279
g54
V10.1146/annurev.arplant.53.100201.160729
p280
sg50
VANNU REV PLANT BIOL
p281
sg52
V53
p282
sg85
(lp283
(VIBA
VK
tp284
asg17
I2002
sg46
V225
p285
sbag1
(g2
g3
NtRp286
(dp287
g54
V10.1104/pp.127.3.910
p288
sg50
VPLANT PHYSIOL
p289
sg52
V127
p290
sg85
(lp291
(VJAGLO
VK R
tp292
asg17
I2001
sg46
VLANT
p293
sbag1
(g2
g3
NtRp294
(dp295
g54
V10.1126/science.280.5360.104
p296
sg50
VSCIENCE
p297
sg52
V280
p298
sg85
(lp299
(VJAGLO-OTTOSEN
VK R
tp300
asg17
I1998
sg46
V104
p301
sbag1
(g2
g3
NtRp302
(dp303
g54
Nsg50
VCURR BIOL
p304
sg52
V13
p305
sg85
(lp306
(VJARVIS
VP
tp307
asg17
I2003
sg46
V314
p308
sbag1
(g2
g3
NtRp309
(dp310
g54
V10.1111/j.0031-9317.2004.0293.x
p311
sg50
VPHYSIOL PLANTARUM
p312
sg52
V120
p313
sg85
(lp314
(VKOBAYASHI
VF
tp315
asg17
I2004
sg46
VHYSIOL
p316
sbag1
(g2
g3
NtRp317
(dp318
g54
V10.1104/pp.008532
p319
sg50
VPLANT PHYSIOL
p320
sg52
V130
p321
sg85
(lp322
(VKREPS
VJ A
tp323
asg17
I2002
sg46
VLANT
p324
sbag1
(g2
g3
NtRp325
(dp326
g54
V10.2307/3870648
p327
sg50
VPLANT CELL
p328
sg52
V10
p329
sg85
(lp330
(VLIU
VQ
tp331
asg17
I1998
sg46
VLANT
p332
sbag1
(g2
g3
NtRp333
(dp334
g54
V10.1007/s11103-004-0906-7
p335
sg50
VPLANT MOL BIOL
p336
sg52
V55
p337
sg85
(lp338
(VMARE
VC
tp339
asg17
I2004
sg46
VLANT
p340
sbag1
(g2
g3
NtRp341
(dp342
g54
V10.1046/j.1432-1327.1999.00801.x
p343
sg50
VEUR J BIOCHEM
p344
sg52
V265
p345
sg85
(lp346
(VMIEGE
VC
tp347
asg17
I1999
sg46
V990
p348
sbag1
(g2
g3
NtRp349
(dp350
g54
V10.1023/A:1010684719225
p351
sg50
VPLANT MOL BIOL
p352
sg52
V45
p353
sg85
(lp354
(VNDONG
VC
tp355
asg17
I2001
sg46
VLANT
p356
sbag1
(g2
g3
NtRp357
(dp358
g54
V10.1023/A:1014875215580
p359
sg50
VPLANT MOL BIOL
p360
sg52
V48
p361
sg85
(lp362
(VOZTURK
VZ N
tp363
asg17
I2002
sg46
VLANT
p364
sbag1
(g2
g3
NtRp365
(dp366
g54
V10.1038/17624
p367
sg50
VNATURE
p368
sg52
V397
p369
sg85
(lp370
(VPFANNSCHMIDT
VT
tp371
asg17
I1999
sg46
V625
p372
sbag1
(g2
g3
NtRp373
(dp374
g54
V10.1074/jbc.M105701200
p375
sg50
VJ BIOL CHEM
p376
sg52
V276
p377
sg85
(lp378
(VPFANNSCHMIDT
VT
tp379
asg17
I2001
sg46
V36125
p380
sbag1
(g2
g3
NtRp381
(dp382
g54
V10.1105/tpc.6.1.65
p383
sg50
VPLANT CELL
p384
sg52
V6
sg85
(lp385
(VPRASAD
VT K
tp386
asg17
I1994
sg46
VLANT
p387
sbag1
(g2
g3
NtRp388
(dp389
g54
V10.1104/pp.103.021261
p390
sg50
VPLANT PHYSIOL
p391
sg52
V132
p392
sg85
(lp393
(VPROVART
VN J
tp394
asg17
I2003
sg46
VLANT
p395
sbag1
(g2
g3
NtRp396
(dp397
g54
V10.1104/pp.103.025742
p398
sg50
VPLANT PHYSIOL
p399
sg52
V133
p400
sg85
(lp401
(VRABBANI
VM A
tp402
asg17
I2003
sg46
VLANT
p403
sbag1
(g2
g3
NtRp404
(dp405
g54
V10.1093/bioinformatics/btf877
p406
sg50
VBIOINFORMATICS
p407
sg52
V19
p408
sg85
(lp409
(VREINER
VA
tp410
asg17
I2003
sg46
V368
p411
sbag1
(g2
g3
NtRp412
(dp413
g54
V10.1038/sj.embor.embor828
p414
sg50
VEMBO REP
p415
sg52
V4
sg85
(lp416
(VRICHLY
VE
tp417
asg17
I2003
sg46
V491
p418
sbag1
(g2
g3
NtRp419
(dp420
g54
Nsg50
VPLANT PHYSIOL
p421
sg52
V134
p422
sg85
(lp423
(VRIZHSKY
VL
tp424
asg17
I2004
sg46
VLANT
p425
sbag1
(g2
g3
NtRp426
(dp427
g54
V10.1104/pp.005595
p428
sg50
VPLANT PHYSIOL
p429
sg52
V130
p430
sg85
(lp431
(VROSSEL
VJ B
tp432
asg17
I2002
sg46
VLANT
p433
sbag1
(g2
g3
NtRp434
(dp435
g54
V10.1046/j.1365-313X.2002.01359.x
p436
sg50
VPLANT J
p437
sg52
V31
p438
sg85
(lp439
(VSEKI
VM
tp440
asg17
I2002
sg46
VLANT
p441
sbag1
(g2
g3
NtRp442
(dp443
g54
Nsg50
VPLANT CELL PHYSIOL
p444
sg52
V40
p445
sg85
(lp446
(VSHIMOSAKA
VE
tp447
asg17
I1999
sg46
VLANT
p448
sbag1
(g2
g3
NtRp449
(dp450
g54
V10.1016/S1369-5266(00)00067-4
p451
sg50
VCURR OPIN PLANT BIOL
p452
sg52
V3
sg85
(lp453
(VSHINOZAKI
VK
tp454
asg17
I2000
sg46
V217
p455
sbag1
(g2
g3
NtRp456
(dp457
g54
V10.1034/j.1399-3054.2001.1120204.x
p458
sg50
VPHYSIOL PLANTARUM
p459
sg52
V112
p460
sg85
(lp461
(VTHOMASHOW
VM F
tp462
asg17
I2001
sg46
VHYSIOL
p463
sbag1
(g2
g3
NtRp464
(dp465
g54
V10.1007/s00122-005-0144-7
p466
sg50
VTHEOR APPL GENET
p467
sg52
V112
p468
sg85
(lp469
(VTONDELLI
VA
tp470
asg17
I2006
sg46
V445
p471
sbag1
(g2
g3
NtRp472
(dp473
g54
V10.1007/s00438-003-0806-6
p474
sg50
VMOL GENET GENOMICS
p475
sg52
V269
p476
sg85
(lp477
(VVAGUJFALVI
VA
tp478
asg17
I2003
sg46
V60
p479
sbag1
(g2
g3
NtRp480
(dp481
g54
V10.1007/s00438-005-0047-y
p482
sg50
VMOL GENET GENOMICS
p483
sg52
V274
p484
sg85
(lp485
(VVAGUJFALVI
VA
tp486
asg17
I2005
sg46
V506
p487
sbag1
(g2
g3
NtRp488
(dp489
g54
V10.1111/j.1365-313X.2004.02288.x
p490
sg50
VPLANT J
p491
sg52
V41
p492
sg85
(lp493
(VVOGEL
VJ T
tp494
asg17
I2005
sg46
VLANT
p495
sbag1
(g2
g3
NtRp496
(dp497
g54
V10.1023/A:1025029026375
p498
sg50
VPLANT MOL BIOL
p499
sg52
V52
p500
sg85
(lp501
(VWANG
VH
tp502
asg17
I2003
sg46
VLANT
p503
sbag1
(g2
g3
NtRp504
(dp505
g54
V10.1104/pp.120.2.391
p506
sg50
VPLANT PHYSIOL
p507
sg52
V120
p508
sg85
(lp509
(VWANNER
VL A
tp510
asg17
I1999
sg46
VLANT
p511
sbag1
(g2
g3
NtRp512
(dp513
g54
V10.1104/pp.002725
p514
sg50
VPLANT PHYSIOL
p515
sg52
V129
p516
sg85
(lp517
(VXU
VC C
tp518
asg17
I2002
sg46
VLANT
p519
sbag1
(g2
g3
NtRp520
(dp521
g54
V10.1093/nar/gnf076
p522
sg50
VNUCLEIC ACIDS RES
p523
sg52
V30
p524
sg85
(lp525
(VXUE
VG P
tp526
asg17
I2002
sg46
Nsbag1
(g2
g3
NtRp527
(dp528
g54
V10.1046/j.1365-313X.2003.01630.x
p529
sg50
VPLANT J
p530
sg52
V33
p531
sg85
(lp532
(VXUE
VG P
tp533
asg17
I2003
sg46
VLANT
p534
sbag1
(g2
g3
NtRp535
(dp536
g54
V10.1007/s004380000299
p537
sg50
VMOL GEN GENET
p538
sg52
V264
p539
sg85
(lp540
(VZHU
VB
tp541
asg17
I2000
sg46
V145
p542
sbasb.