ccopy_reg
_reconstructor
p1
(ctethne.classes.paper
Paper
p2
c__builtin__
object
p3
NtRp4
(dp5
S'publisherCity'
p6
VROCKVILLE
p7
sS'reprintAddress'
p8
VVance, CP (reprint author), ARS, USDA, Plant Sci Res Unit, St Paul, MN 55108 USA.
p9
sS'WC'
p10
VPlant Sciences
p11
sS'GA'
p12
V081ZA
p13
sS'FX'
p14
(lp15
VThis work was supported by the U.S. Department of
p16
aVAgriculture-Agricultural Research Service (grant no. 3640-21000-028-00D)
p17
aVand the Hungarian-American Enterprise Scholarship Fund (to Z.B.).
p18
asS'abstract'
p19
VPhosphorus, in its orthophosphate form (P-i), is one of the most limiting macronutrients in soils for plant growth and development. However, the whole-genome molecular mechanisms contributing to plant acclimation to P-i deficiency remain largely unknown. White lupin (Lupinus albus) has evolved unique adaptations for growth in P-i-deficient soils, including the development of cluster roots to increase root surface area. In this study, we utilized RNA-Seq technology to assess global gene expression in white lupin cluster roots, normal roots, and leaves in response to P-i supply. We de novo assembled 277,224,180 Illumina reads from 12 complementary DNA libraries to build what is to our knowledge the first white lupin gene index (LAGI 1.0). This index contains 125,821 unique sequences with an average length of 1,155 bp. Of these sequences, 50,734 were transcriptionally active (reads per kilobase per million reads >= 3), representing approximately 7.8% of the white lupin genome, using the predicted genome size of Lupinus angustifolius as a reference. We identified a total of 2,128 sequences differentially expressed in response to P-i deficiency with a 2-fold or greater change and P <= 0.05. Twelve sequences were consistently differentially expressed due to P-i deficiency stress in three species, Arabidopsis (Arabidopsis thaliana), potato (Solanum tuberosum), and white lupin, making them ideal candidates to monitor the P-i status of plants. Additionally, classic physiological experiments were coupled with RNA-Seq data to examine the role of cytokinin and gibberellic acid in P-i deficiency-induced cluster root development. This global gene expression analysis provides new insights into the biochemical and molecular mechanisms involved in the acclimation to P-i deficiency.
p20
sS'pageEnd'
p21
I724
sS'date'
p22
I2013
sS'documentType'
p23
VArticle
p24
sS'subject'
p25
VPlant Sciences
p26
sS'isoSource'
p27
VPlant Physiol.
p28
sS'timesCited'
p29
(lp30
I2
aVZ9 2
p31
asS'funding'
p32
(lp33
(VU.S. Department of Agriculture-Agricultural Research Service
V3640-21000-028-00D
tp34
a(VHungarian-American Enterprise Scholarship Fund
Ntp35
asS'PT'
p36
VJ
sS'title'
p37
VAn Rna-Seq Transcriptome Analysis Of Orthophosphate-Deficient White Lupin Reveals Novel Insights Into Phosphorus Acclimation In Plants
p38
sS'ISSN'
p39
(lp40
V0032-0889
p41
aVJ9 PLANT PHYSIOL
p42
asS'authors_full'
p43
(lp44
(VOROURKE
VJAMIE A
tp45
a(VYANG
VS SAMUEL
tp46
a(VMILLER
VSUSAN S
tp47
a(VBUCCIARELLI
VBRUNA
tp48
a(VLIU
VJUNQI
tp49
a(VRYDEEN
VARIEL
tp50
a(VBOZSOKI
VZOLTAN
tp51
a(VUHDESTONE
VCLAUDIA
tp52
a(VTU
VZHENG JIN
tp53
a(VALLAN
VDEBORAH
tp54
a(VGRONWALD
VJOHN W
tp55
a(VVANCE
VCARROLL P
tp56
asS'PG'
p57
I20
sS'PD'
p58
VFEB
p59
sS'pageStart'
p60
I705
sS'issue'
p61
I2
sS'journal'
p62
VPLANT PHYSIOLOGY
p63
sS'volume'
p64
V161
p65
sS'doi'
p66
V10.1104/pp.112.209254
p67
sS'emailAddress'
p68
Vvance004@umn.edu
p69
sS'authorAddress'
p70
(lp71
V[O'Rourke, Jamie A.; Yang, S. Samuel; Miller, Susan S.; Bucciarelli, Bruna; Gronwald, John W.; Vance, Carroll P.] ARS, USDA, Plant Sci Res Unit, St Paul, MN 55108 USA.
p72
aV[O'Rourke, Jamie A.; Miller, Susan S.; Bucciarelli, Bruna; Liu, Junqi; Rydeen, Ariel; Gronwald, John W.; Vance, Carroll P.] Univ Minnesota, Dept Agron & Plant Genet, St Paul, MN 55108 USA.
p73
aV[Tu, Zheng Jin] Univ Minnesota, Supercomp Inst Adv Computat Res, St Paul, MN 55108 USA.
p74
aV[Allan, Deborah] Univ Minnesota, Dept Soil Water & Climate, St Paul, MN 55108 USA.
p75
aV[Bozsoki, Zoltan] Hungarian Acad Sci, Biol Res Ctr, Inst Genet, H-6726 Szeged, Hungary.
p76
aV[Uhde-Stone, Claudia] Calif State Univ Hayward, Dept Biol Sci, Hayward, CA 94542 USA.
p77
asS'publisherAddress'
p78
V15501 MONONA DRIVE, ROCKVILLE, MD 20855 USA
p79
sS'ER'
p80
V
sS'publisher'
p81
VAMER SOC PLANT BIOLOGISTS
p82
sS'authorKeywords'
p83
(lp84
VPHOSPHATE STARVATION RESPONSES
p85
aVGENOME-WIDE IDENTIFICATION
p86
aVCLUSTER ROOT ACCLIMATION
p87
aVINDUCED GENE-EXPRESSION
p88
aVE3 LIGASE SIZ1
p89
aVPROTEOID ROOTS
p90
aVALBUS L.
p91
aVARABIDOPSIS-THALIANA
p92
aVIRON HOMEOSTASIS
p93
aVPHASEOLUS-VULGARIS
p94
asS'language'
p95
VEnglish
p96
sS'wosid'
p97
VWOS:000314360100011
p98
sS'citationCount'
p99
I166
sS'authors_init'
p100
(lp101
(VOROURKE
VJ A
tp102
a(VYANG
VS S
tp103
a(VMILLER
VS S
tp104
a(VBUCCIARELLI
VB
tp105
a(VLIU
VJ Q
tp106
a(VRYDEEN
VA
tp107
a(VBOZSOKI
VZ
tp108
a(VUHDESTONE
VC
tp109
a(VTU
VZ J
tp110
a(VALLAN
VD
tp111
a(VGRONWALD
VJ W
tp112
a(VVANCE
VC P
tp113
asS'citedReferences'
p114
(lp115
g1
(g2
g3
NtRp116
(dp117
g66
V10.1042/BJ20090826
p118
sg62
VBIOCHEM J
p119
sg64
V423
p120
sg100
(lp121
(VALLAN
VW L
tp122
asg22
I2009
sg60
V15
p123
sbag1
(g2
g3
NtRp124
(dp125
g66
V10.1016/S0092-8674(01)00445-7
p126
sg62
VCELL
p127
sg64
V106
p128
sg100
(lp129
(VAMADOR
VV
tp130
asg22
I2001
sg60
V343
p131
sbag1
(g2
g3
NtRp132
(dp133
g66
V10.1186/gb-2010-11-10-r106
p134
sg62
VGENOME BIOL
p135
sg64
V11
p136
sg100
(lp137
(VANDERS
VS
tp138
asg22
I2010
sg60
Nsbag1
(g2
g3
NtRp139
(dp140
g66
V10.1016/S0014-5793(03)00109-1
p141
sg62
VFEBS LETT
p142
sg64
V537
p143
sg100
(lp144
(VANDERSSON
VM X
tp145
asg22
I2003
sg60
V128
p146
sbag1
(g2
g3
NtRp147
(dp148
g66
V10.1104/pp.106.079707
p149
sg62
VPLANT PHYSIOL
p150
sg64
V141
p151
sg100
(lp152
(VBARI
VR
tp153
asg22
I2006
sg60
VLANT
p154
sbag1
(g2
g3
NtRp155
(dp156
g66
V10.1093/bioinformatics/btp367
p157
sg62
VBIOINFORMATICS
p158
sg64
V25
p159
sg100
(lp160
(VBIROL
VI
tp161
asg22
I2009
sg60
V2872
p162
sbag1
(g2
g3
NtRp163
(dp164
g66
V10.1186/1471-2164-12-104
p165
sg62
VBMC GENOMICS
p166
sg64
V12
p167
sg100
(lp168
(VBLANCA
VJ
tp169
asg22
I2011
sg60
Nsbag1
(g2
g3
NtRp170
(dp171
g66
V10.1093/aob/mcp128
p172
sg62
VANN BOT
p173
sg64
V105
p174
sg100
(lp175
(VBRIAT
VJ F
tp176
asg22
I2010
sg60
V811
p177
sbag1
(g2
g3
NtRp178
(dp179
g66
V10.1128/JVI.06434-11
p180
sg62
VJ VIROL
p181
sg64
V86
p182
sg100
(lp183
(VBURKE
VG R
tp184
asg22
I2012
sg60
V3293
p185
sbag1
(g2
g3
NtRp186
(dp187
g66
V10.1093/jxb/erf013
p188
sg62
VJ EXP BOT
p189
sg64
V53
p190
sg100
(lp191
(VBURLEIGH
VS H
tp192
asg22
I2002
sg60
V1593
p193
sbag1
(g2
g3
NtRp194
(dp195
g66
V10.1093/jxb/45.9.1245
p196
sg62
VJ EXP BOT
p197
sg64
V45
p198
sg100
(lp199
(VCAKMAK
VI
tp200
asg22
I1994
sg60
V1245
p201
sbag1
(g2
g3
NtRp202
(dp203
g66
V10.1093/jxb/ern115
p204
sg62
VJ EXP BOT
p205
sg64
V59
p206
sg100
(lp207
(VCALDERON-VAZQUEZ
VC
tp208
asg22
I2008
sg60
V2479
p209
sbag1
(g2
g3
NtRp210
(dp211
g66
V10.1042/BJ20070102
p212
sg62
VBIOCHEM J
p213
sg64
V405
p214
sg100
(lp215
(VCHEN
VZ H
tp216
asg22
I2007
sg60
V191
p217
sbag1
(g2
g3
NtRp218
(dp219
g66
V10.1104/pp.111.175174
p220
sg62
VPLANT PHYSIOL
p221
sg64
V156
p222
sg100
(lp223
(VCHENG
VL Y
tp224
asg22
I2011
sg60
VLANT
p225
sbag1
(g2
g3
NtRp226
(dp227
g66
V10.1104/pp.111.173724
p228
sg62
VPLANT PHYSIOL
p229
sg64
V156
p230
sg100
(lp231
(VCHENG
VL Y
tp232
asg22
I2011
sg60
VLANT
p233
sbag1
(g2
g3
NtRp234
(dp235
g66
V10.1105/tpc.105.038943
p236
sg62
VPLANT CELL
p237
sg64
V18
p238
sg100
(lp239
(VCHIOU
VT J
tp240
asg22
I2006
sg60
VLANT
p241
sbag1
(g2
g3
NtRp242
(dp243
g66
V10.1146/annurev-arplant-042110-103849
p244
sg62
VANNU REV PLANT BIOL
p245
sg64
V62
p246
sg100
(lp247
(VCHIOU
VT J
tp248
asg22
I2011
sg60
V185
p249
sbag1
(g2
g3
NtRp250
(dp251
g66
V10.1016/j.gloenvcha.2008.10.009
p252
sg62
VGLOBAL ENVIRON CHANG
p253
sg64
V19
p254
sg100
(lp255
(VCORDELL
VD
tp256
asg22
I2009
sg60
V292
p257
sbag1
(g2
g3
NtRp258
(dp259
g66
V10.1104/pp.111.183178
p260
sg62
VPLANT PHYSIOL
p261
sg64
V157
p262
sg100
(lp263
(VCUI
VH C
tp264
asg22
I2011
sg60
VLANT
p265
sbag1
(g2
g3
NtRp266
(dp267
g66
V10.1104/pp.105.063743
p268
sg62
VPLANT PHYSIOL
p269
sg64
V139
p270
sg100
(lp271
(VCZECHOWSKI
VT
tp272
asg22
I2005
sg60
VLANT
p273
sbag1
(g2
g3
NtRp274
(dp275
g66
V10.1104/pp.107.101691
p276
sg62
VPLANT PHYSIOL
p277
sg64
V145
p278
sg100
(lp279
(VDEVAIAH
VB N
tp280
asg22
I2007
sg60
VLANT
p281
sbag1
(g2
g3
NtRp282
(dp283
g66
V10.1093/mp/ssn081
p284
sg62
VMOL PLANT
p285
sg64
V2
sg100
(lp286
(VDEVAIAH
VB N
tp287
asg22
I2009
sg60
V43
p288
sbag1
(g2
g3
NtRp289
(dp290
g66
V10.1111/j.1365-313X.2008.03460.x
p291
sg62
VPLANT J
p292
sg64
V54
p293
sg100
(lp294
(VDUAN
VK
tp295
asg22
I2008
sg60
VLANT
p296
sbag1
(g2
g3
NtRp297
(dp298
g66
V10.1093/dnares/dsr007
p299
sg62
VDNA RES
p300
sg64
V18
p301
sg100
(lp302
(VDUBEY
VA
tp303
asg22
I2011
sg60
V153
p304
sbag1
(g2
g3
NtRp305
(dp306
g66
V10.1073/pnas.0807043105
p307
sg62
VP NATL ACAD SCI USA
p308
sg64
V105
p309
sg100
(lp310
(VEISENHUT
VM
tp311
asg22
I2008
sg60
V17199
p312
sbag1
(g2
g3
NtRp313
(dp314
g66
V10.1093/jxb/erh009
p315
sg62
VJ EXP BOT
p316
sg64
V55
p317
sg100
(lp318
(VFRANCO-ZORRILLA
VJ M
tp319
asg22
I2004
sg60
V285
p320
sbag1
(g2
g3
NtRp321
(dp322
g66
V10.1186/1471-2164-12-227
p323
sg62
VBMC GENOMICS
p324
sg64
V12
p325
sg100
(lp326
(VFRANSSEN
VS U
tp327
asg22
I2011
sg60
Nsbag1
(g2
g3
NtRp328
(dp329
g66
V10.1016/j.cub.2005.10.016
p330
sg62
VCURR BIOL
p331
sg64
V15
p332
sg100
(lp333
(VFUJII
VH
tp334
asg22
I2005
sg60
V2038
p335
sbag1
(g2
g3
NtRp336
(dp337
g66
V10.1186/1471-2164-12-521
p338
sg62
VBMC GENOMICS
p339
sg64
V12
p340
sg100
(lp341
(VGAO
VL L
tp342
asg22
I2011
sg60
Nsbag1
(g2
g3
NtRp343
(dp344
g66
V10.1105/tpc.110.076828
p345
sg62
VPLANT CELL
p346
sg64
V22
p347
sg100
(lp348
(VGARCIA
VI
tp349
asg22
I2010
sg60
VLANT
p350
sbag1
(g2
g3
NtRp351
(dp352
g66
V10.1093/dnares/dsq028
p353
sg62
VDNA RES
p354
sg64
V18
p355
sg100
(lp356
(VGARG
VR
tp357
asg22
I2011
sg60
V53
p358
sbag1
(g2
g3
NtRp359
(dp360
g66
V10.1016/j.chemosphere.2011.01.062
p361
sg62
VCHEMOSPHERE
p362
sg64
V84
p363
sg100
(lp364
(VGAXIOLA
VR A
tp365
asg22
I2011
sg60
V840
p366
sbag1
(g2
g3
NtRp367
(dp368
g66
V10.1046/j.1365-3040.1999.00441.x
p369
sg62
VPLANT CELL ENVIRON
p370
sg64
V22
p371
sg100
(lp372
(VGILBERT
VG A
tp373
asg22
I1999
sg60
VLANT
p374
sbag1
(g2
g3
NtRp375
(dp376
g66
V10.1006/anbo.2000.1133
p377
sg62
VANN BOT
p378
sg64
V85
p379
sg100
(lp380
(VGILBERT
VG A
tp381
asg22
I2000
sg60
V921
p382
sbag1
(g2
g3
NtRp383
(dp384
g66
V10.1105/tpc.109.073239
p385
sg62
VPLANT CELL
p386
sg64
V22
p387
sg100
(lp388
(VGOU
VJ Q
tp389
asg22
I2010
sg60
VLANT
p390
sbag1
(g2
g3
NtRp391
(dp392
g66
V10.1038/nbt.1883
p393
sg62
VNAT BIOTECHNOL
p394
sg64
V29
p395
sg100
(lp396
(VGRABHERR
VM G
tp397
asg22
I2011
sg60
V644
p398
sbag1
(g2
g3
NtRp399
(dp400
g66
V10.1104/pp.104.045633
p401
sg62
VPLANT PHYSIOL
p402
sg64
V136
p403
sg100
(lp404
(VGREEN
VL S
tp405
asg22
I2004
sg60
VLANT
p406
sbag1
(g2
g3
NtRp407
(dp408
g66
V10.1186/1471-2164-12-454
p409
sg62
VBMC GENOMICS
p410
sg64
V12
p411
sg100
(lp412
(VGUO
VS G
tp413
asg22
I2011
sg60
Nsbag1
(g2
g3
NtRp414
(dp415
g66
V10.1371/journal.pone.0024606
p416
sg62
VPLOS ONE
p417
sg64
V6
sg100
(lp418
(VHAMMOND
VJ P
tp419
asg22
I2011
sg60
VLOS
p420
sbag1
(g2
g3
NtRp421
(dp422
g66
V10.1104/pp.111.175380
p423
sg62
VPLANT PHYSIOL
p424
sg64
V156
p425
sg100
(lp426
(VHAMMOND
VJ P
tp427
asg22
I2011
sg60
VLANT
p428
sbag1
(g2
g3
NtRp429
(dp430
g66
V10.1104/pp.103.020941
p431
sg62
VPLANT PHYSIOL
p432
sg64
V132
p433
sg100
(lp434
(VHAMMOND
VJ P
tp435
asg22
I2003
sg60
VLANT
p436
sbag1
(g2
g3
NtRp437
(dp438
g66
V10.1016/j.tplants.2006.10.007
p439
sg62
VTRENDS PLANT SCI
p440
sg64
V11
p441
sg100
(lp442
(VHERMANS
VC
tp443
asg22
I2006
sg60
V610
p444
sbag1
(g2
g3
NtRp445
(dp446
g66
V10.1104/pp.107.096958
p447
sg62
VPLANT PHYSIOL
p448
sg64
V144
p449
sg100
(lp450
(VHERNANDEZ
VG
tp451
asg22
I2007
sg60
VLANT
p452
sbag1
(g2
g3
NtRp453
(dp454
g66
V10.1016/j.biochi.2006.05.007
p455
sg62
VBIOCHIMIE
p456
sg64
V88
p457
sg100
(lp458
(VHIRSCH
VJ
tp459
asg22
I2006
sg60
V1767
p460
sbag1
(g2
g3
NtRp461
(dp462
g66
V10.1104/pp.109.147280
p463
sg62
VPLANT PHYSIOL
p464
sg64
V151
p465
sg100
(lp466
(VHSIEH
VL C
tp467
asg22
I2009
sg60
VLANT
p468
sbag1
(g2
g3
NtRp469
(dp470
g66
V10.1104/pp.110.155028
p471
sg62
VPLANT PHYSIOL
p472
sg64
V153
p473
sg100
(lp474
(VHUANG
VC F
tp475
asg22
I2010
sg60
VLANT
p476
sbag1
(g2
g3
NtRp477
(dp478
g66
V10.1101/gr.9.9.868
p479
sg62
VGENOME RES
p480
sg64
V9
sg100
(lp481
(VHUANG
VX Q
tp482
asg22
I1999
sg60
V868
p483
sbag1
(g2
g3
NtRp484
(dp485
g66
V10.1186/1471-2164-12-389
p486
sg62
VBMC GENOMICS
p487
sg64
V12
p488
sg100
(lp489
(VIORIZZO
VM
tp490
asg22
I2011
sg60
Nsbag1
(g2
g3
NtRp491
(dp492
g66
V10.1104/pp.106.092130
p493
sg62
VPLANT PHYSIOL
p494
sg64
V144
p495
sg100
(lp496
(VJAIN
VA
tp497
asg22
I2007
sg60
VLANT
p498
sbag1
(g2
g3
NtRp499
(dp500
g66
V10.1111/j.1432-1033.1993.tb17992.x
p501
sg62
VEUR J BIOCHEM
p502
sg64
V214
p503
sg100
(lp504
(VJANAVE
VM T
tp505
asg22
I1993
sg60
V889
p506
sbag1
(g2
g3
NtRp507
(dp508
g66
V10.1104/pp.107.103788
p509
sg62
VPLANT PHYSIOL
p510
sg64
V145
p511
sg100
(lp512
(VJIANG
VC F
tp513
asg22
I2007
sg60
VLANT
p514
sbag1
(g2
g3
NtRp515
(dp516
g66
Nsg62
VPLANT PHYSIOL
p517
sg64
V112
p518
sg100
(lp519
(VJOHNSON
VJ F
tp520
asg22
I1996
sg60
VLANT
p521
sbag1
(g2
g3
NtRp522
(dp523
g66
Nsg62
VPLANT PHYSIOL
p524
sg64
V104
p525
sg100
(lp526
(VJOHNSON
VJ F
tp527
asg22
I1994
sg60
VLANT
p528
sbag1
(g2
g3
NtRp529
(dp530
g66
V10.1016/j.molcel.2004.05.027
p531
sg62
VMOL CELL
p532
sg64
V14
p533
sg100
(lp534
(VJONES-RHOADES
VM W
tp535
asg22
I2004
sg60
V787
p536
sbag1
(g2
g3
NtRp537
(dp538
g66
V10.1186/1471-2164-12-265
p539
sg62
VBMC GENOMICS
p540
sg64
V12
p541
sg100
(lp542
(VKAUR
VS
tp543
asg22
I2011
sg60
Nsbag1
(g2
g3
NtRp544
(dp545
g66
V10.1104/pp.109.147033
p546
sg62
VPLANT PHYSIOL
p547
sg64
V151
p548
sg100
(lp549
(VKIDOKORO
VS
tp550
asg22
I2009
sg60
VLANT
p551
sbag1
(g2
g3
NtRp552
(dp553
g66
V10.1111/j.1399-3054.2010.01353.x
p554
sg62
VPHYSIOL PLANTARUM
p555
sg64
V139
p556
sg100
(lp557
(VKIM
VD Y
tp558
asg22
I2010
sg60
VHYSIOL
p559
sbag1
(g2
g3
NtRp560
(dp561
g66
V10.1111/j.1365-3040.2008.01886.x
p562
sg62
VPLANT CELL ENVIRON
p563
sg64
V31
p564
sg100
(lp565
(VKIM
VH J
tp566
asg22
I2008
sg60
VLANT
p567
sbag1
(g2
g3
NtRp568
(dp569
g66
V10.1016/j.tplants.2011.02.004
p570
sg62
VTRENDS PLANT SCI
p571
sg64
V16
p572
sg100
(lp573
(VKROUK
VG
tp574
asg22
I2011
sg60
V178
p575
sbag1
(g2
g3
NtRp576
(dp577
g66
V10.1104/pp.111.175265
p578
sg62
VPLANT PHYSIOL
p579
sg64
V156
p580
sg100
(lp581
(VKUO
VH F
tp582
asg22
I2011
sg60
VLANT
p583
sbag1
(g2
g3
NtRp584
(dp585
g66
V10.1038/nature05504
p586
sg62
VNATURE
p587
sg64
V445
p588
sg100
(lp589
(VKURAKAWA
VT
tp590
asg22
I2007
sg60
V652
p591
sbag1
(g2
g3
NtRp592
(dp593
g66
V10.1104/pp.111.174318
p594
sg62
VPLANT PHYSIOL
p595
sg64
V156
p596
sg100
(lp597
(VLAMBERS
VH
tp598
asg22
I2011
sg60
VLANT
p599
sbag1
(g2
g3
NtRp600
(dp601
g66
V10.1186/gb-2009-10-3-r25
p602
sg62
VGENOME BIOL
p603
sg64
V10
p604
sg100
(lp605
(VLANGMEAD
VB
tp606
asg22
I2009
sg60
Nsbag1
(g2
g3
NtRp607
(dp608
g66
V10.1105/tpc.107.055863
p609
sg62
VPLANT CELL
p610
sg64
V19
p611
sg100
(lp612
(VLAPLAZE
VL
tp613
asg22
I2007
sg60
VLANT
p614
sbag1
(g2
g3
NtRp615
(dp616
g66
V10.1111/j.1469-8137.2010.03555.x
p617
sg62
VNEW PHYTOL
p618
sg64
V189
p619
sg100
(lp620
(VLEI
VM G
tp621
asg22
I2011
sg60
V1084
p622
sbag1
(g2
g3
NtRp623
(dp624
g66
V10.1007/s11103-009-9580-0
p625
sg62
VPLANT MOL BIOL
p626
sg64
V72
p627
sg100
(lp628
(VLI
VL H
tp629
asg22
I2010
sg60
VLANT
p630
sbag1
(g2
g3
NtRp631
(dp632
g66
V10.1093/bioinformatics/btp336
p633
sg62
VBIOINFORMATICS
p634
sg64
V25
p635
sg100
(lp636
(VLI
VR Q
tp637
asg22
I2009
sg60
V1966
p638
sbag1
(g2
g3
NtRp639
(dp640
g66
V10.1093/bioinformatics/btl158
p641
sg62
VBIOINFORMATICS
p642
sg64
V22
p643
sg100
(lp644
(VLI
VW Z
tp645
asg22
I2006
sg60
V1658
p646
sbag1
(g2
g3
NtRp647
(dp648
g66
V10.1093/pcp/pcj082
p649
sg62
VPLANT CELL PHYSIOL
p650
sg64
V47
p651
sg100
(lp652
(VLI
VX
tp653
asg22
I2006
sg60
VLANT
p654
sbag1
(g2
g3
NtRp655
(dp656
g66
V10.1023/A:1013396825577
p657
sg62
VPLANT SOIL
p658
sg64
V237
p659
sg100
(lp660
(VLIU
VJ Q
tp661
asg22
I2001
sg60
VLANT
p662
sbag1
(g2
g3
NtRp663
(dp664
g66
V10.1104/pp010934
p665
sg62
VPLANT PHYSIOL
p666
sg64
V129
p667
sg100
(lp668
(VLOPEZ-BUCIO
VJ
tp669
asg22
I2002
sg60
VLANT
p670
sbag1
(g2
g3
NtRp671
(dp672
g66
V10.1034/j.1399-3054.1997.1000324.x
p673
sg62
VPHYSIOL PLANTARUM
p674
sg64
V100
p675
sg100
(lp676
(VLYNCH
VJ
tp677
asg22
I1997
sg60
VHYSIOL
p678
sbag1
(g2
g3
NtRp679
(dp680
g66
V10.1104/pp.111.175414
p681
sg62
VPLANT PHYSIOL
p682
sg64
V156
p683
sg100
(lp684
(VLYNCH
VJ P
tp685
asg22
I2011
sg60
VLANT
p686
sbag1
(g2
g3
NtRp687
(dp688
g66
V10.1104/pp.012161
p689
sg62
VPLANT PHYSIOL
p690
sg64
V131
p691
sg100
(lp692
(VMA
VZ
tp693
asg22
I2003
sg60
VLANT
p694
sbag1
(g2
g3
NtRp695
(dp696
g66
V10.1046/j.1365-3040.1999.00499.x
p697
sg62
VPLANT CELL ENVIRON
p698
sg64
V22
p699
sg100
(lp700
(VMACKERNESS
VS A H
tp701
asg22
I1999
sg60
VLANT
p702
sbag1
(g2
g3
NtRp703
(dp704
g66
V10.1016/S0981-9428(02)01459-6
p705
sg62
VPLANT PHYSIOL BIOCH
p706
sg64
V40
p707
sg100
(lp708
(VMALUSA
VE
tp709
asg22
I2002
sg60
VLANT
p710
sbag1
(g2
g3
NtRp711
(dp712
g66
Nsg62
VMINERAL NUTR HIGHER
p713
sg64
Nsg100
(lp714
(VMARSCHNER
VH
tp715
asg22
I1995
sg60
Nsbag1
(g2
g3
NtRp716
(dp717
g66
V10.1046/j.1365-313x.2000.00893.x
p718
sg62
VPLANT J
p719
sg64
V24
p720
sg100
(lp721
(VMARTIN
VA C
tp722
asg22
I2000
sg60
VLANT
p723
sbag1
(g2
g3
NtRp724
(dp725
g66
V10.1104/pp.126.4.1646
p726
sg62
VPLANT PHYSIOL
p727
sg64
V126
p728
sg100
(lp729
(VMASER
VP
tp730
asg22
I2001
sg60
VLANT
p731
sbag1
(g2
g3
NtRp732
(dp733
g66
V10.1007/s004250100529
p734
sg62
VPLANTA
p735
sg64
V213
p736
sg100
(lp737
(VMASSONNEAU
VA
tp738
asg22
I2001
sg60
VLANTA
p739
sbag1
(g2
g3
NtRp740
(dp741
g66
Nsg62
VAustralian Journal of Plant Physiology
p742
sg64
V3
sg100
(lp743
(VMENARY
VR C
tp744
asg22
I1976
sg60
V201
p745
sbag1
(g2
g3
NtRp746
(dp747
g66
V10.1104/pp.127.2.594
p748
sg62
VPLANT PHYSIOL
p749
sg64
V127
p750
sg100
(lp751
(VMILLER
VS S
tp752
asg22
I2001
sg60
VLANT
p753
sbag1
(g2
g3
NtRp754
(dp755
g66
V10.1073/pnas.0505266102
p756
sg62
VP NATL ACAD SCI USA
p757
sg64
V102
p758
sg100
(lp759
(VMISSON
VJ
tp760
asg22
I2005
sg60
V11934
p761
sbag1
(g2
g3
NtRp762
(dp763
g66
V10.1073/pnas.050078102
p764
sg62
VP NATL ACAD SCI USA
p765
sg64
V102
p766
sg100
(lp767
(VMIURA
VK
tp768
asg22
I2005
sg60
V7760
p769
sbag1
(g2
g3
NtRp770
(dp771
g66
V10.1186/1471-2164-11-681
p772
sg62
VBMC GENOMICS
p773
sg64
V11
p774
sg100
(lp775
(VMIZRACHI
VE
tp776
asg22
I2010
sg60
Nsbag1
(g2
g3
NtRp777
(dp778
g66
V10.1111/j.1365-3040.2006.01608.x
p779
sg62
VPLANT CELL ENVIRON
p780
sg64
V30
p781
sg100
(lp782
(VMORCUENDE
VR
tp783
asg22
I2007
sg60
VLANT
p784
sbag1
(g2
g3
NtRp785
(dp786
g66
V10.1038/nmeth.1226
p787
sg62
VNAT METHODS
p788
sg64
V5
sg100
(lp789
(VMORTAZAVI
VA
tp790
asg22
I2008
sg60
V621
p791
sbag1
(g2
g3
NtRp792
(dp793
g66
V10.1104/pp.106.090167
p794
sg62
VPLANT PHYSIOL
p795
sg64
V143
p796
sg100
(lp797
(VMULLER
VR
tp798
asg22
I2007
sg60
VLANT
p799
sbag1
(g2
g3
NtRp800
(dp801
g66
V10.1126/science.1158441
p802
sg62
VSCIENCE
p803
sg64
V320
p804
sg100
(lp805
(VNAGALAKSHMI
VU
tp806
asg22
I2008
sg60
V1344
p807
sbag1
(g2
g3
NtRp808
(dp809
g66
V10.1093/pcp/pcr186
p810
sg62
VPLANT CELL PHYSIOL
p811
sg64
V53
p812
sg100
(lp813
(VNAGARAJAN
VV K
tp814
asg22
I2012
sg60
VLANT
p815
sbag1
(g2
g3
NtRp816
(dp817
g66
V10.1007/s00122-006-0288-0
p818
sg62
VTHEOR APPL GENET
p819
sg64
V113
p820
sg100
(lp821
(VNELSON
VM N
tp822
asg22
I2006
sg60
V225
p823
sbag1
(g2
g3
NtRp824
(dp825
g66
V10.1016/S1360-1385(02)02241-0
p826
sg62
VTRENDS PLANT SCI
p827
sg64
V7
sg100
(lp828
(VNEUMANN
VG
tp829
asg22
I2002
sg60
V162
p830
sbag1
(g2
g3
NtRp831
(dp832
g66
V10.1006/anbo.2000.1135
p833
sg62
VANN BOT
p834
sg64
V85
p835
sg100
(lp836
(VNEUMANN
VG
tp837
asg22
I2000
sg60
V909
p838
sbag1
(g2
g3
NtRp839
(dp840
g66
V10.1111/j.1469-8137.2010.03417.x
p841
sg62
VNew Phytol
p842
sg64
V187
p843
sg100
(lp844
(VNEUMANN
VGUNTER
tp845
asg22
I2010
sg60
V879
p846
sbag1
(g2
g3
NtRp847
(dp848
g66
V10.1111/j.1399-3054.2010.01356.x
p849
sg62
VPHYSIOL PLANTARUM
p850
sg64
V139
p851
sg100
(lp852
(VNILSSON
VL
tp853
asg22
I2010
sg60
VHYSIOL
p854
sbag1
(g2
g3
NtRp855
(dp856
g66
V10.1105/tpc.107.050153
p857
sg62
VPLANT CELL
p858
sg64
V19
p859
sg100
(lp860
(VOH
VE
tp861
asg22
I2007
sg60
VLANT
p862
sbag1
(g2
g3
NtRp863
(dp864
g66
V10.1105/tpc.106.047761
p865
sg62
VPLANT CELL
p866
sg64
V19
p867
sg100
(lp868
(VOKUSHIMA
VY
tp869
asg22
I2007
sg60
VLANT
p870
sbag1
(g2
g3
NtRp871
(dp872
g66
V10.1016/j.tplants.2007.10.003
p873
sg62
VTRENDS PLANT SCI
p874
sg64
V12
p875
sg100
(lp876
(VPEER
VW A
tp877
asg22
I2007
sg60
V556
p878
sbag1
(g2
g3
NtRp879
(dp880
g66
V10.1105/tpc.108.058719
p881
sg62
VPLANT CELL
p882
sg64
V20
p883
sg100
(lp884
(VPEREZ-TORRES
VC A
tp885
asg22
I2008
sg60
VLANT
p886
sbag1
(g2
g3
NtRp887
(dp888
g66
V10.1093/dnares/dsm009
p889
sg62
VDNA RES
p890
sg64
V14
p891
sg100
(lp892
(VPHAN
VH T T
tp893
asg22
I2007
sg60
V59
p894
sbag1
(g2
g3
NtRp895
(dp896
g66
V10.1104/pp.111.175281
p897
sg62
VPLANT PHYSIOL
p898
sg64
V156
p899
sg100
(lp900
(VPLAXTON
VW C
tp901
asg22
I2011
sg60
VLANT
p902
sbag1
(g2
g3
NtRp903
(dp904
g66
V10.1146/annurev.arplant.50.1.665
p905
sg62
VANNU REV PLANT PHYS
p906
sg64
V50
p907
sg100
(lp908
(VRAGHOTHAMA
VK G
tp909
asg22
I1999
sg60
V665
p910
sbag1
(g2
g3
NtRp911
(dp912
g66
V10.1007/s11104-010-0373-7
p913
sg62
VPLANT SOIL
p914
sg64
V334
p915
sg100
(lp916
(VRATH
VM
tp917
asg22
I2010
sg60
VLANT
p918
sbag1
(g2
g3
NtRp919
(dp920
g66
V10.1111/j.1365-313X.2008.03698.x
p921
sg62
VPLANT J
p922
sg64
V57
p923
sg100
(lp924
(VRAVET
VK
tp925
asg22
I2009
sg60
VLANT
p926
sbag1
(g2
g3
NtRp927
(dp928
g66
V10.1111/j.1365-3040.2005.01405.x
p929
sg62
VPLANT CELL ENVIRON
p930
sg64
V29
p931
sg100
(lp932
(VREYMOND
VM
tp933
asg22
I2006
sg60
VLANT
p934
sbag1
(g2
g3
NtRp935
(dp936
g66
V10.1186/1471-2229-11-36
p937
sg62
VBMC PLANT BIOL
p938
sg64
V11
p939
sg100
(lp940
(VRODRIGUEZ-MEDINA
VC
tp941
asg22
I2011
sg60
Nsbag1
(g2
g3
NtRp942
(dp943
g66
V10.1105/tpc.111.088088
p944
sg62
VPLANT CELL
p945
sg64
V23
p946
sg100
(lp947
(VROSCHZTTARDTZ
VH
tp948
asg22
I2011
sg60
VLANT
p949
sbag1
(g2
g3
NtRp950
(dp951
g66
V10.1101/gad.204401
p952
sg62
VGENE DEV
p953
sg64
V15
p954
sg100
(lp955
(VRUBIO
VV
tp956
asg22
I2001
sg60
V2122
p957
sbag1
(g2
g3
NtRp958
(dp959
g66
V10.1007/s11103-008-9380-y
p960
sg62
VPLANT MOL BIOL
p961
sg64
V69
p962
sg100
(lp963
(VRUBIO
VV
tp964
asg22
I2009
sg60
VLANT
p965
sbag1
(g2
g3
NtRp966
(dp967
g66
V10.1073/pnas.0900060106
p968
sg62
VP NATL ACAD SCI USA
p969
sg64
V106
p970
sg100
(lp971
(VRUZICKA
VK
tp972
asg22
I2009
sg60
V4284
p973
sbag1
(g2
g3
NtRp974
(dp975
g66
Nsg62
VJ EXP BOT
p976
sg64
V30
p977
sg100
(lp978
(VSALAMA
VAMSEA
tp979
asg22
I1979
sg60
V971
p980
sbag1
(g2
g3
NtRp981
(dp982
g66
V10.1104/pp.105.073825
p983
sg62
VPLANT PHYSIOL
p984
sg64
V140
p985
sg100
(lp986
(VSANCHEZ-CALDERON
VL
tp987
asg22
I2006
sg60
VLANT
p988
sbag1
(g2
g3
NtRp989
(dp990
g66
V10.1016/S0168-9452(01)00373-9
p991
sg62
VPLANT SCI
p992
sg64
V160
p993
sg100
(lp994
(VSAS
VL
tp995
asg22
I2001
sg60
VLANT
p996
sbag1
(g2
g3
NtRp997
(dp998
g66
V10.1038/nprot.2008.73
p999
sg62
VNAT PROTOC
p1000
sg64
V3
sg100
(lp1001
(VSCHMITTGEN
VT D
tp1002
asg22
I2008
sg60
V1101
p1003
sbag1
(g2
g3
NtRp1004
(dp1005
g66
V10.1038/nature08670
p1006
sg62
VNATURE
p1007
sg64
V463
p1008
sg100
(lp1009
(VSCHMUTZ
VJ
tp1010
asg22
I2010
sg60
V178
p1011
sbag1
(g2
g3
NtRp1012
(dp1013
g66
V10.1093/bioinformatics/bts094
p1014
sg62
VBIOINFORMATICS
p1015
sg64
V28
p1016
sg100
(lp1017
(VSCHULZ
VM H
tp1018
asg22
I2012
sg60
V1086
p1019
sbag1
(g2
g3
NtRp1020
(dp1021
g66
V10.1093/aob/mcl154
p1022
sg62
VANN BOT
p1023
sg64
V98
p1024
sg100
(lp1025
(VSCHULZE
VJ
tp1026
asg22
I2006
sg60
V731
p1027
sbag1
(g2
g3
NtRp1028
(dp1029
g66
V10.1111/j.1469-8137.2011.04002.x
p1030
sg62
VNEW PHYTOL
p1031
sg64
V193
p1032
sg100
(lp1033
(VSECCO
VD
tp1034
asg22
I2012
sg60
V842
p1035
sbag1
(g2
g3
NtRp1036
(dp1037
g66
V10.1186/1471-2229-10-160
p1038
sg62
VBMC PLANT BIOL
p1039
sg64
V10
p1040
sg100
(lp1041
(VSEVERIN
VA J
tp1042
asg22
I2010
sg60
Nsbag1
(g2
g3
NtRp1043
(dp1044
g66
V10.1007/s11104-004-2725-7
p1045
sg62
VPLANT SOIL
p1046
sg64
V274
p1047
sg100
(lp1048
(VSHANE
VM W
tp1049
asg22
I2005
sg60
VLANT
p1050
sbag1
(g2
g3
NtRp1051
(dp1052
g66
V10.1104/pp.111.175232
p1053
sg62
VPLANT PHYSIOL
p1054
sg64
V156
p1055
sg100
(lp1056
(VSHEN
VJ B
tp1057
asg22
I2011
sg60
VLANT
p1058
sbag1
(g2
g3
NtRp1059
(dp1060
g66
V10.1093/pcp/pci145
p1061
sg62
VPLANT CELL PHYSIOL
p1062
sg64
V46
p1063
sg100
(lp1064
(VSHIN
VR
tp1065
asg22
I2005
sg60
VLANT
p1066
sbag1
(g2
g3
NtRp1067
(dp1068
g66
V10.1101/gr.089532.108
p1069
sg62
VGENOME RES
p1070
sg64
V19
p1071
sg100
(lp1072
(VSIMPSON
VJ T
tp1073
asg22
I2009
sg60
V1117
p1074
sbag1
(g2
g3
NtRp1075
(dp1076
g66
V10.1104/pp.109.145532
p1077
sg62
VPLANT PHYSIOL
p1078
sg64
V152
p1079
sg100
(lp1080
(VSMITH
VA P
tp1081
asg22
I2010
sg60
VLANT
p1082
sbag1
(g2
g3
NtRp1083
(dp1084
g66
V10.1093/dnares/dsr014
p1085
sg62
VDNA RES
p1086
sg64
V18
p1087
sg100
(lp1088
(VSRIVASTAVA
VA
tp1089
asg22
I2011
sg60
V253
p1090
sbag1
(g2
g3
NtRp1091
(dp1092
g66
V10.1105/tpc.104.022830
p1093
sg62
VPLANT CELL
p1094
sg64
V16
p1095
sg100
(lp1096
(VSUNKAR
VR
tp1097
asg22
I2004
sg60
VLANT
p1098
sbag1
(g2
g3
NtRp1099
(dp1100
g66
V10.1016/j.semcdb.2010.04.001
p1101
sg62
VSEMIN CELL DEV BIOL
p1102
sg64
V21
p1103
sg100
(lp1104
(VSUNKAR
VR
tp1105
asg22
I2010
sg60
V805
p1106
sbag1
(g2
g3
NtRp1107
(dp1108
g66
V10.1038/ng2041
p1109
sg62
VNAT GENET
p1110
sg64
V39
p1111
sg100
(lp1112
(VSVISTOONOFF
VS
tp1113
asg22
I2007
sg60
V792
p1114
sbag1
(g2
g3
NtRp1115
(dp1116
g66
V10.1080/07352680500196108
p1117
sg62
VCRIT REV PLANT SCI
p1118
sg64
V24
p1119
sg100
(lp1120
(VTANIMOTO
VE
tp1121
asg22
I2005
sg60
V249
p1122
sbag1
(g2
g3
NtRp1123
(dp1124
g66
V10.1111/j.1365-313X.2010.04375.x
p1125
sg62
VPLANT J
p1126
sg64
V64
p1127
sg100
(lp1128
(VTHIBAUD
VM C
tp1129
asg22
I2010
sg60
VLANT
p1130
sbag1
(g2
g3
NtRp1131
(dp1132
g66
V10.1111/j.1365-313X.2004.02016.x
p1133
sg62
VPLANT J
p1134
sg64
V37
p1135
sg100
(lp1136
(VTHIMM
VO
tp1137
asg22
I2004
sg60
VLANT
p1138
sbag1
(g2
g3
NtRp1139
(dp1140
g66
V10.1104/pp.104.040279
p1141
sg62
VPLANT PHYSIOL
p1142
sg64
V135
p1143
sg100
(lp1144
(VTHOMAS
VS G
tp1145
asg22
I2004
sg60
VLANT
p1146
sbag1
(g2
g3
NtRp1147
(dp1148
g66
V10.1186/1471-2229-9-1
p1149
sg62
VBMC PLANT BIOL
p1150
sg64
V9
sg100
(lp1151
(VTIAN
VL
tp1152
asg22
I2009
sg60
Nsbag1
(g2
g3
NtRp1153
(dp1154
g66
V10.1111/j.1365-3040.2009.01938.x
p1155
sg62
VPLANT CELL ENVIRON
p1156
sg64
V32
p1157
sg100
(lp1158
(VTOMASI
VN
tp1159
asg22
I2009
sg60
VLANT
p1160
sbag1
(g2
g3
NtRp1161
(dp1162
g66
V10.1002/pmic.200800350
p1163
sg62
VPROTEOMICS
p1164
sg64
V9
sg100
(lp1165
(VTORABI
VS
tp1166
asg22
I2009
sg60
VROTEOMICS
p1167
sbag1
(g2
g3
NtRp1168
(dp1169
g66
V10.1146/annurev.pp.27.060176.002251
p1170
sg62
VANNU REV PLANT PHYS
p1171
sg64
V27
p1172
sg100
(lp1173
(VTORREY
VJ G
tp1174
asg22
I1976
sg60
V435
p1175
sbag1
(g2
g3
NtRp1176
(dp1177
g66
V10.1104/pp.102.016881
p1178
sg62
VPLANT PHYSIOL
p1179
sg64
V131
p1180
sg100
(lp1181
(VUHDE-STONE
VC
tp1182
asg22
I2003
sg60
VLANT
p1183
sbag1
(g2
g3
NtRp1184
(dp1185
g66
V10.1111/j.1365-313X.2005.02573.x
p1186
sg62
VPLANT J
p1187
sg64
V44
p1188
sg100
(lp1189
(VUHDE-STONE
VC
tp1190
asg22
I2005
sg60
VLANT
p1191
sbag1
(g2
g3
NtRp1192
(dp1193
g66
V10.1186/1471-2105-7-535
p1194
sg62
VBMC BIOINFORMATICS
p1195
sg64
V7
sg100
(lp1196
(VUSADEL
VB
tp1197
asg22
I2006
sg60
Nsbag1
(g2
g3
NtRp1198
(dp1199
g66
V10.1111/j.1469-8137.2010.03320.x
p1200
sg62
VNEW PHYTOL
p1201
sg64
V187
p1202
sg100
(lp1203
(VVALDES-LOPEZ
VO
tp1204
asg22
I2010
sg60
V805
p1205
sbag1
(g2
g3
NtRp1206
(dp1207
g66
V10.1046/j.1469-8137.2003.00695.x
p1208
sg62
VNEW PHYTOL
p1209
sg64
V157
p1210
sg100
(lp1211
(VVANCE
VC P
tp1212
asg22
I2003
sg60
V423
p1213
sbag1
(g2
g3
NtRp1214
(dp1215
g66
V10.1111/j.1469-8137.2007.02206.x
p1216
sg62
VNEW PHYTOL
p1217
sg64
V176
p1218
sg100
(lp1219
(VWANG
VB L
tp1220
asg22
I2007
sg60
V581
p1221
sbag1
(g2
g3
NtRp1222
(dp1223
g66
V10.1093/pcp/pcq004
p1224
sg62
VPLANT CELL PHYSIOL
p1225
sg64
V51
p1226
sg100
(lp1227
(VWANG
VX M
tp1228
asg22
I2010
sg60
VLANT
p1229
sbag1
(g2
g3
NtRp1230
(dp1231
g66
V10.1104/pp.008854
p1232
sg62
VPLANT PHYSIOL
p1233
sg64
V130
p1234
sg100
(lp1235
(VWANG
VY H
tp1236
asg22
I2002
sg60
VLANT
p1237
sbag1
(g2
g3
NtRp1238
(dp1239
g66
V10.1186/1471-2164-11-726
p1240
sg62
VBMC GENOMICS
p1241
sg64
V11
p1242
sg100
(lp1243
(VWANG
VZ Y
tp1244
asg22
I2010
sg60
Nsbag1
(g2
g3
NtRp1245
(dp1246
g66
V10.1104/pp.108.118562
p1247
sg62
VPLANT PHYSIOL
p1248
sg64
V147
p1249
sg100
(lp1250
(VWARD
VJ T
tp1251
asg22
I2008
sg60
VLANT
p1252
sbag1
(g2
g3
NtRp1253
(dp1254
g66
V10.1105/tpc.109.072694
p1255
sg62
VPLANT CELL
p1256
sg64
V22
p1257
sg100
(lp1258
(VWERNER
VT
tp1259
asg22
I2010
sg60
VLANT
p1260
sbag1
(g2
g3
NtRp1261
(dp1262
g66
V10.1073/pnas.171304098
p1263
sg62
VP NATL ACAD SCI USA
p1264
sg64
V98
p1265
sg100
(lp1266
(VWERNER
VT
tp1267
asg22
I2001
sg60
V10487
p1268
sbag1
(g2
g3
NtRp1269
(dp1270
g66
V10.1007/s11103-011-9811-z
p1271
sg62
VPLANT MOL BIOL
p1272
sg64
V77
p1273
sg100
(lp1274
(VXIA
VZ H
tp1275
asg22
I2011
sg60
VLANT
p1276
sbag1
(g2
g3
NtRp1277
(dp1278
g66
V10.3835/plantgenome2009.03.0014
p1279
sg62
VPLANT GENOME
p1280
sg64
V2
sg100
(lp1281
(VYANG
VS S
tp1282
asg22
I2009
sg60
VLANT
p1283
sbag1
(g2
g3
NtRp1284
(dp1285
g66
V10.1186/1471-2164-12-199
p1286
sg62
VBMC GENOMICS
p1287
sg64
V12
p1288
sg100
(lp1289
(VYANG
VS S
tp1290
asg22
I2011
sg60
Nsbag1
(g2
g3
NtRp1291
(dp1292
g66
V10.1105/tpc.108.060913
p1293
sg62
VPLANT CELL
p1294
sg64
V20
p1295
sg100
(lp1296
(VLO
VS F
tp1297
asg22
I2008
sg60
VLANT
p1298
sbag1
(g2
g3
NtRp1299
(dp1300
g66
V10.1093/aob/mcq015
p1301
sg62
VANN BOT
p1302
sg64
V105
p1303
sg100
(lp1304
(VYANG
VX J
tp1305
asg22
I2010
sg60
V513
p1306
sbag1
(g2
g3
NtRp1307
(dp1308
g66
V10.1007/s00425-010-1311-x
p1309
sg62
VPLANTA
p1310
sg64
V233
p1311
sg100
(lp1312
(VYAO
VY A
tp1313
asg22
I2011
sg60
VLANTA
p1314
sbag1
(g2
g3
NtRp1315
(dp1316
g66
V10.1104/pp.105.063115
p1317
sg62
VPLANT PHYSIOL
p1318
sg64
V138
p1319
sg100
(lp1320
(VYI
VK K
tp1321
asg22
I2005
sg60
VLANT
p1322
sbag1
(g2
g3
NtRp1323
(dp1324
g66
V10.1105/tpc.104.023614
p1325
sg62
VPLANT CELL
p1326
sg64
V16
p1327
sg100
(lp1328
(VYOO
VB C
tp1329
asg22
I2004
sg60
VLANT
p1330
sbag1
(g2
g3
NtRp1331
(dp1332
g66
V10.1073/pnas.082696499
p1333
sg62
VP NATL ACAD SCI USA
p1334
sg64
V99
p1335
sg100
(lp1336
(VYU
VB
tp1337
asg22
I2002
sg60
V5732
p1338
sbag1
(g2
g3
NtRp1339
(dp1340
g66
V10.1038/cr.2008.26
p1341
sg62
VCELL RES
p1342
sg64
V18
p1343
sg100
(lp1344
(VYUAN
VY X
tp1345
asg22
I2008
sg60
V385
p1346
sbag1
(g2
g3
NtRp1347
(dp1348
g66
V10.1101/gr.074492.107
p1349
sg62
VGENOME RES
p1350
sg64
V18
p1351
sg100
(lp1352
(VZERBINO
VD R
tp1353
asg22
I2008
sg60
V821
p1354
sbag1
(g2
g3
NtRp1355
(dp1356
g66
V10.1093/jxb/erm114
p1357
sg62
VJ EXP BOT
p1358
sg64
V58
p1359
sg100
(lp1360
(VZHANG
VH M
tp1361
asg22
I2007
sg60
V2329
p1362
sbag1
(g2
g3
NtRp1363
(dp1364
g66
V10.1016/j.molcel.2010.12.011
p1365
sg62
VMOL CELL
p1366
sg64
V40
p1367
sg100
(lp1368
(VZHAO
VJ
tp1369
asg22
I2010
sg60
V939
p1370
sbag1
(g2
g3
NtRp1371
(dp1372
g66
V10.1104/pp.109.141051
p1373
sg62
VPLANT PHYSIOL
p1374
sg64
V151
p1375
sg100
(lp1376
(VZHENG
VL Q
tp1377
asg22
I2009
sg60
VLANT
p1378
sbag1
(g2
g3
NtRp1379
(dp1380
g66
V10.1073/pnas.0907670106
p1381
sg62
VP NATL ACAD SCI USA
p1382
sg64
V106
p1383
sg100
(lp1384
(VZHONG
VS W
tp1385
asg22
I2009
sg60
V21431
p1386
sbag1
(g2
g3
NtRp1387
(dp1388
g66
V10.1093/jxb/ern130
p1389
sg62
VJ EXP BOT
p1390
sg64
V59
p1391
sg100
(lp1392
(VZHOU
VK
tp1393
asg22
I2008
sg60
V2749
p1394
sbag1
(g2
g3
NtRp1395
(dp1396
g66
Nsg62
VPLANT SCI
p1397
sg64
V178
p1398
sg100
(lp1399
(VZHU
VY
tp1400
asg22
I2009
sg60
VLANT
p1401
sbag1
(g2
g3
NtRp1402
(dp1403
g66
V10.1093/pcp/pci094
p1404
sg62
VPLANT CELL PHYSIOL
p1405
sg64
V46
p1406
sg100
(lp1407
(VZHU
VY Y
tp1408
asg22
I2005
sg60
VLANT
p1409
sbasb.