ccopy_reg
_reconstructor
p1
(ctethne.classes.paper
Paper
p2
c__builtin__
object
p3
NtRp4
(dp5
S'publisherCity'
p6
VROCKVILLE
p7
sS'reprintAddress'
p8
VSchenk, PM (reprint author), Univ Queensland, Cooperat Res Ctr Trop Plant Protect, St Lucia, Qld 4072, Australia.
p9
sS'WC'
p10
VPlant Sciences
p11
sS'GA'
p12
V744QX
p13
sS'abstract'
p14
VThe ATP-binding cassette (ABC) transporters are encoded by large gene families in plants. Although these proteins are potentially involved in a number of diverse plant processes, currently, very little is known about their actual functions. In this paper, through a cDNA microarray screening of anonymous cDNA clones from a subtractive library, we identified an Arabidopsis gene (AtPDR12) putatively encoding a member of the pleiotropic drug resistance (PDR) subfamily of ABC transporters. AtPDR12 displayed distinct induction profiles after inoculation of plants with compatible and incompatible fungal pathogens and treatments with salicylic acid, ethylene, or methyl jasmonate. Analysis of AtPDR12 expression in a number of Arabidopsis defense signaling mutants further revealed that salicylic acid accumulation, NPR1. function, and sensitivity to jasmonates and ethylene were all required for pathogen-responsive expression of AtPDR12. Germination assays using seeds from an AtPDR12 insertion line in the presence of sclareol resulted in lower germination rates and much stronger inhibition of root elongation in the AtPDR12 insertion line than in wild-type plants. These results suggest that AtPDR12 may be functionally related to the previously identified ABC transporters SpTUR2 and NpABC1, which transport sclareol. Our data also point to a potential role for terpenoids in the Arabidopsis defensive armory.
p15
sS'pageEnd'
p16
I1284
sS'publisherAddress'
p17
V15501 MONONA DRIVE, ROCKVILLE, MD 20855 USA
p18
sS'documentType'
p19
VArticle
p20
sS'subject'
p21
VPlant Sciences
p22
sS'isoSource'
p23
VPlant Physiol.
p24
sS'timesCited'
p25
(lp26
I84
aVZ9 89
p27
asS'PT'
p28
VJ
sS'title'
p29
VPathogen-Responsive Expression Of A Putative Atp-Binding Cassette Transporter Gene Conferring Resistance To The Diterpenoid Sclareol Is Regulated By Multiple Defense Signaling Pathways In Arabidopsis
p30
sS'ISSN'
p31
(lp32
V0032-0889
p33
aVJ9 PLANT PHYSIOL
p34
asS'authors_full'
p35
(lp36
(VCAMPBELL
VEJ
tp37
a(VSCHENK
VPM
tp38
a(VKAZAN
VK
tp39
a(VPENNINCKX
VIAMA
tp40
a(VANDERSON
VJP
tp41
a(VMACLEAN
VDJ
tp42
a(VCAMMUE
VBPA
tp43
a(VEBERT
VPR
tp44
a(VMANNERS
VJM
tp45
asS'PG'
p46
I13
sS'PD'
p47
VNOV
p48
sS'pageStart'
p49
I1272
sS'issue'
p50
I3
sS'RI'
p51
(lp52
VManners, John/A-4922-2008; Anderson, Jonathan/A-7244-2008; Kazan,
p53
aVKemal/B-8032-2008
p54
asS'journal'
p55
VPLANT PHYSIOLOGY
p56
sS'volume'
p57
V133
p58
sS'doi'
p59
V10.1104/pp.103.024182
p60
sS'authorAddress'
p61
(lp62
VUniv Queensland, Cooperat Res Ctr Trop Plant Protect, St Lucia, Qld 4072, Australia.
p63
aVUniv Queensland, Dept Biochem & Mol Biol, St Lucia, Qld 4072, Australia.
p64
aVCommonwealth Sci & Ind Res Org Plant Ind, Queensland Biosci Precinct, St Lucia, Qld 4067, Australia.
p65
aVKatholieke Univ Leuven, Ctr Microbial & Plant Genet, B-3001 Louvain, Belgium.
p66
asS'date'
p67
I2003
sS'ER'
p68
V
sS'publisher'
p69
VAMER SOC PLANT BIOLOGISTS
p70
sS'authorKeywords'
p71
(lp72
VSYSTEMIC ACQUIRED-RESISTANCE
p73
aVABC TRANSPORTER
p74
aVSALICYLIC-ACID
p75
aVMULTIDRUG-RESISTANCE
p76
aVPSEUDOMONAS-SYRINGAE
p77
aVMICROARRAY ANALYSIS
p78
aVDISEASE RESISTANCE
p79
aVBOTRYTIS-CINEREA
p80
aVJASMONIC ACID
p81
aVCELL-DEATH
p82
asS'language'
p83
VEnglish
p84
sS'wosid'
p85
VWOS:000186644600032
p86
sS'citationCount'
p87
I55
sS'authors_init'
p88
(lp89
(VCAMPBELL
VE J
tp90
a(VSCHENK
VP M
tp91
a(VKAZAN
VK
tp92
a(VPENNINCKX
VIAMA
tp93
a(VANDERSON
VJ P
tp94
a(VMACLEAN
VD J
tp95
a(VCAMMUE
VB P A
tp96
a(VEBERT
VP R
tp97
a(VMANNERS
VJ M
tp98
asS'citedReferences'
p99
(lp100
g1
(g2
g3
NtRp101
(dp102
g59
V10.1007/s00438-002-0709-y
p103
sg55
VMOL GENET GENOMICS
p104
sg57
V267
p105
sg88
(lp106
(VAUBOURG
VS
tp107
asg67
I2002
sg49
V730
p108
sbag1
(g2
g3
NtRp109
(dp110
g59
Nsg55
VJ GEN MICROBIOL
p111
sg57
V85
p112
sg88
(lp113
(VBAILEY
VJ A
tp114
asg67
I1974
sg49
V57
p115
sbag1
(g2
g3
NtRp116
(dp117
g59
V10.1105/tpc.9.9.1573
p118
sg55
VPLANT CELL
p119
sg57
V9
sg88
(lp120
(VBOWLING
VS A
tp121
asg67
I1997
sg49
VLANT
p122
sbag1
(g2
g3
NtRp123
(dp124
g59
V10.1104/pp.102.017814
p125
sg55
VPLANT PHYSIOL
p126
sg57
V132
p127
sg88
(lp128
(VBROWN
VR L
tp129
asg67
I2003
sg49
VLANT
p130
sbag1
(g2
g3
NtRp131
(dp132
g59
V10.1104/pp.009175
p133
sg55
VPLANT PHYSIOL
p134
sg57
V130
p135
sg88
(lp136
(VCHARRIER
VB
tp137
asg67
I2002
sg49
VLANT
p138
sbag1
(g2
g3
NtRp139
(dp140
g59
V10.1105/tpc.007989
p141
sg55
VPLANT CELL
p142
sg57
V15
p143
sg88
(lp144
(VCHEN
VF
tp145
asg67
I2003
sg49
VLANT
p146
sbag1
(g2
g3
NtRp147
(dp148
g59
V10.1105/tpc.12.11.2175
p149
sg55
VPLANT CELL
p150
sg57
V12
p151
sg88
(lp152
(VCLARKE
VJ D
tp153
asg67
I2000
sg49
VLANT
p154
sbag1
(g2
g3
NtRp155
(dp156
g59
V10.1016/S1360-1385(97)01019-4
p157
sg55
VTRENDS PLANT SCI
p158
sg57
V2
sg88
(lp159
(VCOLEMAN
VJ O D
tp160
asg67
I1997
sg49
V144
p161
sbag1
(g2
g3
NtRp162
(dp163
g59
Nsg55
VPLANT CELL PHYSIOL
p164
sg57
V18
p165
sg88
(lp166
(VCUTLER
VH G
tp167
asg67
I1977
sg49
VLANT
p168
sbag1
(g2
g3
NtRp169
(dp170
g59
V10.1046/j.1365-3040.2000.00577.x
p171
sg55
VPLANT CELL ENVIRON
p172
sg57
V23
p173
sg88
(lp174
(VDAVIES
VT G E
tp175
asg67
I2000
sg49
VLANT
p176
sbag1
(g2
g3
NtRp177
(dp178
g59
V10.1104/pp.127.1.159
p179
sg55
VPLANT PHYSIOL
p180
sg57
V127
p181
sg88
(lp182
(VDESIKAN
VR
tp183
asg67
I2001
sg49
VLANT
p184
sbag1
(g2
g3
NtRp185
(dp186
g59
V10.1046/j.1365-313X.2002.01300.x
p187
sg55
VPLANT J
p188
sg57
V30
p189
sg88
(lp190
(VDEVADAS
VS K
tp191
asg67
I2002
sg49
VLANT
p192
sbag1
(g2
g3
NtRp193
(dp194
g59
V10.1016/1369-5266(88)80053-0
p195
sg55
VCURR OPIN PLANT BIOL
p196
sg57
V1
sg88
(lp197
(VDONG
VX N
tp198
asg67
I1998
sg49
V316
p199
sbag1
(g2
g3
NtRp200
(dp201
g59
V10.1046/j.1365-313x.2000.00923.x
p202
sg55
VPLANT J
p203
sg57
V24
p204
sg88
(lp205
(VDU
VL Q
tp206
asg67
I2000
sg49
VLANT
p207
sbag1
(g2
g3
NtRp208
(dp209
g59
V10.1007/BF02671663
p210
sg55
VPLANT MOL BIOL REP
p211
sg57
V14
p212
sg88
(lp213
(VEGGERMONT
VK
tp214
asg67
I1996
sg49
VLANT
p215
sbag1
(g2
g3
NtRp216
(dp217
g59
V10.1016/S0168-9525(00)02107-7
p218
sg55
VTRENDS GENET
p219
sg57
V16
p220
sg88
(lp221
(VFEYS
VB J
tp222
asg67
I2000
sg49
V449
p223
sbag1
(g2
g3
NtRp224
(dp225
g59
V10.1094/MPMI.2002.15.2.102
p226
sg55
VMOL PLANT MICROBE IN
p227
sg57
V15
p228
sg88
(lp229
(VFLEISSNER
VA
tp230
asg67
I2002
sg49
V102
p231
sbag1
(g2
g3
NtRp232
(dp233
g59
V10.1093/emboj/20.8.1875
p234
sg55
VEMBO J
p235
sg57
V20
p236
sg88
(lp237
(VGAEDEKE
VN
tp238
asg67
I2001
sg49
V1875
p239
sbag1
(g2
g3
NtRp240
(dp241
g59
V10.1046/j.1365-313X.2003.01792.x
p242
sg55
VPLANT J
p243
sg57
V35
p244
sg88
(lp245
(VGREC
VS
tp246
asg67
I2003
sg49
VLANT
p247
sbag1
(g2
g3
NtRp248
(dp249
g59
V10.1128/AEM.68.10.4996-5004.2002
p250
sg55
VAPPL ENVIRON MICROB
p251
sg57
V68
p252
sg88
(lp253
(VHAYASHI
VK
tp254
asg67
I2002
sg49
V4996
p255
sbag1
(g2
g3
NtRp256
(dp257
g59
V10.1104/pp.102.014720
p258
sg55
VPLANT PHYSIOL
p259
sg57
V131
p260
sg88
(lp261
(VJASINSKI
VM
tp262
asg67
I2003
sg49
VLANT
p263
sbag1
(g2
g3
NtRp264
(dp265
g59
V10.1105/tpc.13.5.1095
p266
sg55
VPLANT CELL
p267
sg57
V13
p268
sg88
(lp269
(VJASINSKI
VM
tp270
asg67
I2001
sg49
VLANT
p271
sbag1
(g2
g3
NtRp272
(dp273
g59
V10.1023/A:1006332708388
p274
sg55
VPLANT MOL BIOL
p275
sg57
V42
p276
sg88
(lp277
(VKLINEDINST
VS
tp278
asg67
I2000
sg49
VLANT
p279
sbag1
(g2
g3
NtRp280
(dp281
g59
V10.1016/S1369-5266(02)00275-3
p282
sg55
VCURR OPIN PLANT BIOL
p283
sg57
V5
sg88
(lp284
(VKUNKEL
VB N
tp285
asg67
I2002
sg49
V325
p286
sbag1
(g2
g3
NtRp287
(dp288
g59
V10.1074/jbc.M108777200
p289
sg55
VJ BIOL CHEM
p290
sg57
V277
p291
sg88
(lp292
(VLI
VL G
tp293
asg67
I2002
sg49
V5360
p294
sbag1
(g2
g3
NtRp295
(dp296
g59
V10.1073/pnas.042692199
p297
sg55
VP NATL ACAD SCI USA
p298
sg57
V99
p299
sg88
(lp300
(VLOGEMANN
VE
tp301
asg67
I2002
sg49
V2428
p302
sbag1
(g2
g3
NtRp303
(dp304
g59
V10.1038/82521
p305
sg55
VNAT GENET
p306
sg57
V26
p307
sg88
(lp308
(VMALECK
VK
tp309
asg67
I2000
sg49
V403
p310
sbag1
(g2
g3
NtRp311
(dp312
g59
V10.1104/pp.012781
p313
sg55
VPLANT PHYSIOL
p314
sg57
V131
p315
sg88
(lp316
(VMLADEK
VC
tp317
asg67
I2003
sg49
VLANT
p318
sbag1
(g2
g3
NtRp319
(dp320
g59
V10.1071/FP02231
p321
sg55
VFUNCT PLANT BIOL
p322
sg57
V30
p323
sg88
(lp324
(VMOHR
VP G
tp325
asg67
I2003
sg49
V461
p326
sbag1
(g2
g3
NtRp327
(dp328
g59
V10.1094/MPMI.2002.15.6.557
p329
sg55
VMOL PLANT MICROBE IN
p330
sg57
V15
p331
sg88
(lp332
(VMURRAY
VS L
tp333
asg67
I2002
sg49
V557
p334
sbag1
(g2
g3
NtRp335
(dp336
g59
Nsg55
VAPPL ENVIRON MICROB
p337
sg57
V64
p338
sg88
(lp339
(VNAKAUNE
VR
tp340
asg67
I1998
sg49
V3983
p341
sbag1
(g2
g3
NtRp342
(dp343
g59
V10.1105/tpc.13.11.2441
p344
sg55
VPLANT CELL
p345
sg57
V13
p346
sg88
(lp347
(VNOH
VB
tp348
asg67
I2001
sg49
VLANT
p349
sbag1
(g2
g3
NtRp350
(dp351
g59
V10.1104/pp.005280
p352
sg55
VPLANT PHYSIOL
p353
sg57
V129
p354
sg88
(lp355
(VORSEL
VM
tp356
asg67
I2002
sg49
VLANT
p357
sbag1
(g2
g3
NtRp358
(dp359
g59
V10.1016/S0092-8674(00)00213-0
p360
sg55
VCELL
p361
sg57
V103
p362
sg88
(lp363
(VPETERSEN
VM
tp364
asg67
I2000
sg49
V1111
p365
sbag1
(g2
g3
NtRp366
(dp367
g59
Nsg55
VGENETICS
p368
sg57
V161
p369
sg88
(lp370
(VRAIRDAN
VG J
tp371
asg67
I2002
sg49
V803
p372
sbag1
(g2
g3
NtRp373
(dp374
g59
V10.1105/tpc.11.9.1695
p375
sg55
VPLANT CELL
p376
sg57
V11
p377
sg88
(lp378
(VRATE
VD N
tp379
asg67
I1999
sg49
VLANT
p380
sbag1
(g2
g3
NtRp381
(dp382
g59
V10.1046/j.0960-7412.2001.1075umedoc.x
p383
sg55
VPLANT J
p384
sg57
V27
p385
sg88
(lp386
(VRATE
VD N
tp387
asg67
I2001
sg49
VLANT
p388
sbag1
(g2
g3
NtRp389
(dp390
g59
Nsg55
VCURR OPIN PLANT BIOL
p391
sg57
V1
sg88
(lp392
(VREYMOND
VP
tp393
asg67
I1998
sg49
V401
p394
sbag1
(g2
g3
NtRp395
(dp396
g59
V10.1016/S1369-5266(99)00049-7
p397
sg55
VCURR OPIN PLANT BIOL
p398
sg57
V3
sg88
(lp399
(VRICHMOND
VT
tp400
asg67
I2000
sg49
V108
p401
sbag1
(g2
g3
NtRp402
(dp403
g59
V10.1016/S0014-5793(02)02697-2
p404
sg55
VFEBS LETT
p405
sg57
V518
p406
sg88
(lp407
(VSASABE
VM
tp408
asg67
I2002
sg49
V164
p409
sbag1
(g2
g3
NtRp410
(dp411
g59
V10.1105/tpc.13.1.113
p412
sg55
VPLANT CELL
p413
sg57
V13
p414
sg88
(lp415
(VSCHAFFER
VR
tp416
asg67
I2001
sg49
VLANT
p417
sbag1
(g2
g3
NtRp418
(dp419
g59
V10.1073/pnas.97.21.11655
p420
sg55
VP NATL ACAD SCI USA
p421
sg57
V97
p422
sg88
(lp423
(VSCHENK
VP M
tp424
asg67
I2000
sg49
V11655
p425
sbag1
(g2
g3
NtRp426
(dp427
g59
Nsg55
VPLANT PHYSIOL
p428
sg57
V132
p429
sg88
(lp430
(VSCHENK
VP M
tp431
asg67
I2003
sg49
VLANT
p432
sbag1
(g2
g3
NtRp433
(dp434
g59
V10.1094/MPMI.2001.14.4.562
p435
sg55
VMOL PLANT MICROBE IN
p436
sg57
V14
p437
sg88
(lp438
(VSCHOONBEEK
VH
tp439
asg67
I2001
sg49
V562
p440
sbag1
(g2
g3
NtRp441
(dp442
g59
V10.1105/tpc.13.1.61
p443
sg55
VPLANT CELL
p444
sg57
V13
p445
sg88
(lp446
(VSEKI
VM
tp447
asg67
I2001
sg49
VLANT
p448
sbag1
(g2
g3
NtRp449
(dp450
g59
V10.1105/tpc.010231
p451
sg55
VPLANT CELL
p452
sg57
V15
p453
sg88
(lp454
(VSEO
VS
tp455
asg67
I2003
sg49
VLANT
p456
sbag1
(g2
g3
NtRp457
(dp458
g59
V10.1046/j.1365-313x.2001.00992.x
p459
sg55
VPLANT J
p460
sg57
V25
p461
sg88
(lp462
(VSHAH
VJ
tp463
asg67
I2001
sg49
VLANT
p464
sbag1
(g2
g3
NtRp465
(dp466
g59
V10.1104/pp.013029
p467
sg55
VPLANT PHYSIOL
p468
sg57
V131
p469
sg88
(lp470
(VSHIMADA
VY
tp471
asg67
I2003
sg49
VLANT
p472
sbag1
(g2
g3
NtRp473
(dp474
g59
V10.1105/tpc.10.10.1623
p475
sg55
VPLANT CELL
p476
sg57
V10
p477
sg88
(lp478
(VSIDLER
VM
tp479
asg67
I1998
sg49
VLANT
p480
sbag1
(g2
g3
NtRp481
(dp482
g59
V10.1093/nar/23.6.1087
p483
sg55
VNUCLEIC ACIDS RES
p484
sg57
V23
p485
sg88
(lp486
(VSIEBERT
VP D
tp487
asg67
I1995
sg49
V1087
p488
sbag1
(g2
g3
NtRp489
(dp490
g59
V10.1016/S0952-7915(00)00183-7
p491
sg55
VCURR OPIN IMMUNOL
p492
sg57
V13
p493
sg88
(lp494
(VTHOMMA
VBPHJ
tp495
asg67
I2001
sg49
V63
p496
sbag1
(g2
g3
NtRp497
(dp498
g59
V10.1093/emboj/18.3.512
p499
sg55
VEMBO J
p500
sg57
V18
p501
sg88
(lp502
(VURBAN
VM
tp503
asg67
I1999
sg49
V512
p504
sbag1
(g2
g3
NtRp505
(dp506
g59
V10.1007/s00425-002-0889-z
p507
sg55
VPLANTA
p508
sg57
V216
p509
sg88
(lp510
(VVAN
VD E N BRULE S
tp511
asg67
I2002
sg49
VLANTA
p512
sbag1
(g2
g3
NtRp513
(dp514
g59
V10.1046/j.1365-313X.2002.01321.x
p515
sg55
VPLANT J
p516
sg57
V30
p517
sg88
(lp518
(VVAN
VD E N BRULE S
tp519
asg67
I2002
sg49
VLANT
p520
sbag1
(g2
g3
NtRp521
(dp522
g59
V10.1105/tpc.13.7.1527
p523
sg55
VPLANT CELL
p524
sg57
V13
p525
sg88
(lp526
(VYU
VD Q
tp527
asg67
I2001
sg49
VLANT
p528
sbasb.