ccopy_reg
_reconstructor
p1
(ctethne.classes.paper
Paper
p2
c__builtin__
object
p3
NtRp4
(dp5
S'publisherCity'
p6
VROCKVILLE
p7
sS'reprintAddress'
p8
VBown, AW (reprint author), Brock Univ, Dept Biol Sci, St Catharines, ON L2S 3A1, Canada.
p9
sS'WC'
p10
VPlant Sciences
p11
sS'GA'
p12
V186PJ
p13
sS'abstract'
p14
VThe C-protein activator mastoparan (MP) was found to elicit the hypersensitive response (HR) in isolated Asparagus sprengeri mesophyll cells at micromolar concentrations. The HR was characterized by cell death, extracellular alkalinization, and an oxidative burst, indicated by the reduction of molecular O-2 to O-2(.-). To our knowledge, this study was the first to monitor photosynthesis during the HR. MP had rapid and dramatic effects on photosynthetic electron transport and excitation energy transfer as determined by variable chlorophyll a fluorescence measurements. A large increase in nonphotochemical quenching of chlorophyll a fluorescence accompanied the initial stages of the oxidative burst. The minimal level of fluorescence was also quenched, which suggests the origin of this nonphotochemical quenching to be a decrease in the antenna size of photosystem II. In contrast, photochemical quenching of fluorescence decreased dramatically during the latter stages of the oxidative burst, indicating a somewhat slower inhibition of photosystem II electron transport. The net consumption of O-2 and the initial rate of O-2 uptake, elicited by MP, were higher in the light than in the dark. These data indicate that light enhances the oxidative burst and suggest a complex relationship between photosynthesis and the HR.
p15
sS'pageEnd'
p16
I1241
sS'publisherAddress'
p17
V15501 MONONA DRIVE, ROCKVILLE, MD 20855 USA
p18
sS'documentType'
p19
VArticle
p20
sS'subject'
p21
VPlant Sciences
p22
sS'isoSource'
p23
VPlant Physiol.
p24
sS'timesCited'
p25
(lp26
I25
aVZ9 26
p27
asS'PT'
p28
VJ
sS'title'
p29
VThe Relationship Between Photosynthesis And A Mastoparan-Induced Hypersensitive Response In Isolated Mesophyll Cells
p30
sS'ISSN'
p31
(lp32
V0032-0889
p33
aVJ9 PLANT PHYSIOL
p34
asS'authors_full'
p35
(lp36
(VALLEN
VLJ
tp37
a(VMACGREGOR
VKB
tp38
a(VKOOP
VRS
tp39
a(VBRUCE
VDH
tp40
a(VKARNER
VJ
tp41
a(VBOWN
VAW
tp42
asS'PG'
p43
I9
sS'PD'
p44
VAPR
p45
sS'pageStart'
p46
I1233
sS'issue'
p47
I4
sS'journal'
p48
VPLANT PHYSIOLOGY
p49
sS'volume'
p50
V119
p51
sS'doi'
p52
V10.1104/pp.119.4.1233
p53
sS'authorAddress'
p54
VBrock Univ, Dept Biol Sci, St Catharines, ON L2S 3A1, Canada.
p55
sS'date'
p56
I1999
sS'ER'
p57
V
sS'publisher'
p58
VAMER SOC PLANT PHYSIOLOGISTS
p59
sS'authorKeywords'
p60
(lp61
VPLANT DEFENSE RESPONSES
p62
aVOXIDATIVE BURST
p63
aVCHLOROPHYLL FLUORESCENCE
p64
aVINOSITOL 1,4,5-TRISPHOSPHATE
p65
aVLIPID-PEROXIDATION
p66
aVSALICYLIC-ACID
p67
aVWASP VENOM
p68
aVACTIVATION
p69
aVMEMBRANE
p70
aVELICITORS
p71
asS'language'
p72
VEnglish
p73
sS'wosid'
p74
VWOS:000079737900009
p75
sS'citationCount'
p76
I42
sS'authors_init'
p77
(lp78
(VALLEN
VL J
tp79
a(VMACGREGOR
VK B
tp80
a(VKOOP
VR S
tp81
a(VBRUCE
VD H
tp82
a(VKARNER
VJ
tp83
a(VBOWN
VA W
tp84
asS'citedReferences'
p85
(lp86
g1
(g2
g3
NtRp87
(dp88
g52
V10.1104/pp.79.3.843
p89
sg48
VPLANT PHYSIOL
p90
sg50
V79
p91
sg77
(lp92
(VATKINSON
VM M
tp93
asg56
I1985
sg46
VLANT
p94
sbag1
(g2
g3
NtRp95
(dp96
g52
Nsg48
V2ND MESSENGERS PLANT
p97
sg50
Nsg77
(lp98
(VBOLLER
VT
tp99
asg56
I1989
sg46
V227
p100
sbag1
(g2
g3
NtRp101
(dp102
g52
V10.3109/10715769509065273
p103
sg48
VFREE RADICAL RES
p104
sg50
V23
p105
sg77
(lp106
(VBOLWELL
VG P
tp107
asg56
I1995
sg46
V517
p108
sbag1
(g2
g3
NtRp109
(dp110
g52
V10.1021/bi962216c
p111
sg48
VBIOCHEMISTRY
p112
sg50
V36
p113
sg77
(lp114
(VBRUCE
VD
tp115
asg56
I1997
sg46
V749
p116
sbag1
(g2
g3
NtRp117
(dp118
g52
Nsg48
VPLANT PHYSIOL
p119
sg50
V110
p120
sg77
(lp121
(VCHANDRA
VS
tp122
asg56
I1996
sg46
VLANT
p123
sbag1
(g2
g3
NtRp124
(dp125
g52
V10.1104/pp.107.3.845
p126
sg48
VPLANT PHYSIOL
p127
sg50
V107
p128
sg77
(lp129
(VCHO
VM H
tp130
asg56
I1995
sg46
VLANT
p131
sbag1
(g2
g3
NtRp132
(dp133
g52
Nsg48
VCAN J BOT
p134
sg50
V57
p135
sg77
(lp136
(VCOLMAN
VB
tp137
asg56
I1979
sg46
V1505
p138
sbag1
(g2
g3
NtRp139
(dp140
g52
V10.1016/0048-4059(83)90019-X
p141
sg48
VPHYSIOL PLANT PATHOL
p142
sg50
V23
p143
sg77
(lp144
(VDOKE
VN
tp145
asg56
I1983
sg46
VHYSIOL
p146
sbag1
(g2
g3
NtRp147
(dp148
g52
V10.1006/bbrc.1994.2727
p149
sg48
VBIOCHEM BIOPH RES CO
p150
sg50
V205
p151
sg77
(lp152
(VDROBAK
VB K
tp153
asg56
I1994
sg46
V739
p154
sbag1
(g2
g3
NtRp155
(dp156
g52
Nsg48
VINT REV CYTOL
p157
sg50
V148
p158
sg77
(lp159
(VEBEL
VJ
tp160
asg56
I1994
sg46
V1
sbag1
(g2
g3
NtRp161
(dp162
g52
Nsg48
VPLANT CELL
p163
sg50
V10
p164
sg77
(lp165
(VGENOUD
VT
tp166
asg56
I1998
sg46
VLANT
p167
sbag1
(g2
g3
NtRp168
(dp169
g52
Nsg48
VBIOCHIM BIOPHYS ACTA
p170
sg50
V990
p171
sg77
(lp172
(VGENTY
VB
tp173
asg56
I1989
sg46
V87
p174
sbag1
(g2
g3
NtRp175
(dp176
g52
Nsg48
VPLANT PHYSIOL
p177
sg50
V107
p178
sg77
(lp179
(VGRANADO
VJ
tp180
asg56
I1995
sg46
VLANT
p181
sbag1
(g2
g3
NtRp182
(dp183
g52
V10.1105/tpc.8.10.1773
p184
sg48
VPLANT CELL
p185
sg50
V8
sg77
(lp186
(VHAMMONDKOSACK
VK E
tp187
asg56
I1996
sg46
VLANT
p188
sbag1
(g2
g3
NtRp189
(dp190
g52
Nsg48
VJ BIOL CHEM
p191
sg50
V263
p192
sg77
(lp193
(VHIGASHIJIMA
VT
tp194
asg56
I1988
sg46
V6491
p195
sbag1
(g2
g3
NtRp196
(dp197
g52
V10.1016/0014-5793(83)80385-8
p198
sg48
VFEBS LETT
p199
sg50
V152
p200
sg77
(lp201
(VHIGASHIJIMA
VT
tp202
asg56
I1983
sg46
V227
p203
sbag1
(g2
g3
NtRp204
(dp205
g52
Nsg48
VJ BIOL CHEM
p206
sg50
V265
p207
sg77
(lp208
(VHIGASHIJIMA
VT
tp209
asg56
I1990
sg46
V14176
p210
sbag1
(g2
g3
NtRp211
(dp212
g52
V10.1007/BF01277001
p213
sg48
VPROTOPLASMA
p214
sg50
V135
p215
sg77
(lp216
(VHUANG
VC N
tp217
asg56
I1986
sg46
VROTOPLASMA
p218
sbag1
(g2
g3
NtRp219
(dp220
g52
V10.1073/pnas.94.9.4800
p221
sg48
VP NATL ACAD SCI USA
p222
sg50
V94
p223
sg77
(lp224
(VJABS
VT
tp225
asg56
I1997
sg46
V4800
p226
sbag1
(g2
g3
NtRp227
(dp228
g52
Nsg48
VCAN J BOT
p229
sg50
V73
p230
sg77
(lp231
(VJOHAL
VG S
tp232
asg56
I1995
sg46
VS468
p233
sbag1
(g2
g3
NtRp234
(dp235
g52
Nsg48
VPLANT CELL
p236
sg50
V7
sg77
(lp237
(VJONES
VD L
tp238
asg56
I1995
sg46
VLANT
p239
sbag1
(g2
g3
NtRp240
(dp241
g52
Nsg48
VPLANT PHYSIOL
p242
sg50
V111
p243
sg77
(lp244
(VKAUSS
VH
tp245
asg56
I1996
sg46
VLANT
p246
sbag1
(g2
g3
NtRp247
(dp248
g52
Nsg48
VPLANT PHYSIOL
p249
sg50
V108
p250
sg77
(lp251
(VKAUSS
VH
tp252
asg56
I1995
sg46
VLANT
p253
sbag1
(g2
g3
NtRp254
(dp255
g52
V10.1094/Phyto-76-104
p256
sg48
VPHYTOPATHOLOGY
p257
sg50
V76
p258
sg77
(lp259
(VKEPPLER
VL D
tp260
asg56
I1986
sg46
VHYTOPATHOLOGY
p261
sbag1
(g2
g3
NtRp262
(dp263
g52
Nsg48
VPLANTA
p264
sg50
V198
p265
sg77
(lp266
(VKIM
VH Y
tp267
asg56
I1996
sg46
VLANTA
p268
sbag1
(g2
g3
NtRp269
(dp270
g52
Nsg48
VCAN J RES C
p271
sg50
V26
p272
sg77
(lp273
(VLANGFORD
VA N
tp274
asg56
I1948
sg46
V35
p275
sbag1
(g2
g3
NtRp276
(dp277
g52
Nsg48
VJ BIOL CHEM
p278
sg50
V267
p279
sg77
(lp280
(VLEGENDRE
VL
tp281
asg56
I1992
sg46
V20140
p282
sbag1
(g2
g3
NtRp283
(dp284
g52
Nsg48
VPLANT PHYSIOL
p285
sg50
V102
p286
sg77
(lp287
(VLEGENDRE
VL
tp288
asg56
I1993
sg46
VLANT
p289
sbag1
(g2
g3
NtRp290
(dp291
g52
V10.1016/0092-8674(94)90544-4
p292
sg48
VCELL
p293
sg50
V79
p294
sg77
(lp295
(VLEVINE
VA
tp296
asg56
I1994
sg46
V583
p297
sbag1
(g2
g3
NtRp298
(dp299
g52
V10.1104/pp.83.3.691
p300
sg48
VPLANT PHYSIOL
p301
sg50
V83
p302
sg77
(lp303
(VMCCUTCHEON
VS L
tp304
asg56
I1987
sg46
VLANT
p305
sbag1
(g2
g3
NtRp306
(dp307
g52
Nsg48
VPLANT PHYSIOL
p308
sg50
V105
p309
sg77
(lp310
(VMEHDY
VM C
tp311
asg56
I1994
sg46
VLANT
p312
sbag1
(g2
g3
NtRp313
(dp314
g52
Nsg48
VPLANT PHYSIOL
p315
sg50
V102
p316
sg77
(lp317
(VMORRE
VD J
tp318
asg56
I1993
sg46
VLANT
p319
sbag1
(g2
g3
NtRp320
(dp321
g52
Nsg48
VPLANT PHYSIOL
p322
sg50
V110
p323
sg77
(lp324
(VMURPHY
VT M
tp325
asg56
I1996
sg46
VLANT
p326
sbag1
(g2
g3
NtRp327
(dp328
g52
Nsg48
VZ NATURFORSCH C
p329
sg50
V44
p330
sg77
(lp331
(VNEUBAUER
VC
tp332
asg56
I1989
sg46
V262
p333
sbag1
(g2
g3
NtRp334
(dp335
g52
V10.1104/pp.90.3.867
p336
sg48
VPLANT PHYSIOL
p337
sg50
V90
p338
sg77
(lp339
(VPEEVER
VT L
tp340
asg56
I1989
sg46
VLANT
p341
sbag1
(g2
g3
NtRp342
(dp343
g52
Nsg48
VPLANT CELL
p344
sg50
V9
sg77
(lp345
(VPUGIN
VA
tp346
asg56
I1997
sg46
VLANT
p347
sbag1
(g2
g3
NtRp348
(dp349
g52
Nsg48
VMETHOD ENZYMOL
p350
sg50
V237
p351
sg77
(lp352
(VROSS
VE M
tp353
asg56
I1994
sg46
V26
p354
sbag1
(g2
g3
NtRp355
(dp356
g52
Nsg48
VZ NATURFORSCH C
p357
sg50
V46
p358
sg77
(lp359
(VSCHREIBER
VU
tp360
asg56
I1991
sg46
V635
p361
sbag1
(g2
g3
NtRp362
(dp363
g52
Nsg48
VPLANT PHYSIOL
p364
sg50
V111
p365
sg77
(lp366
(VTUCKER
VE B
tp367
asg56
I1996
sg46
VLANT
p368
sbag1
(g2
g3
NtRp369
(dp370
g52
Nsg48
VPHOTOSYNTH RES
p371
sg50
V25
p372
sg77
(lp373
(VVANKOOTEN
VO
tp374
asg56
I1990
sg46
VHOTOSYNTH
p375
sbag1
(g2
g3
NtRp376
(dp377
g52
V10.1111/j.1751-1097.1981.tb09053.x
p378
sg48
VPHOTOCHEM PHOTOBIOL
p379
sg50
V34
p380
sg77
(lp381
(VVIDAVER
VW
tp382
asg56
I1981
sg46
VHOTOCHEM
p383
sbag1
(g2
g3
NtRp384
(dp385
g52
Nsg48
VPLANT CELL CULTURE P
p386
sg50
Nsg77
(lp387
(VWITHERS
VL A
tp388
asg56
I1985
sg46
VLANT
p389
sbasb.