ccopy_reg
_reconstructor
p1
(ctethne.classes.paper
Paper
p2
c__builtin__
object
p3
NtRp4
(dp5
S'publisherCity'
p6
VROCKVILLE
p7
sS'reprintAddress'
p8
VBrendel, V (reprint author), Iowa State Univ, Dept Genet Dev & Cell Biol, 2112 Mol Biol Bldg, Ames, IA 50011 USA.
p9
sS'WC'
p10
VPlant Sciences
p11
sS'GA'
p12
V805IQ
p13
sS'pageEnd'
p14
I889
sS'publisherAddress'
p15
V15501 MONONA DRIVE, ROCKVILLE, MD 20855 USA
p16
sS'documentType'
p17
VArticle
p18
sS'subject'
p19
VPlant Sciences
p20
sS'isoSource'
p21
VPlant Physiol.
p22
sS'timesCited'
p23
(lp24
I2
aVZ9 2
p25
asS'PT'
p26
VJ
sS'title'
p27
VPlant Genome Research Outreach Portal. A Gateway To Plant Genome Research "'Outreach" Programs And Activities
p28
sS'ISSN'
p29
(lp30
V0032-0889
p31
aVJ9 PLANT PHYSIOL
p32
asS'authors_full'
p33
(lp34
(VBARAN
VSB
tp35
a(VLAWRENCE
VCJ
tp36
a(VBRENDEL
VV
tp37
asS'PG'
p38
I1
sS'PD'
p39
VMAR
p40
sS'pageStart'
p41
I889
sS'issue'
p42
I3
sS'journal'
p43
VPLANT PHYSIOLOGY
p44
sS'volume'
p45
V134
p46
sS'emailAddress'
p47
Vvbrendel@iastate.edu
p48
sS'authorAddress'
p49
VIowa State Univ, Dept Genet Dev & Cell Biol, Ames, IA 50011 USA.
p50
sS'date'
p51
I2004
sS'ER'
p52
V
sS'publisher'
p53
VAMER SOC PLANT BIOLOGISTS
p54
sS'doi'
p55
V10.1104/pp.103.038414
p56
sS'language'
p57
VEnglish
p58
sS'wosid'
p59
VWOS:000220360400002
p60
sS'citationCount'
p61
I0
sS'authors_init'
p62
(lp63
(VBARAN
VS B
tp64
a(VLAWRENCE
VC J
tp65
a(VBRENDEL
VV
tp66
asb.