ccopy_reg
_reconstructor
p1
(ctethne.classes.paper
Paper
p2
c__builtin__
object
p3
NtRp4
(dp5
S'publisherCity'
p6
VROCKVILLE
p7
sS'reprintAddress'
p8
VHsieh, HL (reprint author), Natl Taiwan Univ, Inst Plant Biol, Coll Life Sci, Taipei 106, Taiwan.
p9
sS'WC'
p10
VPlant Sciences
p11
sS'GA'
p12
V688FA
p13
sS'FX'
p14
(lp15
VThis work was supported by the National Science Council (grant no. NSC
p16
aV94-2311-B-002-001), Taiwan.
p17
asS'abstract'
p18
VGlutathione S-transferases (GSTs) have been well documented to be involved in diverse aspects of biotic and abiotic stresses, especially detoxification processes. Whether they regulate plant development remains unclear. Here, we report on our isolation by reverse transcription-polymerase chain reaction of a plant GST, AtGSTU17, from Arabidopsis (Arabidopsis thaliana) and demonstrate that its expression is regulated by multiple photoreceptors, especially phytochrome A (phyA) under all light conditions. Further physiological studies indicated that AtGSTU17 participates in various aspects of seedling development, including hypocotyl elongation, anthocyanin accumulation, and far-red light-mediated inhibition of greening with a requirement of functional phyA. The loss-of-function mutant of AtGSTU17 (atgstu17) resulted in reduced biomass of seedlings and number of lateral roots in the presence of auxin, as well as insensitivity to abscisic acid (ABA)-mediated inhibition of root elongation, with similarity to different phyA mutant alleles. Moreover, the root phenotype conferred by atgstu17 was reflected by histochemical beta-glucuronidase staining of AtGSTU17 promoter activity with the addition of auxin or ABA. Further microarray analysis of wild-type Columbia and atgstu17 seedlings treated with far-red irradiation or ABA revealed that AtGSTU17 might modulate hypocotyl elongation by positively regulating some light-signaling components and negatively regulating a group of auxin-responsive genes and modulate root development by negatively controlling an auxin transport protein in the presence of ABA. Therefore, our data reveal that AtGSTU17 participates in light signaling and might modulate various aspects of Arabidopsis development by affecting glutathione pools via a coordinated regulation with phyA and phytohormones.
p19
sS'pageEnd'
p20
I1658
sS'date'
p21
I2010
sS'documentType'
p22
VArticle
p23
sS'subject'
p24
VPlant Sciences
p25
sS'isoSource'
p26
VPlant Physiol.
p27
sS'timesCited'
p28
(lp29
I9
aVZ9 10
p30
asS'funding'
p31
(lp32
(VNational Science Council, Taiwan
VNSC 94-2311-B-002-001
tp33
asS'PT'
p34
VJ
sS'title'
p35
VA Glutathione S-Transferase Regulated By Light And Hormones Participates In The Modulation Of Arabidopsis Seedling Development
p36
sS'ISSN'
p37
(lp38
V0032-0889
p39
aVJ9 PLANT PHYSIOL
p40
asS'authors_full'
p41
(lp42
(VJIANG
VHANWEI
tp43
a(VLIU
VMINGJUNG
tp44
a(VCHEN
VINGCHIEN
tp45
a(VHUANG
VCHIUNGHUEI
tp46
a(VCHAO
VLIYA
tp47
a(VHSIEH
VHSULIANG
tp48
asS'PG'
p49
I13
sS'PD'
p50
VDEC
p51
sS'pageStart'
p52
I1646
sS'issue'
p53
I4
sS'journal'
p54
VPLANT PHYSIOLOGY
p55
sS'volume'
p56
V154
p57
sS'doi'
p58
V10.1104/pp.110.159152
p59
sS'emailAddress'
p60
Vhlhsieh@ntu.edu.tw
p61
sS'authorAddress'
p62
V[Jiang, Han-Wei; Liu, Ming-Jung; Chen, Ing-Chien; Huang, Chiung-Huei; Chao, Li-Ya; Hsieh, Hsu-Liang] Natl Taiwan Univ, Inst Plant Biol, Coll Life Sci, Taipei 106, Taiwan.
p63
sS'publisherAddress'
p64
V15501 MONONA DRIVE, ROCKVILLE, MD 20855 USA
p65
sS'ER'
p66
V
sS'publisher'
p67
VAMER SOC PLANT BIOLOGISTS
p68
sS'authorKeywords'
p69
(lp70
VTRANSCRIPTION-FACTOR
p71
aVROOT DEVELOPMENT
p72
aVANTHOCYANIN SEQUESTRATION
p73
aVHERBICIDE SAFENERS
p74
aVPLANT-GROWTH
p75
aVPHYTOCHROME
p76
aVTHALIANA
p77
aVGENE
p78
aVEXPRESSION
p79
aVAUXIN
p80
asS'language'
p81
VEnglish
p82
sS'wosid'
p83
VWOS:000284834000006
p84
sS'citationCount'
p85
I53
sS'authors_init'
p86
(lp87
(VJIANG
VH W
tp88
a(VLIU
VM J
tp89
a(VCHEN
VI C
tp90
a(VHUANG
VC H
tp91
a(VCHAO
VL Y
tp92
a(VHSIEH
VH L
tp93
asS'citedReferences'
p94
(lp95
g1
(g2
g3
NtRp96
(dp97
g58
V10.1105/tpc.006130
p98
sg54
VPLANT CELL
p99
sg56
V15
p100
sg86
(lp101
(VABE
VH
tp102
asg21
I2003
sg52
VLANT
p103
sbag1
(g2
g3
NtRp104
(dp105
g58
V10.1105/tpc.10.7.1135
p106
sg54
VPLANT CELL
p107
sg56
V10
p108
sg86
(lp109
(VALFENITO
VM R
tp110
asg21
I1998
sg52
VLANT
p111
sbag1
(g2
g3
NtRp112
(dp113
g58
Nsg54
VPLANT PHYSIOL
p114
sg56
V127
p115
sg86
(lp116
(VBAENAGONZA
VLEZE
tp117
asg21
I2001
sg52
VLANT
p118
sbag1
(g2
g3
NtRp119
(dp120
g58
Nsg54
VPLANT CELL
p121
sg56
V8
sg86
(lp122
(VBARNES
VS A
tp123
asg21
I1996
sg52
VLANT
p124
sbag1
(g2
g3
NtRp125
(dp126
g58
V10.1105/tpc.109.071225
p127
sg54
VPLANT CELL
p128
sg56
V22
p129
sg86
(lp130
(VBASHANDY
VT
tp131
asg21
I2010
sg52
VLANT
p132
sbag1
(g2
g3
NtRp133
(dp134
g58
V10.1242/dev.02836
p135
sg54
VDEVELOPMENT
p136
sg56
V134
p137
sg86
(lp138
(VBAUMANN
VK
tp139
asg21
I2007
sg52
V1691
p140
sbag1
(g2
g3
NtRp141
(dp142
g58
V10.1093/jxb/eri228
p143
sg54
VJ EXP BOT
p144
sg56
V56
p145
sg86
(lp146
(VBELMONTE
VM F
tp147
asg21
I2005
sg52
V2355
p148
sbag1
(g2
g3
NtRp149
(dp150
g58
V10.1104/pp.106.094185
p151
sg54
VPLANT PHYSIOL
p152
sg56
V143
p153
sg86
(lp154
(VCHEN
VI C
tp155
asg21
I2007
sg52
VLANT
p156
sbag1
(g2
g3
NtRp157
(dp158
g58
V10.1046/j.1365-313x.1998.00343.x
p159
sg54
VPLANT J
p160
sg56
V16
p161
sg86
(lp162
(VCLOUGH
VS J
tp163
asg21
I1998
sg52
VLANT
p164
sbag1
(g2
g3
NtRp165
(dp166
g58
V10.1104/pp.105.067199
p167
sg54
VPLANT PHYSIOL
p168
sg56
V140
p169
sg86
(lp170
(VDERIDDER
VB P
tp171
asg21
I2006
sg52
VLANT
p172
sbag1
(g2
g3
NtRp173
(dp174
g58
V10.1093/mp/ssn081
p175
sg54
VMOL PLANT
p176
sg56
V2
sg86
(lp177
(VDEVAIAH
VB N
tp178
asg21
I2009
sg52
V43
p179
sbag1
(g2
g3
NtRp180
(dp181
g58
V10.1104/pp.103.034397
p182
sg54
VPLANT PHYSIOL
p183
sg56
V133
p184
sg86
(lp185
(VDEVLIN
VP F
tp186
asg21
I2003
sg52
VLANT
p187
sbag1
(g2
g3
NtRp188
(dp189
g58
V10.1074/jbc.M202919200
p190
sg54
VJ BIOL CHEM
p191
sg56
V277
p192
sg86
(lp193
(VDIXON
VD P
tp194
asg21
I2002
sg52
V30859
p195
sbag1
(g2
g3
NtRp196
(dp197
g58
Nsg54
VGENOME BIOL
p198
sg56
V3
sg86
(lp199
(VDIXON
VD P
tp200
asg21
I2002
sg52
Nsbag1
(g2
g3
NtRp201
(dp202
g58
V10.1006/abbi.2000.2125
p203
sg54
VARCH BIOCHEM BIOPHYS
p204
sg56
V384
p205
sg86
(lp206
(VDIXON
VD P
tp207
asg21
I2000
sg52
V407
p208
sbag1
(g2
g3
NtRp209
(dp210
g58
Nsg54
VZ NATURFORSCH C
p211
sg56
V60
p212
sg86
(lp213
(VEDWARDS
VR
tp214
asg21
I2005
sg52
V307
p215
sbag1
(g2
g3
NtRp216
(dp217
g58
V10.1016/S1360-1385(00)01601-0
p218
sg54
VTRENDS PLANT SCI
p219
sg56
V5
sg86
(lp220
(VEDWARDS
VR
tp221
asg21
I2000
sg52
V193
p222
sbag1
(g2
g3
NtRp223
(dp224
g58
V10.1111/j.1365-3040.2006.01497.x
p225
sg54
VPLANT CELL ENVIRON
p226
sg56
V29
p227
sg86
(lp228
(VESPUNYA
VM C
tp229
asg21
I2006
sg52
VLANT
p230
sbag1
(g2
g3
NtRp231
(dp232
g58
V10.1089/ars.2008.2177
p233
sg54
VANTIOXID REDOX SIGN
p234
sg56
V11
p235
sg86
(lp236
(VFOYER
VC H
tp237
asg21
I2009
sg52
V861
p238
sbag1
(g2
g3
NtRp239
(dp240
g58
V10.1007/s11103-004-4516-1
p241
sg54
VPLANT MOL BIOL
p242
sg56
V57
p243
sg86
(lp244
(VGONG
VH B
tp245
asg21
I2005
sg52
VLANT
p246
sbag1
(g2
g3
NtRp247
(dp248
g58
Nsg54
VPHYSIOL PLANTARUM
p249
sg56
V103
p250
sg86
(lp251
(VGONNEAU
VJ
tp252
asg21
I1998
sg52
VHYSIOL
p253
sbag1
(g2
g3
NtRp254
(dp255
g58
V10.1016/0003-2697(80)90139-6
p256
sg54
VANAL BIOCHEM
p257
sg56
V106
p258
sg86
(lp259
(VGRIFFITH
VO W
tp260
asg21
I1980
sg52
V207
p261
sbag1
(g2
g3
NtRp262
(dp263
g58
Nsg54
VFREE RADICAL RES
p264
sg56
V31
p265
sg86
(lp266
(VGULLNER
VG
tp267
asg21
I1999
sg52
VS155
p268
sbag1
(g2
g3
NtRp269
(dp270
g58
Nsg54
VPLANT CELL
p271
sg56
V10
p272
sg86
(lp273
(VHOECKER
VU
tp274
asg21
I1998
sg52
VLANT
p275
sbag1
(g2
g3
NtRp276
(dp277
g58
Nsg54
VGENE DEV
p278
sg56
V14
p279
sg86
(lp280
(VHSIEH
VH L
tp281
asg21
I2000
sg52
V1958
p282
sbag1
(g2
g3
NtRp283
(dp284
g58
V10.1007/BF00017808
p285
sg54
VPLANT MOL BIOL
p286
sg56
V30
p287
sg86
(lp288
(VHSIEH
VH L
tp289
asg21
I1996
sg52
VLANT
p290
sbag1
(g2
g3
NtRp291
(dp292
g58
V10.1104/pp.108.126979
p293
sg54
VPLANT PHYSIOL
p294
sg56
V148
p295
sg86
(lp296
(VJAKOBY
VM J
tp297
asg21
I2008
sg52
VLANT
p298
sbag1
(g2
g3
NtRp299
(dp300
g58
V10.1074/jbc.M002359200
p301
sg54
VJ BIOL CHEM
p302
sg56
V275
p303
sg86
(lp304
(VKAMPRANIS
VS C
tp305
asg21
I2000
sg52
V29207
p306
sbag1
(g2
g3
NtRp307
(dp308
g58
V10.1074/jbc.M309882200
p309
sg54
VJ BIOL CHEM
p310
sg56
V279
p311
sg86
(lp312
(VKILILI
VK G
tp313
asg21
I2004
sg52
V24540
p314
sbag1
(g2
g3
NtRp315
(dp316
g58
V10.1046/j.1365-313X.1998.00072.x
p317
sg54
VPLANT J
p318
sg56
V13
p319
sg86
(lp320
(VKIRIK
VV
tp321
asg21
I1998
sg52
VLANT
p322
sbag1
(g2
g3
NtRp323
(dp324
g58
V10.1007/s00299-010-0902-0
p325
sg54
VPLANT CELL REP
p326
sg56
V29
p327
sg86
(lp328
(VKOPRIVOVA
VA
tp329
asg21
I2010
sg52
VLANT
p330
sbag1
(g2
g3
NtRp331
(dp332
g58
V10.1105/tpc.12.10.1939
p333
sg54
VPLANT CELL
p334
sg56
V12
p335
sg86
(lp336
(VLOYALL
VL
tp337
asg21
I2000
sg52
VLANT
p338
sbag1
(g2
g3
NtRp339
(dp340
g58
V10.1038/375397a0
p341
sg54
VNATURE
p342
sg56
V375
p343
sg86
(lp344
(VMARRS
VK A
tp345
asg21
I1995
sg52
V397
p346
sbag1
(g2
g3
NtRp347
(dp348
g58
V10.1146/annurev.arplant.47.1.127
p349
sg54
VANNU REV PLANT PHYS
p350
sg56
V47
p351
sg86
(lp352
(VMARRS
VK A
tp353
asg21
I1996
sg52
V127
p354
sbag1
(g2
g3
NtRp355
(dp356
g58
V10.1016/S0083-6729(05)72005-7
p357
sg54
VVITAM HORM
p358
sg56
VITAM
p359
sg86
(lp360
(VMOONS
VA
tp361
asg21
I2005
sg52
V155
p362
sbag1
(g2
g3
NtRp363
(dp364
g58
V10.1016/S0014-5793(03)01077-9
p365
sg54
VFEBS LETT
p366
sg56
V553
p367
sg86
(lp368
(VMOONS
VA
tp369
asg21
I2003
sg52
V427
p370
sbag1
(g2
g3
NtRp371
(dp372
g58
V10.1104/pp.123.4.1561
p373
sg54
VPLANT PHYSIOL
p374
sg56
V123
p375
sg86
(lp376
(VMUELLER
VL A
tp377
asg21
I2000
sg52
VLANT
p378
sbag1
(g2
g3
NtRp379
(dp380
g58
V10.1093/pcp/pce065
p381
sg54
VPLANT CELL PHYSIOL
p382
sg56
V42
p383
sg86
(lp384
(VOGAWA
VK
tp385
asg21
I2001
sg52
VLANT
p386
sbag1
(g2
g3
NtRp387
(dp388
g58
V10.1111/j.1365-313X.2007.03059.x
p389
sg54
VPLANT J
p390
sg56
V50
p391
sg86
(lp392
(VSALISBURY
VF J
tp393
asg21
I2007
sg52
VLANT
p394
sbag1
(g2
g3
NtRp395
(dp396
g58
Nsg54
VMOL CLONING LAB MANU
p397
sg56
Nsg86
(lp398
(VSAMBROOK
VJ
tp399
asg21
I1989
sg52
Nsbag1
(g2
g3
NtRp400
(dp401
g58
V10.1046/j.1365-313X.2003.01890.x
p402
sg54
VPLANT J
p403
sg56
V36
p404
sg86
(lp405
(VSMITH
VA P
tp406
asg21
I2003
sg52
VLANT
p407
sbag1
(g2
g3
NtRp408
(dp409
g58
V10.1111/j.1365-313X.2006.03018.x
p410
sg54
VPLANT J
p411
sg56
V49
p412
sg86
(lp413
(VSUNG
VD Y
tp414
asg21
I2007
sg52
VLANT
p415
sbag1
(g2
g3
NtRp416
(dp417
g58
V10.1073/pnas.161300998
p418
sg54
VP NATL ACAD SCI USA
p419
sg56
V98
p420
sg86
(lp421
(VTEPPERMAN
VJ M
tp422
asg21
I2001
sg52
V9437
p423
sbag1
(g2
g3
NtRp424
(dp425
g58
V10.1046/j.1365-313X.1996.10061145.x
p426
sg54
VPLANT J
p427
sg56
V10
p428
sg86
(lp429
(VURAO
VT
tp430
asg21
I1996
sg52
VLANT
p431
sbag1
(g2
g3
NtRp432
(dp433
g58
V10.1105/tpc.12.1.97
p434
sg54
VPLANT CELL
p435
sg56
V12
p436
sg86
(lp437
(VVERNOUX
VT
tp438
asg21
I2000
sg52
VLANT
p439
sbag1
(g2
g3
NtRp440
(dp441
g58
V10.1023/A:1015557300450
p442
sg54
VPLANT MOL BIOL
p443
sg56
V49
p444
sg86
(lp445
(VWAGNER
VU
tp446
asg21
I2002
sg52
VLANT
p447
sbag1
(g2
g3
NtRp448
(dp449
g58
V10.1126/science.1121356
p450
sg54
VSCIENCE
p451
sg56
V312
p452
sg86
(lp453
(VWISNIEWSKA
VJ
tp454
asg21
I2006
sg52
V883
p455
sbag1
(g2
g3
NtRp456
(dp457
g58
Nsg54
VMethods Mol Biol
p458
sg56
V47
p459
sg86
(lp460
(VWITHERS
VH L
tp461
asg21
I1995
sg52
V47
p462
sbag1
(g2
g3
NtRp463
(dp464
g58
V10.1104/pp.108.132217
p465
sg54
VPLANT PHYSIOL
p466
sg56
V149
p467
sg86
(lp468
(VXU
VP
tp469
asg21
I2009
sg52
VLANT
p470
sbag1
(g2
g3
NtRp471
(dp472
g58
V10.1073/pnas.91.2.689
p473
sg54
VP NATL ACAD SCI USA
p474
sg56
V91
p475
sg86
(lp476
(VZETTL
VR
tp477
asg21
I1994
sg52
V689
p478
sbag1
(g2
g3
NtRp479
(dp480
g58
V10.1016/S1673-8527(08)60096-X
p481
sg54
VJ GENET GENOMICS
p482
sg56
V36
p483
sg86
(lp484
(VZHANG
VY F
tp485
asg21
I2009
sg52
V99
p486
sbag1
(g2
g3
NtRp487
(dp488
g58
V10.1105/tpc.108.061325
p489
sg54
VPLANT CELL
p490
sg56
V20
p491
sg86
(lp492
(VZHONG
VR Q
tp493
asg21
I2008
sg52
VLANT
p494
sbag1
(g2
g3
NtRp495
(dp496
g58
V10.1111/j.1469-8137.2008.02384.x
p497
sg54
VNEW PHYTOL
p498
sg56
V178
p499
sg86
(lp500
(VZHOU
VX R
tp501
asg21
I2008
sg52
V532
p502
sbasb.