ccopy_reg
_reconstructor
p1
(ctethne.classes.paper
Paper
p2
c__builtin__
object
p3
NtRp4
(dp5
S'publisherCity'
p6
VROCKVILLE
p7
sS'reprintAddress'
p8
VPopper, ZA (reprint author), Natl Univ Ireland, Mol Glycobiotechnol Grp, Sch Nat Sci, Galway, Ireland.
p9
sS'WC'
p10
VPlant Sciences
p11
sS'GA'
p12
V605IC
p13
sS'FX'
p14
(lp15
VThis work was supported by a National University of Ireland Galway
p16
aVMillennium Grant to Z.A.P.
p17
asS'pageEnd'
p18
I383
sS'date'
p19
I2010
sS'documentType'
p20
VArticle
p21
sS'subject'
p22
VPlant Sciences
p23
sS'isoSource'
p24
VPlant Physiol.
p25
sS'timesCited'
p26
(lp27
I30
aVZ9 31
p28
asS'funding'
p29
(lp30
(VNational University of Ireland
Ntp31
asS'PT'
p32
VJ
sS'title'
p33
VBeyond The Green: Understanding The Evolutionary Puzzle Of Plant And Algal Cell Walls
p34
sS'ISSN'
p35
(lp36
V0032-0889
p37
aVJ9 PLANT PHYSIOL
p38
asS'authors_full'
p39
(lp40
(VPOPPER
VZOE A
tp41
a(VTUOHY
VMARIA G
tp42
asS'PG'
p43
I11
sS'PD'
p44
VJUN
p45
sS'pageStart'
p46
I373
sS'issue'
p47
I2
sS'journal'
p48
VPLANT PHYSIOLOGY
p49
sS'volume'
p50
V153
p51
sS'doi'
p52
V10.1104/pp.110.158055
p53
sS'emailAddress'
p54
Vzoe.popper@nuigalway.ie
p55
sS'authorAddress'
p56
V[Popper, Zoe A.; Tuohy, Maria G.] Natl Univ Ireland, Mol Glycobiotechnol Grp, Sch Nat Sci, Galway, Ireland.
p57
sS'publisherAddress'
p58
V15501 MONONA DRIVE, ROCKVILLE, MD 20855 USA
p59
sS'ER'
p60
V
sS'publisher'
p61
VAMER SOC PLANT BIOLOGISTS
p62
sS'authorKeywords'
p63
(lp64
V3-DEOXY-D-MANNO-2-OCTULOSONIC ACID KDO
p65
aVCELLULOSE SYNTHASE SUPERFAMILY
p66
aVELECTRON TOMOGRAPHIC ANALYSIS
p67
aVMOSS FONTINALIS-ANTIPYRETICA
p68
aVSEAWEED CODIUM-FRAGILE
p69
aVARABINOGALACTAN PROTEINS
p70
aVRHAMNOGALACTURONAN-II
p71
aVVASCULAR PLANTS
p72
aVMIXED-LINKAGE
p73
aVGENE FAMILY
p74
asS'language'
p75
VEnglish
p76
sS'wosid'
p77
VWOS:000278340200003
p78
sS'citationCount'
p79
I159
sS'authors_init'
p80
(lp81
(VPOPPER
VZ A
tp82
a(VTUOHY
VM G
tp83
asS'citedReferences'
p84
(lp85
g1
(g2
g3
NtRp86
(dp87
g52
V10.1016/S0031-9422(97)00281-1
p88
sg48
VPHYTOCHEMISTRY
p89
sg50
V46
p90
sg80
(lp91
(VANDREW
VI G
tp92
asg19
I1997
sg46
VHYTOCHEMISTRY
p93
sbag1
(g2
g3
NtRp94
(dp95
g52
VDOI 10.1046/J.1095-8339.2003.T01-1-00158.X
p96
sg48
VBOT J LINN SOC
p97
sg50
V141
p98
sg80
(lp99
(VANGIOSPERM
VPHYLOGENY GROUP
tp100
asg19
I2003
sg46
V399
p101
sbag1
(g2
g3
NtRp102
(dp103
g52
V10.1073/pnas.56.5.1586
p104
sg48
VP NATL ACAD SCI USA
p105
sg50
V56
p106
sg80
(lp107
(VBAILEY
VR W
tp108
asg19
I1966
sg46
V1586
p109
sbag1
(g2
g3
NtRp110
(dp111
g52
Nsg48
VEUR J HISTOCHEM
p112
sg50
V45
p113
sg80
(lp114
(VBALDAN
VB
tp115
asg19
I2001
sg46
V51
p116
sbag1
(g2
g3
NtRp117
(dp118
g52
V10.1007/BF00003468
p119
sg48
VJ APPL PHYCOL
p120
sg50
V1
sg80
(lp121
(VBARWELL
VC J
tp122
asg19
I1989
sg46
V319
p123
sbag1
(g2
g3
NtRp124
(dp125
g52
V10.2307/3243105
p126
sg48
VBRYOLOGIST
p127
sg50
V90
p128
sg80
(lp129
(VBASILE
VD V
tp130
asg19
I1987
sg46
V401
p131
sbag1
(g2
g3
NtRp132
(dp133
g52
V10.2307/2484155
p134
sg48
VB TORREY BOT CLUB
p135
sg50
V107
p136
sg80
(lp137
(VBASILE
VD V
tp138
asg19
I1980
sg46
V325
p139
sbag1
(g2
g3
NtRp140
(dp141
g52
V10.1093/aob/mcp044
p142
sg48
VANN BOT
p143
sg50
V103
p144
sg80
(lp145
(VBECKER
VB
tp146
asg19
I2009
sg46
V999
p147
sbag1
(g2
g3
NtRp148
(dp149
g52
V10.1111/j.0022-3646.1991.00498.x
p150
sg48
VJ PHYCOL
p151
sg50
V27
p152
sg80
(lp153
(VBECKER
VB
tp154
asg19
I1991
sg46
V498
p155
sbag1
(g2
g3
NtRp156
(dp157
g52
V10.1007/BF01666398
p158
sg48
VPROTOPLASMA
p159
sg50
V181
p160
sg80
(lp161
(VBECKER
VB
tp162
asg19
I1994
sg46
VROTOPLASMA
p163
sbag1
(g2
g3
NtRp164
(dp165
g52
V10.1046/j.1529-8817.1998.340779.x
p166
sg48
VJ PHYCOL
p167
sg50
V34
p168
sg80
(lp169
(VBECKER
VB
tp170
asg19
I1998
sg46
V779
p171
sbag1
(g2
g3
NtRp172
(dp173
g52
Nsg48
VGREEN PLANTS THEIR O
p174
sg50
Nsg80
(lp175
(VBELL
VP R
tp176
asg19
I2000
sg46
Nsbag1
(g2
g3
NtRp177
(dp178
g52
V10.1016/j.carres.2007.08.008
p179
sg48
VCARBOHYD RES
p180
sg50
V342
p181
sg80
(lp182
(VBOLLIG
VK
tp183
asg19
I2007
sg46
V2557
p184
sbag1
(g2
g3
NtRp185
(dp186
g52
V10.1016/S0008-6215(00)80026-9
p187
sg48
VCARBOHYD RES
p188
sg50
V9
sg80
(lp189
(VBOURNE
VE J
tp190
asg19
I1969
sg46
V415
p191
sbag1
(g2
g3
NtRp192
(dp193
g52
V10.1016/S0008-6215(00)81372-5
p194
sg48
VCARBOHYD RES
p195
sg50
V20
p196
sg80
(lp197
(VBREMNER
VI
tp198
asg19
I1971
sg46
V193
p199
sbag1
(g2
g3
NtRp200
(dp201
g52
V10.1105/tpc.105.031542
p202
sg48
VPLANT CELL
p203
sg50
V17
p204
sg80
(lp205
(VBROWN
VD M
tp206
asg19
I2005
sg46
VLANT
p207
sbag1
(g2
g3
NtRp208
(dp209
g52
V10.1111/j.1365-313X.2007.03307.x
p210
sg48
VPLANT J
p211
sg50
V52
p212
sg80
(lp213
(VBROWN
VD M
tp214
asg19
I2007
sg46
VLANT
p215
sbag1
(g2
g3
NtRp216
(dp217
g52
Nsg48
VJ CELL SCI
p218
sg50
Nsg80
(lp219
(VBROWN
VR M
tp220
asg19
I1985
sg46
V13
p221
sbag1
(g2
g3
NtRp222
(dp223
g52
V10.1093/mp/ssp063
p224
sg48
VMOL PLANT
p225
sg50
V2
sg80
(lp226
(VBURTON
VR A
tp227
asg19
I2009
sg46
V873
p228
sbag1
(g2
g3
NtRp229
(dp230
g52
V10.1126/science.1122975
p231
sg48
VSCIENCE
p232
sg50
V311
p233
sg80
(lp234
(VBURTON
VR A
tp235
asg19
I2006
sg46
V1940
p236
sbag1
(g2
g3
NtRp237
(dp238
g52
V10.1104/pp.107.114694
p239
sg48
VPLANT PHYSIOL
p240
sg50
V146
p241
sg80
(lp242
(VBURTON
VR A
tp243
asg19
I2008
sg46
VLANT
p244
sbag1
(g2
g3
NtRp245
(dp246
g52
V10.1016/j.carbpol.2009.01.020
p247
sg48
VCARBOHYD POLYM
p248
sg50
V77
p249
sg80
(lp250
(VCAMPO
VV L
tp251
asg19
I2009
sg46
V167
p252
sbag1
(g2
g3
NtRp253
(dp254
g52
V10.1093/nar/gkn663
p255
sg48
VNUCLEIC ACIDS RES
p256
sg50
V37
p257
sg80
(lp258
(VCANTAREL
VB L
tp259
asg19
I2009
sg46
VD233
p260
sbag1
(g2
g3
NtRp261
(dp262
g52
V10.1111/j.1469-8137.2005.01483.x
p263
sg48
VNEW PHYTOL
p264
sg50
V168
p265
sg80
(lp266
(VCARAFA
VA
tp267
asg19
I2005
sg46
V231
p268
sbag1
(g2
g3
NtRp269
(dp270
g52
Nsg48
VCOMPTES RENDUS A G C
p271
sg50
V21
p272
sg80
(lp273
(VCHODAT
VF
tp274
asg19
I1939
sg46
V58
p275
sbag1
(g2
g3
NtRp276
(dp277
g52
V10.1016/0003-2697(85)90251-9
p278
sg48
VANAL BIOCHEM
p279
sg50
V148
p280
sg80
(lp281
(VVANHOLST
VG J
tp282
asg19
I1985
sg46
V446
p283
sbag1
(g2
g3
NtRp284
(dp285
g52
V10.1093/aob/mcm247
p286
sg48
VANN BOT
p287
sg50
V100
p288
sg80
(lp289
(VCURRIE
VH A
tp290
asg19
I2007
sg46
V1383
p291
sbag1
(g2
g3
NtRp292
(dp293
g52
V10.1126/science.245.4916.399
p294
sg48
VSCIENCE
p295
sg50
V245
p296
sg80
(lp297
(VDELWICHE
VC F
tp298
asg19
I1989
sg46
V399
p299
sbag1
(g2
g3
NtRp300
(dp301
g52
V10.1073/pnas.0604795103
p302
sg48
VP NATL ACAD SCI USA
p303
sg50
V103
p304
sg80
(lp305
(VDERELLE
VE
tp306
asg19
I2006
sg46
V11647
p307
sbag1
(g2
g3
NtRp308
(dp309
g52
Nsg48
VBIOL PHYLOGENIE ALGU
p310
sg50
V1
sg80
(lp311
(VDEREVIERS
VB
tp312
asg19
I2002
sg46
V144
p313
sbag1
(g2
g3
NtRp314
(dp315
g52
V10.1126/science.1090908
p316
sg48
VSCIENCE
p317
sg50
V303
p318
sg80
(lp319
(VDHUGGA
VK S
tp320
asg19
I2004
sg46
V363
p321
sbag1
(g2
g3
NtRp322
(dp323
g52
Nsg48
VP NATL ACAD SCI USA
p324
sg50
V14
p325
sg80
(lp326
(VDOBLIN
VM S
tp327
asg19
I2009
sg46
V5996
p328
sbag1
(g2
g3
NtRp329
(dp330
g52
V10.1093/aob/mcp193
p331
sg48
VANN BOT
p332
sg50
V104
p333
sg80
(lp334
(VDOMOZYCH
VD S
tp335
asg19
I2009
sg46
V1045
p336
sbag1
(g2
g3
NtRp337
(dp338
g52
V10.1007/s00709-006-0197-8
p339
sg48
VPROTOPLASMA
p340
sg50
V230
p341
sg80
(lp342
(VDOMOZYCH
VD S
tp343
asg19
I2007
sg46
VROTOPLASMA
p344
sbag1
(g2
g3
NtRp345
(dp346
g52
Nsg48
VJ CELL SCI
p347
sg50
V100
p348
sg80
(lp349
(VDOMOZYCH
VD S
tp350
asg19
I1991
sg46
V397
p351
sbag1
(g2
g3
NtRp352
(dp353
g52
V10.1007/BF01732578
p354
sg48
VJ MOL EVOL
p355
sg50
V15
p356
sg80
(lp357
(VDOMOZYCH
VD S
tp358
asg19
I1980
sg46
V1
sbag1
(g2
g3
NtRp359
(dp360
g52
V10.1093/pcp/pcl053
p361
sg48
VPLANT CELL PHYSIOL
p362
sg50
V48
p363
sg80
(lp364
(VDUNN
VE K
tp365
asg19
I2007
sg46
VLANT
p366
sbag1
(g2
g3
NtRp367
(dp368
g52
Nsg48
VMOKUZAI GAKKAISHI
p369
sg50
V42
p370
sg80
(lp371
(VEDASHIGE
VY
tp372
asg19
I1996
sg46
V895
p373
sbag1
(g2
g3
NtRp374
(dp375
g52
V10.1111/j.1365-2818.2008.02036.x
p376
sg48
VJ MICROSC
p377
sg50
V231
p378
sg80
(lp379
(VEDER
VM
tp380
asg19
I2008
sg46
V201
p381
sbag1
(g2
g3
NtRp382
(dp383
g52
V10.1111/j.1529-8817.2008.00576.x
p384
sg48
VJ PHYCOL
p385
sg50
V44
p386
sg80
(lp387
(VEDER
VM
tp388
asg19
I2008
sg46
V1221
p389
sbag1
(g2
g3
NtRp390
(dp391
g52
V10.1093/glycob/cwn101
p392
sg48
VGLYCOBIOLOGY
p393
sg50
V19
p394
sg80
(lp395
(VESTEVEZ
VJ M
tp396
asg19
I2009
sg46
V212
p397
sbag1
(g2
g3
NtRp398
(dp399
g52
V10.1111/j.1365-313X.2008.03504.x
p400
sg48
VPLANT J
p401
sg50
V55
p402
sg80
(lp403
(VFRY
VS C
tp404
asg19
I2008
sg46
VLANT
p405
sbag1
(g2
g3
NtRp406
(dp407
g52
V10.1111/j.1469-8137.2008.02435.x
p408
sg48
VNEW PHYTOL
p409
sg50
V179
p410
sg80
(lp411
(VFRY
VS C
tp412
asg19
I2008
sg46
V104
p413
sbag1
(g2
g3
NtRp414
(dp415
g52
V10.1007/s00425-007-0587-y
p416
sg48
VPLANTA
p417
sg50
V226
p418
sg80
(lp419
(VFU
VH
tp420
asg19
I2007
sg46
VLANTA
p421
sbag1
(g2
g3
NtRp422
(dp423
g52
V10.1016/S0008-6215(00)80359-6
p424
sg48
VCARBOHYD RES
p425
sg50
V18
p426
sg80
(lp427
(VGEDDES
VD S
tp428
asg19
I1971
sg46
V333
p429
sbag1
(g2
g3
NtRp430
(dp431
g52
V10.1016/S0008-6215(00)82705-6
p432
sg48
VCARBOHYD RES
p433
sg50
V23
p434
sg80
(lp435
(VGEDDES
VD S
tp436
asg19
I1972
sg46
V349
p437
sbag1
(g2
g3
NtRp438
(dp439
g52
V10.1073/pnas.0905434106
p440
sg48
VP NATL ACAD SCI USA
p441
sg50
V106
p442
sg80
(lp443
(VGILLE
VS
tp444
asg19
I2009
sg46
V14699
p445
sbag1
(g2
g3
NtRp446
(dp447
g52
V10.1111/j.1365-313X.2009.03977.x
p448
sg48
VPLANT J
p449
sg50
V60
p450
sg80
(lp451
(VGOUBET
VF
tp452
asg19
I2009
sg46
VLANT
p453
sbag1
(g2
g3
NtRp454
(dp455
g52
Nsg48
VAPPL MICROBIOL
p456
sg50
V29
p457
sg80
(lp458
(VGUNNISON
VD
tp459
asg19
I1975
sg46
V729
p460
sbag1
(g2
g3
NtRp461
(dp462
g52
Nsg48
VCHEM ZELLULOSE IHRER
p463
sg50
Nsg80
(lp464
(VHALLER
VR
tp465
asg19
I1928
sg46
Nsbag1
(g2
g3
NtRp466
(dp467
g52
Nsg48
VPLANT CELL PHYSIOL
p468
sg50
V1
sg80
(lp469
(VHASEGAWA
VM
tp470
asg19
I1960
sg46
VLANT
p471
sbag1
(g2
g3
NtRp472
(dp473
g52
Nsg48
VCARBOHYD RES
p474
sg50
V344
p475
sg80
(lp476
(VHASHIMOTO
VK
tp477
asg19
I2010
sg46
V881
p478
sbag1
(g2
g3
NtRp479
(dp480
g52
V10.1093/aob/mci255
p481
sg48
VANN BOT
p482
sg50
V96
p483
sg80
(lp484
(VHODSON
VM J
tp485
asg19
I2005
sg46
V1027
p486
sbag1
(g2
g3
NtRp487
(dp488
g52
V10.1016/j.carres.2005.04.016
p489
sg48
VCARBOHYD RES
p490
sg50
V340
p491
sg80
(lp492
(VHOFFMAN
VM
tp493
asg19
I2005
sg46
V1826
p494
sbag1
(g2
g3
NtRp495
(dp496
g52
V10.1128/JB.182.5.1191-1199.2000
p497
sg48
VJ BACTERIOL
p498
sg50
V182
p499
sg80
(lp500
(VHOICZYK
VE
tp501
asg19
I2000
sg46
V1191
p502
sbag1
(g2
g3
NtRp503
(dp504
g52
V10.1046/j.1469-8137.2001.00122.x
p505
sg48
VNEW PHYTOL
p506
sg50
V150
p507
sg80
(lp508
(VHONEGGER
VR
tp509
asg19
I2001
sg46
V739
p510
sbag1
(g2
g3
NtRp511
(dp512
g52
V10.1111/j.1440-1835.2008.00503.x
p513
sg48
VPHYCOL RES
p514
sg50
V56
p515
sg80
(lp516
(VIKEGAYA
VH
tp517
asg19
I2008
sg46
VHYCOL
p518
sbag1
(g2
g3
NtRp519
(dp520
g52
V10.1007/S10086-005-0725-8
p521
sg48
VJ WOOD SCI
p522
sg50
V51
p523
sg80
(lp524
(VJIN
VZ F
tp525
asg19
I2005
sg46
V424
p526
sbag1
(g2
g3
NtRp527
(dp528
g52
V10.1073/pnas.1832434100
p529
sg48
VP NATL ACAD SCI USA
p530
sg50
V100
p531
sg80
(lp532
(VJONES
VL
tp533
asg19
I2003
sg46
V11783
p534
sbag1
(g2
g3
NtRp535
(dp536
g52
Nsg48
VPLANT SYSTEMATICS PH
p537
sg50
Nsg80
(lp538
(VJUDD
VW S
tp539
asg19
I2002
sg46
VLANT
p540
sbag1
(g2
g3
NtRp541
(dp542
g52
V10.1016/S0144-8617(00)00151-X
p543
sg48
VCARBOHYD POLYM
p544
sg50
V43
p545
sg80
(lp546
(VKACURAKOVA
VM
tp547
asg19
I2000
sg46
V195
p548
sbag1
(g2
g3
NtRp549
(dp550
g52
Nsg48
VEUKARYOTES EUKARYOTA
p551
sg50
Nsg80
(lp552
(VKEELING
VP
tp553
asg19
I2009
sg46
Nsbag1
(g2
g3
NtRp554
(dp555
g52
V10.3732/ajb.91.10.1481
p556
sg48
VAM J BOT
p557
sg50
V91
p558
sg80
(lp559
(VKEELING
VP J
tp560
asg19
I2004
sg46
V1481
p561
sbag1
(g2
g3
NtRp562
(dp563
g52
V10.1007/BF01276931
p564
sg48
VPROTOPLASMA
p565
sg50
V186
p566
sg80
(lp567
(VKIMURA
VS
tp568
asg19
I1995
sg46
VROTOPLASMA
p569
sbag1
(g2
g3
NtRp570
(dp571
g52
Nsg48
VOCEANOGR MAR BIOL
p572
sg50
V26
p573
sg80
(lp574
(VKLOAREG
VB
tp575
asg19
I1988
sg46
V259
p576
sbag1
(g2
g3
NtRp577
(dp578
g52
V10.1046/j.1365-313X.1991.t01-9-00999.x
p579
sg48
VPLANT J
p580
sg50
V1
sg80
(lp581
(VKNOX
VJ P
tp582
asg19
I1991
sg46
VLANT
p583
sbag1
(g2
g3
NtRp584
(dp585
g52
V10.1016/S0008-6215(03)00241-6
p586
sg48
VCARBOHYD RES
p587
sg50
V338
p588
sg80
(lp589
(VLAHAYE
VM
tp590
asg19
I2003
sg46
V1559
p591
sbag1
(g2
g3
NtRp592
(dp593
g52
V10.1093/pcp/pcm135
p594
sg48
VPLANT CELL PHYSIOL
p595
sg50
V48
p596
sg80
(lp597
(VLEE
VC H
tp598
asg19
I2007
sg46
VLANT
p599
sbag1
(g2
g3
NtRp600
(dp601
g52
V10.1105/tpc.105.034413
p602
sg48
VPLANT CELL
p603
sg50
V17
p604
sg80
(lp605
(VLEE
VK J D
tp606
asg19
I2005
sg46
VLANT
p607
sbag1
(g2
g3
NtRp608
(dp609
g52
V10.1016/S1369-5266(99)80030-2
p610
sg48
VCURR OPIN PLANT BIOL
p611
sg50
V2
sg80
(lp612
(VLEWIS
VN G
tp613
asg19
I1999
sg46
V153
p614
sbag1
(g2
g3
NtRp615
(dp616
g52
V10.1073/pnas.0409179102
p617
sg48
VP NATL ACAD SCI USA
p618
sg50
V102
p619
sg80
(lp620
(VLIEPMAN
VA H
tp621
asg19
I2005
sg46
V2221
p622
sbag1
(g2
g3
NtRp623
(dp624
g52
V10.1007/BF00020183
p625
sg48
VPLANT MOL BIOL
p626
sg50
V27
p627
sg80
(lp628
(VLOOPSTRA
VC A
tp629
asg19
I1995
sg46
VLANT
p630
sbag1
(g2
g3
NtRp631
(dp632
g52
V10.1039/jr9640003345
p633
sg48
VJ CHEM SOC
p634
sg50
Nsg80
(lp635
(VLOVE
VJ
tp636
asg19
I1964
sg46
V3345
p637
sbag1
(g2
g3
NtRp638
(dp639
g52
Nsg48
VTRENDS PLANT SCI
p640
sg50
V11
p641
sg80
(lp642
(VMA
VJ F
tp643
asg19
I2006
sg46
V1360
p644
sbag1
(g2
g3
NtRp645
(dp646
g52
V10.1038/nature04590
p647
sg48
VNATURE
p648
sg50
V440
p649
sg80
(lp650
(VMA
VJ F
tp651
asg19
I2006
sg46
V688
p652
sbag1
(g2
g3
NtRp653
(dp654
g52
V10.1093/jxb/38.9.1573
p655
sg48
VJ EXP BOT
p656
sg50
V38
p657
sg80
(lp658
(VMABEAU
VS
tp659
asg19
I1987
sg46
V1573
p660
sbag1
(g2
g3
NtRp661
(dp662
g52
V10.1039/jr9590001151
p663
sg48
VJ CHEM SOC
p664
sg50
Nsg80
(lp665
(VMACKIE
VI M
tp666
asg19
I1959
sg46
V1151
p667
sbag1
(g2
g3
NtRp668
(dp669
g52
V10.1186/1471-2229-8-60
p670
sg48
VBMC PLANT BIOL
p671
sg50
V8
sg80
(lp672
(VMARCUS
VS E
tp673
asg19
I2008
sg46
Nsbag1
(g2
g3
NtRp674
(dp675
g52
V10.1016/j.cub.2008.12.031
p676
sg48
VCURR BIOL
p677
sg50
V19
p678
sg80
(lp679
(VMARTONE
VP T
tp680
asg19
I2009
sg46
V169
p681
sbag1
(g2
g3
NtRp682
(dp683
g52
V10.1006/jsbi.1997.3919
p684
sg48
VJ STRUCT BIOL
p685
sg50
V120
p686
sg80
(lp687
(VMASTRONARDE
VD N
tp688
asg19
I1997
sg46
V343
p689
sbag1
(g2
g3
NtRp690
(dp691
g52
Nsg48
VPLANT CELL PHYSIOL
p692
sg50
V37
p693
sg80
(lp694
(VMATOH
VT
tp695
asg19
I1996
sg46
VLANT
p696
sbag1
(g2
g3
NtRp697
(dp698
g52
V10.1104/pp.103.030072
p699
sg48
VPLANT PHYSIOL
p700
sg50
V134
p701
sg80
(lp702
(VMATSUNAGA
VT
tp703
asg19
I2004
sg46
VLANT
p704
sbag1
(g2
g3
NtRp705
(dp706
g52
Nsg48
VPHYSL PLANT
p707
sg50
V130
p708
sg80
(lp709
(VMCCANN
VA
tp710
asg19
I2007
sg46
VHYSL
p711
sbag1
(g2
g3
NtRp712
(dp713
g52
V10.1046/j.1365-313X.1994.5010001.x
p714
sg48
VPLANT J
p715
sg50
V5
sg80
(lp716
(VMEIKLE
VP J
tp717
asg19
I1994
sg46
VLANT
p718
sbag1
(g2
g3
NtRp719
(dp720
g52
V10.1083/jcb.63.2.420
p721
sg48
VJ CELL BIOL
p722
sg50
V63
p723
sg80
(lp724
(VMILLER
VD H
tp725
asg19
I1974
sg46
V420
p726
sbag1
(g2
g3
NtRp727
(dp728
g52
V10.1111/j.1365-313X.2007.03114.x
p729
sg48
VPLANT J
p730
sg50
V50
p731
sg80
(lp732
(VMOLLER
VI
tp733
asg19
I2007
sg46
VLANT
p734
sbag1
(g2
g3
NtRp735
(dp736
g52
V10.1007/BF00194428
p737
sg48
VPLANTA
p738
sg50
V189
p739
sg80
(lp740
(VMORRISON
VJ C
tp741
asg19
I1993
sg46
VLANTA
p742
sbag1
(g2
g3
NtRp743
(dp744
g52
V10.1046/j.1365-313X.2003.01807.x
p745
sg48
VPLANT J
p746
sg50
V35
p747
sg80
(lp748
(VMOUILLE
VG
tp749
asg19
I2003
sg46
VLANT
p750
sbag1
(g2
g3
NtRp751
(dp752
g52
Nsg48
VANN BOT
p753
sg50
V48
p754
sg80
(lp755
(VNAYLOR
VG L
tp756
asg19
I1934
sg46
V635
p757
sbag1
(g2
g3
NtRp758
(dp759
g52
V10.1111/j.1469-8137.2009.03054.x
p760
sg48
VNEW PHYTOL
p761
sg50
V185
p762
sg80
(lp763
(VNIKLAS
VK J
tp764
asg19
I2010
sg46
V27
p765
sbag1
(g2
g3
NtRp766
(dp767
g52
V10.1006/anbo.1999.1100
p768
sg48
VANN BOT
p769
sg50
V85
p770
sg80
(lp771
(VNIKLAS
VK J
tp772
asg19
I2000
sg46
V411
p773
sbag1
(g2
g3
NtRp774
(dp775
g52
V10.1641/0006-3568(2004)054[0831:TCWTBT]2.0.CO;2
p776
sg48
VBIOSCIENCE
p777
sg50
V54
p778
sg80
(lp779
(VNIKLAS
VK J
tp780
asg19
I2004
sg46
V831
p781
sbag1
(g2
g3
NtRp782
(dp783
g52
V10.1071/FP09107
p784
sg48
VFUNCT PLANT BIOL
p785
sg50
V36
p786
sg80
(lp787
(VNIKLAS
VK J
tp788
asg19
I2009
sg46
V682
p789
sbag1
(g2
g3
NtRp790
(dp791
g52
Nsg48
VPLANT PHYSIOL
p792
sg50
V127
p793
sg80
(lp794
(VNOBELS
VD R
tp795
asg19
I2001
sg46
VLANT
p796
sbag1
(g2
g3
NtRp797
(dp798
g52
Nsg48
VSCI LORE PLANT CELL
p799
sg50
Nsg80
(lp800
(VOBEL
VN
tp801
asg19
I2006
sg46
V258
p802
sbag1
(g2
g3
NtRp803
(dp804
g52
V10.1055/s-2001-12012
p805
sg48
VPLANTA MED
p806
sg50
V67
p807
sg80
(lp808
(VOLAFSDOTTIR
VE S
tp809
asg19
I2001
sg46
VLANTA
p810
sbag1
(g2
g3
NtRp811
(dp812
g52
V10.1105/tpc.13.9.2033
p813
sg48
VPLANT CELL
p814
sg50
V13
p815
sg80
(lp816
(VOTEGUI
VM S
tp817
asg19
I2001
sg46
VLANT
p818
sbag1
(g2
g3
NtRp819
(dp820
g52
V10.1007/s00425-003-1125-1
p821
sg48
VPLANTA
p822
sg50
V218
p823
sg80
(lp824
(VOTEGUI
VM S
tp825
asg19
I2004
sg46
VLANTA
p826
sbag1
(g2
g3
NtRp827
(dp828
g52
Nsg48
VPOLYSACCHARIDES
p829
sg50
Nsg80
(lp830
(VPAINTER
VT J
tp831
asg19
I1983
sg46
VOLYSACCHARIDES
p832
sbag1
(g2
g3
NtRp833
(dp834
g52
V10.1073/pnas.0611046104
p835
sg48
VP NATL ACAD SCI USA
p836
sg50
V104
p837
sg80
(lp838
(VPALENIK
VB
tp839
asg19
I2007
sg46
V7705
p840
sbag1
(g2
g3
NtRp841
(dp842
g52
V10.1038/nature01943
p843
sg48
VNATURE
p844
sg50
V424
p845
sg80
(lp846
(VPALENIK
VB
tp847
asg19
I2003
sg46
V1037
p848
sbag1
(g2
g3
NtRp849
(dp850
g52
V10.3732/ajb.91.10.1437
p851
sg48
VAM J BOT
p852
sg50
V91
p853
sg80
(lp854
(VPALMER
VJ D
tp855
asg19
I2004
sg46
V1437
p856
sbag1
(g2
g3
NtRp857
(dp858
g52
V10.1111/j.1749-6632.1970.tb45164.x
p859
sg48
VANN NY ACAD SCI
p860
sg50
V175
p861
sg80
(lp862
(VPARKER
VB C
tp863
asg19
I1970
sg46
V417
p864
sbag1
(g2
g3
NtRp865
(dp866
g52
V10.1139/v60-284
p867
sg48
VCAN J CHEM
p868
sg50
V38
p869
sg80
(lp870
(VPARRISH
VF W
tp871
asg19
I1960
sg46
V2094
p872
sbag1
(g2
g3
NtRp873
(dp874
g52
V10.1104/pp.109.151985
p875
sg48
VPLANT PHYSIOL
p876
sg50
V153
p877
sg80
(lp878
(VPATTATHIL
VS
tp879
asg19
I2010
sg46
VLANT
p880
sbag1
(g2
g3
NtRp881
(dp882
g52
V10.1016/j.pbi.2008.04.002
p883
sg48
VCURR OPIN PLANT BIOL
p884
sg50
V11
p885
sg80
(lp886
(VPAULY
VM
tp887
asg19
I2008
sg46
V233
p888
sbag1
(g2
g3
NtRp889
(dp890
g52
V10.1093/glycob/cwn078
p891
sg48
VGLYCOBIOLOGY
p892
sg50
V18
p893
sg80
(lp894
(VPENA
VM J
tp895
asg19
I2008
sg46
V891
p896
sbag1
(g2
g3
NtRp897
(dp898
g52
V10.1105/tpc.106.049320
p899
sg48
VPLANT CELL
p900
sg50
V19
p901
sg80
(lp902
(VPENA
VM J
tp903
asg19
I2007
sg46
VLANT
p904
sbag1
(g2
g3
NtRp905
(dp906
g52
V10.1083/jcb.108.5.1967
p907
sg48
VJ CELL BIOL
p908
sg50
V108
p909
sg80
(lp910
(VPENNELL
VR I
tp911
asg19
I1989
sg46
V1967
p912
sbag1
(g2
g3
NtRp913
(dp914
g52
Nsg48
VEUR FOOD RES TECHNOL
p915
sg50
V212
p916
sg80
(lp917
(VPERCIVAL
VE
tp918
asg19
I2001
sg46
V349
p919
sbag1
(g2
g3
NtRp920
(dp921
g52
V10.1016/j.ppi.2004.09.002
p922
sg48
VCURR OPIN PLANT BIOL
p923
sg50
V7
sg80
(lp924
(VPETER
VG
tp925
asg19
I2004
sg46
V737
p926
sbag1
(g2
g3
NtRp927
(dp928
g52
V10.1111/j.1742-4658.2009.07086.x
p929
sg48
VFEBS J
p930
sg50
V276
p931
sg80
(lp932
(VPETTOLINO
VF
tp933
asg19
I2009
sg46
V4122
p934
sbag1
(g2
g3
NtRp935
(dp936
g52
Nsg48
VAPPL ENVIRON MICROB
p937
sg50
V57
p938
sg80
(lp939
(VPLUDE
VJ L
tp940
asg19
I1991
sg46
V1696
p941
sbag1
(g2
g3
NtRp942
(dp943
g52
V10.1016/j.pbi.2008.02.012
p944
sg48
VCURR OPIN PLANT BIOL
p945
sg50
V11
p946
sg80
(lp947
(VPOPPER
VZ A
tp948
asg19
I2008
sg46
V286
p949
sbag1
(g2
g3
NtRp950
(dp951
g52
V10.1016/j.bse.2003.07.004
p952
sg48
VBIOCHEM SYST ECOL
p953
sg50
V32
p954
sg80
(lp955
(VPOPPER
VZ A
tp956
asg19
I2004
sg46
V279
p957
sbag1
(g2
g3
NtRp958
(dp959
g52
V10.1093/aob/mcg013
p960
sg48
VANN BOT
p961
sg50
V91
p962
sg80
(lp963
(VPOPPER
VZ A
tp964
asg19
I2003
sg46
V1
sbag1
(g2
g3
NtRp965
(dp966
g52
V10.1111/j.1469-8137.2004.01146.x
p967
sg48
VNEW PHYTOL
p968
sg50
V164
p969
sg80
(lp970
(VPOPPER
VZ A
tp971
asg19
I2004
sg46
V165
p972
sbag1
(g2
g3
NtRp973
(dp974
g52
V10.1016/S0031-9422(00)84964-X
p975
sg48
VPHYTOCHEMISTRY
p976
sg50
V23
p977
sg80
(lp978
(VRAGAN
VM A
tp979
asg19
I1984
sg46
VHYTOCHEMISTRY
p980
sbag1
(g2
g3
NtRp981
(dp982
g52
V10.1104/pp.124.2.495
p983
sg48
VPLANT PHYSIOL
p984
sg50
V124
p985
sg80
(lp986
(VRICHMOND
VT A
tp987
asg19
I2000
sg46
VLANT
p988
sbag1
(g2
g3
NtRp989
(dp990
g52
V10.1128/EC.1.6.847-855.2002
p991
sg48
VEUKARYOT CELL
p992
sg50
V1
sg80
(lp993
(VROBERTS
VA W
tp994
asg19
I2002
sg46
V847
p995
sbag1
(g2
g3
NtRp996
(dp997
g52
Nsg48
VJ PHYCOL
p998
sg50
V43
p999
sg80
(lp1000
(VROBERTS
VE
tp1001
asg19
I2009
sg46
V42
p1002
sbag1
(g2
g3
NtRp1003
(dp1004
g52
V10.1098/rstb.1974.0021
p1005
sg48
VPHILOS T ROY SOC B
p1006
sg50
V268
p1007
sg80
(lp1008
(VROBERTS
VK
tp1009
asg19
I1974
sg46
VHILOS
p1010
sbag1
(g2
g3
NtRp1011
(dp1012
g52
V10.1111/j.1469-8137.2006.01898.x
p1013
sg48
VNEW PHYTOL
p1014
sg50
V173
p1015
sg80
(lp1016
(VROS
VL V G
tp1017
asg19
I2007
sg46
V63
p1018
sbag1
(g2
g3
NtRp1019
(dp1020
g52
V10.1016/S0168-9525(00)02102-8
p1021
sg48
VTRENDS GENET
p1022
sg50
V16
p1023
sg80
(lp1024
(VROYO
VJ
tp1025
asg19
I2000
sg46
V432
p1026
sbag1
(g2
g3
NtRp1027
(dp1028
g52
V10.1007/s00216-007-1522-6
p1029
sg48
VANAL BIOANAL CHEM
p1030
sg50
V389
p1031
sg80
(lp1032
(VSAPEI
VL
tp1033
asg19
I2007
sg46
V1249
p1034
sbag1
(g2
g3
NtRp1035
(dp1036
g52
V10.1093/jxb/erp245
p1037
sg48
VJ EXP BOT
p1038
sg50
V60
p1039
sg80
(lp1040
(VSARKAR
VP
tp1041
asg19
I2009
sg46
V3615
p1042
sbag1
(g2
g3
NtRp1043
(dp1044
g52
V10.2216/i0031-8884-38-3-161.1
p1045
sg48
VPHYCOLOGIA
p1046
sg50
V38
p1047
sg80
(lp1048
(VSCHOENWAELDER
VM E A
tp1049
asg19
I1999
sg46
VHYCOLOGIA
p1050
sbag1
(g2
g3
NtRp1051
(dp1052
g52
V10.1046/j.1529-8817.1998.340969.x
p1053
sg48
VJ PHYCOL
p1054
sg50
V34
p1055
sg80
(lp1056
(VSCHOENWAELDER
VM E A
tp1057
asg19
I1998
sg46
V969
p1058
sbag1
(g2
g3
NtRp1059
(dp1060
g52
V10.1105/tpc.12.9.1751
p1061
sg48
VPLANT CELL
p1062
sg50
V12
p1063
sg80
(lp1064
(VSCHULTZ
VC J
tp1065
asg19
I2000
sg46
VLANT
p1066
sbag1
(g2
g3
NtRp1067
(dp1068
g52
V10.1105/tpc.017749
p1069
sg48
VPLANT CELL
p1070
sg50
V16
p1071
sg80
(lp1072
(VSEGUI-SIMARRO
VJ M
tp1073
asg19
I2004
sg46
VLANT
p1074
sbag1
(g2
g3
NtRp1075
(dp1076
g52
V10.1093/glycob/cwq011
p1077
sg48
VGLYCOBIOLOGY
p1078
sg50
V20
p1079
sg80
(lp1080
(VSEVENO
VM
tp1081
asg19
I2010
sg46
V617
p1082
sbag1
(g2
g3
NtRp1083
(dp1084
g52
V10.1023/A:1022972221002
p1085
sg48
VJ APPL PHYCOL
p1086
sg50
V15
p1087
sg80
(lp1088
(VSHIBATA
VT
tp1089
asg19
I2003
sg46
V61
p1090
sbag1
(g2
g3
NtRp1091
(dp1092
g52
Nsg48
VAGR BIOL CHEM TOKYO
p1093
sg50
V42
p1094
sg80
(lp1095
(VSHIBUYA
VN
tp1096
asg19
I1978
sg46
V2267
p1097
sbag1
(g2
g3
NtRp1098
(dp1099
g52
V10.1007/BF01177918
p1100
sg48
VJ WOOD SCI
p1101
sg50
V45
p1102
sg80
(lp1103
(VSHIMOKAWA
VT
tp1104
asg19
I1999
sg46
V435
p1105
sbag1
(g2
g3
NtRp1106
(dp1107
g52
V10.1111/j.1365-313X.2008.03453.x
p1108
sg48
VPLANT J
p1109
sg50
V54
p1110
sg80
(lp1111
(VSORENSEN
VI
tp1112
asg19
I2008
sg46
VLANT
p1113
sbag1
(g2
g3
NtRp1114
(dp1115
g52
V10.1104/pp.110.154427
p1116
sg48
VPLANT PHYSIOL
p1117
sg50
V153
p1118
sg80
(lp1119
(VSORENSEN
VI
tp1120
asg19
I2010
sg46
VLANT
p1121
sbag1
(g2
g3
NtRp1122
(dp1123
g52
V10.1111/j.1529-8817.2005.00138.x
p1124
sg48
VJ PHYCOL
p1125
sg50
V41
p1126
sg80
(lp1127
(VSTANLEY
VM S
tp1128
asg19
I2005
sg46
V1219
p1129
sbag1
(g2
g3
NtRp1130
(dp1131
g52
V10.2307/2444872
p1132
sg48
VAM J BOT
p1133
sg50
V79
p1134
sg80
(lp1135
(VSTEBBINS
VG L
tp1136
asg19
I1992
sg46
V589
p1137
sbag1
(g2
g3
NtRp1138
(dp1139
g52
V10.1046/j.1365-313x.2001.01005.x
p1140
sg48
VPLANT J
p1141
sg50
V26
p1142
sg80
(lp1143
(VTHOMPSON
VJ E
tp1144
asg19
I2001
sg46
VLANT
p1145
sbag1
(g2
g3
NtRp1146
(dp1147
g52
Nsg48
VS VENSK PAPPERS TIDNING
p1148
sg50
V65
p1149
sg80
(lp1150
(VTIMELL
VTORE E
tp1151
asg19
I1962
sg46
V122
p1152
sbag1
(g2
g3
NtRp1153
(dp1154
g52
Nsg48
VAM J BOT
p1155
sg50
V92
p1156
sg80
(lp1157
(VTRETHEWEY
VJ A K
tp1158
asg19
I2005
sg46
V1669
p1159
sbag1
(g2
g3
NtRp1160
(dp1161
g52
V10.1046/j.1529-8817.1999.3540635.x
p1162
sg48
VJ PHYCOL
p1163
sg50
V35
p1164
sg80
(lp1165
(VTSEKOS
VI
tp1166
asg19
I1999
sg46
V635
p1167
sbag1
(g2
g3
NtRp1168
(dp1169
g52
V10.1016/S0031-9422(00)85744-1
p1170
sg48
VPHYTOCHEMISTRY
p1171
sg50
V9
sg80
(lp1172
(VTURVEY
VJ R
tp1173
asg19
I1970
sg46
VHYTOCHEMISTRY
p1174
sbag1
(g2
g3
NtRp1175
(dp1176
g52
V10.1093/aob/mc1232
p1177
sg48
VANN BOT
p1178
sg50
V99
p1179
sg80
(lp1180
(VVAN
VSANDT V S T
tp1181
asg19
I2007
sg46
V39
p1182
sbag1
(g2
g3
NtRp1183
(dp1184
g52
V10.1111/j.1365-313X.2009.03876.x
p1185
sg48
VPLANT J
p1186
sg50
V59
p1187
sg80
(lp1188
(VVERHERTBRUGGEN
VY
tp1189
asg19
I2009
sg46
VLANT
p1190
sbag1
(g2
g3
NtRp1191
(dp1192
g52
V10.1093/pcp/pci013
p1193
sg48
VPLANT CELL PHYSIOL
p1194
sg50
V46
p1195
sg80
(lp1196
(VVISSENBERG
VK
tp1197
asg19
I2005
sg46
VLANT
p1198
sbag1
(g2
g3
NtRp1199
(dp1200
g52
Nsg48
VJ CELL BIOL
p1201
sg50
V95
p1202
sg80
(lp1203
(VVREELAND
VV
tp1204
asg19
I1982
sg46
VA127
p1205
sbag1
(g2
g3
NtRp1206
(dp1207
g52
V10.1007/BF00399916
p1208
sg48
VPLANTA
p1209
sg50
V162
p1210
sg80
(lp1211
(VVREELAND
VV
tp1212
asg19
I1984
sg46
VLANTA
p1213
sbag1
(g2
g3
NtRp1214
(dp1215
g52
Nsg48
VJ HISTOCHEM CYTOCHEM
p1216
sg50
V20
p1217
sg80
(lp1218
(VVREELAND
VV
tp1219
asg19
I1972
sg46
V358
p1220
sbag1
(g2
g3
NtRp1221
(dp1222
g52
Nsg48
VBIOL DIATOMS
p1223
sg50
Nsg80
(lp1224
(VWEMER
VD
tp1225
asg19
I1977
sg46
V110
p1226
sbag1
(g2
g3
NtRp1227
(dp1228
g52
V10.1073/pnas.0801696105
p1229
sg48
VP NATL ACAD SCI USA
p1230
sg50
V105
p1231
sg80
(lp1232
(VWENG
VJ K
tp1233
asg19
I2008
sg46
V7887
p1234
sbag1
(g2
g3
NtRp1235
(dp1236
g52
V10.1105/tpc.109.073528
p1237
sg48
VPLANT CELL
p1238
sg50
V22
p1239
sg80
(lp1240
(VWENG
VJ K
tp1241
asg19
I2010
sg46
VLANT
p1242
sbag1
(g2
g3
NtRp1243
(dp1244
g52
V10.1002/1615-9861(200212)2:12<1666::AID-PROT1666>3.0.CO;2-E
p1245
sg48
VPROTEOMICS
p1246
sg50
V2
sg80
(lp1247
(VWILLATS
VW G T
tp1248
asg19
I2002
sg46
VROTEOMICS
p1249
sbag1
(g2
g3
NtRp1250
(dp1251
g52
V10.1186/1471-2105-10-S11-S3
p1252
sg48
VBMC BIOINFORMATICS
p1253
sg50
V10
p1254
sg80
(lp1255
(VXU
VZ Y
tp1256
asg19
I2009
sg46
Nsbag1
(g2
g3
NtRp1257
(dp1258
g52
V10.1186/1471-2229-9-99
p1259
sg48
VBMC PLANT BIOL
p1260
sg50
V9
sg80
(lp1261
(VYIN
VY B
tp1262
asg19
I2009
sg46
Nsbag1
(g2
g3
NtRp1263
(dp1264
g52
V10.1093/molbev/msh075
p1265
sg48
VMOL BIOL EVOL
p1266
sg50
V21
p1267
sg80
(lp1268
(VYOON
VH S
tp1269
asg19
I2004
sg46
V809
p1270
sbag1
(g2
g3
NtRp1271
(dp1272
g52
V10.1016/j.pbi.2008.02.007
p1273
sg48
VCURR OPIN PLANT BIOL
p1274
sg50
V11
p1275
sg80
(lp1276
(VYORK
VW S
tp1277
asg19
I2008
sg46
V258
p1278
sbag1
(g2
g3
NtRp1279
(dp1280
g52
V10.1016/0008-6215(85)85228-9
p1281
sg48
VCARBOHYD RES
p1282
sg50
V138
p1283
sg80
(lp1284
(VYORK
VW S
tp1285
asg19
I1985
sg46
V109
p1286
sbag1
(g2
g3
NtRp1287
(dp1288
g52
V10.1093/pcp/pcj093
p1289
sg48
VPLANT CELL PHYSIOL
p1290
sg50
V47
p1291
sg80
(lp1292
(VZHOU
VG K
tp1293
asg19
I2006
sg46
VLANT
p1294
sbasb.