ccopy_reg
_reconstructor
p1
(ctethne.classes.paper
Paper
p2
c__builtin__
object
p3
NtRp4
(dp5
S'publisherCity'
p6
VROCKVILLE
p7
sS'reprintAddress'
p8
VBraun, HP (reprint author), Univ Hannover, Inst Angew Genet, Herrenhauser Str 2, D-30419 Hannover, Germany.
p9
sS'WC'
p10
VPlant Sciences
p11
sS'GA'
p12
V723JR
p13
sS'abstract'
p14
VA project to systematically investigate respiratory supercomplexes in plant mitochondria was initiated. Mitochondrial fractions from Arabidopsis, potato (Solanum tuberosum), bean (Phaseolus vulgaris), and barley (Hordeum vulgare) were carefully treated with various concentrations of the nonionic detergents dodecylmaltoside, Triton X-100, or digitonin, and proteins were subsequently separated by (a) Blue-native polyacrylamide gel electrophoresis (PAGE), (b) two-dimensional Blue-native/sodium dodecyl sulfate-PAGE, and (c) two-dimensional Blue-native/Blue-native PAGE. Three high molecular mass complexes of 1,100, 1,500, and 3,000 kD are visible on one-dimensional Blue native gels, which were identified by separations on second gel dimensions and protein analyses by mass spectrometry. The 1,100-kD complex represents dimeric ATP synthase and is only stable under very low concentrations of detergents. In contrast, the 1,500-kD complex is stable at medium and even high concentrations of detergents and includes the complexes I and III2. Depending on the investigated organism, 50% to 90% of complex I forms part of this supercomplex if solubilized with digitonin. The 3,000-kD complex, which also includes the complexes I and III, is of low abundance and most likely has a III4I2 structure. The complexes IV, 11, and the alternative oxidase were not part of supercomplexes under all conditions applied. Digitonin proved to be the ideal detergent for supercomplex stabilization and also allows optimal visualization of the complexes 11 and IV on Blue-native gels. Complex 11 unexpectedly was found to be composed of seven subunits, and complex IV is present in two different forms on the Blue-native gels, the larger of which comprises additional subunits including a 32-kD protein resembling COX Vlb from other organisms. We speculate that supercomplex formation between the complexes I and III limits access of alternative oxidase to its substrate ubiquinol and possibly regulates alternative respiration. The data of this investigation are available at http://www.gartenbau.uni-hannover.de/genetik/braun/AMPP.
p15
sS'pageEnd'
p16
I286
sS'date'
p17
I2003
sS'documentType'
p18
VArticle
p19
sS'subject'
p20
VPlant Sciences
p21
sS'isoSource'
p22
VPlant Physiol.
p23
sS'timesCited'
p24
(lp25
I151
aVZ9 159
p26
asS'PT'
p27
VJ
sS'title'
p28
VNew Insights Into The Respiratory Chain Of Plant Mitochondria. Supercomplexes And A Unique Composition Of Complex Ii
p29
sS'ISSN'
p30
(lp31
V0032-0889
p32
aVJ9 PLANT PHYSIOL
p33
asS'authors_full'
p34
(lp35
(VEUBEL
VH
tp36
a(VJANSCH
VL
tp37
a(VBRAUN
VHP
tp38
asS'PG'
p39
I13
sS'PD'
p40
VSEP
p41
sS'pageStart'
p42
I274
sS'issue'
p43
I1
sS'RI'
p44
VBraun, Hans/E-7149-2011
p45
sS'journal'
p46
VPLANT PHYSIOLOGY
p47
sS'volume'
p48
V133
p49
sS'doi'
p50
V10.1104/pp.103.024620
p51
sS'authorAddress'
p52
(lp53
VUniv Hannover, Inst Angew Genet, D-30419 Hannover, Germany.
p54
aVGesellsch Biotechnol Forsch, D-38124 Braunschweig, Germany.
p55
asS'publisherAddress'
p56
V15501 MONONA DRIVE, ROCKVILLE, MD 20855 USA
p57
sS'ER'
p58
V
sS'publisher'
p59
VAMER SOC PLANT BIOLOGISTS
p60
sS'authorKeywords'
p61
(lp62
VCYTOCHROME-C-OXIDASE
p63
aVARABIDOPSIS-THALIANA
p64
aVPROCESSING PEPTIDASE
p65
aVPROTEOMIC APPROACH
p66
aVATP SYNTHASE
p67
aVSUCCINATE-DEHYDROGENASE
p68
aVALTERNATIVE OXIDASE
p69
aVPOLYACRYLAMIDE GELS
p70
aVYEAST MITOCHONDRIA
p71
aVPROTEIN COMPLEXES
p72
asS'OI'
p73
VBraun, Hans/0000-0002-4459-9727
p74
sS'language'
p75
VEnglish
p76
sS'wosid'
p77
VWOS:000185429700028
p78
sS'citationCount'
p79
I60
sS'authors_init'
p80
(lp81
(VEUBEL
VH
tp82
a(VJANSCH
VL
tp83
a(VBRAUN
VH P
tp84
asS'citedReferences'
p85
(lp86
g1
(g2
g3
NtRp87
(dp88
g50
V10.1093/emboj/17.24.7170
p89
sg46
VEMBO J
p90
sg48
V17
p91
sg80
(lp92
(VARNOLD
VI
tp93
asg17
I1998
sg42
V7170
p94
sbag1
(g2
g3
NtRp95
(dp96
g50
V10.1074/jbc.274.1.36
p97
sg46
VJ BIOL CHEM
p98
sg48
V274
p99
sg80
(lp100
(VARNOLD
VI
tp101
asg17
I1999
sg42
V36
p102
sbag1
(g2
g3
NtRp103
(dp104
g50
Nsg46
VJ BIOL CHEM
p105
sg48
V260
p106
sg80
(lp107
(VBERRY
VE A
tp108
asg17
I1985
sg42
V2458
p109
sbag1
(g2
g3
NtRp110
(dp111
g50
Nsg46
VEMBO J
p112
sg48
V11
p113
sg80
(lp114
(VBRAUN
VH P
tp115
asg17
I1992
sg42
V3219
p116
sbag1
(g2
g3
NtRp117
(dp118
g50
Nsg46
VMOL GEN GENET
p119
sg48
V231
p120
sg80
(lp121
(VBRAUN
VH P
tp122
asg17
I1992
sg42
V217
p123
sbag1
(g2
g3
NtRp124
(dp125
g50
V10.1007/BF02110005
p126
sg46
VJ BIOENERG BIOMEMBR
p127
sg48
V27
p128
sg80
(lp129
(VBRAUN
VH P
tp130
asg17
I1995
sg42
V423
p131
sbag1
(g2
g3
NtRp132
(dp133
g50
V10.1074/jbc.273.21.13143
p134
sg46
VJ BIOL CHEM
p135
sg48
V273
p136
sg80
(lp137
(VBRUMME
VS
tp138
asg17
I1998
sg42
V13143
p139
sbag1
(g2
g3
NtRp140
(dp141
g50
V10.1073/pnas.93.6.2328
p142
sg46
VP NATL ACAD SCI USA
p143
sg48
V93
p144
sg80
(lp145
(VBURGER
VG
tp146
asg17
I1996
sg42
V2328
p147
sbag1
(g2
g3
NtRp148
(dp149
g50
V10.1016/S0014-5793(03)00250-3
p150
sg46
VFEBS LETT
p151
sg48
V540
p152
sg80
(lp153
(VBYKOVA
VN V
tp154
asg17
I2003
sg42
V141
p155
sbag1
(g2
g3
NtRp156
(dp157
g50
V10.1074/jbc.M001901200
p158
sg46
VJ BIOL CHEM
p159
sg48
V275
p160
sg80
(lp161
(VCRUCIAT
VC M
tp162
asg17
I2000
sg42
V18093
p163
sbag1
(g2
g3
NtRp164
(dp165
g50
Nsg46
VJ BIOL CHEM
p166
sg48
V269
p167
sg80
(lp168
(VDAIGNANFORNIER
VB
tp169
asg17
I1994
sg42
V15469
p170
sbag1
(g2
g3
NtRp171
(dp172
g50
V10.1046/j.1365-313x.2001.01017.x
p173
sg46
VPLANT J
p174
sg48
V26
p175
sg80
(lp176
(VDUCOS
VE
tp177
asg17
I2001
sg42
VLANT
p178
sbag1
(g2
g3
NtRp179
(dp180
g50
V10.1104/pp.89.4.1311
p181
sg46
VPLANT PHYSIOL
p182
sg48
V89
p183
sg80
(lp184
(VELTHON
VT E
tp185
asg17
I1989
sg42
VLANT
p186
sbag1
(g2
g3
NtRp187
(dp188
g50
V10.1016/0005-2728(94)90181-3
p189
sg46
VBBA
p190
sg48
V1186
p191
sg80
(lp192
(VERIKSSON
VA C
tp193
asg17
I1994
sg42
V221
p194
sbag1
(g2
g3
NtRp195
(dp196
g50
V10.1023/A:1010612506070
p197
sg46
VPLANT MOL BIOL
p198
sg48
V46
p199
sg80
(lp200
(VFIGUEROA
VP
tp201
asg17
I2001
sg42
VLANT
p202
sbag1
(g2
g3
NtRp203
(dp204
g50
V10.1023/A:1019926301981
p205
sg46
VPLANT MOL BIOL
p206
sg48
V50
p207
sg80
(lp208
(VFIGUEROA
VP
tp209
asg17
I2002
sg42
VLANT
p210
sbag1
(g2
g3
NtRp211
(dp212
g50
Nsg46
VIN PRESS PLANT PHYSL
p213
sg48
Nsg80
(lp214
(VFOCKE
VM
tp215
asg17
I2003
sg42
Nsbag1
(g2
g3
NtRp216
(dp217
g50
V10.1074/jbc.M207456200
p218
sg46
VJ BIOL CHEM
p219
sg48
V277
p220
sg80
(lp221
(VHAGGIE
VP M
tp222
asg17
I2002
sg42
V40782
p223
sbag1
(g2
g3
NtRp224
(dp225
g50
V10.1016/S0014-5793(03)00264-3
p226
sg46
VFEBS LETT
p227
sg48
V540
p228
sg80
(lp229
(VHEAZLEWOOD
VJ L
tp230
asg17
I2003
sg42
V201
p231
sbag1
(g2
g3
NtRp232
(dp233
g50
V10.1016/S0005-2728(03)00045-8
p234
sg46
VBBA
p235
sg48
V1604
p236
sg80
(lp237
(VHEAZLEWOOD
VJ L
tp238
asg17
I2003
sg42
V159
p239
sbag1
(g2
g3
NtRp240
(dp241
g50
V10.1104/pp.102.018986
p242
sg46
VPLANT PHYSIOL
p243
sg48
V132
p244
sg80
(lp245
(VHEAZLEWOOD
VJ L
tp246
asg17
I2003
sg42
VLANT
p247
sbag1
(g2
g3
NtRp248
(dp249
g50
Nsg46
VELECTROPHORESE FORUM
p250
sg48
V86
p251
sg80
(lp252
(VHEUKESHOVEN
VJ
tp253
asg17
I1986
sg42
V22
p254
sbag1
(g2
g3
NtRp255
(dp256
g50
Nsg46
VJ BIOL CHEM
p257
sg48
V270
p258
sg80
(lp259
(VIWASAKI
VT
tp260
asg17
I1995
sg42
V30881
p261
sbag1
(g2
g3
NtRp262
(dp263
g50
V10.1111/j.1432-1033.1995.0878m.x
p264
sg46
VEUR J BIOCHEM
p265
sg48
V228
p266
sg80
(lp267
(VJANSCH
VL
tp268
asg17
I1995
sg42
V878
p269
sbag1
(g2
g3
NtRp270
(dp271
g50
V10.1046/j.1365-313X.1996.09030357.x
p272
sg46
VPLANT J
p273
sg48
V9
sg80
(lp274
(VJANSCH
VL
tp275
asg17
I1996
sg42
VLANT
p276
sbag1
(g2
g3
NtRp277
(dp278
g50
V10.1046/j.1365-313X.1999.00401.x
p279
sg46
VPLANT J
p280
sg48
V17
p281
sg80
(lp282
(VKARPOVA
VO V
tp283
asg17
I1999
sg42
VLANT
p284
sbag1
(g2
g3
NtRp285
(dp286
g50
V10.1104/pp.127.4.1694
p287
sg46
VPLANT PHYSIOL
p288
sg48
V127
p289
sg80
(lp290
(VKRUFT
VV
tp291
asg17
I2001
sg42
VLANT
p292
sbag1
(g2
g3
NtRp293
(dp294
g50
Nsg46
VPLANT MITOCHONDRIA
p295
sg48
Nsg80
(lp296
(VKUGLER
VM
tp297
asg17
I1998
sg42
VLANT
p298
sbag1
(g2
g3
NtRp299
(dp300
g50
Nsg46
VJ BIOL CHEM
p301
sg48
V267
p302
sg80
(lp303
(VLAMARCHE
VA E P
tp304
asg17
I1992
sg42
V22473
p305
sbag1
(g2
g3
NtRp306
(dp307
g50
V10.1107/S0907444901005625
p308
sg46
VACTA CRYSTALLOGR D
p309
sg48
V57
p310
sg80
(lp311
(VLEE
VS J
tp312
asg17
I2001
sg42
V941
p313
sbag1
(g2
g3
NtRp314
(dp315
g50
V10.1016/S0005-2728(01)00229-8
p316
sg46
VBBA
p317
sg48
V1553
p318
sg80
(lp319
(VLEMIRE
VB D
tp320
asg17
I2002
sg42
V102
p321
sbag1
(g2
g3
NtRp322
(dp323
g50
Nsg46
VPLANT CELL
p324
sg48
V11
p325
sg80
(lp326
(VMACKENZIE
VS
tp327
asg17
I1999
sg42
VLANT
p328
sbag1
(g2
g3
NtRp329
(dp330
g50
V10.1078/0176-1617-00292
p331
sg46
VJ PLANT PHYSIOL
p332
sg48
V158
p333
sg80
(lp334
(VMIHR
VC
tp335
asg17
I2001
sg42
V787
p336
sbag1
(g2
g3
NtRp337
(dp338
g50
V10.1002/elps.1150110202
p339
sg46
VELECTROPHORESIS
p340
sg48
V11
p341
sg80
(lp342
(VNEUHOFF
VV
tp343
asg17
I1990
sg42
V101
p344
sbag1
(g2
g3
NtRp345
(dp346
g50
V10.1002/elps.1150060905
p347
sg46
VELECTROPHORESIS
p348
sg48
V6
sg80
(lp349
(VNEUHOFF
VV
tp350
asg17
I1985
sg42
V427
p351
sbag1
(g2
g3
NtRp352
(dp353
g50
V10.1074/jbc.M210499200
p354
sg46
VJ BIOL CHEM
p355
sg48
V278
p356
sg80
(lp357
(VNIEBISCH
VA
tp358
asg17
I2003
sg42
V4339
p359
sbag1
(g2
g3
NtRp360
(dp361
g50
Nsg46
VBREEDING SCI
p362
sg48
V49
p363
sg80
(lp364
(VOHTSU
VK
tp365
asg17
I1999
sg42
V211
p366
sbag1
(g2
g3
NtRp367
(dp368
g50
V10.1016/S0378-1119(01)00334-1
p369
sg46
VGENE
p370
sg48
V264
p371
sg80
(lp372
(VOHTSU
VK
tp373
asg17
I2001
sg42
V233
p374
sbag1
(g2
g3
NtRp375
(dp376
g50
V10.1016/S0005-2728(98)00021-8
p377
sg46
VBBA
p378
sg48
V1364
p379
sg80
(lp380
(VRASMUSSON
VA G
tp381
asg17
I1998
sg42
V101
p382
sbag1
(g2
g3
NtRp383
(dp384
g50
V10.1046/j.1365-313X.1999.00576.x
p385
sg46
VPLANT J
p386
sg48
V20
p387
sg80
(lp388
(VRASMUSSON
VA G
tp389
asg17
I1999
sg42
VLANT
p390
sbag1
(g2
g3
NtRp391
(dp392
g50
V10.1016/S0981-9428(01)01334-1
p393
sg46
VPLANT PHYSIOL BIOCH
p394
sg48
V39
p395
sg80
(lp396
(VRASMUSSON
VA G
tp397
asg17
I2001
sg42
VLANT
p398
sbag1
(g2
g3
NtRp399
(dp400
g50
V10.1016/0304-4173(84)90007-7
p401
sg46
VBIOCHIM BIOPHYS ACTA
p402
sg48
V768
p403
sg80
(lp404
(VRICH
VP R
tp405
asg17
I1984
sg42
V53
p406
sbag1
(g2
g3
NtRp407
(dp408
g50
Nsg46
VEMBO REP
p409
sg48
V4
sg80
(lp410
(VSABAR
VM
tp411
asg17
I2003
sg42
V1
sbag1
(g2
g3
NtRp412
(dp413
g50
V10.1016/S0005-2728(02)00271-2
p414
sg46
VBBA
p415
sg48
V1555
p416
sg80
(lp417
(VSCHAGGER
VH
tp418
asg17
I2002
sg42
V154
p419
sbag1
(g2
g3
NtRp420
(dp421
g50
V10.1016/S0091-679X(01)65014-3
p422
sg46
VMETHOD CELL BIOL
p423
sg48
V65
p424
sg80
(lp425
(VSCHAGGER
VH
tp426
asg17
I2001
sg42
V231
p427
sbag1
(g2
g3
NtRp428
(dp429
g50
V10.1080/15216540152845911
p430
sg46
VIUBMB LIFE
p431
sg48
V52
p432
sg80
(lp433
(VSCHAGGER
VH
tp434
asg17
I2001
sg42
V119
p435
sbag1
(g2
g3
NtRp436
(dp437
g50
V10.1093/emboj/19.8.1777
p438
sg46
VEMBO J
p439
sg48
V19
p440
sg80
(lp441
(VSCHAGGER
VH
tp442
asg17
I2000
sg42
V1777
p443
sbag1
(g2
g3
NtRp444
(dp445
g50
Nsg46
VJ BIOL CHEM
p446
sg48
V276
p447
sg80
(lp448
(VSCHAGGER
VH
tp449
asg17
I2001
sg42
V37861
p450
sbag1
(g2
g3
NtRp451
(dp452
g50
V10.1105/tpc.7.7.821
p453
sg46
VPLANT CELL
p454
sg48
V7
sg80
(lp455
(VSIEDOW
VJ N
tp456
asg17
I1995
sg42
VLANT
p457
sbag1
(g2
g3
NtRp458
(dp459
g50
Nsg46
VJ BIOL CHEM
p460
sg48
V262
p461
sg80
(lp462
(VSONE
VN
tp463
asg17
I1987
sg42
V15386
p464
sbag1
(g2
g3
NtRp465
(dp466
g50
V10.1107/S0907444998006362
p467
sg46
VACTA CRYSTALLOGR D
p468
sg48
V55
p469
sg80
(lp470
(VTOMIZAKI
VT
tp471
asg17
I1999
sg42
V31
p472
sbag1
(g2
g3
NtRp473
(dp474
g50
V10.1146/annurev.arplant.48.1.703
p475
sg46
VANNU REV PLANT PHYS
p476
sg48
V48
p477
sg80
(lp478
(VVANLERBERGHE
VG C
tp479
asg17
I1997
sg42
V703
p480
sbag1
(g2
g3
NtRp481
(dp482
g50
V10.1104/pp.102.018325
p483
sg46
VPLANT PHYSIOL
p484
sg48
V132
p485
sg80
(lp486
(VVAN
VL I S R
tp487
asg17
I2003
sg42
VLANT
p488
sbag1
(g2
g3
NtRp489
(dp490
g50
V10.1016/S0981-9428(00)80093-5
p491
sg46
VPLANT PHYSIOL BIOCH
p492
sg48
V37
p493
sg80
(lp494
(VVEDEL
VF
tp495
asg17
I1999
sg42
VLANT
p496
sbag1
(g2
g3
NtRp497
(dp498
g50
V10.1021/bi00161a028
p499
sg46
VBIOCHEMISTRY
p500
sg48
V31
p501
sg80
(lp502
(VWEISHAUPT
VA
tp503
asg17
I1992
sg42
V11477
p504
sbag1
(g2
g3
NtRp505
(dp506
g50
V10.1016/S0981-9428(03)00047-0
p507
sg46
VPLANT PHYSIOL BIOCH
p508
sg48
V41
p509
sg80
(lp510
(VWERHAHN
VW
tp511
asg17
I2003
sg42
VLANT
p512
sbag1
(g2
g3
NtRp513
(dp514
g50
V10.1104/pp.125.2.943
p515
sg46
VPLANT PHYSIOL
p516
sg48
V125
p517
sg80
(lp518
(VWERHAHN
VW
tp519
asg17
I2001
sg42
VLANT
p520
sbag1
(g2
g3
NtRp521
(dp522
g50
V10.1002/1522-2683(200202)23:4<640::AID-ELPS640>3.0.CO;2-F
p523
sg46
VELECTROPHORESIS
p524
sg48
V23
p525
sg80
(lp526
(VWERHAHN
VW
tp527
asg17
I2002
sg42
V640
p528
sbag1
(g2
g3
NtRp529
(dp530
g50
V10.1126/science.1079605
p531
sg46
VSCIENCE
p532
sg48
V299
p533
sg80
(lp534
(VYANKOVSKAYA
VV
tp535
asg17
I2003
sg42
V700
p536
sbag1
(g2
g3
NtRp537
(dp538
g50
V10.1074/jbc.C200551200
p539
sg46
VJ BIOL CHEM
p540
sg48
V277
p541
sg80
(lp542
(VZHANG
VM
tp543
asg17
I2002
sg42
V43553
p544
sbasb.