ccopy_reg
_reconstructor
p1
(ctethne.classes.paper
Paper
p2
c__builtin__
object
p3
NtRp4
(dp5
S'publisherCity'
p6
VROCKVILLE
p7
sS'reprintAddress'
p8
VStitt, M (reprint author), Max Planck Inst Mol Plant Physiol, D-14476 Potsdam, Germany.
p9
sS'WC'
p10
VPlant Sciences
p11
sS'GA'
p12
V176SU
p13
sS'FX'
p14
(lp15
VThis work was supported by the Max Planck Society, the German Ministry
p16
aVfor Education and Research, and the European Commission FP7
p17
aVcollaborative project TiMet (contract no. 245143).
p18
asS'abstract'
p19
VGrowth is driven by newly fixed carbon in the light, but at night it depends on reserves, like starch, that are laid down in the light. Unless plants coordinate their growth with diurnal changes in the carbon supply, they will experience acute carbon starvation during the night. Protein synthesis represents a major component of cellular growth. Polysome loading was investigated during the diurnal cycle, an extended night, and low CO2 in Arabidopsis (Arabidopsis thaliana) Columbia (Col-0) and in the starchless phosphoglucomutase (pgm) mutant. In Col-0, polysome loading was 60% to 70% in the light, 40% to 45% for much of the night, and less than 20% in an extended night, while in pgm, it fell to less than 25% early in the night. Quantification of ribosomal RNA species using quantitative reverse transcription-polymerase chain reaction revealed that polysome loading remained high for much of the night in the cytosol, was strongly light dependent in the plastid, and was always high in mitochondria. The rosette sucrose content correlated with overall and with cytosolic polysome loading. Ribosome abundance did not show significant diurnal changes. However, compared with Col-0, pgm had decreased and increased abundance of plastidic and mitochondrial ribosomes, respectively. Incorporation of label from (CO2)-C-13 into protein confirmed that protein synthesis continues at a diminished rate in the dark. Modeling revealed that a decrease in polysome loading at night is required to balance protein synthesis with the availability of carbon from starch breakdown. Costs are also reduced by using amino acids that accumulated in the previous light period. These results uncover a tight coordination of protein synthesis with the momentary supply of carbon.
p20
sS'pageEnd'
p21
I1265
sS'date'
p22
I2013
sS'documentType'
p23
VArticle
p24
sS'subject'
p25
VPlant Sciences
p26
sS'isoSource'
p27
VPlant Physiol.
p28
sS'timesCited'
p29
(lp30
I1
aVZ9 1
p31
asS'funding'
p32
(lp33
(VMax Planck Society
Ntp34
a(VGerman Ministry for Education and Research
Ntp35
a(VEuropean Commission
V245143
tp36
asS'PT'
p37
VJ
sS'title'
p38
VDiurnal Changes Of Polysome Loading Track Sucrose Content In The Rosette Of Wild-Type Arabidopsis And The Starchless Pgm Mutant
p39
sS'ISSN'
p40
(lp41
V0032-0889
p42
aVJ9 PLANT PHYSIOL
p43
asS'authors_full'
p44
(lp45
(VPAL
VSUNIL KUMAR
tp46
a(VLIPUT
VMAGDALENA
tp47
a(VPIQUES
VMARIA
tp48
a(VISHIHARA
VHIROFUMI
tp49
a(VOBATA
VTOSHIHIRO
tp50
a(VMARTINS
VMARINA C M
tp51
a(VSULPICE
VRONAN
tp52
a(VVAN DONGEN
VJOOST T
tp53
a(VFERNIE
VALISDAIR R
tp54
a(VYADAV
VUMESH PRASAD
tp55
a(VLUNN
VJOHN E
tp56
a(VUSADEL
VBJOERN
tp57
a(VSTITT
VMARK
tp58
asS'PG'
p59
I20
sS'PD'
p60
VJUL
p61
sS'pageStart'
p62
I1246
sS'issue'
p63
I3
sS'journal'
p64
VPLANT PHYSIOLOGY
p65
sS'volume'
p66
V162
p67
sS'doi'
p68
V10.1104/pp.112.212258
p69
sS'emailAddress'
p70
Vmstitt@mpimp-golm.mpg.de
p71
sS'authorAddress'
p72
V[Pal, Sunil Kumar; Liput, Magdalena; Piques, Maria; Ishihara, Hirofumi; Obata, Toshihiro; Martins, Marina C. M.; Sulpice, Ronan; van Dongen, Joost T.; Fernie, Alisdair R.; Yadav, Umesh Prasad; Lunn, John E.; Usadel, Bjoern; Stitt, Mark] Max Planck Inst Mol Plant Physiol, D-14476 Potsdam, Germany.
p73
sS'publisherAddress'
p74
V15501 MONONA DRIVE, ROCKVILLE, MD 20855 USA
p75
sS'ER'
p76
V
sS'publisher'
p77
VAMER SOC PLANT BIOLOGISTS
p78
sS'authorKeywords'
p79
(lp80
VMESSENGER-RNA TRANSLATION
p81
aVGENOME-WIDE ANALYSIS
p82
aVPHOTOSYNTHETIC PERIOD DURATION
p83
aVGENE-EXPRESSION
p84
aVPROTEIN-SYNTHESIS
p85
aVESCHERICHIA-COLI
p86
aVLEAF DEVELOPMENT
p87
aVCARBON-DIOXIDE
p88
aVMETABOLITE CONCENTRATIONS
p89
aVRIBOSOME DEGRADATION
p90
asS'language'
p91
VEnglish
p92
sS'wosid'
p93
VWOS:000321325700004
p94
sS'citationCount'
p95
I146
sS'authors_init'
p96
(lp97
(VPAL
VS K
tp98
a(VLIPUT
VM
tp99
a(VPIQUES
VM
tp100
a(VISHIHARA
VH
tp101
a(VOBATA
VT
tp102
a(VMARTINS
VM C M
tp103
a(VSULPICE
VR
tp104
a(VVAN DONGEN
VJ T
tp105
a(VFERNIE
VA R
tp106
a(VYADAV
VU P
tp107
a(VLUNN
VJ E
tp108
a(VUSADEL
VB
tp109
a(VSTITT
VM
tp110
asS'citedReferences'
p111
(lp112
g1
(g2
g3
NtRp113
(dp114
g68
V10.1093/jxb/err444
p115
sg64
VJ EXP BOT
p116
sg66
V63
p117
sg96
(lp118
(VALBINIAK
VA M
tp119
asg22
I2012
sg62
V1689
p120
sbag1
(g2
g3
NtRp121
(dp122
g68
V10.1111/j.1469-8137.2010.03505.x
p123
sg64
VNEW PHYTOL
p124
sg66
V188
p125
sg96
(lp126
(VAMTHOR
VJ S
tp127
asg22
I2010
sg62
V939
p128
sbag1
(g2
g3
NtRp129
(dp130
g68
V10.1104/pp.107.115592
p131
sg64
VPLANT PHYSIOL
p132
sg66
V146
p133
sg96
(lp134
(VUSADEL
VB
tp135
asg22
I2008
sg62
VLANT
p136
sbag1
(g2
g3
NtRp137
(dp138
g68
V10.1111/j.1365-3040.2011.02286.x
p139
sg64
VPLANT CELL ENVIRON
p140
sg66
V34
p141
sg96
(lp142
(VYAZDANBAKHSH
VN
tp143
asg22
I2011
sg62
VLANT
p144
sbag1
(g2
g3
NtRp145
(dp146
g68
V10.1073/pnas.0635171100
p147
sg64
VP NATL ACAD SCI USA
p148
sg66
V100
p149
sg96
(lp150
(VARAVA
VY
tp151
asg22
I2003
sg62
V3889
p152
sbag1
(g2
g3
NtRp153
(dp154
g68
V10.1111/j.1365-313X.2009.03902.x
p155
sg64
VPLANT J
p156
sg66
V59
p157
sg96
(lp158
(VARRIVAULT
VS
tp159
asg22
I2009
sg62
VLANT
p160
sbag1
(g2
g3
NtRp161
(dp162
g68
V10.1083/jcb.133.6.1251
p163
sg64
VJ CELL BIOL
p164
sg66
V133
p165
sg96
(lp166
(VAUBERT
VS
tp167
asg22
I1996
sg62
V1251
p168
sbag1
(g2
g3
NtRp169
(dp170
g68
V10.1093/mp/ssp113
p171
sg64
VMOL PLANT
p172
sg66
V3
sg96
(lp173
(VBAENA-GONZALEZ
VE
tp174
asg22
I2010
sg62
V300
p175
sbag1
(g2
g3
NtRp176
(dp177
g68
V10.1038/msb.2012.39
p178
sg64
VMOL SYST BIOL
p179
sg66
V8
sg96
(lp180
(VBAERENFALLER
VK
tp181
asg22
I2012
sg62
Nsbag1
(g2
g3
NtRp182
(dp183
g68
V10.1016/j.tplants.2009.05.004
p184
sg64
VTRENDS PLANT SCI
p185
sg66
V14
p186
sg96
(lp187
(VBAILEY-SERRES
VJ
tp188
asg22
I2009
sg62
V443
p189
sbag1
(g2
g3
NtRp190
(dp191
g68
V10.1016/S1360-1385(99)01386-2
p192
sg64
VTRENDS PLANT SCI
p193
sg66
V4
sg96
(lp194
(VBAILEY-SERRES
VJ
tp195
asg22
I1999
sg62
V142
p196
sbag1
(g2
g3
NtRp197
(dp198
g68
V10.1073/pnas.232703799
p199
sg64
VP NATL ACAD SCI USA
p200
sg66
V100
p201
sg96
(lp202
(VBALMER
VY
tp203
asg22
I2003
sg62
V370
p204
sbag1
(g2
g3
NtRp205
(dp206
g68
V10.1089/152308603321223577
p207
sg64
VANTIOXID REDOX SIGN
p208
sg66
V5
sg96
(lp209
(VBARNES
VD
tp210
asg22
I2003
sg62
V89
p211
sbag1
(g2
g3
NtRp212
(dp213
g68
V10.1261/rna.569407
p214
sg64
VRNA
p215
sg66
V13
p216
sg96
(lp217
(VBEILHARZ
VT H
tp218
asg22
I2007
sg62
V982
p219
sbag1
(g2
g3
NtRp220
(dp221
g68
V10.1093/bfgp/3.2.103
p222
sg64
VBriefings in Functional Genomics 
p223
sg66
V3
sg96
(lp224
(VBEILHARZ
VTRAUDE H
tp225
asg22
I2004
sg62
V103
p226
sbag1
(g2
g3
NtRp227
(dp228
g68
V10.1105/tpc.105.035261
p229
sg64
VPLANT CELL
p230
sg66
V17
p231
sg96
(lp232
(VBLASING
VO E
tp233
asg22
I2005
sg62
VLANT
p234
sbag1
(g2
g3
NtRp235
(dp236
g68
V10.1111/j.1365-313X.2008.03642.x
p237
sg64
VPLANT J
p238
sg66
V56
p239
sg96
(lp240
(VBRANCO-PRICE
VC
tp241
asg22
I2008
sg62
VLANT
p242
sbag1
(g2
g3
NtRp243
(dp244
g68
V10.1093/aob/mci217
p245
sg64
VANN BOT
p246
sg66
V96
p247
sg96
(lp248
(VBRANCO-PRICE
VC
tp249
asg22
I2005
sg62
V647
p250
sbag1
(g2
g3
NtRp251
(dp252
g68
V10.1371/journal.pcbi.0030057
p253
sg64
VPLOS COMPUT BIOL
p254
sg66
V3
sg96
(lp255
(VBROCKMANN
VR
tp256
asg22
I2007
sg62
VLOS
p257
sbag1
(g2
g3
NtRp258
(dp259
g68
V10.1104/pp.96.2.619
p260
sg64
VPLANT PHYSIOL
p261
sg66
V96
p262
sg96
(lp263
(VBROUQUISSE
VR
tp264
asg22
I1991
sg62
VLANT
p265
sbag1
(g2
g3
NtRp266
(dp267
g68
V10.1111/tpj.12080
p268
sg64
VPLANT J
p269
sg66
V73
p270
sg96
(lp271
(VCALDANA
VC
tp272
asg22
I2013
sg62
VLANT
p273
sbag1
(g2
g3
NtRp274
(dp275
g68
V10.1016/j.cell.2010.02.036
p276
sg64
VCELL
p277
sg66
V141
p278
sg96
(lp279
(VCANNARROZZI
VG
tp280
asg22
I2010
sg62
V355
p281
sbag1
(g2
g3
NtRp282
(dp283
g68
V10.1104/pp.79.1.11
p284
sg64
VPLANT PHYSIOL
p285
sg66
V79
p286
sg96
(lp287
(VCASPAR
VT
tp288
asg22
I1985
sg62
VLANT
p289
sbag1
(g2
g3
NtRp290
(dp291
g68
V10.1104/pp.95.4.1181
p292
sg64
VPLANT PHYSIOL
p293
sg66
V95
p294
sg96
(lp295
(VCASPAR
VT
tp296
asg22
I1991
sg62
VLANT
p297
sbag1
(g2
g3
NtRp298
(dp299
g68
V10.1104/pp.64.5.749
p300
sg64
VPLANT PHYSIOL
p301
sg66
V64
p302
sg96
(lp303
(VCHATTERTON
VN J
tp304
asg22
I1979
sg62
VLANT
p305
sbag1
(g2
g3
NtRp306
(dp307
g68
V10.1111/j.1399-3054.1980.tb02642.x
p308
sg64
VPHYSIOL PLANTARUM
p309
sg66
V49
p310
sg96
(lp311
(VCHATTERTON
VN J
tp312
asg22
I1980
sg62
VHYSIOL
p313
sbag1
(g2
g3
NtRp314
(dp315
g68
V10.1016/j.pbi.2008.10.008
p316
sg64
VCURR OPIN PLANT BIOL
p317
sg66
V11
p318
sg96
(lp319
(VCLINE
VK
tp320
asg22
I2008
sg62
V585
p321
sbag1
(g2
g3
NtRp322
(dp323
g68
V10.1104/pp.104.044362
p324
sg64
VPLANT PHYSIOL
p325
sg66
V135
p326
sg96
(lp327
(VCONTENTO
VA L
tp328
asg22
I2004
sg62
VLANT
p329
sbag1
(g2
g3
NtRp330
(dp331
g68
Nsg64
VJ BACTERIOL
p332
sg66
V166
p333
sg96
(lp334
(VDAVIS
VB D
tp335
asg22
I1986
sg62
V439
p336
sbag1
(g2
g3
NtRp337
(dp338
g68
Nsg64
VANN BOTANY
p339
sg66
V39
p340
sg96
(lp341
(VDE
VVRIES FWTP
tp342
asg22
I1975
sg62
V77
p343
sbag1
(g2
g3
NtRp344
(dp345
g68
V10.1104/pp.69.4.904
p346
sg64
VPLANT PHYSIOL
p347
sg66
V69
p348
sg96
(lp349
(VDEAN
VC
tp350
asg22
I1982
sg62
VLANT
p351
sbag1
(g2
g3
NtRp352
(dp353
g68
V10.1016/0092-8674(87)90290-X
p354
sg64
VCELL
p355
sg66
V49
p356
sg96
(lp357
(VDENG
VX W
tp358
asg22
I1987
sg62
V379
p359
sbag1
(g2
g3
NtRp360
(dp361
g68
V10.1038/sj.embor.7401043
p362
sg64
VEMBO REP
p363
sg66
V8
sg96
(lp364
(VDEPROST
VD
tp365
asg22
I2007
sg62
V864
p366
sbag1
(g2
g3
NtRp367
(dp368
g68
V10.1016/S0031-9422(00)88437-X
p369
sg64
VPHYTOCHEMISTRY
p370
sg66
V11
p371
sg96
(lp372
(VDETCHON
VP
tp373
asg22
I1972
sg62
VHYTOCHEMISTRY
p374
sbag1
(g2
g3
NtRp375
(dp376
g68
V10.1016/0005-2728(84)90041-0
p377
sg64
VBIOCHIM BIOPHYS ACTA
p378
sg66
V767
p379
sg96
(lp380
(VDIETZ
VK J
tp381
asg22
I1984
sg62
V432
p382
sbag1
(g2
g3
NtRp383
(dp384
g68
V10.1105/tpc.105.038315
p385
sg64
VPLANT CELL
p386
sg66
V18
p387
sg96
(lp388
(VEDWARDS
VK D
tp389
asg22
I2006
sg62
VLANT
p390
sbag1
(g2
g3
NtRp391
(dp392
g68
V10.1093/jxb/erq361
p393
sg64
VJ EXP BOT
p394
sg66
V62
p395
sg96
(lp396
(VFLUGGE
VU I
tp397
asg22
I2011
sg62
V2381
p398
sbag1
(g2
g3
NtRp399
(dp400
g68
V10.1111/j.1365-313X.2009.03886.x
p401
sg64
VPLANT J
p402
sg66
V59
p403
sg96
(lp404
(VFUJIKURA
VU
tp405
asg22
I2009
sg62
VLANT
p406
sbag1
(g2
g3
NtRp407
(dp408
g68
V10.1105/tpc.107.056507
p409
sg64
VPLANT CELL
p410
sg66
V20
p411
sg96
(lp412
(VFULTON
VD C
tp413
asg22
I2008
sg62
VLANT
p414
sbag1
(g2
g3
NtRp415
(dp416
g68
V10.1104/pp.88.1.69
p417
sg64
VPLANT PHYSIOL
p418
sg66
V88
p419
sg96
(lp420
(VGARDESTROM
VP
tp421
asg22
I1988
sg62
VLANT
p422
sbag1
(g2
g3
NtRp423
(dp424
g68
V10.1111/j.1365-3040.1996.tb00225.x
p425
sg64
VPLANT CELL ENVIRON
p426
sg66
V19
p427
sg96
(lp428
(VGEIGENBERGER
VP
tp429
asg22
I1996
sg62
VLANT
p430
sbag1
(g2
g3
NtRp431
(dp432
g68
V10.1071/PP99128
p433
sg64
VAUST J PLANT PHYSIOL
p434
sg66
V27
p435
sg96
(lp436
(VGEIGER
VD R
tp437
asg22
I2000
sg62
V571
p438
sbag1
(g2
g3
NtRp439
(dp440
g68
V10.1104/pp.83.2.399
p441
sg64
VPLANT PHYSIOL
p442
sg66
V83
p443
sg96
(lp444
(VGERHARDT
VR
tp445
asg22
I1987
sg62
VLANT
p446
sbag1
(g2
g3
NtRp447
(dp448
g68
V10.1105/tpc.104.025973
p449
sg64
VPLANT CELL
p450
sg66
V16
p451
sg96
(lp452
(VGIBON
VY
tp453
asg22
I2004
sg62
VLANT
p454
sbag1
(g2
g3
NtRp455
(dp456
g68
V10.1111/j.1365-3040.2009.01965.x
p457
sg64
VPLANT CELL ENVIRON
p458
sg66
V32
p459
sg96
(lp460
(VGIBON
VY
tp461
asg22
I2009
sg62
VLANT
p462
sbag1
(g2
g3
NtRp463
(dp464
g68
V10.1186/gb-2006-7-8-r76
p465
sg64
VGENOME BIOL
p466
sg66
V7
sg96
(lp467
(VGIBON
VY
tp468
asg22
I2006
sg62
Nsbag1
(g2
g3
NtRp469
(dp470
g68
V10.1111/j.1365-313X.2004.02173.x
p471
sg64
VPLANT J
p472
sg66
V39
p473
sg96
(lp474
(VGIBON
VY
tp475
asg22
I2004
sg62
VLANT
p476
sbag1
(g2
g3
NtRp477
(dp478
g68
V10.1093/embo-reports/kvd024
p479
sg64
VEMBO REP
p480
sg66
V1
sg96
(lp481
(VGIEGE
VP
tp482
asg22
I2000
sg62
V164
p483
sbag1
(g2
g3
NtRp484
(dp485
g68
V10.1073/pnas.0914299107
p486
sg64
VP NATL ACAD SCI USA
p487
sg66
V107
p488
sg96
(lp489
(VGRAF
VA
tp490
asg22
I2010
sg62
V9458
p491
sbag1
(g2
g3
NtRp492
(dp493
g68
V10.1111/j.1365-3040.2007.01701.x
p494
sg64
VPLANT CELL ENVIRON
p495
sg66
V30
p496
sg96
(lp497
(VHACHIYA
VT
tp498
asg22
I2007
sg62
VLANT
p499
sbag1
(g2
g3
NtRp500
(dp501
g68
V10.1016/j.pbi.2009.07.014
p502
sg64
VCURR OPIN PLANT BIOL
p503
sg66
V12
p504
sg96
(lp505
(VHANSON
VJ
tp506
asg22
I2009
sg62
V562
p507
sbag1
(g2
g3
NtRp508
(dp509
g68
V10.1111/j.1365-313X.2007.03385.x
p510
sg64
VPLANT J
p511
sg66
V53
p512
sg96
(lp513
(VHANSON
VJ
tp514
asg22
I2008
sg62
VLANT
p515
sbag1
(g2
g3
NtRp516
(dp517
g68
Nsg64
VPLANTA
p518
sg66
V194
p519
sg96
(lp520
(VHEINEKE
VD
tp521
asg22
I1994
sg62
VLANTA
p522
sbag1
(g2
g3
NtRp523
(dp524
g68
V10.1104/pp.95.4.1131
p525
sg64
VPLANT PHYSIOL
p526
sg66
V95
p527
sg96
(lp528
(VHEINEKE
VD
tp529
asg22
I1991
sg62
VLANT
p530
sbag1
(g2
g3
NtRp531
(dp532
g68
V10.1016/0014-5793(69)80280-2
p533
sg64
VFEBS LETT
p534
sg66
V5
sg96
(lp535
(VHELDT
VH W
tp536
asg22
I1969
sg62
V11
p537
sbag1
(g2
g3
NtRp538
(dp539
g68
V10.1146/annurev.micro.59.031805.133833
p540
sg64
VANNU REV MICROBIOL
p541
sg66
V59
p542
sg96
(lp543
(VHINNEBUSCH
VA G
tp544
asg22
I2005
sg62
V407
p545
sbag1
(g2
g3
NtRp546
(dp547
g68
Nsg64
VJ BIOL CHEM
p548
sg66
V241
p549
sg96
(lp550
(VHIRSCH
VC A
tp551
asg22
I1966
sg62
V5936
p552
sbag1
(g2
g3
NtRp553
(dp554
g68
V10.1111/j.1365-313X.2010.04457.x
p555
sg64
VPLANT J
p556
sg66
V65
p557
sg96
(lp558
(VHORIGUCHI
VG
tp559
asg22
I2011
sg62
VLANT
p560
sbag1
(g2
g3
NtRp561
(dp562
g68
V10.1016/j.cell.2009.01.019
p563
sg64
VCELL
p564
sg66
V136
p565
sg96
(lp566
(VHOUSELEY
VJ
tp567
asg22
I2009
sg62
V763
p568
sbag1
(g2
g3
NtRp569
(dp570
g68
V10.1104/pp.46.2.281
p571
sg64
VPLANT PHYSIOL
p572
sg66
V46
p573
sg96
(lp574
(VHSIAO
VT C
tp575
asg22
I1970
sg62
VLANT
p576
sbag1
(g2
g3
NtRp577
(dp578
g68
V10.1002/pmic.201100413
p579
sg64
VPROTEOMICS
p580
sg66
V12
p581
sg96
(lp582
(VHUMMEL
VM
tp583
asg22
I2012
sg62
VROTEOMICS
p584
sbag1
(g2
g3
NtRp585
(dp586
g68
V10.1016/S0005-2728(03)00106-3
p587
sg64
VBBA
p588
sg66
V1606
p589
sg96
(lp590
(VIGAMBERDIEV
VA U
tp591
asg22
I2003
sg62
V117
p592
sbag1
(g2
g3
NtRp593
(dp594
g68
V10.1078/0176-1617-00551
p595
sg64
VJ PLANT PHYSIOL
p596
sg66
V158
p597
sg96
(lp598
(VIGAMBERDIEV
VA U
tp599
asg22
I2001
sg62
V1325
p600
sbag1
(g2
g3
NtRp601
(dp602
g68
V10.1126/science.1168978
p603
sg64
VSCIENCE
p604
sg66
V324
p605
sg96
(lp606
(VINGOLIA
VN T
tp607
asg22
I2009
sg62
V218
p608
sbag1
(g2
g3
NtRp609
(dp610
g68
V10.3389/fpls.2012.00066
p611
sg64
VFront Plant Sci
p612
sg66
V3
sg96
(lp613
(VJUNTAWONG
VPIYADA
tp614
asg22
I2012
sg62
V66
p615
sbag1
(g2
g3
NtRp616
(dp617
g68
V10.1093/nar/gki240
p618
sg64
VNUCLEIC ACIDS RES
p619
sg66
V33
p620
sg96
(lp621
(VKAWAGUCHI
VR
tp622
asg22
I2005
sg62
V955
p623
sbag1
(g2
g3
NtRp624
(dp625
g68
V10.1111/j.1365-313X.2004.02090.x
p626
sg64
VPLANT J
p627
sg66
V38
p628
sg96
(lp629
(VKAWAGUCHI
VR
tp630
asg22
I2004
sg62
VLANT
p631
sbag1
(g2
g3
NtRp632
(dp633
g68
V10.1046/j.1365-3040.2003.00952.x
p634
sg64
VPLANT CELL ENVIRON
p635
sg66
V26
p636
sg96
(lp637
(VKAWAGUCHI
VR
tp638
asg22
I2003
sg62
VLANT
p639
sbag1
(g2
g3
NtRp640
(dp641
g68
Nsg64
VPLANT CELL
p642
sg66
V11
p643
sg96
(lp644
(VKEEGSTRA
VK
tp645
asg22
I1999
sg62
VLANT
p646
sbag1
(g2
g3
NtRp647
(dp648
g68
Nsg64
VPROGRESS PHOTOSYNTHE
p649
sg66
V1
sg96
(lp650
(VKEYS
VA J
tp651
asg22
I1969
sg62
VROGRESS
p652
sbag1
(g2
g3
NtRp653
(dp654
g68
V10.1071/FP11289
p655
sg64
VFUNCT PLANT BIOL
p656
sg66
V39
p657
sg96
(lp658
(VKJAER
VK H
tp659
asg22
I2012
sg62
V639
p660
sbag1
(g2
g3
NtRp661
(dp662
g68
V10.1111/j.1365-313X.2006.03016.x
p663
sg64
VPLANT J
p664
sg66
V49
p665
sg96
(lp666
(VKOJIMA
VH
tp667
asg22
I2007
sg62
VLANT
p668
sbag1
(g2
g3
NtRp669
(dp670
g68
V10.1261/rna.294907
p671
sg64
VRNA
p672
sg66
V13
p673
sg96
(lp674
(VKRAMER
VE B
tp675
asg22
I2007
sg62
V87
p676
sbag1
(g2
g3
NtRp677
(dp678
g68
V10.1371/journal.pone.0017806
p679
sg64
VPLOS ONE
p680
sg66
V6
sg96
(lp681
(VKRUEGER
VS
tp682
asg22
I2011
sg62
VLOS
p683
sbag1
(g2
g3
NtRp684
(dp685
g68
V10.1126/science.1061315
p686
sg64
VSCIENCE
p687
sg66
V293
p688
sg96
(lp689
(VKURODA
VA
tp690
asg22
I2001
sg62
V705
p691
sbag1
(g2
g3
NtRp692
(dp693
g68
V10.1016/j.molcel.2007.03.002
p694
sg64
VMOL CELL
p695
sg66
V26
p696
sg96
(lp697
(VLACKNER
VD H
tp698
asg22
I2007
sg62
V145
p699
sbag1
(g2
g3
NtRp700
(dp701
g68
V10.1038/msb.2011.97
p702
sg64
VMOL SYST BIOL
p703
sg66
V8
sg96
(lp704
(VLIU
VM J
tp705
asg22
I2012
sg62
Nsbag1
(g2
g3
NtRp706
(dp707
g68
Nsg64
VJ BIOL CHEM
p708
sg66
V247
p709
sg96
(lp710
(VLODISH
VH F
tp711
asg22
I1972
sg62
V3622
p712
sbag1
(g2
g3
NtRp713
(dp714
g68
V10.1104/pp.105.061903
p715
sg64
VPLANT PHYSIOL
p716
sg66
V138
p717
sg96
(lp718
(VLU
VY
tp719
asg22
I2005
sg62
VLANT
p720
sbag1
(g2
g3
NtRp721
(dp722
g68
V10.1111/j.1469-8137.2011.03735.x
p723
sg64
VNEW PHYTOL
p724
sg66
V191
p725
sg96
(lp726
(VMA
VJ K
tp727
asg22
I2011
sg62
V733
p728
sbag1
(g2
g3
NtRp729
(dp730
g68
Nsg64
VPLANT CELL
p731
sg66
V11
p732
sg96
(lp733
(VMACKENZIE
VS
tp734
asg22
I1999
sg62
VLANT
p735
sbag1
(g2
g3
NtRp736
(dp737
g68
V10.1105/tpc.105.035931
p738
sg64
VPLANT CELL
p739
sg66
V18
p740
sg96
(lp741
(VMAHFOUZ
VM M
tp742
asg22
I2006
sg62
VLANT
p743
sbag1
(g2
g3
NtRp744
(dp745
g68
V10.1007/s11120-007-9183-z
p746
sg64
VPHOTOSYNTH RES
p747
sg66
V94
p748
sg96
(lp749
(VMARIN-NAVARRO
VJ
tp750
asg22
I2007
sg62
VHOTOSYNTH
p751
sbag1
(g2
g3
NtRp752
(dp753
g68
Nsg64
VV48
p754
sg66
V48
p755
sg96
(lp756
(VMATHEWS
VMICHAEL B
tp757
asg22
I2007
sg62
V1
sbag1
(g2
g3
NtRp758
(dp759
g68
V10.1271/bbb.100330
p760
sg64
VBIOSCI BIOTECH BIOCH
p761
sg66
V74
p762
sg96
(lp763
(VMATSUURA
VH
tp764
asg22
I2010
sg62
V2110
p765
sbag1
(g2
g3
NtRp766
(dp767
g68
V10.1038/sj.onc.1209883
p768
sg64
VONCOGENE
p769
sg66
V25
p770
sg96
(lp771
(VMAYER
VC
tp772
asg22
I2006
sg62
V6384
p773
sbag1
(g2
g3
NtRp774
(dp775
g68
V10.1073/pnas.0505266102
p776
sg64
VP NATL ACAD SCI USA
p777
sg66
V102
p778
sg96
(lp779
(VMISSON
VJ
tp780
asg22
I2005
sg62
V11934
p781
sbag1
(g2
g3
NtRp782
(dp783
g68
V10.1111/j.1365-3040.2006.01608.x
p784
sg64
VPLANT CELL ENVIRON
p785
sg66
V30
p786
sg96
(lp787
(VMORCUENDE
VR
tp788
asg22
I2007
sg62
VLANT
p789
sbag1
(g2
g3
NtRp790
(dp791
g68
Nsg64
VPLANT NITROGEN
p792
sg66
Nsg96
(lp793
(VMOROT-GAUDRY
VJ F
tp794
asg22
I2001
sg62
VLANT
p795
sbag1
(g2
g3
NtRp796
(dp797
g68
V10.1074/jbc.273.33.20935
p798
sg64
VJ BIOL CHEM
p799
sg66
V273
p800
sg96
(lp801
(VMUHLBAUER
VS K
tp802
asg22
I1998
sg62
V20935
p803
sbag1
(g2
g3
NtRp804
(dp805
g68
V10.1073/pnas.0906131106
p806
sg64
VP NATL ACAD SCI USA
p807
sg66
V106
p808
sg96
(lp809
(VMUSTROPH
VA
tp810
asg22
I2009
sg62
V18843
p811
sbag1
(g2
g3
NtRp812
(dp813
g68
V10.1046/j.1365-313X.1997.11010073.x
p814
sg64
VPLANT J
p815
sg66
V11
p816
sg96
(lp817
(VNEUHAUS
VH E
tp818
asg22
I1997
sg62
VLANT
p819
sbag1
(g2
g3
NtRp820
(dp821
g68
V10.1104/pp.106.079418
p822
sg64
VPLANT PHYSIOL
p823
sg66
V141
p824
sg96
(lp825
(VNICOLAI
VM
tp826
asg22
I2006
sg62
VLANT
p827
sbag1
(g2
g3
NtRp828
(dp829
g68
V10.1126/science.1091811
p830
sg64
VSCIENCE
p831
sg66
V303
p832
sg96
(lp833
(VNIITTYLA
VT
tp834
asg22
I2004
sg62
V87
p835
sbag1
(g2
g3
NtRp836
(dp837
g68
V10.1016/0020-711X(87)90326-0
p838
sg64
VINT J BIOCHEM
p839
sg66
V19
p840
sg96
(lp841
(VNIKOLOV
VE N
tp842
asg22
I1987
sg62
V159
p843
sbag1
(g2
g3
NtRp844
(dp845
g68
V10.1111/j.1365-313X.2006.02979.x
p846
sg64
VPLANT J
p847
sg66
V49
p848
sg96
(lp849
(VOSUNA
VD
tp850
asg22
I2007
sg62
VLANT
p851
sbag1
(g2
g3
NtRp852
(dp853
g68
Nsg64
VBIOL BULL
p854
sg66
V212
p855
sg96
(lp856
(VPACE
VD A
tp857
asg22
I2007
sg62
V115
p858
sbag1
(g2
g3
NtRp859
(dp860
g68
Nsg64
VJ BIOL CHEM
p861
sg66
V249
p862
sg96
(lp863
(VPALMITER
VR D
tp864
asg22
I1974
sg62
V6779
p865
sbag1
(g2
g3
NtRp866
(dp867
g68
V10.1104/pp.111.176289
p868
sg64
VPLANT PHYSIOL
p869
sg66
V156
p870
sg96
(lp871
(VPANTIN
VF
tp872
asg22
I2011
sg62
VLANT
p873
sbag1
(g2
g3
NtRp874
(dp875
g68
Nsg64
VPLANT NITROGEN METAB
p876
sg66
Nsg96
(lp877
(VPATE
VJ S
tp878
asg22
I1989
sg62
VLANT
p879
sbag1
(g2
g3
NtRp880
(dp881
g68
V10.1016/j.gene.2007.07.007
p882
sg64
VGENE
p883
sg66
V401
p884
sg96
(lp885
(VPERRY
VR P
tp886
asg22
I2007
sg62
V1
sbag1
(g2
g3
NtRp887
(dp888
g68
V10.1104/pp.106.093575
p889
sg64
VPLANT PHYSIOL
p890
sg66
V144
p891
sg96
(lp892
(VPETRICKA
VJ J
tp893
asg22
I2007
sg62
VLANT
p894
sbag1
(g2
g3
NtRp895
(dp896
g68
V10.1038/msb.2009.68
p897
sg64
VMOL SYST BIOL
p898
sg66
V5
sg96
(lp899
(VPIQUES
VM
tp900
asg22
I2009
sg62
Nsbag1
(g2
g3
NtRp901
(dp902
g68
V10.1093/jxb/erq049
p903
sg64
VJ EXP BOT
p904
sg66
V61
p905
sg96
(lp906
(VPOIRE
VR
tp907
asg22
I2010
sg62
V1751
p908
sbag1
(g2
g3
NtRp909
(dp910
g68
V10.1105/tpc.104.022616
p911
sg64
VPLANT CELL
p912
sg66
V16
p913
sg96
(lp914
(VPRICE
VJ
tp915
asg22
I2004
sg62
VLANT
p916
sbag1
(g2
g3
NtRp917
(dp918
g68
V10.1042/BJ20070024
p919
sg64
VBIOCHEM J
p920
sg66
V403
p921
sg96
(lp922
(VPROUD
VC G
tp923
asg22
I2007
sg62
V217
p924
sbag1
(g2
g3
NtRp925
(dp926
g68
V10.1105/tpc.112.097188
p927
sg64
VPLANT CELL
p928
sg66
V24
p929
sg96
(lp930
(VPYL
VE T
tp931
asg22
I2012
sg62
VLANT
p932
sbag1
(g2
g3
NtRp933
(dp934
g68
V10.1186/gb-2007-8-4-r63
p935
sg64
VGENOME BIOL
p936
sg66
V8
sg96
(lp937
(VQIN
VX L
tp938
asg22
I2007
sg62
Nsbag1
(g2
g3
NtRp939
(dp940
g68
V10.1104/pp.109.136036
p941
sg64
VPLANT PHYSIOL
p942
sg66
V150
p943
sg96
(lp944
(VRAHMANI
VF
tp945
asg22
I2009
sg62
VLANT
p946
sbag1
(g2
g3
NtRp947
(dp948
g68
V10.1016/j.plantsci.2012.02.010
p949
sg64
VPLANT SCI
p950
sg66
V188
p951
sg96
(lp952
(VRAVEN
VJ A
tp953
asg22
I2012
sg62
VLANT
p954
sbag1
(g2
g3
NtRp955
(dp956
g68
V10.1104/pp.110.169045
p957
sg64
VPLANT PHYSIOL
p958
sg66
V155
p959
sg96
(lp960
(VREN
VM Z
tp961
asg22
I2011
sg62
VLANT
p962
sbag1
(g2
g3
NtRp963
(dp964
g68
V10.1104/pp.59.3.422
p965
sg64
VPLANT PHYSIOL
p966
sg66
V59
p967
sg96
(lp968
(VROBINSON
VS P
tp969
asg22
I1977
sg62
VLANT
p970
sbag1
(g2
g3
NtRp971
(dp972
g68
V10.1101/gad.1254704
p973
sg64
VGENE DEV
p974
sg66
V18
p975
sg96
(lp976
(VRUDRA
VD
tp977
asg22
I2004
sg62
V2431
p978
sbag1
(g2
g3
NtRp979
(dp980
g68
V10.1016/0092-8674(82)90240-9
p981
sg64
VCELL
p982
sg66
V30
p983
sg96
(lp984
(VSCHARF
VK D
tp985
asg22
I1982
sg62
V427
p986
sbag1
(g2
g3
NtRp987
(dp988
g68
V10.1104/pp.104.047019
p989
sg64
VPLANT PHYSIOL
p990
sg66
V136
p991
sg96
(lp992
(VSCHEIBLE
VW R
tp993
asg22
I2004
sg62
VLANT
p994
sbag1
(g2
g3
NtRp995
(dp996
g68
V10.1046/j.1365-313x.1998.00314.x
p997
sg64
VPLANT J
p998
sg66
V16
p999
sg96
(lp1000
(VSCHMUNDT
VD
tp1001
asg22
I1998
sg62
VLANT
p1002
sbag1
(g2
g3
NtRp1003
(dp1004
g68
V10.1104/pp.004275
p1005
sg64
VPLANT PHYSIOL
p1006
sg66
V130
p1007
sg96
(lp1008
(VSCHWENDER
VJ
tp1009
asg22
I2002
sg62
VLANT
p1010
sbag1
(g2
g3
NtRp1011
(dp1012
g68
V10.1093/jxb/30.5.905
p1013
sg64
VJ EXP BOT
p1014
sg66
V30
p1015
sg96
(lp1016
(VSCOTT
VN S
tp1017
asg22
I1979
sg62
V905
p1018
sbag1
(g2
g3
NtRp1019
(dp1020
g68
V10.1016/0005-2728(76)90205-X
p1021
sg64
VBIOCHIM BIOPHYS ACTA
p1022
sg66
V423
p1023
sg96
(lp1024
(VSELLAMI
VA
tp1025
asg22
I1976
sg62
V524
p1026
sbag1
(g2
g3
NtRp1027
(dp1028
g68
V10.1111/j.1365-3040.2007.01708.x
p1029
sg64
VPLANT CELL ENVIRON
p1030
sg66
V30
p1031
sg96
(lp1032
(VSMITH
VA M
tp1033
asg22
I2007
sg62
VLANT
p1034
sbag1
(g2
g3
NtRp1035
(dp1036
g68
V10.1104/pp.104.044347
p1037
sg64
VPLANT PHYSIOL
p1038
sg66
V136
p1039
sg96
(lp1040
(VSMITH
VS M
tp1041
asg22
I2004
sg62
VLANT
p1042
sbag1
(g2
g3
NtRp1043
(dp1044
g68
V10.1049/ip-syb:20060023
p1045
sg64
VIEE P SYST BIOL
p1046
sg66
V153
p1047
sg96
(lp1048
(VSNOEP
VJ L
tp1049
asg22
I2006
sg62
V398
p1050
sbag1
(g2
g3
NtRp1051
(dp1052
g68
V10.1104/pp.70.4.971
p1053
sg64
VPLANT PHYSIOL
p1054
sg66
V70
p1055
sg96
(lp1056
(VSTITT
VM
tp1057
asg22
I1982
sg62
VLANT
p1058
sbag1
(g2
g3
NtRp1059
(dp1060
g68
V10.1111/j.1365-313X.2010.04142.x
p1061
sg64
VPLANT J
p1062
sg66
V61
p1063
sg96
(lp1064
(VSTITT
VM
tp1065
asg22
I2010
sg62
VLANT
p1066
sbag1
(g2
g3
NtRp1067
(dp1068
g68
V10.1007/BF00401173
p1069
sg64
VPLANTA
p1070
sg66
V166
p1071
sg96
(lp1072
(VSTITT
VM
tp1073
asg22
I1985
sg62
VLANTA
p1074
sbag1
(g2
g3
NtRp1075
(dp1076
g68
V10.1104/pp.72.3.767
p1077
sg64
VPLANT PHYSIOL
p1078
sg66
V72
p1079
sg96
(lp1080
(VSTITT
VM
tp1081
asg22
I1983
sg62
VLANT
p1082
sbag1
(g2
g3
NtRp1083
(dp1084
g68
V10.1016/j.pbi.2012.03.016
p1085
sg64
VCURR OPIN PLANT BIOL
p1086
sg66
V15
p1087
sg96
(lp1088
(VSTITT
VM
tp1089
asg22
I2012
sg62
V282
p1090
sbag1
(g2
g3
NtRp1091
(dp1092
g68
V10.1105/tpc.112.106989
p1093
sg64
VPLANT CELL
p1094
sg66
V25
p1095
sg96
(lp1096
(VSZECOWKA
VM
tp1097
asg22
I2013
sg62
VLANT
p1098
sbag1
(g2
g3
NtRp1099
(dp1100
g68
V10.1016/j.pbi.2011.12.003
p1101
sg64
VCURR OPIN PLANT BIOL
p1102
sg66
V15
p1103
sg96
(lp1104
(VTCHERKEZ
VG
tp1105
asg22
I2012
sg62
V308
p1106
sbag1
(g2
g3
NtRp1107
(dp1108
g68
V10.1111/j.1365-3040.2012.02550.x
p1109
sg64
VPLANT CELL ENVIRON
p1110
sg66
V35
p1111
sg96
(lp1112
(VTCHERKEZ
VG
tp1113
asg22
I2012
sg62
VLANT
p1114
sbag1
(g2
g3
NtRp1115
(dp1116
g68
V10.1111/j.1365-313X.2004.02016.x
p1117
sg64
VPLANT J
p1118
sg66
V37
p1119
sg96
(lp1120
(VTHIMM
VO
tp1121
asg22
I2004
sg62
VLANT
p1122
sbag1
(g2
g3
NtRp1123
(dp1124
g68
V10.1074/jbc.M806903200
p1125
sg64
VJ BIOL CHEM
p1126
sg66
V283
p1127
sg96
(lp1128
(VTRENTMANN
VO
tp1129
asg22
I2008
sg62
V36486
p1130
sbag1
(g2
g3
NtRp1131
(dp1132
g68
V10.1371/journal.pone.0029307
p1133
sg64
VPLOS ONE
p1134
sg66
V6
sg96
(lp1135
(VTURKINA
VM V
tp1136
asg22
I2011
sg62
VLOS
p1137
sbag1
(g2
g3
NtRp1138
(dp1139
g68
V10.1146/annurev.arplant.59.032607.092819
p1140
sg64
VANNU REV PLANT BIOL
p1141
sg66
V60
p1142
sg96
(lp1143
(VWALTER
VA
tp1144
asg22
I2009
sg62
V279
p1145
sbag1
(g2
g3
NtRp1146
(dp1147
g68
V10.1016/S0968-0004(99)01460-7
p1148
sg64
VTRENDS BIOCHEM SCI
p1149
sg66
V24
p1150
sg96
(lp1151
(VWARNER
VJ R
tp1152
asg22
I1999
sg62
V437
p1153
sbag1
(g2
g3
NtRp1154
(dp1155
g68
V10.1038/nature06716
p1156
sg64
VNATURE
p1157
sg66
V452
p1158
sg96
(lp1159
(VWEN
VJ D
tp1160
asg22
I2008
sg62
V598
p1161
sbag1
(g2
g3
NtRp1162
(dp1163
g68
V10.1111/j.1469-8137.2007.02053.x
p1164
sg64
VNEW PHYTOL
p1165
sg66
V174
p1166
sg96
(lp1167
(VWIESE
VA
tp1168
asg22
I2007
sg62
V752
p1169
sbag1
(g2
g3
NtRp1170
(dp1171
g68
V10.1105/tpc.01.019349
p1172
sg64
VPLANT CELL
p1173
sg66
V16
p1174
sg96
(lp1175
(VWIESE
VA
tp1176
asg22
I2004
sg62
VLANT
p1177
sbag1
(g2
g3
NtRp1178
(dp1179
g68
V10.1104/pp.103.022749
p1180
sg64
VPLANT PHYSIOL
p1181
sg66
V132
p1182
sg96
(lp1183
(VWILLIAMS
VA J
tp1184
asg22
I2003
sg62
VLANT
p1185
sbag1
(g2
g3
NtRp1186
(dp1187
g68
V10.1104/pp.110.158535
p1188
sg64
VPLANT PHYSIOL
p1189
sg66
V154
p1190
sg96
(lp1191
(VWILLIAMS
VT C R
tp1192
asg22
I2010
sg62
VLANT
p1193
sbag1
(g2
g3
NtRp1194
(dp1195
g68
V10.1007/BF02411558
p1196
sg64
VPLANTA
p1197
sg66
V193
p1198
sg96
(lp1199
(VWINTER
VH
tp1200
asg22
I1994
sg62
VLANTA
p1201
sbag1
(g2
g3
NtRp1202
(dp1203
g68
Nsg64
VPLANTA
p1204
sg66
V191
p1205
sg96
(lp1206
(VWINTER
VH
tp1207
asg22
I1993
sg62
VLANTA
p1208
sbag1
(g2
g3
NtRp1209
(dp1210
g68
V10.1016/j.cell.2006.01.016
p1211
sg64
VCELL
p1212
sg66
V124
p1213
sg96
(lp1214
(VWULLSCHLEGER
VS
tp1215
asg22
I2006
sg62
V471
p1216
sbag1
(g2
g3
NtRp1217
(dp1218
g68
V10.1038/nature07582
p1219
sg64
VNATURE
p1220
sg66
V457
p1221
sg96
(lp1222
(VZAHER
VH S
tp1223
asg22
I2009
sg62
V161
p1224
sbag1
(g2
g3
NtRp1225
(dp1226
g68
V10.1016/j.cell.2009.01.036
p1227
sg64
VCELL
p1228
sg66
V136
p1229
sg96
(lp1230
(VZAHER
VH S
tp1231
asg22
I2009
sg62
V746
p1232
sbag1
(g2
g3
NtRp1233
(dp1234
g68
V10.1261/rna.1381309
p1235
sg64
VRNA
p1236
sg66
V15
p1237
sg96
(lp1238
(VZUNDEL
VM A
tp1239
asg22
I2009
sg62
V977
p1240
sbasb.