ccopy_reg
_reconstructor
p1
(ctethne.classes.paper
Paper
p2
c__builtin__
object
p3
NtRp4
(dp5
S'publisherCity'
p6
VROCKVILLE
p7
sS'reprintAddress'
p8
VKangasjarvi, J (reprint author), Univ Helsinki, Inst Biotechnol, Viikinkaari 9, FIN-00014 Helsinki, Finland.
p9
sS'WC'
p10
VPlant Sciences
p11
sS'GA'
p12
V717FR
p13
sS'abstract'
p14
VThe role of ethylene (ET) signaling in the responses of two hybrid aspen (Populus tremula L. X P. tremuloides Michx.) clones to chronic ozone (O-3; 75 nL L-1) was investigated. The hormonal responses differed between the clones; the O-3-sensitive clone 51 had higher ET evolution than the tolerant clone 200 during the exposure, whereas the free salicylic acid concentration in clone 200 was higher than in clone 51. The cellular redox status, measured as glutathione redox balance, did not differ between the clones suggesting that the O-3 lesions were not a result of deficient antioxidative capacity. The buildup of salicylic acid during chronic O-3 exposure might have prevented the up-regulation of ET biosynthesis in clone 200. Blocking of ET perception with 1-methylcyclopropene protected both clones from the decrease in net photosynthesis during chronic exposure to O-3. After a pretreatment with low O-3 for 9 d, an acute 1.5-fold O-3 elevation caused necrosis in the O-3-sensitive clone 51, which increased substantially when ET perception was blocked. The results suggest that in hybrid aspen, ET signaling had a dual role depending on the severity of the stress. ET accelerated leaf senescence under low O-3, but under acute O-3 elevation, ET signaling seemed to be required for protection from necrotic cell death.
p15
sS'pageEnd'
p16
I205
sS'publisherAddress'
p17
V15501 MONONA DRIVE, ROCKVILLE, MD 20855 USA
p18
sS'documentType'
p19
VArticle
p20
sS'subject'
p21
VPlant Sciences
p22
sS'isoSource'
p23
VPlant Physiol.
p24
sS'timesCited'
p25
(lp26
I31
aVZ9 32
p27
asS'PT'
p28
VJ
sS'title'
p29
VDifferential Effects Of Elevated Ozone On Two Hybrid Aspen Genotypes Predisposed To Chronic Ozone Fumigation. Role Of Ethylene And Salicylic Acid
p30
sS'ISSN'
p31
(lp32
V0032-0889
p33
aVJ9 PLANT PHYSIOL
p34
asS'authors_full'
p35
(lp36
(VVAHALA
VJ
tp37
a(VKEINANEN
VM
tp38
a(VSCHUTZENDUBEL
VA
tp39
a(VPOLLE
VA
tp40
a(VKANGASJARVI
VJ
tp41
asS'PG'
p42
I10
sS'PD'
p43
VMAY
p44
sS'pageStart'
p45
I196
sS'issue'
p46
I1
sS'RI'
p47
VSchutzendubel, Andres/B-8411-2008
p48
sS'journal'
p49
VPLANT PHYSIOLOGY
p50
sS'volume'
p51
V132
p52
sS'doi'
p53
V10.1104/pp.102.018630
p54
sS'authorAddress'
p55
(lp56
VUniv Helsinki, Inst Biotechnol, FIN-00014 Helsinki, Finland.
p57
aVUniv Helsinki, Dept Biosci, FIN-00014 Helsinki, Finland.
p58
aVUniv Helsinki, Dept Appl Biol, FIN-00014 Helsinki, Finland.
p59
aVUniv Gottingen, Inst Forstbot, D-37077 Gottingen, Germany.
p60
aVUniv Turku, Dept Biol, Lab Plant Physiol & Mol Biol, FIN-20014 Turku, Finland.
p61
asS'date'
p62
I2003
sS'ER'
p63
V
sS'publisher'
p64
VAMER SOC PLANT BIOLOGISTS
p65
sS'authorKeywords'
p66
(lp67
VINDUCED 1-AMINOCYCLOPROPANE-1-CARBOXYLATE SYNTHASE
p68
aVPROGRAMMED CELL-DEATH
p69
aVOXIDATIVE BURST
p70
aVMOLECULAR-CLONING
p71
aVGENE-EXPRESSION
p72
aVTOMATO PLANTS
p73
aVSTRESS
p74
aVBIOSYNTHESIS
p75
aVSENSITIVITY
p76
aVACCUMULATION
p77
asS'language'
p78
VEnglish
p79
sS'wosid'
p80
VWOS:000185076500023
p81
sS'citationCount'
p82
I52
sS'authors_init'
p83
(lp84
(VVAHALA
VJ
tp85
a(VKEINANEN
VM
tp86
a(VSCHUTZENDUBEL
VA
tp87
a(VPOLLE
VA
tp88
a(VKANGASJARVI
VJ
tp89
asS'citedReferences'
p90
(lp91
g1
(g2
g3
NtRp92
(dp93
g53
Nsg49
VETHYLENE PLANT BIOL
p94
sg51
Nsg83
(lp95
(VABELES
VF B
tp96
asg62
I1992
sg45
Nsbag1
(g2
g3
NtRp97
(dp98
g53
Nsg49
VPLANT CELL PHYSIOL
p99
sg51
V37
p100
sg83
(lp101
(VBAE
VG Y
tp102
asg62
I1996
sg45
VLANT
p103
sbag1
(g2
g3
NtRp104
(dp105
g53
V10.1007/BF00040602
p106
sg49
VPLANT MOL BIOL
p107
sg51
V20
p108
sg83
(lp109
(VBOTELLA
VJ R
tp110
asg62
I1992
sg45
VLANT
p111
sbag1
(g2
g3
NtRp112
(dp113
g53
V10.1073/pnas.83.18.6820
p114
sg49
VP NATL ACAD SCI USA
p115
sg51
V83
p116
sg83
(lp117
(VBROGLIE
VK E
tp118
asg62
I1986
sg45
V6820
p119
sbag1
(g2
g3
NtRp120
(dp121
g53
V10.1007/BF02670468
p122
sg49
VPlant Molecular Biology Reporter
p123
sg51
V11
p124
sg83
(lp125
(VCHANG
VS J
tp126
asg62
I1993
sg45
Vlant
p127
sbag1
(g2
g3
NtRp128
(dp129
g53
V10.1073/pnas.81.7.1991
p130
sg49
VP NATL ACAD SCI
p131
sg51
V81
p132
sg83
(lp133
(VCHURCH
VG M
tp134
asg62
I1984
sg45
V1991
p135
sbag1
(g2
g3
NtRp136
(dp137
g53
V10.1094/MPMI.2001.14.4.487
p138
sg49
VMOL PLANT MICROBE IN
p139
sg51
V14
p140
sg83
(lp141
(VCIARDI
VJ A
tp142
asg62
I2001
sg45
V487
p143
sbag1
(g2
g3
NtRp144
(dp145
g53
Nsg49
VTREE PHYSIOL
p146
sg51
V15
p147
sg83
(lp148
(VCOLEMAN
VM D
tp149
asg62
I1995
sg45
V585
p150
sbag1
(g2
g3
NtRp151
(dp152
g53
V10.1073/pnas.84.15.5202
p153
sg49
VP NATL ACAD SCI USA
p154
sg51
V84
p155
sg83
(lp156
(VECKER
VJ R
tp157
asg62
I1987
sg45
V5202
p158
sbag1
(g2
g3
NtRp159
(dp160
g53
V10.1046/j.1365-313X.1993.04020225.x
p161
sg49
VPLANT J
p162
sg51
V4
sg83
(lp163
(VEYAL
VY
tp164
asg62
I1993
sg45
VLANT
p165
sbag1
(g2
g3
NtRp166
(dp167
g53
V10.1034/j.1399-3054.1997.1000205.x
p168
sg49
VPHYSIOL PLANTARUM
p169
sg51
V100
p170
sg83
(lp171
(VFOYER
VC H
tp172
asg62
I1997
sg45
VHYSIOL
p173
sbag1
(g2
g3
NtRp174
(dp175
g53
Nsg49
VPHYSIOL PLANTARUM
p176
sg51
V97
p177
sg83
(lp178
(VGROSSMANN
VK
tp179
asg62
I1996
sg45
VHYSIOL
p180
sbag1
(g2
g3
NtRp181
(dp182
g53
Nsg49
VECOL STUD
p183
sg51
V127
p184
sg83
(lp185
(VHEATH
VR L
tp186
asg62
I1997
sg45
V317
p187
sbag1
(g2
g3
NtRp188
(dp189
g53
V10.1007/BF00144586
p190
sg49
VPLANT GROWTH REGUL
p191
sg51
V12
p192
sg83
(lp193
(VHUANG
VY F
tp194
asg62
I1993
sg45
VLANT
p195
sbag1
(g2
g3
NtRp196
(dp197
g53
V10.1146/annurev.genet.32.1.227
p198
sg49
VANNU REV GENET
p199
sg51
V32
p200
sg83
(lp201
(VJOHNSON
VP R
tp202
asg62
I1998
sg45
V227
p203
sbag1
(g2
g3
NtRp204
(dp205
g53
V10.1111/j.1365-3040.1994.tb00173.x
p206
sg49
VPLANT CELL ENVIRON
p207
sg51
V17
p208
sg83
(lp209
(VKANGASJARVI
VJ
tp210
asg62
I1994
sg45
VLANT
p211
sbag1
(g2
g3
NtRp212
(dp213
g53
Nsg49
VJ BIOL CHEM
p214
sg51
V270
p215
sg83
(lp216
(VKANOFSKY
VJ R
tp217
asg62
I1995
sg45
V7850
p218
sbag1
(g2
g3
NtRp219
(dp220
g53
Nsg49
VPLANT PHYSIOL
p221
sg51
V118
p222
sg83
(lp223
(VKOCH
VJ R
tp224
asg62
I1998
sg45
VLANT
p225
sbag1
(g2
g3
NtRp226
(dp227
g53
V10.1104/pp.123.2.487
p228
sg49
VPLANT PHYSIOL
p229
sg51
V123
p230
sg83
(lp231
(VKOCH
VJ R
tp232
asg62
I2000
sg45
VLANT
p233
sbag1
(g2
g3
NtRp234
(dp235
g53
V10.1104/pp.90.3.1163
p236
sg49
VPLANT PHYSIOL
p237
sg51
V90
p238
sg83
(lp239
(VLAISK
VA
tp240
asg62
I1989
sg45
VLANT
p241
sbag1
(g2
g3
NtRp242
(dp243
g53
V10.1146/annurev.arplant.48.1.251
p244
sg49
VANNU REV PLANT PHYS
p245
sg51
V48
p246
sg83
(lp247
(VLAMB
VC
tp248
asg62
I1997
sg45
V251
p249
sbag1
(g2
g3
NtRp250
(dp251
g53
Nsg49
VOXIDATIVE STRESS PLA
p252
sg51
Nsg83
(lp253
(VLANGEBARTELS
VC
tp254
asg62
I2002
sg45
V105
p255
sbag1
(g2
g3
NtRp256
(dp257
g53
Nsg49
VJournal of Plant Biology
p258
sg51
V42
p259
sg83
(lp260
(VLEE
VJAEHYEOK
tp261
asg62
I1999
sg45
V1
sbag1
(g2
g3
NtRp262
(dp263
g53
V10.1104/pp.88.3.833
p264
sg49
VPLANT PHYSIOL
p265
sg51
V88
p266
sg83
(lp267
(VLESLIE
VC A
tp268
asg62
I1988
sg45
VLANT
p269
sbag1
(g2
g3
NtRp270
(dp271
g53
V10.1023/A:1006040425383
p272
sg49
VPLANT MOL BIOL
p273
sg51
V38
p274
sg83
(lp275
(VLEUBNER-METZGER
VG
tp276
asg62
I1998
sg45
VLANT
p277
sbag1
(g2
g3
NtRp278
(dp279
g53
V10.1007/BF00040664
p280
sg49
VPLANT MOL BIOL
p281
sg51
V18
p282
sg83
(lp283
(VLI
VN
tp284
asg62
I1992
sg45
VLANT
p285
sbag1
(g2
g3
NtRp286
(dp287
g53
V10.1093/jxb/42.1.17
p288
sg49
VJ EXP BOT
p289
sg51
V42
p290
sg83
(lp291
(VMEHLHORN
VH
tp292
asg62
I1991
sg45
V17
p293
sbag1
(g2
g3
NtRp294
(dp295
g53
V10.1038/327417a0
p296
sg49
VNATURE
p297
sg51
V327
p298
sg83
(lp299
(VMEHLHORN
VH
tp300
asg62
I1987
sg45
V417
p301
sbag1
(g2
g3
NtRp302
(dp303
g53
Nsg49
VPHYSIOL PLANTARUM
p304
sg51
V79
p305
sg83
(lp306
(VMEHLHORN
VH
tp307
asg62
I1990
sg45
VHYSIOL
p308
sbag1
(g2
g3
NtRp309
(dp310
g53
V10.1104/pp.009712
p311
sg49
VPLANT PHYSIOL
p312
sg51
V130
p313
sg83
(lp314
(VMOEDER
VW
tp315
asg62
I2002
sg45
VLANT
p316
sbag1
(g2
g3
NtRp317
(dp318
g53
V10.1146/annurev.arplant.49.1.249
p319
sg49
VANNU REV PLANT PHYS
p320
sg51
V49
p321
sg83
(lp322
(VNOCTOR
VG
tp323
asg62
I1998
sg45
V249
p324
sbag1
(g2
g3
NtRp325
(dp326
g53
V10.1105/tpc.12.10.1849
p327
sg49
VPLANT CELL
p328
sg51
V12
p329
sg83
(lp330
(VOVERMYER
VK
tp331
asg62
I2000
sg45
VLANT
p332
sbag1
(g2
g3
NtRp333
(dp334
g53
V10.1034/j.1399-3054.1997.1000207.x
p335
sg49
VPHYSIOL PLANTARUM
p336
sg51
V100
p337
sg83
(lp338
(VPELL
VE J
tp339
asg62
I1997
sg45
VHYSIOL
p340
sbag1
(g2
g3
NtRp341
(dp342
g53
V10.1046/j.1365-3040.1999.00449.x
p343
sg49
VPLANT CELL ENVIRON
p344
sg51
V22
p345
sg83
(lp346
(VPELL
VE J
tp347
asg62
I1999
sg45
VLANT
p348
sbag1
(g2
g3
NtRp349
(dp350
g53
V10.1046/j.1365-313X.1999.00613.x
p351
sg49
VPLANT J
p352
sg51
V20
p353
sg83
(lp354
(VPELLINEN
VR
tp355
asg62
I1999
sg45
VLANT
p356
sbag1
(g2
g3
NtRp357
(dp358
g53
V10.1104/pp.003954
p359
sg49
VPLANT PHYSIOL
p360
sg51
V130
p361
sg83
(lp362
(VPELLINEN
VR I
tp363
asg62
I2002
sg45
VLANT
p364
sbag1
(g2
g3
NtRp365
(dp366
g53
V10.1104/pp.126.1.445
p367
sg49
VPLANT PHYSIOL
p368
sg51
V126
p369
sg83
(lp370
(VPOLLE
VA
tp371
asg62
I2001
sg45
VLANT
p372
sbag1
(g2
g3
NtRp373
(dp374
g53
V10.1046/j.1365-313X.1999.00400.x
p375
sg49
VPLANT J
p376
sg51
V17
p377
sg83
(lp378
(VRAO
VM V
tp379
asg62
I1999
sg45
VLANT
p380
sbag1
(g2
g3
NtRp381
(dp382
g53
V10.1023/A:1026548726807
p383
sg49
VPLANT MOL BIOL
p384
sg51
V44
p385
sg83
(lp386
(VRAO
VM V
tp387
asg62
I2000
sg45
VLANT
p388
sbag1
(g2
g3
NtRp389
(dp390
g53
V10.1007/BF00042041
p391
sg49
VPLANT MOL BIOL
p392
sg51
V28
p393
sg83
(lp394
(VSCHLAGNHAUFER
VC D
tp395
asg62
I1995
sg45
VLANT
p396
sbag1
(g2
g3
NtRp397
(dp398
g53
V10.1046/j.1365-313x.1998.00294.x
p399
sg49
VPLANT J
p400
sg51
V16
p401
sg83
(lp402
(VSCHRAUDNER
VM
tp403
asg62
I1998
sg45
VLANT
p404
sbag1
(g2
g3
NtRp405
(dp406
g53
V10.1104/pp.127.3.887
p407
sg49
VPLANT PHYSIOL
p408
sg51
V127
p409
sg83
(lp410
(VSCHUTZENDUBEL
VA
tp411
asg62
I2001
sg45
VLANT
p412
sbag1
(g2
g3
NtRp413
(dp414
g53
Nsg49
VForest Genetics
p415
sg51
V4
sg83
(lp416
(VSHENG
VYINGPING
tp417
asg62
I1997
sg45
V25
p418
sbag1
(g2
g3
NtRp419
(dp420
g53
V10.1034/j.1399-3054.1997.1000320.x
p421
sg49
VPHYSIOL PLANTARUM
p422
sg51
V100
p423
sg83
(lp424
(VSISLER
VE C
tp425
asg62
I1997
sg45
VHYSIOL
p426
sbag1
(g2
g3
NtRp427
(dp428
g53
V10.1016/0004-6981(76)90204-3
p429
sg49
VATMOS ENVIRON
p430
sg51
V10
p431
sg83
(lp432
(VTINGEY
VD T
tp433
asg62
I1976
sg45
V969
p434
sbag1
(g2
g3
NtRp435
(dp436
g53
V10.1046/j.1365-313X.1997.12051151.x
p437
sg49
VPLANT J
p438
sg51
V12
p439
sg83
(lp440
(VTUOMAINEN
VJ
tp441
asg62
I1997
sg45
VLANT
p442
sbag1
(g2
g3
NtRp443
(dp444
g53
V10.1104/pp.102.018887
p445
sg49
VPLANT PHYSIOL
p446
sg51
V132
p447
sg83
(lp448
(VVAHALA
VJ
tp449
asg62
I2003
sg45
VLANT
p450
sbag1
(g2
g3
NtRp451
(dp452
g53
V10.1007/BF01279303
p453
sg49
VPROTOPLASMA
p454
sg51
V205
p455
sg83
(lp456
(VVANACKER
VH
tp457
asg62
I1998
sg45
VROTOPLASMA
p458
sbag1
(g2
g3
NtRp459
(dp460
g53
V10.1034/j.1399-3054.1995.930212.x
p461
sg49
VPHYSIOL PLANTARUM
p462
sg51
V93
p463
sg83
(lp464
(VWENZEL
VA A
tp465
asg62
I1995
sg45
VHYSIOL
p466
sbag1
(g2
g3
NtRp467
(dp468
g53
V10.1046/j.1365-3040.2002.00859.x
p469
sg49
VPLANT CELL ENVIRON
p470
sg51
V25
p471
sg83
(lp472
(VWOHLGEMUTH
VH
tp473
asg62
I2002
sg45
VLANT
p474
sbag1
(g2
g3
NtRp475
(dp476
g53
V10.1146/annurev.pp.35.060184.001103
p477
sg49
VANNU REV PLANT PHYS
p478
sg51
V35
p479
sg83
(lp480
(VYANG
VS F
tp481
asg62
I1984
sg45
V155
p482
sbag1
(g2
g3
NtRp483
(dp484
g53
V10.1104/pp.88.2.473
p485
sg49
VPLANT PHYSIOL
p486
sg51
V88
p487
sg83
(lp488
(VYIP
VW K
tp489
asg62
I1988
sg45
VLANT
p490
sbasb.