ccopy_reg
_reconstructor
p1
(ctethne.classes.paper
Paper
p2
c__builtin__
object
p3
NtRp4
(dp5
S'publisherCity'
p6
VROCKVILLE
p7
sS'reprintAddress'
p8
VFortin, MG (reprint author), McGill Univ, Dept Plant Sci, Ste Anne De Bellevue, PQ H9X 3V9, Canada.
p9
sS'WC'
p10
VPlant Sciences
p11
sS'GA'
p12
V955DX
p13
sS'abstract'
p14
VPositive-sense single-stranded RNA viruses have developed strategies to exploit cellular resources at the expense of host mRNAs. The genomes of these viruses display a variety of structures at their 5' and 3' ends that differentiate them from cellular mRNAs. Despite this structural diversity, viral RNAs are still circularized by juxtaposition of their 5' and 3' ends, similar to the process used by cellular mRNAs. Also reminiscent of the mechanisms used by host mRNAs, translation of viral RNAs involves the recruitment of translation initiation factors. However, the roles played by these factors likely differ from those played by cellular mRNAs. In keeping with the general parsimony typical of RNA viruses, these host factors also participate in viral RNA replication. However, the dual use of host factors requires that viral RNA template utilization be regulated to avoid conflict between replication and translation. The molecular composition of the large ribonucleoprotein complexes that form the viral RNA replication and translation machineries likely evolves over the course of infection to allow for switching template use from translation to replication.
p15
sS'pageEnd'
p16
I1827
sS'date'
p17
I2005
sS'documentType'
p18
VArticle
p19
sS'subject'
p20
VPlant Sciences
p21
sS'isoSource'
p22
VPlant Physiol.
p23
sS'timesCited'
p24
(lp25
I23
aVZ9 23
p26
asS'PT'
p27
VJ
sS'title'
p28
VPlant Virus Rnas. Coordinated Recruitment Of Conserved Host Functions By (+) Ssrna Viruses During Early Infection Events
p29
sS'ISSN'
p30
(lp31
V0032-0889
p32
aVJ9 PLANT PHYSIOL
p33
asS'authors_full'
p34
(lp35
(VTHIVIERGE
VK
tp36
a(VNICAISE
VV
tp37
a(VDUFRESNE
VPJ
tp38
a(VCOTTON
VS
tp39
a(VLALIBERTE
VJF
tp40
a(VLE GALL
VO
tp41
a(VFORTIN
VMG
tp42
asS'PG'
p43
I6
sS'PD'
p44
VAUG
p45
sS'pageStart'
p46
I1822
sS'issue'
p47
I4
sS'RI'
p48
VLe Gall, Olivier/C-4820-2011
p49
sS'journal'
p50
VPLANT PHYSIOLOGY
p51
sS'volume'
p52
V138
p53
sS'doi'
p54
V10.1104/pp.105.064105
p55
sS'emailAddress'
p56
Vmarc.fortin@mcgill.ca
p57
sS'authorAddress'
p58
(lp59
VMcGill Univ, Dept Plant Sci, Ste Anne De Bellevue, PQ H9X 3V9, Canada.
p60
aVINRA, Inst Biol Vegetale & Mol, F-33883 Villenave Dornon, France.
p61
aVInst Armand Frappier, Inst Natl Rech Sci, Laval, PQ H7V 1B7, Canada.
p62
asS'publisherAddress'
p63
V15501 MONONA DRIVE, ROCKVILLE, MD 20855 USA
p64
sS'ER'
p65
V
sS'publisher'
p66
VAMER SOC PLANT BIOLOGISTS
p67
sS'authorKeywords'
p68
(lp69
VPOLY(A) BINDING-PROTEIN
p70
aVYEAST 2-HYBRID SYSTEM
p71
aVTRANSLATION INITIATION-FACTORS
p72
aVRECESSIVE RESISTANCE GENE
p73
aVTOBACCO-MOSAIC-VIRUS
p74
aVPOLY(A)-BINDING PROTEIN
p75
aVMESSENGER-RNA
p76
aVVIRAL-RNA
p77
aVIN-VITRO
p78
aVEFFICIENT TRANSLATION
p79
asS'OI'
p80
VLe Gall, Olivier/0000-0002-8547-6061
p81
sS'language'
p82
VEnglish
p83
sS'wosid'
p84
VWOS:000231206600003
p85
sS'citationCount'
p86
I46
sS'authors_init'
p87
(lp88
(VTHIVIERGE
VK
tp89
a(VNICAISE
VV
tp90
a(VDUFRESNE
VP J
tp91
a(VCOTTON
VS
tp92
a(VLALIBERTE
VJ F
tp93
a(VLE GALL
VO
tp94
a(VFORTIN
VM G
tp95
asS'citedReferences'
p96
(lp97
g1
(g2
g3
NtRp98
(dp99
g54
V10.1128/JVI.78.8.4003-4010.2004
p100
sg50
VJ VIROL
p101
sg52
V78
p102
sg87
(lp103
(VBARENDS
VS
tp104
asg17
I2004
sg46
V4003
p105
sbag1
(g2
g3
NtRp106
(dp107
g54
V10.1073/pnas.162223099
p108
sg50
VP NATL ACAD SCI USA
p109
sg52
V99
p110
sg87
(lp111
(VBARRY
VJ K
tp112
asg17
I2002
sg46
V11133
p113
sbag1
(g2
g3
NtRp114
(dp115
g54
V10.1017/S1355838200001679
p116
sg50
VRNA
p117
sg52
V6
sg87
(lp118
(VBERGAMINI
VG
tp119
asg17
I2000
sg46
V1781
p120
sbag1
(g2
g3
NtRp121
(dp122
g54
V10.1093/nar/28.21.4068
p123
sg50
VNUCLEIC ACIDS RES
p124
sg52
V28
p125
sg87
(lp126
(VBORMAN
VA M
tp127
asg17
I2000
sg46
V4068
p128
sbag1
(g2
g3
NtRp129
(dp130
g54
Nsg50
VBIOCHEM SOC T
p131
sg52
V32
p132
sg87
(lp133
(VBROWNING
VK S
tp134
asg17
I2004
sg46
V589
p135
sbag1
(g2
g3
NtRp136
(dp137
g54
V10.1093/nar/gkh519
p138
sg50
VNUCLEIC ACIDS RES
p139
sg52
V32
p140
sg87
(lp141
(VCHONG
VJ L
tp142
asg17
I2004
sg46
V2031
p143
sbag1
(g2
g3
NtRp144
(dp145
g54
V10.1093/emboj/cdg251
p146
sg50
VEMBO J
p147
sg52
V22
p148
sg87
(lp149
(VDAUGHENBAUGH
VK F
tp150
asg17
I2003
sg46
V2852
p151
sbag1
(g2
g3
NtRp152
(dp153
g54
V10.1046/j.1365-313X.2002.01481.x
p154
sg50
VPLANT J
p155
sg52
V32
p156
sg87
(lp157
(VDUPRAT
VA
tp158
asg17
I2002
sg46
VLANT
p159
sbag1
(g2
g3
NtRp160
(dp161
g54
V10.1016/S0378-1119(98)00318-7
p162
sg50
VGENE
p163
sg52
V216
p164
sg87
(lp165
(VGALLIE
VD R
tp166
asg17
I1998
sg46
V1
sbag1
(g2
g3
NtRp167
(dp168
g54
V10.1111/j.1365-313X.2004.02215.x
p169
sg50
VPLANT J
p170
sg52
V40
p171
sg87
(lp172
(VGAO
VZ H
tp173
asg17
I2004
sg46
VLANT
p174
sbag1
(g2
g3
NtRp175
(dp176
g54
V10.1074/jbc.M311361200
p177
sg50
VJ BIOL CHEM
p178
sg52
V279
p179
sg87
(lp180
(VGAZO
VB M
tp181
asg17
I2004
sg46
V13584
p182
sbag1
(g2
g3
NtRp183
(dp184
g54
V10.1146/annurev.biochem.68.1.913
p185
sg50
VANNU REV BIOCHEM
p186
sg52
V68
p187
sg87
(lp188
(VGINGRAS
VA C
tp189
asg17
I1999
sg46
V913
p190
sbag1
(g2
g3
NtRp191
(dp192
g54
Nsg50
VJ GEN VIROL
p193
sg52
V78
p194
sg87
(lp195
(VHERBERT
VT P
tp196
asg17
I1997
sg46
V1033
p197
sbag1
(g2
g3
NtRp198
(dp199
g54
V10.1016/S1097-2765(01)00205-2
p200
sg50
VMOL CELL
p201
sg52
V7
sg87
(lp202
(VHEROLD
VJ
tp203
asg17
I2001
sg46
V581
p204
sbag1
(g2
g3
NtRp205
(dp206
g54
V10.1073/pnas.2535183100
p207
sg50
VP NATL ACAD SCI USA
p208
sg52
V100
p209
sg87
(lp210
(VJAN
VE
tp211
asg17
I2003
sg46
V15410
p212
sbag1
(g2
g3
NtRp213
(dp214
g54
Nsg50
VJ VIROL
p215
sg52
V73
p216
sg87
(lp217
(VKEREKATTE
VV
tp218
asg17
I1999
sg46
V709
p219
sbag1
(g2
g3
NtRp220
(dp221
g54
V10.1016/S1097-2765(01)00168-X
p222
sg50
VMOL CELL
p223
sg52
V7
sg87
(lp224
(VKHALEGHPOUR
VK
tp225
asg17
I2001
sg46
V205
p226
sbag1
(g2
g3
NtRp227
(dp228
g54
V10.1006/jmbi.1999.3274
p229
sg50
VJ MOL BIOL
p230
sg52
V294
p231
sg87
(lp232
(VKLOVINS
VJ
tp233
asg17
I1999
sg46
V875
p234
sbag1
(g2
g3
NtRp235
(dp236
g54
V10.1128/MCB.24.4.1779-1790.2004
p237
sg50
VMOL CELL BIOL
p238
sg52
V24
p239
sg87
(lp240
(VKUYUMCU-MARTINEZ
VN M
tp241
asg17
I2004
sg46
V1779
p242
sbag1
(g2
g3
NtRp243
(dp244
g54
V10.1074/jbc.272.26.16247
p245
sg50
VJ BIOL CHEM
p246
sg52
V272
p247
sg87
(lp248
(VLE
VH
tp249
asg17
I1997
sg46
V16247
p250
sbag1
(g2
g3
NtRp251
(dp252
g54
V10.1016/S0960-9822(02)00898-9
p253
sg50
VCURR BIOL
p254
sg52
V12
p255
sg87
(lp256
(VLELLIS
VA D
tp257
asg17
I2002
sg46
V1046
p258
sbag1
(g2
g3
NtRp259
(dp260
g54
V10.1099/vir.0.19706-0
p261
sg50
VJ GEN VIROL
p262
sg52
V85
p263
sg87
(lp264
(VLEONARD
VS
tp265
asg17
I2004
sg46
V1055
p266
sbag1
(g2
g3
NtRp267
(dp268
g54
V10.1128/JVI.74.17.7730-7737.2000
p269
sg50
VJ VIROL
p270
sg52
V74
p271
sg87
(lp272
(VLEONARD
VS
tp273
asg17
I2000
sg46
V7730
p274
sbag1
(g2
g3
NtRp275
(dp276
g54
V10.1016/j.virol.2003.10.028
p277
sg50
VVIROLOGY
p278
sg52
VIROLOGY
p279
sg87
(lp280
(VMATSUDA
VD
tp281
asg17
I2004
sg46
V47
p282
sbag1
(g2
g3
NtRp283
(dp284
g54
V10.1074/jbc.M004304200
p285
sg50
VJ BIOL CHEM
p286
sg52
V275
p287
sg87
(lp288
(VMICHEL
VY M
tp289
asg17
I2000
sg46
V32268
p290
sbag1
(g2
g3
NtRp291
(dp292
g54
V10.1099/vir.0.19581-0
p293
sg50
VJ GEN VIROL
p294
sg52
V85
p295
sg87
(lp296
(VNEELEMAN
VL
tp297
asg17
I2004
sg46
V231
p298
sbag1
(g2
g3
NtRp299
(dp300
g54
V10.1104/pp.102.017855
p301
sg50
VPLANT PHYSIOL
p302
sg52
V132
p303
sg87
(lp304
(VNICAISE
VV
tp305
asg17
I2003
sg46
VLANT
p306
sbag1
(g2
g3
NtRp307
(dp308
g54
Nsg50
VMOL CELL BIOL
p309
sg52
V23
p310
sg87
(lp311
(VNOUIERY
VA O
tp312
asg17
I2003
sg46
V4094
p313
sbag1
(g2
g3
NtRp314
(dp315
g54
V10.1101/gad.8.14.1726
p316
sg50
VGENE DEV
p317
sg52
V8
sg87
(lp318
(VNOVAK
VJ E
tp319
asg17
I1994
sg46
V1726
p320
sbag1
(g2
g3
NtRp321
(dp322
g54
V10.1016/S0968-0004(98)01301-2
p323
sg50
VTRENDS BIOCHEM SCI
p324
sg52
V23
p325
sg87
(lp326
(VOSTARECK-LEDERER
VA
tp327
asg17
I1998
sg46
V409
p328
sbag1
(g2
g3
NtRp329
(dp330
g54
V10.1006/viro.2002.1477
p331
sg50
VVIROLOGY
p332
sg52
VIROLOGY
p333
sg87
(lp334
(VPADILLA-NORIEGA
VL
tp335
asg17
I2002
sg46
V1
sbag1
(g2
g3
NtRp336
(dp337
g54
V10.1093/emboj/17.19.5811
p338
sg50
VEMBO J
p339
sg52
V17
p340
sg87
(lp341
(VPIRON
VM
tp342
asg17
I1998
sg46
V5811
p343
sbag1
(g2
g3
NtRp344
(dp345
g54
V10.1046/j.1365-313X.2002.01499.x
p346
sg50
VPLANT J
p347
sg52
V32
p348
sg87
(lp349
(VRUFFEL
VS
tp350
asg17
I2002
sg46
VLANT
p351
sbag1
(g2
g3
NtRp352
(dp353
g54
V10.1006/viro.2000.0416
p354
sg50
VVIROLOGY
p355
sg52
VIROLOGY
p356
sg87
(lp357
(VSCHAAD
VM C
tp358
asg17
I2000
sg46
V300
p359
sbag1
(g2
g3
NtRp360
(dp361
g54
V10.1128/JVI.74.11.5053-5065.2000
p362
sg50
VJ VIROL
p363
sg52
V74
p364
sg87
(lp365
(VSPAGNOLO
VJ F
tp366
asg17
I2000
sg46
V5053
p367
sbag1
(g2
g3
NtRp368
(dp369
g54
Nsg50
VJ GEN VIROL
p370
sg52
V81
p371
sg87
(lp372
(VTAYLOR
VD N
tp373
asg17
I2000
sg46
V1587
p374
sbag1
(g2
g3
NtRp375
(dp376
g54
V10.1128/JVI.74.15.7064-7071.2000
p377
sg50
VJ VIROL
p378
sg52
V74
p379
sg87
(lp380
(VVENDE
VP
tp381
asg17
I2000
sg46
V7064
p382
sbag1
(g2
g3
NtRp383
(dp384
g54
V10.1128/JVI.76.23.12008-12022.2002
p385
sg50
VJ VIROL
p386
sg52
V76
p387
sg87
(lp388
(VWALTER
VB L
tp389
asg17
I2002
sg46
V12008
p390
sbag1
(g2
g3
NtRp391
(dp392
g54
V10.1006/viro.2000.0509
p393
sg50
VVIROLOGY
p394
sg52
VIROLOGY
p395
sg87
(lp396
(VWANG
VX
tp397
asg17
I2000
sg46
V433
p398
sbag1
(g2
g3
NtRp399
(dp400
g54
V10.1023/B:PLAN.0000028771.70969.6b
p401
sg50
VPLANT MOL BIOL
p402
sg52
V54
p403
sg87
(lp404
(VWANG
VX F
tp405
asg17
I2004
sg46
VLANT
p406
sbag1
(g2
g3
NtRp407
(dp408
g54
V10.1021/bi9724570
p409
sg50
VBIOCHEMISTRY
p410
sg52
V37
p411
sg87
(lp412
(VWEI
VC C
tp413
asg17
I1998
sg46
V1910
p414
sbag1
(g2
g3
NtRp415
(dp416
g54
Nsg50
VTRANSLATIONAL CONTRO
p417
sg52
Nsg87
(lp418
(VWELCH
VE M
tp419
asg17
I2000
sg46
V467
p420
sbag1
(g2
g3
NtRp421
(dp422
g54
Nsg50
VJ VIROL
p423
sg52
V66
p424
sg87
(lp425
(VWHITE
VK A
tp426
asg17
I1992
sg46
V3069
p427
sbag1
(g2
g3
NtRp428
(dp429
g54
V10.1006/viro.1997.8634
p430
sg50
VVIROLOGY
p431
sg52
VIROLOGY
p432
sg87
(lp433
(VWITTMANN
VS
tp434
asg17
I1997
sg46
V84
p435
sbag1
(g2
g3
NtRp436
(dp437
g54
V10.1074/jbc.274.47.33714
p438
sg50
VJ BIOL CHEM
p439
sg52
V274
p440
sg87
(lp441
(VYOU
VS
tp442
asg17
I1999
sg46
V33714
p443
sbag1
(g2
g3
NtRp444
(dp445
g54
V10.1128/JVI.76.11.5678-5691.2002
p446
sg50
VJ VIROL
p447
sg52
V76
p448
sg87
(lp449
(VZEENKO
VV V
tp450
asg17
I2002
sg46
V5678
p451
sbasb.