ccopy_reg
_reconstructor
p1
(ctethne.classes.paper
Paper
p2
c__builtin__
object
p3
NtRp4
(dp5
S'publisherCity'
p6
VROCKVILLE
p7
sS'reprintAddress'
p8
VKopriva, S (reprint author), John Innes Ctr, Dept Metab Biol, Norwich NR4 7UH, Norfolk, England.
p9
sS'WC'
p10
VPlant Sciences
p11
sS'GA'
p12
V308TF
p13
sS'abstract'
p14
VSulfur-containing compounds play an important role in plant stress defense; however, only a little is known about the molecular mechanisms of regulation of sulfate assimilation by stress. Using known Arabidopsis ( Arabidopsis thaliana) mutants in signaling pathways, we analyzed regulation of the key enzyme of sulfate assimilation, adenosine 5'-phosphosulfate reductase (APR), by salt stress. APR activity and mRNA levels of all three APR isoforms increased 3-fold in roots after 5 h of treatment with 150 mM NaCl. The regulation of APR was not affected in mutants deficient in abscisic acid (ABA) synthesis and treatment of the plants with ABA did not affect the mRNA levels of APR isoforms, showing that APR is regulated by salt stress in an ABA-independent manner. In mutants deficient in jasmonate, salicylate, or ethylene signaling, APR mRNA levels were increased upon salt exposure similar to wild-type plants. Surprisingly, however, APR enzyme activity was not affected by salt in these plants. The same result was obtained in mutants affected in cytokinin and auxin signaling. Signaling via gibberellic acid, on the other hand, turned out to be essential for the increase in APR mRNA by salt treatment. These results demonstrate an extensive posttranscriptional regulation of plant APR and reveal that the sulfate assimilation pathway is controlled by a complex network of multiple signals on different regulatory levels.
p15
sS'pageEnd'
p16
I1420
sS'date'
p17
I2008
sS'documentType'
p18
VArticle
p19
sS'subject'
p20
VPlant Sciences
p21
sS'isoSource'
p22
VPlant Physiol.
p23
sS'timesCited'
p24
(lp25
I32
aVZ9 35
p26
asS'PT'
p27
VJ
sS'title'
p28
VComplex Signaling Network In Regulation Of Adenosine 5'-Phosphosulfate Reductase By Salt Stress In Arabidopsis Roots
p29
sS'ISSN'
p30
(lp31
V0032-0889
p32
aVJ9 PLANT PHYSIOL
p33
asS'authors_full'
p34
(lp35
(VKOPRIVOVA
VANNA
tp36
a(VNORTH
VKATHRYN ANNE
tp37
a(VKOPRIVA
VSTANISLAV
tp38
asS'PG'
p39
I13
sS'PD'
p40
VMAR
p41
sS'pageStart'
p42
I1408
sS'issue'
p43
I3
sS'RI'
p44
VKopriva, Stanislav/C-7401-2013
p45
sS'journal'
p46
VPLANT PHYSIOLOGY
p47
sS'volume'
p48
V146
p49
sS'doi'
p50
V10.1104/pp.107.113175
p51
sS'emailAddress'
p52
Vstanislav.kopriva@bbsrc.ac.uk
p53
sS'authorAddress'
p54
V[Koprivova, Anna; Kopriva, Stanislav] John Innes Ctr, Dept Metab Biol, Norwich NR4 7UH, Norfolk, England.
p55
sS'publisherAddress'
p56
V15501 MONONA DRIVE, ROCKVILLE, MD 20855 USA
p57
sS'ER'
p58
V
sS'publisher'
p59
VAMER SOC PLANT BIOLOGISTS
p60
sS'authorKeywords'
p61
(lp62
VASSIMILATORY SULFATE REDUCTION
p63
aVSYSTEMIC ACQUIRED-RESISTANCE
p64
aVATP SULFURYLASE ACTIVITY
p65
aVX POPULUS-ALBA
p66
aVABSCISIC-ACID
p67
aVGLUTATHIONE SYNTHESIS
p68
aVOXIDATIVE STRESS
p69
aV5'-PHOSPHOSULFATE REDUCTASE
p70
aVOSMOTIC-STRESS
p71
aVINTACT CANOLA
p72
asS'OI'
p73
VKopriva, Stanislav/0000-0002-7416-6551
p74
sS'language'
p75
VEnglish
p76
sS'wosid'
p77
VWOS:000256412200060
p78
sS'citationCount'
p79
I56
sS'authors_init'
p80
(lp81
(VKOPRIVOVA
VA
tp82
a(VNORTH
VK A
tp83
a(VKOPRIVA
VS
tp84
asS'citedReferences'
p85
(lp86
g1
(g2
g3
NtRp87
(dp88
g50
V10.1023/A:1006285016296
p89
sg46
VPLANT MOL BIOL
p90
sg48
V40
p91
sg80
(lp92
(VBARROSO
VC
tp93
asg17
I1999
sg42
VLANT
p94
sbag1
(g2
g3
NtRp95
(dp96
g50
V10.1021/bi010518v
p97
sg46
VBIOCHEMISTRY
p98
sg48
V40
p99
sg80
(lp100
(VBICK
VJ A
tp101
asg17
I2001
sg42
V9040
p102
sbag1
(g2
g3
NtRp103
(dp104
g50
V10.1126/science.241.4869.1086
p105
sg46
VSCIENCE
p106
sg48
V241
p107
sg80
(lp108
(VBLEECKER
VA B
tp109
asg17
I1988
sg42
V1086
p110
sbag1
(g2
g3
NtRp111
(dp112
g50
Nsg46
VJ PLANT PHYSIOL
p113
sg48
V146
p114
sg80
(lp115
(VBRUNNER
VM
tp116
asg17
I1995
sg42
V743
p117
sbag1
(g2
g3
NtRp118
(dp119
g50
Nsg46
VMETHODS PLANT BIOCH
p120
sg48
V3
sg80
(lp121
(VBRUNOLD
VC
tp122
asg17
I1990
sg42
V339
p123
sbag1
(g2
g3
NtRp124
(dp125
g50
Nsg46
VPLANT CELL
p126
sg48
V6
sg80
(lp127
(VCAO
VH
tp128
asg17
I1994
sg42
VLANT
p129
sbag1
(g2
g3
NtRp130
(dp131
g50
V10.1111/j.1365-3040.2004.01293.x
p132
sg46
VPLANT CELL ENVIRON
p133
sg48
V28
p134
sg80
(lp135
(VCHARLTON
VW L
tp136
asg17
I2005
sg42
VLANT
p137
sbag1
(g2
g3
NtRp138
(dp139
g50
Nsg46
VPLANT CELL
p140
sg48
V11
p141
sg80
(lp142
(VCREISSEN
VG
tp143
asg17
I1999
sg42
VLANT
p144
sbag1
(g2
g3
NtRp145
(dp146
g50
Nsg46
VPLANT CELL
p147
sg48
V6
sg80
(lp148
(VDAVIES
VJ P
tp149
asg17
I1994
sg42
VLANT
p150
sbag1
(g2
g3
NtRp151
(dp152
g50
V10.1016/j.pbi.2005.05.002
p153
sg46
VCURR OPIN PLANT BIOL
p154
sg48
V8
sg80
(lp155
(VDELLEDONNE
VM
tp156
asg17
I2005
sg42
V390
p157
sbag1
(g2
g3
NtRp158
(dp159
g50
V10.1007/BF00333575
p160
sg46
VMOL GEN GENET
p161
sg48
V206
p162
sg80
(lp163
(VESTELLE
VM A
tp164
asg17
I1987
sg42
V200
p165
sbag1
(g2
g3
NtRp166
(dp167
g50
V10.1046/j.1365-313x.2000.00723.x
p168
sg46
VPLANT J
p169
sg48
V22
p170
sg80
(lp171
(VGUAN
VL Q M
tp172
asg17
I2000
sg42
VLANT
p173
sbag1
(g2
g3
NtRp174
(dp175
g50
Nsg46
VPLANT CELL
p176
sg48
V2
sg80
(lp177
(VGUZMAN
VP
tp178
asg17
I1990
sg42
VLANT
p179
sbag1
(g2
g3
NtRp180
(dp181
g50
V10.1093/jxb/erh094
p182
sg46
VJ EXP BOT
p183
sg48
V55
p184
sg80
(lp185
(VHARTMANN
VT
tp186
asg17
I2004
sg42
V837
p187
sbag1
(g2
g3
NtRp188
(dp189
g50
V10.1146/annurev.arplant.51.1.463
p190
sg46
VANNU REV PLANT PHYS
p191
sg48
V51
p192
sg80
(lp193
(VHASEGAWA
VP M
tp194
asg17
I2000
sg42
V463
p195
sbag1
(g2
g3
NtRp196
(dp197
g50
V10.1093/jxb/erg177
p198
sg46
VJ EXP BOT
p199
sg48
V54
p200
sg80
(lp201
(VHESSE
VH
tp202
asg17
I2003
sg42
V1701
p203
sbag1
(g2
g3
NtRp204
(dp205
g50
V10.1046/j.1365-313x.2001.01020.x
p206
sg46
VPLANT J
p207
sg48
V26
p208
sg80
(lp209
(VHUA
VX J
tp210
asg17
I2001
sg42
VLANT
p211
sbag1
(g2
g3
NtRp212
(dp213
g50
V10.1038/35059117
p214
sg46
VNATURE
p215
sg48
V409
p216
sg80
(lp217
(VINOUE
VT
tp218
asg17
I2001
sg42
V1060
p219
sbag1
(g2
g3
NtRp220
(dp221
g50
V10.1104/pp.127.3.1147
p222
sg46
VPLANT PHYSIOL
p223
sg48
V127
p224
sg80
(lp225
(VKOCSY
VG
tp226
asg17
I2001
sg42
VLANT
p227
sbag1
(g2
g3
NtRp228
(dp229
g50
V10.1016/j.jplph.2003.12.006
p230
sg46
VJ PLANT PHYSIOL
p231
sg48
V161
p232
sg80
(lp233
(VKOCSY
VG
tp234
asg17
I2004
sg42
V785
p235
sbag1
(g2
g3
NtRp236
(dp237
g50
V10.1111/j.1399-3054.1985.tb02355.x
p238
sg46
VPHYSIOL PLANTARUM
p239
sg48
V65
p240
sg80
(lp241
(VKOORNNEEF
VM
tp242
asg17
I1985
sg42
VHYSIOL
p243
sbag1
(g2
g3
NtRp244
(dp245
g50
Nsg46
VTHEOR APPL GENET
p246
sg48
V61
p247
sg80
(lp248
(VKOORNNEEF
VM
tp249
asg17
I1982
sg42
V385
p250
sbag1
(g2
g3
NtRp251
(dp252
g50
V10.1111/j.1399-3054.1984.tb06343.x
p253
sg46
VPHYSIOL PLANTARUM
p254
sg48
V61
p255
sg80
(lp256
(VKOORNNEEF
VM
tp257
asg17
I1984
sg42
VHYSIOL
p258
sbag1
(g2
g3
NtRp259
(dp260
g50
V10.1093/jxb/erh203
p261
sg46
VJ EXP BOT
p262
sg48
V55
p263
sg80
(lp264
(VKOPRIVA
VS
tp265
asg17
I2004
sg42
V1831
p266
sbag1
(g2
g3
NtRp267
(dp268
g50
V10.1093/aob/mc1006
p269
sg46
VANN BOT
p270
sg48
V97
p271
sg80
(lp272
(VKOPRIVA
VS
tp273
asg17
I2006
sg42
V479
p274
sbag1
(g2
g3
NtRp275
(dp276
g50
V10.1046/j.1365-313X.1999.00573.x
p277
sg46
VPLANT J
p278
sg48
V20
p279
sg80
(lp280
(VKOPRIVA
VS
tp281
asg17
I1999
sg42
VLANT
p282
sbag1
(g2
g3
NtRp283
(dp284
g50
V10.1093/jxb/erh185
p285
sg46
VJ EXP BOT
p286
sg48
V55
p287
sg80
(lp288
(VKOPRIVA
VS
tp289
asg17
I2004
sg42
V1775
p290
sbag1
(g2
g3
NtRp291
(dp292
g50
V10.1104/pp.122.3.737
p293
sg46
VPLANT PHYSIOL
p294
sg48
V122
p295
sg80
(lp296
(VKOPRIVOVA
VA
tp297
asg17
I2000
sg42
VLANT
p298
sbag1
(g2
g3
NtRp299
(dp300
g50
Nsg46
VPLANT PHYSIOL
p301
sg48
V111
p302
sg80
(lp303
(VLAPPARTIENT
VA G
tp304
asg17
I1996
sg42
VLANT
p305
sbag1
(g2
g3
NtRp306
(dp307
g50
Nsg46
VPLANT PHYSIOL
p308
sg48
V114
p309
sg80
(lp310
(VLAPPARTIENT
VA G
tp311
asg17
I1997
sg42
VLANT
p312
sbag1
(g2
g3
NtRp313
(dp314
g50
V10.1094/MPMI-8-0863
p315
sg46
VMOL PLANT MICROBE IN
p316
sg48
V8
sg80
(lp317
(VLAWTON
VK
tp318
asg17
I1995
sg42
V863
p319
sbag1
(g2
g3
NtRp320
(dp321
g50
V10.1016/S0168-9452(98)00231-3
p322
sg46
VPLANT SCI
p323
sg48
V141
p324
sg80
(lp325
(VLEE
VS M
tp326
asg17
I1999
sg42
VLANT
p327
sbag1
(g2
g3
NtRp328
(dp329
g50
V10.1046/j.1365-313X.1996.10040655.x
p330
sg46
VPLANT J
p331
sg48
V10
p332
sg80
(lp333
(VLEONKLOOSTERZIEL
VK M
tp334
asg17
I1996
sg42
VLANT
p335
sbag1
(g2
g3
NtRp336
(dp337
g50
V10.1146/annurev.arplant.51.1.141
p338
sg46
VANNU REV PLANT PHYS
p339
sg48
V51
p340
sg80
(lp341
(VLEUSTEK
VT
tp342
asg17
I2000
sg42
V141
p343
sbag1
(g2
g3
NtRp344
(dp345
g50
V10.1038/ng2050
p346
sg46
VNAT GENET
p347
sg48
V39
p348
sg80
(lp349
(VLOUDET
VO
tp350
asg17
I2007
sg42
V896
p351
sbag1
(g2
g3
NtRp352
(dp353
g50
V10.1093/jxb/erj098
p354
sg46
VJ EXP BOT
p355
sg48
V57
p356
sg80
(lp357
(VMA
VS S
tp358
asg17
I2006
sg42
V1097
p359
sbag1
(g2
g3
NtRp360
(dp361
g50
V10.1105/tpc.106.046458
p362
sg46
VPLANT CELL
p363
sg48
V18
p364
sg80
(lp365
(VMARUYAMA-NAKASHITA
VA
tp366
asg17
I2006
sg42
VLANT
p367
sbag1
(g2
g3
NtRp368
(dp369
g50
V10.1007/s11103-005-5798-7
p370
sg46
VPLANT MOL BIOL
p371
sg48
V61
p372
sg80
(lp373
(VMILLA
VM A
tp374
asg17
I2006
sg42
VLANT
p375
sbag1
(g2
g3
NtRp376
(dp377
g50
V10.1016/S0014-5793(03)01214-6
p378
sg46
VFEBS LETT
p379
sg48
V554
p380
sg80
(lp381
(VMITTOVA
VV
tp382
asg17
I2003
sg42
V417
p383
sbag1
(g2
g3
NtRp384
(dp385
g50
V10.1046/j.1365-313X.2003.01657.x
p386
sg46
VPLANT J
p387
sg48
V33
p388
sg80
(lp389
(VNIKIFOROVA
VV
tp390
asg17
I2003
sg42
VLANT
p391
sbag1
(g2
g3
NtRp392
(dp393
g50
V10.1093/jexbot/49.321.623
p394
sg46
VJ EXP BOT
p395
sg48
V49
p396
sg80
(lp397
(VNOCTOR
VG
tp398
asg17
I1998
sg42
V623
p399
sbag1
(g2
g3
NtRp400
(dp401
g50
V10.1146/annurev.arplant.49.1.249
p402
sg46
VANNU REV PLANT PHYS
p403
sg48
V49
p404
sg80
(lp405
(VNOCTOR
VG
tp406
asg17
I1998
sg42
V249
p407
sbag1
(g2
g3
NtRp408
(dp409
g50
V10.1093/pcp/pcf183
p410
sg46
VPLANT CELL PHYSIOL
p411
sg48
V43
p412
sg80
(lp413
(VOHKAMA
VN
tp414
asg17
I2002
sg42
VLANT
p415
sbag1
(g2
g3
NtRp416
(dp417
g50
V10.1104/pp.012484
p418
sg46
VPLANT PHYSIOL
p419
sg48
V130
p420
sg80
(lp421
(VRAVINA
VC G
tp422
asg17
I2002
sg42
VLANT
p423
sbag1
(g2
g3
NtRp424
(dp425
g50
V10.1101/gad.12.2.198
p426
sg46
VGENE DEV
p427
sg48
V12
p428
sg80
(lp429
(VRUEGGER
VM
tp430
asg17
I1998
sg42
V198
p431
sbag1
(g2
g3
NtRp432
(dp433
g50
V10.1007/s00425-002-0748-y
p434
sg46
VPLANTA
p435
sg48
V214
p436
sg80
(lp437
(VRUIZ
VJ M
tp438
asg17
I2002
sg42
VLANTA
p439
sbag1
(g2
g3
NtRp440
(dp441
g50
V10.1073/pnas.89.15.6837
p442
sg46
VP NATL ACAD SCI USA
p443
sg48
V89
p444
sg80
(lp445
(VSTASWICK
VP E
tp446
asg17
I1992
sg42
V6837
p447
sbag1
(g2
g3
NtRp448
(dp449
g50
V10.1046/j.1365-313X.1995.07010141.x
p450
sg46
VPLANT J
p451
sg48
V7
sg80
(lp452
(VSTROHM
VM
tp453
asg17
I1995
sg42
VLANT
p454
sbag1
(g2
g3
NtRp455
(dp456
g50
V10.1111/j.1365-313X.2005.02363.x
p457
sg46
VPLANT J
p458
sg48
V42
p459
sg80
(lp460
(VMARUYAMA-NAKASHITA
VA
tp461
asg17
I2005
sg42
VLANT
p462
sbag1
(g2
g3
NtRp463
(dp464
g50
V10.1046/j.1365-313X.1997.11061187.x
p465
sg46
VPLANT J
p466
sg48
V11
p467
sg80
(lp468
(VTHORDALCHRISTENSEN
VH
tp469
asg17
I1997
sg42
VLANT
p470
sbag1
(g2
g3
NtRp471
(dp472
g50
V10.1046/j.1365-313X.2002.01391.x
p473
sg46
VPLANT J
p474
sg48
V31
p475
sg80
(lp476
(VVAUCLARE
VP
tp477
asg17
I2002
sg42
VLANT
p478
sbag1
(g2
g3
NtRp479
(dp480
g50
V10.1105/tpc.014928
p481
sg46
VPLANT CELL
p482
sg48
V15
p483
sg80
(lp484
(VWERNER
VT
tp485
asg17
I2003
sg42
VLANT
p486
sbag1
(g2
g3
NtRp487
(dp488
g50
V10.1016/S0981-9428(01)01258-X
p489
sg46
VPLANT PHYSIOL BIOCH
p490
sg48
V39
p491
sg80
(lp492
(VWESTERMAN
VS
tp493
asg17
I2001
sg42
VLANT
p494
sbag1
(g2
g3
NtRp495
(dp496
g50
V10.1105/tpc.000596
p497
sg46
VPLANT CELL
p498
sg48
V14
p499
sg80
(lp500
(VXIONG
VL M
tp501
asg17
I2002
sg42
VLANT
p502
sbag1
(g2
g3
NtRp503
(dp504
g50
V10.1146/annurev.arplant.53.091401.143329
p505
sg46
VANNU REV PLANT BIOL
p506
sg48
V53
p507
sg80
(lp508
(VZHU
VJ K
tp509
asg17
I2002
sg42
V247
p510
sbag1
(g2
g3
NtRp511
(dp512
g50
V10.1104/pp.104.046367
p513
sg46
VPLANT PHYSIOL
p514
sg48
V136
p515
sg80
(lp516
(VZIMMERMANN
VP
tp517
asg17
I2004
sg42
VLANT
p518
sbasb.