ccopy_reg
_reconstructor
p1
(ctethne.classes.paper
Paper
p2
c__builtin__
object
p3
NtRp4
(dp5
S'publisherCity'
p6
VROCKVILLE
p7
sS'reprintAddress'
p8
VBrowse, J (reprint author), Washington State Univ, Inst Biol Chem, Pullman, WA 99164 USA.
p9
sS'WC'
p10
VPlant Sciences
p11
sS'GA'
p12
V060WU
p13
sS'abstract'
p14
VLeaf membrane lipids of the Arabidopsis ( Arabidopsis thaliana) fatty acid biosynthesis 1 (fab1) mutant contain a 35% to 40% increase in the predominant saturated fatty acid 16: 0, relative to wild type. This increase in membrane saturation is associated with loss of photosynthetic function and death of mutant plants at low temperatures. We have initiated a suppressor screen for mutations that allow survival of fab1 plants at 2 degrees C. Five suppressor mutants identified in this screen all rescued the collapse of photosynthetic function observed in fab1 plants. While fab1 plants died after 5 to 7 weeks at 2 degrees C, the suppressors remained viable after 16 weeks in the cold, as judged by their ability to resume growth following a return to 22 degrees C and to subsequently produce viable seed. Three of the suppressors had changes in leaf fatty acid composition when compared to fab1, indicating that one mechanism of suppression may involve compensating changes in thylakoid lipid composition. Surprisingly, the suppressor phenotype in one line, S31, was associated with a further substantial increase in lipid saturation. The overall leaf fatty acid composition of S31 plants contained 31% 16:0 compared with 23% in fab1 and 17% in wild type. Biochemical and genetic analysis showed that S31 plants contain a new allele of fatty acid desaturation 5 (fad5), fad5-2, and are therefore partially deficient in activity of the chloroplast 16:0 Delta 7 desaturase. A double mutant produced by crossing fab1 to the original fad5-1 allele also remained alive at 2 degrees C, indicating that the fad5-2 mutation is the suppressor in the S31 (fab1 fad5-2) line. Based on the biophysical characteristics of saturated and unsaturated fatty acids, the increased 16:0 in fab1 fad5-2 plants would be expected to exacerbate, rather than ameliorate, low-temperature damage. We propose instead that a change in shape of the major thylakoid lipid, monogalactosyldiacylglycerol, mediated by the fad5-2 mutation, may compensate for changes in lipid structure resulting from the original fab1 mutation. Our identification of mutants that suppress the low-temperature phenotype of fab1 provides new tools to understand the relationship between thylakoid lipid structure and photosynthetic function.
p15
sS'pageEnd'
p16
I1020
sS'publisherAddress'
p17
V15501 MONONA DRIVE, ROCKVILLE, MD 20855 USA
p18
sS'documentType'
p19
VArticle
p20
sS'subject'
p21
VPlant Sciences
p22
sS'isoSource'
p23
VPlant Physiol.
p24
sS'timesCited'
p25
(lp26
I15
aVZ9 15
p27
asS'PT'
p28
VJ
sS'title'
p29
VA Suppressor Of Fab1 Challenges Hypotheses On The Role Of Thylakoid Unsaturation In Photosynthetic Function
p30
sS'ISSN'
p31
(lp32
V0032-0889
p33
aVJ9 PLANT PHYSIOL
p34
asS'authors_full'
p35
(lp36
(VBARKAN
VLENORE
tp37
a(VVIJAYAN
VPERUMAL
tp38
a(VCARLSSON
VANDERS S
tp39
a(VMEKHEDOV
VSERGEI
tp40
a(VBROWSE
VJOHN
tp41
asS'PG'
p42
I9
sS'PD'
p43
VJUL
p44
sS'pageStart'
p45
I1012
sS'issue'
p46
I3
sS'journal'
p47
VPLANT PHYSIOLOGY
p48
sS'volume'
p49
V141
p50
sS'doi'
p51
V10.1104/pp.106.080481
p52
sS'emailAddress'
p53
Vjab@wsu.edu
p54
sS'authorAddress'
p55
(lp56
VWashington State Univ, Inst Biol Chem, Pullman, WA 99164 USA.
p57
aVMichigan State Univ, Dept Bot, E Lansing, MI 48824 USA.
p58
asS'date'
p59
I2006
sS'ER'
p60
V
sS'publisher'
p61
VAMER SOC PLANT BIOLOGISTS
p62
sS'authorKeywords'
p63
(lp64
VCHILLING-RESISTANT PLANTS
p65
aVLIGHT-HARVESTING COMPLEX
p66
aVTRIENOIC FATTY-ACIDS
p67
aVLOW-TEMPERATURE
p68
aVARABIDOPSIS DEFICIENT
p69
aVPROTEIN-TRANSPORT
p70
aVNONBILAYER LIPIDS
p71
aVMEMBRANE-LIPIDS
p72
aVPALMITIC ACID
p73
aVMUTANT
p74
asS'language'
p75
VEnglish
p76
sS'wosid'
p77
VWOS:000238833400020
p78
sS'citationCount'
p79
I42
sS'authors_init'
p80
(lp81
(VBARKAN
VL
tp82
a(VVIJAYAN
VP
tp83
a(VCARLSSON
VA S
tp84
a(VMEKHEDOV
VS
tp85
a(VBROWSE
VJ
tp86
asS'citedReferences'
p87
(lp88
g1
(g2
g3
NtRp89
(dp90
g51
V10.1046/j.1365-313X.2003.01811.x
p91
sg47
VPLANT J
p92
sg49
V35
p93
sg80
(lp94
(VANDERSSON
VJ
tp95
asg59
I2003
sg45
VLANT
p96
sbag1
(g2
g3
NtRp97
(dp98
g51
V10.1104/pp.117.3.923
p99
sg47
VPLANT PHYSIOL
p100
sg49
V117
p101
sg80
(lp102
(VMIQUEL
VM
tp103
asg59
I1998
sg45
VLANT
p104
sbag1
(g2
g3
NtRp105
(dp106
g51
V10.1073/pnas.85.12.4143
p107
sg47
VP NATL ACAD SCI USA
p108
sg49
V85
p109
sg80
(lp110
(VKUNST
VL
tp111
asg59
I1988
sg45
V4143
p112
sbag1
(g2
g3
NtRp113
(dp114
g51
V10.1016/S1369-5266(00)00167-9
p115
sg47
VCURR OPIN PLANT BIOL
p116
sg49
V4
sg80
(lp117
(VBROWSE
VJ
tp118
asg59
I2001
sg45
V241
p119
sbag1
(g2
g3
NtRp120
(dp121
g51
Nsg47
VBIOCHEM J
p122
sg49
V235
p123
sg80
(lp124
(VBROWSE
VJ
tp125
asg59
I1986
sg45
V25
p126
sbag1
(g2
g3
NtRp127
(dp128
g51
V10.1023/A:1006094308805
p129
sg47
VPLANT MOL BIOL
p130
sg49
V38
p131
sg80
(lp132
(VBRUCE
VB D
tp133
asg59
I1998
sg45
VLANT
p134
sbag1
(g2
g3
NtRp135
(dp136
g51
V10.1046/j.1365-313X.2002.01253.x
p137
sg47
VPLANT J
p138
sg49
V29
p139
sg80
(lp140
(VCARLSSON
VA S
tp141
asg59
I2002
sg45
VLANT
p142
sbag1
(g2
g3
NtRp143
(dp144
g51
V10.1073/pnas.94.26.14423
p145
sg47
VP NATL ACAD SCI USA
p146
sg49
V94
p147
sg80
(lp148
(VCHANTURIYA
VA
tp149
asg59
I1997
sg45
V14423
p150
sbag1
(g2
g3
NtRp151
(dp152
g51
V10.1016/0005-2736(83)90207-9
p153
sg47
VBIOCHIM BIOPHYS ACTA
p154
sg49
V732
p155
sg80
(lp156
(VGOUNARIS
VK
tp157
asg59
I1983
sg45
V229
p158
sbag1
(g2
g3
NtRp159
(dp160
g51
V10.1016/0968-0004(83)90366-3
p161
sg47
VTRENDS BIOCHEM SCI
p162
sg49
V8
sg80
(lp163
(VGOUNARIS
VK
tp164
asg59
I1983
sg45
V378
p165
sbag1
(g2
g3
NtRp166
(dp167
g51
V10.1146/annurev.biophys.14.1.211
p168
sg47
VANNU REV BIOPHYS BIO
p169
sg49
V14
p170
sg80
(lp171
(VGRUNER
VS M
tp172
asg59
I1985
sg45
V211
p173
sbag1
(g2
g3
NtRp174
(dp175
g51
Nsg47
VBIOCH PLANTS
p176
sg49
Nsg80
(lp177
(VHARWOOD
VJ L
tp178
asg59
I1982
sg45
V1
sbag1
(g2
g3
NtRp179
(dp180
g51
V10.1104/pp.104.052951
p181
sg47
VPLANT PHYSIOL
p182
sg49
V136
p183
sg80
(lp184
(VHEILMANN
VI
tp185
asg59
I2004
sg45
VLANT
p186
sbag1
(g2
g3
NtRp187
(dp188
g51
V10.1104/pp.99.1.197
p189
sg47
VPLANT PHYSIOL
p190
sg49
V99
p191
sg80
(lp192
(VHUGLY
VS
tp193
asg59
I1992
sg45
VLANT
p194
sbag1
(g2
g3
NtRp195
(dp196
g51
V10.1146/annurev.arplant.53.100201.160729
p197
sg47
VANNU REV PLANT BIOL
p198
sg49
V53
p199
sg80
(lp200
(VIBA
VK
tp201
asg59
I2002
sg45
V225
p202
sbag1
(g2
g3
NtRp203
(dp204
g51
V10.1038/nbt0896-1003
p205
sg47
VNAT BIOTECHNOL
p206
sg49
V14
p207
sg80
(lp208
(VISHIZAKINISHIZAWA
VO
tp209
asg59
I1996
sg45
V1003
p210
sbag1
(g2
g3
NtRp211
(dp212
g51
V10.1073/pnas.0401315101
p213
sg47
VP NATL ACAD SCI USA
p214
sg49
V101
p215
sg80
(lp216
(VKACHROO
VA
tp217
asg59
I2004
sg45
V5152
p218
sbag1
(g2
g3
NtRp219
(dp220
g51
V10.1016/S0021-9673(00)88412-5
p221
sg47
VJ CHROMATOGR
p222
sg49
V140
p223
sg80
(lp224
(VKHAN
VM U
tp225
asg59
I1977
sg45
V179
p226
sbag1
(g2
g3
NtRp227
(dp228
g51
Nsg47
VPLANT PHYSIOL
p229
sg49
V105
p230
sg80
(lp231
(VKODAMA
VH
tp232
asg59
I1994
sg45
VLANT
p233
sbag1
(g2
g3
NtRp234
(dp235
g51
V10.1016/0027-5107(82)90129-4
p236
sg47
VMUTAT RES
p237
sg49
V93
p238
sg80
(lp239
(VKOORNNEEF
VM
tp240
asg59
I1982
sg45
V109
p241
sbag1
(g2
g3
NtRp242
(dp243
g51
V10.1111/j.1399-3054.1985.tb01221.x
p244
sg47
VPHYSIOL PLANTARUM
p245
sg49
V64
p246
sg80
(lp247
(VKUIPER
VP J C
tp248
asg59
I1985
sg45
VHYSIOL
p249
sbag1
(g2
g3
NtRp250
(dp251
g51
V10.1104/pp.90.3.943
p252
sg47
VPLANT PHYSIOL
p253
sg49
V90
p254
sg80
(lp255
(VKUNST
VL
tp256
asg59
I1989
sg45
VLANT
p257
sbag1
(g2
g3
NtRp258
(dp259
g51
V10.1038/nature02373
p260
sg47
VNATURE
p261
sg49
V428
p262
sg80
(lp263
(VLIU
VZ F
tp264
asg59
I2004
sg45
V287
p265
sbag1
(g2
g3
NtRp266
(dp267
g51
V10.1104/pp.69.6.1369
p268
sg47
VPLANT PHYSIOL
p269
sg49
V69
p270
sg80
(lp271
(VLYNCH
VD V
tp272
asg59
I1982
sg45
VLANT
p273
sbag1
(g2
g3
NtRp274
(dp275
g51
V10.1146/annurev.pp.24.060173.002305
p276
sg47
VANNU REV PLANT PHYS
p277
sg49
V24
p278
sg80
(lp279
(VLYONS
VJ M
tp280
asg59
I1973
sg45
V445
p281
sbag1
(g2
g3
NtRp282
(dp283
g51
V10.1046/j.1365-313X.1998.00229.x
p284
sg47
VPLANT J
p285
sg49
V15
p286
sg80
(lp287
(VMCCONN
VM
tp288
asg59
I1998
sg45
VLANT
p289
sbag1
(g2
g3
NtRp290
(dp291
g51
V10.1126/science.287.5452.476
p292
sg47
VSCIENCE
p293
sg49
V287
p294
sg80
(lp295
(VMURAKAMI
VY
tp296
asg59
I2000
sg45
V476
p297
sbag1
(g2
g3
NtRp298
(dp299
g51
V10.1038/356710a0
p300
sg47
VNATURE
p301
sg49
V356
p302
sg80
(lp303
(VMURATA
VN
tp304
asg59
I1992
sg45
V710
p305
sbag1
(g2
g3
NtRp306
(dp307
g51
Nsg47
VPLANT CELL PHYSIOL
p308
sg49
V23
p309
sg80
(lp310
(VMURATA
VN
tp311
asg59
I1982
sg45
VLANT
p312
sbag1
(g2
g3
NtRp313
(dp314
g51
Nsg47
VPLANT CELL PHYSIOL
p315
sg49
V24
p316
sg80
(lp317
(VMURATA
VN
tp318
asg59
I1983
sg45
VLANT
p319
sbag1
(g2
g3
NtRp320
(dp321
g51
V10.1104/pp.74.4.1016
p322
sg47
VPLANT PHYSIOL
p323
sg49
V74
p324
sg80
(lp325
(VMURATA
VN
tp326
asg59
I1984
sg45
VLANT
p327
sbag1
(g2
g3
NtRp328
(dp329
g51
V10.1146/annurev.arplant.47.1.541
p330
sg47
VANNU REV PLANT PHYS
p331
sg49
V47
p332
sg80
(lp333
(VNISHIDA
VI
tp334
asg59
I1996
sg45
V541
p335
sbag1
(g2
g3
NtRp336
(dp337
g51
V10.1006/jmbi.1993.1591
p338
sg47
VJ MOL BIOL
p339
sg49
V234
p340
sg80
(lp341
(VNUSSBERGER
VS
tp342
asg59
I1993
sg45
V347
p343
sbag1
(g2
g3
NtRp344
(dp345
g51
V10.1007/BF01516063
p346
sg47
VJ BIOENERG
p347
sg49
V4
sg80
(lp348
(VRAISON
VJ K
tp349
asg59
I1973
sg45
V285
p350
sbag1
(g2
g3
NtRp351
(dp352
g51
Nsg47
VEMBO J
p353
sg49
V14
p354
sg80
(lp355
(VRIETVELD
VA G
tp356
asg59
I1995
sg45
V5506
p357
sbag1
(g2
g3
NtRp358
(dp359
g51
V10.1104/pp.77.3.740
p360
sg47
VPLANT PHYSIOL
p361
sg49
V77
p362
sg80
(lp363
(VROUGHAN
VP G
tp364
asg59
I1985
sg45
VLANT
p365
sbag1
(g2
g3
NtRp366
(dp367
g51
V10.1104/pp.124.4.1697
p368
sg47
VPLANT PHYSIOL
p369
sg49
V124
p370
sg80
(lp371
(VROUTABOUL
VJ M
tp372
asg59
I2000
sg45
VLANT
p373
sbag1
(g2
g3
NtRp374
(dp375
g51
V10.1073/pnas.97.4.1473
p376
sg47
VP NATL ACAD SCI USA
p377
sg49
V97
p378
sg80
(lp379
(VSIMIDJIEV
VI
tp380
asg59
I2000
sg45
V1473
p381
sbag1
(g2
g3
NtRp382
(dp383
g51
Nsg47
VEMBO J
p384
sg49
V11
p385
sg80
(lp386
(VWOLTER
VF P
tp387
asg59
I1992
sg45
V4685
p388
sbag1
(g2
g3
NtRp389
(dp390
g51
V10.1105/tpc.7.1.17
p391
sg47
VPLANT CELL
p392
sg49
V7
sg80
(lp393
(VWU
VJ R
tp394
asg59
I1995
sg45
VLANT
p395
sbag1
(g2
g3
NtRp396
(dp397
g51
Nsg47
VPLANT PHYSIOL
p398
sg49
V106
p399
sg80
(lp400
(VWU
VJ R
tp401
asg59
I1994
sg45
VLANT
p402
sbag1
(g2
g3
NtRp403
(dp404
g51
V10.1104/pp.113.2.347
p405
sg47
VPLANT PHYSIOL
p406
sg49
V113
p407
sg80
(lp408
(VWU
VJ R
tp409
asg59
I1997
sg45
VLANT
p410
sbasb.