ccopy_reg
_reconstructor
p1
(ctethne.classes.paper
Paper
p2
c__builtin__
object
p3
NtRp4
(dp5
S'publisherCity'
p6
VROCKVILLE
p7
sS'reprintAddress'
p8
VGillaspy, GE (reprint author), Virginia Tech, Dept Biochem, Blacksburg, VA 24061 USA.
p9
sS'WC'
p10
VPlant Sciences
p11
sS'GA'
p12
V717FT
p13
sS'abstract'
p14
VSignals can be perceived and amplified at the cell membrane by receptors coupled to the production of a variety of second messengers, including inositol 1,4,5-trisphosphate (IP3). We previously have identified 15 putative inositol 5-phosphatases (5PTases) from Arabidopsis and shown that At5PTase1 can hydrolyze IP3. To determine whether At5PTase1 can terminate IP3-mediated signaling, we analyzed transgenic plants ectopically expressing At5PTase1. Stomata from leaves of At5PTase1 transgenic plants were abscisic acid (ABA) and light insensitive, and ABA induction of genes was delayed. Quantification of IP3 in plants exposed to ABA indicated that ABA induced two IP3 increases in wild-type plants. Both of these IP3 increases were reduced in At5PTase1 transgenic plants, indicating that IP3 may be necessary for stomatal closure and temporal control of ABA-induced gene expression. To determine if ABA could induce expression of At5PTase1, we examined RNA and protein levels of At5PTase1 in wild-type plants exposed to ABA. Our results indicate that At5PTase1 is up-regulated in response to ABA. This is consistent with At5PTase1 acting as a signal terminator of ABA signaling.
p15
sS'pageEnd'
p16
I1019
sS'publisherAddress'
p17
V15501 MONONA DRIVE, ROCKVILLE, MD 20855 USA
p18
sS'documentType'
p19
VArticle
p20
sS'subject'
p21
VPlant Sciences
p22
sS'isoSource'
p23
VPlant Physiol.
p24
sS'timesCited'
p25
(lp26
I45
aVZ9 46
p27
asS'PT'
p28
VJ
sS'title'
p29
VAn Arabidopsis Inositol 5-Phosphatase Gain-Of-Function Alters Abscisic Acid Signaling
p30
sS'ISSN'
p31
(lp32
V0032-0889
p33
aVJ9 PLANT PHYSIOL
p34
asS'authors_full'
p35
(lp36
(VBURNETTE
VRN
tp37
a(VGUNESEKERA
VBM
tp38
a(VGILLASPY
VGE
tp39
asS'PG'
p40
I9
sS'PD'
p41
VJUN
p42
sS'pageStart'
p43
I1011
sS'issue'
p44
I2
sS'journal'
p45
VPLANT PHYSIOLOGY
p46
sS'volume'
p47
V132
p48
sS'doi'
p49
V10.1104/pp.102.019000
p50
sS'authorAddress'
p51
(lp52
VVirginia Tech, Dept Biochem, Blacksburg, VA 24061 USA.
p53
aVVirginia Tech, Fralin Biotechnol Ctr, Blacksburg, VA 24061 USA.
p54
asS'date'
p55
I2003
sS'ER'
p56
V
sS'publisher'
p57
VAMER SOC PLANT BIOLOGISTS
p58
sS'authorKeywords'
p59
(lp60
VCYTOSOLIC-FREE CALCIUM
p61
aVSTOMATAL GUARD-CELLS
p62
aVCYTOPLASMIC CALCIUM
p63
aV1,4,5-TRISPHOSPHATE
p64
aVTRISPHOSPHATE
p65
aVCHANNELS
p66
aVTRANSDUCTION
p67
aVOSCILLATIONS
p68
aVEXPRESSION
p69
aVMOVEMENTS
p70
asS'language'
p71
VEnglish
p72
sS'wosid'
p73
VWOS:000185076600062
p74
sS'citationCount'
p75
I31
sS'authors_init'
p76
(lp77
(VBURNETTE
VR N
tp78
a(VGUNESEKERA
VB M
tp79
a(VGILLASPY
VG E
tp80
asS'citedReferences'
p81
(lp82
g1
(g2
g3
NtRp83
(dp84
g49
V10.1038/35082575
p85
sg45
VNATURE
p86
sg47
V411
p87
sg76
(lp88
(VALLEN
VG J
tp89
asg55
I2001
sg43
V1053
p90
sbag1
(g2
g3
NtRp91
(dp92
g49
V10.1105/tpc.11.9.1785
p93
sg45
VPLANT CELL
p94
sg47
V11
p95
sg76
(lp96
(VALLEN
VG J
tp97
asg55
I1999
sg43
VLANT
p98
sbag1
(g2
g3
NtRp99
(dp100
g49
V10.1016/S1369-5266(00)00195-3
p101
sg45
VCURR OPIN PLANT BIOL
p102
sg47
V4
sg76
(lp103
(VASSMANN
VS M
tp104
asg55
I2001
sg43
V421
p105
sbag1
(g2
g3
NtRp106
(dp107
g49
V10.1104/pp.126.2.801
p108
sg45
VPLANT PHYSIOL
p109
sg47
V126
p110
sg76
(lp111
(VBERDY
VS E
tp112
asg55
I2001
sg43
VLANT
p113
sbag1
(g2
g3
NtRp114
(dp115
g49
V10.1038/361315a0
p116
sg45
VNATURE
p117
sg47
V361
p118
sg76
(lp119
(VBERRIDGE
VM J
tp120
asg55
I1993
sg43
V315
p121
sbag1
(g2
g3
NtRp122
(dp123
g49
V10.1038/346766a0
p124
sg45
VNATURE
p125
sg47
V346
p126
sg76
(lp127
(VBLATT
VM R
tp128
asg55
I1990
sg43
V766
p129
sbag1
(g2
g3
NtRp130
(dp131
g49
V10.1006/scdb.2000.0211
p132
sg45
VSEMIN CELL DEV BIOL
p133
sg47
V12
p134
sg76
(lp135
(VBOOTMAN
VM D
tp136
asg55
I2001
sg43
V3
sbag1
(g2
g3
NtRp137
(dp138
g49
V10.1007/BF00018452
p139
sg45
VPLANT MOL BIOL
p140
sg47
V18
p141
sg76
(lp142
(VGILMOUR
VS J
tp143
asg55
I1992
sg43
VLANT
p144
sbag1
(g2
g3
NtRp145
(dp146
g49
V10.1038/346769a0
p147
sg45
VNATURE
p148
sg47
V346
p149
sg76
(lp150
(VGILROY
VS
tp151
asg55
I1990
sg43
V769
p152
sbag1
(g2
g3
NtRp153
(dp154
g49
V10.1016/0955-0674(95)80033-6
p155
sg45
VCURR OPIN CELL BIOL
p156
sg47
V7
sg76
(lp157
(VGIRAUDAT
VJ
tp158
asg55
I1995
sg43
V232
p159
sbag1
(g2
g3
NtRp160
(dp161
g49
Nsg45
VJ BONE MINER RES
p162
sg47
V8
sg76
(lp163
(VGROSSE
VB
tp164
asg55
I1993
sg43
V1059
p165
sbag1
(g2
g3
NtRp166
(dp167
g49
Nsg45
VNATURE
p168
sg47
V408
p169
sg76
(lp170
(VHERMOSURA
VM C
tp171
asg55
I2000
sg43
V735
p172
sbag1
(g2
g3
NtRp173
(dp174
g49
Nsg45
VPLANT CELL
p175
sg47
V8
sg76
(lp176
(VKNIGHT
VH
tp177
asg55
I1996
sg43
VLANT
p178
sbag1
(g2
g3
NtRp179
(dp180
g49
Nsg45
VPLANT CELL
p181
sg47
V11
p182
sg76
(lp183
(VKNIGHT
VH
tp184
asg55
I1999
sg43
VLANT
p185
sbag1
(g2
g3
NtRp186
(dp187
g49
Nsg45
VPLANT PHYSIOL
p188
sg47
V110
p189
sg76
(lp190
(VLEE
VY S
tp191
asg55
I1996
sg43
VLANT
p192
sbag1
(g2
g3
NtRp193
(dp194
g49
V10.1073/pnas.140217497
p195
sg45
VP NATL ACAD SCI USA
p196
sg47
V97
p197
sg76
(lp198
(VLEMTIRI-CHLIEH
VF
tp199
asg55
I2000
sg43
V8687
p200
sbag1
(g2
g3
NtRp201
(dp202
g49
Nsg45
VJ MEMBRANE BIOL
p203
sg47
V137
p204
sg76
(lp205
(VLEMTIRICHLIEH
VF
tp206
asg55
I1994
sg43
V99
p207
sbag1
(g2
g3
NtRp208
(dp209
g49
V10.1098/rstb.1998.0303
p210
sg45
VPHILOS T ROY SOC B
p211
sg47
V353
p212
sg76
(lp213
(VMACROBBIE
VE A C
tp214
asg55
I1998
sg43
VHILOS
p215
sbag1
(g2
g3
NtRp216
(dp217
g49
V10.1042/0300-5127:0280476
p218
sg45
VBIOCHEM SOC T
p219
sg47
V28
p220
sg76
(lp221
(VMCAINSH
VM R
tp222
asg55
I2000
sg43
V476
p223
sbag1
(g2
g3
NtRp224
(dp225
g49
V10.1104/pp.125.3.1499
p226
sg45
VPLANT PHYSIOL
p227
sg47
V125
p228
sg76
(lp229
(VPERERA
VI K
tp230
asg55
I2001
sg43
VLANT
p231
sbag1
(g2
g3
NtRp232
(dp233
g49
V10.1073/pnas.96.10.5838
p234
sg45
VP NATL ACAD SCI USA
p235
sg47
V96
p236
sg76
(lp237
(VPERERA
VI Y
tp238
asg55
I1999
sg43
V5838
p239
sbag1
(g2
g3
NtRp240
(dp241
g49
V10.1105/tpc.13.5.1143
p242
sg45
VPLANT CELL
p243
sg47
V13
p244
sg76
(lp245
(VSANCHEZ
VJ P
tp246
asg55
I2001
sg43
VLANT
p247
sbag1
(g2
g3
NtRp248
(dp249
g49
V10.1038/35066500
p250
sg45
VNATURE
p251
sg47
V410
p252
sg76
(lp253
(VSCHROEDER
VJ I
tp254
asg55
I2001
sg43
V327
p255
sbag1
(g2
g3
NtRp256
(dp257
g49
V10.1146/annurev.arplant.52.1.627
p258
sg45
VANNU REV PLANT PHYS
p259
sg47
V52
p260
sg76
(lp261
(VSCHROEDER
VJ I
tp262
asg55
I2001
sg43
V627
p263
sbag1
(g2
g3
NtRp264
(dp265
g49
V10.1038/358753a0
p266
sg45
VNATURE
p267
sg47
V358
p268
sg76
(lp269
(VSHACKLOCK
VP S
tp270
asg55
I1992
sg43
V753
p271
sbag1
(g2
g3
NtRp272
(dp273
g49
V10.1073/pnas.96.4.1779
p274
sg45
VP NATL ACAD SCI USA
p275
sg47
V96
p276
sg76
(lp277
(VSTAXEN
VI
tp278
asg55
I1999
sg43
V1779
p279
sbag1
(g2
g3
NtRp280
(dp281
g49
V10.1016/S1360-1385(00)01739-8
p282
sg45
VTRENDS PLANT SCI
p283
sg47
V5
sg76
(lp284
(VSTEVENSON
VJ M
tp285
asg55
I2000
sg43
V357
p286
sbag1
(g2
g3
NtRp287
(dp288
g49
V10.1016/S0960-9822(01)00192-0
p289
sg45
VCURR BIOL
p290
sg47
V11
p291
sg76
(lp292
(VTAYLOR
VC W
tp293
asg55
I2001
sg43
VR352
p294
sbag1
(g2
g3
NtRp295
(dp296
g49
V10.1046/j.1365-313X.2001.01032.x
p297
sg45
VPLANT J
p298
sg47
V26
p299
sg76
(lp300
(VWEBB
VA A R
tp301
asg55
I2001
sg43
VLANT
p302
sbag1
(g2
g3
NtRp303
(dp304
g49
V10.1126/science.278.5346.2126
p305
sg45
VSCIENCE
p306
sg47
V278
p307
sg76
(lp308
(VWU
VY
tp309
asg55
I1997
sg43
V2126
p310
sbag1
(g2
g3
NtRp311
(dp312
g49
V10.1101/gad.891901
p313
sg45
VGENE DEV
p314
sg47
V15
p315
sg76
(lp316
(VXIONG
VL M
tp317
asg55
I2001
sg43
V1971
p318
sbasb.