ccopy_reg
_reconstructor
p1
(ctethne.classes.paper
Paper
p2
c__builtin__
object
p3
NtRp4
(dp5
S'publisherCity'
p6
VROCKVILLE
p7
sS'reprintAddress'
p8
VBrumer, H (reprint author), AlbaNova Univ Ctr, Sch Biotechnol, Royal Inst Technol, KTH, SE-10691 Stockholm, Sweden.
p9
sS'WC'
p10
VPlant Sciences
p11
sS'GA'
p12
V528KK
p13
sS'FX'
p14
(lp15
VThis work was supported by grants from the Swedish Foundation for
p16
aVStrategic Research, the Swedish Research Council, and the Knut and Alice
p17
aVWallenberg Foundation. A. B. was the recipient of COST 50 STSM. M. B.
p18
aVwas the recipient of predoctoral funding from the KTH Biofiber Material
p19
aVCentre. H. B. is a Special Research Fellow (Radsforskare) of the Swedish
p20
aVResearch Council.
p21
asS'abstract'
p22
VThere currently exists a diverse array of molecular probes for the in situ localization of polysaccharides, nucleic acids, and proteins in plant cells, including reporter enzyme strategies (e. g. protein-glucuronidase fusions). In contrast, however, there is a paucity of methods for the direct analysis of endogenous glycoside hydrolases and transglycosidases responsible for cell wall remodeling. To exemplify the potential of fluorogenic resorufin glycosides to address this issue, a resorufin beta-glycoside of a xylogluco-oligosaccharide (XXXG-beta-Res) was synthesized as a specific substrate for in planta analysis of XEH activity. The resorufin aglycone is particularly distinguished for high sensitivity in muro assays due to a low pK(a) (5.8) and large extinction coefficient (epsilon 62,000 M-1 cm(-1)), long-wavelength fluorescence (excitation 571 nm/emission 585 nm), and high quantum yield (0.74) of the corresponding anion. In vitro analyses demonstrated that XXXG-beta-Res is hydrolyzed by the archetypal plant XEH, nasturtium (Tropaeolum majus) NXG1, with classical Michaelis-Menten substrate saturation kinetics and a linear dependence on both enzyme concentration and incubation time. Further, XEH activity could be visualized in real time by observing the localized increase in fluorescence in germinating nasturtium seeds and Arabidopsis (Arabidopsis thaliana) inflorescent stems by confocal microscopy. Importantly, this new in situ XEH assay provides an essential complement to the in situ xyloglucan endotransglycosylase assay, thus allowing delineation of the disparate activities encoded by xyloglucan endotransglycosylase/hydrolase genes directly in plant tissues. The observation that XXXG-beta-Res is also hydrolyzed by diverse microbial XEHs indicates that this substrate, and resorufin glycosides in general, may find broad applicability for the analysis of wall restructuring by polysaccharide hydrolases during morphogenesis and plant-microbe interactions.
p23
sS'pageEnd'
p24
I1750
sS'date'
p25
I2009
sS'documentType'
p26
VArticle
p27
sS'subject'
p28
VPlant Sciences
p29
sS'isoSource'
p30
VPlant Physiol.
p31
sS'timesCited'
p32
(lp33
I8
aVZ9 8
p34
asS'funding'
p35
(lp36
(VSwedish Foundation for Strategic Research
Ntp37
a(VSwedish Research Council
Ntp38
a(VKnut and Alice Wallenberg Foundation
Ntp39
a(VKTH Biofiber Material Centre
Ntp40
asS'PT'
p41
VJ
sS'title'
p42
VA Real-Time Fluorogenic Assay For The Visualization Of Glycoside Hydrolase Activity In Planta
p43
sS'ISSN'
p44
(lp45
V0032-0889
p46
aVJ9 PLANT PHYSIOL
p47
asS'authors_full'
p48
(lp49
(VIBATULLIN
VFARID M
tp50
a(VBANASIAK
VALICJA
tp51
a(VBAUMANN
VMARTIN J
tp52
a(VGREFFE
VLIONEL
tp53
a(VTAKAHASHI
VJUNKO
tp54
a(VMELLEROWICZ
VEWA J
tp55
a(VBRUMER
VHARRY
tp56
asS'PG'
p57
I10
sS'PD'
p58
VDEC
p59
sS'pageStart'
p60
I1741
sS'issue'
p61
I4
sS'journal'
p62
VPLANT PHYSIOLOGY
p63
sS'volume'
p64
V151
p65
sS'doi'
p66
V10.1104/pp.109.147439
p67
sS'emailAddress'
p68
Vharry@biotech.kth.se
p69
sS'authorAddress'
p70
(lp71
V[Ibatullin, Farid M.; Baumann, Martin J.; Greffe, Lionel; Brumer, Harry] AlbaNova Univ Ctr, Sch Biotechnol, Royal Inst Technol, KTH, SE-10691 Stockholm, Sweden.
p72
aV[Ibatullin, Farid M.] Russian Acad Sci, Petersburg Nucl Phys Inst, Mol & Radiat Biol Div, St Petersburg 188300, Russia.
p73
aV[Banasiak, Alicja; Takahashi, Junko; Mellerowicz, Ewa J.] Umea Plant Sci Ctr, SLU, Dept Forest Genet & Plant Physiol, S-90183 Umea, Sweden.
p74
aV[Banasiak, Alicja] Univ Wroclaw, Inst Plant Biol, PL-50328 Wroclaw, Poland.
p75
asS'publisherAddress'
p76
V15501 MONONA DRIVE, ROCKVILLE, MD 20855 USA
p77
sS'ER'
p78
V
sS'publisher'
p79
VAMER SOC PLANT BIOLOGISTS
p80
sS'authorKeywords'
p81
(lp82
VXYLOGLUCAN ENDO-TRANSGLYCOSYLASE
p83
aVTRANSFER-CATALYZED SYNTHESIS
p84
aVSINGLE-ENZYME MOLECULES
p85
aVBETA-D-GLUCOPYRANOSIDES
p86
aVCELL-WALL METABOLISM
p87
aVSTRUCTURAL-ANALYSIS
p88
aVIN-VIVO
p89
aVPOLYSACCHARIDE DEGRADATION
p90
aVPH REGULATION
p91
aVOLIGOSACCHARIDES
p92
asS'language'
p93
VEnglish
p94
sS'wosid'
p95
VWOS:000272443500004
p96
sS'citationCount'
p97
I57
sS'authors_init'
p98
(lp99
(VIBATULLIN
VF M
tp100
a(VBANASIAK
VA
tp101
a(VBAUMANN
VM J
tp102
a(VGREFFE
VL
tp103
a(VTAKAHASHI
VJ
tp104
a(VMELLEROWICZ
VE J
tp105
a(VBRUMER
VH
tp106
asS'citedReferences'
p107
(lp108
g1
(g2
g3
NtRp109
(dp110
g66
V10.1105/tpc.107.051391
p111
sg62
VPLANT CELL
p112
sg64
V19
p113
sg98
(lp114
(VBAUMANN
VM J
tp115
asg25
I2007
sg60
VLANT
p116
sbag1
(g2
g3
NtRp117
(dp118
g66
Nsg62
VTHESIS ROYAL I TECHN
p119
sg64
Nsg98
(lp120
(VBAUMANN
VM J
tp121
asg25
I2004
sg60
Nsbag1
(g2
g3
NtRp122
(dp123
g66
V10.1007/s11103-006-0021-z
p124
sg62
VPLANT MOL BIOL
p125
sg64
V61
p126
sg98
(lp127
(VBECNEL
VJ
tp128
asg25
I2006
sg60
VLANT
p129
sbag1
(g2
g3
NtRp130
(dp131
g66
V10.1042/0300-5127:0280773
p132
sg62
VBIOCHEM SOC T
p133
sg64
V28
p134
sg98
(lp135
(VBEISSON
VF
tp136
asg25
I2000
sg60
V773
p137
sbag1
(g2
g3
NtRp138
(dp139
g66
V10.1016/S0091-679X(08)85008-X
p140
sg62
VMETHOD CELL BIOL
p141
sg64
V85
p142
sg98
(lp143
(VBERG
VR H
tp144
asg25
I2008
sg60
V153
p145
sbag1
(g2
g3
NtRp146
(dp147
g66
V10.1105/tpc.007773
p148
sg62
VPLANT CELL
p149
sg64
V14
p150
sg98
(lp151
(VBOURQUIN
VV
tp152
asg25
I2002
sg60
VLANT
p153
sbag1
(g2
g3
NtRp154
(dp155
g66
V10.1562/0031-8655(2002)076<0385:TESIOR>2.0.CO;2
p156
sg62
VPhotochemistry and Photobiology
p157
sg64
V76
p158
sg98
(lp159
(VBUENO
VC
tp160
asg25
I2002
sg60
Vhotochemistry
p161
sbag1
(g2
g3
NtRp162
(dp163
g66
V10.1074/jbc.M804274200
p164
sg62
VJ BIOL CHEM
p165
sg64
V283
p166
sg98
(lp167
(VCABIB
VE
tp168
asg25
I2008
sg60
V29859
p169
sbag1
(g2
g3
NtRp170
(dp171
g66
V10.1093/nar/gkn663
p172
sg62
VNUCLEIC ACIDS RES
p173
sg64
V37
p174
sg98
(lp175
(VCANTAREL
VB L
tp176
asg25
I2009
sg60
VD233
p177
sbag1
(g2
g3
NtRp178
(dp179
g66
V10.1016/j.plantsci.2007.04.009
p180
sg62
VPLANT SCI
p181
sg64
V173
p182
sg98
(lp183
(VCHANTARANGSEE
VM
tp184
asg25
I2007
sg60
VLANT
p185
sbag1
(g2
g3
NtRp186
(dp187
g66
V10.1016/j.pbi.2005.09.011
p188
sg62
VCURR OPIN PLANT BIOL
p189
sg64
V8
sg98
(lp190
(VCHAPMAN
VS
tp191
asg25
I2005
sg60
V565
p192
sbag1
(g2
g3
NtRp193
(dp194
g66
V10.1016/j.ab.2007.08.027
p195
sg62
VANAL BIOCHEM
p196
sg64
V371
p197
sg98
(lp198
(VCOLEMAN
VD J
tp199
asg25
I2007
sg60
V146
p200
sbag1
(g2
g3
NtRp201
(dp202
g66
V10.1038/nrm1746
p203
sg62
VNAT REV MOL CELL BIO
p204
sg64
V6
sg98
(lp205
(VCOSGROVE
VD J
tp206
asg25
I2005
sg60
V850
p207
sbag1
(g2
g3
NtRp208
(dp209
g66
Nsg62
VSYNTHESIS
p210
sg64
Nsg98
(lp211
(VDESS
VD
tp212
asg25
I1981
sg60
V883
p213
sbag1
(g2
g3
NtRp214
(dp215
g66
Nsg62
VJ BIOL CHEM
p216
sg64
V261
p217
sg98
(lp218
(VEDWARDS
VM
tp219
asg25
I1986
sg60
V9489
p220
sbag1
(g2
g3
NtRp221
(dp222
g66
V10.1016/j.pbi.2003.09.014
p223
sg62
VCURR OPIN PLANT BIOL
p224
sg64
V6
sg98
(lp225
(VEHRHARDT
VD
tp226
asg25
I2003
sg60
V622
p227
sbag1
(g2
g3
NtRp228
(dp229
g66
V10.1038/nchembio759
p230
sg62
VNAT CHEM BIOL
p231
sg64
V2
sg98
(lp232
(VENGLISH
VB P
tp233
asg25
I2006
sg60
V87
p234
sbag1
(g2
g3
NtRp235
(dp236
g66
V10.1105/tpc.13.4.907
p237
sg62
VPLANT CELL
p238
sg64
V13
p239
sg98
(lp240
(VFASANO
VJ M
tp241
asg25
I2001
sg60
VLANT
p242
sbag1
(g2
g3
NtRp243
(dp244
g66
V10.1021/jo0525682
p245
sg62
VJ ORG CHEM
p246
sg64
V71
p247
sg98
(lp248
(VFAURE
VR
tp249
asg25
I2006
sg60
V5151
p250
sbag1
(g2
g3
NtRp251
(dp252
g66
V10.1093/aob/mci207
p253
sg62
VANN BOT
p254
sg64
V96
p255
sg98
(lp256
(VFELLE
VH H
tp257
asg25
I2005
sg60
V519
p258
sbag1
(g2
g3
NtRp259
(dp260
g66
Nsg62
VPHYSIOL PLANTARUM
p261
sg64
V89
p262
sg98
(lp263
(VFRY
VS C
tp264
asg25
I1993
sg60
VHYSIOL
p265
sbag1
(g2
g3
NtRp266
(dp267
g66
V10.1016/j.ab.2006.11.034
p268
sg62
VANAL BIOCHEM
p269
sg64
V362
p270
sg98
(lp271
(VGE
VY
tp272
asg25
I2007
sg60
V63
p273
sbag1
(g2
g3
NtRp274
(dp275
g66
V10.1016/j.pbi.2008.03.004
p276
sg62
VCURR OPIN PLANT BIOL
p277
sg64
V11
p278
sg98
(lp279
(VGILBERT
VH J
tp280
asg25
I2008
sg60
V338
p281
sbag1
(g2
g3
NtRp282
(dp283
g66
V10.1074/jbc.M700224200
p284
sg62
VJ BIOL CHEM
p285
sg64
V282
p286
sg98
(lp287
(VGLOSTER
VT M
tp288
asg25
I2007
sg60
V19177
p289
sbag1
(g2
g3
NtRp290
(dp291
g66
V10.1073/pnas.0705411104
p292
sg62
VP NATL ACAD SCI USA
p293
sg64
V104
p294
sg98
(lp295
(VGORRIS
VH H
tp296
asg25
I2007
sg60
V17680
p297
sbag1
(g2
g3
NtRp298
(dp299
g66
V10.1093/glycob/cwi013
p300
sg62
VGLYCOBIOLOGY
p301
sg64
V15
p302
sg98
(lp303
(VGREFFE
VL
tp304
asg25
I2005
sg60
V437
p305
sbag1
(g2
g3
NtRp306
(dp307
g66
V10.1002/hep.510280121
p308
sg62
VHEPATOLOGY
p309
sg64
V28
p310
sg98
(lp311
(VHAYS
VW S
tp312
asg25
I1998
sg60
V156
p313
sbag1
(g2
g3
NtRp314
(dp315
g66
V10.1016/S0014-5793(98)00265-8
p316
sg62
VFEBS LETT
p317
sg64
V425
p318
sg98
(lp319
(VHENRISSAT
VB
tp320
asg25
I1998
sg60
V352
p321
sbag1
(g2
g3
NtRp322
(dp323
g66
V10.1016/j.carres.2005.04.016
p324
sg62
VCARBOHYD RES
p325
sg64
V340
p326
sg98
(lp327
(VHOFFMAN
VM
tp328
asg25
I2005
sg60
V1826
p329
sbag1
(g2
g3
NtRp330
(dp331
g66
V10.1021/bi8009168
p332
sg62
VBIOCHEMISTRY
p333
sg64
V47
p334
sg98
(lp335
(VIBATULLIN
VF M
tp336
asg25
I2008
sg60
V7762
p337
sbag1
(g2
g3
NtRp338
(dp339
g66
Nsg62
VEMBO J
p340
sg64
V6
sg98
(lp341
(VJEFFERSON
VR A
tp342
asg25
I1987
sg60
V3901
p343
sbag1
(g2
g3
NtRp344
(dp345
g66
V10.1002/(SICI)1098-2825(1997)11:1<2::AID-JCLA2>3.0.CO;2-F
p346
sg62
VJ CLIN LAB ANAL
p347
sg64
V11
p348
sg98
(lp349
(VJIN
VL
tp350
asg25
I1997
sg60
V2
sbag1
(g2
g3
NtRp351
(dp352
g66
V10.1105/tpc.020065
p353
sg62
VPLANT CELL
p354
sg64
V16
p355
sg98
(lp356
(VJOHANSSON
VP
tp357
asg25
I2004
sg60
VLANT
p358
sbag1
(g2
g3
NtRp359
(dp360
g66
V10.1042/BJ20041749
p361
sg62
VBIOCHEM J
p362
sg64
V390
p363
sg98
(lp364
(VKALLAS
VA M
tp365
asg25
I2005
sg60
V105
p366
sbag1
(g2
g3
NtRp367
(dp368
g66
V10.1016/0008-6215(85)85036-9
p369
sg62
VCARBOHYD RES
p370
sg64
V142
p371
sg98
(lp372
(VKLEINE
VH P
tp373
asg25
I1985
sg60
V333
p374
sbag1
(g2
g3
NtRp375
(dp376
g66
V10.1016/j.pbi.2008.03.001
p377
sg62
VCURR OPIN PLANT BIOL
p378
sg64
V11
p379
sg98
(lp380
(VKNOX
VJ P
tp381
asg25
I2008
sg60
V308
p382
sbag1
(g2
g3
NtRp383
(dp384
g66
V10.1016/j.pbi.2008.02.010
p385
sg62
VCURR OPIN PLANT BIOL
p386
sg64
V11
p387
sg98
(lp388
(VLOPEZ-CASADO
VG
tp389
asg25
I2008
sg60
V329
p390
sbag1
(g2
g3
NtRp391
(dp392
g66
V10.1105/tpc.107.050179
p393
sg62
VPLANT CELL
p394
sg64
V19
p395
sg98
(lp396
(VMACQUET
VA
tp397
asg25
I2007
sg60
VLANT
p398
sbag1
(g2
g3
NtRp399
(dp400
g66
V10.1093/aob/mcn170
p401
sg62
VANN BOT
p402
sg64
V102
p403
sg98
(lp404
(VMELLEROWICZ
VE J
tp405
asg25
I2008
sg60
V659
p406
sbag1
(g2
g3
NtRp407
(dp408
g66
V10.1016/j.plaphy.2006.08.001
p409
sg62
VPLANT PHYSIOL BIOCH
p410
sg64
V44
p411
sg98
(lp412
(VMINIC
VZ
tp413
asg25
I2006
sg60
VLANT
p414
sbag1
(g2
g3
NtRp415
(dp416
g66
V10.1104/pp.119.2.385
p417
sg62
VPLANT PHYSIOL
p418
sg64
V119
p419
sg98
(lp420
(VMONROE
VJ D
tp421
asg25
I1999
sg60
VLANT
p422
sbag1
(g2
g3
NtRp423
(dp424
g66
V10.1016/j.pbi.2008.06.006
p425
sg62
VCURR OPIN PLANT BIOL
p426
sg64
V11
p427
sg98
(lp428
(VNELSON
VT
tp429
asg25
I2008
sg60
V567
p430
sbag1
(g2
g3
NtRp431
(dp432
g66
V10.1093/pcp/pcm055
p433
sg62
VPLANT CELL PHYSIOL
p434
sg64
V48
p435
sg98
(lp436
(VNISHIKUBO
VN
tp437
asg25
I2007
sg60
VLANT
p438
sbag1
(g2
g3
NtRp439
(dp440
g66
V10.1016/S0008-6215(00)90411-7
p441
sg62
VCARBOHYD RES
p442
sg64
V145
p443
sg98
(lp444
(VONEILL
VM A
tp445
asg25
I1985
sg60
V45
p446
sbag1
(g2
g3
NtRp447
(dp448
g66
V10.1046/j.1365-313X.2003.01696.x
p449
sg62
VPLANT J
p450
sg64
V33
p451
sg98
(lp452
(VPARK
VY W
tp453
asg25
I2003
sg60
VLANT
p454
sbag1
(g2
g3
NtRp455
(dp456
g66
V10.1093/pcp/pcf171
p457
sg62
VPLANT CELL PHYSIOL
p458
sg64
V43
p459
sg98
(lp460
(VROSE
VJ K C
tp461
asg25
I2002
sg60
VLANT
p462
sbag1
(g2
g3
NtRp463
(dp464
g66
V10.1016/j.tplants.2005.06.003
p465
sg62
VTRENDS PLANT SCI
p466
sg64
V10
p467
sg98
(lp468
(VSTEWART
VC N
tp469
asg25
I2005
sg60
V390
p470
sbag1
(g2
g3
NtRp471
(dp472
g66
V10.1093/pcp/pcp062
p473
sg62
VPLANT CELL PHYSIOL
p474
sg64
V50
p475
sg98
(lp476
(VTAKAHASHI
VJ
tp477
asg25
I2009
sg60
VLANT
p478
sbag1
(g2
g3
NtRp479
(dp480
g66
Nsg62
VCHEM PHARM BULL
p481
sg64
V38
p482
sg98
(lp483
(VTOKUTAKE
VS
tp484
asg25
I1990
sg60
V3466
p485
sbag1
(g2
g3
NtRp486
(dp487
g66
V10.1002/jsfa.2837
p488
sg62
VJ SCI FOOD AGR
p489
sg64
V87
p490
sg98
(lp491
(VVICENTE
VA R
tp492
asg25
I2007
sg60
V1435
p493
sbag1
(g2
g3
NtRp494
(dp495
g66
V10.1105/tpc.12.7.1229
p496
sg62
VPLANT CELL
p497
sg64
V12
p498
sg98
(lp499
(VVISSENBERG
VK
tp500
asg25
I2000
sg60
VLANT
p501
sbag1
(g2
g3
NtRp502
(dp503
g66
V10.1093/jxb/eri048
p504
sg62
VJ EXP BOT
p505
sg64
V56
p506
sg98
(lp507
(VVISSENBERG
VK
tp508
asg25
I2005
sg60
V673
p509
sbag1
(g2
g3
NtRp510
(dp511
g66
V10.1016/j.carres.2007.11.011
p512
sg62
VCARBOHYD RES
p513
sg64
V343
p514
sg98
(lp515
(VVRSANSKA
VM
tp516
asg25
I2008
sg60
V541
p517
sbag1
(g2
g3
NtRp518
(dp519
g66
V10.1093/jexbot/52.356.565
p520
sg62
VJ EXP BOT
p521
sg64
V52
p522
sg98
(lp523
(VWALKER
VR P
tp524
asg25
I2001
sg60
V565
p525
sbag1
(g2
g3
NtRp526
(dp527
g66
V10.1007/s11104-007-9528-6
p528
sg62
VPLANT SOIL
p529
sg64
V304
p530
sg98
(lp531
(VWEN
VF
tp532
asg25
I2008
sg60
VLANT
p533
sbag1
(g2
g3
NtRp534
(dp535
g66
V10.1002/cyto.990090418
p536
sg62
VCYTOMETRY
p537
sg64
V9
sg98
(lp538
(VWITTRUP
VK D
tp539
asg25
I1988
sg60
V394
p540
sbag1
(g2
g3
NtRp541
(dp542
g66
V10.1016/0008-6215(93)84135-S
p543
sg62
VCARBOHYD RES
p544
sg64
V248
p545
sg98
(lp546
(VYORK
VW S
tp547
asg25
I1993
sg60
V285
p548
sbasb.