ccopy_reg
_reconstructor
p1
(ctethne.classes.paper
Paper
p2
c__builtin__
object
p3
NtRp4
(dp5
S'publisherCity'
p6
VROCKVILLE
p7
sS'reprintAddress'
p8
VRamina, A (reprint author), Univ Padua, Dept Environm Agron & Crop Sci, I-35020 Legnaro, Italy.
p9
sS'WC'
p10
VPlant Sciences
p11
sS'GA'
p12
V701QV
p13
sS'FX'
p14
(lp15
VThis work was supported by the European Commission (ISA-FRUIT project
p16
aVcontract no. FP6-FOOD-CT-2006-016279) under the Thematic Priority 5:
p17
aVFood Quality and Safety of the 6th Framework Programme of Research and
p18
aVTechnological Development.
p19
asS'abstract'
p20
VApple (Malus x domestica) represents an interesting model tree crop for studying fruit abscission. The physiological fruitlet drop occurring in this species can be easily magnified by using thinning chemicals, such as benzyladenine (BA), to obtain fruits with improved quality and marketability. Despite the economic importance of this process, the molecular determinants of apple fruitlet abscission are still unknown. In this research, BA was used to obtain fruitlet populations with different abscission potentials to be analyzed by means of a newly released 30K oligonucleotide microarray. RNAs were extracted from cortex and seed of apple fruitlets sampled over a 4-d time course, during which BA triggers fruit drop, and used for microarray hybridization. Transcriptomic profiles of persisting and abscising fruitlets were tested for statistical association with abscission potential, allowing us to identify molecular signatures strictly related to fruit destiny. A hypothetical model for apple fruitlet abscission was obtained by putting together available transcriptomic and metabolomic data. According to this model, BA treatment would establish a nutritional stress within the tree that is primarily perceived by the fruitlet cortex whose growth is blocked by resembling the ovary growth inhibition found in other species. In weaker fruits, this stress is soon visible also at the seed level, likely transduced via reactive oxygen species/sugar and hormones signaling cross talk, and followed by a block of embryogenesis and the consequent activation of the abscission zone.
p21
sS'pageEnd'
p22
I208
sS'date'
p23
I2011
sS'documentType'
p24
VArticle
p25
sS'subject'
p26
VPlant Sciences
p27
sS'isoSource'
p28
VPlant Physiol.
p29
sS'timesCited'
p30
(lp31
I19
aVZ9 19
p32
asS'funding'
p33
(lp34
(VEuropean Commission
VFP6-FOOD-CT-2006-016279
tp35
asS'PT'
p36
VJ
sS'title'
p37
VSignaling Pathways Mediating The Induction Of Apple Fruitlet Abscission
p38
sS'ISSN'
p39
(lp40
V0032-0889
p41
aVJ9 PLANT PHYSIOL
p42
asS'authors_full'
p43
(lp44
(VBOTTON
VALESSANDRO
tp45
a(VECCHER
VGIULIA
tp46
a(VFORCATO
VCLAUDIO
tp47
a(VFERRARINI
VALBERTO
tp48
a(VBEGHELDO
VMAURA
tp49
a(VZERMIANI
VMONICA
tp50
a(VMOSCATELLO
VSTEFANO
tp51
a(VBATTISTELLI
VALBERTO
tp52
a(VVELASCO
VRICCARDO
tp53
a(VRUPERTI
VBENEDETTO
tp54
a(VRAMINA
VANGELO
tp55
asS'PG'
p56
I24
sS'PD'
p57
VJAN
p58
sS'pageStart'
p59
I185
sS'issue'
p60
I1
sS'RI'
p61
VBotton, Alessandro/C-4164-2008; Ferrarini, Alberto/G-4517-2012
p62
sS'journal'
p63
VPLANT PHYSIOLOGY
p64
sS'volume'
p65
V155
p66
sS'doi'
p67
V10.1104/pp.110.165779
p68
sS'emailAddress'
p69
Vangelo.ramina@unipd.it
p70
sS'authorAddress'
p71
(lp72
V[Botton, Alessandro; Eccher, Giulia; Forcato, Claudio; Begheldo, Maura; Zermiani, Monica; Ruperti, Benedetto; Ramina, Angelo] Univ Padua, Dept Environm Agron & Crop Sci, I-35020 Legnaro, Italy.
p73
aV[Ferrarini, Alberto] Univ Verona, Dept Biotechnol, I-37134 Verona, Italy.
p74
aV[Moscatello, Stefano; Battistelli, Alberto] CNR, Inst Agroenvironm & Forest Biol, I-05010 Porano, Italy.
p75
aV[Velasco, Riccardo] Edmund Mach Fdn, Ist Agr San Michele AllAdige, Res & Innovat Ctr, I-38010 San Michele All Adige, Italy.
p76
asS'publisherAddress'
p77
V15501 MONONA DRIVE, ROCKVILLE, MD 20855 USA
p78
sS'ER'
p79
V
sS'publisher'
p80
VAMER SOC PLANT BIOLOGISTS
p81
sS'authorKeywords'
p82
(lp83
VDOMESTICA L. BORKH
p84
aVALLERGEN-ENCODING GENES
p85
aVEXPRESSED SEQUENCE TAGS
p86
aVTIME RT-PCR
p87
aVARABIDOPSIS-THALIANA
p88
aVPLANT DEFENSE
p89
aVTRANSCRIPTION FACTORS
p90
aVOXIDATIVE STRESS
p91
aVLEAF SENESCENCE
p92
aVETHYLENE BIOSYNTHESIS
p93
asS'OI'
p94
VFerrarini, Alberto/0000-0002-8452-3380
p95
sS'language'
p96
VEnglish
p97
sS'wosid'
p98
VWOS:000285838300022
p99
sS'citationCount'
p100
I125
sS'authors_init'
p101
(lp102
(VBOTTON
VA
tp103
a(VECCHER
VG
tp104
a(VFORCATO
VC
tp105
a(VFERRARINI
VA
tp106
a(VBEGHELDO
VM
tp107
a(VZERMIANI
VM
tp108
a(VMOSCATELLO
VS
tp109
a(VBATTISTELLI
VA
tp110
a(VVELASCO
VR
tp111
a(VRUPERTI
VB
tp112
a(VRAMINA
VA
tp113
asS'citedReferences'
p114
(lp115
g1
(g2
g3
NtRp116
(dp117
g67
V10.1093/jxb/erm111
p118
sg63
VJ EXP BOT
p119
sg65
V58
p120
sg101
(lp121
(VALFEREZ
VF
tp122
asg23
I2007
sg59
V2451
p123
sbag1
(g2
g3
NtRp124
(dp125
g67
V10.1093/jxb/ern277
p126
sg63
VJ EXP BOT
p127
sg65
V60
p128
sg101
(lp129
(VALMAGRO
VL
tp130
asg23
I2009
sg59
V377
p131
sbag1
(g2
g3
NtRp132
(dp133
g67
V10.1016/0304-4238(95)00852-7
p134
sg63
VSCI HORTIC
p135
sg65
V65
p136
sg101
(lp137
(VANTOGNOZZI
VE
tp138
asg23
I1996
sg59
V37
p139
sbag1
(g2
g3
NtRp140
(dp141
g67
V10.1104/pp.104.052084
p142
sg63
VPLANT PHYSIOL
p143
sg65
V136
p144
sg101
(lp145
(VAVONCE
VN
tp146
asg23
I2004
sg59
VLANT
p147
sbag1
(g2
g3
NtRp148
(dp149
g67
V10.1111/j.1365-313X.2008.03782.x
p150
sg63
VPLANT J
p151
sg65
V58
p152
sg101
(lp153
(VAY
VN
tp154
asg23
I2009
sg59
VLANT
p155
sbag1
(g2
g3
NtRp156
(dp157
g67
V10.1023/A:1010742721004
p158
sg63
VPLANT GROWTH REGUL
p159
sg65
V32
p160
sg101
(lp161
(VBANGERTH
VF
tp162
asg23
I2000
sg59
VLANT
p163
sbag1
(g2
g3
NtRp164
(dp165
g67
Nsg63
VPLANT GROWTH REGUL
p166
sg65
V31
p167
sg101
(lp168
(VBANGERTH
VF
tp169
asg23
I2000
sg59
VLANT
p170
sbag1
(g2
g3
NtRp171
(dp172
g67
VDOI 10.1199/TAB.0116
p173
sg63
VARABIDOPSIS BOOK
p174
sg65
V65
p175
sg101
(lp176
(VBASSHAM
VD C
tp177
asg23
I2008
sg59
V1
sbag1
(g2
g3
NtRp178
(dp179
g67
Nsg63
VJ HORTIC SCI BIOTECH
p180
sg65
Nsg101
(lp181
(VBOTTON
VA
tp182
asg23
I2009
sg59
V182
p183
sbag1
(g2
g3
NtRp184
(dp185
g67
V10.1021/jf802709k
p186
sg63
VJ AGR FOOD CHEM
p187
sg65
V57
p188
sg101
(lp189
(VBOTTON
VA
tp190
asg23
I2009
sg59
V724
p191
sbag1
(g2
g3
NtRp192
(dp193
g67
V10.1021/jf800813d
p194
sg63
VJ AGR FOOD CHEM
p195
sg65
V56
p196
sg101
(lp197
(VBOTTON
VA
tp198
asg23
I2008
sg59
V6707
p199
sbag1
(g2
g3
NtRp200
(dp201
g67
V10.1038/ng1201-365
p202
sg63
VNAT GENET
p203
sg65
V29
p204
sg101
(lp205
(VBRAZMA
VA
tp206
asg23
I2001
sg59
V365
p207
sbag1
(g2
g3
NtRp208
(dp209
g67
V10.1111/j.1365-313X.2005.02530.x
p210
sg63
VPLANT J
p211
sg65
V44
p212
sg101
(lp213
(VBRENNER
VW G
tp214
asg23
I2005
sg59
VLANT
p215
sbag1
(g2
g3
NtRp216
(dp217
g67
V10.1023/A:1010785604339
p218
sg63
VPLANT GROWTH REGUL
p219
sg65
V32
p220
sg101
(lp221
(VBUBAN
VT
tp222
asg23
I2000
sg59
VLANT
p223
sbag1
(g2
g3
NtRp224
(dp225
g67
V10.1073/pnas.94.11.5961
p226
sg63
VP NATL ACAD SCI USA
p227
sg65
V94
p228
sg101
(lp229
(VBUTTNER
VM
tp230
asg23
I1997
sg59
V5961
p231
sbag1
(g2
g3
NtRp232
(dp233
g67
V10.1111/j.1365-313X.2008.03401.x
p234
sg63
VPLANT J
p235
sg65
V54
p236
sg101
(lp237
(VCHANG
VC S J
tp238
asg23
I2008
sg59
VLANT
p239
sbag1
(g2
g3
NtRp240
(dp241
g67
V10.1016/j.plantsci.2007.03.012
p242
sg63
VPLANT SCI
p243
sg65
V172
p244
sg101
(lp245
(VCHEN
VI C
tp246
asg23
I2007
sg59
VLANT
p247
sbag1
(g2
g3
NtRp248
(dp249
g67
V10.1007/s004380000354
p250
sg63
VMOL GEN GENET
p251
sg65
V264
p252
sg101
(lp253
(VCHIKANO
VH
tp254
asg23
I2001
sg59
V674
p255
sbag1
(g2
g3
NtRp256
(dp257
g67
Nsg63
VMOL CELLS
p258
sg65
V17
p259
sg101
(lp260
(VCHOI
VJ W
tp261
asg23
I2004
sg59
V237
p262
sbag1
(g2
g3
NtRp263
(dp264
g67
V10.1105/tpc.107.050542
p265
sg63
VPLANT CELL
p266
sg65
V19
p267
sg101
(lp268
(VCHOPIN
VF
tp269
asg23
I2007
sg59
VLANT
p270
sbag1
(g2
g3
NtRp271
(dp272
g67
V10.1104/pp.104.044362
p273
sg63
VPLANT PHYSIOL
p274
sg65
V135
p275
sg101
(lp276
(VCONTENTO
VA L
tp277
asg23
I2004
sg59
VLANT
p278
sbag1
(g2
g3
NtRp279
(dp280
g67
V[10.1093/jxb/ern318, 10.1093/jxb/em318]
p281
sg63
VJ EXP BOT
p282
sg65
V60
p283
sg101
(lp284
(VCOSIO
VC
tp285
asg23
I2009
sg59
V391
p286
sbag1
(g2
g3
NtRp287
(dp288
g67
V10.1093/jxb/erj027
p289
sg63
VJ EXP BOT
p290
sg65
V57
p291
sg101
(lp292
(VCOUEE
VI
tp293
asg23
I2006
sg59
V449
p294
sbag1
(g2
g3
NtRp295
(dp296
g67
V10.1186/1471-2229-9-139
p297
sg63
VBMC PLANT BIOL
p298
sg65
V9
sg101
(lp299
(VDAL
VC I N V
tp300
asg23
I2009
sg59
Nsbag1
(g2
g3
NtRp301
(dp302
g67
V10.1093/jxb/eri296
p303
sg63
VJ EXP BOT
p304
sg65
V56
p305
sg101
(lp306
(VDAL
VC I N V
tp307
asg23
I2005
sg59
V2995
p308
sbag1
(g2
g3
NtRp309
(dp310
g67
V10.1093/aob/mcm062
p311
sg63
VANN BOT
p312
sg65
V99
p313
sg101
(lp314
(VDAL
VC I N V
tp315
asg23
I2007
sg59
V1195
p316
sbag1
(g2
g3
NtRp317
(dp318
g67
V10.1016/j.gene.2009.04.009
p319
sg63
VGENE
p320
sg65
V442
p321
sg101
(lp322
(VDAL
VC I N V
tp323
asg23
I2009
sg59
V26
p324
sbag1
(g2
g3
NtRp325
(dp326
g67
Nsg63
VMOL BIOTECHNOL
p327
sg65
V31
p328
sg101
(lp329
(VDAL
VC I N V
tp330
asg23
I2005
sg59
V113
p331
sbag1
(g2
g3
NtRp332
(dp333
g67
V10.1105/tpc.108.061747
p334
sg63
VPLANT CELL
p335
sg65
V20
p336
sg101
(lp337
(VDATTA
VS
tp338
asg23
I2008
sg59
VLANT
p339
sbag1
(g2
g3
NtRp340
(dp341
g67
V10.1186/1471-2105-6-173
p342
sg63
VBMC BIOINFORMATICS
p343
sg65
V6
sg101
(lp344
(VDEAN
VN
tp345
asg23
I2005
sg59
Nsbag1
(g2
g3
NtRp346
(dp347
g67
V10.1093/bioinformatics/bth078
p348
sg63
VBIOINFORMATICS
p349
sg65
V20
p350
sg101
(lp351
(VDE
VHOON M J L
tp352
asg23
I2004
sg59
V1453
p353
sbag1
(g2
g3
NtRp354
(dp355
g67
V10.1093/jxb/erp094
p356
sg63
VJ EXP BOT
p357
sg65
V60
p358
sg101
(lp359
(VDE
VJONG M
tp360
asg23
I2009
sg59
V1523
p361
sbag1
(g2
g3
NtRp362
(dp363
g67
V10.1104/pp.118.3.885
p364
sg63
VPLANT PHYSIOL
p365
sg65
V118
p366
sg101
(lp367
(VDESVEAUX
VD
tp368
asg23
I1998
sg59
VLANT
p369
sbag1
(g2
g3
NtRp370
(dp371
g67
V10.1023/A:1006301224125
p372
sg63
VPLANT MOL BIOL
p373
sg65
V42
p374
sg101
(lp375
(VDONG
VY H
tp376
asg23
I2000
sg59
VLANT
p377
sbag1
(g2
g3
NtRp378
(dp379
g67
V10.1023/B:PLAN.0000038269.98972.bb
p380
sg63
VPLANT MOL BIOL
p381
sg65
V54
p382
sg101
(lp383
(VDU
VL Q
tp384
asg23
I2004
sg59
VLANT
p385
sbag1
(g2
g3
NtRp386
(dp387
g67
V10.1016/j.pbi.2009.07.013
p388
sg63
VCURR OPIN PLANT BIOL
p389
sg65
V12
p390
sg101
(lp391
(VFONSECA
VS
tp392
asg23
I2009
sg59
V539
p393
sbag1
(g2
g3
NtRp394
(dp395
g67
V10.1042/BJ20031813
p396
sg63
VBIOCHEM J
p397
sg65
V380
p398
sg101
(lp399
(VFREBORTOVA
VJ
tp400
asg23
I2004
sg59
V121
p401
sbag1
(g2
g3
NtRp402
(dp403
g67
V10.1111/j.1365-313X.2004.02171.x
p404
sg63
VPLANT J
p405
sg65
V39
p406
sg101
(lp407
(VFUJITA
VM
tp408
asg23
I2004
sg59
VLANT
p409
sbag1
(g2
g3
NtRp410
(dp411
g67
V10.1105/tpc.5.10.1439
p412
sg63
VPLANT CELL
p413
sg65
V5
sg101
(lp414
(VGILLASPY
VG
tp415
asg23
I1993
sg59
VLANT
p416
sbag1
(g2
g3
NtRp417
(dp418
g67
V10.1105/tpc.104.0318015
p419
sg63
VPLANT CELL
p420
sg65
V17
p421
sg101
(lp422
(VGILLMOR
VC S
tp423
asg23
I2005
sg59
VLANT
p424
sbag1
(g2
g3
NtRp425
(dp426
g67
V10.1105/tpc.019158
p427
sg63
VPLANT CELL
p428
sg65
V16
p429
sg101
(lp430
(VGIOVANNONI
VJ J
tp431
asg23
I2004
sg59
VLANT
p432
sbag1
(g2
g3
NtRp433
(dp434
g67
V10.1093/bioinformatics/btg382
p435
sg63
VBIOINFORMATICS
p436
sg65
V20
p437
sg101
(lp438
(VGOEMAN
VJ J
tp439
asg23
I2004
sg59
V93
p440
sbag1
(g2
g3
NtRp441
(dp442
g67
V10.1105/tpc.105.037192
p443
sg63
VPLANT CELL
p444
sg65
V18
p445
sg101
(lp446
(VGOETZ
VM
tp447
asg23
I2006
sg59
VLANT
p448
sbag1
(g2
g3
NtRp449
(dp450
g67
V10.1111/j.1365-313X.2006.02662.x
p451
sg63
VPLANT J
p452
sg65
V46
p453
sg101
(lp454
(VGOMEZ
VL D
tp455
asg23
I2006
sg59
VLANT
p456
sbag1
(g2
g3
NtRp457
(dp458
g67
Nsg63
VJ AM SOC HORTIC SCI
p459
sg65
V117
p460
sg101
(lp461
(VGREENE
VD W
tp462
asg23
I1992
sg59
V775
p463
sbag1
(g2
g3
NtRp464
(dp465
g67
V10.1105/tpc.107.051938
p466
sg63
VPLANT CELL
p467
sg65
V19
p468
sg101
(lp469
(VHA
VC M
tp470
asg23
I2007
sg59
VLANT
p471
sbag1
(g2
g3
NtRp472
(dp473
g67
V10.1104/pp.105.063461
p474
sg63
VPLANT PHYSIOL
p475
sg65
V139
p476
sg101
(lp477
(VHENRIKSSON
VE
tp478
asg23
I2005
sg59
VLANT
p479
sbag1
(g2
g3
NtRp480
(dp481
g67
V10.1016/j.plaphy.2004.05.001
p482
sg63
VPLANT PHYSIOL BIOCH
p483
sg65
V42
p484
sg101
(lp485
(VHERRERA-RODRIGUEZ
VM B
tp486
asg23
I2004
sg59
VLANT
p487
sbag1
(g2
g3
NtRp488
(dp489
g67
V10.1016/j.colsurfb.2005.07.017
p490
sg63
VColloids Surf B Biointerfaces
p491
sg65
V45
p492
sg101
(lp493
(VHONG-BO
VSHAO
tp494
asg23
I2005
sg59
V131
p495
sbag1
(g2
g3
NtRp496
(dp497
g67
V10.1016/0031-9422(95)98169-H
p498
sg63
VPHYTOCHEMISTRY
p499
sg65
V40
p500
sg101
(lp501
(VHOOKS
VM A
tp502
asg23
I1995
sg59
VHYTOCHEMISTRY
p503
sbag1
(g2
g3
NtRp504
(dp505
g67
V10.1016/j.plantsci.2010.01.005
p506
sg63
VPLANT SCI
p507
sg65
V178
p508
sg101
(lp509
(VHUANG
VS Z
tp510
asg23
I2010
sg59
VLANT
p511
sbag1
(g2
g3
NtRp512
(dp513
g67
Nsg63
VTREE GENET GENOMES
p514
sg65
V6
sg101
(lp515
(VJENSEN
VP J
tp516
asg23
I2009
sg59
V57
p517
sbag1
(g2
g3
NtRp518
(dp519
g67
V10.1105/tpc.13.7.1511
p520
sg63
VPLANT CELL
p521
sg65
V13
p522
sg101
(lp523
(VJIN
VJ B
tp524
asg23
I2001
sg59
VLANT
p525
sbag1
(g2
g3
NtRp526
(dp527
g67
V10.1104/pp.60.3.379
p528
sg63
VPLANT PHYSIOL
p529
sg65
V60
p530
sg101
(lp531
(VJONES
VM G K
tp532
asg23
I1977
sg59
VLANT
p533
sbag1
(g2
g3
NtRp534
(dp535
g67
V10.1111/j.1365-313X.2006.02782.x
p536
sg63
VPLANT J
p537
sg65
V47
p538
sg101
(lp539
(VKO
VJ H
tp540
asg23
I2006
sg59
VLANT
p541
sbag1
(g2
g3
NtRp542
(dp543
g67
V10.1038/sj.emboj.7600121
p544
sg63
VEMBO J
p545
sg65
V23
p546
sg101
(lp547
(VKUSHIRO
VT
tp548
asg23
I2004
sg59
V1647
p549
sbag1
(g2
g3
NtRp550
(dp551
g67
V10.1093/emboj/cdg277
p552
sg63
VEMBO J
p553
sg65
V22
p554
sg101
(lp555
(VKWAK
VJ M
tp556
asg23
I2003
sg59
V2623
p557
sbag1
(g2
g3
NtRp558
(dp559
g67
V10.1111/j.1365-3040.2006.01526.x
p560
sg63
VPLANT CELL ENVIRON
p561
sg65
V29
p562
sg101
(lp563
(VLANCIEN
VM
tp564
asg23
I2006
sg59
VLANT
p565
sbag1
(g2
g3
NtRp566
(dp567
g67
V10.1016/S0031-9422(01)00053-X
p568
sg63
VPHYTOCHEMISTRY
p569
sg65
V57
p570
sg101
(lp571
(VLAUVERGEAT
VV
tp572
asg23
I2001
sg59
VHYTOCHEMISTRY
p573
sbag1
(g2
g3
NtRp574
(dp575
g67
V10.1034/j.1600-0854.2001.25020508.x
p576
sg63
VTRAFFIC
p577
sg65
V2
sg101
(lp578
(VLAWRENCE
VC J
tp579
asg23
I2001
sg59
V362
p580
sbag1
(g2
g3
NtRp581
(dp582
g67
V10.1242/jcs.00928
p583
sg63
VJ CELL SCI
p584
sg65
V117
p585
sg101
(lp586
(VLEGENDRE-GUILLEMIN
VV
tp587
asg23
I2004
sg59
V9
sbag1
(g2
g3
NtRp588
(dp589
g67
V10.1007/s00344-008-9055-6
p590
sg63
VJ PLANT GROWTH REGUL
p591
sg65
V27
p592
sg101
(lp593
(VLI
VJ G
tp594
asg23
I2008
sg59
V283
p595
sbag1
(g2
g3
NtRp596
(dp597
g67
V10.1105/tpc.007468
p598
sg63
VPLANT CELL
p599
sg65
V15
p600
sg101
(lp601
(VLORENZO
VO
tp602
asg23
I2003
sg59
VLANT
p603
sbag1
(g2
g3
NtRp604
(dp605
g67
V10.1111/j.1365-313X.2009.03797.x
p606
sg63
VPLANT J
p607
sg65
V58
p608
sg101
(lp609
(VMATSUMURA
VY
tp610
asg23
I2009
sg59
VLANT
p611
sbag1
(g2
g3
NtRp612
(dp613
g67
V10.1016/S0981-9428(01)01351-1
p614
sg63
VPLANT PHYSIOL BIOCH
p615
sg65
V40
p616
sg101
(lp617
(VMAZEL
VA
tp618
asg23
I2002
sg59
VLANT
p619
sbag1
(g2
g3
NtRp620
(dp621
g67
V10.1016/j.plantsci.2008.12.003
p622
sg63
VPLANT SCI
p623
sg65
V176
p624
sg101
(lp625
(VMENG
VC M
tp626
asg23
I2009
sg59
VLANT
p627
sbag1
(g2
g3
NtRp628
(dp629
g67
V10.1105/tpc.106.042705
p630
sg63
VPLANT CELL
p631
sg65
V19
p632
sg101
(lp633
(VMIAO
VY
tp634
asg23
I2007
sg59
VLANT
p635
sbag1
(g2
g3
NtRp636
(dp637
g67
V10.1007/s11103-004-2142-6
p638
sg63
VPLANT MOL BIOL
p639
sg65
V55
p640
sg101
(lp641
(VMIAO
VY
tp642
asg23
I2004
sg59
VLANT
p643
sbag1
(g2
g3
NtRp644
(dp645
g67
V10.1104/pp.105.076208
p646
sg63
VPLANT PHYSIOL
p647
sg65
V141
p648
sg101
(lp649
(VNEWCOMB
VR D
tp650
asg23
I2006
sg59
VLANT
p651
sbag1
(g2
g3
NtRp652
(dp653
g67
Nsg63
VRIV FRUTTICOLTURA OR
p654
sg65
V5
sg101
(lp655
(VNGELI
VD
tp656
asg23
I2002
sg59
V56
p657
sbag1
(g2
g3
NtRp658
(dp659
g67
V10.1007/s00425-009-0913-7
p660
sg63
VPLANTA
p661
sg65
V229
p662
sg101
(lp663
(VNITSCH
VL M C
tp664
asg23
I2009
sg59
VLANTA
p665
sbag1
(g2
g3
NtRp666
(dp667
g67
V10.1104/pp.010862
p668
sg63
VPLANT PHYSIOL
p669
sg65
V128
p670
sg101
(lp671
(VONATE-SANCHEZ
VL
tp672
asg23
I2002
sg59
VLANT
p673
sbag1
(g2
g3
NtRp674
(dp675
g67
V10.1111/j.1365-313X.2006.02979.x
p676
sg63
VPLANT J
p677
sg65
V49
p678
sg101
(lp679
(VOSUNA
VD
tp680
asg23
I2007
sg59
VLANT
p681
sbag1
(g2
g3
NtRp682
(dp683
g67
V10.1007/s00344-003-0024-9
p684
sg63
VJ PLANT GROWTH REGUL
p685
sg65
V22
p686
sg101
(lp687
(VOZGA
VJ A
tp688
asg23
I2003
sg59
V73
p689
sbag1
(g2
g3
NtRp690
(dp691
g67
V10.1016/j.tplants.2007.06.01
p692
sg63
VTRENDS PLANT SCI
p693
sg65
V12
p694
sg101
(lp695
(VPANDOLFINI
VT
tp696
asg23
I2007
sg59
V327
p697
sbag1
(g2
g3
NtRp698
(dp699
g67
V10.1104/pp.106.080994
p700
sg63
VPLANT PHYSIOL
p701
sg65
V141
p702
sg101
(lp703
(VPARK
VS
tp704
asg23
I2006
sg59
VLANT
p705
sbag1
(g2
g3
NtRp706
(dp707
g67
V10.1016/j.pbi.2007.04.001
p708
sg63
VCURR OPIN PLANT BIOL
p709
sg65
V10
p710
sg101
(lp711
(VPAUL
VM
tp712
asg23
I2007
sg59
V303
p713
sbag1
(g2
g3
NtRp714
(dp715
g67
V10.1016/j.jmb.2004.10.062
p716
sg63
VJ MOL BIOL
p717
sg65
V345
p718
sg101
(lp719
(VPEDERSEN
VL
tp720
asg23
I2005
sg59
V487
p721
sbag1
(g2
g3
NtRp722
(dp723
g67
V10.1093/bioinformatics/btg034
p724
sg63
VBIOINFORMATICS
p725
sg65
V19
p726
sg101
(lp727
(VPERTEA
VG
tp728
asg23
I2003
sg59
V651
p729
sbag1
(g2
g3
NtRp730
(dp731
g67
V10.1093/nar/29.9.e45
p732
sg63
VNUCLEIC ACIDS RES
p733
sg65
V29
p734
sg101
(lp735
(VPFAFFL
VM W
tp736
asg23
I2001
sg59
Nsbag1
(g2
g3
NtRp737
(dp738
g67
V10.1104/pp.108.131557
p739
sg63
VPLANT PHYSIOL
p740
sg65
V149
p741
sg101
(lp742
(VPITZSCHKE
VA
tp743
asg23
I2009
sg59
VLANT
p744
sbag1
(g2
g3
NtRp745
(dp746
g67
V10.1046/j.1365-313X.1998.00108.x
p747
sg63
VPLANT J
p748
sg65
V14
p749
sg101
(lp750
(VPURCELL
VP C
tp751
asg23
I1998
sg59
VLANT
p752
sbag1
(g2
g3
NtRp753
(dp754
g67
V10.1111/j.1365-313X.2008.03698.x
p755
sg63
VPLANT J
p756
sg65
V57
p757
sg101
(lp758
(VRAVET
VK
tp759
asg23
I2009
sg59
VLANT
p760
sbag1
(g2
g3
NtRp761
(dp762
g67
V10.1073/pnas.91.13.5761
p763
sg63
VP NATL ACAD SCI USA
p764
sg65
V91
p765
sg101
(lp766
(VRAY
VA
tp767
asg23
I1994
sg59
V5761
p768
sbag1
(g2
g3
NtRp769
(dp770
g67
V10.1104/pp.105.075721
p771
sg63
VPLANT PHYSIOL
p772
sg65
V140
p773
sg101
(lp774
(VREMANS
VT
tp775
asg23
I2006
sg59
VLANT
p776
sbag1
(g2
g3
NtRp777
(dp778
g67
V10.1016/S1369-5266(99)80036-3
p779
sg63
VCURR OPIN PLANT BIOL
p780
sg65
V2
sg101
(lp781
(VROITSCH
VT
tp782
asg23
I1999
sg59
V198
p783
sbag1
(g2
g3
NtRp784
(dp785
g67
V10.1111/j.1365-313X.2006.02765.x
p786
sg63
VPLANT J
p787
sg65
V46
p788
sg101
(lp789
(VROOK
VF
tp790
asg23
I2006
sg59
VLANT
p791
sbag1
(g2
g3
NtRp792
(dp793
g67
V10.2478/s11658-006-0044-0
p794
sg63
VCELL MOL BIOL LETT
p795
sg65
V11
p796
sg101
(lp797
(VRORAT
VT
tp798
asg23
I2006
sg59
V536
p799
sbag1
(g2
g3
NtRp800
(dp801
g67
V10.1042/BC20040516
p802
sg63
VBIOL CELL
p803
sg65
V98
p804
sg101
(lp805
(VROSE
VT L
tp806
asg23
I2006
sg59
V53
p807
sbag1
(g2
g3
NtRp808
(dp809
g67
V10.1105/tpc.106.049619
p810
sg63
VPLANT CELL
p811
sg65
V19
p812
sg101
(lp813
(VROSTI
VJ
tp814
asg23
I2007
sg59
VLANT
p815
sbag1
(g2
g3
NtRp816
(dp817
g67
V10.1034/j.1399-3054.2001.1110311.x
p818
sg63
VPHYSIOL PLANTARUM
p819
sg65
V111
p820
sg101
(lp821
(VRUPERTI
VB
tp822
asg23
I2001
sg59
VHYSIOL
p823
sbag1
(g2
g3
NtRp824
(dp825
g67
Nsg63
VPlant Signal Behav
p826
sg65
V3
sg101
(lp827
(VSAKAMOTO
VMASARU
tp828
asg23
I2008
sg59
Vlant
p829
sbag1
(g2
g3
NtRp830
(dp831
g67
V10.1007/s00299-006-0124-7
p832
sg63
VPLANT CELL REP
p833
sg65
V25
p834
sg101
(lp835
(VSATO
VK
tp836
asg23
I2006
sg59
VLANT
p837
sbag1
(g2
g3
NtRp838
(dp839
g67
V10.1104/pp.106.093765
p840
sg63
VPLANT PHYSIOL
p841
sg65
V144
p842
sg101
(lp843
(VSCHAFFER
VR J
tp844
asg23
I2007
sg59
VLANT
p845
sbag1
(g2
g3
NtRp846
(dp847
g67
V10.1105/tpc.108.063859
p848
sg63
VPLANT CELL
p849
sg65
V20
p850
sg101
(lp851
(VSCHAPIRE
VA L
tp852
asg23
I2008
sg59
VLANT
p853
sbag1
(g2
g3
NtRp854
(dp855
g67
V10.1104/pp.104.039503
p856
sg63
VPLANT PHYSIOL
p857
sg65
V135
p858
sg101
(lp859
(VSCHLUEPMANN
VH
tp860
asg23
I2004
sg59
VLANT
p861
sbag1
(g2
g3
NtRp862
(dp863
g67
V10.1055/s-2006-923802
p864
sg63
VPLANT BIOLOGY
p865
sg65
V8
sg101
(lp866
(VSEIDEL
VC
tp867
asg23
I2006
sg59
VLANT
p868
sbag1
(g2
g3
NtRp869
(dp870
g67
V10.1093/jxb/eri036
p871
sg63
VJ EXP BOT
p872
sg65
V56
p873
sg101
(lp874
(VSEPULVEDA-JIMENEZ
VG
tp875
asg23
I2005
sg59
V605
p876
sbag1
(g2
g3
NtRp877
(dp878
g67
V10.1146/annurev.pp.33.060182.001025
p879
sg63
VANNU REV PLANT PHYS
p880
sg65
V33
p881
sg101
(lp882
(VSEXTON
VR
tp883
asg23
I1982
sg59
V133
p884
sbag1
(g2
g3
NtRp885
(dp886
g67
V10.1093/bioinformatics/btg157
p887
sg63
VBIOINFORMATICS
p888
sg65
V19
p889
sg101
(lp890
(VSIMON
VP
tp891
asg23
I2003
sg59
V1439
p892
sbag1
(g2
g3
NtRp893
(dp894
g67
V10.1016/S1369-5266(02)00289-3
p895
sg63
VCURR OPIN PLANT BIOL
p896
sg65
V5
sg101
(lp897
(VSINGH
VK B
tp898
asg23
I2002
sg59
V430
p899
sbag1
(g2
g3
NtRp900
(dp901
g67
V10.1105/tpc.015933
p902
sg63
VPLANT CELL
p903
sg65
V16
p904
sg101
(lp905
(VSKINNER
VD J
tp906
asg23
I2004
sg59
VLANT
p907
sbag1
(g2
g3
NtRp908
(dp909
g67
Nsg63
VGENETICS
p910
sg65
V161
p911
sg101
(lp912
(VSMOLEN
VG A
tp913
asg23
I2002
sg59
V1235
p914
sbag1
(g2
g3
NtRp915
(dp916
g67
V10.1016/S0304-4238(00)00169-2
p917
sg63
VSCI HORTIC
p918
sg65
V87
p919
sg101
(lp920
(VSTOPAR
VM
tp921
asg23
I2001
sg59
V65
p922
sbag1
(g2
g3
NtRp923
(dp924
g67
V10.1023/B:PLAN.0000019064.55734.52
p925
sg63
VPLANT MOL BIOL
p926
sg65
V53
p927
sg101
(lp928
(VTAMAOKI
VM
tp929
asg23
I2003
sg59
VLANT
p930
sbag1
(g2
g3
NtRp931
(dp932
g67
V10.1016/j.plaphy.2009.03.013
p933
sg63
VPLANT PHYSIOL BIOCH
p934
sg65
V47
p935
sg101
(lp936
(VTANI
VE
tp937
asg23
I2009
sg59
VLANT
p938
sbag1
(g2
g3
NtRp939
(dp940
g67
V10.1007/s00425-009-0953-z
p941
sg63
VPLANTA
p942
sg65
V230
p943
sg101
(lp944
(VTATSUKI
VM
tp945
asg23
I2009
sg59
VLANTA
p946
sbag1
(g2
g3
NtRp947
(dp948
g67
V10.1046/j.0028-646x.2001.00194.x
p949
sg63
VNEW PHYTOL
p950
sg65
V151
p951
sg101
(lp952
(VTAYLOR
VJ E
tp953
asg23
I2001
sg59
V323
p954
sbag1
(g2
g3
NtRp955
(dp956
g67
V10.1073/pnas.012452499
p957
sg63
VP NATL ACAD SCI USA
p958
sg65
V99
p959
sg101
(lp960
(VTORRES
VM A
tp961
asg23
I2002
sg59
V517
p962
sbag1
(g2
g3
NtRp963
(dp964
g67
V10.1105/tpc.104.022699
p965
sg63
VPLANT CELL
p966
sg65
V16
p967
sg101
(lp968
(VTRAN
VL S P
tp969
asg23
I2004
sg59
VLANT
p970
sbag1
(g2
g3
NtRp971
(dp972
g67
V10.1126/science.1133649
p973
sg63
VSCIENCE
p974
sg65
V314
p975
sg101
(lp976
(VUAUY
VC
tp977
asg23
I2006
sg59
V1298
p978
sbag1
(g2
g3
NtRp979
(dp980
g67
V10.1186/gb-2002-3-7-research0034
p981
sg63
VGENOME BIOL
p982
sg65
V3
sg101
(lp983
(VVANDESOMPELE
VJ
tp984
asg23
I2002
sg59
Nsbag1
(g2
g3
NtRp985
(dp986
g67
V10.1038/ng.654
p987
sg63
VNAT GENET
p988
sg65
V42
p989
sg101
(lp990
(VVELASCO
VR
tp991
asg23
I2010
sg59
V833
p992
sbag1
(g2
g3
NtRp993
(dp994
g67
V10.1111/j.1469-8137.2007.02254.x
p995
sg63
VNEW PHYTOL
p996
sg65
V177
p997
sg101
(lp998
(VVRIEZEN
VW H
tp999
asg23
I2008
sg59
V60
p1000
sbag1
(g2
g3
NtRp1001
(dp1002
g67
V10.1105/tpc.105.033415
p1003
sg63
VPLANT CELL
p1004
sg65
V17
p1005
sg101
(lp1006
(VWANG
VH
tp1007
asg23
I2005
sg59
VLANT
p1008
sbag1
(g2
g3
NtRp1009
(dp1010
g67
V10.1093/pcp/pch121
p1011
sg63
VPLANT CELL PHYSIOL
p1012
sg65
V45
p1013
sg101
(lp1014
(VWATARI
VJ
tp1015
asg23
I2004
sg59
VLANT
p1016
sbag1
(g2
g3
NtRp1017
(dp1018
g67
V10.1104/pp.105.065953
p1019
sg63
VPLANT PHYSIOL
p1020
sg65
V139
p1021
sg101
(lp1022
(VWHEELER
VM C G
tp1023
asg23
I2005
sg59
VLANT
p1024
sbag1
(g2
g3
NtRp1025
(dp1026
g67
V10.1093/jxb/erp067
p1027
sg63
VJ EXP BOT
p1028
sg65
V60
p1029
sg101
(lp1030
(VWINGLER
VA
tp1031
asg23
I2009
sg59
V1063
p1032
sbag1
(g2
g3
NtRp1033
(dp1034
g67
V10.1104/pp.109.138230
p1035
sg63
VPLANT PHYSIOL
p1036
sg65
V150
p1037
sg101
(lp1038
(VXIA
VX J
tp1039
asg23
I2009
sg59
VLANT
p1040
sbag1
(g2
g3
NtRp1041
(dp1042
g67
V10.1104/pp.105.068064
p1043
sg63
VPLANT PHYSIOL
p1044
sg65
V139
p1045
sg101
(lp1046
(VXIN
VZ Y
tp1047
asg23
I2005
sg59
VLANT
p1048
sbag1
(g2
g3
NtRp1049
(dp1050
g67
V10.1007/s11103-005-2910-y
p1051
sg63
VPlant Mol Biol
p1052
sg65
V60
p1053
sg101
(lp1054
(VYANHUI
VCHEN
tp1055
asg23
I2006
sg59
Vlant
p1056
sbag1
(g2
g3
NtRp1057
(dp1058
g67
Nsg63
VJ AM SOC HORTIC SCI
p1059
sg65
V124
p1060
sg101
(lp1061
(VYAO
VJ L
tp1062
asg23
I1999
sg59
V8
sbag1
(g2
g3
NtRp1063
(dp1064
g67
V10.1016/j.ejcb.2009.10.014
p1065
sg63
VEUR J CELL BIOL
p1066
sg65
V89
p1067
sg101
(lp1068
(VZENTGRAF
VU
tp1069
asg23
I2010
sg59
V133
p1070
sbag1
(g2
g3
NtRp1071
(dp1072
g67
V10.1105/tpc.109.071324
p1073
sg63
VPLANT CELL
p1074
sg65
V22
p1075
sg101
(lp1076
(VZHANG
VX C
tp1077
asg23
I2010
sg59
VLANT
p1078
sbag1
(g2
g3
NtRp1079
(dp1080
g67
V10.1073/pnas.0907670106
p1081
sg63
VP NATL ACAD SCI USA
p1082
sg65
V106
p1083
sg101
(lp1084
(VZHONG
VS W
tp1085
asg23
I2009
sg59
V21431
p1086
sbasb.