ccopy_reg
_reconstructor
p1
(ctethne.classes.paper
Paper
p2
c__builtin__
object
p3
NtRp4
(dp5
S'publisherCity'
p6
VROCKVILLE
p7
sS'reprintAddress'
p8
VBevan, MW (reprint author), John Innes Ctr Plant Sci Res, Dept Cell & Dev Biol, Norwich NR4 7UH, Norfolk, England.
p9
sS'WC'
p10
VPlant Sciences
p11
sS'GA'
p12
V767EL
p13
sS'abstract'
p14
VSugars such as sucrose serve dual functions as transported carbohydrates in vascular plants and as signal molecules that regulate gene expression and plant development. Sugar-mediated signals indicate carbohydrate availability and regulate metabolism by co-coordinating sugar production and mobilization with sugar usage and storage. Analysis of mutants with altered responses to sucrose and glucose has shown that signaling pathways mediated by sugars and abscisic acid interact to regulate seedling development and gene expression. Using a novel screen for sugar-response mutants based on the activity of a luciferase reporter gene under the control of the sugar-inducible promoter of the ApL3 gene, we have isolated high sugar-response (hsr) mutants that exhibit elevated luciferase activity and ApL3 expression in response to low sugar concentrations. Our characterization of these hsr mutants suggests that they affect the regulation of sugar-induced and sugar-repressed processes controlling gene expression, growth, and development in Arabidopsis. In contrast to some other sugar-response mutants, they do not exhibit altered responses to ethylene or abscisic acid, suggesting that the hsr mutants may have a specifically increased sensitivity to sugars. Further characterization of the hsr mutants will lead to greater understanding of regulatory pathways involved in metabolite signaling.
p15
sS'pageEnd'
p16
I91
sS'date'
p17
I2004
sS'documentType'
p18
VArticle
p19
sS'subject'
p20
VPlant Sciences
p21
sS'isoSource'
p22
VPlant Physiol.
p23
sS'timesCited'
p24
(lp25
I34
aVZ9 37
p26
asS'PT'
p27
VJ
sS'title'
p28
VCharacterization Of Mutants In Arabidopsis Showing Increased Sugar-Specific Gene Expression, Growth, And Developmental Responses
p29
sS'ISSN'
p30
(lp31
V0032-0889
p32
aVJ9 PLANT PHYSIOL
p33
asS'authors_full'
p34
(lp35
(VBAIER
VM
tp36
a(VHEMMANN
VG
tp37
a(VHOLMAN
VR
tp38
a(VCORKE
VF
tp39
a(VCARD
VR
tp40
a(VSMITH
VC
tp41
a(VROOK
VF
tp42
a(VBEVAN
VMW
tp43
asS'PG'
p44
I11
sS'PD'
p45
VJAN
p46
sS'pageStart'
p47
I81
sS'issue'
p48
I1
sS'RI'
p49
VCard, Rod/D-9820-2011
p50
sS'journal'
p51
VPLANT PHYSIOLOGY
p52
sS'volume'
p53
V134
p54
sS'doi'
p55
V10.1104/pp.103.031674
p56
sS'emailAddress'
p57
Vmichael.bevan@bbsrc.ac.uk
p58
sS'authorAddress'
p59
VJohn Innes Ctr Plant Sci Res, Dept Cell & Dev Biol, Norwich NR4 7UH, Norfolk, England.
p60
sS'publisherAddress'
p61
V15501 MONONA DRIVE, ROCKVILLE, MD 20855 USA
p62
sS'ER'
p63
V
sS'publisher'
p64
VAMER SOC PLANT BIOLOGISTS
p65
sS'authorKeywords'
p66
(lp67
VABSCISIC-ACID
p68
aVBETA-AMYLASE
p69
aVDIFFERENTIAL REGULATION
p70
aVSIGNAL-TRANSDUCTION
p71
aVINSENSITIVE MUTANTS
p72
aVHIGHER-PLANTS
p73
aVSUCROSE
p74
aVTHALIANA
p75
aVGLUCOSE
p76
aVETHYLENE
p77
asS'language'
p78
VEnglish
p79
sS'wosid'
p80
VWOS:000188427200011
p81
sS'citationCount'
p82
I53
sS'authors_init'
p83
(lp84
(VBAIER
VM
tp85
a(VHEMMANN
VG
tp86
a(VHOLMAN
VR
tp87
a(VCORKE
VF
tp88
a(VCARD
VR
tp89
a(VSMITH
VC
tp90
a(VROOK
VF
tp91
a(VBEVAN
VM W
tp92
asS'citedReferences'
p93
(lp94
g1
(g2
g3
NtRp95
(dp96
g55
V10.1126/science.284.5423.2148
p97
sg51
VSCIENCE
p98
sg53
V284
p99
sg83
(lp100
(VALONSO
VJ M
tp101
asg17
I1999
sg47
V2148
p102
sbag1
(g2
g3
NtRp103
(dp104
g55
Nsg51
VGENE DEV
p105
sg53
V14
p106
sg83
(lp107
(VARENAS-HUERTERO
VF
tp108
asg17
I2000
sg47
V2085
p109
sbag1
(g2
g3
NtRp110
(dp111
g55
Nsg51
VPLANT PHYSIOL
p112
sg53
V24
p113
sg83
(lp114
(VARNON
VD I
tp115
asg17
I1949
sg47
VLANT
p116
sbag1
(g2
g3
NtRp117
(dp118
g55
V10.1104/pp.124.2.823
p119
sg51
VPLANT PHYSIOL
p120
sg53
V124
p121
sg83
(lp122
(VBAIER
VM
tp123
asg17
I2000
sg47
VLANT
p124
sbag1
(g2
g3
NtRp125
(dp126
g55
V10.1105/tpc.12.7.1103
p127
sg51
VPLANT CELL
p128
sg53
V12
p129
sg83
(lp130
(VBEAUDOIN
VN
tp131
asg17
I2000
sg47
VLANT
p132
sbag1
(g2
g3
NtRp133
(dp134
g55
V10.1006/geno.1994.1023
p135
sg51
VGENOMICS
p136
sg53
V19
p137
sg83
(lp138
(VBELL
VC J
tp139
asg17
I1994
sg47
V137
p140
sbag1
(g2
g3
NtRp141
(dp142
g55
V10.1007/BF00037021
p143
sg51
VPLANT MOL BIOL
p144
sg53
V27
p145
sg83
(lp146
(VBERGER
VS
tp147
asg17
I1995
sg47
VLANT
p148
sbag1
(g2
g3
NtRp149
(dp150
g55
V10.1126/science.241.4869.1086
p151
sg51
VSCIENCE
p152
sg53
V241
p153
sg83
(lp154
(VBLEECKER
VA B
tp155
asg17
I1988
sg47
V1086
p156
sbag1
(g2
g3
NtRp157
(dp158
g55
V10.1105/tpc.006494
p159
sg51
VPLANT CELL
p160
sg53
V14
p161
sg83
(lp162
(VCHENG
VW H
tp163
asg17
I2002
sg47
VLANT
p164
sbag1
(g2
g3
NtRp165
(dp166
g55
V10.1073/pnas.95.8.4784
p167
sg51
VP NATL ACAD SCI USA
p168
sg53
V95
p169
sg83
(lp170
(VCHIOU
VT J
tp171
asg17
I1998
sg47
V4784
p172
sbag1
(g2
g3
NtRp173
(dp174
g55
V10.1104/pp.125.1.61
p175
sg51
VPLANT PHYSIOL
p176
sg53
V125
p177
sg83
(lp178
(VCORUZZI
VG
tp179
asg17
I2001
sg47
VLANT
p180
sbag1
(g2
g3
NtRp181
(dp182
g55
V10.1105/tpc.9.4.583
p183
sg51
VPLANT CELL
p184
sg53
V9
sg83
(lp185
(VDIJKWEL
VP P
tp186
asg17
I1997
sg47
VLANT
p187
sbag1
(g2
g3
NtRp188
(dp189
g55
Nsg51
VPLANT PHYSIOL
p190
sg53
V110
p191
sg83
(lp192
(VDIJKWEL
VP P
tp193
asg17
I1996
sg47
VLANT
p194
sbag1
(g2
g3
NtRp195
(dp196
g55
V10.1105/tpc.12.4.599
p197
sg51
VPLANT CELL
p198
sg53
V10
p199
sg83
(lp200
(VFINKELSTEIN
VR R
tp201
asg17
I1998
sg47
VLANT
p202
sbag1
(g2
g3
NtRp203
(dp204
g55
Nsg51
VJ EXP BOT
p205
sg53
V46
p206
sg83
(lp207
(VGALTIER
VN
tp208
asg17
I1995
sg47
V1335
p209
sbag1
(g2
g3
NtRp210
(dp211
g55
V10.1105/tpc.12.7.1117
p212
sg51
VPLANT CELL
p213
sg53
V12
p214
sg83
(lp215
(VGHASSEMIAN
VM
tp216
asg17
I2000
sg47
VLANT
p217
sbag1
(g2
g3
NtRp218
(dp219
g55
V10.1104/pp.72.2.362
p220
sg51
VPLANT PHYSIOL
p221
sg53
V72
p222
sg83
(lp223
(VGIAQUINTA
VR T
tp224
asg17
I1983
sg47
VLANT
p225
sbag1
(g2
g3
NtRp226
(dp227
g55
V10.1006/bbrc.2000.4062
p228
sg51
VBIOCHEM BIOPH RES CO
p229
sg53
V280
p230
sg83
(lp231
(VGIBSON
VS I
tp232
asg17
I2001
sg47
V196
p233
sbag1
(g2
g3
NtRp234
(dp235
g55
V10.1105/tpc002477
p236
sg51
VPLANT CELL
p237
sg53
V14
p238
sg83
(lp239
(VGONZALEZ-GUZMAN
VM
tp240
asg17
I2002
sg47
VLANT
p241
sbag1
(g2
g3
NtRp242
(dp243
g55
V10.1126/science.290.5499.2110
p244
sg51
VSCIENCE
p245
sg53
V290
p246
sg83
(lp247
(VHARMER
VS L
tp248
asg17
I2000
sg47
V2110
p249
sbag1
(g2
g3
NtRp250
(dp251
g55
V10.1023/A:1006496308160
p252
sg51
VPLANT MOL BIOL
p253
sg53
V42
p254
sg83
(lp255
(VHELLENS
VR P
tp256
asg17
I2000
sg47
VLANT
p257
sbag1
(g2
g3
NtRp258
(dp259
g55
Nsg51
VTHESIS U EDINBURGH E
p260
sg53
Nsg83
(lp261
(VHEMMANN
VG
tp262
asg17
I2000
sg47
Nsbag1
(g2
g3
NtRp263
(dp264
g55
V10.1046/j.1365-313x.2000.00822.x
p265
sg51
VPLANT J
p266
sg53
V23
p267
sg83
(lp268
(VHUIJSER
VC
tp269
asg17
I2000
sg47
VLANT
p270
sbag1
(g2
g3
NtRp271
(dp272
g55
Nsg51
VPLANT CELL
p273
sg53
V6
sg83
(lp274
(VJANG
VJ C
tp275
asg17
I1994
sg47
VLANT
p276
sbag1
(g2
g3
NtRp277
(dp278
g55
V10.1146/annurev.arplant.47.1.509
p279
sg51
VANNU REV PLANT PHYS
p280
sg53
V47
p281
sg83
(lp282
(VKOCH
VK E
tp283
asg17
I1996
sg47
V509
p284
sbag1
(g2
g3
NtRp285
(dp286
g55
V10.1046/j.1365-313X.1993.04020403.x
p287
sg51
VPLANT J
p288
sg53
V4
sg83
(lp289
(VKONIECZNY
VA
tp290
asg17
I1993
sg47
VLANT
p291
sbag1
(g2
g3
NtRp292
(dp293
g55
V10.1111/j.1365-313X.1993.00817.x
p294
sg51
VPLANT J
p295
sg53
V3
sg83
(lp296
(VKRAPP
VA
tp297
asg17
I1993
sg47
VLANT
p298
sbag1
(g2
g3
NtRp299
(dp300
g55
V10.1046/j.1365-313x.2000.00833.x
p301
sg51
VPLANT J
p302
sg53
V23
p303
sg83
(lp304
(VLABY
VR J
tp305
asg17
I2000
sg47
VLANT
p306
sbag1
(g2
g3
NtRp307
(dp308
g55
V10.1104/pp.127.4.1798
p309
sg51
VPLANT PHYSIOL
p310
sg53
V127
p311
sg83
(lp312
(VLABY
VR J
tp313
asg17
I2001
sg47
VLANT
p314
sbag1
(g2
g3
NtRp315
(dp316
g55
V10.1046/j.1365-313X.1996.10040655.x
p317
sg51
VPLANT J
p318
sg53
V10
p319
sg83
(lp320
(VLEONKLOOSTERZIEL
VK M
tp321
asg17
I1996
sg47
VLANT
p322
sbag1
(g2
g3
NtRp323
(dp324
g55
V10.1104/pp.55.2.251
p325
sg51
VPLANT PHYSIOL
p326
sg53
V55
p327
sg83
(lp328
(VMANCINELLI
VA L
tp329
asg17
I1975
sg47
VLANT
p330
sbag1
(g2
g3
NtRp331
(dp332
g55
V10.1104/pp.128.2.472
p333
sg51
VPLANT PHYSIOL
p334
sg53
V128
p335
sg83
(lp336
(VMARTIN
VT
tp337
asg17
I2002
sg47
VLANT
p338
sbag1
(g2
g3
NtRp339
(dp340
g55
V10.1104/pp.107.3.895
p341
sg51
VPLANT PHYSIOL
p342
sg53
V107
p343
sg83
(lp344
(VMITA
VS
tp345
asg17
I1995
sg47
VLANT
p346
sbag1
(g2
g3
NtRp347
(dp348
g55
V10.1104/pp.114.2.575
p349
sg51
VPLANT PHYSIOL
p350
sg53
V114
p351
sg83
(lp352
(VMITA
VS
tp353
asg17
I1997
sg47
VLANT
p354
sbag1
(g2
g3
NtRp355
(dp356
g55
V10.1046/j.1365-313X.1997.11040841.x
p357
sg51
VPLANT J
p358
sg53
V11
p359
sg83
(lp360
(VMITA
VS
tp361
asg17
I1997
sg47
VLANT
p362
sbag1
(g2
g3
NtRp363
(dp364
g55
V10.1126/science.1080585
p365
sg51
VSCIENCE
p366
sg53
V300
p367
sg83
(lp368
(VMOORE
VB
tp369
asg17
I2003
sg47
V332
p370
sbag1
(g2
g3
NtRp371
(dp372
g55
Nsg51
VGENE DEV
p373
sg53
V14
p374
sg83
(lp375
(VNEFF
VM M
tp376
asg17
I2000
sg47
V257
p377
sbag1
(g2
g3
NtRp378
(dp379
g55
V10.1101/gad.12.19.3059
p380
sg51
VGENE DEV
p381
sg53
V12
p382
sg83
(lp383
(VNEMETH
VK
tp384
asg17
I1998
sg47
V3059
p385
sbag1
(g2
g3
NtRp386
(dp387
g55
V10.1104/pp.119.3.1017
p388
sg51
VPLANT PHYSIOL
p389
sg53
V119
p390
sg83
(lp391
(VPEGO
VJ V
tp392
asg17
I1999
sg47
VLANT
p393
sbag1
(g2
g3
NtRp394
(dp395
g55
V10.1093/jexbot/51.suppl_1.407
p396
sg51
VJ EXP BOT
p397
sg53
V51
p398
sg83
(lp399
(VPEGO
VJ V
tp400
asg17
I2000
sg47
V407
p401
sbag1
(g2
g3
NtRp402
(dp403
g55
V10.1104/pp.103.020347
p404
sg51
VPLANT PHYSIOL
p405
sg53
V132
p406
sg83
(lp407
(VPRICE
VJ
tp408
asg17
I2003
sg47
VLANT
p409
sbag1
(g2
g3
NtRp410
(dp411
g55
V10.1128/MCB.20.13.4513-4521.2000
p412
sg51
VMOL CELL BIOL
p413
sg53
V20
p414
sg83
(lp415
(VRIOU-KHAMLICHI
VC
tp416
asg17
I2000
sg47
V4513
p417
sbag1
(g2
g3
NtRp418
(dp419
g55
V10.1046/j.1365-313X.1999.00632.x
p420
sg51
VPLANT J
p421
sg53
V20
p422
sg83
(lp423
(VROLDAN
VM
tp424
asg17
I1999
sg47
VLANT
p425
sbag1
(g2
g3
NtRp426
(dp427
g55
V10.1105/tpc.010455
p428
sg51
VPLANT CELL
p429
sg53
V14
p430
sg83
(lp431
(VROLLAND
VF
tp432
asg17
I2002
sg47
VLANT
p433
sbag1
(g2
g3
NtRp434
(dp435
g55
V10.1093/jxb/erg054
p436
sg51
VJ EXP BOT
p437
sg53
V54
p438
sg83
(lp439
(VROOK
VF
tp440
asg17
I2003
sg47
V495
p441
sbag1
(g2
g3
NtRp442
(dp443
g55
V10.1046/j.1365-313X.2001.2641043.x
p444
sg51
VPLANT J
p445
sg53
V26
p446
sg83
(lp447
(VROOK
VF
tp448
asg17
I2001
sg47
VLANT
p449
sbag1
(g2
g3
NtRp450
(dp451
g55
V10.1016/S1369-5266(99)00014-X
p452
sg51
VCURR OPIN PLANT BIOL
p453
sg53
V2
sg83
(lp454
(VSHEEN
VJ
tp455
asg17
I1999
sg47
V410
p456
sbag1
(g2
g3
NtRp457
(dp458
g55
V10.1105/tpc.2.10.1027
p459
sg51
VPLANT CELL
p460
sg53
V2
sg83
(lp461
(VSHEEN
VJ
tp462
asg17
I1990
sg47
VLANT
p463
sbag1
(g2
g3
NtRp464
(dp465
g55
V10.1046/j.1365-313x.2000.00935.x
p466
sg51
VPLANT J
p467
sg53
V24
p468
sg83
(lp469
(VSHERSON
VS M
tp470
asg17
I2000
sg47
VLANT
p471
sbag1
(g2
g3
NtRp472
(dp473
g55
V10.1146/annurev.arplant.51.1.49
p474
sg51
VANNU REV PLANT PHYS
p475
sg53
V51
p476
sg83
(lp477
(VSMEEKENS
VS
tp478
asg17
I2000
sg47
V49
p479
sbag1
(g2
g3
NtRp480
(dp481
g55
Nsg51
VBIOCHEM J
p482
sg53
V336
p483
sg83
(lp484
(VSOKOLOV
VL N
tp485
asg17
I1998
sg47
V681
p486
sbag1
(g2
g3
NtRp487
(dp488
g55
V10.1073/pnas.172198599
p489
sg51
VP NATL ACAD SCI USA
p490
sg53
V99
p491
sg83
(lp492
(VVAUGHN
VM W
tp493
asg17
I2002
sg47
V10876
p494
sbag1
(g2
g3
NtRp495
(dp496
g55
V10.1073/pnas.95.17.10294
p497
sg51
VP NATL ACAD SCI USA
p498
sg53
V95
p499
sg83
(lp500
(VZHOU
VL
tp501
asg17
I1998
sg47
V10294
p502
sbasb.