ccopy_reg
_reconstructor
p1
(ctethne.classes.paper
Paper
p2
c__builtin__
object
p3
NtRp4
(dp5
S'publisherCity'
p6
VROCKVILLE
p7
sS'reprintAddress'
p8
VUdvardi, MK (reprint author), Samuel Roberts Noble Fdn Inc, Div Plant Biol, Ardmore, OK 73401 USA.
p9
sS'WC'
p10
VPlant Sciences
p11
sS'GA'
p12
V985AX
p13
sS'FX'
p14
(lp15
VThis work was supported by the National Science Foundation (grant no.
p16
aVDBI-0703285).
p17
asS'abstract'
p18
VA Tnt1-insertion mutant population of Medicago truncatula ecotype R108 was screened for defects in nodulation and symbiotic nitrogen fixation. Primary screening of 9,300 mutant lines yielded 317 lines with putative defects in nodule development and/or nitrogen fixation. Of these, 230 lines were rescreened, and 156 lines were confirmed with defective symbiotic nitrogen fixation. Mutants were sorted into six distinct phenotypic categories: 72 nonnodulating mutants (Nod-), 51 mutants with totally ineffective nodules (Nod+Fix-), 17 mutants with partially ineffective nodules (Nod+Fix+/-), 27 mutants defective in nodule emergence, elongation, and nitrogen fixation (Nod+/- Fix-), one mutant with delayed and reduced nodulation but effective in nitrogen fixation (dNod+/- Fix+), and 11 supernodulating mutants (Nod++ Fix+/-). A total of 2,801 flanking sequence tags were generated from the 156 symbiotic mutant lines. Analysis of flanking sequence tags revealed 14 insertion alleles of the following known symbiotic genes: NODULE INCEPTION (NIN), DOESN'T MAKE INFECTIONS3 (DMI3/CCaMK), ERF REQUIRED FOR NODULATION, and SUPERNUMERARY NODULES (SUNN). In parallel, a polymerase chain reaction-based strategy was used to identify Tnt1 insertions in known symbiotic genes, which revealed 25 additional insertion alleles in the following genes: DMI1, DMI2, DMI3, NIN, NODULATION SIGNALING PATHWAY1 (NSP1), NSP2, SUNN, and SICKLE. Thirty-nine Nod- lines were also screened for arbuscular mycorrhizal symbiosis phenotypes, and 30 mutants exhibited defects in arbuscular mycorrhizal symbiosis. Morphological and developmental features of several new symbiotic mutants are reported. The collection of mutants described here is a source of novel alleles of known symbiotic genes and a resource for cloning novel symbiotic genes via Tnt1 tagging.
p19
sS'pageEnd'
p20
I1699
sS'date'
p21
I2012
sS'documentType'
p22
VArticle
p23
sS'subject'
p24
VPlant Sciences
p25
sS'isoSource'
p26
VPlant Physiol.
p27
sS'timesCited'
p28
(lp29
I9
aVZ9 9
p30
asS'funding'
p31
(lp32
(VNational Science Foundation
VDBI-0703285
tp33
asS'PT'
p34
VJ
sS'title'
p35
VA Medicago Truncatula Tobacco Retrotransposon Insertion Mutant Collection With Defects In Nodule Development And Symbiotic Nitrogen Fixation
p36
sS'ISSN'
p37
(lp38
V0032-0889
p39
aVJ9 PLANT PHYSIOL
p40
asS'authors_full'
p41
(lp42
(VPISLARIU
VCATALINA I
tp43
a(VMURRAY
VJEREMY D
tp44
a(VWEN
VJIANGQI
tp45
a(VCOSSON
VVIVIANE
tp46
a(VMUNI
VRAJASEKHARA REDDY DUVVURU
tp47
a(VWANG
VMINGYI
tp48
a(VBENEDITO
VVAGNER A
tp49
a(VANDRIANKAJA
VANDRY
tp50
a(VCHENG
VXIAOFEI
tp51
a(VJEREZ
VIVONE TORRES
tp52
a(VMONDY
VSAMUEL
tp53
a(VZHANG
VSHULAN
tp54
a(VTAYLOR
VMARK E
tp55
a(VTADEGE
VMILLION
tp56
a(VRATET
VPASCAL
tp57
a(VMYSORE
VKIRANKUMAR S
tp58
a(VCHEN
VRUJIN
tp59
a(VUDVARDI
VMICHAEL K
tp60
asS'PG'
p61
I14
sS'PD'
p62
VAUG
p63
sS'pageStart'
p64
I1686
sS'issue'
p65
I4
sS'journal'
p66
VPLANT PHYSIOLOGY
p67
sS'volume'
p68
V159
p69
sS'doi'
p70
V10.1104/pp.112.197061
p71
sS'emailAddress'
p72
Vmudvardi@noble.org
p73
sS'authorAddress'
p74
(lp75
V[Pislariu, Catalina I.; Murray, Jeremy D.; Wen, JiangQi; Muni, RajaSekhara Reddy Duvvuru; Wang, Mingyi; Benedito, Vagner A.; Andriankaja, Andry; Cheng, Xiaofei; Jerez, Ivone Torres; Zhang, Shulan; Taylor, Mark E.; Tadege, Million; Mysore, Kirankumar S.; Chen, Rujin; Udvardi, Michael K.] Samuel Roberts Noble Fdn Inc, Div Plant Biol, Ardmore, OK 73401 USA.
p76
aV[Murray, Jeremy D.] John Innes Ctr, Dept Dis & Stress Biol, Norwich NR4 7UH, Norfolk, England.
p77
aV[Cosson, Viviane; Mondy, Samuel; Ratet, Pascal] CNRS, Inst Sci Vegetale, F-91198 Gif Sur Yvette, France.
p78
aV[Muni, RajaSekhara Reddy Duvvuru] Monsanto Holdings Pvt Ltd, Monsanto Res Ctr, NH7, Bangalore 560092, Karnataka, India.
p79
aV[Benedito, Vagner A.] W Virginia Univ, Davies Coll Agr Nat Resources & Design, Div Plant & Soil Sci, Morgantown, WV 26506 USA.
p80
aV[Andriankaja, Andry] Badische Anilin & Soda Fabrik Plant Sci Co, D-67117 Limburgerhof, Germany.
p81
aV[Tadege, Million] Oklahoma State Univ, Inst Agr Biosci, Ardmore, OK 73401 USA.
p82
asS'publisherAddress'
p83
V15501 MONONA DRIVE, ROCKVILLE, MD 20855 USA
p84
sS'ER'
p85
V
sS'publisher'
p86
VAMER SOC PLANT BIOLOGISTS
p87
sS'authorKeywords'
p88
(lp89
VLEGUME LOTUS-JAPONICUS
p90
aVRECEPTOR-LIKE KINASE
p91
aVDEPENDENT PROTEIN-KINASE
p92
aVGENE-EXPRESSION ATLAS
p93
aVROOT-NODULES
p94
aVT-DNA
p95
aVRHIZOBIUM-MELILOTI
p96
aVARABIDOPSIS-THALIANA
p97
aVSYSTEMIC REGULATION
p98
aVREVERSE GENETICS
p99
asS'language'
p100
VEnglish
p101
sS'wosid'
p102
VWOS:000307236700030
p103
sS'citationCount'
p104
I124
sS'authors_init'
p105
(lp106
(VPISLARIU
VC I
tp107
a(VMURRAY
VJ D
tp108
a(VWEN
VJ Q
tp109
a(VCOSSON
VV
tp110
a(VMUNI
VR R D
tp111
a(VWANG
VM Y
tp112
a(VBENEDITO
VV A
tp113
a(VANDRIANKAJA
VA
tp114
a(VCHENG
VX F
tp115
a(VJEREZ
VI T
tp116
a(VMONDY
VS
tp117
a(VZHANG
VS L
tp118
a(VTAYLOR
VM E
tp119
a(VTADEGE
VM
tp120
a(VRATET
VP
tp121
a(VMYSORE
VK S
tp122
a(VCHEN
VR J
tp123
a(VUDVARDI
VM K
tp124
asS'citedReferences'
p125
(lp126
g1
(g2
g3
NtRp127
(dp128
g70
V10.1126/science.1086391
p129
sg66
VSCIENCE
p130
sg68
V301
p131
sg105
(lp132
(VALONSO
VJ M
tp133
asg21
I2003
sg64
V653
p134
sbag1
(g2
g3
NtRp135
(dp136
g70
V10.1046/j.1365-313X.2003.01743.x
p137
sg66
VPlant Journal
p138
sg68
V34
p139
sg105
(lp140
(VAMOR
VBESMA B E N
tp141
asg21
I2003
sg64
Vlant
p142
sbag1
(g2
g3
NtRp143
(dp144
g70
V10.1105/tpc.107.052944
p145
sg66
VPLANT CELL
p146
sg68
V19
p147
sg105
(lp148
(VANDRIANKAJA
VA
tp149
asg21
I2007
sg64
VLANT
p150
sbag1
(g2
g3
NtRp151
(dp152
g70
V10.1126/science.1092986
p153
sg66
VSCIENCE
p154
sg68
V303
p155
sg105
(lp156
(VANE
VJ M
tp157
asg21
I2004
sg64
V1364
p158
sbag1
(g2
g3
NtRp159
(dp160
g70
V10.1016/j.pbi.2008.11.005
p161
sg66
VCURR OPIN PLANT BIOL
p162
sg68
V12
p163
sg105
(lp164
(VYOUNG
VN D
tp165
asg21
I2009
sg64
V193
p166
sbag1
(g2
g3
NtRp167
(dp168
g70
Nsg66
VPLANT CELL
p169
sg68
V6
sg105
(lp170
(VARDOUREL
VM
tp171
asg21
I1994
sg64
VLANT
p172
sbag1
(g2
g3
NtRp173
(dp174
g70
V10.1104/pp.106.084657
p175
sg66
VPLANT PHYSIOL
p176
sg68
V142
p177
sg105
(lp178
(VARRIGHI
VJ F
tp179
asg21
I2006
sg64
VLANT
p180
sbag1
(g2
g3
NtRp181
(dp182
g70
V10.1073/pnas.0710273105
p183
sg66
VP NATL ACAD SCI USA
p184
sg68
V105
p185
sg105
(lp186
(VARRIGHI
VJ F
tp187
asg21
I2008
sg64
V9817
p188
sbag1
(g2
g3
NtRp189
(dp190
g70
V10.1094/MPMI.2004.17.3.292
p191
sg66
VMOL PLANT MICROBE IN
p192
sg68
V17
p193
sg105
(lp194
(VBECKER
VA
tp195
asg21
I2004
sg64
V292
p196
sbag1
(g2
g3
NtRp197
(dp198
g70
Nsg66
VPLANT PHYSIOL
p199
sg68
V107
p200
sg105
(lp201
(VBENABEN
VV
tp202
asg21
I1995
sg64
VLANT
p203
sbag1
(g2
g3
NtRp204
(dp205
g70
V10.1111/j.1365-313X.2008.03519.x
p206
sg66
VPLANT J
p207
sg68
V55
p208
sg105
(lp209
(VBENEDITO
VV A
tp210
asg21
I2008
sg64
VLANT
p211
sbag1
(g2
g3
NtRp212
(dp213
g70
Nsg66
VPLANT CELL
p214
sg68
V2
sg105
(lp215
(VBOIVIN
VC
tp216
asg21
I1990
sg64
VLANT
p217
sbag1
(g2
g3
NtRp218
(dp219
g70
V10.1080/07352680490480734
p220
sg66
VCRIT REV PLANT SCI
p221
sg68
V23
p222
sg105
(lp223
(VBREWIN
VN J
tp224
asg21
I2004
sg64
V293
p225
sbag1
(g2
g3
NtRp226
(dp227
g70
V10.1094/MPMI-18-0521
p228
sg66
VMOL PLANT MICROBE IN
p229
sg68
V18
p230
sg105
(lp231
(VBRIGHT
VL J
tp232
asg21
I2005
sg64
V521
p233
sbag1
(g2
g3
NtRp234
(dp235
g70
V10.1079/PAVSNNR2006023
p236
sg66
VCAB Reviews
p237
sg68
Veterinary
p238
sg105
(lp239
(VBROCARD
VL
tp240
asg21
I2006
sg64
Nsbag1
(g2
g3
NtRp241
(dp242
g70
Nsg66
VBIOCHEM J
p243
sg68
V125
p244
sg105
(lp245
(VBROUGHTOWJ
S''
tp246
asg21
I1971
sg64
V1075
p247
sbag1
(g2
g3
NtRp248
(dp249
g70
V10.1105/tpc.12.9.1647
p250
sg66
VPLANT CELL
p251
sg68
V12
p252
sg105
(lp253
(VCATOIRA
VR
tp254
asg21
I2000
sg64
VLANT
p255
sbag1
(g2
g3
NtRp256
(dp257
g70
V10.1105/tpc.108.063255
p258
sg66
VPLANT CELL
p259
sg68
V20
p260
sg105
(lp261
(VCHARPENTIER
VM
tp262
asg21
I2008
sg64
VLANT
p263
sbag1
(g2
g3
NtRp264
(dp265
g70
V10.1007/978-1-60761-682-5_13
p266
sg66
VMETHODS MOL BIOL
p267
sg68
V678
p268
sg105
(lp269
(VCHENG
VX F
tp270
asg21
I2011
sg64
V179
p271
sbag1
(g2
g3
NtRp272
(dp273
g70
V10.1111/j.1365-313X.2004.02150.x
p274
sg66
VPLANT J
p275
sg68
V39
p276
sg105
(lp277
(VCOLEBATCH
VG
tp278
asg21
I2004
sg64
VLANT
p279
sbag1
(g2
g3
NtRp280
(dp281
g70
V10.1016/S1369-5266(99)80053-3
p282
sg66
VCURR OPIN PLANT BIOL
p283
sg68
V2
sg105
(lp284
(VCOOK
VD R
tp285
asg21
I1999
sg64
V301
p286
sbag1
(g2
g3
NtRp287
(dp288
g70
V10.1007/s11032-006-9003-8
p289
sg66
VMOL BREEDING
p290
sg68
V17
p291
sg105
(lp292
(VD'ERFURTH
VI
tp293
asg21
I2006
sg64
V317
p294
sbag1
(g2
g3
NtRp295
(dp296
g70
V10.1007/s00438-003-0889-0
p297
sg66
VMOL GENET GENOMICS
p298
sg68
V269
p299
sg105
(lp300
(VD'ERFURTH
VI
tp301
asg21
I2003
sg64
V732
p302
sbag1
(g2
g3
NtRp303
(dp304
g70
V10.1046/j.1365-313X.2003.01701.x
p305
sg66
VPLANT J
p306
sg68
V34
p307
sg105
(lp308
(VD'ERFURTH
VI
tp309
asg21
I2003
sg64
VLANT
p310
sbag1
(g2
g3
NtRp311
(dp312
g70
V10.1038/nature00842
p313
sg66
VNATURE
p314
sg68
V417
p315
sg105
(lp316
(VENDRE
VG
tp317
asg21
I2002
sg64
V962
p318
sbag1
(g2
g3
NtRp319
(dp320
g70
V10.1111/j.1744-7909.2010.00899.x
p321
sg66
VJ INTEGR PLANT BIOL
p322
sg68
V52
p323
sg105
(lp324
(VFERGUSON
VB J
tp325
asg21
I2010
sg64
V61
p326
sbag1
(g2
g3
NtRp327
(dp328
g70
Nsg66
VJ BACTERIOL
p329
sg68
V158
p330
sg105
(lp331
(VFUHRMANN
VM
tp332
asg21
I1984
sg64
V1005
p333
sbag1
(g2
g3
NtRp334
(dp335
g70
V10.1111/j.1469-8137.1980.tb04556.x
p336
sg66
VNEW PHYTOL
p337
sg68
V84
p338
sg105
(lp339
(VGIOVANNETTI
VM
tp340
asg21
I1980
sg64
V489
p341
sbag1
(g2
g3
NtRp342
(dp343
g70
V10.1073/pnas.0401540101
p344
sg66
VP NATL ACAD SCI USA
p345
sg68
V101
p346
sg105
(lp347
(VGOORMACHTIG
VS
tp348
asg21
I2004
sg64
V6303
p349
sbag1
(g2
g3
NtRp350
(dp351
g70
V10.1104/pp.017004
p352
sg66
VPLANT PHYSIOL
p353
sg68
V131
p354
sg105
(lp355
(VGRAHAM
VP H
tp356
asg21
I2003
sg64
VLANT
p357
sbag1
(g2
g3
NtRp358
(dp359
g70
V10.1093/pcp/pcr167
p360
sg66
VPLANT CELL PHYSIOL
p361
sg68
V53
p362
sg105
(lp363
(VHAKOYAMA
VT
tp364
asg21
I2012
sg64
VLANT
p365
sbag1
(g2
g3
NtRp366
(dp367
g70
V10.1038/nature08594
p368
sg66
VNATURE
p369
sg68
V462
p370
sg105
(lp371
(VHAKOYAMA
VT
tp372
asg21
I2009
sg64
V514
p373
sbag1
(g2
g3
NtRp374
(dp375
g70
V10.1104/pp.111.181206
p376
sg66
VPLANT PHYSIOL
p377
sg68
V157
p378
sg105
(lp379
(VHANCOCK
VC N
tp380
asg21
I2011
sg64
VLANT
p381
sbag1
(g2
g3
NtRp382
(dp383
g70
V10.1111/j.1365-313X.1992.00487.x
p384
sg66
VPLANT J
p385
sg68
V2
sg105
(lp386
(VHANDBERG
VK
tp387
asg21
I1992
sg64
VLANT
p388
sbag1
(g2
g3
NtRp389
(dp390
g70
V10.1073/pnas.0910081107
p391
sg66
VP NATL ACAD SCI USA
p392
sg68
V107
p393
sg105
(lp394
(VHANEY
VC H
tp395
asg21
I2010
sg64
V478
p396
sbag1
(g2
g3
NtRp397
(dp398
g70
V10.1111/j.1365-313X.2010.04228.x
p399
sg66
VPLANT J
p400
sg68
V63
p401
sg105
(lp402
(VHAYASHI
VT
tp403
asg21
I2010
sg64
VLANT
p404
sbag1
(g2
g3
NtRp405
(dp406
g70
V10.1186/1471-2105-10-441
p407
sg66
VBMC BIOINFORMATICS
p408
sg68
V10
p409
sg105
(lp410
(VHE
VJ
tp411
asg21
I2009
sg64
Nsbag1
(g2
g3
NtRp412
(dp413
g70
V10.1105/tpc.12.3.357
p414
sg66
VPLANT CELL
p415
sg68
V12
p416
sg105
(lp417
(VHIROCHIKA
VH
tp418
asg21
I2000
sg64
VLANT
p419
sbag1
(g2
g3
NtRp420
(dp421
g70
V10.1371/journal.pone.0006556
p422
sg66
VPLOS ONE
p423
sg68
V4
sg105
(lp424
(VHOGSLUND
VN
tp425
asg21
I2009
sg64
VLOS
p426
sbag1
(g2
g3
NtRp427
(dp428
g70
V10.1094/MPMI-01-11-0015
p429
sg66
VMOL PLANT MICROBE IN
p430
sg68
V24
p431
sg105
(lp432
(VHORVATH
VB
tp433
asg21
I2011
sg64
V1345
p434
sbag1
(g2
g3
NtRp435
(dp436
g70
V10.1073/pnas.0508883103
p437
sg66
VP NATL ACAD SCI USA
p438
sg68
V103
p439
sg105
(lp440
(VKANAMORI
VN
tp441
asg21
I2006
sg64
V359
p442
sbag1
(g2
g3
NtRp443
(dp444
g70
V10.1128/JB.00165-09
p445
sg66
VJ BACTERIOL
p446
sg68
V191
p447
sg105
(lp448
(VKARUNAKARAN
VR
tp449
asg21
I2009
sg64
V4002
p450
sbag1
(g2
g3
NtRp451
(dp452
g70
V10.1105/tpc.107.053975
p453
sg66
VPLANT CELL
p454
sg68
V19
p455
sg105
(lp456
(VKEVEI
VZ
tp457
asg21
I2007
sg64
VLANT
p458
sbag1
(g2
g3
NtRp459
(dp460
g70
V10.1002/(SICI)1521-4133(19985)100:4/5<173::AID-LIPI173>3.3.CO;2-4
p461
sg66
VFETT
p462
sg68
V100
p463
sg105
(lp464
(VKINNEY
VA J
tp465
asg21
I1998
sg64
V173
p466
sbag1
(g2
g3
NtRp467
(dp468
g70
V10.1104/pp.109.143933
p469
sg66
VPLANT PHYSIOL
p470
sg68
V151
p471
sg105
(lp472
(VKISS
VE
tp473
asg21
I2009
sg64
VLANT
p474
sbag1
(g2
g3
NtRp475
(dp476
g70
V10.1105/tpc.105.032714
p477
sg66
VPLANT CELL
p478
sg68
V17
p479
sg105
(lp480
(VKISTNER
VC
tp481
asg21
I2005
sg64
VLANT
p482
sbag1
(g2
g3
NtRp483
(dp484
g70
V10.1093/pcp/pcq107
p485
sg66
VPLANT CELL PHYSIOL
p486
sg68
V51
p487
sg105
(lp488
(VKOUCHI
VH
tp489
asg21
I2010
sg64
VLANT
p490
sbag1
(g2
g3
NtRp491
(dp492
g70
V10.1105/tpc.104.030106
p493
sg66
VPLANT CELL
p494
sg68
V17
p495
sg105
(lp496
(VKRUSELL
VL
tp497
asg21
I2005
sg64
VLANT
p498
sbag1
(g2
g3
NtRp499
(dp500
g70
V10.1038/nature01207
p501
sg66
VNATURE
p502
sg68
V420
p503
sg105
(lp504
(VKRUSELL
VL
tp505
asg21
I2002
sg64
V422
p506
sbag1
(g2
g3
NtRp507
(dp508
g70
V10.1105/tpc.11.12.2283
p509
sg66
VPLANT CELL
p510
sg68
V11
p511
sg105
(lp512
(VKRYSAN
VP J
tp513
asg21
I1999
sg64
VLANT
p514
sbag1
(g2
g3
NtRp515
(dp516
g70
V10.1146/annurev.genet.33.1.479
p517
sg66
VANNU REV GENET
p518
sg68
V33
p519
sg105
(lp520
(VKUMAR
VA
tp521
asg21
I1999
sg64
V479
p522
sbag1
(g2
g3
NtRp523
(dp524
g70
V10.1073/pnas.0913320107
p525
sg66
VP NATL ACAD SCI USA
p526
sg68
V107
p527
sg105
(lp528
(VLEFEBVRE
VB
tp529
asg21
I2010
sg64
V2343
p530
sbag1
(g2
g3
NtRp531
(dp532
g70
V10.1126/science.1093038
p533
sg66
VSCIENCE
p534
sg68
V303
p535
sg105
(lp536
(VLEVY
VJ
tp537
asg21
I2004
sg64
V1361
p538
sbag1
(g2
g3
NtRp539
(dp540
g70
V10.1111/j.1365-313X.2010.04222.x
p541
sg66
VPLANT J
p542
sg68
V63
p543
sg105
(lp544
(VLIBAULT
VM
tp545
asg21
I2010
sg64
VLANT
p546
sbag1
(g2
g3
NtRp547
(dp548
g70
V10.1126/science.1090074
p549
sg66
VSCIENCE
p550
sg68
V302
p551
sg105
(lp552
(VLIMPENS
VE
tp553
asg21
I2003
sg64
V630
p554
sbag1
(g2
g3
NtRp555
(dp556
g70
V10.1016/0888-7543(95)80010-J
p557
sg66
VGENOMICS
p558
sg68
V25
p559
sg105
(lp560
(VLIU
VY G
tp561
asg21
I1995
sg64
V674
p562
sbag1
(g2
g3
NtRp563
(dp564
g70
V10.1038/nature02045
p565
sg66
VNATURE
p566
sg68
V425
p567
sg105
(lp568
(VMADSEN
VE B
tp569
asg21
I2003
sg64
V637
p570
sbag1
(g2
g3
NtRp571
(dp572
g70
V10.1111/j.1365-313X.2005.02534.x
p573
sg66
VPLANT J
p574
sg68
V44
p575
sg105
(lp576
(VMADSEN
VL H
tp577
asg21
I2005
sg64
VLANT
p578
sbag1
(g2
g3
NtRp579
(dp580
g70
V10.1038/nature09622
p581
sg66
VNATURE
p582
sg68
V469
p583
sg105
(lp584
(VMAILLET
VF
tp585
asg21
I2011
sg64
V58
p586
sbag1
(g2
g3
NtRp587
(dp588
g70
V10.1104/pp.106.093021
p589
sg66
VPLANT PHYSIOL
p590
sg68
V144
p591
sg105
(lp592
(VMARSH
VJ F
tp593
asg21
I2007
sg64
VLANT
p594
sbag1
(g2
g3
NtRp595
(dp596
g70
V10.1094/MPMI.1999.12.4.275
p597
sg66
VMOL PLANT MICROBE IN
p598
sg68
V12
p599
sg105
(lp600
(VMARTIRANI
VL
tp601
asg21
I1999
sg64
V275
p602
sbag1
(g2
g3
NtRp603
(dp604
g70
V10.1007/s00425-008-0827-9
p605
sg66
VPLANTA
p606
sg68
V229
p607
sg105
(lp608
(VMATHIEU
VM
tp609
asg21
I2009
sg64
VLANTA
p610
sbag1
(g2
g3
NtRp611
(dp612
g70
V10.1371/journal.pone.0009519
p613
sg66
VPLOS ONE
p614
sg68
V5
sg105
(lp615
(VMAUNOURY
VN
tp616
asg21
I2010
sg64
VLOS
p617
sbag1
(g2
g3
NtRp618
(dp619
g70
V10.1073/pnas.0600912103
p620
sg66
VP NATL ACAD SCI USA
p621
sg68
V103
p622
sg105
(lp623
(VMERGAERT
VP
tp624
asg21
I2006
sg64
V5230
p625
sbag1
(g2
g3
NtRp626
(dp627
g70
V10.1105/tpc.106.048264
p628
sg66
VPLANT CELL
p629
sg68
V19
p630
sg105
(lp631
(VMIDDLETON
VP H
tp632
asg21
I2007
sg64
VLANT
p633
sbag1
(g2
g3
NtRp634
(dp635
g70
V10.1073/pnas.0402186101
p636
sg66
VP NATL ACAD SCI USA
p637
sg68
V101
p638
sg105
(lp639
(VMITRA
VR M
tp640
asg21
I2004
sg64
V10217
p641
sbag1
(g2
g3
NtRp642
(dp643
g70
V10.1073/pnas.0400595101
p644
sg66
VP NATL ACAD SCI USA
p645
sg68
V101
p646
sg105
(lp647
(VMITRA
VR M
tp648
asg21
I2004
sg64
V4701
p649
sbag1
(g2
g3
NtRp650
(dp651
g70
V10.1094/MPMI-06-10-0144
p652
sg66
VMOL PLANT MICROBE IN
p653
sg68
V23
p654
sg105
(lp655
(VMIYAHARA
VA
tp656
asg21
I2010
sg64
V1553
p657
sbag1
(g2
g3
NtRp658
(dp659
g70
V10.1242/dev.058891
p660
sg66
VDEVELOPMENT
p661
sg68
V137
p662
sg105
(lp663
(VMIYAZAWA
VH
tp664
asg21
I2010
sg64
V4317
p665
sbag1
(g2
g3
NtRp666
(dp667
g70
V10.1007/s00572-004-0331-4
p668
sg66
VMYCORRHIZA
p669
sg68
V15
p670
sg105
(lp671
(VMORANDI
VD
tp672
asg21
I2005
sg64
V283
p673
sbag1
(g2
g3
NtRp674
(dp675
g70
V10.1104/pp.110.153718
p676
sg66
VPLANT PHYSIOL
p677
sg68
V153
p678
sg105
(lp679
(VMORTIER
VV
tp680
asg21
I2010
sg64
VLANT
p681
sbag1
(g2
g3
NtRp682
(dp683
g70
V10.1126/science.1132514
p684
sg66
VSCIENCE
p685
sg68
V315
p686
sg105
(lp687
(VMURRAY
VJ D
tp688
asg21
I2007
sg64
V101
p689
sbag1
(g2
g3
NtRp690
(dp691
g70
V10.1111/j.1365-313X.2010.04415.x
p692
sg66
VPLANT J
p693
sg68
V65
p694
sg105
(lp695
(VMURRAY
VJ D
tp696
asg21
I2011
sg64
VLANT
p697
sbag1
(g2
g3
NtRp698
(dp699
g70
V10.1094/MPMI-08-10-0181
p700
sg66
VMOL PLANT MICROBE IN
p701
sg68
V24
p702
sg105
(lp703
(VMURRAY
VJ D
tp704
asg21
I2011
sg64
V631
p705
sbag1
(g2
g3
NtRp706
(dp707
g70
V10.1073/pnas.222304699
p708
sg66
VP NATL ACAD SCI USA
p709
sg68
V99
p710
sg105
(lp711
(VNISHIMURA
VR
tp712
asg21
I2002
sg64
V15206
p713
sbag1
(g2
g3
NtRp714
(dp715
g70
Nsg66
VJ BACTERIOL
p716
sg68
V167
p717
sg105
(lp718
(VNOTI
VJ D
tp719
asg21
I1986
sg64
V774
p720
sbag1
(g2
g3
NtRp721
(dp722
g70
V10.1046/j.1365-313x.2000.00779.x
p723
sg66
VPLANT J
p724
sg68
V23
p725
sg105
(lp726
(VOKAMOTO
VH
tp727
asg21
I2000
sg64
VLANT
p728
sbag1
(g2
g3
NtRp729
(dp730
g70
V10.1093/pcp/pcn194
p731
sg66
VPLANT CELL PHYSIOL
p732
sg68
V50
p733
sg105
(lp734
(VOKAMOTO
VS
tp735
asg21
I2009
sg64
VLANT
p736
sbag1
(g2
g3
NtRp737
(dp738
g70
V10.1146/annurev.arplant.59.032607.092839
p739
sg66
VANNU REV PLANT BIOL
p740
sg68
V59
p741
sg105
(lp742
(VOLDROYD
VG E D
tp743
asg21
I2008
sg64
V519
p744
sbag1
(g2
g3
NtRp745
(dp746
g70
V10.1146/annurev-genet-110410-132549
p747
sg66
VANNU REV GENET
p748
sg68
V45
p749
sg105
(lp750
(VOLDROYD
VG E D
tp751
asg21
I2011
sg64
V119
p752
sbag1
(g2
g3
NtRp753
(dp754
g70
V10.1104/pp.102.010710
p755
sg66
VPLANT PHYSIOL
p756
sg68
V131
p757
sg105
(lp758
(VOLDROYD
VG E D
tp759
asg21
I2003
sg64
VLANT
p760
sbag1
(g2
g3
NtRp761
(dp762
g70
V10.1016/j.cub.2005.01.042
p763
sg66
VCURR BIOL
p764
sg68
V15
p765
sg105
(lp766
(VOTT
VT
tp767
asg21
I2005
sg64
V531
p768
sbag1
(g2
g3
NtRp769
(dp770
g70
V10.1094/MPMI-01-11-0013
p771
sg66
VMOL PLANT MICROBE IN
p772
sg68
V24
p773
sg105
(lp774
(VOVCHINNIKOVA
VE
tp775
asg21
I2011
sg64
V1333
p776
sbag1
(g2
g3
NtRp777
(dp778
g70
Nsg66
VTRANSPOSON TAGGING L
p779
sg68
Nsg105
(lp780
(VPAJUELO
VE
tp781
asg21
I1996
sg64
Nsbag1
(g2
g3
NtRp782
(dp783
g70
V10.1104/pp.123.4.1387
p784
sg66
VPLANT PHYSIOL
p785
sg68
V123
p786
sg105
(lp787
(VPENMETSA
VR V
tp788
asg21
I2000
sg64
VLANT
p789
sbag1
(g2
g3
NtRp790
(dp791
g70
V10.1111/j.1365-313X.2008.03531.x
p792
sg66
VPLANT J
p793
sg68
V55
p794
sg105
(lp795
(VPENMETSA
VR V
tp796
asg21
I2008
sg64
VLANT
p797
sbag1
(g2
g3
NtRp798
(dp799
g70
V10.1104/pp.106.092494
p800
sg66
VPLANT PHYSIOL
p801
sg68
V144
p802
sg105
(lp803
(VPISLARIU
VC I
tp804
asg21
I2007
sg64
VLANT
p805
sbag1
(g2
g3
NtRp806
(dp807
g70
V10.1016/j.tim.2006.02.005
p808
sg66
VTRENDS MICROBIOL
p809
sg68
V14
p810
sg105
(lp811
(VPRELL
VJ
tp812
asg21
I2006
sg64
V161
p813
sbag1
(g2
g3
NtRp814
(dp815
g70
V10.1038/nature02039
p816
sg66
VNATURE
p817
sg68
V425
p818
sg105
(lp819
(VRADUTOIU
VS
tp820
asg21
I2003
sg64
V585
p821
sbag1
(g2
g3
NtRp822
(dp823
g70
Nsg66
VMol Biol 
p824
sg68
V44
p825
sg105
(lp826
(VRAJPUT
VM K
tp827
asg21
I2010
sg64
V601
p828
sbag1
(g2
g3
NtRp829
(dp830
g70
V10.1104/pp.109.138024
p831
sg66
VPLANT PHYSIOL
p832
sg68
V151
p833
sg105
(lp834
(VRAKOCEVIC
VA
tp835
asg21
I2009
sg64
VLANT
p836
sbag1
(g2
g3
NtRp837
(dp838
g70
V10.1002/9783527629398.ch5
p839
sg66
VThe handbook of plant mutation screening
p840
sg68
Nsg105
(lp841
(VRATET
VP
tp842
asg21
I2010
sg64
V83
p843
sbag1
(g2
g3
NtRp844
(dp845
g70
VDOI 10.1111/J.1365-313X.2007.03175.X
p846
sg66
VPLANT J
p847
sg68
V51
p848
sg105
(lp849
(VREDDY
VDMRS
tp850
asg21
I2007
sg64
VLANT
p851
sbag1
(g2
g3
NtRp852
(dp853
g70
V10.1094/MPMI-09-10-0207
p854
sg66
VMOL PLANT MICROBE IN
p855
sg68
V24
p856
sg105
(lp857
(VREID
VD E
tp858
asg21
I2011
sg64
V606
p859
sbag1
(g2
g3
NtRp860
(dp861
g70
V10.1111/j.1365-313X.2006.02957.x
p862
sg66
VPLANT J
p863
sg68
V49
p864
sg105
(lp865
(VRIELY
VB K
tp866
asg21
I2007
sg64
VLANT
p867
sbag1
(g2
g3
NtRp868
(dp869
g70
V10.1073/pnas.93.26.15305
p870
sg66
VP NATL ACAD SCI USA
p871
sg68
V93
p872
sg105
(lp873
(VROCHE
VP
tp874
asg21
I1996
sg64
V15305
p875
sbag1
(g2
g3
NtRp876
(dp877
g70
V10.1104/pp.109.142919
p878
sg66
VPLANT PHYSIOL
p879
sg68
V151
p880
sg105
(lp881
(VROGERS
VC
tp882
asg21
I2009
sg64
VLANT
p883
sbag1
(g2
g3
NtRp884
(dp885
g70
V10.1105/tpc.106.046938
p886
sg66
VPLANT CELL
p887
sg68
V19
p888
sg105
(lp889
(VSAITO
VK
tp890
asg21
I2007
sg64
VLANT
p891
sbag1
(g2
g3
NtRp892
(dp893
g70
V10.1038/46058
p894
sg66
VNATURE
p895
sg68
V402
p896
sg105
(lp897
(VSCHAUSER
VL
tp898
asg21
I1999
sg64
V191
p899
sbag1
(g2
g3
NtRp900
(dp901
g70
Nsg66
VMOL GEN GENET
p902
sg68
V259
p903
sg105
(lp904
(VSCHAUSER
VL
tp905
asg21
I1998
sg64
V414
p906
sbag1
(g2
g3
NtRp907
(dp908
g70
V10.1007/s11103-005-8102-y
p909
sg66
VPLANT MOL BIOL
p910
sg68
V58
p911
sg105
(lp912
(VSCHNABEL
VE
tp913
asg21
I2005
sg64
VLANT
p914
sbag1
(g2
g3
NtRp915
(dp916
g70
V10.1104/pp.111.178756
p917
sg66
VPLANT PHYSIOL
p918
sg68
V157
p919
sg105
(lp920
(VSCHNABEL
VE L
tp921
asg21
I2011
sg64
VLANT
p922
sbag1
(g2
g3
NtRp923
(dp924
g70
V10.1023/A:1020564612093
p925
sg66
VMOL BREEDING
p926
sg68
V10
p927
sg105
(lp928
(VSCHOLTE
VM
tp929
asg21
I2002
sg64
V203
p930
sbag1
(g2
g3
NtRp931
(dp932
g70
V10.1186/1471-2229-10-160
p933
sg66
VBMC PLANT BIOL
p934
sg68
V10
p935
sg105
(lp936
(VSEVERIN
VA J
tp937
asg21
I2010
sg64
Nsbag1
(g2
g3
NtRp938
(dp939
g70
Nsg66
VTP HIGN MEM LECT FLO
p940
sg68
Nsg105
(lp941
(VSMIL
VV
tp942
asg21
I1999
sg64
Nsbag1
(g2
g3
NtRp943
(dp944
g70
V10.1104/pp.107.100495
p945
sg66
VPLANT PHYSIOL
p946
sg68
V145
p947
sg105
(lp948
(VSMIT
VP
tp949
asg21
I2007
sg64
VLANT
p950
sbag1
(g2
g3
NtRp951
(dp952
g70
V10.1126/science.1111025
p953
sg66
VSCIENCE
p954
sg68
V308
p955
sg105
(lp956
(VSMIT
VP
tp957
asg21
I2005
sg64
V1789
p958
sbag1
(g2
g3
NtRp959
(dp960
g70
V10.1104/pp.105.072132
p961
sg66
VPLANT PHYSIOL
p962
sg68
V140
p963
sg105
(lp964
(VSTARKER
VC G
tp965
asg21
I2006
sg64
VLANT
p966
sbag1
(g2
g3
NtRp967
(dp968
g70
Nsg66
VSugar Tech
p969
sg68
V12
p970
sg105
(lp971
(VSUPRASANNA
VP
tp972
asg21
I2010
sg64
V26
p973
sbag1
(g2
g3
NtRp974
(dp975
g70
V10.1094/MPMI.1998.11.7.684
p976
sg66
VMOL PLANT MICROBE IN
p977
sg68
V11
p978
sg105
(lp979
(VSZCZYGLOWSKI
VK
tp980
asg21
I1998
sg64
V684
p981
sbag1
(g2
g3
NtRp982
(dp983
g70
V10.1104/pp.109.144097
p984
sg66
VPLANT PHYSIOL
p985
sg68
V151
p986
sg105
(lp987
(VTADEGE
VM
tp988
asg21
I2009
sg64
VLANT
p989
sbag1
(g2
g3
NtRp990
(dp991
g70
V10.1016/j.tplants.2005.03.009
p992
sg66
VTRENDS PLANT SCI
p993
sg68
V10
p994
sg105
(lp995
(VTADEGE
VM
tp996
asg21
I2005
sg64
V229
p997
sbag1
(g2
g3
NtRp998
(dp999
g70
V10.1094/MPMI-21-5-0535
p1000
sg66
VMOL PLANT MICROBE IN
p1001
sg68
V21
p1002
sg105
(lp1003
(VTEILLET
VA
tp1004
asg21
I2008
sg64
V535
p1005
sbag1
(g2
g3
NtRp1006
(dp1007
g70
V10.1007/BF00037025
p1008
sg66
VPLANT MOL BIOL
p1009
sg68
V27
p1010
sg105
(lp1011
(VTHYKJAER
VT
tp1012
asg21
I1995
sg64
VLANT
p1013
sbag1
(g2
g3
NtRp1014
(dp1015
g70
Nsg66
VANNU REV PLANT PHYS
p1016
sg68
V48
p1017
sg105
(lp1018
(VUDVARDI
VM K
tp1019
asg21
I1997
sg64
V493
p1020
sbag1
(g2
g3
NtRp1021
(dp1022
g70
V10.1016/j.tplants.2005.03.008
p1023
sg66
VTRENDS PLANT SCI
p1024
sg68
V10
p1025
sg105
(lp1026
(VUDVARDI
VM K
tp1027
asg21
I2005
sg64
V222
p1028
sbag1
(g2
g3
NtRp1029
(dp1030
g70
V10.1111/j.1365-313X.2011.04827.x
p1031
sg66
VPLANT J
p1032
sg68
V69
p1033
sg105
(lp1034
(VURBANSKI
VD F
tp1035
asg21
I2012
sg64
VLANT
p1036
sbag1
(g2
g3
NtRp1037
(dp1038
g70
V10.1104/pp.104.049064
p1039
sg66
VPLANT PHYSIOL
p1040
sg68
V136
p1041
sg105
(lp1042
(VVEERESHLINGAM
VH
tp1043
asg21
I2004
sg64
VLANT
p1044
sbag1
(g2
g3
NtRp1045
(dp1046
g70
V10.1126/science.1184096
p1047
sg66
VSCIENCE
p1048
sg68
V327
p1049
sg105
(lp1050
(VWANG
VD
tp1051
asg21
I2010
sg64
V1126
p1052
sbag1
(g2
g3
NtRp1053
(dp1054
g70
Nsg66
VPLANT J
p1055
sg68
V54
p1056
sg105
(lp1057
(VWEN
VJ
tp1058
asg21
I2008
sg64
VLANT
p1059
sbag1
(g2
g3
NtRp1060
(dp1061
g70
V10.1104/pp.107.097741
p1062
sg66
VPLANT PHYSIOL
p1063
sg68
V144
p1064
sg105
(lp1065
(VWHITE
VJ
tp1066
asg21
I2007
sg64
VLANT
p1067
sbag1
(g2
g3
NtRp1068
(dp1069
g70
V10.1111/j.1365-313X.2009.03943.x
p1070
sg66
VPLANT J
p1071
sg68
V60
p1072
sg105
(lp1073
(VYANO
VK
tp1074
asg21
I2009
sg64
VLANT
p1075
sbag1
(g2
g3
NtRp1076
(dp1077
g70
V10.1111/j.1365-313X.2010.04134.x
p1078
sg66
VPLANT J
p1079
sg68
V62
p1080
sg105
(lp1081
(VYENDREK
VC R
tp1082
asg21
I2010
sg64
VLANT
p1083
sbag1
(g2
g3
NtRp1084
(dp1085
g70
V10.1105/tpc.108.063693
p1086
sg66
VPLANT CELL
p1087
sg68
V21
p1088
sg105
(lp1089
(VYOKOTA
VK
tp1090
asg21
I2009
sg64
VLANT
p1091
sbasb.