ccopy_reg
_reconstructor
p1
(ctethne.classes.paper
Paper
p2
c__builtin__
object
p3
NtRp4
(dp5
S'publisherCity'
p6
VROCKVILLE
p7
sS'reprintAddress'
p8
VDobritsa, AA (reprint author), Univ Chicago, Dept Mol Genet & Cell Biol, 920 E 58th St, Chicago, IL 60637 USA.
p9
sS'WC'
p10
VPlant Sciences
p11
sS'GA'
p12
V501NV
p13
sS'FX'
p14
(lp15
VThis work was supported by the National Science Foundation Arabidopsis
p16
aV2010 project (grant no. MCB-0520283 to D. P.), by a Danish National
p17
aVResearch Foundation grant to the Center of Molecular Plant Physiology,
p18
aVand by a Villum Kann Rasmussen Foundation grant to the VKR Research
p19
aVCentre "Pro-Active Plants" (to B. L. M.).
p20
asS'abstract'
p21
VSporopollenin is the major component of the outer pollen wall (exine). Fatty acid derivatives and phenolics are thought to be its monomeric building blocks, but the precise structure, biosynthetic route, and genetics of sporopollenin are poorly understood. Based on a phenotypic mutant screen in Arabidopsis (Arabidopsis thaliana), we identified a cytochrome P450, designated CYP704B1, as being essential for exine development. CYP704B1 is expressed in the developing anthers. Mutations in CYP704B1 result in impaired pollen walls that lack a normal exine layer and exhibit a characteristic striped surface, termed zebra phenotype. Heterologous expression of CYP704B1 in yeast cells demonstrated that it catalyzes omega-hydroxylation of long-chain fatty acids, implicating these molecules in sporopollenin synthesis. Recently, an anther-specific cytochrome P450, denoted CYP703A2, that catalyzes in-chain hydroxylation of lauric acid was also shown to be involved in sporopollenin synthesis. This shows that different classes of hydroxylated fatty acids serve as essential compounds for sporopollenin formation. The genetic relationships between CYP704B1, CYP703A2, and another exine gene, MALE STERILITY2, which encodes a fatty acyl reductase, were explored. Mutations in all three genes resulted in pollen with remarkably similar zebra phenotypes, distinct from those of other known exine mutants. The double and triple mutant combinations did not result in the appearance of novel phenotypes or enhancement of single mutant phenotypes. This implies that each of the three genes is required to provide an indispensable subset of fatty acid-derived components within the sporopollenin biosynthesis framework.
p22
sS'pageEnd'
p23
I589
sS'date'
p24
I2009
sS'documentType'
p25
VArticle
p26
sS'subject'
p27
VPlant Sciences
p28
sS'isoSource'
p29
VPlant Physiol.
p30
sS'timesCited'
p31
(lp32
I53
aVZ9 55
p33
asS'funding'
p34
(lp35
(VNational Science Foundation Arabidopsis 2010 project
VMCB-0520283
tp36
a(VDanish National Research Foundation
Ntp37
a(VVillum Kann Rasmussen Foundation
Ntp38
asS'PT'
p39
VJ
sS'title'
p40
VCyp704B1 Is A Long-Chain Fatty Acid Omega-Hydroxylase Essential For Sporopollenin Synthesis In Pollen Of Arabidopsis
p41
sS'ISSN'
p42
(lp43
V0032-0889
p44
aVJ9 PLANT PHYSIOL
p45
asS'authors_full'
p46
(lp47
(VDOBRITSA
VANNA A
tp48
a(VSHRESTHA
VJAY
tp49
a(VMORANT
VMARC
tp50
a(VPINOT
VFRANCK
tp51
a(VMATSUNO
VMICHIYO
tp52
a(VSWANSON
VROBERT
tp53
a(VMOLLER
VBIRGER LINDBERG
tp54
a(VPREUSS
VDAPHNE
tp55
asS'PG'
p56
I16
sS'PD'
p57
VOCT
p58
sS'pageStart'
p59
I574
sS'issue'
p60
I2
sS'journal'
p61
VPLANT PHYSIOLOGY
p62
sS'volume'
p63
V151
p64
sS'doi'
p65
V10.1104/pp.109.144469
p66
sS'emailAddress'
p67
Vdobritsa@uchicago.edu
p68
sS'authorAddress'
p69
(lp70
V[Dobritsa, Anna A.; Shrestha, Jay; Preuss, Daphne] Univ Chicago, Dept Mol Genet & Cell Biol, Chicago, IL 60637 USA.
p71
aV[Morant, Marc; Moller, Birger Lindberg] Univ Copenhagen, Dept Plant Biol & Biotechnol, Fac Life Sci, Plant Biochem Lab, DK-1871 Frederiksberg C, Denmark.
p72
aV[Morant, Marc; Moller, Birger Lindberg] Univ Copenhagen, VKR Res Ctr Proact Plants, DK-1871 Frederiksberg C, Denmark.
p73
aV[Pinot, Franck; Matsuno, Michiyo] Univ Strasbourg, Dept Reseau Metab, Inst Biol Mol Plantes, CNRS,UPR2357, F-67083 Strasbourg, France.
p74
aV[Swanson, Robert] Valparaiso Univ, Dept Biol, Valparaiso, IN 46383 USA.
p75
asS'publisherAddress'
p76
V15501 MONONA DRIVE, ROCKVILLE, MD 20855 USA
p77
sS'ER'
p78
V
sS'publisher'
p79
VAMER SOC PLANT BIOLOGISTS
p80
sS'authorKeywords'
p81
(lp82
VMALE-STERILITY
p83
aVFUNCTIONAL EXPRESSION
p84
aVTYPHA-ANGUSTIFOLIA
p85
aVYEAST EXPRESSION
p86
aVMETHYL JASMONATE
p87
aVCYTOCHROME P450S
p88
aVCUTIN MONOMERS
p89
aVIN-VITRO
p90
aVTHALIANA
p91
aVGENOME
p92
asS'language'
p93
VEnglish
p94
sS'wosid'
p95
VWOS:000270389500008
p96
sS'citationCount'
p97
I66
sS'authors_init'
p98
(lp99
(VDOBRITSA
VA A
tp100
a(VSHRESTHA
VJ
tp101
a(VMORANT
VM
tp102
a(VPINOT
VF
tp103
a(VMATSUNO
VM
tp104
a(VSWANSON
VR
tp105
a(VMOLLER
VB L
tp106
a(VPREUSS
VD
tp107
asS'citedReferences'
p108
(lp109
g1
(g2
g3
NtRp110
(dp111
g65
V10.1046/j.1365-313X.1997.00615.x
p112
sg61
VPLANT J
p113
sg63
V12
p114
sg98
(lp115
(VAARTS
VM G M
tp116
asg24
I1997
sg59
VLANT
p117
sbag1
(g2
g3
NtRp118
(dp119
g65
V10.1038/363715a0
p120
sg61
VNATURE
p121
sg63
V363
p122
sg98
(lp123
(VAARTS
VM G M
tp124
asg24
I1993
sg59
V715
p125
sbag1
(g2
g3
NtRp126
(dp127
g65
V10.1016/S0031-9422(98)00225-8
p128
sg61
VPHYTOCHEMISTRY
p129
sg63
V50
p130
sg98
(lp131
(VAHLERS
VF
tp132
asg24
I1999
sg59
VHYTOCHEMISTRY
p133
sbag1
(g2
g3
NtRp134
(dp135
g65
Nsg61
VPatent No
p136
sg63
Nsg98
(lp137
(VALBERTSEN
VM C
tp138
asg24
I2006
sg59
Vatent
p139
sbag1
(g2
g3
NtRp140
(dp141
g65
V10.1126/science.1086391
p142
sg61
VSCIENCE
p143
sg63
V301
p144
sg98
(lp145
(VALONSO
VJ M
tp146
asg24
I2003
sg59
V653
p147
sbag1
(g2
g3
NtRp148
(dp149
g65
V10.1111/j.1365-313X.2004.02118.x
p150
sg61
VPLANT J
p151
sg63
V39
p152
sg98
(lp153
(VARIIZUMI
VT
tp154
asg24
I2004
sg59
VLANT
p155
sbag1
(g2
g3
NtRp156
(dp157
g65
V10.1023/B:PLAN.0000009269.97773.70
p158
sg61
VPLANT MOL BIOL
p159
sg63
V53
p160
sg98
(lp161
(VARIIZUMI
VT
tp162
asg24
I2003
sg59
VLANT
p163
sbag1
(g2
g3
NtRp164
(dp165
g65
V10.1006/bbrc.1998.8156
p166
sg61
VBIOCHEM BIOPH RES CO
p167
sg63
V243
p168
sg98
(lp169
(VBENVENISTE
VI
tp170
asg24
I1998
sg59
V688
p171
sbag1
(g2
g3
NtRp172
(dp173
g65
V10.1016/j.plantsci.2005.08.028
p174
sg61
VPLANT SCI
p175
sg63
V170
p176
sg98
(lp177
(VBENVENISTE
VI
tp178
asg24
I2006
sg59
VLANT
p179
sbag1
(g2
g3
NtRp180
(dp181
g65
Nsg61
VZ NATURFORSCH C
p182
sg63
V57
p183
sg98
(lp184
(VBUBERT
VH
tp185
asg24
I2002
sg59
V1035
p186
sbag1
(g2
g3
NtRp187
(dp188
g65
V10.1046/j.1365-313x.1998.00343.x
p189
sg61
VPLANT J
p190
sg63
V16
p191
sg98
(lp192
(VCLOUGH
VS J
tp193
asg24
I1998
sg59
VLANT
p194
sbag1
(g2
g3
NtRp195
(dp196
g65
V10.1104/pp.109.141408
p197
sg61
VPLANT PHYSIOL
p198
sg63
V150
p199
sg98
(lp200
(VCOMPAGNON
VV
tp201
asg24
I2009
sg59
VLANT
p202
sbag1
(g2
g3
NtRp203
(dp204
g65
V10.1101/gad.197201
p205
sg61
VGENE DEV
p206
sg63
V15
p207
sg98
(lp208
(VDIETERLE
VM
tp209
asg24
I2001
sg59
V939
p210
sbag1
(g2
g3
NtRp211
(dp212
g65
V10.1016/j.jplph.2008.10.003
p213
sg61
VJ PLANT PHYSIOL
p214
sg63
V166
p215
sg98
(lp216
(VDOAN
VT T P
tp217
asg24
I2009
sg59
V787
p218
sbag1
(g2
g3
NtRp219
(dp220
g65
V10.1007/s004970050189
p221
sg61
VSEX PLANT REPROD
p222
sg63
V12
p223
sg98
(lp224
(VDOMINGUEZ
VE
tp225
asg24
I1999
sg59
V171
p226
sbag1
(g2
g3
NtRp227
(dp228
g65
Nsg61
VORIGIN EARLY EVOLUTI
p229
sg63
Nsg98
(lp230
(VDOYLE
VJ A
tp231
asg24
I1976
sg59
V139
p232
sbag1
(g2
g3
NtRp233
(dp234
g65
V10.1104/pp.104.055715
p235
sg61
VPLANT PHYSIOL
p236
sg63
V137
p237
sg98
(lp238
(VDUAN
VH
tp239
asg24
I2005
sg59
VLANT
p240
sbag1
(g2
g3
NtRp241
(dp242
g65
Nsg61
VSVENSK BOT TIDSKR
p243
sg63
V54
p244
sg98
(lp245
(VERDTMAN
VG
tp246
asg24
I1960
sg59
V561
p247
sbag1
(g2
g3
NtRp248
(dp249
g65
V10.1038/35066557
p250
sg61
VNATURE
p251
sg63
V410
p252
sg98
(lp253
(VFRIIS
VE M
tp254
asg24
I2001
sg59
V357
p255
sbag1
(g2
g3
NtRp256
(dp257
g65
V10.1111/j.1365-313X.2008.03773.x
p258
sg61
VPLANT J
p259
sg63
V58
p260
sg98
(lp261
(VGRIENENBERGER
VE
tp262
asg24
I2009
sg59
VLANT
p263
sbag1
(g2
g3
NtRp264
(dp265
g65
V10.1104/pp.86.1.134
p266
sg61
VPLANT PHYSIOL
p267
sg63
V86
p268
sg98
(lp269
(VGUILFORD
VW J
tp270
asg24
I1988
sg59
VLANT
p271
sbag1
(g2
g3
NtRp272
(dp273
g65
V10.1016/j.pep.2007.06.007
p274
sg61
VPROTEIN EXPRES PURIF
p275
sg63
V56
p276
sg98
(lp277
(VHAMANN
VT
tp278
asg24
I2007
sg59
VROTEIN
p279
sbag1
(g2
g3
NtRp280
(dp281
g65
V10.1093/jxb/ern101
p282
sg61
VJ Exp Bot
p283
sg63
V59
p284
sg98
(lp285
(VHO\u0308FER
VRENE
tp286
asg24
I2008
sg59
V2347
p287
sbag1
(g2
g3
NtRp288
(dp289
g65
V10.1371/journal.pgen.0030171
p290
sg61
VPLOS GENET
p291
sg63
V3
sg98
(lp292
(VJONES-RHOADES
VM W
tp293
asg24
I2007
sg59
VLOS
p294
sbag1
(g2
g3
NtRp295
(dp296
g65
V10.1007/s11101-006-9041-1
p297
sg61
VPhytochemistry Reviews
p298
sg63
V5
sg98
(lp299
(VKANDEL
VS
tp300
asg24
I2006
sg59
Vhytochemistry
p301
sbag1
(g2
g3
NtRp302
(dp303
g65
V10.1111/j.1742-4658.2007.06032.x
p304
sg61
VFEBS J
p305
sg63
V274
p306
sg98
(lp307
(VKANDEL
VS
tp308
asg24
I2007
sg59
V5116
p309
sbag1
(g2
g3
NtRp310
(dp311
g65
V10.1074/jbc.M500918200
p312
sg61
VJ BIOL CHEM
p313
sg63
V280
p314
sg98
(lp315
(VKANDEL
VS
tp316
asg24
I2005
sg59
V35881
p317
sbag1
(g2
g3
NtRp318
(dp319
g65
Nsg61
VANNU REV PLANT PHYS
p320
sg63
V32
p321
sg98
(lp322
(VKOLLATUKUDY
VP E
tp323
asg24
I1981
sg59
V539
p324
sbag1
(g2
g3
NtRp325
(dp326
g65
V10.1073/pnas.0706984104
p327
sg61
VP NATL ACAD SCI USA
p328
sg63
V104
p329
sg98
(lp330
(VLI
VY H
tp331
asg24
I2007
sg59
V18339
p332
sbag1
(g2
g3
NtRp333
(dp334
g65
V10.1111/j.1365-313X.2005.02635.x
p335
sg61
VPLANT J
p336
sg63
V45
p337
sg98
(lp338
(VMARROCCO
VK
tp339
asg24
I2006
sg59
VLANT
p340
sbag1
(g2
g3
NtRp341
(dp342
g65
Nsg61
VJ PLANT PHYSIOL
p343
sg63
V154
p344
sg98
(lp345
(VMEUTER-GERHARDS
VA
tp346
asg24
I1999
sg59
V431
p347
sbag1
(g2
g3
NtRp348
(dp349
g65
V10.1101/gr.2275604
p350
sg61
VGENOME RES
p351
sg63
V14
p352
sg98
(lp353
(VMEYERS
VB C
tp354
asg24
I2004
sg59
V1641
p355
sbag1
(g2
g3
NtRp356
(dp357
g65
V10.1073/pnas.88.21.9828
p358
sg61
VP NATL ACAD SCI USA
p359
sg63
V88
p360
sg98
(lp361
(VMICHELMORE
VR W
tp362
asg24
I1991
sg59
V9828
p363
sbag1
(g2
g3
NtRp364
(dp365
g65
V10.1111/j.1365-313X.2007.03348.x
p366
sg61
VPLANT J
p367
sg63
V53
p368
sg98
(lp369
(VMOLINA
VI
tp370
asg24
I2008
sg59
VLANT
p371
sbag1
(g2
g3
NtRp372
(dp373
g65
Nsg61
VCURR OPIN BIOTECH
p374
sg63
V14
p375
sg98
(lp376
(VMORANT
VM
tp377
asg24
I2003
sg59
V1
sbag1
(g2
g3
NtRp378
(dp379
g65
V10.1105/tpc.106.045948
p380
sg61
VPLANT CELL
p381
sg63
V19
p382
sg98
(lp383
(VMORANT
VM
tp384
asg24
I2007
sg59
VLANT
p385
sbag1
(g2
g3
NtRp386
(dp387
g65
Nsg61
VCHTYCHROME P450
p388
sg63
Nsg98
(lp389
(VNELSON
VD R
tp390
asg24
I2008
sg59
Nsbag1
(g2
g3
NtRp391
(dp392
g65
V10.1007/s11101-006-9015-3
p393
sg61
VPhytochemistry Reviews
p394
sg63
V5
sg98
(lp395
(VNELSON
VDAVID R
tp396
asg24
I2006
sg59
Vhytochemistry
p397
sbag1
(g2
g3
NtRp398
(dp399
g65
V10.1104/pp.104.039826
p400
sg61
VPLANT PHYSIOL
p401
sg63
V135
p402
sg98
(lp403
(VNELSON
VD R
tp404
asg24
I2004
sg59
VLANT
p405
sbag1
(g2
g3
NtRp406
(dp407
g65
Nsg61
VBMC PLANT BIOL
p408
sg63
V22
p409
sg98
(lp410
(VNISHIKAWA
VS
tp411
asg24
I2005
sg59
V1
sbag1
(g2
g3
NtRp412
(dp413
g65
V10.1093/nar/gkl783
p414
sg61
VNUCLEIC ACIDS RES
p415
sg63
V35
p416
sg98
(lp417
(VOBAYASHI
VT
tp418
asg24
I2007
sg59
VD863
p419
sbag1
(g2
g3
NtRp420
(dp421
g65
Nsg61
VJ BIOL CHEM
p422
sg63
V239
p423
sg98
(lp424
(VOMURA
VT
tp425
asg24
I1964
sg59
V2379
p426
sbag1
(g2
g3
NtRp427
(dp428
g65
Nsg61
VJ PLANT PHYSIOL
p429
sg63
V131
p430
sg98
(lp431
(VOSTHOFF
VK S
tp432
asg24
I1987
sg59
V5
sbag1
(g2
g3
NtRp433
(dp434
g65
V10.1042/0264-6021:3420027
p435
sg61
VBIOCHEM J
p436
sg63
V342
p437
sg98
(lp438
(VPINOT
VF
tp439
asg24
I1999
sg59
V27
p440
sbag1
(g2
g3
NtRp441
(dp442
g65
V10.1016/j.tplants.2008.03.003
p443
sg61
VTRENDS PLANT SCI
p444
sg63
V13
p445
sg98
(lp446
(VPOLLARD
VM
tp447
asg24
I2008
sg59
V236
p448
sbag1
(g2
g3
NtRp449
(dp450
g65
V10.1016/S0076-6879(96)72008-6
p451
sg61
VMETHOD ENZYMOL
p452
sg63
V272
p453
sg98
(lp454
(VPOMPON
VD
tp455
asg24
I1996
sg59
V51
p456
sbag1
(g2
g3
NtRp457
(dp458
g65
V10.1186/1471-2148-7-130
p459
sg61
VBMC EVOL BIOL
p460
sg63
V7
sg98
(lp461
(VRENSING
VS A
tp462
asg24
I2007
sg59
Nsbag1
(g2
g3
NtRp463
(dp464
g65
V10.1074/jbc.M104047200
p465
sg61
VJ BIOL CHEM
p466
sg63
V276
p467
sg98
(lp468
(VSCHOCH
VG
tp469
asg24
I2001
sg59
V36566
p470
sbag1
(g2
g3
NtRp471
(dp472
g65
V10.1017/CBO9780511752339.006
p473
sg61
VSOC EXP BIOL SEMIN S
p474
sg63
V55
p475
sg98
(lp476
(VSCOTT
VR J
tp477
asg24
I1994
sg59
V49
p478
sbag1
(g2
g3
NtRp479
(dp480
g65
V10.1105/tpc.004630
p481
sg61
VPLANT CELL
p482
sg63
V14
p483
sg98
(lp484
(VSESSIONS
VA
tp485
asg24
I2002
sg59
VLANT
p486
sbag1
(g2
g3
NtRp487
(dp488
g65
Nsg61
VJ Chem Soc Perkin 1
p489
sg63
V1
sg98
(lp490
(VSHAW
VG
tp491
asg24
I1966
sg59
V16
p492
sbag1
(g2
g3
NtRp493
(dp494
g65
V10.1105/tpc.108.062513
p495
sg61
VPLANT CELL
p496
sg63
V21
p497
sg98
(lp498
(VSOUZA
VC D
tp499
asg24
I2009
sg59
VLANT
p500
sbag1
(g2
g3
NtRp501
(dp502
g65
V10.1101/gad.295404
p503
sg61
VGENE DEV
p504
sg63
V18
p505
sg98
(lp506
(VTAKEDA
VS
tp507
asg24
I2004
sg59
V782
p508
sbag1
(g2
g3
NtRp509
(dp510
g65
Nsg61
VBIOCHEM J
p511
sg63
V332
p512
sg98
(lp513
(VTIJET
VN
tp514
asg24
I1998
sg59
V583
p515
sbag1
(g2
g3
NtRp516
(dp517
g65
V10.1111/j.1365-313X.2005.02437.x
p518
sg61
VPLANT J
p519
sg63
V43
p520
sg98
(lp521
(VTOUFIGHI
VK
tp522
asg24
I2005
sg59
VLANT
p523
sbag1
(g2
g3
NtRp524
(dp525
g65
V10.1002/(SICI)1097-0061(199910)15:14<1555::AID-YEA479>3.0.CO;2-Z
p526
sg61
VYEAST
p527
sg63
V15
p528
sg98
(lp529
(VTULLER
VG
tp530
asg24
I1999
sg59
V1555
p531
sbag1
(g2
g3
NtRp532
(dp533
g65
V10.1126/science.1128691
p534
sg61
VSCIENCE
p535
sg63
V313
p536
sg98
(lp537
(VTUSKAN
VG A
tp538
asg24
I2006
sg59
V1596
p539
sbag1
(g2
g3
NtRp540
(dp541
g65
V10.1074/jbc.272.31.19176
p542
sg61
VJ BIOL CHEM
p543
sg63
V272
p544
sg98
(lp545
(VURBAN
VP
tp546
asg24
I1997
sg59
V19176
p547
sbag1
(g2
g3
NtRp548
(dp549
g65
V10.1073/pnas.171285998
p550
sg61
VP NATL ACAD SCI USA
p551
sg63
V98
p552
sg98
(lp553
(VWELLESEN
VK
tp554
asg24
I2001
sg59
V9694
p555
sbag1
(g2
g3
NtRp556
(dp557
g65
V[10.1199/tab.0028, DOI 10.1199/TAB.0028]
p558
sg61
VARABIDOPSIS BOOK
p559
sg63
Nsg98
(lp560
(VWERCK-REICHHART
VD
tp561
asg24
I2002
sg59
V450
p562
sbag1
(g2
g3
NtRp563
(dp564
g65
Nsg61
VBIOPOLYMERS
p565
sg63
V1
sg98
(lp566
(VWIERMANN
VR
tp567
asg24
I2001
sg59
V209
p568
sbag1
(g2
g3
NtRp569
(dp570
g65
Nsg61
VJ PLANT PHYSL
p571
sg63
V146
p572
sg98
(lp573
(VWILWESMEIER
VS
tp574
asg24
I1995
sg59
V22
p575
sbag1
(g2
g3
NtRp576
(dp577
g65
V10.1038/sj.emboj.7600290
p578
sg61
VEMBO J
p579
sg63
V23
p580
sg98
(lp581
(VXIAO
VF M
tp582
asg24
I2004
sg59
V2903
p583
sbag1
(g2
g3
NtRp584
(dp585
g65
Nsg61
VLIEBIGS ANN CHEM
p586
sg63
V461
p587
sg98
(lp588
(VZETZSCHE
VF
tp589
asg24
I1928
sg59
V89
p590
sbag1
(g2
g3
NtRp591
(dp592
g65
V10.1002/hlca.19310140104
p593
sg61
VHELV CHIM ACTA
p594
sg63
V14
p595
sg98
(lp596
(VZETZSCHE
VF
tp597
asg24
I1931
sg59
V58
p598
sbag1
(g2
g3
NtRp599
(dp600
g65
V10.1104/pp.104.046367
p601
sg61
VPLANT PHYSIOL
p602
sg63
V136
p603
sg98
(lp604
(VZIMMERMANN
VP
tp605
asg24
I2004
sg59
VLANT
p606
sbasb.