ccopy_reg
_reconstructor
p1
(ctethne.classes.paper
Paper
p2
c__builtin__
object
p3
NtRp4
(dp5
S'publisherCity'
p6
VROCKVILLE
p7
sS'reprintAddress'
p8
VWang, XC (reprint author), China Agr Univ, State Key Lab Plant Physiol & Biochem, Coll Biol Sci, Beijing 100084, Peoples R China.
p9
sS'WC'
p10
VPlant Sciences
p11
sS'GA'
p12
V983OB
p13
sS'abstract'
p14
VStomatal movement is important for plants to exchange gas with environment. The regulation of stomatal movement allows optimizing photosynthesis and transpiration. Changes in vacuolar volume in guard cells are known to participate in this regulation. However, little has been known about the mechanism underlying the regulation of rapid changes in guard cell vacuolar volume. Here, we report that dynamic changes in the complex vacuolar membrane system play a role in the rapid changes of vacuolar volume in Vicia faba guard cells. The guard cells contained a great number of small vacuoles and various vacuolar membrane structures when stomata closed. The small vacuoles and complex membrane systems fused with each other or with the bigger vacuoles to generate large vacuoles during stomatal opening. Conversely, the large vacuoles split into smaller ;vacuoles and generated many complex membrane structures in the closing stomata. Vacuole fusion inhibitor, (2s,3s)-trans-epoxy-succinyl-L-leucylamido-3-methylbutane ethyl ester, inhibited stomatal opening significantly. Furthermore, an Arabidopsis (Arabidopsis thaliana) mutation of the SGR3 gene, which has a defect in vacuolar fusion, also led to retardation of stomatal opening. All these results suggest that the dynamic changes of the tonoplast are essential for enhancing stomatal movement.
p15
sS'pageEnd'
p16
I1216
sS'publisherAddress'
p17
V15501 MONONA DRIVE, ROCKVILLE, MD 20855 USA
p18
sS'documentType'
p19
VArticle
p20
sS'subject'
p21
VPlant Sciences
p22
sS'isoSource'
p23
VPlant Physiol.
p24
sS'timesCited'
p25
(lp26
I38
aVZ9 42
p27
asS'PT'
p28
VJ
sS'title'
p29
VThe Dynamic Changes Of Tonoplasts In Guard Cells Are Important For Stomatal Movement In Vicia Faba
p30
sS'ISSN'
p31
(lp32
V0032-0889
p33
aVJ9 PLANT PHYSIOL
p34
asS'authors_full'
p35
(lp36
(VGAO
VXQ
tp37
a(VLI
VCG
tp38
a(VWEI
VPC
tp39
a(VZHANG
VXY
tp40
a(VCHEN
VJ
tp41
a(VWANG
VXC
tp42
asS'PG'
p43
I10
sS'PD'
p44
VNOV
p45
sS'pageStart'
p46
I1207
sS'issue'
p47
I3
sS'journal'
p48
VPLANT PHYSIOLOGY
p49
sS'volume'
p50
V139
p51
sS'doi'
p52
V10.1104/pp.105.067520
p53
sS'emailAddress'
p54
Vxcwang@cau.edu.cn
p55
sS'authorAddress'
p56
(lp57
VChina Agr Univ, State Key Lab Plant Physiol & Biochem, Coll Biol Sci, Beijing 100084, Peoples R China.
p58
aVQufu Normal Univ, Coll Life Sci, Qufu 273165, Peoples R China.
p59
asS'date'
p60
I2005
sS'ER'
p61
V
sS'publisher'
p62
VAMER SOC PLANT BIOLOGISTS
p63
sS'authorKeywords'
p64
(lp65
VARABIDOPSIS-THALIANA
p66
aVVACUOLAR MEMBRANE
p67
aVPLASMA-MEMBRANE
p68
aVPREVACUOLAR COMPARTMENT
p69
aVSIGNAL-TRANSDUCTION
p70
aVVOLUME CONTROL
p71
aVSURFACE-AREA
p72
aVPROTOPLASTS
p73
aVFUSION
p74
aVPROTEIN
p75
asS'language'
p76
VEnglish
p77
sS'wosid'
p78
VWOS:000233240900010
p79
sS'citationCount'
p80
I45
sS'authors_init'
p81
(lp82
(VGAO
VX Q
tp83
a(VLI
VC G
tp84
a(VWEI
VP C
tp85
a(VZHANG
VX Y
tp86
a(VCHEN
VJ
tp87
a(VWANG
VX C
tp88
asS'citedReferences'
p89
(lp90
g1
(g2
g3
NtRp91
(dp92
g52
V10.1038/35082575
p93
sg48
VNATURE
p94
sg50
V411
p95
sg81
(lp96
(VALLEN
VG J
tp97
asg60
I2001
sg46
V1053
p98
sbag1
(g2
g3
NtRp99
(dp100
g52
V10.1023/A:1020271121683
p101
sg48
VPLANT SOIL
p102
sg50
V244
p103
sg81
(lp104
(VASHFORD
VA E
tp105
asg60
I2002
sg46
VLANT
p106
sbag1
(g2
g3
NtRp107
(dp108
g52
V10.1146/annurev.cellbio.16.1.221
p109
sg48
VANNU REV CELL DEV BI
p110
sg50
V16
p111
sg81
(lp112
(VBLATT
VM R
tp113
asg60
I2000
sg46
V221
p114
sbag1
(g2
g3
NtRp115
(dp116
g52
V10.1046/j.0028-646X.2001.00341.x
p117
sg48
VNEW PHYTOL
p118
sg50
V153
p119
sg81
(lp120
(VBLATT
VM R
tp121
asg60
I2002
sg46
V405
p122
sbag1
(g2
g3
NtRp123
(dp124
g52
V10.1105/tpc.104.027078
p125
sg48
VPLANT CELL
p126
sg50
V16
p127
sg81
(lp128
(VCARTER
VC
tp129
asg60
I2004
sg46
VLANT
p130
sbag1
(g2
g3
NtRp131
(dp132
g52
V10.1104/pp.104.047837
p133
sg48
VPLANT PHYSIOL
p134
sg50
V136
p135
sg81
(lp136
(VCHEN
VY L
tp137
asg60
I2004
sg46
VLANT
p138
sbag1
(g2
g3
NtRp139
(dp140
g52
Nsg48
VCAN J BOT
p141
sg50
V62
p142
sg81
(lp143
(VCOUOTGASTELIER
VJ
tp144
asg60
I1984
sg46
V1505
p145
sbag1
(g2
g3
NtRp146
(dp147
g52
V10.1073/pnas.97.7.3718
p148
sg48
VP NATL ACAD SCI USA
p149
sg50
V97
p150
sg81
(lp151
(VCUTLER
VS R
tp152
asg60
I2000
sg46
V3718
p153
sbag1
(g2
g3
NtRp154
(dp155
g52
V10.1093/jxb/44.10.1569
p156
sg48
VJ EXP BOT
p157
sg50
V44
p158
sg81
(lp159
(VDIEKMANN
VW
tp160
asg60
I1993
sg46
V1569
p161
sbag1
(g2
g3
NtRp162
(dp163
g52
Nsg48
VPLANT PHYSIOL
p164
sg50
V114
p165
sg81
(lp166
(VFLEURATLESSARD
VP
tp167
asg60
I1997
sg46
VLANT
p168
sbag1
(g2
g3
NtRp169
(dp170
g52
Nsg48
VT ROY MICR
p171
sg50
V1
sg81
(lp172
(VFRICKER
VM D
tp173
asg60
I1990
sg46
V345
p174
sbag1
(g2
g3
NtRp175
(dp176
g52
Nsg48
VPLANT CELL BIOL PRAC
p177
sg50
Nsg81
(lp178
(VFRICKER
VM D
tp179
asg60
I2001
sg46
VLANT
p180
sbag1
(g2
g3
NtRp181
(dp182
g52
V10.1104/pp.020009
p183
sg48
VPLANT PHYSIOL
p184
sg50
V129
p185
sg81
(lp186
(VGAXIOLA
VR A
tp187
asg60
I2002
sg46
VLANT
p188
sbag1
(g2
g3
NtRp189
(dp190
g52
V10.1104/pp.103.037382
p191
sg48
VPLANT PHYSIOL
p192
sg50
V134
p193
sg81
(lp194
(VHICKS
VG R
tp195
asg60
I2004
sg46
VLANT
p196
sbag1
(g2
g3
NtRp197
(dp198
g52
V10.1007/s004250050408
p199
sg48
VPLANTA
p200
sg50
V206
p201
sg81
(lp202
(VHOMANN
VU
tp203
asg60
I1998
sg46
VLANTA
p204
sbag1
(g2
g3
NtRp205
(dp206
g52
V10.1016/S0092-8674(03)00112-0
p207
sg48
VCELL
p208
sg50
V112
p209
sg81
(lp210
(VJAHN
VR
tp211
asg60
I2003
sg46
V519
p212
sbag1
(g2
g3
NtRp213
(dp214
g52
V10.1093/pcp/pcf114
p215
sg48
VPLANT CELL PHYSIOL
p216
sg50
V43
p217
sg81
(lp218
(VKOMIS
VG
tp219
asg60
I2002
sg46
VLANT
p220
sbag1
(g2
g3
NtRp221
(dp222
g52
V10.1007/s004250000303
p223
sg48
VPLANTA
p224
sg50
V210
p225
sg81
(lp226
(VKUBITSCHECK
VU
tp227
asg60
I2000
sg46
VLANTA
p228
sbag1
(g2
g3
NtRp229
(dp230
g52
V10.1093/pcp/pcf138
p231
sg48
VPLANT CELL PHYSIOL
p232
sg50
V43
p233
sg81
(lp234
(VKUTSUNA
VN
tp235
asg60
I2002
sg46
VLANT
p236
sbag1
(g2
g3
NtRp237
(dp238
g52
V10.1093/pcp/pcg124
p239
sg48
VPLANT CELL PHYSIOL
p240
sg50
V44
p241
sg81
(lp242
(VKUTSUNA
VN
tp243
asg60
I2003
sg46
VLANT
p244
sbag1
(g2
g3
NtRp245
(dp246
g52
V10.1093/jxb/erh062
p247
sg48
VJ EXP BOT
p248
sg50
V55
p249
sg81
(lp250
(VKWOK
VE Y
tp251
asg60
I2004
sg46
V595
p252
sbag1
(g2
g3
NtRp253
(dp254
g52
Nsg48
VPLANT PHYSL LIFE SCI
p255
sg50
V11
p256
sg81
(lp257
(VLAMBRECHTS
VD
tp258
asg60
I1992
sg46
VLANT
p259
sbag1
(g2
g3
NtRp260
(dp261
g52
V10.1007/BF01276644
p262
sg48
VPROTOPLASMA
p263
sg50
V193
p264
sg81
(lp265
(VLAZZARO
VM D
tp266
asg60
I1996
sg46
VROTOPLASMA
p267
sbag1
(g2
g3
NtRp268
(dp269
g52
V10.1038/nrm1470
p270
sg48
VNAT REV MOL CELL BIO
p271
sg50
V5
sg81
(lp272
(VLUCAS
VW J
tp273
asg60
I2004
sg46
V712
p274
sbag1
(g2
g3
NtRp275
(dp276
g52
V10.1105/tpc.011676
p277
sg48
VPLANT CELL
p278
sg50
V15
p279
sg81
(lp280
(VMATHUR
VJ
tp281
asg60
I2003
sg46
VLANT
p282
sbag1
(g2
g3
NtRp283
(dp284
g52
V10.1093/pcp/pcg100
p285
sg48
VPLANT CELL PHYSIOL
p286
sg50
V44
p287
sg81
(lp288
(VMORIYASU
VY
tp289
asg60
I2003
sg46
VLANT
p290
sbag1
(g2
g3
NtRp291
(dp292
g52
V10.1093/jexbot/49.322.817
p293
sg48
VJ EXP BOT
p294
sg50
V49
p295
sg81
(lp296
(VNEWELL
VJ M
tp297
asg60
I1998
sg46
V817
p298
sbag1
(g2
g3
NtRp299
(dp300
g52
V10.1126/science.214.4519.443
p301
sg48
VSCIENCE
p302
sg50
V214
p303
sg81
(lp304
(VPALEVITZ
VB A
tp305
asg60
I1981
sg46
V443
p306
sbag1
(g2
g3
NtRp307
(dp308
g52
Nsg48
VNATURE
p309
sg50
V396
p310
sg81
(lp311
(VPETERS
VC
tp312
asg60
I1998
sg46
V575
p313
sbag1
(g2
g3
NtRp314
(dp315
g52
V10.1091/mbc.E02-08-0509
p316
sg48
VMOL BIOL CELL
p317
sg50
V14
p318
sg81
(lp319
(VROJO
VE
tp320
asg60
I2003
sg46
V361
p321
sbag1
(g2
g3
NtRp322
(dp323
g52
V10.1046/j.0960-7412.2001.01189.x
p324
sg48
VPLANT J
p325
sg50
V29
p326
sg81
(lp327
(VSAITO
VC
tp328
asg60
I2002
sg46
VLANT
p329
sbag1
(g2
g3
NtRp330
(dp331
g52
V10.1104/pp.121.3.929
p332
sg48
VPLANT PHYSIOL
p333
sg50
V121
p334
sg81
(lp335
(VSANDERFOOT
VA A
tp336
asg60
I1999
sg46
VLANT
p337
sbag1
(g2
g3
NtRp338
(dp339
g52
V10.1074/jbc.272.39.24530
p340
sg48
VJ BIOL CHEM
p341
sg50
V272
p342
sg81
(lp343
(VSATO
VM H
tp344
asg60
I1997
sg46
V24530
p345
sbag1
(g2
g3
NtRp346
(dp347
g52
V10.1146/annurev.arplant.52.1.627
p348
sg48
VANNU REV PLANT PHYS
p349
sg50
V52
p350
sg81
(lp351
(VSCHROEDER
VJ I
tp352
asg60
I2001
sg46
V627
p353
sbag1
(g2
g3
NtRp354
(dp355
g52
V10.1104/pp.103.027698
p356
sg48
VPLANT PHYSIOL
p357
sg50
V133
p358
sg81
(lp359
(VSHOPE
VJ C
tp360
asg60
I2003
sg46
VLANT
p361
sbag1
(g2
g3
NtRp362
(dp363
g52
V10.1038/nrm1311
p364
sg48
VNAT REV MOL CELL BIO
p365
sg50
V5
sg81
(lp366
(VSURPIN
VM
tp367
asg60
I2004
sg46
V100
p368
sbag1
(g2
g3
NtRp369
(dp370
g52
V10.1046/j.1365-2443.2002.00550.x
p371
sg48
VGENES CELLS
p372
sg50
V7
sg81
(lp373
(VUEMURA
VT
tp374
asg60
I2002
sg46
V743
p375
sbag1
(g2
g3
NtRp376
(dp377
g52
Nsg48
VPLANT CELL REP
p378
sg50
V17
p379
sg81
(lp380
(VVERBELEN
VJ P
tp381
asg60
I1998
sg46
VLANT
p382
sbag1
(g2
g3
NtRp383
(dp384
g52
Nsg48
VPLANT PHYSL PRINCIPL
p385
sg50
Nsg81
(lp386
(VWANG
VX C
tp387
asg60
I2001
sg46
VLANT
p388
sbag1
(g2
g3
NtRp389
(dp390
g52
V10.1111/j.1365-313X.2004.02164.x
p391
sg48
VPLANT J
p392
sg50
V39
p393
sg81
(lp394
(VWATERS
VM T
tp395
asg60
I2004
sg46
VLANT
p396
sbag1
(g2
g3
NtRp397
(dp398
g52
V10.1104/pp.71.2.276
p399
sg48
VPLANT PHYSIOL
p400
sg50
V71
p401
sg81
(lp402
(VWOLFE
VJ
tp403
asg60
I1983
sg46
VLANT
p404
sbag1
(g2
g3
NtRp405
(dp406
g52
Nsg48
VPLANT BIOL
p407
sg50
Nsg81
(lp408
(VYAMADA
VK
tp409
asg60
I2003
sg46
VLANT
p410
sbag1
(g2
g3
NtRp411
(dp412
g52
V10.1111/j.1365-313X.2005.02349.x
p413
sg48
VPLANT J
p414
sg50
V41
p415
sg81
(lp416
(VYAMADA
VK
tp417
asg60
I2005
sg46
VLANT
p418
sbag1
(g2
g3
NtRp419
(dp420
g52
V10.1093/pcp/pcg147
p421
sg48
VPLANT CELL PHYSIOL
p422
sg50
V44
p423
sg81
(lp424
(VYAMAMOTO
VY
tp425
asg60
I2003
sg46
VLANT
p426
sbag1
(g2
g3
NtRp427
(dp428
g52
V10.1073/pnas.1430749100
p429
sg48
VP NATL ACAD SCI USA
p430
sg50
V100
p431
sg81
(lp432
(VYANO
VD
tp433
asg60
I2003
sg46
V8589
p434
sbasb.