ccopy_reg
_reconstructor
p1
(ctethne.classes.paper
Paper
p2
c__builtin__
object
p3
NtRp4
(dp5
S'publisherCity'
p6
VROCKVILLE
p7
sS'reprintAddress'
p8
VBoerjan, W (reprint author), State Univ Ghent VIB, Dept Plant Syst Biol, Technol Pk 927, B-9052 Ghent, Belgium.
p9
sS'WC'
p10
VPlant Sciences
p11
sS'GA'
p12
V744QX
p13
sS'abstract'
p14
VLignin, one of the most abundant terrestrial biopolymers, is indispensable for plant structure and defense. With the availability of the full genome sequence, large collections of insertion mutants, and functional genomics tools, Arabidopsis constitutes an excellent model system to profoundly unravel the monolignol biosynthetic pathway. In a genome-wide bioinformatics survey of the Arabidopsis genome, 34 candidate genes were annotated that encode genes homologous to the 10 presently known enzymes of the monolignol biosynthesis pathway, nine of which have not been described before. By combining evolutionary analysis of these 10 gene families with in silico promoter analysis and expression data (from a reverse transcription-polymerase chain reaction analysis on an extensive tissue panel, mining of expressed sequence tags from publicly available resources, and assembling expression data from literature), 12 genes could be pinpointed as the most likely candidates for a role in vascular lignification. Furthermore, a possible novel link was detected between the presence of the AC regulatory promoter element and the biosynthesis of G lignin during vascular development. Together, these data describe the full complement of monolignol biosynthesis genes in Arabidopsis, provide a unified nomenclature, and serve as a basis for further functional studies.
p15
sS'pageEnd'
p16
I1071
sS'date'
p17
I2003
sS'documentType'
p18
VReview
p19
sS'subject'
p20
VPlant Sciences
p21
sS'isoSource'
p22
VPlant Physiol.
p23
sS'timesCited'
p24
(lp25
I248
aVZ9 273
p26
asS'PT'
p27
VJ
sS'title'
p28
VGenome-Wide Characterization Of The Lignification Toolbox In Arabidopsis
p29
sS'ISSN'
p30
(lp31
V0032-0889
p32
aVJ9 PLANT PHYSIOL
p33
asS'authors_full'
p34
(lp35
(VRAES
VJ
tp36
a(VROHDE
VA
tp37
a(VCHRISTENSEN
VJH
tp38
a(VVAN DE PEER
VY
tp39
a(VBOERJAN
VW
tp40
asS'PG'
p41
I21
sS'PD'
p42
VNOV
p43
sS'pageStart'
p44
I1051
sS'issue'
p45
I3
sS'RI'
p46
VVan de Peer, Yves/D-4388-2009
p47
sS'journal'
p48
VPLANT PHYSIOLOGY
p49
sS'volume'
p50
V133
p51
sS'doi'
p52
V10.1104/pp.103.026484
p53
sS'emailAddress'
p54
Vwout.boerjan@psb.ugent.be
p55
sS'authorAddress'
p56
VState Univ Ghent VIB, Dept Plant Syst Biol, B-9052 Ghent, Belgium.
p57
sS'publisherAddress'
p58
V15501 MONONA DRIVE, ROCKVILLE, MD 20855 USA
p59
sS'ER'
p60
V
sS'publisher'
p61
VAMER SOC PLANT BIOLOGISTS
p62
sS'authorKeywords'
p63
(lp64
VPHENYLALANINE AMMONIA-LYASE
p65
aVCYTOCHROME P450-DEPENDENT MONOOXYGENASE
p66
aVDEVELOPMENTALLY-REGULATED EXPRESSION
p67
aVCINNAMYL-ALCOHOL-DEHYDROGENASE
p68
aVCARBOXYPEPTIDASE-LIKE PROTEIN
p69
aVCHALCONE SYNTHASE PROMOTER
p70
aVTISSUE-SPECIFIC EXPRESSION
p71
aVALTERED LIGNIN COMPOSITION
p72
aVDNA COMPLEX-FORMATION
p73
aVAMINO-ACID-SEQUENCE
p74
asS'OI'
p75
VVan de Peer, Yves/0000-0003-4327-3730
p76
sS'language'
p77
VEnglish
p78
sS'wosid'
p79
VWOS:000186644600012
p80
sS'citationCount'
p81
I136
sS'authors_init'
p82
(lp83
(VRAES
VJ
tp84
a(VROHDE
VA
tp85
a(VCHRISTENSEN
VJ H
tp86
a(VVAN DE PEER
VY
tp87
a(VBOERJAN
VW
tp88
asS'citedReferences'
p89
(lp90
g1
(g2
g3
NtRp91
(dp92
g52
Nsg48
VP 21 INT C POLYPH IM
p93
sg50
Nsg82
(lp94
(VACHNINE
VL
tp95
asg17
I2002
sg44
V7
sbag1
(g2
g3
NtRp96
(dp97
g52
V10.1093/nar/25.17.3389
p98
sg48
VNUCLEIC ACIDS RES
p99
sg50
V25
p100
sg82
(lp101
(VALTSCHUL
VS F
tp102
asg17
I1997
sg44
V3389
p103
sbag1
(g2
g3
NtRp104
(dp105
g52
V10.1016/S0031-9422(02)00211-X
p106
sg48
VPHYTOCHEMISTRY
p107
sg50
V61
p108
sg82
(lp109
(VANTEROLA
VA M
tp110
asg17
I2002
sg44
VHYTOCHEMISTRY
p111
sbag1
(g2
g3
NtRp112
(dp113
g52
V10.1074/jbc.M112051200
p114
sg48
VJ BIOL CHEM
p115
sg50
V277
p116
sg82
(lp117
(VANTEROLA
VA M
tp118
asg17
I2002
sg44
V18272
p119
sbag1
(g2
g3
NtRp120
(dp121
g52
V10.1073/pnas.91.16.7608
p122
sg48
VP NATL ACAD SCI USA
p123
sg50
V91
p124
sg82
(lp125
(VBATE
VN J
tp126
asg17
I1994
sg44
V7608
p127
sbag1
(g2
g3
NtRp128
(dp129
g52
V10.1104/pp.113.3.729
p130
sg48
VPLANT PHYSIOL
p131
sg50
V113
p132
sg82
(lp133
(VBELLLELONG
VD A
tp134
asg17
I1997
sg44
VLANT
p135
sbag1
(g2
g3
NtRp136
(dp137
g52
V10.1093/nar/gkg057
p138
sg48
VNUCLEIC ACIDS RES
p139
sg50
V31
p140
sg82
(lp141
(VBENSON
VD A
tp142
asg17
I2003
sg44
V23
p143
sbag1
(g2
g3
NtRp144
(dp145
g52
V10.1023/A:1011625619713
p146
sg48
VPLANT MOL BIOL
p147
sg50
V46
p148
sg82
(lp149
(VBETZ
VC
tp150
asg17
I2001
sg44
VLANT
p151
sbag1
(g2
g3
NtRp152
(dp153
g52
V10.1101/gr.751803
p154
sg48
VGENOME RES
p155
sg50
V13
p156
sg82
(lp157
(VBLANC
VG
tp158
asg17
I2003
sg44
V137
p159
sbag1
(g2
g3
NtRp160
(dp161
g52
V10.1146/annurev.arplant.54.031902.134938
p162
sg48
VANNU REV PLANT BIOL
p163
sg50
V54
p164
sg82
(lp165
(VBOERJAN
VW
tp166
asg17
I2003
sg44
V519
p167
sbag1
(g2
g3
NtRp168
(dp169
g52
V10.1105/tpc.12.12.2383
p170
sg48
VPLANT CELL
p171
sg50
V12
p172
sg82
(lp173
(VBOREVITZ
VJ O
tp174
asg17
I2000
sg44
VLANT
p175
sbag1
(g2
g3
NtRp176
(dp177
g52
V10.1038/nature01521
p178
sg48
VNATURE
p179
sg50
V422
p180
sg82
(lp181
(VBOWERS
VJ E
tp182
asg17
I2003
sg44
V433
p183
sbag1
(g2
g3
NtRp184
(dp185
g52
V10.1023/A:1006381630494
p186
sg48
VPLANT MOL BIOL
p187
sg50
V41
p188
sg82
(lp189
(VBRILL
VE M
tp190
asg17
I1999
sg44
VLANT
p191
sbag1
(g2
g3
NtRp192
(dp193
g52
V10.1146/annurev.arplant.49.1.311
p194
sg48
VANNU REV PLANT PHYS
p195
sg50
V49
p196
sg82
(lp197
(VCHAPPLE
VC
tp198
asg17
I1998
sg44
V311
p199
sbag1
(g2
g3
NtRp200
(dp201
g52
Nsg48
VCOLD SPRING HARBOR M
p202
sg50
V27
p203
sg82
(lp204
(VCHAPPLE
VC C S
tp205
asg17
I1994
sg44
V989
p206
sbag1
(g2
g3
NtRp207
(dp208
g52
Nsg48
VPLANT CELL
p209
sg50
V4
sg82
(lp210
(VCHAPPLE
VC C S
tp211
asg17
I1992
sg44
VLANT
p212
sbag1
(g2
g3
NtRp213
(dp214
g52
V10.1104/pp.123.3.853
p215
sg48
VPLANT PHYSIOL
p216
sg50
V123
p217
sg82
(lp218
(VCHEN
VC Y
tp219
asg17
I2000
sg44
VLANT
p220
sbag1
(g2
g3
NtRp221
(dp222
g52
V10.1016/S0031-9422(01)00391-0
p223
sg48
VPHYTOCHEMISTRY
p224
sg50
V58
p225
sg82
(lp226
(VCHEN
VF
tp227
asg17
I2001
sg44
VHYTOCHEMISTRY
p228
sbag1
(g2
g3
NtRp229
(dp230
g52
V10.1016/S0031-9422(99)00531-2
p231
sg48
VPHYTOCHEMISTRY
p232
sg50
V53
p233
sg82
(lp234
(VCHEN
VM H
tp235
asg17
I2000
sg44
VHYTOCHEMISTRY
p236
sbag1
(g2
g3
NtRp237
(dp238
g52
V10.1046/j.1365-313X.1996.10060955.x
p239
sg48
VPLANT J
p240
sg50
V10
p241
sg82
(lp242
(VCHEN
VW Q
tp243
asg17
I1996
sg44
VLANT
p244
sbag1
(g2
g3
NtRp245
(dp246
g52
V10.1007/BF00017577
p247
sg48
VPLANT MOL BIOL
p248
sg50
V12
p249
sg82
(lp250
(VCRAMER
VC L
tp251
asg17
I1989
sg44
VLANT
p252
sbag1
(g2
g3
NtRp253
(dp254
g52
V10.1515/BC.2001.076
p255
sg48
VBIOL CHEM
p256
sg50
V382
p257
sg82
(lp258
(VCUKOVIC
VD
tp259
asg17
I2001
sg44
V645
p260
sbag1
(g2
g3
NtRp261
(dp262
g52
V10.1007/BF00384962
p263
sg48
VPLANTA
p264
sg50
V134
p265
sg82
(lp266
(VCZICHI
VU
tp267
asg17
I1977
sg44
VLANTA
p268
sbag1
(g2
g3
NtRp269
(dp270
g52
Nsg48
VCAN J BOT
p271
sg50
V70
p272
sg82
(lp273
(VDHARMAWARDHANA
VD P
tp274
asg17
I1992
sg44
V2238
p275
sbag1
(g2
g3
NtRp276
(dp277
g52
V10.1016/S0031-9422(01)00092-9
p278
sg48
VPHYTOCHEMISTRY
p279
sg50
V57
p280
sg82
(lp281
(VDIXON
VR A
tp282
asg17
I2001
sg44
VHYTOCHEMISTRY
p283
sbag1
(g2
g3
NtRp284
(dp285
g52
V10.1016/S0031-9422(01)00049-8
p286
sg48
VPHYTOCHEMISTRY
p287
sg50
V57
p288
sg82
(lp289
(VDONALDSON
VL A
tp290
asg17
I2001
sg44
VHYTOCHEMISTRY
p291
sbag1
(g2
g3
NtRp292
(dp293
g52
V10.1093/bioinformatics/14.9.755
p294
sg48
VBIOINFORMATICS
p295
sg50
V14
p296
sg82
(lp297
(VEDDY
VS R
tp298
asg17
I1998
sg44
V755
p299
sbag1
(g2
g3
NtRp300
(dp301
g52
V10.1046/j.1365-313X.1999.00491.x
p302
sg48
VPLANT J
p303
sg50
V19
p304
sg82
(lp305
(VEHLTING
VJ
tp306
asg17
I1999
sg44
VLANT
p307
sbag1
(g2
g3
NtRp308
(dp309
g52
V10.1006/jmbi.2000.3903
p310
sg48
VJ MOL BIOL
p311
sg50
V300
p312
sg82
(lp313
(VEMANUELSSON
VO
tp314
asg17
I2000
sg44
V1005
p315
sbag1
(g2
g3
NtRp316
(dp317
g52
V10.1023/A:1023001130337
p318
sg48
VPLANT MOL BIOL
p319
sg50
V51
p320
sg82
(lp321
(VERMOLAEVA
VM D
tp322
asg17
I2003
sg44
VLANT
p323
sbag1
(g2
g3
NtRp324
(dp325
g52
Nsg48
VGENOME RES
p326
sg50
V8
sg82
(lp327
(VFLOREA
VL
tp328
asg17
I1998
sg44
V967
p329
sbag1
(g2
g3
NtRp330
(dp331
g52
V10.1046/j.1365-313X.2002.01267.x
p332
sg48
VPLANT J
p333
sg50
V30
p334
sg82
(lp335
(VFRANKE
VR
tp336
asg17
I2002
sg44
VLANT
p337
sbag1
(g2
g3
NtRp338
(dp339
g52
V10.1046/j.1365-313X.2002.01266.x
p340
sg48
VPLANT J
p341
sg50
V30
p342
sg82
(lp343
(VFRANKE
VR
tp344
asg17
I2002
sg44
VLANT
p345
sbag1
(g2
g3
NtRp346
(dp347
g52
V10.1094/MPMI-8-0816
p348
sg48
VMOL PLANT MICROBE IN
p349
sg50
V8
sg82
(lp350
(VGOORMACHTIG
VS
tp351
asg17
I1995
sg44
V816
p352
sbag1
(g2
g3
NtRp353
(dp354
g52
V10.1023/A:1023022825098
p355
sg48
VPLANT MOL BIOL
p356
sg50
V51
p357
sg82
(lp358
(VGOUJON
VT
tp359
asg17
I2003
sg44
VLANT
p360
sbag1
(g2
g3
NtRp361
(dp362
g52
V10.1023/A:1005780529457
p363
sg48
VPLANT MOL BIOL
p364
sg50
V33
p365
sg82
(lp366
(VGRIMMIG
VB
tp367
asg17
I1997
sg44
VLANT
p368
sbag1
(g2
g3
NtRp369
(dp370
g52
V10.1023/A:1012278106147
p371
sg48
VTRANSGENIC RES
p372
sg50
V10
p373
sg82
(lp374
(VGUO
VD G
tp375
asg17
I2001
sg44
V457
p376
sbag1
(g2
g3
NtRp377
(dp378
g52
V10.1016/S0031-9422(02)00375-8
p379
sg48
VPHYTOCHEMISTRY
p380
sg50
V61
p381
sg82
(lp382
(VGUO
VD J
tp383
asg17
I2002
sg44
VHYTOCHEMISTRY
p384
sbag1
(g2
g3
NtRp385
(dp386
g52
VDOI 10.1111/J.1469-8137.2009.02874.X
p387
sg48
VNUCL ACIDS S SER
p388
sg50
V41
p389
sg82
(lp390
(VHALL
VT A
tp391
asg17
I1999
sg44
V95
p392
sbag1
(g2
g3
NtRp393
(dp394
g52
V10.1104/pp.128.2.428
p395
sg48
VPLANT PHYSIOL
p396
sg50
V128
p397
sg82
(lp398
(VHARDING
VS A
tp399
asg17
I2002
sg44
VLANT
p400
sbag1
(g2
g3
NtRp401
(dp402
g52
V10.1046/j.1365-313X.1995.07060859.x
p403
sg48
VPLANT J
p404
sg50
V7
sg82
(lp405
(VHATTON
VD
tp406
asg17
I1995
sg44
VLANT
p407
sbag1
(g2
g3
NtRp408
(dp409
g52
V10.1046/j.1365-313X.1993.04020235.x
p410
sg48
VPLANT J
p411
sg50
V4
sg82
(lp412
(VHAUFFE
VK D
tp413
asg17
I1993
sg44
VLANT
p414
sbag1
(g2
g3
NtRp415
(dp416
g52
Nsg48
VPLANT CELL
p417
sg50
V3
sg82
(lp418
(VHAUFFE
VK D
tp419
asg17
I1991
sg44
VLANT
p420
sbag1
(g2
g3
NtRp421
(dp422
g52
V10.1074/jbc.M209362200
p423
sg48
VJ BIOL CHEM
p424
sg50
V278
p425
sg82
(lp426
(VHOFFMANN
VL
tp427
asg17
I2003
sg44
V95
p428
sbag1
(g2
g3
NtRp429
(dp430
g52
V10.1073/pnas.95.9.5407
p431
sg48
VP NATL ACAD SCI USA
p432
sg50
V95
p433
sg82
(lp434
(VHU
VW J
tp435
asg17
I1998
sg44
V5407
p436
sbag1
(g2
g3
NtRp437
(dp438
g52
V10.1016/S1369-5266(02)00257-1
p439
sg48
VCURR OPIN PLANT BIOL
p440
sg50
V5
sg82
(lp441
(VHUMPHREYS
VJ M
tp442
asg17
I2002
sg44
V224
p443
sbag1
(g2
g3
NtRp444
(dp445
g52
V10.1073/pnas.96.18.10045
p446
sg48
VP NATL ACAD SCI USA
p447
sg50
V96
p448
sg82
(lp449
(VHUMPHREYS
VJ M
tp450
asg17
I1999
sg44
V10045
p451
sbag1
(g2
g3
NtRp452
(dp453
g52
V10.1093/emboj/19.22.6150
p454
sg48
VEMBO J
p455
sg50
V19
p456
sg82
(lp457
(VJIN
VH L
tp458
asg17
I2000
sg44
V6150
p459
sbag1
(g2
g3
NtRp460
(dp461
g52
V10.1046/j.1365-313x.2001.01021.x
p462
sg48
VPLANT J
p463
sg50
V26
p464
sg82
(lp465
(VJONES
VL
tp466
asg17
I2001
sg44
VLANT
p467
sbag1
(g2
g3
NtRp468
(dp469
g52
Nsg48
VEMBO J
p470
sg50
V11
p471
sg82
(lp472
(VKIEDROWSKI
VS
tp473
asg17
I1992
sg44
V4677
p474
sbag1
(g2
g3
NtRp475
(dp476
g52
V10.1093/nar/30.3.775
p477
sg48
VNUCLEIC ACIDS RES
p478
sg50
V30
p479
sg82
(lp480
(VKRAWCZYK
VS
tp481
asg17
I2002
sg44
V775
p482
sbag1
(g2
g3
NtRp483
(dp484
g52
V10.1016/0003-9861(87)90339-0
p485
sg48
VARCH BIOCHEM BIOPHYS
p486
sg50
V258
p487
sg82
(lp488
(VKUHNL
VT
tp489
asg17
I1987
sg44
V226
p490
sbag1
(g2
g3
NtRp491
(dp492
g52
V10.1046/j.1365-313x.2000.00838.x
p493
sg48
VPLANT J
p494
sg50
V23
p495
sg82
(lp496
(VLACOMBE
VE
tp497
asg17
I2000
sg44
VLANT
p498
sbag1
(g2
g3
NtRp499
(dp500
g52
V10.1016/S0031-9422(01)00053-X
p501
sg48
VPHYTOCHEMISTRY
p502
sg50
V57
p503
sg82
(lp504
(VLAUVERGEAT
VV
tp505
asg17
I2001
sg44
VHYTOCHEMISTRY
p506
sbag1
(g2
g3
NtRp507
(dp508
g52
V10.1007/BF00042072
p509
sg48
VPLANT MOL BIOL
p510
sg50
V28
p511
sg82
(lp512
(VLEE
VD
tp513
asg17
I1995
sg44
VLANT
p514
sbag1
(g2
g3
NtRp515
(dp516
g52
Nsg48
VPLANT CELL
p517
sg50
V9
sg82
(lp518
(VLEE
VD
tp519
asg17
I1997
sg44
VLANT
p520
sbag1
(g2
g3
NtRp521
(dp522
g52
V10.1105/tpc.12.8.1295
p523
sg48
VPLANT CELL
p524
sg50
V12
p525
sg82
(lp526
(VLEHFELDT
VC
tp527
asg17
I2000
sg44
VLANT
p528
sbag1
(g2
g3
NtRp529
(dp530
g52
V10.1093/nar/30.1.325
p531
sg48
VNUCLEIC ACIDS RES
p532
sg50
V30
p533
sg82
(lp534
(VLESCOT
VM
tp535
asg17
I2002
sg44
V325
p536
sbag1
(g2
g3
NtRp537
(dp538
g52
V10.1146/annurev.pp.41.060190.002323
p539
sg48
VANNU REV PLANT PHYS
p540
sg50
V41
p541
sg82
(lp542
(VLEWIS
VN G
tp543
asg17
I1990
sg44
V455
p544
sbag1
(g2
g3
NtRp545
(dp546
g52
Nsg48
VPLANT CELL
p547
sg50
V4
sg82
(lp548
(VLEYVA
VA
tp549
asg17
I1992
sg44
VLANT
p550
sbag1
(g2
g3
NtRp551
(dp552
g52
Nsg48
VPLANT PHYSIOL
p553
sg50
V108
p554
sg82
(lp555
(VLEYVA
VA
tp556
asg17
I1995
sg44
VLANT
p557
sbag1
(g2
g3
NtRp558
(dp559
g52
V10.1105/tpc.13.7.1567
p560
sg48
VPLANT CELL
p561
sg50
V13
p562
sg82
(lp563
(VLI
VL G
tp564
asg17
I2001
sg44
VLANT
p565
sbag1
(g2
g3
NtRp566
(dp567
g52
V10.1074/jbc.275.9.6537
p568
sg48
VJ BIOL CHEM
p569
sg50
V275
p570
sg82
(lp571
(VLI
VL G
tp572
asg17
I2000
sg44
V6537
p573
sbag1
(g2
g3
NtRp574
(dp575
g52
V10.1023/A:1006244325250
p576
sg48
VPLANT MOL BIOL
p577
sg50
V40
p578
sg82
(lp579
(VLI
VL G
tp580
asg17
I1999
sg44
VLANT
p581
sbag1
(g2
g3
NtRp582
(dp583
g52
V10.1073/pnas.94.10.5461
p584
sg48
VP NATL ACAD SCI USA
p585
sg50
V94
p586
sg82
(lp587
(VLI
VL G
tp588
asg17
I1997
sg44
V5461
p589
sbag1
(g2
g3
NtRp590
(dp591
g52
V10.1074/jbc.M202632200
p592
sg48
VJ BIOL CHEM
p593
sg50
V278
p594
sg82
(lp595
(VLINDERMAYR
VC
tp596
asg17
I2003
sg44
V2781
p597
sbag1
(g2
g3
NtRp598
(dp599
g52
V10.1023/A:1015505316379
p600
sg48
VPLANT MOL BIOL
p601
sg50
V49
p602
sg82
(lp603
(VLINDSAY
VW P
tp604
asg17
I2002
sg44
VLANT
p605
sbag1
(g2
g3
NtRp606
(dp607
g52
V10.1073/pnas.89.19.9230
p608
sg48
VP NATL ACAD SCI USA
p609
sg50
V89
p610
sg82
(lp611
(VLOAKE
VG J
tp612
asg17
I1992
sg44
V9230
p613
sbag1
(g2
g3
NtRp614
(dp615
g52
V10.1073/pnas.92.13.5905
p616
sg48
VP NATL ACAD SCI USA
p617
sg50
V92
p618
sg82
(lp619
(VLOGEMANN
VE
tp620
asg17
I1995
sg44
V5905
p621
sbag1
(g2
g3
NtRp622
(dp623
g52
V10.1515/bchm.1997.378.8.909
p624
sg48
VBIOL CHEM
p625
sg50
V378
p626
sg82
(lp627
(VLOGEMANN
VE
tp628
asg17
I1997
sg44
V909
p629
sbag1
(g2
g3
NtRp630
(dp631
g52
Nsg48
VEMBO J
p632
sg50
V8
sg82
(lp633
(VLOIS
VR
tp634
asg17
I1989
sg44
V1641
p635
sbag1
(g2
g3
NtRp636
(dp637
g52
V10.1104/pp.010770
p638
sg48
VPLANT PHYSIOL
p639
sg50
V128
p640
sg82
(lp641
(VLU
VS X
tp642
asg17
I2002
sg44
VLANT
p643
sbag1
(g2
g3
NtRp644
(dp645
g52
V10.1093/nar/26.4.1107
p646
sg48
VNUCLEIC ACIDS RES
p647
sg50
V26
p648
sg82
(lp649
(VLUKASHIN
VA V
tp650
asg17
I1998
sg44
V1107
p651
sbag1
(g2
g3
NtRp652
(dp653
g52
V10.1006/jmbi.2001.5426
p654
sg48
VJ MOL BIOL
p655
sg50
V317
p656
sg82
(lp657
(VMAURER-STROH
VS
tp658
asg17
I2002
sg44
V541
p659
sbag1
(g2
g3
NtRp660
(dp661
g52
V10.1104/pp.121.1.215
p662
sg48
VPLANT PHYSIOL
p663
sg50
V121
p664
sg82
(lp665
(VMAURY
VS
tp666
asg17
I1999
sg44
VLANT
p667
sbag1
(g2
g3
NtRp668
(dp669
g52
V10.1046/j.1365-313X.1993.04060971.x
p670
sg48
VPLANT J
p671
sg50
V4
sg82
(lp672
(VMAXWELL
VC A
tp673
asg17
I1993
sg44
VLANT
p674
sbag1
(g2
g3
NtRp675
(dp676
g52
V10.1073/pnas.93.14.6869
p677
sg48
VP NATL ACAD SCI USA
p678
sg50
V93
p679
sg82
(lp680
(VMEYER
VK
tp681
asg17
I1996
sg44
V6869
p682
sbag1
(g2
g3
NtRp683
(dp684
g52
V10.1073/pnas.95.12.6619
p685
sg48
VP NATL ACAD SCI USA
p686
sg50
V95
p687
sg82
(lp688
(VMEYER
VK
tp689
asg17
I1998
sg44
V6619
p690
sbag1
(g2
g3
NtRp691
(dp692
g52
V10.1074/jbc.M006915200
p693
sg48
VJ BIOL CHEM
p694
sg50
V275
p695
sg82
(lp696
(VMEYERMANS
VH
tp697
asg17
I2000
sg44
V36899
p698
sbag1
(g2
g3
NtRp699
(dp700
g52
V10.1104/pp.113.3.755
p701
sg48
VPLANT PHYSIOL
p702
sg50
V113
p703
sg82
(lp704
(VMIZUTANI
VM
tp705
asg17
I1997
sg44
VLANT
p706
sbag1
(g2
g3
NtRp707
(dp708
g52
V10.1104/pp.008649
p709
sg48
VPLANT PHYSIOL
p710
sg50
V130
p711
sg82
(lp712
(VNAIR
VR B
tp713
asg17
I2002
sg44
VLANT
p714
sbag1
(g2
g3
NtRp715
(dp716
g52
V10.1104/pp.123.4.1623
p717
sg48
VPLANT PHYSIOL
p718
sg50
V123
p719
sg82
(lp720
(VNAIR
VR B
tp721
asg17
I2000
sg44
VLANT
p722
sbag1
(g2
g3
NtRp723
(dp724
g52
V10.1016/S1369-5266(99)00010-2
p725
sg48
VCURR OPIN PLANT BIOL
p726
sg50
V2
sg82
(lp727
(VNAMBARA
VE
tp728
asg17
I1999
sg44
V388
p729
sbag1
(g2
g3
NtRp730
(dp731
g52
V10.1023/A:1006156216654
p732
sg48
VPLANT MOL BIOL
p733
sg50
V39
p734
sg82
(lp735
(VNEDELKINA
VS
tp736
asg17
I1999
sg44
VLANT
p737
sbag1
(g2
g3
NtRp738
(dp739
g52
V10.1046/j.1365-313X.1999.00430.x
p740
sg48
VPLANT J
p741
sg50
V18
p742
sg82
(lp743
(VNEUSTAEDTER
VD A
tp744
asg17
I1999
sg44
VLANT
p745
sbag1
(g2
g3
NtRp746
(dp747
g52
V10.1105/tpc.2.9.837
p748
sg48
VPLANT CELL
p749
sg50
V2
sg82
(lp750
(VOHL
VS
tp751
asg17
I1990
sg44
VLANT
p752
sbag1
(g2
g3
NtRp753
(dp754
g52
V10.1073/pnas.96.16.8955
p755
sg48
VP NATL ACAD SCI USA
p756
sg50
V96
p757
sg82
(lp758
(VOSAKABE
VK
tp759
asg17
I1999
sg44
V8955
p760
sbag1
(g2
g3
NtRp761
(dp762
g52
V10.1104/pp.95.1.137
p763
sg48
VPLANT PHYSIOL
p764
sg50
V95
p765
sg82
(lp766
(VPAKUSCH
VA E
tp767
asg17
I1991
sg44
VLANT
p768
sbag1
(g2
g3
NtRp769
(dp770
g52
V10.1046/j.1365-313x.2001.00956.x
p771
sg48
VPLANT J
p772
sg50
V25
p773
sg82
(lp774
(VPARVATHI
VK
tp775
asg17
I2001
sg44
VLANT
p776
sbag1
(g2
g3
NtRp777
(dp778
g52
V10.1104/pp.103.2.509
p779
sg48
VPLANT PHYSIOL
p780
sg50
V103
p781
sg82
(lp782
(VPELLEGRINI
VL
tp783
asg17
I1993
sg44
VLANT
p784
sbag1
(g2
g3
NtRp785
(dp786
g52
V10.1016/S0031-9422(01)00098-X
p787
sg48
VPHYTOCHEMISTRY
p788
sg50
V57
p789
sg82
(lp790
(VPINCON
VG
tp791
asg17
I2001
sg44
VHYTOCHEMISTRY
p792
sbag1
(g2
g3
NtRp793
(dp794
g52
V10.1046/j.1365-313x.2001.01049.x
p795
sg48
VPLANT J
p796
sg50
V26
p797
sg82
(lp798
(VPONTIER
VD
tp799
asg17
I2001
sg44
VLANT
p800
sbag1
(g2
g3
NtRp801
(dp802
g52
V10.1093/nar/23.23.4878
p803
sg48
VNUCLEIC ACIDS RES
p804
sg50
V23
p805
sg82
(lp806
(VQUANDT
VK
tp807
asg17
I1995
sg44
V4878
p808
sbag1
(g2
g3
NtRp809
(dp810
g52
V10.1023/A:1022666020026
p811
sg48
VJournal of Structural and Functional Genomics
p812
sg50
V3
sg82
(lp813
(VRAES
VJEROEN
tp814
asg17
I2003
sg44
V117
p815
sbag1
(g2
g3
NtRp816
(dp817
g52
Nsg48
VFORCON SOFTWARE TOOL
p818
sg50
Nsg82
(lp819
(VRAES
VJ
tp820
asg17
I1999
sg44
Nsbag1
(g2
g3
NtRp821
(dp822
g52
V10.1016/S0031-9422(01)00109-1
p823
sg48
VPHYTOCHEMISTRY
p824
sg50
V57
p825
sg82
(lp826
(VRALPH
VJ
tp827
asg17
I2001
sg44
VHYTOCHEMISTRY
p828
sbag1
(g2
g3
NtRp829
(dp830
g52
V10.1080/10409239991209336
p831
sg48
VCRIT REV BIOCHEM MOL
p832
sg50
V34
p833
sg82
(lp834
(VRANDALL
VS K
tp835
asg17
I1999
sg44
V325
p836
sbag1
(g2
g3
NtRp837
(dp838
g52
Nsg48
VPLANT CELL
p839
sg50
V11
p840
sg82
(lp841
(VRASMUSSEN
VS
tp842
asg17
I1999
sg44
VLANT
p843
sbag1
(g2
g3
NtRp844
(dp845
g52
V10.1104/pp.126.1.317
p846
sg48
VPLANT PHYSIOL
p847
sg50
V126
p848
sg82
(lp849
(VRO
VD K
tp850
asg17
I2001
sg44
VLANT
p851
sbag1
(g2
g3
NtRp852
(dp853
g52
V10.1104/pp.119.1.101
p854
sg48
VPLANT PHYSIOL
p855
sg50
V119
p856
sg82
(lp857
(VRUEGGER
VM
tp858
asg17
I1999
sg44
VLANT
p859
sbag1
(g2
g3
NtRp860
(dp861
g52
V10.1105/tpc.010412
p862
sg48
VPLANT CELL
p863
sg50
V14
p864
sg82
(lp865
(VRUSHTON
VP J
tp866
asg17
I2002
sg44
VLANT
p867
sbag1
(g2
g3
NtRp868
(dp869
g52
V10.1093/bioinformatics/16.10.944
p870
sg48
VBIOINFORMATICS
p871
sg50
V16
p872
sg82
(lp873
(VRUTHERFORD
VK
tp874
asg17
I2000
sg44
V944
p875
sbag1
(g2
g3
NtRp876
(dp877
g52
V10.1073/pnas.92.15.6901
p878
sg48
VP NATL ACAD SCI USA
p879
sg50
V92
p880
sg82
(lp881
(VSABLOWSKI
VR W M
tp882
asg17
I1995
sg44
V6901
p883
sbag1
(g2
g3
NtRp884
(dp885
g52
Nsg48
VLNCS
p886
sg50
V2066
p887
sg82
(lp888
(VSCHIEX
VT
tp889
asg17
I2001
sg44
V111
p890
sbag1
(g2
g3
NtRp891
(dp892
g52
V10.1093/bioinformatics/18.3.502
p893
sg48
VBIOINFORMATICS
p894
sg50
V18
p895
sg82
(lp896
(VSCHMIDT
VH A
tp897
asg17
I2002
sg44
V502
p898
sbag1
(g2
g3
NtRp899
(dp900
g52
V10.1073/pnas.1430550100
p901
sg48
VP NATL ACAD SCI USA
p902
sg50
V100
p903
sg82
(lp904
(VSCHNEIDER
VK
tp905
asg17
I2003
sg44
V8601
p906
sbag1
(g2
g3
NtRp907
(dp908
g52
V10.1074/jbc.M104047200
p909
sg48
VJ BIOL CHEM
p910
sg50
V276
p911
sg82
(lp912
(VSCHOCH
VG
tp913
asg17
I2001
sg44
V36566
p914
sbag1
(g2
g3
NtRp915
(dp916
g52
V10.1023/A:1005853404242
p917
sg48
VPLANT MOL BIOL
p918
sg50
V35
p919
sg82
(lp920
(VSEGUIN
VA
tp921
asg17
I1997
sg44
VLANT
p922
sbag1
(g2
g3
NtRp923
(dp924
g52
V10.1007/BF00042222
p925
sg48
VPLANT MOL BIOL
p926
sg50
V31
p927
sg82
(lp928
(VSEKI
VH
tp929
asg17
I1996
sg44
VLANT
p930
sbag1
(g2
g3
NtRp931
(dp932
g52
V10.1126/science.1071006
p933
sg48
VSCIENCE
p934
sg50
V296
p935
sg82
(lp936
(VSEKI
VM
tp937
asg17
I2002
sg44
V141
p938
sbag1
(g2
g3
NtRp939
(dp940
g52
Nsg48
VPLANT PHYSIOL
p941
sg50
V115
p942
sg82
(lp943
(VSEWALT
VV J H
tp944
asg17
I1997
sg44
VLANT
p945
sbag1
(g2
g3
NtRp946
(dp947
g52
V10.1046/j.1365-313X.1996.10061089.x
p948
sg48
VPLANT J
p949
sg50
V10
p950
sg82
(lp951
(VSHAH
VJ
tp952
asg17
I1996
sg44
VLANT
p953
sbag1
(g2
g3
NtRp954
(dp955
g52
V10.1046/j.1365-313X.2001.01123.x
p956
sg48
VPLANT J
p957
sg50
V28
p958
sg82
(lp959
(VSHIRLEY
VA M
tp960
asg17
I2001
sg44
VLANT
p961
sbag1
(g2
g3
NtRp962
(dp963
g52
V10.1104/pp.103.021048
p964
sg48
VPLANT PHYSIOL
p965
sg50
V132
p966
sg82
(lp967
(VSIBOUT
VR
tp968
asg17
I2003
sg44
VLANT
p969
sbag1
(g2
g3
NtRp970
(dp971
g52
V10.1073/pnas.212522399
p972
sg48
VP NATL ACAD SCI USA
p973
sg50
V99
p974
sg82
(lp975
(VSIMILLION
VC
tp976
asg17
I2002
sg44
V13627
p977
sbag1
(g2
g3
NtRp978
(dp979
g52
V10.1073/pnas.93.24.14199
p980
sg48
VP NATL ACAD SCI USA
p981
sg50
V93
p982
sg82
(lp983
(VSOMSSICH
VI E
tp984
asg17
I1996
sg44
V14199
p985
sbag1
(g2
g3
NtRp986
(dp987
g52
V10.1111/j.1399-3054.1985.tb02357.x
p988
sg48
VPHYSIOL PLANTARUM
p989
sg50
V65
p990
sg82
(lp991
(VSTRACK
VD
tp992
asg17
I1985
sg44
VHYSIOL
p993
sbag1
(g2
g3
NtRp994
(dp995
g52
V10.1105/tpc.12.12.2511
p996
sg48
VPLANT CELL
p997
sg50
V12
p998
sg82
(lp999
(VSUGIMOTO
VK
tp1000
asg17
I2000
sg44
VLANT
p1001
sbag1
(g2
g3
NtRp1002
(dp1003
g52
Nsg48
VPLANT CELL PHYSIOL
p1004
sg50
V36
p1005
sg82
(lp1006
(VTAKESHITA
VN
tp1007
asg17
I1995
sg44
VLANT
p1008
sbag1
(g2
g3
NtRp1009
(dp1010
g52
Nsg48
VPLANT CELL
p1011
sg50
V10
p1012
sg82
(lp1013
(VTAMAGNONE
VL
tp1014
asg17
I1998
sg44
VLANT
p1015
sbag1
(g2
g3
NtRp1016
(dp1017
g52
V10.1023/A:1006368316413
p1018
sg48
VPLANT MOL BIOL
p1019
sg50
V42
p1020
sg82
(lp1021
(VTAVARES
VR
tp1022
asg17
I2000
sg44
VLANT
p1023
sbag1
(g2
g3
NtRp1024
(dp1025
g52
V10.1080/02773818608085241
p1026
sg48
VJ WOOD CHEM TECHNOL
p1027
sg50
V6
sg82
(lp1028
(VTERASHIMA
VN
tp1029
asg17
I1986
sg44
V495
p1030
sbag1
(g2
g3
NtRp1031
(dp1032
g52
Nsg48
VNATURE
p1033
sg50
V408
p1034
sg82
(lp1035
(VKAUL
VS
tp1036
asg17
I2000
sg44
V796
p1037
sbag1
(g2
g3
NtRp1038
(dp1039
g52
V10.1016/S0163-7827(99)00014-4
p1040
sg48
VPROG LIPID RES
p1041
sg50
V39
p1042
sg82
(lp1043
(VTHOMPSON
VG A
tp1044
asg17
I2000
sg44
VROG
p1045
sbag1
(g2
g3
NtRp1046
(dp1047
g52
V10.1093/nar/22.22.4673
p1048
sg48
VNUCLEIC ACIDS RES
p1049
sg50
V22
p1050
sg82
(lp1051
(VTHOMPSON
VJ D
tp1052
asg17
I1994
sg44
V4673
p1053
sbag1
(g2
g3
NtRp1054
(dp1055
g52
V10.1074/jbc.272.31.19176
p1056
sg48
VJ BIOL CHEM
p1057
sg50
V272
p1058
sg82
(lp1059
(VURBAN
VP
tp1060
asg17
I1997
sg44
V19176
p1061
sbag1
(g2
g3
NtRp1062
(dp1063
g52
Nsg48
VCOMPUT APPL BIOSCI
p1064
sg50
V10
p1065
sg82
(lp1066
(VVANDEPEER
VY
tp1067
asg17
I1994
sg44
V569
p1068
sbag1
(g2
g3
NtRp1069
(dp1070
g52
Nsg48
VEMBO J
p1071
sg50
V11
p1072
sg82
(lp1073
(VVERNON
VD M
tp1074
asg17
I1992
sg44
V2077
p1075
sbag1
(g2
g3
NtRp1076
(dp1077
g52
V10.1104/pp.74.4.901
p1078
sg48
VPLANT PHYSIOL
p1079
sg50
V74
p1080
sg82
(lp1081
(VWAGNER
VG J
tp1082
asg17
I1984
sg44
VLANT
p1083
sbag1
(g2
g3
NtRp1084
(dp1085
g52
V10.1094/MPMI-6-582
p1086
sg48
VMOL PLANT MICROBE IN
p1087
sg50
V6
sg82
(lp1088
(VWANNER
VL A
tp1089
asg17
I1993
sg44
V582
p1090
sbag1
(g2
g3
NtRp1091
(dp1092
g52
V10.1073/pnas.92.16.7148
p1093
sg48
VP NATL ACAD SCI USA
p1094
sg50
V92
p1095
sg82
(lp1096
(VWILLIAMSON
VJ D
tp1097
asg17
I1995
sg44
V7148
p1098
sbag1
(g2
g3
NtRp1099
(dp1100
g52
V10.1034/j.1399-3054.1999.100119.x
p1101
sg48
VPHYSIOL PLANTARUM
p1102
sg50
V107
p1103
sg82
(lp1104
(VWINKEL-SHIRLEY
VB
tp1105
asg17
I1999
sg44
VHYSIOL
p1106
sbag1
(g2
g3
NtRp1107
(dp1108
g52
V10.1105/tpc.6.10.1427
p1109
sg48
VPLANT CELL
p1110
sg50
V6
sg82
(lp1111
(VYE
VZ H
tp1112
asg17
I1994
sg44
VLANT
p1113
sbag1
(g2
g3
NtRp1114
(dp1115
g52
Nsg48
VPLANT J
p1116
sg50
V3
sg82
(lp1117
(VYU
VL M
tp1118
asg17
I1993
sg44
VLANT
p1119
sbag1
(g2
g3
NtRp1120
(dp1121
g52
Nsg48
VADV ORG BIO
p1122
sg50
V3
sg82
(lp1123
(VZHANG
VL X
tp1124
asg17
I1997
sg44
V161
p1125
sbag1
(g2
g3
NtRp1126
(dp1127
g52
Nsg48
VPLANT CELL
p1128
sg50
V10
p1129
sg82
(lp1130
(VZHONG
VR Q
tp1131
asg17
I1998
sg44
VLANT
p1132
sbasb.