ccopy_reg
_reconstructor
p1
(ctethne.classes.paper
Paper
p2
c__builtin__
object
p3
NtRp4
(dp5
S'publisherCity'
p6
VROCKVILLE
p7
sS'reprintAddress'
p8
VDickstein, R (reprint author), Univ N Texas, Dept Biol Sci, Denton, TX 76203 USA.
p9
sS'WC'
p10
VPlant Sciences
p11
sS'GA'
p12
V176HH
p13
sS'abstract'
p14
VThe AGC protein kinase family (cAMP-dependent protein kinases A, cGMP- dependent protein kinases G, and phospholipid-dependent protein kinases C) have important roles regulating growth and development in animals and fungi. They are activated via lipid second messengers by 3-phosphoinositide- dependent protein kinase coupling lipid signals to phosphorylation of the AGC kinases. These phosphorylate downstream signal transduction protein targets. AGC kinases are becoming better studied in plants, especially in Arabidopsis (Arabidopsis thaliana), where specific AGC kinases have been shown to have key roles in regulating growth signal pathways. We report here the isolation and characterization of the first AGC kinase gene identified in Medicago truncatula, MtIRE. It was cloned by homology with the Arabidopsis INCOMPLETE ROOT HAIR ELONGATION (IRE) gene. Semiquantitative reverse transcription-polymerase chain reaction analysis shows that, unlike its Arabidopsis counterpart, MtIRE is not expressed in uninoculated roots, but is expressed in root systems that have been inoculated with Sinorhizobium meliloti and are developing root nodules. MtIRE expression is also found in flowers. Expression analysis of a time course of nodule development and of nodulating root systems of many Medicago nodulation mutants shows MtIRE expression correlates with infected cell maturation during nodule development. During the course of these experiments, nine Medicago nodulation mutants, including sli and dnf1 to 7 mutants, were evaluated for the first time for their microscopic nodule phenotype using S. meliloti constitutively expressing lacZ. Spatial localization of a pMtIRE- gusA transgene in transformed roots of composite plants showed that MtIRE expression is confined to the proximal part of the invasion zone, zone II, found in indeterminate nodules. This suggests MtIRE is useful as an expression marker for this region of the invasion zone.
p15
sS'pageEnd'
p16
I694
sS'publisherAddress'
p17
V15501 MONONA DRIVE, ROCKVILLE, MD 20855 USA
p18
sS'documentType'
p19
VArticle
p20
sS'subject'
p21
VPlant Sciences
p22
sS'isoSource'
p23
VPlant Physiol.
p24
sS'timesCited'
p25
(lp26
I14
aVZ9 14
p27
asS'PT'
p28
VJ
sS'title'
p29
VAn Ire-Like Agc Kinase Gene, Mtire, Has Unique Expression In The Invasion Zone Of Developing Root Nodules In Medicago Truncatula
p30
sS'ISSN'
p31
(lp32
V0032-0889
p33
aVJ9 PLANT PHYSIOL
p34
asS'authors_full'
p35
(lp36
(VPISLARIU
VCATALINA I
tp37
a(VDICKSTEIN
VREBECCA
tp38
asS'PG'
p39
I13
sS'PD'
p40
VJUN
p41
sS'pageStart'
p42
I682
sS'issue'
p43
I2
sS'journal'
p44
VPLANT PHYSIOLOGY
p45
sS'volume'
p46
V144
p47
sS'doi'
p48
V10.1104/pp.106.092494
p49
sS'emailAddress'
p50
Vbeccad@unt.edu
p51
sS'authorAddress'
p52
VUniv N Texas, Dept Biol Sci, Denton, TX 76203 USA.
p53
sS'date'
p54
I2007
sS'ER'
p55
V
sS'publisher'
p56
VAMER SOC PLANT BIOLOGISTS
p57
sS'authorKeywords'
p58
(lp59
VPROTEIN-KINASE
p60
aVSIGNALING PATHWAYS
p61
aVNITROGEN-FIXATION
p62
aVINFECTION THREADS
p63
aVCALCIUM-BINDING
p64
aVPLANT-GROWTH
p65
aVHAIR-GROWTH
p66
aVBLUE-LIGHT
p67
aVCELL-DEATH
p68
aVARABIDOPSIS
p69
asS'language'
p70
VEnglish
p71
sS'wosid'
p72
VWOS:000247075000016
p73
sS'citationCount'
p74
I68
sS'authors_init'
p75
(lp76
(VPISLARIU
VC I
tp77
a(VDICKSTEIN
VR
tp78
asS'citedReferences'
p79
(lp80
g1
(g2
g3
NtRp81
(dp82
g48
V10.1007/BF00019952
p83
sg44
VPLANT MOL BIOL
p84
sg46
V21
p85
sg75
(lp86
(VALLISON
VL A
tp87
asg54
I1993
sg42
VLANT
p88
sbag1
(g2
g3
NtRp89
(dp90
g48
V10.1006/jmbi.1990.9999
p91
sg44
VJ MOL BIOL
p92
sg46
V215
p93
sg75
(lp94
(VALTSCHUL
VS F
tp95
asg54
I1990
sg42
V403
p96
sbag1
(g2
g3
NtRp97
(dp98
g48
V10.1038/sj.emboj.7600068
p99
sg44
VEMBO J
p100
sg46
V23
p101
sg75
(lp102
(VANTHONY
VR G
tp103
asg54
I2004
sg42
V572
p104
sbag1
(g2
g3
NtRp105
(dp106
g48
V10.1074/jbc.M607341200
p107
sg44
VJ BIOL CHEM
p108
sg46
V281
p109
sg75
(lp110
(VANTHONY
VR G
tp111
asg54
I2006
sg42
V37536
p112
sbag1
(g2
g3
NtRp113
(dp114
g48
Nsg44
VPLANT CELL
p115
sg46
V6
sg75
(lp116
(VARDOUREL
VM
tp117
asg54
I1994
sg42
VLANT
p118
sbag1
(g2
g3
NtRp119
(dp120
g48
Nsg44
VCURRENT PROTOCOLS MO
p121
sg46
Nsg75
(lp122
(VAUSUBEL
VF M
tp123
asg54
I1988
sg42
Nsbag1
(g2
g3
NtRp124
(dp125
g48
Nsg44
VPLANT PHYSIOL
p126
sg46
V107
p127
sg75
(lp128
(VBENABEN
VV
tp129
asg54
I1995
sg42
VLANT
p130
sbag1
(g2
g3
NtRp131
(dp132
g48
V10.1016/S1360-1385(03)00188-2
p133
sg44
VTRENDS PLANT SCI
p134
sg46
V8
sg75
(lp135
(VBOGRE
VL
tp136
asg54
I2003
sg42
V424
p137
sbag1
(g2
g3
NtRp138
(dp139
g48
V10.1093/nar/25.12.2464
p140
sg44
VNUCLEIC ACIDS RES
p141
sg46
V25
p142
sg75
(lp143
(VBOHM
VS
tp144
asg54
I1997
sg42
V2464
p145
sbag1
(g2
g3
NtRp146
(dp147
g48
V10.1094/MPMI.2001.14.6.695
p148
sg44
VMOL PLANT MICROBE IN
p149
sg46
V14
p150
sg75
(lp151
(VBOISSON-DERNIER
VA
tp152
asg54
I2001
sg42
V695
p153
sbag1
(g2
g3
NtRp154
(dp155
g48
Nsg44
VPLANT CELL
p156
sg46
V2
sg75
(lp157
(VBOIVIN
VC
tp158
asg54
I1990
sg42
VLANT
p159
sbag1
(g2
g3
NtRp160
(dp161
g48
V10.1080/07352680490480734
p162
sg44
VCRIT REV PLANT SCI
p163
sg46
V23
p164
sg75
(lp165
(VBREWIN
VN J
tp166
asg54
I2004
sg42
V293
p167
sbag1
(g2
g3
NtRp168
(dp169
g48
V10.1146/annurev.cb.07.110191.001203
p170
sg44
VANNU REV CELL BIOL
p171
sg46
V7
sg75
(lp172
(VBREWIN
VN J
tp173
asg54
I1991
sg42
V191
p174
sbag1
(g2
g3
NtRp175
(dp176
g48
V10.1016/S1360-1385(02)02245-8
p177
sg44
VTRENDS PLANT SCI
p178
sg46
V7
sg75
(lp179
(VBRIGGS
VW R
tp180
asg54
I2002
sg42
V204
p181
sbag1
(g2
g3
NtRp182
(dp183
g48
V10.1105/tpc.12.9.1647
p184
sg44
VPLANT CELL
p185
sg46
V12
p186
sg75
(lp187
(VCATOIRA
VR
tp188
asg54
I2000
sg42
VLANT
p189
sbag1
(g2
g3
NtRp190
(dp191
g48
V10.1016/S0092-8674(00)80682-0
p192
sg44
VCELL
p193
sg46
V100
p194
sg75
(lp195
(VCHRISTENSEN
VS K
tp196
asg54
I2000
sg42
V469
p197
sbag1
(g2
g3
NtRp198
(dp199
g48
Nsg44
VEMBO J
p200
sg46
V13
p201
sg75
(lp202
(VCRESPI
VM D
tp203
asg54
I1994
sg42
V5099
p204
sbag1
(g2
g3
NtRp205
(dp206
g48
V10.1038/sj.emboj.7600910
p207
sg44
VEMBO J
p208
sg46
V25
p209
sg75
(lp210
(VDEVARENNE
VT P
tp211
asg54
I2006
sg42
V255
p212
sbag1
(g2
g3
NtRp213
(dp214
g48
V10.1104/pp.104.013612
p215
sg44
VPLANT PHYSIOL
p216
sg46
V136
p217
sg75
(lp218
(VEL
VYAHYAOUI F
tp219
asg54
I2004
sg42
VLANT
p220
sbag1
(g2
g3
NtRp221
(dp222
g48
V10.1023/B:GLYC.0000043740.26062.2c
p223
sg44
VGLYCOCONJUGATE J
p224
sg46
V21
p225
sg75
(lp226
(VENDO
VT
tp227
asg54
I2004
sg42
V3
sbag1
(g2
g3
NtRp228
(dp229
g48
V10.1104/pp.006833
p230
sg44
VPLANT PHYSIOL
p231
sg46
V130
p232
sg75
(lp233
(VFEDOROVA
VM
tp234
asg54
I2002
sg42
VLANT
p235
sbag1
(g2
g3
NtRp236
(dp237
g48
V10.1128/MMBR.68.2.280-300.2004
p238
sg44
VMICROBIOL MOL BIOL R
p239
sg46
V68
p240
sg75
(lp241
(VGAGE
VD J
tp242
asg54
I2004
sg42
V280
p243
sbag1
(g2
g3
NtRp244
(dp245
g48
V10.1016/S1369-5274(00)00149-1
p246
sg44
VCURR OPIN MICROBIOL
p247
sg46
V3
sg75
(lp248
(VGAGE
VD J
tp249
asg54
I2000
sg42
V613
p250
sbag1
(g2
g3
NtRp251
(dp252
g48
Nsg44
VAppl Bioinformatics
p253
sg46
V1
sg75
(lp254
(VGATTIKER
VALEXANDRE
tp255
asg54
I2002
sg42
V107
p256
sbag1
(g2
g3
NtRp257
(dp258
g48
V10.1038/nature04812
p259
sg44
VNATURE
p260
sg46
V441
p261
sg75
(lp262
(VGLEASON
VC
tp263
asg54
I2006
sg42
V1149
p264
sbag1
(g2
g3
NtRp265
(dp266
g48
V10.1094/MPMI-19-0495
p267
sg44
VMOL PLANT MICROBE IN
p268
sg46
V19
p269
sg75
(lp270
(VGODFROY
VO
tp271
asg54
I2006
sg42
V495
p272
sbag1
(g2
g3
NtRp273
(dp274
g48
V10.1007/BF00014672
p275
sg44
VPLANT MOL BIOL
p276
sg46
V25
p277
sg75
(lp278
(VHAJDUKIEWICZ
VP
tp279
asg54
I1994
sg42
VLANT
p280
sbag1
(g2
g3
NtRp281
(dp282
g48
VDOI 10.1111/J.1469-8137.2009.02874.X
p283
sg44
VNUCL ACIDS S SER
p284
sg46
V41
p285
sg75
(lp286
(VHALL
VT A
tp287
asg54
I1999
sg42
V95
p288
sbag1
(g2
g3
NtRp289
(dp290
g48
Nsg44
VFASEB J
p291
sg46
V9
sg75
(lp292
(VHANKS
VS K
tp293
asg54
I1995
sg42
V576
p294
sbag1
(g2
g3
NtRp295
(dp296
g48
V10.1111/j.1469-8137.2004.01138.x
p297
sg44
VNEW PHYTOL
p298
sg46
V163
p299
sg75
(lp300
(VHAYNES
VJ G
tp301
asg54
I2004
sg42
V661
p302
sbag1
(g2
g3
NtRp303
(dp304
g48
V10.1093/nar/16.20.9877
p305
sg44
VNUCLEIC ACIDS RES
p306
sg46
V16
p307
sg75
(lp308
(VHOFGEN
VR
tp309
asg54
I1988
sg42
V9877
p310
sbag1
(g2
g3
NtRp311
(dp312
g48
V10.1126/science.278.5346.2120
p313
sg44
VSCIENCE
p314
sg46
V278
p315
sg75
(lp316
(VHUALA
VE
tp317
asg54
I1997
sg42
V2120
p318
sbag1
(g2
g3
NtRp319
(dp320
g48
Nsg44
VEMBO J
p321
sg46
V6
sg75
(lp322
(VJEFFERSON
VR A
tp323
asg54
I1987
sg42
V3901
p324
sbag1
(g2
g3
NtRp325
(dp326
g48
V10.1128/MB.24.22.9763-9770.2004
p327
sg44
VMOL CELL BIOL
p328
sg46
V24
p329
sg75
(lp330
(VJO
VD G
tp331
asg54
I2004
sg42
V9763
p332
sbag1
(g2
g3
NtRp333
(dp334
g48
V10.1094/MPMI.2001.14.6.737
p335
sg44
VMOL PLANT MICROBE IN
p336
sg46
V14
p337
sg75
(lp338
(VJOURNET
VE P
tp339
asg54
I2001
sg42
V737
p340
sbag1
(g2
g3
NtRp341
(dp342
g48
V10.1038/311033a0
p343
sg44
VNATURE
p344
sg46
V311
p345
sg75
(lp346
(VKALDERON
VD
tp347
asg54
I1984
sg42
V33
p348
sbag1
(g2
g3
NtRp349
(dp350
g48
Nsg44
VBIOL NITROGEN FIXATI
p351
sg46
Nsg75
(lp352
(VKIJNE
VJ W
tp353
asg54
I1992
sg42
V349
p354
sbag1
(g2
g3
NtRp355
(dp356
g48
V10.1104/pp.104.045575
p357
sg44
VPLANT PHYSIOL
p358
sg46
V136
p359
sg75
(lp360
(VKUPPUSAMY
VK T
tp361
asg54
I2004
sg42
VLANT
p362
sbag1
(g2
g3
NtRp363
(dp364
g48
V10.1126/science.1093038
p365
sg44
VSCIENCE
p366
sg46
V303
p367
sg75
(lp368
(VLEVY
VJ
tp369
asg54
I2004
sg42
V1361
p370
sbag1
(g2
g3
NtRp371
(dp372
g48
V10.1126/science.1090074
p373
sg44
VSCIENCE
p374
sg46
V302
p375
sg75
(lp376
(VLIMPENS
VE
tp377
asg54
I2003
sg42
V630
p378
sbag1
(g2
g3
NtRp379
(dp380
g48
V10.1104/pp.106.076711
p381
sg44
VPLANT PHYSIOL
p382
sg46
V141
p383
sg75
(lp384
(VLIU
VJ Q
tp385
asg54
I2006
sg42
VLANT
p386
sbag1
(g2
g3
NtRp387
(dp388
g48
Nsg44
VPLANT PHYSIOL
p389
sg46
V140
p390
sg75
(lp391
(VLOHAR
VD P
tp392
asg54
I2006
sg42
VLANT
p393
sbag1
(g2
g3
NtRp394
(dp395
g48
V10.1073/pnas.0400595101
p396
sg44
VP NATL ACAD SCI USA
p397
sg46
V101
p398
sg75
(lp399
(VMITRA
VR M
tp400
asg54
I2004
sg42
V4701
p401
sbag1
(g2
g3
NtRp402
(dp403
g48
V10.1104/pp.103.031518
p404
sg44
VPLANT PHYSIOL
p405
sg46
V134
p406
sg75
(lp407
(VMITRA
VR M
tp408
asg54
I2004
sg42
VLANT
p409
sbag1
(g2
g3
NtRp410
(dp411
g48
V10.1016/j.semcdb.2003.12.022
p412
sg44
VSEMIN CELL DEV BIOL
p413
sg46
V15
p414
sg75
(lp415
(VMORA
VA
tp416
asg54
I2004
sg42
V161
p417
sbag1
(g2
g3
NtRp418
(dp419
g48
V10.1046/j.1365-313X.2002.01290.x
p420
sg44
VPLANT J
p421
sg46
V30
p422
sg75
(lp423
(VOYAMA
VT
tp424
asg54
I2002
sg42
VLANT
p425
sbag1
(g2
g3
NtRp426
(dp427
g48
V10.1104/pp.015677
p428
sg44
VPLANT PHYSIOL
p429
sg46
V131
p430
sg75
(lp431
(VPENMETSA
VR V
tp432
asg54
I2003
sg42
VLANT
p433
sbag1
(g2
g3
NtRp434
(dp435
g48
V10.1126/science.275.5299.527
p436
sg44
VSCIENCE
p437
sg46
V275
p438
sg75
(lp439
(VPENMETSA
VR V
tp440
asg54
I1997
sg42
V527
p441
sbag1
(g2
g3
NtRp442
(dp443
g48
V10.1094/MPMI-6-699
p444
sg44
VMOL PLANT MICROBE IN
p445
sg46
V6
sg75
(lp446
(VQUANDT
VH J
tp447
asg54
I1993
sg42
V699
p448
sbag1
(g2
g3
NtRp449
(dp450
g48
V10.1038/nature02353
p451
sg44
VNATURE
p452
sg46
V427
p453
sg75
(lp454
(VRENTEL
VM C
tp455
asg54
I2004
sg42
V858
p456
sbag1
(g2
g3
NtRp457
(dp458
g48
V10.1016/0092-8674(91)90245-T
p459
sg44
VCELL
p460
sg46
V64
p461
sg75
(lp462
(VROBBINS
VJ
tp463
asg54
I1991
sg42
V615
p464
sbag1
(g2
g3
NtRp465
(dp466
g48
V10.1111/j.1365-313X.2004.02155.x
p467
sg44
VPLANT J
p468
sg46
V39
p469
sg75
(lp470
(VRODRIGUEZ-LLORENTE
VI D
tp471
asg54
I2004
sg42
VLANT
p472
sbag1
(g2
g3
NtRp473
(dp474
g48
V10.3732/ajb.91.10.1656
p475
sg44
VAM J BOT
p476
sg46
V91
p477
sg75
(lp478
(VSANDERSON
VM J
tp479
asg54
I2004
sg42
V1656
p480
sbag1
(g2
g3
NtRp481
(dp482
g48
V10.1104/pp.124.4.1525
p483
sg44
VPLANT PHYSIOL
p484
sg46
V124
p485
sg75
(lp486
(VSCHIEFELBEIN
VJ W
tp487
asg54
I2000
sg42
VLANT
p488
sbag1
(g2
g3
NtRp489
(dp490
g48
V10.1016/S0168-9452(03)00331-5
p491
sg44
VPLANT SCI
p492
sg46
V165
p493
sg75
(lp494
(VSON
VO
tp495
asg54
I2003
sg42
VLANT
p496
sbag1
(g2
g3
NtRp497
(dp498
g48
V10.1104/pp.105.072132
p499
sg44
VPLANT PHYSIOL
p500
sg46
V140
p501
sg75
(lp502
(VSTARKER
VC G
tp503
asg54
I2006
sg42
VLANT
p504
sbag1
(g2
g3
NtRp505
(dp506
g48
V10.1104/pp.017186
p507
sg44
VPLANT PHYSIOL
p508
sg46
V131
p509
sg75
(lp510
(VSZCZYGLOWSKI
VK
tp511
asg54
I2003
sg42
VLANT
p512
sbag1
(g2
g3
NtRp513
(dp514
g48
V10.1105/tpc.104.030049
p515
sg44
VPLANT CELL
p516
sg46
V17
p517
sg75
(lp518
(VTAKEMIYA
VA
tp519
asg54
I2005
sg42
VLANT
p520
sbag1
(g2
g3
NtRp521
(dp522
g48
V10.1016/S0014-5793(03)00474-5
p523
sg44
VFEBS LETT
p524
sg46
V546
p525
sg75
(lp526
(VTAMASKOVIC
VR
tp527
asg54
I2003
sg42
V73
p528
sbag1
(g2
g3
NtRp529
(dp530
g48
V10.1093/nar/22.22.4673
p531
sg44
VNUCLEIC ACIDS RES
p532
sg46
V22
p533
sg75
(lp534
(VTHOMPSON
VJ D
tp535
asg54
I1994
sg42
V4673
p536
sbag1
(g2
g3
NtRp537
(dp538
g48
V10.1038/nature04862
p539
sg44
VNATURE
p540
sg46
V441
p541
sg75
(lp542
(VTIRICHINE
VL
tp543
asg54
I2006
sg42
V1153
p544
sbag1
(g2
g3
NtRp545
(dp546
g48
V10.1146/annurev.arplant.48.1.493
p547
sg44
VANNU REV PLANT PHYS
p548
sg46
V48
p549
sg75
(lp550
(VUDVARDI
VM K
tp551
asg54
I1997
sg42
V493
p552
sbag1
(g2
g3
NtRp553
(dp554
g48
Nsg44
VJ BACTERIOL
p555
sg46
V172
p556
sg75
(lp557
(VVASSE
VJ
tp558
asg54
I1990
sg42
V4295
p559
sbag1
(g2
g3
NtRp560
(dp561
g48
V10.1104/pp.104.049064
p562
sg44
VPLANT PHYSIOL
p563
sg46
V136
p564
sg75
(lp565
(VVEERESHLINGAM
VH
tp566
asg54
I2004
sg42
VLANT
p567
sbag1
(g2
g3
NtRp568
(dp569
g48
V10.1104/pp.104.057034
p570
sg44
VPLANT PHYSIOL
p571
sg46
V137
p572
sg75
(lp573
(VYOUNG
VN D
tp574
asg54
I2005
sg42
VLANT
p575
sbag1
(g2
g3
NtRp576
(dp577
g48
V10.1073/pnas.0510283103
p578
sg44
VP NATL ACAD SCI USA
p579
sg46
V103
p580
sg75
(lp581
(VZEGZOUTI
VH
tp582
asg54
I2006
sg42
V6404
p583
sbag1
(g2
g3
NtRp584
(dp585
g48
Nsg44
VJ BIOL CHEM
p586
sg46
V281
p587
sg75
(lp588
(VZEGZOUTI
VH
tp589
asg54
I2007
sg42
V35520
p590
sbag1
(g2
g3
NtRp591
(dp592
g48
V10.1094/MPMI.2001.14.12.1463
p593
sg44
VMOL PLANT MICROBE IN
p594
sg46
V14
p595
sg75
(lp596
(VZUCCHERO
VJ C
tp597
asg54
I2001
sg42
V1463
p598
sbasb.