ccopy_reg
_reconstructor
p1
(ctethne.classes.paper
Paper
p2
c__builtin__
object
p3
NtRp4
(dp5
S'publisherCity'
p6
VROCKVILLE
p7
sS'reprintAddress'
p8
VLarkin, RM (reprint author), Michigan State Univ, Dept Energy, Plant Res Lab, E Lansing, MI 48824 USA.
p9
sS'WC'
p10
VPlant Sciences
p11
sS'GA'
p12
V937KJ
p13
sS'FX'
p14
(lp15
VThis work was supported by the National Science Foundation (grant no.
p16
aVIOB-0517841 and IOS-1021755) and by the Chemical Sciences, Geosciences,
p17
aVand Biosciences Division, Office of Basic Energy Sciences, Office of
p18
aVScience, U.S. Department of Energy (grant no. DE-FG02-91ER20021).
p19
asS'abstract'
p20
VWe previously provided evidence that plastid signaling regulates the downstream components of a light signaling network and that this signal integration coordinates chloroplast biogenesis with both the light environment and development by regulating gene expression. We tested these ideas by analyzing light-and plastid-regulated transcriptomes in Arabidopsis (Arabidopsis thaliana). We found that the enrichment of Gene Ontology terms in these transcriptomes is consistent with the integration of light and plastid signaling (1) down-regulating photosynthesis and inducing both repair and stress tolerance in dysfunctional chloroplasts and (2) helping coordinate processes such as growth, the circadian rhythm, and stress responses with the degree of chloroplast function. We then tested whether factors that contribute to this signal integration are also regulated by light and plastid signals by characterizing T-DNA insertion alleles of genes that are regulated by light and plastid signaling and that encode proteins that are annotated as contributing to signaling, transcription, or no known function. We found that a high proportion of these mutant alleles induce chloroplast biogenesis during deetiolation. We quantified the expression of four photosynthesis-related genes in seven of these enhanced deetiolation (end) mutants and found that photosynthesis-related gene expression is attenuated. This attenuation is particularly striking for Photosystem II subunit S expression. We conclude that the integration of light and plastid signaling regulates a number of END genes that help optimize chloroplast function and that at least some END genes affect photosynthesis-related gene expression.
p21
sS'pageEnd'
p22
I390
sS'date'
p23
I2012
sS'documentType'
p24
VArticle
p25
sS'subject'
p26
VPlant Sciences
p27
sS'isoSource'
p28
VPlant Physiol.
p29
sS'timesCited'
p30
(lp31
I8
aVZ9 8
p32
asS'funding'
p33
(lp34
(VNational Science Foundation
VIOB-0517841, IOS-1021755
tp35
a(VChemical Sciences, Geosciences, and Biosciences Division, Office of Basic Energy Sciences, Office of Science, U.S. Department of Energy
VDE-FG02-91ER20021
tp36
asS'PT'
p37
VJ
sS'title'
p38
VPlastids Are Major Regulators Of Light Signaling In Arabidopsis
p39
sS'ISSN'
p40
(lp41
V0032-0889
p42
aVJ9 PLANT PHYSIOL
p43
asS'authors_full'
p44
(lp45
(VRUCKLE
VMICHAEL E
tp46
a(VBURGOON
VLYLE D
tp47
a(VLAWRENCE
VLAUREN A
tp48
a(VSINKLER
VCHRISTOPHER A
tp49
a(VLARKIN
VROBERT M
tp50
asS'PG'
p51
I25
sS'PD'
p52
VMAY
p53
sS'pageStart'
p54
I366
sS'issue'
p55
I1
sS'journal'
p56
VPLANT PHYSIOLOGY
p57
sS'volume'
p58
V159
p59
sS'doi'
p60
V10.1104/pp.112.193599
p61
sS'emailAddress'
p62
Vlarkinr@msu.edu
p63
sS'authorAddress'
p64
(lp65
V[Ruckle, Michael E.; Lawrence, Lauren A.; Sinkler, Christopher A.; Larkin, Robert M.] Michigan State Univ, Dept Energy, Plant Res Lab, E Lansing, MI 48824 USA.
p66
aV[Ruckle, Michael E.; Burgoon, Lyle D.; Larkin, Robert M.] Michigan State Univ, Dept Biochem & Mol Biol, E Lansing, MI 48824 USA.
p67
aV[Burgoon, Lyle D.] Michigan State Univ, Gene Express Dev & Dis Initiat, E Lansing, MI 48824 USA.
p68
asS'publisherAddress'
p69
V15501 MONONA DRIVE, ROCKVILLE, MD 20855 USA
p70
sS'ER'
p71
V
sS'publisher'
p72
VAMER SOC PLANT BIOLOGISTS
p73
sS'authorKeywords'
p74
(lp75
VNUCLEAR GENE-EXPRESSION
p76
aVTHYLAKOID MEMBRANE PROTEOME
p77
aVSEEDLING DE-ETIOLATION
p78
aVPROGRAMMED CELL-DEATH
p79
aVIN-DEPTH ANALYSIS
p80
aVTRANSCRIPTION-FACTOR
p81
aVPHYTOCHROME-A
p82
aVCHLOROPLAST-BIOGENESIS
p83
aVALTERNATIVE OXIDASE
p84
aVPHOTOSYSTEM-II
p85
asS'language'
p86
VEnglish
p87
sS'wosid'
p88
VWOS:000303657100030
p89
sS'citationCount'
p90
I173
sS'authors_init'
p91
(lp92
(VRUCKLE
VM E
tp93
a(VBURGOON
VL D
tp94
a(VLAWRENCE
VL A
tp95
a(VSINKLER
VC A
tp96
a(VLARKIN
VR M
tp97
asS'citedReferences'
p98
(lp99
g1
(g2
g3
NtRp100
(dp101
g60
V10.1111/j.1365-313X.2005.02468.x
p102
sg56
VPLANT J
p103
sg58
V43
p104
sg91
(lp105
(VACEVEDO-HERNANDEZ
VG J
tp106
asg23
I2005
sg54
VLANT
p107
sbag1
(g2
g3
NtRp108
(dp109
g60
V10.1007/BF00019467
p110
sg56
VPLANT MOL BIOL
p111
sg58
V31
p112
sg91
(lp113
(VADAMSKA
VI
tp114
asg23
I1996
sg54
VLANT
p115
sbag1
(g2
g3
NtRp116
(dp117
g60
V10.1105/tpc.110.082503
p118
sg56
VPLANT CELL
p119
sg58
V23
p120
sg91
(lp121
(VADHIKARI
VN D
tp122
asg23
I2011
sg54
VLANT
p123
sbag1
(g2
g3
NtRp124
(dp125
g60
V10.1016/j.bbabio.2009.05.013
p126
sg56
VBBA
p127
sg58
V1787
p128
sg91
(lp129
(VALLAHVERDIYEVA
VY
tp130
asg23
I2009
sg54
V1230
p131
sbag1
(g2
g3
NtRp132
(dp133
g60
V10.1126/science.1086391
p134
sg56
VSCIENCE
p135
sg58
V301
p136
sg91
(lp137
(VALONSO
VJ M
tp138
asg23
I2003
sg54
V653
p139
sbag1
(g2
g3
NtRp140
(dp141
g60
V10.1104/pp.109.135780
p142
sg56
VPLANT PHYSIOL
p143
sg58
V150
p144
sg91
(lp145
(VALURU
VM R
tp146
asg23
I2009
sg54
VLANT
p147
sbag1
(g2
g3
NtRp148
(dp149
g60
V10.1073/pnas.0706403104
p150
sg56
VP NATL ACAD SCI USA
p151
sg58
V104
p152
sg91
(lp153
(VAMANO
VY
tp154
asg23
I2007
sg54
V18333
p155
sbag1
(g2
g3
NtRp156
(dp157
g60
V10.1104/pp.102.019281
p158
sg56
VPLANT PHYSIOL
p159
sg58
V132
p160
sg91
(lp161
(VANDERSSON
VU
tp162
asg23
I2003
sg54
VLANT
p163
sbag1
(g2
g3
NtRp164
(dp165
g60
Nsg56
VPLANT CELL
p166
sg58
V6
sg91
(lp167
(VANG
VL H
tp168
asg23
I1994
sg54
VLANT
p169
sbag1
(g2
g3
NtRp170
(dp171
g60
V10.1104/pp.111.188623
p172
sg56
VPLANT PHYSIOL
p173
sg58
V158
p174
sg91
(lp175
(VANTONI
VR
tp176
asg23
I2012
sg54
VLANT
p177
sbag1
(g2
g3
NtRp178
(dp179
g60
Nsg56
VNAT GENET
p180
sg58
V25
p181
sg91
(lp182
(VASHBURNER
VM
tp183
asg23
I2000
sg54
V25
p184
sbag1
(g2
g3
NtRp185
(dp186
g60
V10.1111/j.1365-3040.2009.01958.x
p187
sg56
VPLANT CELL ENVIRON
p188
sg58
V32
p189
sg91
(lp190
(VBALLARE
VC L
tp191
asg23
I2009
sg54
VLANT
p192
sbag1
(g2
g3
NtRp193
(dp194
g60
V10.1104/pp.108.118430
p195
sg56
VPLANT PHYSIOL
p196
sg58
V147
p197
sg91
(lp198
(VBARRY
VC S
tp199
asg23
I2008
sg54
VLANT
p200
sbag1
(g2
g3
NtRp201
(dp202
g60
V10.1111/j.1365-313X.2009.03935.x
p203
sg56
VPLANT J
p204
sg58
V60
p205
sg91
(lp206
(VBARUAH
VA
tp207
asg23
I2009
sg54
VLANT
p208
sbag1
(g2
g3
NtRp209
(dp210
g60
V10.1007/s11103-009-9491-0
p211
sg56
VPLANT MOL BIOL
p212
sg58
V70
p213
sg91
(lp214
(VBARUAH
VA
tp215
asg23
I2009
sg54
VLANT
p216
sbag1
(g2
g3
NtRp217
(dp218
g60
V10.1093/bioinformatics/btn250
p219
sg56
VBIOINFORMATICS
p220
sg58
V24
p221
sg91
(lp222
(VBAUER
VS
tp223
asg23
I2008
sg54
V1650
p224
sbag1
(g2
g3
NtRp225
(dp226
g60
V10.1007/s00425-002-0801-x
p227
sg56
VPLANTA
p228
sg58
V215
p229
sg91
(lp230
(VBAUMGARDT
VR L
tp231
asg23
I2002
sg54
VLANTA
p232
sbag1
(g2
g3
NtRp233
(dp234
g60
V10.1104/pp.108.118059
p235
sg56
VPLANT PHYSIOL
p236
sg58
V147
p237
sg91
(lp238
(VBIENIAWSKA
VZ
tp239
asg23
I2008
sg54
VLANT
p240
sbag1
(g2
g3
NtRp241
(dp242
g60
V10.1111/j.1365-3040.2010.02167.x
p243
sg56
VPLANT CELL ENVIRON
p244
sg58
V33
p245
sg91
(lp246
(VBILGIN
VD D
tp247
asg23
I2010
sg54
VLANT
p248
sbag1
(g2
g3
NtRp249
(dp250
g60
V10.1101/gad.8.18.2188
p251
sg56
VGENE DEV
p252
sg58
V8
sg91
(lp253
(VBOWLER
VC
tp254
asg23
I1994
sg54
V2188
p255
sbag1
(g2
g3
NtRp256
(dp257
g60
V10.1093/nar/gnil167
p258
sg56
VNUCLEIC ACIDS RES
p259
sg58
V33
p260
sg91
(lp261
(VBURGOON
VL D
tp262
asg23
I2005
sg54
Nsbag1
(g2
g3
NtRp263
(dp264
g60
V10.1093/bioinformatics/btn615
p265
sg56
VBIOINFORMATICS
p266
sg58
V25
p267
sg91
(lp268
(VCARBON
VS
tp269
asg23
I2009
sg54
V288
p270
sbag1
(g2
g3
NtRp271
(dp272
g60
V10.1111/j.1365-313X.2006.02855.x
p273
sg56
VPLANT J
p274
sg58
V48
p275
sg91
(lp276
(VCHEN
VJ P
tp277
asg23
I2006
sg54
VLANT
p278
sbag1
(g2
g3
NtRp279
(dp280
g60
V10.1046/j.1365-313x.2000.00738.x
p281
sg56
VPLANT J
p282
sg58
V22
p283
sg91
(lp284
(VCHEN
VM
tp285
asg23
I2000
sg54
VLANT
p286
sbag1
(g2
g3
NtRp287
(dp288
g60
V10.1093/pcp/pcg071
p289
sg56
VPLANT CELL PHYSIOL
p290
sg58
V44
p291
sg91
(lp292
(VCHO
VD S
tp293
asg23
I2003
sg54
VLANT
p294
sbag1
(g2
g3
NtRp295
(dp296
g60
V10.1016/0092-8674(89)90950-1
p297
sg56
VCELL
p298
sg58
V58
p299
sg91
(lp300
(VCHORY
VJ
tp301
asg23
I1989
sg54
V991
p302
sbag1
(g2
g3
NtRp303
(dp304
g60
V10.1111/j.1365-313X.2009.04105.x
p305
sg56
VPLANT J
p306
sg58
V61
p307
sg91
(lp308
(VCHORY
VJ
tp309
asg23
I2010
sg54
VLANT
p310
sbag1
(g2
g3
NtRp311
(dp312
g60
V10.1093/jxb/ern227
p313
sg56
VJ EXP BOT
p314
sg58
V59
p315
sg91
(lp316
(VCHOY
VM K
tp317
asg23
I2008
sg54
V3869
p318
sbag1
(g2
g3
NtRp319
(dp320
g60
V10.1007/s11103-005-5514-7
p321
sg56
VPLANT MOL BIOL
p322
sg58
V58
p323
sg91
(lp324
(VCLIFTON
VR
tp325
asg23
I2005
sg54
VLANT
p326
sbag1
(g2
g3
NtRp327
(dp328
g60
V10.1093/jxb/erq186
p329
sg56
VJ EXP BOT
p330
sg58
V61
p331
sg91
(lp332
(VCOTTAGE
VA
tp333
asg23
I2010
sg54
V3773
p334
sbag1
(g2
g3
NtRp335
(dp336
g60
Nsg56
VPHOTOSYNTHESIS ENERG
p337
sg58
Nsg91
(lp338
(VCOTTAGE
VA J
tp339
asg23
I2008
sg54
VHOTOSYNTHESIS
p340
sbag1
(g2
g3
NtRp341
(dp342
g60
V10.1073/pnas.0608139103
p343
sg56
VP NATL ACAD SCI USA
p344
sg58
V103
p345
sg91
(lp346
(VDANON
VA
tp347
asg23
I2006
sg54
V17036
p348
sbag1
(g2
g3
NtRp349
(dp350
g60
V10.1093/jxb/erp320
p351
sg56
VJ EXP BOT
p352
sg58
V61
p353
sg91
(lp354
(VDOYLE
VS M
tp355
asg23
I2010
sg54
V473
p356
sbag1
(g2
g3
NtRp357
(dp358
g60
V10.1093/nar/30.1.207
p359
sg56
VNUCLEIC ACIDS RES
p360
sg58
V30
p361
sg91
(lp362
(VEDGAR
VR
tp363
asg23
I2002
sg54
V207
p364
sbag1
(g2
g3
NtRp365
(dp366
g60
V10.1104/pp.111.178897
p367
sg56
VPLANT PHYSIOL
p368
sg58
V157
p369
sg91
(lp370
(VENAMI
VK
tp371
asg23
I2011
sg54
VLANT
p372
sbag1
(g2
g3
NtRp373
(dp374
g60
V10.1105/tpc.111.091033
p375
sg56
VPLANT CELL
p376
sg58
V23
p377
sg91
(lp378
(VESTAVILLO
VG M
tp379
asg23
I2011
sg54
VLANT
p380
sbag1
(g2
g3
NtRp381
(dp382
g60
V10.1126/science.284.5419.1539
p383
sg56
VSCIENCE
p384
sg58
V284
p385
sg91
(lp386
(VFANKHAUSER
VC
tp387
asg23
I1999
sg54
V1539
p388
sbag1
(g2
g3
NtRp389
(dp390
g60
V10.1105/tpc.13.9.2127
p391
sg56
VPLANT CELL
p392
sg58
V13
p393
sg91
(lp394
(VFELDER
VS
tp395
asg23
I2001
sg54
VLANT
p396
sbag1
(g2
g3
NtRp397
(dp398
g60
V10.1016/j.plaphy.2007.12.009
p399
sg56
VPLANT PHYSIOL BIOCH
p400
sg58
V46
p401
sg91
(lp402
(VFERRER
VJ L
tp403
asg23
I2008
sg54
VLANT
p404
sbag1
(g2
g3
NtRp405
(dp406
g60
V10.1105/tpc.017814
p407
sg56
VPLANT CELL
p408
sg58
V16
p409
sg91
(lp410
(VFRISO
VG
tp411
asg23
I2004
sg54
VLANT
p412
sbag1
(g2
g3
NtRp413
(dp414
g60
V10.1093/pcp/pcp147
p415
sg56
VPLANT CELL PHYSIOL
p416
sg58
V50
p417
sg91
(lp418
(VFUJITA
VY
tp419
asg23
I2009
sg54
VLANT
p420
sbag1
(g2
g3
NtRp421
(dp422
g60
V10.1104/pp.106.078717
p423
sg56
VPLANT PHYSIOL
p424
sg58
V141
p425
sg91
(lp426
(VGADJEV
VI
tp427
asg23
I2006
sg54
VLANT
p428
sbag1
(g2
g3
NtRp429
(dp430
g60
V10.1111/j.1399-3054.2009.01331.x
p431
sg56
VPHYSIOL PLANTARUM
p432
sg58
V138
p433
sg91
(lp434
(VGALVEZ-VALDIVIESO
VG
tp435
asg23
I2010
sg54
VHYSIOL
p436
sbag1
(g2
g3
NtRp437
(dp438
g60
Nsg56
VPLANT PHYSIOL
p439
sg58
V104
p440
sg91
(lp441
(VGAO
VJ
tp442
asg23
I1994
sg54
VLANT
p443
sbag1
(g2
g3
NtRp444
(dp445
g60
V[10.1111/j.0960-7412.2010.04207.x, 10.1111/j.1365-313X.2010.04207.x]
p446
sg56
VPLANT J
p447
sg58
V62
p448
sg91
(lp449
(VGORAL
VT K
tp450
asg23
I2010
sg54
VLANT
p451
sbag1
(g2
g3
NtRp452
(dp453
g60
Nsg56
VJ BIOMED BIOTECHNOL
p454
sg58
Nsg91
(lp455
(VGOULD
VK S
tp456
asg23
I2004
sg54
V314
p457
sbag1
(g2
g3
NtRp458
(dp459
g60
V10.1098/rstb.2002.1180
p460
sg56
VPHILOS T R SOC B
p461
sg58
V358
p462
sg91
(lp463
(VGRAY
VJ C
tp464
asg23
I2003
sg54
VHILOS
p465
sbag1
(g2
g3
NtRp466
(dp467
g60
Nsg56
VPHILOS T R SOC LON B
p468
sg58
V358
p469
sg91
(lp470
(VGRAY
VJ C
tp471
asg23
I2003
sg54
VHILOS
p472
sbag1
(g2
g3
NtRp473
(dp474
g60
V10.1093/bioinformatics/btm440
p475
sg56
VBIOINFORMATICS
p476
sg58
V23
p477
sg91
(lp478
(VGROSSMANN
VS
tp479
asg23
I2007
sg54
V3024
p480
sbag1
(g2
g3
NtRp481
(dp482
g60
V10.1073/pnas.0914532107
p483
sg56
VP NATL ACAD SCI USA
p484
sg58
V107
p485
sg91
(lp486
(VGRUBER
VH
tp487
asg23
I2010
sg54
V20132
p488
sbag1
(g2
g3
NtRp489
(dp490
g60
V10.1007/s11033-009-9601-8
p491
sg56
VMOL BIOL REP
p492
sg58
V37
p493
sg91
(lp494
(VGUO
VX H
tp495
asg23
I2010
sg54
V763
p496
sbag1
(g2
g3
NtRp497
(dp498
g60
V10.1016/j.cub.2003.11.019
p499
sg56
VCURR BIOL
p500
sg58
V13
p501
sg91
(lp502
(VHARMON
VF G
tp503
asg23
I2003
sg54
V2091
p504
sbag1
(g2
g3
NtRp505
(dp506
g60
V10.1111/j.1365-313X.2007.03160.x
p507
sg56
VPLANT J
p508
sg58
V51
p509
sg91
(lp510
(VHASSIDIM
VM
tp511
asg23
I2007
sg54
VLANT
p512
sbag1
(g2
g3
NtRp513
(dp514
g60
V10.1111/j.1365-313X.2003.01986.x
p515
sg56
VPLANT J
p516
sg58
V37
p517
sg91
(lp518
(VHE
VP
tp519
asg23
I2004
sg54
VLANT
p520
sbag1
(g2
g3
NtRp521
(dp522
g60
V10.1073/pnas.050391397
p523
sg56
VP NATL ACAD SCI USA
p524
sg58
V97
p525
sg91
(lp526
(VHEDDAD
VM
tp527
asg23
I2000
sg54
V3741
p528
sbag1
(g2
g3
NtRp529
(dp530
g60
V10.1086/417659
p531
sg56
VQ REV BIOL
p532
sg58
V67
p533
sg91
(lp534
(VHERMS
VD A
tp535
asg23
I1992
sg54
V283
p536
sbag1
(g2
g3
NtRp537
(dp538
g60
Nsg56
VJ BIOL CHEM
p539
sg58
V276
p540
sg91
(lp541
(VHOECKER
VU
tp542
asg23
I2001
sg54
V38173
p543
sbag1
(g2
g3
NtRp544
(dp545
g60
Nsg56
VPLANT CELL
p546
sg58
V10
p547
sg91
(lp548
(VHOECKER
VU
tp549
asg23
I1998
sg54
VLANT
p550
sbag1
(g2
g3
NtRp551
(dp552
g60
V10.1111/j.1365-313X.2008.03508.x
p553
sg56
VPLANT J
p554
sg58
V55
p555
sg91
(lp556
(VHONG
VS H
tp557
asg23
I2008
sg54
VLANT
p558
sbag1
(g2
g3
NtRp559
(dp560
g60
V10.1126/science.1110586
p561
sg56
VSCIENCE
p562
sg58
V309
p563
sg91
(lp564
(VIMAIZUMI
VT
tp565
asg23
I2005
sg54
V293
p566
sbag1
(g2
g3
NtRp567
(dp568
g60
V10.1016/S0378-1119(96)00646-4
p569
sg56
VGENE
p570
sg58
V185
p571
sg91
(lp572
(VIWASAKI
VT
tp573
asg23
I1997
sg54
V223
p574
sbag1
(g2
g3
NtRp575
(dp576
g60
V10.1038/nsmb0610-642
p577
sg56
VNAT STRUCT MOL BIOL
p578
sg58
V17
p579
sg91
(lp580
(VJAILLAIS
VY
tp581
asg23
I2010
sg54
V642
p582
sbag1
(g2
g3
NtRp583
(dp584
g60
V10.1104/pp.103.029439
p585
sg56
VPLANT PHYSIOL
p586
sg58
V133
p587
sg91
(lp588
(VJIAO
VY L
tp589
asg23
I2003
sg54
VLANT
p590
sbag1
(g2
g3
NtRp591
(dp592
g60
V10.1038/nrg2049
p593
sg56
VNAT REV GENET
p594
sg58
V8
sg91
(lp595
(VJIAO
VY L
tp596
asg23
I2007
sg54
V217
p597
sbag1
(g2
g3
NtRp598
(dp599
g60
V10.1093/jxb/err257
p600
sg56
VJ EXP BOT
p601
sg58
V63
p602
sg91
(lp603
(VKAKIZAKI
VT
tp604
asg23
I2012
sg54
V251
p605
sbag1
(g2
g3
NtRp606
(dp607
g60
V10.1104/pp.109.145987
p608
sg56
VPLANT PHYSIOL
p609
sg58
V151
p610
sg91
(lp611
(VKAKIZAKI
VT
tp612
asg23
I2009
sg54
VLANT
p613
sbag1
(g2
g3
NtRp614
(dp615
g60
V10.1271/bbb.68.2215
p616
sg56
VBIOSCI BIOTECH BIOCH
p617
sg58
V68
p618
sg91
(lp619
(VKANAMARU
VK
tp620
asg23
I2004
sg54
V2215
p621
sbag1
(g2
g3
NtRp622
(dp623
g60
V10.1104/pp.109.146589
p624
sg56
VPLANT PHYSIOL
p625
sg58
V151
p626
sg91
(lp627
(VKATO
VY
tp628
asg23
I2009
sg54
VLANT
p629
sbag1
(g2
g3
NtRp630
(dp631
g60
V10.1105/tpc.106.042200
p632
sg56
VPLANT CELL
p633
sg58
V18
p634
sg91
(lp635
(VKHANNA
VR
tp636
asg23
I2006
sg54
VLANT
p637
sbag1
(g2
g3
NtRp638
(dp639
g60
V10.1093/mp/ssr112
p640
sg56
VMOL PLANT
p641
sg58
V5
sg91
(lp642
(VKINDGREN
VP
tp643
asg23
I2012
sg54
V901
p644
sbag1
(g2
g3
NtRp645
(dp646
g60
V10.1016/j.cub.2004.02.039
p647
sg56
VCURR BIOL
p648
sg58
V14
p649
sg91
(lp650
(VKLEFFMANN
VT
tp651
asg23
I2004
sg54
V354
p652
sbag1
(g2
g3
NtRp653
(dp654
g60
V10.1104/pp.105.073304
p655
sg56
VPLANT PHYSIOL
p656
sg58
V140
p657
sg91
(lp658
(VKLIMMEK
VF
tp659
asg23
I2006
sg54
VLANT
p660
sbag1
(g2
g3
NtRp661
(dp662
g60
V10.1073/pnas.0609929104
p663
sg56
VP NATL ACAD SCI USA
p664
sg58
V104
p665
sg91
(lp666
(VKOBAYASHI
VA
tp667
asg23
I2007
sg54
V4724
p668
sbag1
(g2
g3
NtRp669
(dp670
g60
V10.1038/ncb2203
p671
sg56
VNAT CELL BIOL
p672
sg58
V13
p673
sg91
(lp674
(VKOBAYASHI
VY
tp675
asg23
I2011
sg54
V483
p676
sbag1
(g2
g3
NtRp677
(dp678
g60
V10.1073/pnas.0804270105
p679
sg56
VP NATL ACAD SCI USA
p680
sg58
V106
p681
sg91
(lp682
(VKOBAYASHI
VY
tp683
asg23
I2009
sg54
V803
p684
sbag1
(g2
g3
NtRp685
(dp686
g60
V10.1126/science. 1140516
p687
sg56
VSCIENCE
p688
sg58
V316
p689
sg91
(lp690
(VKOUSSEVITZKY
VS
tp691
asg23
I2007
sg54
V715
p692
sbag1
(g2
g3
NtRp693
(dp694
g60
V10.1073/pnas.0603799103
p695
sg56
VP NATL ACAD SCI USA
p696
sg58
V103
p697
sg91
(lp698
(VLARIGUET
VP
tp699
asg23
I2006
sg54
V10134
p700
sbag1
(g2
g3
NtRp701
(dp702
g60
V10.1126/science.1079978
p703
sg56
VSCIENCE
p704
sg58
V299
p705
sg91
(lp706
(VLARKIN
VR M
tp707
asg23
I2003
sg54
V902
p708
sbag1
(g2
g3
NtRp709
(dp710
g60
V10.1016/j.pbi.2008.10.004
p711
sg56
VCURR OPIN PLANT BIOL
p712
sg58
V11
p713
sg91
(lp714
(VLARKIN
VR M
tp715
asg23
I2008
sg54
V593
p716
sbag1
(g2
g3
NtRp717
(dp718
g60
V10.1046/j.1365-313x.2001.01003.x
p719
sg56
VPlant Journal
p720
sg58
V26
p721
sg91
(lp722
(VLEDGER
VSUSAN
tp723
asg23
I2001
sg54
Vlant
p724
sbag1
(g2
g3
NtRp725
(dp726
g60
V10.1105/tpc.106.047688
p727
sg56
VPLANT CELL
p728
sg58
V19
p729
sg91
(lp730
(VLEE
VJ
tp731
asg23
I2007
sg54
VLANT
p732
sbag1
(g2
g3
NtRp733
(dp734
g60
V10.1105/tpc.109.070672
p735
sg56
VPLANT CELL
p736
sg58
V21
p737
sg91
(lp738
(VLEIVAR
VP
tp739
asg23
I2009
sg54
VLANT
p740
sbag1
(g2
g3
NtRp741
(dp742
g60
V10.1007/s11120-010-9538-8
p743
sg56
VPHOTOSYNTH RES
p744
sg58
V106
p745
sg91
(lp746
(VLEMEILLE
VS
tp747
asg23
I2010
sg54
VHOTOSYNTH
p748
sbag1
(g2
g3
NtRp749
(dp750
g60
V10.1093/pcp/pcj082
p751
sg56
VPLANT CELL PHYSIOL
p752
sg58
V47
p753
sg91
(lp754
(VLI
VX
tp755
asg23
I2006
sg54
VLANT
p756
sbag1
(g2
g3
NtRp757
(dp758
g60
V10.1105/tpc.12.3.419
p759
sg56
VPLANT CELL
p760
sg58
V12
p761
sg91
(lp762
(VLINDAHL
VM
tp763
asg23
I2000
sg54
VLANT
p764
sbag1
(g2
g3
NtRp765
(dp766
g60
V10.1093/jxb/erq033
p767
sg56
VJ EXP BOT
p768
sg58
V61
p769
sg91
(lp770
(VLIU
VD
tp771
asg23
I2010
sg54
V1655
p772
sbag1
(g2
g3
NtRp773
(dp774
g60
V10.1146/annurev.genet.40.110405.090613
p775
sg56
VANNU REV GENET
p776
sg58
V40
p777
sg91
(lp778
(VLIU
VZ C
tp779
asg23
I2006
sg54
V159
p780
sbag1
(g2
g3
NtRp781
(dp782
g60
V10.1105/tpc.107.057075
p783
sg56
VPLANT CELL
p784
sg58
V20
p785
sg91
(lp786
(VLOPEZ-JUEZ
VE
tp787
asg23
I2008
sg54
VLANT
p788
sbag1
(g2
g3
NtRp789
(dp790
g60
V10.1242/dev.00281
p791
sg56
VDEVELOPMENT
p792
sg58
V130
p793
sg91
(lp794
(VMA
VL G
tp795
asg23
I2003
sg54
V969
p796
sbag1
(g2
g3
NtRp797
(dp798
g60
V10.1104/pp.010678
p799
sg56
VPLANT PHYSIOL
p800
sg58
V128
p801
sg91
(lp802
(VMARTINEZ-HERNANDEZ
VA
tp803
asg23
I2002
sg54
VLANT
p804
sbag1
(g2
g3
NtRp805
(dp806
g60
V10.1039/b807210h
p807
sg56
VPHOTOCH PHOTOBIO SCI
p808
sg58
V7
sg91
(lp809
(VMASUDA
VT
tp810
asg23
I2008
sg54
VHOTOCH
p811
sbag1
(g2
g3
NtRp812
(dp813
g60
V10.1371/journal.pbio.1000148
p814
sg56
VPLOS BIOL
p815
sg58
V7
sg91
(lp816
(VMATHIEU
VJ
tp817
asg23
I2009
sg54
VLOS
p818
sbag1
(g2
g3
NtRp819
(dp820
g60
Nsg56
VDEVELOPMENT
p821
sg58
V128
p822
sg91
(lp823
(VMAZZELLA
VM A
tp824
asg23
I2001
sg54
V2291
p825
sbag1
(g2
g3
NtRp826
(dp827
g60
V10.1046/j.1365-313X.2002.01443.x
p828
sg56
VPLANT J
p829
sg58
V32
p830
sg91
(lp831
(VMCCORMAC
VA C
tp832
asg23
I2002
sg54
VLANT
p833
sbag1
(g2
g3
NtRp834
(dp835
g60
V10.1186/1752-0509-5-77
p836
sg56
VBMC SYST BIOL
p837
sg58
V5
sg91
(lp838
(VMEIER
VS
tp839
asg23
I2011
sg54
Nsbag1
(g2
g3
NtRp840
(dp841
g60
V10.1073/pnas.98.4.2053
p842
sg56
VP NATL ACAD SCI USA
p843
sg58
V98
p844
sg91
(lp845
(VMOCHIZUKI
VN
tp846
asg23
I2001
sg54
V2053
p847
sbag1
(g2
g3
NtRp848
(dp849
g60
V10.1104/pp.112.4.1465
p850
sg56
VPLANT PHYSIOL
p851
sg58
V112
p852
sg91
(lp853
(VMOCHIZUKI
VN
tp854
asg23
I1996
sg54
VLANT
p855
sbag1
(g2
g3
NtRp856
(dp857
g60
V10.1073/pnas.0404552101
p858
sg56
VP NATL ACAD SCI USA
p859
sg58
V101
p860
sg91
(lp861
(VMOCKLER
VT C
tp862
asg23
I2004
sg54
V12759
p863
sbag1
(g2
g3
NtRp864
(dp865
g60
V10.1073/pnas.0900701106
p866
sg56
VP NATL ACAD SCI USA
p867
sg58
V106
p868
sg91
(lp869
(VMORENO
VJ E
tp870
asg23
I2009
sg54
V4935
p871
sbag1
(g2
g3
NtRp872
(dp873
g60
V10.1071/FP03147
p874
sg56
VFUNCT PLANT BIOL
p875
sg58
V30
p876
sg91
(lp877
(VMULO
VP
tp878
asg23
I2003
sg54
V1097
p879
sbag1
(g2
g3
NtRp880
(dp881
g60
V10.1104/pp.110.168831
p882
sg56
VPLANT PHYSIOL
p883
sg58
V155
p884
sg91
(lp885
(VMURCHIE
VE H
tp886
asg23
I2011
sg54
VLANT
p887
sbag1
(g2
g3
NtRp888
(dp889
g60
V10.1105/tpc.105.035774
p890
sg56
VPLANT CELL
p891
sg58
V17
p892
sg91
(lp893
(VMUSSGNUG
VJ H
tp894
asg23
I2005
sg54
VLANT
p895
sbag1
(g2
g3
NtRp896
(dp897
g60
V10.1093/pcp/pch050
p898
sg56
VPLANT CELL PHYSIOL
p899
sg58
V45
p900
sg91
(lp901
(VNAGASHIMA
VA
tp902
asg23
I2004
sg54
VLANT
p903
sbag1
(g2
g3
NtRp904
(dp905
g60
V10.1104/pp.118.1.27
p906
sg56
VPLANT PHYSIOL
p907
sg58
V118
p908
sg91
(lp909
(VNEFF
VM M
tp910
asg23
I1998
sg54
VLANT
p911
sbag1
(g2
g3
NtRp912
(dp913
g60
V10.1016/j.tplants.2007.01.005
p914
sg56
VTRENDS PLANT SCI
p915
sg58
V12
p916
sg91
(lp917
(VNOCTOR
VG
tp918
asg23
I2007
sg54
V125
p919
sbag1
(g2
g3
NtRp920
(dp921
g60
V10.1016/j.mito.2007.09.003
p922
sg56
VMITOCHONDRION
p923
sg58
V8
sg91
(lp924
(VNOGUCHI
VK
tp925
asg23
I2008
sg54
V87
p926
sbag1
(g2
g3
NtRp927
(dp928
g60
V10.1111/j.1751-1097.1989.tb04101.x
p929
sg56
VPHOTOCHEM PHOTOBIOL
p930
sg58
V49
p931
sg91
(lp932
(VOELMULLER
VR
tp933
asg23
I1989
sg54
VHOTOCHEM
p934
sbag1
(g2
g3
NtRp935
(dp936
g60
V10.1105/tpc.014662
p937
sg56
VPLANT CELL
p938
sg58
V15
p939
sg91
(lp940
(VOP
VD E N CAMP R G L
tp941
asg23
I2003
sg54
VLANT
p942
sbag1
(g2
g3
NtRp943
(dp944
g60
V10.1094/MPMI-05-10-0113
p945
sg56
VMOL PLANT MICROBE IN
p946
sg58
V23
p947
sg91
(lp948
(VPADMANABHAN
VM S
tp949
asg23
I2010
sg54
V1368
p950
sbag1
(g2
g3
NtRp951
(dp952
g60
V10.1074/jbc.M406763200
p953
sg56
VJ BIOL CHEM
p954
sg58
V279
p955
sg91
(lp956
(VPELTIER
VJ B
tp957
asg23
I2004
sg54
V49367
p958
sbag1
(g2
g3
NtRp959
(dp960
g60
V10.1105/tpc.105.037689
p961
sg56
VPLANT CELL
p962
sg58
V18
p963
sg91
(lp964
(VPENG
VL W
tp965
asg23
I2006
sg54
VLANT
p966
sbag1
(g2
g3
NtRp967
(dp968
g60
V10.1042/0264-6021:3590575
p969
sg56
VBIOCHEM J
p970
sg58
V359
p971
sg91
(lp972
(VPETIT
VJ M
tp973
asg23
I2001
sg54
V575
p974
sbag1
(g2
g3
NtRp975
(dp976
g60
V10.1093/nar/29.9.e45
p977
sg56
VNUCLEIC ACIDS RES
p978
sg58
V29
p979
sg91
(lp980
(VPFAFFL
VM W
tp981
asg23
I2001
sg54
Nsbag1
(g2
g3
NtRp982
(dp983
g60
V10.1016/j.tplants.2008.08.008
p984
sg56
VTRENDS PLANT SCI
p985
sg58
V13
p986
sg91
(lp987
(VPOGSON
VB J
tp988
asg23
I2008
sg54
V602
p989
sbag1
(g2
g3
NtRp990
(dp991
g60
V10.1104/pp.110.170365
p992
sg56
VPLANT PHYSIOL
p993
sg58
V155
p994
sg91
(lp995
(VPOGSON
VB J
tp996
asg23
I2011
sg54
VLANT
p997
sbag1
(g2
g3
NtRp998
(dp999
g60
V10.1016/S0005-2728(89)80347-0
p1000
sg56
VBIOCHIM BIOPHYS ACTA
p1001
sg58
V975
p1002
sg91
(lp1003
(VPORRA
VR J
tp1004
asg23
I1989
sg54
V384
p1005
sbag1
(g2
g3
NtRp1006
(dp1007
g60
V10.1016/j.tplants.2010.03.003
p1008
sg56
VTRENDS PLANT SCI
p1009
sg58
V15
p1010
sg91
(lp1011
(VPRUNEDA-PAZ
VJ L
tp1012
asg23
I2010
sg54
V259
p1013
sbag1
(g2
g3
NtRp1014
(dp1015
g60
Nsg56
VPLANT PHYSIOL
p1016
sg58
V104
p1017
sg91
(lp1018
(VREED
VJ W
tp1019
asg23
I1994
sg54
VLANT
p1020
sbag1
(g2
g3
NtRp1021
(dp1022
g60
V10.1038/nrg2363
p1023
sg56
VNAT REV GENET
p1024
sg58
V9
sg91
(lp1025
(VRHEE
VS Y
tp1026
asg23
I2008
sg54
V509
p1027
sbag1
(g2
g3
NtRp1028
(dp1029
g60
V10.1105/tpc.109.067728
p1030
sg56
VPLANT CELL
p1031
sg58
V22
p1032
sg91
(lp1033
(VROBSON
VF
tp1034
asg23
I2010
sg54
VLANT
p1035
sbag1
(g2
g3
NtRp1036
(dp1037
g60
V10.1104/pp.109.150474
p1038
sg56
VPLANT PHYSIOL
p1039
sg58
V152
p1040
sg91
(lp1041
(VRODRIGUEZ
VV M
tp1042
asg23
I2010
sg54
VLANT
p1043
sbag1
(g2
g3
NtRp1044
(dp1045
g60
V10.1038/nrm2199
p1046
sg56
VNAT REV MOL CELL BIO
p1047
sg58
V8
sg91
(lp1048
(VRON
VD
tp1049
asg23
I2007
sg54
V519
p1050
sbag1
(g2
g3
NtRp1051
(dp1052
g60
V10.1111/j.1365-3040.2005.01477.x
p1053
sg56
VPLANT CELL ENVIRON
p1054
sg58
V29
p1055
sg91
(lp1056
(VROOK
VF
tp1057
asg23
I2006
sg54
VLANT
p1058
sbag1
(g2
g3
NtRp1059
(dp1060
g60
V10.1111/j.1469-8137.2008.02729.x
p1061
sg56
VNEW PHYTOL
p1062
sg58
V182
p1063
sg91
(lp1064
(VRUCKLE
VM E
tp1065
asg23
I2009
sg54
V367
p1066
sbag1
(g2
g3
NtRp1067
(dp1068
g60
V10.1105/tpc.107.054312
p1069
sg56
VPLANT CELL
p1070
sg58
V19
p1071
sg91
(lp1072
(VRUCKLE
VM E
tp1073
asg23
I2007
sg54
VLANT
p1074
sbag1
(g2
g3
NtRp1075
(dp1076
g60
V10.1093/aob/mcn227
p1077
sg56
VANN BOT
p1078
sg58
V103
p1079
sg91
(lp1080
(VSAIBO
VN J M
tp1081
asg23
I2009
sg54
V609
p1082
sbag1
(g2
g3
NtRp1083
(dp1084
g60
V10.1111/j.1365-313X.2010.04454.x
p1085
sg56
VPLANT J
p1086
sg58
V65
p1087
sg91
(lp1088
(VSAINI
VG
tp1089
asg23
I2011
sg54
VLANT
p1090
sbag1
(g2
g3
NtRp1091
(dp1092
g60
V10.1046/j.1365-2443.2002.00558.x
p1093
sg56
VGENES CELLS
p1094
sg58
V7
sg91
(lp1095
(VSAKAMOTO
VW
tp1096
asg23
I2002
sg54
V769
p1097
sbag1
(g2
g3
NtRp1098
(dp1099
g60
V10.1111/j.1365-313X.2005.02409.x
p1100
sg56
VPLANT J
p1101
sg58
V42
p1102
sg91
(lp1103
(VSANE
VA P
tp1104
asg23
I2005
sg54
VLANT
p1105
sbag1
(g2
g3
NtRp1106
(dp1107
g60
V10.1242/dev.00842
p1108
sg56
VDEVELOPMENT
p1109
sg58
V130
p1110
sg91
(lp1111
(VSCHMID
VM
tp1112
asg23
I2003
sg54
V6001
p1113
sbag1
(g2
g3
NtRp1114
(dp1115
g60
V10.1105/tpc.004630
p1116
sg56
VPLANT CELL
p1117
sg58
V14
p1118
sg91
(lp1119
(VSESSIONS
VA
tp1120
asg23
I2002
sg54
VLANT
p1121
sbag1
(g2
g3
NtRp1122
(dp1123
g60
V10.1186/1471-2229-8-48
p1124
sg56
VBMC PLANT BIOL
p1125
sg58
V8
sg91
(lp1126
(VSHAIKHALI
VJ
tp1127
asg23
I2008
sg54
Nsbag1
(g2
g3
NtRp1128
(dp1129
g60
V10.1073/pnas.0812219106
p1130
sg56
VP NATL ACAD SCI USA
p1131
sg58
V106
p1132
sg91
(lp1133
(VSHIN
VJ
tp1134
asg23
I2009
sg54
V7660
p1135
sbag1
(g2
g3
NtRp1136
(dp1137
g60
V10.1104/pp.109.136614
p1138
sg56
VPLANT PHYSIOL
p1139
sg58
V150
p1140
sg91
(lp1141
(VSHULTZ
VR W
tp1142
asg23
I2009
sg54
VLANT
p1143
sbag1
(g2
g3
NtRp1144
(dp1145
g60
VDOI 10.2202/1544-6115.1027
p1146
sg56
VSTAT APPL GENET MOL
p1147
sg58
V3
sg91
(lp1148
(VSMYTH
VG K
tp1149
asg23
I2004
sg54
V3
sbag1
(g2
g3
NtRp1150
(dp1151
g60
V10.1073/pnas.0811684106
p1152
sg56
VP NATL ACAD SCI USA
p1153
sg58
V106
p1154
sg91
(lp1155
(VSTEPHENSON
VP G
tp1156
asg23
I2009
sg54
V7654
p1157
sbag1
(g2
g3
NtRp1158
(dp1159
g60
V10.1093/mp/ssp093
p1160
sg56
VMOL PLANT
p1161
sg58
V2
sg91
(lp1162
(VSTETTLER
VM
tp1163
asg23
I2009
sg54
V1233
p1164
sbag1
(g2
g3
NtRp1165
(dp1166
g60
V10.1104/pp.104.052423
p1167
sg56
VPLANT PHYSIOL
p1168
sg58
V137
p1169
sg91
(lp1170
(VSTONE
VS L
tp1171
asg23
I2005
sg54
VLANT
p1172
sbag1
(g2
g3
NtRp1173
(dp1174
g60
V10.1038/nature01204
p1175
sg56
VNATURE
p1176
sg58
V421
p1177
sg91
(lp1178
(VSTRAND
VA
tp1179
asg23
I2003
sg54
V79
p1180
sbag1
(g2
g3
NtRp1181
(dp1182
g60
Nsg56
VPLANT CELL
p1183
sg58
V11
p1184
sg91
(lp1185
(VSULLIVAN
VJ A
tp1186
asg23
I1999
sg54
VLANT
p1187
sbag1
(g2
g3
NtRp1188
(dp1189
g60
V10.1038/ncomms1486
p1190
sg56
VNAT COMMUN
p1191
sg58
V2
sg91
(lp1192
(VSUN
VX W
tp1193
asg23
I2011
sg54
Nsbag1
(g2
g3
NtRp1194
(dp1195
g60
V10.1016/0092-8674(93)90459-4
p1196
sg56
VCELL
p1197
sg58
V74
p1198
sg91
(lp1199
(VSUSEK
VR E
tp1200
asg23
I1993
sg54
V787
p1201
sbag1
(g2
g3
NtRp1202
(dp1203
g60
V10.1016/j.tplants.2008.01.005
p1204
sg56
VTRENDS PLANT SCI
p1205
sg58
V13
p1206
sg91
(lp1207
(VTAKAHASHI
VS
tp1208
asg23
I2008
sg54
V178
p1209
sbag1
(g2
g3
NtRp1210
(dp1211
g60
V10.1093/pcp/pcd067
p1212
sg56
VPLANT CELL PHYSIOL
p1213
sg58
V41
p1214
sg91
(lp1215
(VTAKECHI
VK
tp1216
asg23
I2000
sg54
VLANT
p1217
sbag1
(g2
g3
NtRp1218
(dp1219
g60
V10.1111/j.1365-313X.2006.02914.x
p1220
sg56
VPLANT J
p1221
sg58
V48
p1222
sg91
(lp1223
(VTEPPERMAN
VJ M
tp1224
asg23
I2006
sg54
VLANT
p1225
sbag1
(g2
g3
NtRp1226
(dp1227
g60
V10.1073/pnas.161300998
p1228
sg56
VP NATL ACAD SCI USA
p1229
sg58
V98
p1230
sg91
(lp1231
(VTEPPERMAN
VJ M
tp1232
asg23
I2001
sg54
V9437
p1233
sbag1
(g2
g3
NtRp1234
(dp1235
g60
V10.1111/j.1365-313X.2004.02084.x
p1236
sg56
VPLANT J
p1237
sg58
V38
p1238
sg91
(lp1239
(VTEPPERMAN
VJ M
tp1240
asg23
I2004
sg54
VLANT
p1241
sbag1
(g2
g3
NtRp1242
(dp1243
g60
V10.1146/annurev.arplant.46.1.445
p1244
sg56
VANNU REV PLANT PHYS
p1245
sg58
V46
p1246
sg91
(lp1247
(VTERZAGHI
VW B
tp1248
asg23
I1995
sg54
V445
p1249
sbag1
(g2
g3
NtRp1250
(dp1251
g60
V10.1111/j.1365-313X.2004.02016.x
p1252
sg56
VPLANT J
p1253
sg58
V37
p1254
sg91
(lp1255
(VTHIMM
VO
tp1256
asg23
I2004
sg54
VLANT
p1257
sbag1
(g2
g3
NtRp1258
(dp1259
g60
V10.1038/nature05960
p1260
sg56
VNATURE
p1261
sg58
V448
p1262
sg91
(lp1263
(VTHINES
VB
tp1264
asg23
I2007
sg54
V661
p1265
sbag1
(g2
g3
NtRp1266
(dp1267
g60
V10.1104/pp.103.028183
p1268
sg56
VPLANT PHYSIOL
p1269
sg58
V133
p1270
sg91
(lp1271
(VTHIRKETTLE-WATTS
VD
tp1272
asg23
I2003
sg54
VLANT
p1273
sbag1
(g2
g3
NtRp1274
(dp1275
g60
V10.1034/j.1399-3054.2003.00127.x
p1276
sg56
VPHYSIOL PLANTARUM
p1277
sg58
V118
p1278
sg91
(lp1279
(VTO
VJ P C
tp1280
asg23
I2003
sg54
VHYSIOL
p1281
sbag1
(g2
g3
NtRp1282
(dp1283
g60
V10.1080/07352680390243503
p1284
sg56
VCRIT REV PLANT SCI
p1285
sg58
V22
p1286
sg91
(lp1287
(VTYAGI
VA K
tp1288
asg23
I2003
sg54
V417
p1289
sbag1
(g2
g3
NtRp1290
(dp1291
g60
V10.1111/j.1399-3054.2009.01240.x
p1292
sg56
VPHYSIOL PLANTARUM
p1293
sg58
V137
p1294
sg91
(lp1295
(VVAN
VAKEN O
tp1296
asg23
I2009
sg54
VHYSIOL
p1297
sbag1
(g2
g3
NtRp1298
(dp1299
g60
V10.1111/j.1399-3054.2009.01254.x
p1300
sg56
VPHYSIOL PLANTARUM
p1301
sg58
V137
p1302
sg91
(lp1303
(VVANLERBERGHE
VG C
tp1304
asg23
I2009
sg54
VHYSIOL
p1305
sbag1
(g2
g3
NtRp1306
(dp1307
g60
V10.1111/j.1399-3054.2009.01343.x
p1308
sg56
VPHYSIOL PLANTARUM
p1309
sg58
V138
p1310
sg91
(lp1311
(VVOIGT
VC
tp1312
asg23
I2010
sg54
VHYSIOL
p1313
sbag1
(g2
g3
NtRp1314
(dp1315
g60
V10.1093/jxb/erq336
p1316
sg56
VJ EXP BOT
p1317
sg58
V62
p1318
sg91
(lp1319
(VWANG
VW Y
tp1320
asg23
I2011
sg54
V1077
p1321
sbag1
(g2
g3
NtRp1322
(dp1323
g60
V10.1105/tpc.110.081661
p1324
sg56
VPLANT CELL
p1325
sg58
V23
p1326
sg91
(lp1327
(VWANG
VY
tp1328
asg23
I2011
sg54
VLANT
p1329
sbag1
(g2
g3
NtRp1330
(dp1331
g60
V10.1038/emboj.2009.264
p1332
sg56
VEMBO J
p1333
sg58
V28
p1334
sg91
(lp1335
(VWATERS
VM T
tp1336
asg23
I2009
sg54
V2861
p1337
sbag1
(g2
g3
NtRp1338
(dp1339
g60
V10.1104/pp.107.104828
p1340
sg56
VPLANT PHYSIOL
p1341
sg58
V145
p1342
sg91
(lp1343
(VWELSCH
VR
tp1344
asg23
I2007
sg54
VLANT
p1345
sbag1
(g2
g3
NtRp1346
(dp1347
g60
V10.1007/978-1-4020-4061-0_1
p1348
sg56
VSTRUCTURE FUNCTION P
p1349
sg58
V23
p1350
sg91
(lp1351
(VWISE
VR R
tp1352
asg23
I2007
sg54
V3
sbag1
(g2
g3
NtRp1353
(dp1354
g60
V10.1016/j.cub.2011.04.004
p1355
sg56
VCURR BIOL
p1356
sg58
V21
p1357
sg91
(lp1358
(VWOODSON
VJ D
tp1359
asg23
I2011
sg54
V897
p1360
sbag1
(g2
g3
NtRp1361
(dp1362
g60
V10.1038/nrg2348
p1363
sg56
VNAT REV GENET
p1364
sg58
V9
sg91
(lp1365
(VWOODSON
VJ D
tp1366
asg23
I2008
sg54
V383
p1367
sbag1
(g2
g3
NtRp1368
(dp1369
g60
V10.1105/tpc.105.032060
p1370
sg56
VPLANT CELL
p1371
sg58
V17
p1372
sg91
(lp1373
(VYADAV
VV
tp1374
asg23
I2005
sg54
VLANT
p1375
sbag1
(g2
g3
NtRp1376
(dp1377
g60
V10.1104/pp.103.029751
p1378
sg56
VPLANT PHYSIOL
p1379
sg58
V133
p1380
sg91
(lp1381
(VYANG
VK Y
tp1382
asg23
I2003
sg54
VLANT
p1383
sbag1
(g2
g3
NtRp1384
(dp1385
g60
V10.1111/j.1365-3040.2006.01630.x
p1386
sg56
VPLANT CELL ENVIRON
p1387
sg58
V30
p1388
sg91
(lp1389
(VYU
VF
tp1390
asg23
I2007
sg54
VLANT
p1391
sbag1
(g2
g3
NtRp1392
(dp1393
g60
V10.1105/tpc.105.035071
p1394
sg56
VPLANT CELL
p1395
sg58
V17
p1396
sg91
(lp1397
(VZALTSMAN
VA
tp1398
asg23
I2005
sg54
VLANT
p1399
sbag1
(g2
g3
NtRp1400
(dp1401
g60
V10.1093/pcp/pcm076
p1402
sg56
VPLANT CELL PHYSIOL
p1403
sg58
V48
p1404
sg91
(lp1405
(VZHAI
VQ Z
tp1406
asg23
I2007
sg54
VLANT
p1407
sbag1
(g2
g3
NtRp1408
(dp1409
g60
V10.1111/j.1365-3040.2010.02211.x
p1410
sg56
VPLANT CELL ENVIRON
p1411
sg58
V33
p1412
sg91
(lp1413
(VZHANG
VD W
tp1414
asg23
I2010
sg54
VLANT
p1415
sbag1
(g2
g3
NtRp1416
(dp1417
g60
V10.1016/j.jplph.2010.10.016
p1418
sg56
VJ PLANT PHYSIOL
p1419
sg58
V168
p1420
sg91
(lp1421
(VZHANG
VZ W
tp1422
asg23
I2011
sg54
V714
p1423
sbag1
(g2
g3
NtRp1424
(dp1425
g60
V10.1104/pp.010811
p1426
sg56
VPLANT PHYSIOL
p1427
sg58
V128
p1428
sg91
(lp1429
(VZHOU
VY C
tp1430
asg23
I2002
sg54
VLANT
p1431
sbag1
(g2
g3
NtRp1432
(dp1433
g60
V10.1016/j.gene.2010.02.011
p1434
sg56
VGENE
p1435
sg58
V457
p1436
sg91
(lp1437
(VZHU
VQ
tp1438
asg23
I2010
sg54
V1
sbag1
(g2
g3
NtRp1439
(dp1440
g60
V10.1371/journal.pone.0001994
p1441
sg56
VPLOS ONE
p1442
sg58
V3
sg91
(lp1443
(VZYBAILOV
VB
tp1444
asg23
I2008
sg54
VLOS
p1445
sbasb.