ccopy_reg
_reconstructor
p1
(ctethne.classes.paper
Paper
p2
c__builtin__
object
p3
NtRp4
(dp5
S'publisherCity'
p6
VROCKVILLE
p7
sS'reprintAddress'
p8
VPalva, ET (reprint author), Univ Helsinki, Div Genet, Viikki Bioctr, Dept Biol & Environm Sci 2, FIN-00014 Helsinki, Finland.
p9
sS'WC'
p10
VPlant Sciences
p11
sS'GA'
p12
V113TY
p13
sS'abstract'
p14
VEARLY RESPONSIVE TO DEHYDRATION 15 (ERD15) is rapidly induced in response to various abiotic and biotic stress stimuli in Arabidopsis (Arabidopsis thaliana). Modulation of ERD15 levels by overexpression or RNAi silencing altered the responsiveness of the transgenic plants to the phytohormone abscisic acid (ABA). Overexpression of ERD15 reduced the ABA sensitivity of Arabidopsis manifested in decreased drought tolerance and in impaired ability of the plants to increase their freezing tolerance in response to this hormone. In contrast, RNAi silencing of ERD15 resulted in plants that were hypersensitive to ABA and showed improved tolerance to both drought and freezing, as well as impaired seed germination in the presence of ABA. The modulation of ERD15 levels not only affected abiotic stress tolerance but also disease resistance: ERD15 overexpression plants showed improved resistance to the bacterial necrotroph Erwinia carotovora subsp. carotovora accompanied with enhanced induction of marker genes for systemic acquired resistance. We propose that ERD15 is a novel mediator of stress-related ABA signaling in Arabidopsis.
p15
sS'pageEnd'
p16
I1573
sS'publisherAddress'
p17
V15501 MONONA DRIVE, ROCKVILLE, MD 20855 USA
p18
sS'documentType'
p19
VArticle
p20
sS'subject'
p21
VPlant Sciences
p22
sS'isoSource'
p23
VPlant Physiol.
p24
sS'timesCited'
p25
(lp26
I45
aVZ9 50
p27
asS'PT'
p28
VJ
sS'title'
p29
VEarly Responsive To Dehydration 15, A Negative Regulator Of Abscisic Acid Responses In Arabidopsis
p30
sS'ISSN'
p31
(lp32
V0032-0889
p33
aVJ9 PLANT PHYSIOL
p34
asS'authors_full'
p35
(lp36
(VKARIOLA
VTARJA
tp37
a(VBRADER
VGUNTER
tp38
a(VHELENIUS
VELINA
tp39
a(VLI
VJING
tp40
a(VHEINO
VPEKKA
tp41
a(VPALVA
VE TAPIO
tp42
asS'PG'
p43
I15
sS'PD'
p44
VDEC
p45
sS'pageStart'
p46
I1559
sS'issue'
p47
I4
sS'journal'
p48
VPLANT PHYSIOLOGY
p49
sS'volume'
p50
V142
p51
sS'doi'
p52
V10.1104/pp.106.086223
p53
sS'emailAddress'
p54
Vtapio.palva@helsinki.fi
p55
sS'authorAddress'
p56
VUniv Helsinki, Div Genet, Viikki Bioctr, Dept Biol & Environm Sci 2, FIN-00014 Helsinki, Finland.
p57
sS'date'
p58
I2006
sS'ER'
p59
V
sS'publisher'
p60
VAMER SOC PLANT BIOLOGISTS
p61
sS'authorKeywords'
p62
(lp63
VTHALIANA L HEYNH
p64
aVPATHOGEN ERWINIA-CAROTOVORA
p65
aVDEFENSE GENE-EXPRESSION
p66
aVPROTEIN PHOSPHATASE 2C
p67
aVWALL-DEGRADING ENZYMES
p68
aVSIGNAL-TRANSDUCTION
p69
aVCOLD-ACCLIMATION
p70
aVPLANT DEFENSE
p71
aVPOLY(A)-BINDING PROTEIN
p72
aVBINDING-PROTEIN
p73
asS'language'
p74
VEnglish
p75
sS'wosid'
p76
VWOS:000242621800019
p77
sS'citationCount'
p78
I62
sS'authors_init'
p79
(lp80
(VKARIOLA
VT
tp81
a(VBRADER
VG
tp82
a(VHELENIUS
VE
tp83
a(VLI
VJ
tp84
a(VHEINO
VP
tp85
a(VPALVA
VE T
tp86
asS'citedReferences'
p87
(lp88
g1
(g2
g3
NtRp89
(dp90
g52
V10.1016/j.bbrc.2004.02.024
p91
sg48
VBIOCHEM BIOPH RES CO
p92
sg50
V316
p93
sg79
(lp94
(VALBRECHT
VM
tp95
asg58
I2004
sg46
V129
p96
sbag1
(g2
g3
NtRp97
(dp98
g52
V10.1105/tpc.104.025833
p99
sg48
VPLANT CELL
p100
sg50
V16
p101
sg79
(lp102
(VANDERSON
VJ P
tp103
asg58
I2004
sg46
VLANT
p104
sbag1
(g2
g3
NtRp105
(dp106
g52
V10.1104/pp.128.2.491
p107
sg48
VPLANT PHYSIOL
p108
sg50
V128
p109
sg79
(lp110
(VAUDENAERT
VK
tp111
asg58
I2002
sg46
VLANT
p112
sbag1
(g2
g3
NtRp113
(dp114
g52
Nsg48
VGENETICS
p115
sg50
V163
p116
sg79
(lp117
(VBELOSTOTSKY
VD A
tp118
asg58
I2003
sg46
V311
p119
sbag1
(g2
g3
NtRp120
(dp121
g52
V10.1104/pp.126.2.849
p122
sg48
VPLANT PHYSIOL
p123
sg50
V126
p124
sg79
(lp125
(VBRADER
VG
tp126
asg58
I2001
sg46
VLANT
p127
sbag1
(g2
g3
NtRp128
(dp129
g52
V10.1104/pp.73.1.71
p130
sg48
VPLANT PHYSIOL
p131
sg50
V73
p132
sg79
(lp133
(VCHEN
VT H H
tp134
asg58
I1983
sg46
VLANT
p135
sbag1
(g2
g3
NtRp136
(dp137
g52
V10.1073/pnas.92.10.4134
p138
sg48
VP NATL ACAD SCI USA
p139
sg50
V92
p140
sg79
(lp141
(VCHEN
VZ X
tp142
asg58
I1995
sg46
V4134
p143
sbag1
(g2
g3
NtRp144
(dp145
g52
V10.1046/j.1365-313x.1998.00343.x
p146
sg48
VPLANT J
p147
sg50
V16
p148
sg79
(lp149
(VCLOUGH
VS J
tp150
asg58
I1998
sg46
VLANT
p151
sbag1
(g2
g3
NtRp152
(dp153
g52
V10.1126/science.273.5279.1239
p154
sg48
VSCIENCE
p155
sg50
V273
p156
sg79
(lp157
(VCUTLER
VS
tp158
asg58
I1996
sg46
V1239
p159
sbag1
(g2
g3
NtRp160
(dp161
g52
V10.1016/S1369-5266(01)00225-4
p162
sg48
VCURR OPIN PLANT BIOL
p163
sg50
V5
sg79
(lp164
(VFINKELSTEIN
VR R
tp165
asg58
I2002
sg46
V26
p166
sbag1
(g2
g3
NtRp167
(dp168
g52
V10.1146/annurev.phyto.43.040204.135923
p169
sg48
VANNU REV PHYTOPATHOL
p170
sg50
V43
p171
sg79
(lp172
(VGLAZEBROOK
VJ
tp173
asg58
I2005
sg46
V205
p174
sbag1
(g2
g3
NtRp175
(dp176
g52
V10.1105/tpc.11.10.1897
p177
sg48
VPLANT CELL
p178
sg50
V11
p179
sg79
(lp180
(VGOSTI
VF
tp181
asg58
I1999
sg46
VLANT
p182
sbag1
(g2
g3
NtRp183
(dp184
g52
V10.1016/S1534-5807(02)00229-0
p185
sg48
VDEV CELL
p186
sg50
V3
sg79
(lp187
(VGUO
VY
tp188
asg58
I2002
sg46
V233
p189
sbag1
(g2
g3
NtRp190
(dp191
g52
V10.1146/annurev.pp.41.060190.001155
p192
sg48
VANNU REV PLANT PHYS
p193
sg50
V41
p194
sg79
(lp195
(VGUY
VC L
tp196
asg58
I1990
sg46
V187
p197
sbag1
(g2
g3
NtRp198
(dp199
g52
Nsg48
VCURR OPIN PLANT BIOL
p200
sg50
V5
sg79
(lp201
(VHEIL
VM
tp202
asg58
I2002
sg46
V1
sbag1
(g2
g3
NtRp203
(dp204
g52
V10.1016/S0092-8674(01)00460-3
p205
sg48
VCELL
p206
sg50
V106
p207
sg79
(lp208
(VHUGOUVIEUX
VV
tp209
asg58
I2001
sg46
V477
p210
sbag1
(g2
g3
NtRp211
(dp212
g52
V10.1094/MPMI.2003.16.3.179
p213
sg48
VMOL PLANT MICROBE IN
p214
sg50
V16
p215
sg79
(lp216
(VKARIOLA
VT
tp217
asg58
I2003
sg46
V179
p218
sbag1
(g2
g3
NtRp219
(dp220
g52
V10.1105/tpc.104.025817
p221
sg48
VPLANT CELL
p222
sg50
V17
p223
sg79
(lp224
(VKARIOLA
VT
tp225
asg58
I2005
sg46
VLANT
p226
sbag1
(g2
g3
NtRp227
(dp228
g52
V10.1104/pp.106.4.1707
p229
sg48
VPLANT PHYSIOL
p230
sg50
V106
p231
sg79
(lp232
(VKIYOSUE
VT
tp233
asg58
I1994
sg46
VLANT
p234
sbag1
(g2
g3
NtRp235
(dp236
g52
V10.1038/sj.emboj.7600048
p237
sg48
VEMBO J
p238
sg50
V23
p239
sg79
(lp240
(VKOZLOV
VG
tp241
asg58
I2004
sg46
V272
p242
sbag1
(g2
g3
NtRp243
(dp244
g52
V10.1016/S1369-5266(03)00084-0
p245
sg48
VCURR OPIN PLANT BIOL
p246
sg50
V6
sg79
(lp247
(VKUHN
VJ M
tp248
asg58
I2003
sg46
V463
p249
sbag1
(g2
g3
NtRp250
(dp251
g52
V10.1016/S1369-5266(02)00275-3
p252
sg48
VCURR OPIN PLANT BIOL
p253
sg50
V5
sg79
(lp254
(VKUNKEL
VB N
tp255
asg58
I2002
sg46
V325
p256
sbag1
(g2
g3
NtRp257
(dp258
g52
Nsg48
VTHEOR APPL GENET
p259
sg50
V77
p260
sg79
(lp261
(VLANG
VV
tp262
asg58
I1989
sg46
V729
p263
sbag1
(g2
g3
NtRp264
(dp265
g52
V10.1007/BF00027165
p266
sg48
VPLANT MOL BIOL
p267
sg50
V20
p268
sg79
(lp269
(VLANG
VV
tp270
asg58
I1992
sg46
VLANT
p271
sbag1
(g2
g3
NtRp272
(dp273
g52
V10.1105/tpc.9.5.759
p274
sg48
VPLANT CELL
p275
sg50
V9
sg79
(lp276
(VLEUNG
VJ
tp277
asg58
I1997
sg46
VLANT
p278
sbag1
(g2
g3
NtRp279
(dp280
g52
V10.1146/annurev.arplant.49.1.199
p281
sg48
VANNU REV PLANT PHYS
p282
sg50
V49
p283
sg79
(lp284
(VLEUNG
VJ
tp285
asg58
I1998
sg46
V199
p286
sbag1
(g2
g3
NtRp287
(dp288
g52
V10.1111/j.1365-313X.2006.02712.x
p289
sg48
VPLANT J
p290
sg50
V46
p291
sg79
(lp292
(VLI
VJ
tp293
asg58
I2006
sg46
VLANT
p294
sbag1
(g2
g3
NtRp295
(dp296
g52
V10.1105/tpc.016980
p297
sg48
VPLANT CELL
p298
sg50
V16
p299
sg79
(lp300
(VLI
VJ
tp301
asg58
I2004
sg46
VLANT
p302
sbag1
(g2
g3
NtRp303
(dp304
g52
V10.1105/tpc.12.12.2351
p305
sg48
VPLANT CELL
p306
sg50
V12
p307
sg79
(lp308
(VLU
VC
tp309
asg58
I2000
sg46
VLANT
p310
sbag1
(g2
g3
NtRp311
(dp312
g52
Nsg48
VPLANT PHYSIOL
p313
sg50
V107
p314
sg79
(lp315
(VMANTYLA
VE
tp316
asg58
I1995
sg46
VLANT
p317
sbag1
(g2
g3
NtRp318
(dp319
g52
Nsg48
VCURR OPIN PLANT BIOL
p320
sg50
V8
sg79
(lp321
(VMAUCHMANI
VB
tp322
asg58
I2005
sg46
V1
sbag1
(g2
g3
NtRp323
(dp324
g52
V10.1046/j.1365-313x.2001.00965.x
p325
sg48
VPLANT J
p326
sg50
V25
p327
sg79
(lp328
(VMERLOT
VS
tp329
asg58
I2001
sg46
VLANT
p330
sbag1
(g2
g3
NtRp331
(dp332
g52
Nsg48
VEXPT MOL GENETICS
p333
sg50
Nsg79
(lp334
(VMILLER
VJ H
tp335
asg58
I1972
sg46
Nsbag1
(g2
g3
NtRp336
(dp337
g52
V10.1071/FP02231
p338
sg48
VFUNCT PLANT BIOL
p339
sg50
V30
p340
sg79
(lp341
(VMOHR
VP G
tp342
asg58
I2003
sg46
V461
p343
sbag1
(g2
g3
NtRp344
(dp345
g52
V[10.1111/j.1364-3703.2005.00305.x, 10.1111/J.1364-3703.2005.00305.X]
p346
sg48
VMOL PLANT PATHOL
p347
sg50
V6
sg79
(lp348
(VMONTESANO
VM
tp349
asg58
I2005
sg46
V541
p350
sbag1
(g2
g3
NtRp351
(dp352
g52
Nsg48
VPLANT CELL
p353
sg50
V11
p354
sg79
(lp355
(VNAWRATH
VC
tp356
asg58
I1999
sg46
VLANT
p357
sbag1
(g2
g3
NtRp358
(dp359
g52
V10.1111/j.1365-313X.2005.02589.x
p360
sg48
VPLANT J
p361
sg50
V44
p362
sg79
(lp363
(VNISHIMURA
VN
tp364
asg58
I2005
sg46
VLANT
p365
sbag1
(g2
g3
NtRp366
(dp367
g52
V10.1007/BF00014547
p368
sg48
VPLANT MOL BIOL
p369
sg50
V21
p370
sg79
(lp371
(VNORDIN
VK
tp372
asg58
I1993
sg46
VLANT
p373
sbag1
(g2
g3
NtRp374
(dp375
g52
V10.1007/BF00016077
p376
sg48
VPLANT MOL BIOL
p377
sg50
V16
p378
sg79
(lp379
(VNORDIN
VK
tp380
asg58
I1991
sg46
VLANT
p381
sbag1
(g2
g3
NtRp382
(dp383
g52
V10.1094/MPMI.2000.13.4.430
p384
sg48
VMOL PLANT MICROBE IN
p385
sg50
V13
p386
sg79
(lp387
(VNORMAN-SETTERBLAD
VC
tp388
asg58
I2000
sg46
V430
p389
sbag1
(g2
g3
NtRp390
(dp391
g52
V10.1094/MPMI-7-0356
p392
sg48
VMOL PLANT MICROBE IN
p393
sg50
V7
sg79
(lp394
(VPALVA
VT K
tp395
asg58
I1994
sg46
V356
p396
sbag1
(g2
g3
NtRp397
(dp398
g52
V10.1105/tpc.8.12.2309
p399
sg48
VPLANT CELL
p400
sg50
V8
sg79
(lp401
(VPENNINCKX
VIAMA
tp402
asg58
I1996
sg46
VLANT
p403
sbag1
(g2
g3
NtRp404
(dp405
g52
Nsg48
VCELL
p406
sg50
V115
p407
sg79
(lp408
(VPETERSEN
VM
tp409
asg58
I2000
sg46
V679
p410
sbag1
(g2
g3
NtRp411
(dp412
g52
V10.1094/MPMI.2001.14.8.962
p413
sg48
VMOL PLANT MICROBE IN
p414
sg50
V14
p415
sg79
(lp416
(VRANTAKARI
VA
tp417
asg58
I2001
sg46
V962
p418
sbag1
(g2
g3
NtRp419
(dp420
g52
V10.1038/nature04373
p421
sg48
VNATURE
p422
sg50
V439
p423
sg79
(lp424
(VRAZEM
VF A
tp425
asg58
I2006
sg46
V290
p426
sbag1
(g2
g3
NtRp427
(dp428
g52
V10.1073/pnas.1633615100
p429
sg48
VP NATL ACAD SCI USA
p430
sg50
V100
p431
sg79
(lp432
(VSCHMELZ
VE A
tp433
asg58
I2003
sg46
V10552
p434
sbag1
(g2
g3
NtRp435
(dp436
g52
V10.1146/annurev.arplant.52.1.627
p437
sg48
VANNU REV PLANT PHYS
p438
sg50
V52
p439
sg79
(lp440
(VSCHROEDER
VJ I
tp441
asg58
I2001
sg46
V627
p442
sbag1
(g2
g3
NtRp443
(dp444
g52
Nsg48
VHortscience
p445
sg50
V7
sg79
(lp446
(VSUKUMARAN
VN P
tp447
asg58
I1972
sg46
V467
p448
sbag1
(g2
g3
NtRp449
(dp450
g52
V10.1046/j.1365-313X.2001.2641048.x
p451
sg48
VPLANT J
p452
sg50
V26
p453
sg79
(lp454
(VTAHTIHARJU
VS
tp455
asg58
I2001
sg46
VLANT
p456
sbag1
(g2
g3
NtRp457
(dp458
g52
V10.1890/02-0710
p459
sg48
VECOLOGY
p460
sg50
V85
p461
sg79
(lp462
(VTHALER
VJ S
tp463
asg58
I2004
sg46
V48
p464
sbag1
(g2
g3
NtRp465
(dp466
g52
V10.1146/annurev.arplant.50.1.571
p467
sg48
VANNU REV PLANT PHYS
p468
sg50
V50
p469
sg79
(lp470
(VTHOMASHOW
VM F
tp471
asg58
I1999
sg46
V571
p472
sbag1
(g2
g3
NtRp473
(dp474
g52
V10.1111/j.1365-313X.2004.02028.x
p475
sg48
VPLANT J
p476
sg50
V38
p477
sg79
(lp478
(VTON
VJ
tp479
asg58
I2004
sg46
VLANT
p480
sbag1
(g2
g3
NtRp481
(dp482
g52
V10.1105/tpc.4.6.645
p483
sg48
VPLANT CELL
p484
sg50
V4
sg79
(lp485
(VUKNES
VS
tp486
asg58
I1992
sg46
VLANT
p487
sbag1
(g2
g3
NtRp488
(dp489
g52
V10.1093/jxb/erj026
p490
sg48
VJ EXP BOT
p491
sg50
V57
p492
sg79
(lp493
(VVERSLUES
VP E
tp494
asg58
I2006
sg46
V201
p495
sbag1
(g2
g3
NtRp496
(dp497
g52
V10.1094/MPMI.1998.11.1.23
p498
sg48
VMOL PLANT MICROBE IN
p499
sg50
V11
p500
sg79
(lp501
(VVIDAL
VS
tp502
asg58
I1998
sg46
V23
p503
sbag1
(g2
g3
NtRp504
(dp505
g52
V10.1023/B:PLAN.0000028771.70969.6b
p506
sg48
VPLANT MOL BIOL
p507
sg50
V54
p508
sg79
(lp509
(VWANG
VX F
tp510
asg58
I2004
sg46
VLANT
p511
sbag1
(g2
g3
NtRp512
(dp513
g52
V10.1101/gad.891901
p514
sg48
VGENE DEV
p515
sg50
V15
p516
sg79
(lp517
(VXIONG
VL M
tp518
asg58
I2001
sg46
V1971
p519
sbag1
(g2
g3
NtRp520
(dp521
g52
V10.1016/S1534-5807(01)00087-9
p522
sg48
VDEV CELL
p523
sg50
V1
sg79
(lp524
(VXIONG
VL M
tp525
asg58
I2001
sg46
V771
p526
sbag1
(g2
g3
NtRp527
(dp528
g52
V10.1016/j.tplanys.2004.12.012
p529
sg48
VTRENDS PLANT SCI
p530
sg50
V10
p531
sg79
(lp532
(VYAMAGUCHI-SHINOZAKI
VK
tp533
asg58
I2005
sg46
V88
p534
sbag1
(g2
g3
NtRp535
(dp536
g52
V10.1146/annurev.arplant.57.032905.105444
p537
sg48
VANNU REV PLANT BIOL
p538
sg50
V57
p539
sg79
(lp540
(VYAMAGUCHI-SHINOZAKI
VK
tp541
asg58
I2006
sg46
V781
p542
sbag1
(g2
g3
NtRp543
(dp544
g52
Nsg48
VPLANT PHYSIOL
p545
sg50
V140
p546
sg79
(lp547
(VYOSHIDA
VT
tp548
asg58
I2005
sg46
VLANT
p549
sbag1
(g2
g3
NtRp550
(dp551
g52
V10.1146/annurev.arplant.53.091401.143329
p552
sg48
VANNU REV PLANT BIOL
p553
sg50
V53
p554
sg79
(lp555
(VZHU
VJ K
tp556
asg58
I2002
sg46
V247
p557
sbasb.