ccopy_reg
_reconstructor
p1
(ctethne.classes.paper
Paper
p2
c__builtin__
object
p3
NtRp4
(dp5
S'publisherCity'
p6
VROCKVILLE
p7
sS'reprintAddress'
p8
VTuberosa, R (reprint author), Univ Adelaide, Australian Ctr Plant Funct Genom, Glen Osmond, SA 5064, Australia.
p9
sS'WC'
p10
VPlant Sciences
p11
sS'GA'
p12
V308XI
p13
sS'pageEnd'
p14
I486
sS'publisherAddress'
p15
V15501 MONONA DRIVE, ROCKVILLE, MD 20855 USA
p16
sS'documentType'
p17
VReview
p18
sS'subject'
p19
VPlant Sciences
p20
sS'isoSource'
p21
VPlant Physiol.
p22
sS'timesCited'
p23
(lp24
I112
aVZ9 117
p25
asS'PT'
p26
VJ
sS'title'
p27
VQuantitative Trait Loci And Crop Performance Under Abiotic Stress: Where Do We Stand?
p28
sS'ISSN'
p29
(lp30
V0032-0889
p31
aVJ9 PLANT PHYSIOL
p32
asS'authors_full'
p33
(lp34
(VCOLLINS
VNICHOLAS C
tp35
a(VTARDIEU
VFRANCOIS
tp36
a(VTUBEROSA
VROBERTO
tp37
asS'PG'
p38
I18
sS'PD'
p39
VJUN
p40
sS'pageStart'
p41
I469
sS'issue'
p42
I2
sS'RI'
p43
VTardieu, Francois/I-3618-2012
p44
sS'journal'
p45
VPLANT PHYSIOLOGY
p46
sS'volume'
p47
V147
p48
sS'doi'
p49
V10.1104/pp.108.118117
p50
sS'emailAddress'
p51
Vroberto.tuberosa@unibo.it
p52
sS'authorAddress'
p53
(lp54
V[Collins, Nicholas C.] Univ Adelaide, Australian Ctr Plant Funct Genom, Glen Osmond, SA 5064, Australia.
p55
aV[Tardieu, Francois] INRA, UMR 759 LEPSE, F-34000 Montpellier, France.
p56
aV[Tardieu, Francois] Montpellier SupAgro, UMR 759 LEPSE, F-34000 Montpellier, France.
p57
aV[Tuberosa, Roberto] Univ Bologna, Dept Agroenvironm Sci & Technol, I-40127 Bologna, Italy.
p58
asS'date'
p59
I2008
sS'ER'
p60
V
sS'publisher'
p61
VAMER SOC PLANT BIOLOGISTS
p62
sS'authorKeywords'
p63
(lp64
VMARKER-ASSISTED SELECTION
p65
aVNITROGEN USE EFFICIENCY
p66
aVZEA-MAYS L.
p67
aVBORON-TOXICITY TOLERANCE
p68
aVWHEAT TRITICUM-AESTIVUM
p69
aVHORDEUM-VULGARE L.
p70
aVORYZA-SATIVA L.
p71
aVCARBON-ISOTOPE DISCRIMINATION
p72
aVCONTROLLING ROOT TRAITS
p73
aVWATER-USE EFFICIENCY
p74
asS'language'
p75
VEnglish
p76
sS'wosid'
p77
VWOS:000256423600005
p78
sS'citationCount'
p79
I249
sS'authors_init'
p80
(lp81
(VCOLLINS
VN C
tp82
a(VTARDIEU
VF
tp83
a(VTUBEROSA
VR
tp84
asS'citedReferences'
p85
(lp86
g1
(g2
g3
NtRp87
(dp88
g49
V10.1104/pp.105.068510
p89
sg45
VPLANT PHYSIOL
p90
sg47
V139
p91
sg80
(lp92
(VALONSO-BLANCO
VC
tp93
asg59
I2005
sg41
VLANT
p94
sbag1
(g2
g3
NtRp95
(dp96
g49
V10.1007/s00122-006-0311-5
p97
sg45
VTHEOR APPL GENET
p98
sg47
V113
p99
sg80
(lp100
(VANDAYA
VV C
tp101
asg59
I2006
sg41
V467
p102
sbag1
(g2
g3
NtRp103
(dp104
g49
V10.1104/pp.106.085225
p105
sg45
VPLANT PHYSIOL
p106
sg47
V142
p107
sg80
(lp108
(VWISSUWA
VM
tp109
asg59
I2006
sg41
VLANT
p110
sbag1
(g2
g3
NtRp111
(dp112
g49
Nsg45
VJ FOOD AGRIC ENVIRON
p113
sg47
V5
sg80
(lp114
(VASGHARI
VA
tp115
asg59
I2007
sg41
V188
p116
sbag1
(g2
g3
NtRp117
(dp118
g49
Nsg45
VWATER USE EFFICIENCY
p119
sg47
Nsg80
(lp120
(VBACON
VM A
tp121
asg59
I2004
sg41
Nsbag1
(g2
g3
NtRp122
(dp123
g49
V10.1007/s10142-006-0030-7
p124
sg45
VFUNCT INTEGR GENOMIC
p125
sg47
V7
sg80
(lp126
(VBAGA
VM
tp127
asg59
I2007
sg41
V53
p128
sbag1
(g2
g3
NtRp129
(dp130
g49
V10.1111/j.1439-037X.2007.00256.x
p131
sg45
VJ AGRON CROP SCI
p132
sg47
V193
p133
sg80
(lp134
(VBAGCI
VS A
tp135
asg59
I2007
sg41
V198
p136
sbag1
(g2
g3
NtRp137
(dp138
g49
V10.1111/j.1365-3040.2007.01727.x
p139
sg45
VPLANT CELL ENVIRON
p140
sg47
V31
p141
sg80
(lp142
(VBARNABAS
VB
tp143
asg59
I2008
sg41
VLANT
p144
sbag1
(g2
g3
NtRp145
(dp146
g49
Nsg45
VGENOMICS ASSISTED CR
p147
sg47
V2
sg80
(lp148
(VBAUM
VM
tp149
asg59
I2007
sg41
V51
p150
sbag1
(g2
g3
NtRp151
(dp152
g49
Nsg45
VP145
p153
sg47
Nsg80
(lp154
(VBEAVIS
VWILLIAM D
tp155
asg59
I1998
sg41
V145
p156
sbag1
(g2
g3
NtRp157
(dp158
g49
V10.2135/cropsci2005.0226
p159
sg45
VCROP SCI
p160
sg47
V46
p161
sg80
(lp162
(VBEEBE
VS E
tp163
asg59
I2006
sg41
V413
p164
sbag1
(g2
g3
NtRp165
(dp166
g49
V10.2135/cropsci2006.01-0057
p167
sg45
VCROP SCI
p168
sg47
V46
p169
sg80
(lp170
(VBERNARDO
VR
tp171
asg59
I2006
sg41
V1972
p172
sbag1
(g2
g3
NtRp173
(dp174
g49
V10.2135/cropsci2006.11.0690
p175
sg45
VCROP SCI
p176
sg47
V47
p177
sg80
(lp178
(VBERNARDO
VR
tp179
asg59
I2007
sg41
V1082
p180
sbag1
(g2
g3
NtRp181
(dp182
g49
V10.2135/cropsci2006.07.0495
p183
sg45
VCROP SCI
p184
sg47
V47
p185
sg80
(lp186
(VBERNIER
VJ
tp187
asg59
I2007
sg41
V507
p188
sbag1
(g2
g3
NtRp189
(dp190
g49
Nsg45
VMAYDICA
p191
sg47
V45
p192
sg80
(lp193
(VBERTIN
VP
tp194
asg59
I2000
sg41
V53
p195
sbag1
(g2
g3
NtRp196
(dp197
g49
Nsg45
VMAYDICA
p198
sg47
V46
p199
sg80
(lp200
(VBERTIN
VP
tp201
asg59
I2001
sg41
V53
p202
sbag1
(g2
g3
NtRp203
(dp204
g49
Nsg45
VCROP SCI
p205
sg47
V40
p206
sg80
(lp207
(VBIANCHI-HALL
VC M
tp208
asg59
I2000
sg41
V538
p209
sbag1
(g2
g3
NtRp210
(dp211
g49
V10.2135/cropsci2006.07.0465
p212
sg45
VCROP SCI
p213
sg47
V47
p214
sg80
(lp215
(VBIDINGER
VF R
tp216
asg59
I2007
sg41
V969
p217
sbag1
(g2
g3
NtRp218
(dp219
g49
V10.1071/AR05069
p220
sg45
VAUST J AGR RES
p221
sg47
V56
p222
sg80
(lp223
(VBLUM
VA
tp224
asg59
I2005
sg41
V1159
p225
sbag1
(g2
g3
NtRp226
(dp227
g49
Nsg45
VBREEDING STRESS ENV
p228
sg47
Nsg80
(lp229
(VBLUM
VA
tp230
asg59
I1988
sg41
Nsbag1
(g2
g3
NtRp231
(dp232
g49
V10.1016/j.pbi.2006.01.003
p233
sg45
VCURR OPIN PLANT BIOL
p234
sg47
V9
sg80
(lp235
(VBOHNERT
VH J
tp236
asg59
I2006
sg41
V180
p237
sbag1
(g2
g3
NtRp238
(dp239
g49
V10.1016/0378-4290(93)90064-T
p240
sg45
VFIELD CROP RES
p241
sg47
V31
p242
sg80
(lp243
(VBOLANOS
VJ
tp244
asg59
I1993
sg41
V233
p245
sbag1
(g2
g3
NtRp246
(dp247
g49
V10.1016/0378-4290(96)00036-6
p248
sg45
VFIELD CROP RES
p249
sg47
V48
p250
sg80
(lp251
(VBOLANOS
VJ
tp252
asg59
I1996
sg41
V65
p253
sbag1
(g2
g3
NtRp254
(dp255
g49
V10.1007/s10681-007-9480-9
p256
sg45
VEUPHYTICA
p257
sg47
V157
p258
sg80
(lp259
(VBORLAUG
VN E
tp260
asg59
I2007
sg41
V287
p261
sbag1
(g2
g3
NtRp262
(dp263
g49
Nsg45
VP INT C WAK DOUBL HE
p264
sg47
Nsg80
(lp265
(VBORLAUG
VN E
tp266
asg59
I2005
sg41
V3
sbag1
(g2
g3
NtRp267
(dp268
g49
V10.1111/j.1744-7348.2001.tb00088.x
p269
sg45
VANN APPL BIOL
p270
sg47
V138
p271
sg80
(lp272
(VBORRELL
VA
tp273
asg59
I2001
sg41
V91
p274
sbag1
(g2
g3
NtRp275
(dp276
g49
V10.1016/j.pbi.2006.01.006
p277
sg45
VCURR OPIN PLANT BIOL
p278
sg47
V9
sg80
(lp279
(VBORTIRI
VE
tp280
asg59
I2006
sg41
V164
p281
sbag1
(g2
g3
NtRp282
(dp283
g49
V10.1093/jxb/erl177
p284
sg45
VJ EXP BOT
p285
sg47
V58
p286
sg80
(lp287
(VBOYER
VJ S
tp288
asg59
I2007
sg41
V267
p289
sbag1
(g2
g3
NtRp290
(dp291
g49
Nsg45
VP INT C MOL MAPP MAR
p292
sg47
Nsg80
(lp293
(VBRIGGS
VS P
tp294
asg59
I2008
sg41
V17
p295
sbag1
(g2
g3
NtRp296
(dp297
g49
V10.1093/jexbot/53.366.13
p298
sg45
VJ EXP BOT
p299
sg47
V53
p300
sg80
(lp301
(VBRUCE
VW B
tp302
asg59
I2002
sg41
V13
p303
sbag1
(g2
g3
NtRp304
(dp305
g49
Nsg45
VABSTRACTS PLANT ANIM
p306
sg47
V16
p307
sg80
(lp308
(VBUCKLER
VE
tp309
asg59
I2008
sg41
V101
p310
sbag1
(g2
g3
NtRp311
(dp312
g49
V10.1104/pp.093476
p313
sg45
VPLANT PHYSIOL
p314
sg47
V143
p315
sg80
(lp316
(VBYRT
VC S
tp317
asg59
I2007
sg41
VLANT
p318
sbag1
(g2
g3
NtRp319
(dp320
g49
V10.1016/j.fcr.2004.07.003
p321
sg45
VFIELD CROP RES
p322
sg47
V90
p323
sg80
(lp324
(VCAMPOS
VH
tp325
asg59
I2004
sg41
V19
p326
sbag1
(g2
g3
NtRp327
(dp328
g49
V10.1007/s00122-006-0485-x
p329
sg45
VTHEOR APPL GENET
p330
sg47
V114
p331
sg80
(lp332
(VCANIATO
VF F
tp333
asg59
I2007
sg41
V863
p334
sbag1
(g2
g3
NtRp335
(dp336
g49
V10.1016/j.copbio.2004.01.009
p337
sg45
VCURR OPIN BIOTECH
p338
sg47
V15
p339
sg80
(lp340
(VCAPELL
VT
tp341
asg59
I2004
sg41
V148
p342
sbag1
(g2
g3
NtRp343
(dp344
g49
Nsg45
VAGRON J
p345
sg47
V95
p346
sg80
(lp347
(VCHAPMAN
VS
tp348
asg59
I2003
sg41
V99
p349
sbag1
(g2
g3
NtRp350
(dp351
g49
V10.1186/1471-2164-8-414
p352
sg45
VBMC GENOMICS
p353
sg47
V8
sg80
(lp354
(VCHEN
VJ
tp355
asg59
I2007
sg41
Nsbag1
(g2
g3
NtRp356
(dp357
g49
V10.1111/j.1365-3040.2007.01772.x
p358
sg45
VPLANT CELL ENVIRON
p359
sg47
V31
p360
sg80
(lp361
(VCHENU
VK
tp362
asg59
I2008
sg41
VLANT
p363
sbag1
(g2
g3
NtRp364
(dp365
g49
VDOI 10.1007/978-1-4020-5578-2_10
p366
sg45
VADV MOL BREEDING DRO
p367
sg47
Nsg80
(lp368
(VCHINNUSAMY
VV
tp369
asg59
I2007
sg41
V223
p370
sbag1
(g2
g3
NtRp371
(dp372
g49
Nsg45
VGENETICS IN PRESS
p373
sg47
Nsg80
(lp374
(VCOLLINS
VN C
tp375
asg59
I2008
sg41
Nsbag1
(g2
g3
NtRp376
(dp377
g49
V10.1093/jxb/erj124
p378
sg45
VJ EXP BOT
p379
sg47
V57
p380
sg80
(lp381
(VCOLMER
VT D
tp382
asg59
I2006
sg41
V1059
p383
sbag1
(g2
g3
NtRp384
(dp385
g49
V10.1093/jxb/erh277
p386
sg45
VJ EXP BOT
p387
sg47
V55
p388
sg80
(lp389
(VCONDON
VA G
tp390
asg59
I2004
sg41
V2447
p391
sbag1
(g2
g3
NtRp392
(dp393
g49
Nsg45
VGENOMICS ASSISTED CR
p394
sg47
V2
sg80
(lp395
(VCOOPER
VM
tp396
asg59
I2007
sg41
V57
p397
sbag1
(g2
g3
NtRp398
(dp399
g49
V10.1007/s00122-006-0222-5
p400
sg45
VTHEOR APPL GENET
p401
sg47
V112
p402
sg80
(lp403
(VCOQUE
VM
tp404
asg59
I2006
sg41
V1205
p405
sbag1
(g2
g3
NtRp406
(dp407
g49
V10.1023/A:1009652326121
p408
sg45
VMOL BREEDING
p409
sg47
V6
sg80
(lp410
(VCOURTOIS
VB
tp411
asg59
I2000
sg41
V55
p412
sbag1
(g2
g3
NtRp413
(dp414
g49
V10.1016/j.tplants.2007.08.012
p415
sg45
VTRENDS PLANT SCI
p416
sg47
V12
p417
sg80
(lp418
(VDE
VDORLODOT S
tp419
asg59
I2007
sg41
V474
p420
sbag1
(g2
g3
NtRp421
(dp422
g49
V10.1111/j.1439-0523.2006.01275.x
p423
sg45
VPLANT BREEDING
p424
sg47
V125
p425
sg80
(lp426
(VDHANDA
VS S
tp427
asg59
I2006
sg41
VLANT
p428
sbag1
(g2
g3
NtRp429
(dp430
g49
V10.1101/gad.1189604
p431
sg45
VGENE DEV
p432
sg47
V18
p433
sg80
(lp434
(VDOI
VK
tp435
asg59
I2004
sg41
V926
p436
sbag1
(g2
g3
NtRp437
(dp438
g49
Nsg45
VGENETICS
p439
sg47
V178
p440
sg80
(lp441
(VDUCROCQ
VS
tp442
asg59
I2008
sg41
V1
sbag1
(g2
g3
NtRp443
(dp444
g49
V10.1016/S0065-2113(05)86002-X
p445
sg45
VADV AGRON
p446
sg47
V86
p447
sg80
(lp448
(VDUVICK
VD N
tp449
asg59
I2005
sg41
V83
p450
sbag1
(g2
g3
NtRp451
(dp452
g49
V10.1016/S0065-2113(07)95003-8
p453
sg45
VADV AGRON
p454
sg47
V95
p455
sg80
(lp456
(VDWIVEDI
VS L
tp457
asg59
I2007
sg41
V163
p458
sbag1
(g2
g3
NtRp459
(dp460
g49
Nsg45
VCZECH J GENET PLANT
p461
sg47
V40
p462
sg80
(lp463
(VEGLINTON
VJ K
tp464
asg59
I2004
sg41
V166
p465
sbag1
(g2
g3
NtRp466
(dp467
g49
Nsg45
VGENOMICS ASSISTED CR
p468
sg47
V1
sg80
(lp469
(VERSOZ
VE S
tp470
asg59
I2007
sg41
V97
p471
sbag1
(g2
g3
NtRp472
(dp473
g49
V10.1534/genetics.104.040204
p474
sg45
VGENETICS
p475
sg47
V170
p476
sg80
(lp477
(VFALQUE
VM
tp478
asg59
I2005
sg41
V1957
p479
sbag1
(g2
g3
NtRp480
(dp481
g49
V10.1146/annurev.arplant.40.1.503
p482
sg45
VANNU REV PLANT PHYS
p483
sg47
V40
p484
sg80
(lp485
(VFARQUHAR
VG D
tp486
asg59
I1989
sg41
V503
p487
sbag1
(g2
g3
NtRp488
(dp489
g49
V10.1016/j.tig.2007.11.001
p490
sg45
VTRENDS GENET
p491
sg47
V24
p492
sg80
(lp493
(VFEUILLET
VC
tp494
asg59
I2008
sg41
V24
p495
sbag1
(g2
g3
NtRp496
(dp497
g49
V10.1534/genetics.105.047555
p498
sg45
VGENETICS
p499
sg47
V172
p500
sg80
(lp501
(VGERALD
VJ N F
tp502
asg59
I2006
sg41
V485
p503
sbag1
(g2
g3
NtRp504
(dp505
g49
V10.1016/j.agwat.2005.04.015
p506
sg45
VAGR WATER MANAGE
p507
sg47
V78
p508
sg80
(lp509
(VFLOWERS
VT J
tp510
asg59
I2005
sg41
V15
p511
sbag1
(g2
g3
NtRp512
(dp513
g49
V10.1007/s00122-006-0427-7
p514
sg45
VTHEOR APPL GENET
p515
sg47
V114
p516
sg80
(lp517
(VFONTECHA
VG
tp518
asg59
I2007
sg41
V249
p519
sbag1
(g2
g3
NtRp520
(dp521
g49
V10.1007/s00122-007-0634-x
p522
sg45
VTHEOR APPL GENET
p523
sg47
V115
p524
sg80
(lp525
(VFRANCIA
VE
tp526
asg59
I2007
sg41
V1083
p527
sbag1
(g2
g3
NtRp528
(dp529
g49
V10.1093/jxb/erm150
p530
sg45
VJ EXP BOT
p531
sg47
V58
p532
sg80
(lp533
(VFRESNEAU
VC
tp534
asg59
I2007
sg41
V2983
p535
sbag1
(g2
g3
NtRp536
(dp537
g49
V10.1007/BF00302254
p538
sg45
VMOL GEN GENET
p539
sg47
V245
p540
sg80
(lp541
(VFROVA
VC
tp542
asg59
I1994
sg41
V424
p543
sbag1
(g2
g3
NtRp544
(dp545
g49
V10.1016/j.eja.2007.01.001
p546
sg45
VEUR J AGRON
p547
sg47
V26
p548
sg80
(lp549
(VFULLER
VM P
tp550
asg59
I2007
sg41
V435
p551
sbag1
(g2
g3
NtRp552
(dp553
g49
V10.1093/pcp/pcm091
p554
sg45
VPLANT CELL PHYSIOL
p555
sg47
V48
p556
sg80
(lp557
(VFURUKAWA
VJ
tp558
asg59
I2007
sg41
VLANT
p559
sbag1
(g2
g3
NtRp560
(dp561
g49
Nsg45
VP INT C WAK DOUBL HE
p562
sg47
Nsg80
(lp563
(VGALIBA
VG
tp564
asg59
I2005
sg41
V253
p565
sbag1
(g2
g3
NtRp566
(dp567
g49
V10.1093/jxb/erh006
p568
sg45
VJ EXP BOT
p569
sg47
V55
p570
sg80
(lp571
(VGALLAIS
VA
tp572
asg59
I2004
sg41
V295
p573
sbag1
(g2
g3
NtRp574
(dp575
g49
V10.1104/pp.103.034538
p576
sg45
VPLANT PHYSIOL
p577
sg47
V134
p578
sg80
(lp579
(VGARDINER
VJ
tp580
asg59
I2004
sg41
VLANT
p581
sbag1
(g2
g3
NtRp582
(dp583
g49
V10.1073/pnas.252637799
p584
sg45
VP NATL ACAD SCI USA
p585
sg47
V99
p586
sg80
(lp587
(VGARG
VA K
tp588
asg59
I2002
sg41
V15898
p589
sbag1
(g2
g3
NtRp590
(dp591
g49
V10.2135/cropsci2006.08.0510
p592
sg45
VCROP SCI
p593
sg47
V47
p594
sg80
(lp595
(VGELIN
VJ P
tp596
asg59
I2007
sg41
V1361
p597
sbag1
(g2
g3
NtRp598
(dp599
g49
V10.1111/j.1365-3040.2007.01726.x
p600
sg45
VPLANT CELL ENVIRON
p601
sg47
V30
p602
sg80
(lp603
(VGENC
VY
tp604
asg59
I2007
sg41
VLANT
p605
sbag1
(g2
g3
NtRp606
(dp607
g49
Nsg45
VP INT C WAK DOUBL HE
p608
sg47
Nsg80
(lp609
(VGIULIANI
VS
tp610
asg59
I2005
sg41
V463
p611
sbag1
(g2
g3
NtRp612
(dp613
g49
V10.1093/jxb/eri303
p614
sg45
VJ EXP BOT
p615
sg47
V56
p616
sg80
(lp617
(VGIULIANI
VS
tp618
asg59
I2005
sg41
V3061
p619
sbag1
(g2
g3
NtRp620
(dp621
g49
V10.1007/s00122-005-0015-2
p622
sg45
VTHEOR APPL GENET
p623
sg47
V111
p624
sg80
(lp625
(VGOODSTAL
VF J
tp626
asg59
I2005
sg41
V898
p627
sbag1
(g2
g3
NtRp628
(dp629
g49
V10.1016/S0378-4290(98)00133-6
p630
sg45
VFIELD CROP RES
p631
sg47
V60
p632
sg80
(lp633
(VGRAHAM
VR
tp634
asg59
I1999
sg41
V57
p635
sbag1
(g2
g3
NtRp636
(dp637
g49
Nsg45
VGENOMICS ASSISTED CR
p638
sg47
Nsg80
(lp639
(VGRANDILLO
VS
tp640
asg59
I2007
sg41
V121
p641
sbag1
(g2
g3
NtRp642
(dp643
g49
V10.1111/j.1469-8137.2005.01609.x
p644
sg45
VNEW PHYTOL
p645
sg47
V169
p646
sg80
(lp647
(VGRANIER
VC
tp648
asg59
I2006
sg41
V623
p649
sbag1
(g2
g3
NtRp650
(dp651
g49
V10.1007/s00438-006-0169-x
p652
sg45
VMOL GENET GENOMICS
p653
sg47
V277
p654
sg80
(lp655
(VGUO
VP G
tp656
asg59
I2007
sg41
V1
sbag1
(g2
g3
NtRp657
(dp658
g49
V10.1016/j.tplants.2004.01.003
p659
sg45
VTRENDS PLANT SCI
p660
sg47
V9
sg80
(lp661
(VGUR
VA
tp662
asg59
I2004
sg41
V107
p663
sbag1
(g2
g3
NtRp664
(dp665
g49
V10.1104/pp.104.900150
p666
sg45
VPLANT PHYSIOL
p667
sg47
V138
p668
sg80
(lp669
(VGUTIERREZ
VR A
tp670
asg59
I2005
sg41
VLANT
p671
sbag1
(g2
g3
NtRp672
(dp673
g49
V10.2135/cropsci2006.10.0660tpg
p674
sg45
VCROP SCI
p675
sg47
V47
p676
sg80
(lp677
(VHA
VB K
tp678
asg59
I2007
sg41
VS73
p679
sbag1
(g2
g3
NtRp680
(dp681
g49
V10.1007/s00122-006-0429-5
p682
sg45
VTHEOR APPL GENET
p683
sg47
V114
p684
sg80
(lp685
(VHABASH
VD Z
tp686
asg59
I2007
sg41
V403
p687
sbag1
(g2
g3
NtRp688
(dp689
g49
V10.1111/j.1439-0523.2005.01164.x
p690
sg45
VPLANT BREEDING
p691
sg47
V124
p692
sg80
(lp693
(VHALL
VN M
tp694
asg59
I2005
sg41
VLANT
p695
sbag1
(g2
g3
NtRp696
(dp697
g49
V10.1016/j.tplants.2006.10.006
p698
sg45
VTRENDS PLANT SCI
p699
sg47
V11
p700
sg80
(lp701
(VHAMMER
VG
tp702
asg59
I2006
sg41
V587
p703
sbag1
(g2
g3
NtRp704
(dp705
g49
V10.1071/AR05157
p706
sg45
VAUST J AGR RES
p707
sg47
V56
p708
sg80
(lp709
(VHAMMER
VG L
tp710
asg59
I2005
sg41
V947
p711
sbag1
(g2
g3
NtRp712
(dp713
g49
V10.1093/jxb/erl225
p714
sg45
VJ EXP BOT
p715
sg47
V58
p716
sg80
(lp717
(VHARRIS
VK
tp718
asg59
I2007
sg41
V327
p719
sbag1
(g2
g3
NtRp720
(dp721
g49
V10.1093/jxb/erm097
p722
sg45
VJ EXP BOT
p723
sg47
V58
p724
sg80
(lp725
(VHIREL
VB
tp726
asg59
I2007
sg41
V2369
p727
sbag1
(g2
g3
NtRp728
(dp729
g49
V10.1104/pp.125.3.1258
p730
sg45
VPLANT PHYSIOL
p731
sg47
V125
p732
sg80
(lp733
(VHIREL
VB
tp734
asg59
I2001
sg41
VLANT
p735
sbag1
(g2
g3
NtRp736
(dp737
g49
V10.1073/pnas.0602868103
p738
sg45
VP NATL ACAD SCI USA
p739
sg47
V103
p740
sg80
(lp741
(VHOEKENGA
VO A
tp742
asg59
I2006
sg41
V9738
p743
sbag1
(g2
g3
NtRp744
(dp745
g49
V10.1104/pp.102.017145
p746
sg45
VPLANT PHYSIOL
p747
sg47
V132
p748
sg80
(lp749
(VHONG
VS W
tp750
asg59
I2003
sg41
VLANT
p751
sbag1
(g2
g3
NtRp752
(dp753
g49
V10.1016/j.fcr.2004.07.014
p754
sg45
VFIELD CROP RES
p755
sg47
V90
p756
sg80
(lp757
(VHOOGENBOOM
VG
tp758
asg59
I2004
sg41
V145
p759
sbag1
(g2
g3
NtRp760
(dp761
g49
V10.1111/j.1365-313X.2005.02595.x
p762
sg45
VPLANT J
p763
sg47
V44
p764
sg80
(lp765
(VSUNARPI
S''
tp766
asg59
I2005
sg41
VLANT
p767
sbag1
(g2
g3
NtRp768
(dp769
g49
V10.1017/S0016672300004511
p770
sg45
VGENET RES
p771
sg47
V75
p772
sg80
(lp773
(VHOSPITAL
VF
tp774
asg59
I2000
sg41
V357
p775
sbag1
(g2
g3
NtRp776
(dp777
g49
Nsg45
VGENETICS
p778
sg47
V147
p779
sg80
(lp780
(VHOSPITAL
VF
tp781
asg59
I1997
sg41
V1469
p782
sbag1
(g2
g3
NtRp783
(dp784
g49
V10.1104/pp.006783
p785
sg45
VPLANT PHYSIOL
p786
sg47
V130
p787
sg80
(lp788
(VHSIEH
VT H
tp789
asg59
I2002
sg41
VLANT
p790
sbag1
(g2
g3
NtRp791
(dp792
g49
V10.1104/pp.106.088864
p793
sg45
VPLANT PHYSIOL
p794
sg47
V142
p795
sg80
(lp796
(VHUANG
VS B
tp797
asg59
I2006
sg41
VLANT
p798
sbag1
(g2
g3
NtRp799
(dp800
g49
V10.1007/s11032-005-1642-7
p801
sg45
VMOL BREEDING
p802
sg47
V16
p803
sg80
(lp804
(VHUND
VA
tp805
asg59
I2005
sg41
V321
p806
sbag1
(g2
g3
NtRp807
(dp808
g49
V10.1007/s11103-007-9215-2
p809
sg45
VPLANT MOL BIOL
p810
sg47
V65
p811
sg80
(lp812
(VISMAIL
VA M
tp813
asg59
I2007
sg41
VLANT
p814
sbag1
(g2
g3
NtRp815
(dp816
g49
Nsg45
VABSTRACTS PLANT ANIM
p817
sg47
Nsg80
(lp818
(VISMAIL
VA M
tp819
asg59
I2008
sg41
V55
p820
sbag1
(g2
g3
NtRp821
(dp822
g49
V10.1046/j.1365-313x.2001.01096.x
p823
sg45
VPLANT J
p824
sg47
V27
p825
sg80
(lp826
(VIUCHI
VS
tp827
asg59
I2001
sg41
VLANT
p828
sbag1
(g2
g3
NtRp829
(dp830
g49
V10.1104/pp.106.086538
p831
sg45
VPLANT PHYSIOL
p832
sg47
V142
p833
sg80
(lp834
(VJAMES
VR A
tp835
asg59
I2006
sg41
VLANT
p836
sbag1
(g2
g3
NtRp837
(dp838
g49
V10.1007/s001220051195
p839
sg45
VTHEOR APPL GENET
p840
sg47
V98
p841
sg80
(lp842
(VJEFFERIES
VS P
tp843
asg59
I1999
sg41
V1293
p844
sbag1
(g2
g3
NtRp845
(dp846
g49
V10.1007/s001220051542
p847
sg45
VTHEOR APPL GENET
p848
sg47
V101
p849
sg80
(lp850
(VJEFFERIES
VS P
tp851
asg59
I2000
sg41
V767
p852
sbag1
(g2
g3
NtRp853
(dp854
g49
Nsg45
VADV MOL BREEDING DRO
p855
sg47
Nsg80
(lp856
(VJENKS
VM A
tp857
asg59
I2007
sg41
Nsbag1
(g2
g3
NtRp858
(dp859
g49
V10.1093/jxb/eri108
p860
sg45
VJ EXP BOT
p861
sg47
V56
p862
sg80
(lp863
(VJOMPUK
VC
tp864
asg59
I2005
sg41
V1153
p865
sbag1
(g2
g3
NtRp866
(dp867
g49
Nsg45
VCROP SCI
p868
sg47
V40
p869
sg80
(lp870
(VKAEPPLER
VS M
tp871
asg59
I2000
sg41
V358
p872
sbag1
(g2
g3
NtRp873
(dp874
g49
Nsg45
VCROP SCI
p875
sg47
V44
p876
sg80
(lp877
(VKAHRAMAN
VA
tp878
asg59
I2004
sg41
V13
p879
sbag1
(g2
g3
NtRp880
(dp881
g49
V10.1534/genetics.106.056481
p882
sg45
VGENETICS
p883
sg47
V173
p884
sg80
(lp885
(VKALAVACHARLA
VV
tp886
asg59
I2006
sg41
V1089
p887
sbag1
(g2
g3
NtRp888
(dp889
g49
V10.1007/s00122-007-0689-8
p890
sg45
VTHEOR APPL GENET
p891
sg47
V116
p892
sg80
(lp893
(VKNOLL
VJ
tp894
asg59
I2008
sg41
V541
p895
sbag1
(g2
g3
NtRp896
(dp897
g49
V10.1007/s11104-004-1158-7
p898
sg45
VPLANT SOIL
p899
sg47
V274
p900
sg80
(lp901
(VKOCHIAN
VL V
tp902
asg59
I2005
sg41
VLANT
p903
sbag1
(g2
g3
NtRp904
(dp905
g49
V10.1093/pcp/pcf156
p906
sg45
VPLANT CELL PHYSIOL
p907
sg47
V43
p908
sg80
(lp909
(VKOJIMA
VS
tp910
asg59
I2002
sg41
VLANT
p911
sbag1
(g2
g3
NtRp912
(dp913
g49
V10.1111/j.1744-7909.2005.00072.x
p914
sg45
VJ INTEGR PLANT BIOL
p915
sg47
V47
p916
sg80
(lp917
(VKUANG
VR B
tp918
asg59
I2005
sg41
V549
p919
sbag1
(g2
g3
NtRp920
(dp921
g49
V10.1007/s00122-007-0589-y
p922
sg45
VTHEOR APPL GENET
p923
sg47
V115
p924
sg80
(lp925
(VKUROKI
VM
tp926
asg59
I2007
sg41
V593
p927
sbag1
(g2
g3
NtRp928
(dp929
g49
V10.1093/jxb/erl161
p930
sg45
VJ EXP BOT
p931
sg47
V58
p932
sg80
(lp933
(VLANDI
VP
tp934
asg59
I2007
sg41
V319
p935
sbag1
(g2
g3
NtRp936
(dp937
g49
V10.1007/s11032-004-7604-7
p938
sg45
VMOL BREEDING
p939
sg47
V15
p940
sg80
(lp941
(VLANDI
VP
tp942
asg59
I2005
sg41
V291
p943
sbag1
(g2
g3
NtRp944
(dp945
g49
Nsg45
VP INT C WAK DOUBL HE
p946
sg47
Nsg80
(lp947
(VLANGRIDGE
VP
tp948
asg59
I2005
sg41
V279
p949
sbag1
(g2
g3
NtRp950
(dp951
g49
V10.1007/s00122-007-0575-4
p952
sg45
VTHEOR APPL GENET
p953
sg47
V115
p954
sg80
(lp955
(VLAPERCHE
VA
tp956
asg59
I2007
sg41
V399
p957
sbag1
(g2
g3
NtRp958
(dp959
g49
V10.2135/cropsci2005.05.0084
p960
sg45
VCROP SCI
p961
sg47
V46
p962
sg80
(lp963
(VLAZA
VM R
tp964
asg59
I2006
sg41
V763
p965
sbag1
(g2
g3
NtRp966
(dp967
g49
Nsg45
VMAYDICA
p968
sg47
V51
p969
sg80
(lp970
(VLEDEAUX
VJ R
tp971
asg59
I2006
sg41
V151
p972
sbag1
(g2
g3
NtRp973
(dp974
g49
V10.1016/j.jplph.2007.01.003
p975
sg45
VJ PLANT PHYSIOL
p976
sg47
V164
p977
sg80
(lp978
(VLEE
VS H
tp979
asg59
I2007
sg41
V1626
p980
sbag1
(g2
g3
NtRp981
(dp982
g49
V10.1007/s10681-005-1192-4
p983
sg45
VEUPHYTICA
p984
sg47
V142
p985
sg80
(lp986
(VLI
VY D
tp987
asg59
I2005
sg41
V137
p988
sbag1
(g2
g3
NtRp989
(dp990
g49
V10.1007/s00122-005-0108-y
p991
sg45
VTHEOR APPL GENET
p992
sg47
V112
p993
sg80
(lp994
(VLIAN
VX M
tp995
asg59
I2005
sg41
V85
p996
sbag1
(g2
g3
NtRp997
(dp998
g49
V10.1071/FP03255
p999
sg45
VFUNCT PLANT BIOL
p1000
sg47
V31
p1001
sg80
(lp1002
(VLIAO
VH
tp1003
asg59
I2004
sg41
V959
p1004
sbag1
(g2
g3
NtRp1005
(dp1006
g49
V10.1016/j.gde.2007.07.007
p1007
sg45
VCURR OPIN GENET DEV
p1008
sg47
V17
p1009
sg80
(lp1010
(VLIPPMAN
VZ B
tp1011
asg59
I2007
sg41
V545
p1012
sbag1
(g2
g3
NtRp1013
(dp1014
g49
V10.1007/s10681-007-9431-5
p1015
sg45
VEUPHYTICA
p1016
sg47
V158
p1017
sg80
(lp1018
(VLOU
VQ J
tp1019
asg59
I2007
sg41
V87
p1020
sbag1
(g2
g3
NtRp1021
(dp1022
g49
V10.1104/pp.102.010785
p1023
sg45
VPLANT PHYSIOL
p1024
sg47
V131
p1025
sg80
(lp1026
(VLOUDET
VO
tp1027
asg59
I2003
sg41
VLANT
p1028
sbag1
(g2
g3
NtRp1029
(dp1030
g49
V10.1007/s00122-004-1900-9
p1031
sg45
VTHEOR APPL GENET
p1032
sg47
V110
p1033
sg80
(lp1034
(VLOUDET
VO
tp1035
asg59
I2005
sg41
V742
p1036
sbag1
(g2
g3
NtRp1037
(dp1038
g49
V10.1016/j.pbi.2007.04.012
p1039
sg45
VCURR OPIN PLANT BIOL
p1040
sg47
V10
p1041
sg80
(lp1042
(VLUKENS
VL N
tp1043
asg59
I2007
sg41
V317
p1044
sbag1
(g2
g3
NtRp1045
(dp1046
g49
V10.1534/genetics.107.077297
p1047
sg45
VGENETICS
p1048
sg47
V178
p1049
sg80
(lp1050
(VMACCAFERRI
VM
tp1051
asg59
I2008
sg41
V489
p1052
sbag1
(g2
g3
NtRp1053
(dp1054
g49
Nsg45
VGENOMICS ASSISTED CR
p1055
sg47
V2
sg80
(lp1056
(VMACKILL
VD J
tp1057
asg59
I2007
sg41
Nsbag1
(g2
g3
NtRp1058
(dp1059
g49
V10.1007/s00122-006-0356-5
p1060
sg45
VTHEOR APPL GENET
p1061
sg47
V113
p1062
sg80
(lp1063
(VMACMILLAN
VK
tp1064
asg59
I2006
sg41
V977
p1065
sbag1
(g2
g3
NtRp1066
(dp1067
g49
V10.1038/ng2074
p1068
sg45
VNAT GENET
p1069
sg47
V39
p1070
sg80
(lp1071
(VMAGALHAES
VJ V
tp1072
asg59
I2007
sg41
V1156
p1073
sbag1
(g2
g3
NtRp1074
(dp1075
g49
V10.1007/s00122-006-0294-2
p1076
sg45
VTHEOR APPL GENET
p1077
sg47
V113
p1078
sg80
(lp1079
(VMALOSETTI
VM
tp1080
asg59
I2006
sg41
V288
p1081
sbag1
(g2
g3
NtRp1082
(dp1083
g49
V10.1016/j.cellbi.2006.03.004
p1084
sg45
VCELL BIOL INT
p1085
sg47
V30
p1086
sg80
(lp1087
(VMAMUN
VE A
tp1088
asg59
I2006
sg41
V583
p1089
sbag1
(g2
g3
NtRp1090
(dp1091
g49
V10.1038/nature03835
p1092
sg45
VNATURE
p1093
sg47
V436
p1094
sg80
(lp1095
(VMASLE
VJ
tp1096
asg59
I2005
sg41
V866
p1097
sbag1
(g2
g3
NtRp1098
(dp1099
g49
V10.1007/s00122-005-2029-1
p1100
sg45
VTHEOR APPL GENET
p1101
sg47
V111
p1102
sg80
(lp1103
(VMATOS
VM
tp1104
asg59
I2005
sg41
V360
p1105
sbag1
(g2
g3
NtRp1106
(dp1107
g49
V10.1016/j.pbi.2007.06.007
p1108
sg45
VCURR OPIN PLANT BIOL
p1109
sg47
V10
p1110
sg80
(lp1111
(VMATZKE
VM
tp1112
asg59
I2007
sg41
V512
p1113
sbag1
(g2
g3
NtRp1114
(dp1115
g49
V10.1146/annurev.arplant.59.032607.092734
p1116
sg45
VANNU REV PLANT BIOL
p1117
sg47
V59
p1118
sg80
(lp1119
(VMAUREL
VC
tp1120
asg59
I2008
sg41
V595
p1121
sbag1
(g2
g3
NtRp1122
(dp1123
g49
V10.1093/aob/mch193
p1124
sg45
VANN BOT
p1125
sg47
V94
p1126
sg80
(lp1127
(VMCLAUGHLIN
VJ E
tp1128
asg59
I2004
sg41
V675
p1129
sbag1
(g2
g3
NtRp1130
(dp1131
g49
V10.1093/aob/mch123
p1132
sg45
VANN BOT
p1133
sg47
V94
p1134
sg80
(lp1135
(VMCLAUGHLIN
VJ E
tp1136
asg59
I2004
sg41
V75
p1137
sbag1
(g2
g3
NtRp1138
(dp1139
g49
V10.1093/jxb/erg084
p1140
sg45
VJ EXP BOT
p1141
sg47
V54
p1142
sg80
(lp1143
(VMICKELSON
VS
tp1144
asg59
I2003
sg41
V801
p1145
sbag1
(g2
g3
NtRp1146
(dp1147
g49
V10.1007/s00438-005-0076-6
p1148
sg45
VMOL GENET GENOMICS
p1149
sg47
V275
p1150
sg80
(lp1151
(VMILLER
VA K
tp1152
asg59
I2006
sg41
V193
p1153
sbag1
(g2
g3
NtRp1154
(dp1155
g49
V10.1017/S0021859607006752
p1156
sg45
VJ AGR SCI
p1157
sg47
V145
p1158
sg80
(lp1159
(VMIRALLES
VD J
tp1160
asg59
I2007
sg41
V139
p1161
sbag1
(g2
g3
NtRp1162
(dp1163
g49
V10.1126/science.1146634
p1164
sg45
VSCIENCE
p1165
sg47
V318
p1166
sg80
(lp1167
(VMIWA
VK
tp1168
asg59
I2007
sg41
V1417
p1169
sbag1
(g2
g3
NtRp1170
(dp1171
g49
V10.1071/AR03027
p1172
sg45
VAUST J AGR RES
p1173
sg47
V54
p1174
sg80
(lp1175
(VMUNNS
VR
tp1176
asg59
I2003
sg41
V627
p1177
sbag1
(g2
g3
NtRp1178
(dp1179
g49
V10.1007/s00122-006-0488-7
p1180
sg45
VTHEOR APPL GENET
p1181
sg47
V114
p1182
sg80
(lp1183
(VNARASIMHAMOORTHY
VB
tp1184
asg59
I2007
sg41
V901
p1185
sbag1
(g2
g3
NtRp1186
(dp1187
g49
V10.1007/s00122-007-0607-0
p1188
sg45
VTHEOR APPL GENET
p1189
sg47
V115
p1190
sg80
(lp1191
(VNEERAJA
VC N
tp1192
asg59
I2007
sg41
V767
p1193
sbag1
(g2
g3
NtRp1194
(dp1195
g49
V10.1073/pnas.0707193104
p1196
sg45
VP NATL ACAD SCI USA
p1197
sg47
V104
p1198
sg80
(lp1199
(VNELSON
VD E
tp1200
asg59
I2007
sg41
V16450
p1201
sbag1
(g2
g3
NtRp1202
(dp1203
g49
V[10.1007/s00122-002-1072-4, 10.1007/s00122-003-1314-0]
p1204
sg45
VTHEOR APPL GENET
p1205
sg47
V106
p1206
sg80
(lp1207
(VNGUYEN
VB D
tp1208
asg59
I2003
sg41
V583
p1209
sbag1
(g2
g3
NtRp1210
(dp1211
g49
V10.1023/A:1022867416513
p1212
sg45
VEUPHYTICA
p1213
sg47
V130
p1214
sg80
(lp1215
(VNINAMANGO-CARDENAS
VF E
tp1216
asg59
I2003
sg41
V223
p1217
sbag1
(g2
g3
NtRp1218
(dp1219
g49
V10.1073/pnas.0705639105
p1220
sg45
VP NATL ACAD SCI USA
p1221
sg47
V104
p1222
sg80
(lp1223
(VNOVILLO
VF
tp1224
asg59
I2007
sg41
V21002
p1225
sbag1
(g2
g3
NtRp1226
(dp1227
g49
V10.2135/cropsci2005.12-0446
p1228
sg45
VCROP SCI
p1229
sg47
V46
p1230
sg80
(lp1231
(VOCHOA
VI E
tp1232
asg59
I2006
sg41
V1609
p1233
sbag1
(g2
g3
NtRp1234
(dp1235
g49
V10.1111/j.1744-7348.2005.00032.x
p1236
sg45
VANN APPL BIOL
p1237
sg47
V147
p1238
sg80
(lp1239
(VPARRY
VM A J
tp1240
asg59
I2005
sg41
V211
p1241
sbag1
(g2
g3
NtRp1242
(dp1243
g49
V10.1093/jxb/erl212
p1244
sg45
VJ EXP BOT
p1245
sg47
V58
p1246
sg80
(lp1247
(VPASSIOURA
VJ
tp1248
asg59
I2007
sg41
V113
p1249
sbag1
(g2
g3
NtRp1250
(dp1251
g49
V10.1007/s11032-005-1031-2
p1252
sg45
VMOL BREEDING
p1253
sg47
V17
p1254
sg80
(lp1255
(VPELLESCHI
VS
tp1256
asg59
I2006
sg41
V21
p1257
sbag1
(g2
g3
NtRp1258
(dp1259
g49
V10.1126/science.320.5873.171
p1260
sg45
VSCIENCE
p1261
sg47
V320
p1262
sg80
(lp1263
(VPENNISI
VE
tp1264
asg59
I2008
sg41
V171
p1265
sbag1
(g2
g3
NtRp1266
(dp1267
g49
V10.1111/j.1365-313X.2007.03288.X
p1268
sg45
VPLANT J
p1269
sg47
V52
p1270
sg80
(lp1271
(VPERRUC
VE
tp1272
asg59
I2007
sg41
VLANT
p1273
sbag1
(g2
g3
NtRp1274
(dp1275
g49
V10.1016/j.tplants.2006.06.001
p1276
sg45
VTRENDS PLANT SCI
p1277
sg47
V11
p1278
sg80
(lp1279
(VPLATTEN
VJ D
tp1280
asg59
I2006
sg41
V372
p1281
sbag1
(g2
g3
NtRp1282
(dp1283
g49
Nsg45
VCROP SCI
p1284
sg47
V44
p1285
sg80
(lp1286
(VPODLICH
VD W
tp1287
asg59
I2004
sg41
V1560
p1288
sbag1
(g2
g3
NtRp1289
(dp1290
g49
V10.1093/jxb/erl119
p1291
sg45
VJ EXP BOT
p1292
sg47
V58
p1293
sg80
(lp1294
(VPOROYKO
VV
tp1295
asg59
I2007
sg41
V279
p1296
sbag1
(g2
g3
NtRp1297
(dp1298
g49
V10.1111/j.1365-313X.2007.03315.x
p1299
sg45
VPLANT J
p1300
sg47
V53
p1301
sg80
(lp1302
(VPOTOKINA
VE
tp1303
asg59
I2008
sg41
VLANT
p1304
sbag1
(g2
g3
NtRp1305
(dp1306
g49
V10.1007/s00122-006-0499-4
p1307
sg45
VTHEOR APPL GENET
p1308
sg47
V114
p1309
sg80
(lp1310
(VPRESTERL
VT
tp1311
asg59
I2007
sg41
V1059
p1312
sbag1
(g2
g3
NtRp1313
(dp1314
g49
V10.1093/jexbot/53.371.989
p1315
sg45
VJ EXP BOT
p1316
sg47
V53
p1317
sg80
(lp1318
(VPRICE
VA H
tp1319
asg59
I2002
sg41
V989
p1320
sbag1
(g2
g3
NtRp1321
(dp1322
g49
V10.1093/jxb/48.6.1151
p1323
sg45
VJ EXP BOT
p1324
sg47
V48
p1325
sg80
(lp1326
(VPRIOUL
VJ L
tp1327
asg59
I1997
sg41
V1151
p1328
sbag1
(g2
g3
NtRp1329
(dp1330
g49
V10.1093/jexbot/50.337.1281
p1331
sg45
VJ EXP BOT
p1332
sg47
V50
p1333
sg80
(lp1334
(VPRIOUL
VJ L
tp1335
asg59
I1999
sg41
V1281
p1336
sbag1
(g2
g3
NtRp1337
(dp1338
g49
Nsg45
VMarker
p1339
sg47
Nsg80
(lp1340
(VRAGOT
VM
tp1341
asg59
I2007
sg41
V117
p1342
sbag1
(g2
g3
NtRp1343
(dp1344
g49
Nsg45
VGENOME
p1345
sg47
V48
p1346
sg80
(lp1347
(VRAMAN
VH
tp1348
asg59
I2005
sg41
V781
p1349
sbag1
(g2
g3
NtRp1350
(dp1351
g49
Nsg45
VCROP SCI
p1352
sg47
V42
p1353
sg80
(lp1354
(VREBETZKE
VG J
tp1355
asg59
I2002
sg41
V739
p1356
sbag1
(g2
g3
NtRp1357
(dp1358
g49
V10.1007/s00122-004-1736-3
p1359
sg45
VTHEOR APPL GENET
p1360
sg47
V109
p1361
sg80
(lp1362
(VREINHEIMER
VJ L
tp1363
asg59
I2004
sg41
V1267
p1364
sbag1
(g2
g3
NtRp1365
(dp1366
g49
V10.1038/ng1643
p1367
sg45
VNAT GENET
p1368
sg47
V37
p1369
sg80
(lp1370
(VREN
VZ H
tp1371
asg59
I2005
sg41
V1141
p1372
sbag1
(g2
g3
NtRp1373
(dp1374
g49
V10.1093/jxb/erj108
p1375
sg45
VJ EXP BOT
p1376
sg47
V57
p1377
sg80
(lp1378
(VRENGASAMY
VP
tp1379
asg59
I2006
sg41
V1017
p1380
sbag1
(g2
g3
NtRp1381
(dp1382
g49
V10.1104/pp.013839
p1383
sg45
VPLANT PHYSIOL
p1384
sg47
V131
p1385
sg80
(lp1386
(VREYMOND
VM
tp1387
asg59
I2003
sg41
VLANT
p1388
sbag1
(g2
g3
NtRp1389
(dp1390
g49
V10.1111/j.1365-3040.2005.01405.x
p1391
sg45
VPLANT CELL ENVIRON
p1392
sg47
V29
p1393
sg80
(lp1394
(VREYMOND
VM
tp1395
asg59
I2006
sg41
VLANT
p1396
sbag1
(g2
g3
NtRp1397
(dp1398
g49
V10.1016/j.pbi.2008.02.005
p1399
sg45
VCURR OPIN PLANT BIOL
p1400
sg47
V11
p1401
sg80
(lp1402
(VREYNOLDS
VM
tp1403
asg59
I2008
sg41
V171
p1404
sbag1
(g2
g3
NtRp1405
(dp1406
g49
Nsg45
VPHYSL BIOTECHNOLOGY
p1407
sg47
Nsg80
(lp1408
(VRIBAUT
VJ M
tp1409
asg59
I2004
sg41
VHYSL
p1410
sbag1
(g2
g3
NtRp1411
(dp1412
g49
V10.1093/jxb/erl214
p1413
sg45
VJ EXP BOT
p1414
sg47
V58
p1415
sg80
(lp1416
(VRIBAUT
VJ M
tp1417
asg59
I2007
sg41
V351
p1418
sbag1
(g2
g3
NtRp1419
(dp1420
g49
V10.1007/s11032-006-9041-2
p1421
sg45
VMOL BREEDING
p1422
sg47
V20
p1423
sg80
(lp1424
(VRIBAUT
VJ M
tp1425
asg59
I2007
sg41
V15
p1426
sbag1
(g2
g3
NtRp1427
(dp1428
g49
V10.1071/AR9890943
p1429
sg45
VAUST J AGR RES
p1430
sg47
V40
p1431
sg80
(lp1432
(VRICHARDS
VR A
tp1433
asg59
I1989
sg41
V943
p1434
sbag1
(g2
g3
NtRp1435
(dp1436
g49
V10.1073/pnas.0709453104
p1437
sg45
VP NATL ACAD SCI USA
p1438
sg47
V104
p1439
sg80
(lp1440
(VRIVERO
VR M
tp1441
asg59
I2007
sg41
V19631
p1442
sbag1
(g2
g3
NtRp1443
(dp1444
g49
V10.1016/S0022-5193(85)80161-2
p1445
sg45
VJ THEOR BIOL
p1446
sg47
V117
p1447
sg80
(lp1448
(VROBERTSON
VD S
tp1449
asg59
I1985
sg41
V1
sbag1
(g2
g3
NtRp1450
(dp1451
g49
V10.1093/jxb/erj068
p1452
sg45
VJ EXP BOT
p1453
sg47
V57
p1454
sg80
(lp1455
(VRODRIGUEZ-NAVARRO
VA
tp1456
asg59
I2006
sg41
V1149
p1457
sbag1
(g2
g3
NtRp1458
(dp1459
g49
V10.1371/journal.pgen.0020210
p1460
sg45
VPLOS GENET
p1461
sg47
V2
sg80
(lp1462
(VRUS
VA
tp1463
asg59
I2006
sg41
VLOS
p1464
sbag1
(g2
g3
NtRp1465
(dp1466
g49
V10.1111/j.1365-3040.2006.01611.x
p1467
sg45
VPLANT CELL ENVIRON
p1468
sg47
V30
p1469
sg80
(lp1470
(VSADOK
VW
tp1471
asg59
I2007
sg41
VLANT
p1472
sbag1
(g2
g3
NtRp1473
(dp1474
g49
Nsg45
VADV AGRON
p1475
sg47
V68
p1476
sg80
(lp1477
(VSAINI
VH S
tp1478
asg59
I2000
sg41
V59
p1479
sbag1
(g2
g3
NtRp1480
(dp1481
g49
Nsg45
VGENOMICS ASSISTED CR
p1482
sg47
V1
sg80
(lp1483
(VSALSE
VJ
tp1484
asg59
I2007
sg41
V177
p1485
sbag1
(g2
g3
NtRp1486
(dp1487
g49
V10.1073/pnas.0704145104
p1488
sg45
VP NATL ACAD SCI USA
p1489
sg47
V104
p1490
sg80
(lp1491
(VSALVI
VS
tp1492
asg59
I2007
sg41
V11376
p1493
sbag1
(g2
g3
NtRp1494
(dp1495
g49
V10.1016/j.tplants.2005.04.008
p1496
sg45
VTRENDS PLANT SCI
p1497
sg47
V10
p1498
sg80
(lp1499
(VSALVI
VS
tp1500
asg59
I2005
sg41
V297
p1501
sbag1
(g2
g3
NtRp1502
(dp1503
g49
V10.1111/j.1365-313X.2003.01991.x
p1504
sg45
VPLANT J
p1505
sg47
V37
p1506
sg80
(lp1507
(VSASAKI
VT
tp1508
asg59
I2004
sg41
VLANT
p1509
sbag1
(g2
g3
NtRp1510
(dp1511
g49
V10.1093/pcp/pcl002
p1512
sg45
VPLANT CELL PHYSIOL
p1513
sg47
V47
p1514
sg80
(lp1515
(VSASAKI
VT
tp1516
asg59
I2006
sg41
VLANT
p1517
sbag1
(g2
g3
NtRp1518
(dp1519
g49
V10.1007/s00122-007-0579-0
p1520
sg45
VTHEOR APPL GENET
p1521
sg47
V115
p1522
sg80
(lp1523
(VSCHNURBUSCH
VT
tp1524
asg59
I2007
sg41
V451
p1525
sbag1
(g2
g3
NtRp1526
(dp1527
g49
Nsg45
V5 INT CROP SCI C EXH
p1528
sg47
Nsg80
(lp1529
(VSEPTININGSIH
VE M
tp1530
asg59
I2008
sg41
V17
p1531
sbag1
(g2
g3
NtRp1532
(dp1533
g49
V10.1073/pnas.0511015103
p1534
sg45
VP NATL ACAD SCI USA
p1535
sg47
V103
p1536
sg80
(lp1537
(VSERGEEVA
VL I
tp1538
asg59
I2006
sg41
V2994
p1539
sbag1
(g2
g3
NtRp1540
(dp1541
g49
V10.1534/genetics.103.023358
p1542
sg45
VGENETICS
p1543
sg47
V168
p1544
sg80
(lp1545
(VSERVIN
VB
tp1546
asg59
I2004
sg41
V513
p1547
sbag1
(g2
g3
NtRp1548
(dp1549
g49
V10.1093/jhered/93.3.214
p1550
sg45
VJ HERED
p1551
sg47
V93
p1552
sg80
(lp1553
(VSERVIN
VB
tp1554
asg59
I2002
sg41
V214
p1555
sbag1
(g2
g3
NtRp1556
(dp1557
g49
V10.1007/s00122-004-1751-4
p1558
sg45
VTHEOR APPL GENET
p1559
sg47
V109
p1560
sg80
(lp1561
(VSHIMIZU
VA
tp1562
asg59
I2004
sg41
V1361
p1563
sbag1
(g2
g3
NtRp1564
(dp1565
g49
V10.1093/jxb/erl164
p1566
sg45
VJ EXP BOT
p1567
sg47
V58
p1568
sg80
(lp1569
(VSHINOZAKI
VK
tp1570
asg59
I2007
sg41
V221
p1571
sbag1
(g2
g3
NtRp1572
(dp1573
g49
V10.1016/S1369-5266(00)00067-4
p1574
sg45
VCURR OPIN PLANT BIOL
p1575
sg47
V3
sg80
(lp1576
(VSHINOZAKI
VK
tp1577
asg59
I2000
sg41
V217
p1578
sbag1
(g2
g3
NtRp1579
(dp1580
g49
V10.1007/s00122-007-0540-2
p1581
sg45
VTHEOR APPL GENET
p1582
sg47
V115
p1583
sg80
(lp1584
(VSPIELMEYER
VW
tp1585
asg59
I2007
sg41
V59
p1586
sbag1
(g2
g3
NtRp1587
(dp1588
g49
V10.1016/j.fcr.2006.11.002
p1589
sg45
VFIELD CROP RES
p1590
sg47
V101
p1591
sg80
(lp1592
(VSTEELE
VK A
tp1593
asg59
I2007
sg41
V180
p1594
sbag1
(g2
g3
NtRp1595
(dp1596
g49
V10.1007/s00122-005-0110-4
p1597
sg45
VTHEOR APPL GENET
p1598
sg47
V112
p1599
sg80
(lp1600
(VSTEELE
VK A
tp1601
asg59
I2006
sg41
V208
p1602
sbag1
(g2
g3
NtRp1603
(dp1604
g49
V10.1007/s11104-005-3771-5
p1605
sg45
VPLANT SOIL
p1606
sg47
V281
p1607
sg80
(lp1608
(VSU
VJ Y
tp1609
asg59
I2006
sg41
VLANT
p1610
sbag1
(g2
g3
NtRp1611
(dp1612
g49
V10.1016/j.tplants.2007.05.001
p1613
sg45
VTRENDS PLANT SCI
p1614
sg47
V12
p1615
sg80
(lp1616
(VSUNKAR
VR
tp1617
asg59
I2007
sg41
V301
p1618
sbag1
(g2
g3
NtRp1619
(dp1620
g49
V10.1126/science.1146853
p1621
sg45
VSCIENCE
p1622
sg47
V318
p1623
sg80
(lp1624
(VSUTTON
VT
tp1625
asg59
I2007
sg41
V1446
p1626
sbag1
(g2
g3
NtRp1627
(dp1628
g49
V10.1073/pnas.111136798
p1629
sg45
VP NATL ACAD SCI USA
p1630
sg47
V98
p1631
sg80
(lp1632
(VTAKAHASHI
VY
tp1633
asg59
I2001
sg41
V7922
p1634
sbag1
(g2
g3
NtRp1635
(dp1636
g49
V10.1105/tpc.106.041640
p1637
sg45
VPLANT CELL
p1638
sg47
V18
p1639
sg80
(lp1640
(VTAKANO
VJ
tp1641
asg59
I2006
sg41
VLANT
p1642
sbag1
(g2
g3
NtRp1643
(dp1644
g49
V10.1126/science.277.5329.1063
p1645
sg45
VSCIENCE
p1646
sg47
V277
p1647
sg80
(lp1648
(VTANKSLEY
VS D
tp1649
asg59
I1997
sg41
V1063
p1650
sbag1
(g2
g3
NtRp1651
(dp1652
g49
V10.1007/BF00223376
p1653
sg45
VTHEOR APPL GENET
p1654
sg47
V92
p1655
sg80
(lp1656
(VTANKSLEY
VS D
tp1657
asg59
I1996
sg41
V191
p1658
sbag1
(g2
g3
NtRp1659
(dp1660
g49
V10.1093/jexbot/49.suppl_1.419
p1661
sg45
VJ EXP BOT
p1662
sg47
V49
p1663
sg80
(lp1664
(VTARDIEU
VF
tp1665
asg59
I1998
sg41
V419
p1666
sbag1
(g2
g3
NtRp1667
(dp1668
g49
V10.1016/S1360-1385(02)00008-0
p1669
sg45
VTRENDS PLANT SCI
p1670
sg47
V8
sg80
(lp1671
(VTARDIEU
VF
tp1672
asg59
I2003
sg41
V9
sbag1
(g2
g3
NtRp1673
(dp1674
g49
V10.1111/j.1365-3040.1992.tb01473.x
p1675
sg45
VPLANT CELL ENVIRON
p1676
sg47
V15
p1677
sg80
(lp1678
(VTARDIEU
VF
tp1679
asg59
I1992
sg41
VLANT
p1680
sbag1
(g2
g3
NtRp1681
(dp1682
g49
V10.1007/s00122-002-1028-8
p1683
sg45
VTHEOR APPL GENET
p1684
sg47
V106
p1685
sg80
(lp1686
(VTEULAT
VB
tp1687
asg59
I2002
sg41
V118
p1688
sbag1
(g2
g3
NtRp1689
(dp1690
g49
Nsg45
VGENOMICS ASSISTED CR
p1691
sg47
Nsg80
(lp1692
(VTILL
VB J
tp1693
asg59
I2007
sg41
V333
p1694
sbag1
(g2
g3
NtRp1695
(dp1696
g49
V10.1626/pps.8.330
p1697
sg45
VPLANT PROD SCI
p1698
sg47
V8
sg80
(lp1699
(VTOOJINDA
VT
tp1700
asg59
I2005
sg41
VLANT
p1701
sbag1
(g2
g3
NtRp1702
(dp1703
g49
V10.1101/gr.6984908
p1704
sg45
VGENOME RES
p1705
sg47
V18
p1706
sg80
(lp1707
(VTORRES
VT T
tp1708
asg59
I2008
sg41
V172
p1709
sbag1
(g2
g3
NtRp1710
(dp1711
g49
V10.1093/aob/mcf134
p1712
sg45
VANN BOT
p1713
sg47
V89
p1714
sg80
(lp1715
(VTUBEROSA
VR
tp1716
asg59
I2002
sg41
V941
p1717
sbag1
(g2
g3
NtRp1718
(dp1719
g49
V10.1111/j.1744-7348.2007.00127.x
p1720
sg45
VANN APPL BIOL
p1721
sg47
V150
p1722
sg80
(lp1723
(VTUBEROSA
VR
tp1724
asg59
I2007
sg41
V157
p1725
sbag1
(g2
g3
NtRp1726
(dp1727
g49
V10.1007/s001220050951
p1728
sg45
VTHEOR APPL GENET
p1729
sg47
V97
p1730
sg80
(lp1731
(VTUBEROSA
VR
tp1732
asg59
I1998
sg41
V744
p1733
sbag1
(g2
g3
NtRp1734
(dp1735
g49
V10.1023/A:1026146615248
p1736
sg45
VPLANT SOIL
p1737
sg47
V255
p1738
sg80
(lp1739
(VTUBEROSA
VR
tp1740
asg59
I2003
sg41
VLANT
p1741
sbag1
(g2
g3
NtRp1742
(dp1743
g49
V10.1016/j.tplants.2006.06.003
p1744
sg45
VTRENDS PLANT SCI
p1745
sg47
V11
p1746
sg80
(lp1747
(VTUBEROSA
VR
tp1748
asg59
I2006
sg41
V405
p1749
sbag1
(g2
g3
NtRp1750
(dp1751
g49
V10.1007/s00122-005-0204-z
p1752
sg45
VTHEOR APPL GENET
p1753
sg47
V112
p1754
sg80
(lp1755
(VVARGAS
VM
tp1756
asg59
I2006
sg41
V1009
p1757
sbag1
(g2
g3
NtRp1758
(dp1759
g49
Nsg45
VGENOMICS ASSISTED CR
p1760
sg47
VI
sg80
(lp1761
(VVARSHNEY
VR K
tp1762
asg59
I2007
sg41
V1
sbag1
(g2
g3
NtRp1763
(dp1764
g49
V10.1111/j.1467-7652.2007.00239.x
p1765
sg45
VPLANT BIOTECHNOL J
p1766
sg47
V5
sg80
(lp1767
(VVIJ
VS
tp1768
asg59
I2007
sg41
VLANT
p1769
sbag1
(g2
g3
NtRp1770
(dp1771
g49
Nsg45
VGENETICS
p1772
sg47
V153
p1773
sg80
(lp1774
(VVLADUTU
VC
tp1775
asg59
I1999
sg41
V993
p1776
sbag1
(g2
g3
NtRp1777
(dp1778
g49
V10.1017/S0016672306008408
p1779
sg45
VGENET RES
p1780
sg47
V88
p1781
sg80
(lp1782
(VWANG
VJ K
tp1783
asg59
I2006
sg41
V93
p1784
sbag1
(g2
g3
NtRp1785
(dp1786
g49
V10.1007/s00122-007-0562-9
p1787
sg45
VTHEOR APPL GENET
p1788
sg47
V115
p1789
sg80
(lp1790
(VWANG
VJ P
tp1791
asg59
I2007
sg41
V265
p1792
sbag1
(g2
g3
NtRp1793
(dp1794
g49
V10.1093/jxb/erl227
p1795
sg45
VJ EXP BOT
p1796
sg47
V58
p1797
sg80
(lp1798
(VWELCKER
VC
tp1799
asg59
I2007
sg41
V339
p1800
sbag1
(g2
g3
NtRp1801
(dp1802
g49
V10.1007/s00122-005-0114-0
p1803
sg45
VTHEOR APPL GENET
p1804
sg47
V112
p1805
sg80
(lp1806
(VWIGHT
VC P
tp1807
asg59
I2006
sg41
V222
p1808
sbag1
(g2
g3
NtRp1809
(dp1810
g49
V10.1007/s00122-002-1051-9
p1811
sg45
VTHEOR APPL GENET
p1812
sg47
V105
p1813
sg80
(lp1814
(VWISSUWA
VM
tp1815
asg59
I2002
sg41
V890
p1816
sbag1
(g2
g3
NtRp1817
(dp1818
g49
V10.1093/jxb/eri189
p1819
sg45
VJ EXP BOT
p1820
sg47
V56
p1821
sg80
(lp1822
(VWISSUWA
VM
tp1823
asg59
I2005
sg41
V1943
p1824
sbag1
(g2
g3
NtRp1825
(dp1826
g49
V10.1046/j.1365-3040.2000.00611.x
p1827
sg45
VPLANT CELL ENVIRON
p1828
sg47
V23
p1829
sg80
(lp1830
(VXIN
VZ
tp1831
asg59
I2000
sg41
VLANT
p1832
sbag1
(g2
g3
NtRp1833
(dp1834
g49
V10.1007/s11032-006-9050-1
p1835
sg45
VMOL BREEDING
p1836
sg47
V19
p1837
sg80
(lp1838
(VXIONG
VY W
tp1839
asg59
I2007
sg41
V125
p1840
sbag1
(g2
g3
NtRp1841
(dp1842
g49
V10.1046/j.1439-0523.2001.00583.x
p1843
sg45
VPLANT BREEDING
p1844
sg47
V120
p1845
sg80
(lp1846
(VXU
VF S
tp1847
asg59
I2001
sg41
VLANT
p1848
sbag1
(g2
g3
NtRp1849
(dp1850
g49
V10.1038/nature04920
p1851
sg45
VNATURE
p1852
sg47
V442
p1853
sg80
(lp1854
(VXU
VK
tp1855
asg59
I2006
sg41
V705
p1856
sbag1
(g2
g3
NtRp1857
(dp1858
g49
V10.2135/cropsci2007.04.0191
p1859
sg45
VCROP SCI
p1860
sg47
V48
p1861
sg80
(lp1862
(VXU
VY B
tp1863
asg59
I2008
sg41
V391
p1864
sbag1
(g2
g3
NtRp1865
(dp1866
g49
V10.1007/s00425-007-0613-0
p1867
sg45
VPLANTA
p1868
sg47
V227
p1869
sg80
(lp1870
(VXUE
VY
tp1871
asg59
I2007
sg41
VLANTA
p1872
sbag1
(g2
g3
NtRp1873
(dp1874
g49
V10.1007/s11104-005-0693-1
p1875
sg45
VPLANT SOIL
p1876
sg47
V265
p1877
sg80
(lp1878
(VYAN
VX L
tp1879
asg59
I2004
sg41
VLANT
p1880
sbag1
(g2
g3
NtRp1881
(dp1882
g49
V10.1023/A:1016350509689
p1883
sg45
VEUPHYTICA
p1884
sg47
V126
p1885
sg80
(lp1886
(VYANG
VJ
tp1887
asg59
I2002
sg41
V275
p1888
sbag1
(g2
g3
NtRp1889
(dp1890
g49
V10.1007/s00425-006-0380-3
p1891
sg45
VPLANTA
p1892
sg47
V225
p1893
sg80
(lp1894
(VYANG
VX H
tp1895
asg59
I2007
sg41
VLANTA
p1896
sbag1
(g2
g3
NtRp1897
(dp1898
g49
V10.1105/tpc.12.12.2473
p1899
sg45
VPLANT CELL
p1900
sg47
V12
p1901
sg80
(lp1902
(VYANO
VM
tp1903
asg59
I2000
sg41
VLANT
p1904
sbag1
(g2
g3
NtRp1905
(dp1906
g49
V10.1016/j.tplants.2004.07.007
p1907
sg45
VTRENDS PLANT SCI
p1908
sg47
V9
sg80
(lp1909
(VYIN
VX Y
tp1910
asg59
I2004
sg41
V426
p1911
sbag1
(g2
g3
NtRp1912
(dp1913
g49
V10.1093/jxb/eri090
p1914
sg45
VJ EXP BOT
p1915
sg47
V56
p1916
sg80
(lp1917
(VYIN
VX Y
tp1918
asg59
I2005
sg41
V967
p1919
sbag1
(g2
g3
NtRp1920
(dp1921
g49
V10.1534/genetics.107.074245
p1922
sg45
VGENETICS
p1923
sg47
V178
p1924
sg80
(lp1925
(VYU
VJ M
tp1926
asg59
I2008
sg41
V539
p1927
sbag1
(g2
g3
NtRp1928
(dp1929
g49
V10.1534/genetics.105.045062
p1930
sg45
VGENETICS
p1931
sg47
V172
p1932
sg80
(lp1933
(VYUE
VB
tp1934
asg59
I2006
sg41
V1213
p1935
sbag1
(g2
g3
NtRp1936
(dp1937
g49
V10.1111/j.1365-3040.2007.01745.x
p1938
sg45
VPLANT CELL ENVIRON
p1939
sg47
V31
p1940
sg80
(lp1941
(VZENG
VC Y
tp1942
asg59
I2008
sg41
VLANT
p1943
sbag1
(g2
g3
NtRp1944
(dp1945
g49
V10.1007/s11104-004-1697-y
p1946
sg45
VPLANT SOIL
p1947
sg47
V270
p1948
sg80
(lp1949
(VZHU
VJ M
tp1950
asg59
I2005
sg41
VLANT
p1951
sbag1
(g2
g3
NtRp1952
(dp1953
g49
V10.1104/pp.107.107250
p1954
sg45
VPLANT PHYSIOL
p1955
sg47
V145
p1956
sg80
(lp1957
(VZHU
VJ M
tp1958
asg59
I2007
sg41
VLANT
p1959
sbag1
(g2
g3
NtRp1960
(dp1961
g49
V10.1007/s00122-006-0260-z
p1962
sg45
VTHEOR APPL GENET
p1963
sg47
V113
p1964
sg80
(lp1965
(VZHU
VJ M
tp1966
asg59
I2006
sg41
V1
sbag1
(g2
g3
NtRp1967
(dp1968
g49
V10.1104/pp.121.1.25
p1969
sg45
VPLANT PHYSIOL
p1970
sg47
V121
p1971
sg80
(lp1972
(VZINSELMEIER
VC
tp1973
asg59
I1999
sg41
VLANT
p1974
sbag1
(g2
g3
NtRp1975
(dp1976
g49
V10.1016/S0378-4290(02)00021-7
p1977
sg45
VFIELD CROP RES
p1978
sg47
V75
p1979
sg80
(lp1980
(VZINSELMEIER
VC
tp1981
asg59
I2002
sg41
V111
p1982
sbag1
(g2
g3
NtRp1983
(dp1984
g49
V10.1071/AR05177
p1985
sg45
VAUST J AGR RES
p1986
sg47
V57
p1987
sg80
(lp1988
(VZWART
VR S
tp1989
asg59
I2006
sg41
V525
p1990
sbasb.