ccopy_reg
_reconstructor
p1
(ctethne.classes.paper
Paper
p2
c__builtin__
object
p3
NtRp4
(dp5
S'publisherCity'
p6
VROCKVILLE
p7
sS'reprintAddress'
p8
VMinorsky, PV (reprint author), Mercy Coll, Div Nat Sci, Dobbs Ferry, NY 10522 USA.
p9
sS'WC'
p10
VPlant Sciences
p11
sS'GA'
p12
V081QF
p13
sS'pageEnd'
p14
I44
sS'publisherAddress'
p15
V15501 MONONA DRIVE, ROCKVILLE, MD 20855 USA
p16
sS'documentType'
p17
VArticle
p18
sS'subject'
p19
VPlant Sciences
p20
sS'isoSource'
p21
VPlant Physiol.
p22
sS'timesCited'
p23
(lp24
I4
aVZ9 4
p25
asS'PT'
p26
VJ
sS'title'
p27
VNatural Experiments Indicate That Geomagnetic Variations Cause Spatial And Temporal Variations In Coconut Palm Asymmetry
p28
sS'ISSN'
p29
(lp30
V0032-0889
p31
aVJ9 PLANT PHYSIOL
p32
asS'authors_full'
p33
(lp34
(VMINORSKY
VPETER V
tp35
a(VBRONSTEIN
VNATALIE B
tp36
asS'PG'
p37
I5
sS'PD'
p38
VSEP
p39
sS'pageStart'
p40
I40
sS'issue'
p41
I1
sS'journal'
p42
VPLANT PHYSIOLOGY
p43
sS'volume'
p44
V142
p45
sS'doi'
p46
V10.1104/pp.106.086835
p47
sS'emailAddress'
p48
Vpminorsky@mercy.edu
p49
sS'authorAddress'
p50
VMercy Coll, Div Nat Sci, Dobbs Ferry, NY 10522 USA.
p51
sS'date'
p52
I2006
sS'ER'
p53
V
sS'publisher'
p54
VAMER SOC PLANT BIOLOGISTS
p55
sS'authorKeywords'
p56
(lp57
VMAGNETIC-FIELDS
p58
aVNON-INHERITANCE
p59
aVFREQUENCY
p60
aVPLANTS
p61
aVTRANSPORT
p62
aVDIRECTION
p63
aVAUXIN
p64
aVCELLS
p65
asS'language'
p66
VEnglish
p67
sS'wosid'
p68
VWOS:000240331400006
p69
sS'citationCount'
p70
I31
sS'authors_init'
p71
(lp72
(VMINORSKY
VP V
tp73
a(VBRONSTEIN
VN B
tp74
asS'citedReferences'
p75
(lp76
g1
(g2
g3
NtRp77
(dp78
g46
V10.1006/bbrc.1996.0751
p79
sg42
VBIOCHEM BIOPH RES CO
p80
sg44
V222
p81
sg71
(lp82
(VBALCAVAGE
VW X
tp83
asg52
I1996
sg40
V374
p84
sbag1
(g2
g3
NtRp85
(dp86
g46
V10.1016/0273-1177(92)90284-5
p87
sg42
VADV SPACE RES
p88
sg44
V12
p89
sg71
(lp90
(VBANDURSKI
VR S
tp91
asg52
I1992
sg40
V203
p92
sbag1
(g2
g3
NtRp93
(dp94
g46
Nsg42
VBIOFIZIKA
p95
sg44
V46
p96
sg71
(lp97
(VBELOVA
VN A
tp98
asg52
I2001
sg40
V122
p99
sbag1
(g2
g3
NtRp100
(dp101
g46
V10.1016/j.asr.2004.01.021
p102
sg42
VADV SPACE RES
p103
sg44
V34
p104
sg71
(lp105
(VBELYAVSKAYA
VN A
tp106
asg52
I2004
sg40
V1566
p107
sbag1
(g2
g3
NtRp108
(dp109
g46
Nsg42
VORNAMENTAL PALM HORT
p110
sg44
Nsg71
(lp111
(VMEEROW
VA W
tp112
asg52
I2000
sg40
Nsbag1
(g2
g3
NtRp113
(dp114
g46
V10.1007/BF02986139
p115
sg42
VJournal of Genetics
p116
sg44
V58
p117
sg71
(lp118
(VDAVIS
VT A
tp119
asg52
I1963
sg40
V186
p120
sbag1
(g2
g3
NtRp121
(dp122
g46
Nsg42
VMATH MODELLING
p123
sg44
V8
sg71
(lp124
(VDAVIS
VT A
tp125
asg52
I1987
sg40
V730
p126
sbag1
(g2
g3
NtRp127
(dp128
g46
V10.1007/BF02986118
p129
sg42
VJ GENET
p130
sg44
V58
p131
sg71
(lp132
(VDAVIS
VT A
tp133
asg52
I1962
sg40
V42
p134
sbag1
(g2
g3
NtRp135
(dp136
g46
Nsg42
VT AM GEOPHYS UNION
p137
sg44
V45
p138
sg71
(lp139
(VELVERS
VD
tp140
asg52
I1964
sg40
V46
p141
sbag1
(g2
g3
NtRp142
(dp143
g46
V10.1038/271641a0
p144
sg42
VNATURE
p145
sg44
V271
p146
sg71
(lp147
(VFRASERSMITH
VA C
tp148
asg52
I1978
sg40
V641
p149
sbag1
(g2
g3
NtRp150
(dp151
g46
V10.1007/s10265-005-0246-y
p152
sg42
VJ PLANT RES
p153
sg44
V118
p154
sg71
(lp155
(VGALLAND
VP
tp156
asg52
I2005
sg40
V371
p157
sbag1
(g2
g3
NtRp158
(dp159
g46
Nsg42
VJ GEOMAGN GEOELECTR
p160
sg44
V23
p161
sg71
(lp162
(VHONKURA
VY
tp163
asg52
I1972
sg40
V307
p164
sbag1
(g2
g3
NtRp165
(dp166
g46
Nsg42
VDESCR COC
p167
sg44
Nsg71
(lp168
(VIPGRI
S''
tp169
asg52
I1995
sg40
Nsbag1
(g2
g3
NtRp170
(dp171
g46
Nsg42
VGEOMAGNETIC TIME VAR
p172
sg44
Nsg71
(lp173
(VKLEIN
VD P
tp174
asg52
I1972
sg40
Nsbag1
(g2
g3
NtRp175
(dp176
g46
V10.1002/bem.10136
p177
sg42
VBIOELECTROMAGNETICS
p178
sg44
V24
p179
sg71
(lp180
(VKOCH
VCLMB
tp181
asg52
I2003
sg40
V395
p182
sbag1
(g2
g3
NtRp183
(dp184
g46
Nsg42
VCeylon Coconut Quarterly
p185
sg44
V27
p186
sg71
(lp187
(VLOUIS
VH I
tp188
asg52
I1976
sg40
V22
p189
sbag1
(g2
g3
NtRp190
(dp191
g46
V10.1093/jxb/43.4.449
p192
sg42
VJ EXP BOT
p193
sg44
V43
p194
sg71
(lp195
(VMINA
VM G
tp196
asg52
I1992
sg40
V449
p197
sbag1
(g2
g3
NtRp198
(dp199
g46
V10.1006/anbo.1998.0651
p200
sg42
VANN BOT
p201
sg44
V82
p202
sg71
(lp203
(VMINORSKY
VP V
tp204
asg52
I1998
sg40
V133
p205
sbag1
(g2
g3
NtRp206
(dp207
g46
V10.1104/pp.126.3.928
p208
sg42
VPLANT PHYSIOL
p209
sg44
V126
p210
sg71
(lp211
(VMINORSKY
VP V
tp212
asg52
I2001
sg40
VLANT
p213
sbag1
(g2
g3
NtRp214
(dp215
g46
V10.1007/BF00390181
p216
sg42
VPLANTA
p217
sg44
V150
p218
sg71
(lp219
(VMORRIS
VD A
tp220
asg52
I1980
sg40
VLANTA
p221
sbag1
(g2
g3
NtRp222
(dp223
g46
V10.1023/A:1024729008858
p224
sg42
VRUSS J PLANT PHYSL
p225
sg44
V50
p226
sg71
(lp227
(VNANUSH'YAN
VE R
tp228
asg52
I2003
sg40
V522
p229
sbag1
(g2
g3
NtRp230
(dp231
g46
V10.1016/B978-012088777-4/50018-1
p232
sg42
VP359
p233
sg44
Nsg71
(lp234
(VPALMER
VA RICHARD
tp235
asg52
I2005
sg40
V359
p236
sbag1
(g2
g3
NtRp237
(dp238
g46
V10.1186/1477-044X-4-1
p239
sg42
VBiomagn Res Technol
p240
sg44
V4
sg71
(lp241
(VPAZUR
VALEXANDER
tp242
asg52
I2006
sg40
V1
sbag1
(g2
g3
NtRp243
(dp244
g46
Nsg42
VGEOFISICA INT
p245
sg44
V36
p246
sg71
(lp247
(VPEREZ-PERAZA
VJ
tp248
asg52
I1997
sg40
V245
p249
sbag1
(g2
g3
NtRp250
(dp251
g46
V10.1038/nature02081
p252
sg42
VNATURE
p253
sg44
V426
p254
sg71
(lp255
(VREINHARDT
VD
tp256
asg52
I2003
sg40
V255
p257
sbag1
(g2
g3
NtRp258
(dp259
g46
Nsg42
VB EARTHQ RES I TOKYO
p260
sg44
V45
p261
sg71
(lp262
(VSASAI
VY
tp263
asg52
I1967
sg40
V137
p264
sbag1
(g2
g3
NtRp265
(dp266
g46
Nsg42
VDOKLADY BOTANICAL SC
p267
sg44
V206
p268
sg71
(lp269
(VSEMENENKO
VA D
tp270
asg52
I1972
sg40
V124
p271
sbag1
(g2
g3
NtRp272
(dp273
g46
Nsg42
VBIOSIMMETRICHESKIE B
p274
sg44
Nsg71
(lp275
(VSULIMA
VY G
tp276
asg52
I1970
sg40
Nsbag1
(g2
g3
NtRp277
(dp278
g46
V10.1007/BF01953208
p279
sg42
VEXPERIENTIA
p280
sg44
V35
p281
sg71
(lp282
(VTOAR
VR E
tp283
asg52
I1979
sg40
V1585
p284
sbag1
(g2
g3
NtRp285
(dp286
g46
V10.1039/b212636b
p287
sg42
VPHOTOCH PHOTOBIO SCI
p288
sg44
V2
sg71
(lp289
(VVOLPE
VP
tp290
asg52
I2003
sg40
VHOTOCH
p291
sbag1
(g2
g3
NtRp292
(dp293
g46
Nsg42
VJ GEOMAGN GEOELECTR
p294
sg44
V44
p295
sg71
(lp296
(VYAMAGUCHI
VS
tp297
asg52
I1992
sg40
V43
p298
sbasb.