ccopy_reg
_reconstructor
p1
(ctethne.classes.paper
Paper
p2
c__builtin__
object
p3
NtRp4
(dp5
S'publisherCity'
p6
VROCKVILLE
p7
sS'reprintAddress'
p8
VKochian, LV (reprint author), Cornell Univ, USDA ARS, US Plant Soil & Nutr Lab, Ithaca, NY 14853 USA.
p9
sS'WC'
p10
VPlant Sciences
p11
sS'GA'
p12
V891XA
p13
sS'abstract'
p14
VRoot apical aluminum (Al) exclusion via Al-activated root citrate exudation is widely accepted as the main Al-resistance mechanism operating in maize (Zea mays) roots. Nonetheless, the correlation between Al resistance and this Al-exclusion mechanism has not been tested beyond a very small number of Al-resistant and Al-sensitive maize lines. In this study, we conducted a comparative study of the physiology of Al resistance using six different maize genotypes that capture the range of maize Al resistance and differ significantly in their genetic background (three Brazilian and three North American genotypes). In these maize lines, we were able to establish a clear correlation between root tip Al exclusion (based on root Al content) and Al resistance. Both Al-resistant genotypes and three of the four Al-sensitive lines exhibited a significant Al-activated citrate exudation, with no evidence for Al activation of root malate or phosphate release. There was a lack of correlation between differential Al resistance and root citrate exudation for the six maize genotypes; in fact, one of the Al-sensitive lines, Mo17, had the largest Al-activated citrate exudation of all of the maize lines. Our results indicate that although root organic acid release may play a role in maize Al resistance, it. is clearly not the only or the main resistance mechanism operating in these maize roots. A number of other potential Al-resistance mechanisms were investigated, including release of other Al-chelating ligands, Al-induced alkalinization of rhizosphere pH, changes in internal levels of Al-chelating compounds in the root, and Al translocation to the shoot. However, we were unsuccessful in identifying additional Al-resistance mechanisms in maize. It is likely that a purely physiological approach may not be sufficient to identify these novel Al-resistance mechanisms in maize and this will require an interdisciplinary approach integrating genetic, molecular, and physiological investigations.
p15
sS'pageEnd'
p16
I241
sS'publisherAddress'
p17
V15501 MONONA DRIVE, ROCKVILLE, MD 20855 USA
p18
sS'documentType'
p19
VArticle
p20
sS'subject'
p21
VPlant Sciences
p22
sS'isoSource'
p23
VPlant Physiol.
p24
sS'timesCited'
p25
(lp26
I74
aVZ9 84
p27
asS'PT'
p28
VJ
sS'title'
p29
VAluminum Resistance In Maize Cannot Be Solely Explained By Root Organic Acid Exudation. A Comparative Physiological Study
p30
sS'ISSN'
p31
(lp32
V0032-0889
p33
aVJ9 PLANT PHYSIOL
p34
asS'authors_full'
p35
(lp36
(VPINEROS
VMA
tp37
a(VSHAFF
VJE
tp38
a(VMANSLANK
VHS
tp39
a(VALVES
VVMC
tp40
a(VKOCHIAN
VLV
tp41
asS'PG'
p42
I11
sS'PD'
p43
VJAN
p44
sS'pageStart'
p45
I231
sS'issue'
p46
I1
sS'journal'
p47
VPLANT PHYSIOLOGY
p48
sS'volume'
p49
V137
p50
sS'doi'
p51
V10.1104/pp.104.047357
p52
sS'emailAddress'
p53
Vlvk1@cornell.edu
p54
sS'authorAddress'
p55
(lp56
VCornell Univ, USDA ARS, US Plant Soil & Nutr Lab, Ithaca, NY 14853 USA.
p57
aVEmpresa Brasileira Pesquisa Agropecuaria Maize, BR-35701970 Sete Lagoas, Brazil.
p58
aVSorghum Res Ctr, BR-35701970 Sete Lagoas, Brazil.
p59
asS'date'
p60
I2005
sS'ER'
p61
V
sS'publisher'
p62
VAMER SOC PLANT BIOLOGISTS
p63
sS'authorKeywords'
p64
(lp65
VTRITICUM-AESTIVUM L
p66
aVZEA-MAYS L.
p67
aVWHEAT ROOTS
p68
aVINTERNAL DETOXIFICATION
p69
aVTROPICAL MAIZE
p70
aVANION CHANNEL
p71
aVHIGHER-PLANTS
p72
aVAPICAL CELLS
p73
aVTOLERANCE
p74
aVMECHANISMS
p75
asS'language'
p76
VEnglish
p77
sS'wosid'
p78
VWOS:000226613100021
p79
sS'citationCount'
p80
I42
sS'authors_init'
p81
(lp82
(VPINEROS
VM A
tp83
a(VSHAFF
VJ E
tp84
a(VMANSLANK
VH S
tp85
a(VALVES
VV M C
tp86
a(VKOCHIAN
VL V
tp87
asS'citedReferences'
p88
(lp89
g1
(g2
g3
NtRp90
(dp91
g51
V10.1016/S0098-8472(02)00013-8
p92
sg47
VENVIRON EXP BOT
p93
sg49
V48
p94
sg81
(lp95
(VBARCELO
VJ
tp96
asg60
I2002
sg45
V75
p97
sbag1
(g2
g3
NtRp98
(dp99
g51
V10.1007/s001220051293
p100
sg47
VTHEOR APPL GENET
p101
sg49
V99
p102
sg81
(lp103
(VCANCADO
VG M A
tp104
asg60
I1999
sg45
V747
p105
sbag1
(g2
g3
NtRp106
(dp107
g51
V10.1104/pp.117.1.19
p108
sg47
VPLANT PHYSIOL
p109
sg49
V117
p110
sg81
(lp111
(VDEGENHARDT
VJ
tp112
asg60
I1998
sg45
VLANT
p113
sbag1
(g2
g3
NtRp114
(dp115
g51
Nsg47
VPLANT PHYSIOL
p116
sg49
V103
p117
sg81
(lp118
(VDELHAIZE
VE
tp119
asg60
I1993
sg45
VLANT
p120
sbag1
(g2
g3
NtRp121
(dp122
g51
Nsg47
VPLANT PHYSIOL
p123
sg49
V103
p124
sg81
(lp125
(VDELHAIZE
VE
tp126
asg60
I1993
sg45
VLANT
p127
sbag1
(g2
g3
NtRp128
(dp129
g51
Nsg47
VSOIL SCI PLANT NUTR
p130
sg49
V46
p131
sg81
(lp132
(VISHIKAWA
VS
tp133
asg60
I2000
sg45
V751
p134
sbag1
(g2
g3
NtRp135
(dp136
g51
V10.1016/S0031-9422(97)00044-7
p137
sg47
VPHYTOCHEMISTRY
p138
sg49
V45
p139
sg81
(lp140
(VJORGE
VR A
tp141
asg60
I1997
sg45
VHYTOCHEMISTRY
p142
sbag1
(g2
g3
NtRp143
(dp144
g51
V10.1093/jexbot/52.359.1339
p145
sg47
VJ EXP BOT
p146
sg49
V52
p147
sg81
(lp148
(VKIDD
VP S
tp149
asg60
I2001
sg45
V1339
p150
sbag1
(g2
g3
NtRp151
(dp152
g51
V10.1146/annurev.arplant.46.1.237
p153
sg47
VANNU REV PLANT PHYS
p154
sg49
V46
p155
sg81
(lp156
(VKOCHIAN
VL V
tp157
asg60
I1995
sg45
V237
p158
sbag1
(g2
g3
NtRp159
(dp160
g51
V10.1104/pp.91.3.1202
p161
sg47
VPLANT PHYSIOL
p162
sg49
V91
p163
sg81
(lp164
(VKOCHIAN
VL V
tp165
asg60
I1989
sg45
VLANT
p166
sbag1
(g2
g3
NtRp167
(dp168
g51
V10.1146/annurev.arplant.55.031903.141655
p169
sg47
VANNU REV PLANT BIOL
p170
sg49
V55
p171
sg81
(lp172
(VKOCHIAN
VL V
tp173
asg60
I2004
sg45
V459
p174
sbag1
(g2
g3
NtRp175
(dp176
g51
Nsg47
VIN PRESS ROOT PHYSL
p177
sg49
Nsg81
(lp178
(VKOCHIAN
VL V
tp179
asg60
I2005
sg45
Nsbag1
(g2
g3
NtRp180
(dp181
g51
V10.1104/pp.126.1.397
p182
sg47
VPLANT PHYSIOL
p183
sg49
V126
p184
sg81
(lp185
(VKOLLMEIER
VM
tp186
asg60
I2001
sg45
VLANT
p187
sbag1
(g2
g3
NtRp188
(dp189
g51
V10.1104/pp.123.4.1537
p190
sg47
VPLANT PHYSIOL
p191
sg49
V123
p192
sg81
(lp193
(VLI
VX F
tp194
asg60
I2000
sg45
VLANT
p195
sbag1
(g2
g3
NtRp196
(dp197
g51
V10.1007/s004250000292
p198
sg47
VPLANTA
p199
sg49
V211
p200
sg81
(lp201
(VMA
VJ F
tp202
asg60
I2000
sg45
VLANTA
p203
sbag1
(g2
g3
NtRp204
(dp205
g51
V10.1104/pp.117.3.753
p206
sg47
VPLANT PHYSIOL
p207
sg49
V117
p208
sg81
(lp209
(VMA
VJ F
tp210
asg60
I1998
sg45
VLANT
p211
sbag1
(g2
g3
NtRp212
(dp213
g51
V10.1016/S1360-1385(01)01961-6
p214
sg47
VTRENDS PLANT SCI
p215
sg49
V6
sg81
(lp216
(VMA
VJ F
tp217
asg60
I2001
sg45
V273
p218
sbag1
(g2
g3
NtRp219
(dp220
g51
Nsg47
VPLANT PHYSIOL
p221
sg49
V113
p222
sg81
(lp223
(VMA
VJ F
tp224
asg60
I1997
sg45
VLANT
p225
sbag1
(g2
g3
NtRp226
(dp227
g51
Nsg47
VPLANT CELL PHYSIOL
p228
sg49
V41
p229
sg81
(lp230
(VMA
VJ F
tp231
asg60
I2000
sg45
VLANT
p232
sbag1
(g2
g3
NtRp233
(dp234
g51
Nsg47
VMadison
p235
sg49
Nsg81
(lp236
(VMAGNAVACA R 1987 GENETIC ASPECTS OF PLANT MINERAL NUTRITION 1620 JUNE
S''
tp237
asg60
I1985
sg45
V255
p238
sbag1
(g2
g3
NtRp239
(dp240
g51
V10.1023/A:1026106714644
p241
sg47
VPLANT SOIL
p242
sg49
V256
p243
sg81
(lp244
(VMARIANO
VE D
tp245
asg60
I2003
sg45
VLANT
p246
sbag1
(g2
g3
NtRp247
(dp248
g51
V10.1016/S0074-7696(00)00001-2
p249
sg47
VINT REV CYTOL
p250
sg49
V200
p251
sg81
(lp252
(VMATSUMOTO
VH
tp253
asg60
I2000
sg45
V1
sbag1
(g2
g3
NtRp254
(dp255
g51
Nsg47
VMetals in the environment
p256
sg49
Nsg81
(lp257
(VMATSUMOTO
VH
tp258
asg60
I2001
sg45
V289
p259
sbag1
(g2
g3
NtRp260
(dp261
g51
V10.1104/pp.96.3.737
p262
sg47
VPLANT PHYSIOL
p263
sg49
V96
p264
sg81
(lp265
(VMIYASAKA
VS C
tp266
asg60
I1991
sg45
VLANT
p267
sbag1
(g2
g3
NtRp268
(dp269
g51
Nsg47
VEUPHYTICA
p270
sg49
V130
p271
sg81
(lp272
(VNINAMANGO
VC F E
tp273
asg60
I2003
sg45
V223
p274
sbag1
(g2
g3
NtRp275
(dp276
g51
V10.1007/s004250000444
p277
sg47
VPLANTA
p278
sg49
V212
p279
sg81
(lp280
(VPAPERNIK
VL A
tp281
asg60
I2001
sg45
VLANTA
p282
sbag1
(g2
g3
NtRp283
(dp284
g51
Nsg47
VChemical equilibrium and reaction models
p285
sg49
Nsg81
(lp286
(VPARKER
VD R
tp287
asg60
I1995
sg45
V253
p288
sbag1
(g2
g3
NtRp289
(dp290
g51
Nsg47
VPLANT PHYSIOL
p291
sg49
V112
p292
sg81
(lp293
(VPELLET
VD M
tp294
asg60
I1996
sg45
VLANT
p295
sbag1
(g2
g3
NtRp296
(dp297
g51
V10.1007/BF01106775
p298
sg47
VPLANTA
p299
sg49
V196
p300
sg81
(lp301
(VPELLET
VD M
tp302
asg60
I1995
sg45
VLANTA
p303
sbag1
(g2
g3
NtRp304
(dp305
g51
Nsg47
VPLANT PHYSIOL
p306
sg49
V29
p307
sg81
(lp308
(VPINEROS
VM
tp309
asg60
I2002
sg45
VLANT
p310
sbag1
(g2
g3
NtRp311
(dp312
g51
V10.1104/pp.125.1.292
p313
sg47
VPLANT PHYSIOL
p314
sg49
V125
p315
sg81
(lp316
(VPINEROS
VM A
tp317
asg60
I2001
sg45
VLANT
p318
sbag1
(g2
g3
NtRp319
(dp320
g51
Nsg47
VPLANTA
p321
sg49
V196
p322
sg81
(lp323
(VRYAN
VP R
tp324
asg60
I1995
sg45
VLANTA
p325
sbag1
(g2
g3
NtRp326
(dp327
g51
V10.1073/pnas.94.12.6547
p328
sg47
VP NATL ACAD SCI USA
p329
sg49
V94
p330
sg81
(lp331
(VRYAN
VP R
tp332
asg60
I1997
sg45
V6547
p333
sbag1
(g2
g3
NtRp334
(dp335
g51
V10.1146/annurev.arplant.52.1.527
p336
sg47
VANNU REV PLANT PHYS
p337
sg49
V52
p338
sg81
(lp339
(VRYAN
VP R
tp340
asg60
I2001
sg45
V527
p341
sbag1
(g2
g3
NtRp342
(dp343
g51
Nsg47
VAUST J PLANT PHYSIOL
p344
sg49
V22
p345
sg81
(lp346
(VRYAN
VP R
tp347
asg60
I1995
sg45
V531
p348
sbag1
(g2
g3
NtRp349
(dp350
g51
V10.1111/j.1365-313X.2003.01991.x
p351
sg47
VPLANT J
p352
sg49
V37
p353
sg81
(lp354
(VSASAKI
VT
tp355
asg60
I2004
sg45
VLANT
p356
sbag1
(g2
g3
NtRp357
(dp358
g51
V10.1034/j.1399-3054.2001.1120208.x
p359
sg47
VPHYSIOL PLANTARUM
p360
sg49
V112
p361
sg81
(lp362
(VSILVA
VI R
tp363
asg60
I2001
sg45
VHYSIOL
p364
sbag1
(g2
g3
NtRp365
(dp366
g51
Nsg47
VCurrent Topics in Plant Biochemistry and Physiology
p367
sg49
V10
p368
sg81
(lp369
(VTAYLOR
VG J
tp370
asg60
I1991
sg45
V57
p371
sbag1
(g2
g3
NtRp372
(dp373
g51
Nsg47
VPLANT SOIL INTERACTI
p374
sg49
Nsg81
(lp375
(VVON
VUEXKULL H R
tp376
asg60
I1995
sg45
VLANT
p377
sbag1
(g2
g3
NtRp378
(dp379
g51
V10.1104/pp.125.3.1473
p380
sg47
VPLANT PHYSIOL
p381
sg49
V125
p382
sg81
(lp383
(VWENZL
VP
tp384
asg60
I2001
sg45
VLANT
p385
sbag1
(g2
g3
NtRp386
(dp387
g51
V10.1002/1522-2624(200210)165:5<582::AID-JPLN582>3.0.CO;2-W
p388
sg47
VJ PLANT NUTR SOIL SC
p389
sg49
V165
p390
sg81
(lp391
(VWENZL
VP
tp392
asg60
I2002
sg45
V582
p393
sbag1
(g2
g3
NtRp394
(dp395
g51
V10.1104/pp.125.3.1459
p396
sg47
VPLANT PHYSIOL
p397
sg49
V125
p398
sg81
(lp399
(VZHANG
VW H
tp400
asg60
I2001
sg45
VLANT
p401
sbasb.