ccopy_reg
_reconstructor
p1
(ctethne.classes.paper
Paper
p2
c__builtin__
object
p3
NtRp4
(dp5
S'publisherCity'
p6
VROCKVILLE
p7
sS'reprintAddress'
p8
VReid, JSG (reprint author), Univ Stirling, Dept Biol Sci, Stirling FK9 4LA, Scotland.
p9
sS'WC'
p10
VPlant Sciences
p11
sS'GA'
p12
V577CW
p13
sS'abstract'
p14
VThe current experimental model for galactomannan biosynthesis in membrane-bound enzyme systems from developing legume-seed endosperms involves functional interaction between a GDP-mannose (Man) mannan synthase and a UDPgalactose (Gal) galactosyltransferase. The transfer specificity of the galactosyltransferase to the elongating mannan chain is critical in regulating the distribution and the degree of Gal substitution of the mannan backbone of the primary biosynthetic product. Detergent solubilization of the galactosyltransferase of fenugreek (Trigondla foenum-graecum) with retention of activity permitted the partial purification of the enzyme and the cloning and sequencing of the corresponding cDNA with proof of functional identity. We now document the positional specificity of transfer of (C-14)Gal from UDP-(C-14)Gal to manno-oligosaccharide acceptors, chain lengths 5 to 8, catalyzed by the detergent-solubilized galactosyltransferase. Enzymatic fragmentation analyses of the labeled products showed that a single Gal residue was transferred per acceptor molecule, that the linkage was (1-->6)-alpha, and that there was transfer to alternative Man residues within the acceptor molecules. Analysis of the relative frequencies of transfer to alternative Man residues within acceptor oligosaccharides of different chain length allowed the deduction of the substrate subsite recognition requirement of the galactosyltransferase. The enzyme has a principal recognition sequence of six Man residues, with transfer of Gal to the third Man residue from the nonreducing end of the sequence. These observations are incorporated into a refined model for enzyme interaction in galactomannan biosynthesis.
p15
sS'pageEnd'
p16
I1397
sS'publisherAddress'
p17
V15501 MONONA DRIVE, ROCKVILLE, MD 20855 USA
p18
sS'documentType'
p19
VArticle
p20
sS'subject'
p21
VPlant Sciences
p22
sS'isoSource'
p23
VPlant Physiol.
p24
sS'timesCited'
p25
(lp26
I17
aVZ9 22
p27
asS'PT'
p28
VJ
sS'title'
p29
VTransfer Specificity Of Detergent-Solubilized Fenugreek Galactomannan Galactosyltransferase
p30
sS'ISSN'
p31
(lp32
V0032-0889
p33
aVJ9 PLANT PHYSIOL
p34
asS'authors_full'
p35
(lp36
(VEDWARDS
VME
tp37
a(VMARSHALL
VE
tp38
a(VGIDLEY
VMJ
tp39
a(VREID
VJSG
tp40
asS'PG'
p41
I7
sS'PD'
p42
VJUL
p43
sS'pageStart'
p44
I1391
sS'issue'
p45
I3
sS'RI'
p46
Vgidley, mike/A-7266-2011
p47
sS'journal'
p48
VPLANT PHYSIOLOGY
p49
sS'volume'
p50
V129
p51
sS'doi'
p52
V10.1104/pp.002592
p53
sS'authorAddress'
p54
(lp55
VUniv Stirling, Dept Biol Sci, Stirling FK9 4LA, Scotland.
p56
aVUnilever Res Labs, Sharnbrook MK44 1LQ, Beds, England.
p57
asS'date'
p58
I2002
sS'ER'
p59
V
sS'publisher'
p60
VAMER SOC PLANT BIOLOGISTS
p61
sS'authorKeywords'
p62
(lp63
VLEGUME-SEED GALACTOMANNANS
p64
aVFOENUM-GRAECUM L
p65
aVBETA-MANNANASE
p66
aVBIOSYNTHESIS
p67
aVPOLYSACCHARIDES
p68
aVGUAR
p69
asS'language'
p70
VEnglish
p71
sS'wosid'
p72
VWOS:000177045000045
p73
sS'citationCount'
p74
I15
sS'authors_init'
p75
(lp76
(VEDWARDS
VM E
tp77
a(VMARSHALL
VE
tp78
a(VGIDLEY
VM J
tp79
a(VREID
VJ S G
tp80
asS'citedReferences'
p81
(lp82
g1
(g2
g3
NtRp83
(dp84
g52
Nsg48
VChemotaxonomy of the Leguminosae
p85
sg50
Nsg75
(lp86
(VBAILEY
VR W
tp87
asg58
I1971
sg44
V503
p88
sbag1
(g2
g3
NtRp89
(dp90
g52
Nsg48
VAdvances in Carbohydrate Chemistry and Biochemistry
p91
sg50
V31
p92
sg75
(lp93
(VDEA
VI C M
tp94
asg58
I1975
sg44
V241
p95
sbag1
(g2
g3
NtRp96
(dp97
g52
V10.1016/S0008-6215(00)81935-7
p98
sg48
VCARBOHYD RES
p99
sg50
V57
p100
sg75
(lp101
(VDEA
VI C M
tp102
asg58
I1977
sg44
V249
p103
sbag1
(g2
g3
NtRp104
(dp105
g52
V10.1046/j.1365-313X.1998.00042.x
p106
sg48
VPLANT J
p107
sg50
V13
p108
sg75
(lp109
(VDOONG
VR L
tp110
asg58
I1998
sg44
VLANT
p111
sbag1
(g2
g3
NtRp112
(dp113
g52
V10.1007/BF00392525
p114
sg48
VPLANTA
p115
sg50
V178
p116
sg75
(lp117
(VEDWARDS
VM
tp118
asg58
I1989
sg44
VLANTA
p119
sbag1
(g2
g3
NtRp120
(dp121
g52
V10.1046/j.1365-313x.1999.00566.x
p122
sg48
VPLANT J
p123
sg50
V19
p124
sg75
(lp125
(VEDWARDS
VM E
tp126
asg58
I1999
sg44
VLANT
p127
sbag1
(g2
g3
NtRp128
(dp129
g52
V10.1016/0031-9422(79)80009-6
p130
sg48
VPHYTOCHEMISTRY
p131
sg50
V18
p132
sg75
(lp133
(VMCCLEARY
VB V
tp134
asg58
I1979
sg44
VHYTOCHEMISTRY
p135
sbag1
(g2
g3
NtRp136
(dp137
g52
V10.1016/S0031-9422(00)86956-3
p138
sg48
VPHYTOCHEMISTRY
p139
sg50
V22
p140
sg75
(lp141
(VMCCLEARY
VB V
tp142
asg58
I1983
sg44
VHYTOCHEMISTRY
p143
sbag1
(g2
g3
NtRp144
(dp145
g52
V10.1016/0008-6215(83)84056-7
p146
sg48
VCARBOHYD RES
p147
sg50
V119
p148
sg75
(lp149
(VMCCLEARY
VB V
tp150
asg58
I1983
sg44
V191
p151
sbag1
(g2
g3
NtRp152
(dp153
g52
Nsg48
VGUIDE PROPERTIES USE
p154
sg50
Nsg75
(lp155
(VNEUGEBAUER
VJ
tp156
asg58
I1994
sg44
Nsbag1
(g2
g3
NtRp157
(dp158
g52
Nsg48
VV67
p159
sg50
V67
p160
sg75
(lp161
(VREID
VJ S GRANT
tp162
asg58
I1995
sg44
V155
p163
sbag1
(g2
g3
NtRp164
(dp165
g52
V10.1016/S0065-2296(08)60170-6
p166
sg48
VADV BOT RES
p167
sg50
V11
p168
sg75
(lp169
(VREID
VJ S G
tp170
asg58
I1985
sg44
V125
p171
sbag1
(g2
g3
NtRp172
(dp173
g52
Nsg48
VPLANTA
p174
sg50
V195
p175
sg75
(lp176
(VREID
VJ S G
tp177
asg58
I1995
sg44
VLANTA
p178
sbag1
(g2
g3
NtRp179
(dp180
g52
Nsg48
VZ PFLANZENPHYSIOL
p181
sg50
V62
p182
sg75
(lp183
(VREID
VJ S G
tp184
asg58
I1970
sg44
V89
p185
sbag1
(g2
g3
NtRp186
(dp187
g52
Nsg48
VPLANTA
p188
sg50
V147
p189
sg75
(lp190
(VREID
VJ S G
tp191
asg58
I1979
sg44
VLANTA
p192
sbasb.