ccopy_reg
_reconstructor
p1
(ctethne.classes.paper
Paper
p2
c__builtin__
object
p3
NtRp4
(dp5
S'publisherCity'
p6
VROCKVILLE
p7
sS'reprintAddress'
p8
VGeros, H (reprint author), Univ Minho, Dept Biol, Campus Gualtar, P-4710057 Braga, Portugal.
p9
sS'WC'
p10
VPlant Sciences
p11
sS'GA'
p12
V071XI
p13
sS'abstract'
p14
VGrape ( Vitis vinifera) heterotrophic suspension-cultured cells were used as a model system to study glucose (Glc) transport and its regulation. Cells transported D-[C-14] Glc according to simple Michaelis-Menten kinetics superimposed on first-order kinetics. The saturating component is a high-affinity, broad-specificity H-1-dependent transport system (K-m = 0.05 mM). Glc concentration in the medium tightly regulated the transcription of VvHT1 ( Vitis vinifera hexose transporter 1), a monosaccharide transporter previously characterized in grape berry, as well as VvHT1 protein amount and monosaccharide transport activity. All the remaining putative monosaccharide transporters identified so far in grape were poorly expressed and responded weakly to Glc. VvHT1 transcription was strongly repressed by Glc and 2-deoxy-D-Glc, but not by 3-O-methyl- D- Glc or Glc plus mannoheptulose, indicating the involvement of a hexokinase-dependent repression. 3-O-Methyl-D-Glc, which cannot be phosphorylated, and Glc plus mannoheptulose induced a decrease of transport activity caused by the reduction of VvHT1 protein in the plasma membrane without affecting VvHT1 transcript levels. This demonstrates hexokinase-independent posttranscriptional regulation. High Glc down-regulated VvHT1 transcription and Glc uptake, whereas low Glc increased those parameters. Present data provide an example showing control of plant sugar transporters by their own substrate both at transcriptional and posttranscriptional levels. VvHT1 protein has an important role in the massive import of monosaccharides into mesocarp cells of young grape berries because it was localized in plasma membranes of the early developing fruit. Protein amount decreased abruptly throughout fruit development as sugar content increases, consistent with the regulating role of Glc on VvHT1 expression found in suspension-cultured cells.
p15
sS'pageEnd'
p16
I1577
sS'date'
p17
I2006
sS'documentType'
p18
VArticle
p19
sS'subject'
p20
VPlant Sciences
p21
sS'isoSource'
p22
VPlant Physiol.
p23
sS'timesCited'
p24
(lp25
I41
aVZ9 46
p26
asS'PT'
p27
VJ
sS'title'
p28
VPathways Of Glucose Regulation Of Monosaccharide Transport In Grape Cells
p29
sS'ISSN'
p30
(lp31
V0032-0889
p32
aVJ9 PLANT PHYSIOL
p33
asS'authors_full'
p34
(lp35
(VCONDE
VCARLOS
tp36
a(VAGASSE
VALICE
tp37
a(VGLISSANT
VDAVID
tp38
a(VTAVARES
VRUI
tp39
a(VGEROS
VHERNANI
tp40
a(VDELROT
VSERGE
tp41
asS'PG'
p42
I15
sS'PD'
p43
VAUG
p44
sS'pageStart'
p45
I1563
sS'issue'
p46
I4
sS'RI'
p47
(lp48
VGeros, Hernani/A-8897-2010; Tavares, Rui/D-9692-2012; Conde,
p49
aVCarlos/I-8147-2013
p50
asS'journal'
p51
VPLANT PHYSIOLOGY
p52
sS'volume'
p53
V141
p54
sS'doi'
p55
V10.1104/pp.106.080804
p56
sS'emailAddress'
p57
Vgeros@bio.uminho.pt
p58
sS'authorAddress'
p59
(lp60
VUniv Minho, Dept Biol, P-4710057 Braga, Portugal.
p61
aVCNRS, UMR 6161, Lab Physiol Biochim & Biol Mol Vegetales, Unite Fondamentale Rech Sci, F-86022 Poitiers, France.
p62
asS'publisherAddress'
p63
V15501 MONONA DRIVE, ROCKVILLE, MD 20855 USA
p64
sS'ER'
p65
V
sS'publisher'
p66
VAMER SOC PLANT BIOLOGISTS
p67
sS'authorKeywords'
p68
(lp69
VMEDIATED TRANSCRIPTIONAL REGULATION
p70
aVSACCHAROMYCES-CEREVISIAE
p71
aVCATABOLITE INACTIVATION
p72
aVPLASMA-MEMBRANE
p73
aVSORBITOL TRANSPORTERS
p74
aVSUCROSE TRANSPORTERS
p75
aVCHENOPODIUM-RUBRUM
p76
aVHEXOSE TRANSPORTER
p77
aVSUSPENSION-CULTURE
p78
aVSUGAR TRANSPORTERS
p79
asS'language'
p80
VEnglish
p81
sS'wosid'
p82
VWOS:000239636800038
p83
sS'citationCount'
p84
I73
sS'authors_init'
p85
(lp86
(VCONDE
VC
tp87
a(VAGASSE
VA
tp88
a(VGLISSANT
VD
tp89
a(VTAVARES
VR
tp90
a(VGEROS
VH
tp91
a(VDELROT
VS
tp92
asS'citedReferences'
p93
(lp94
g1
(g2
g3
NtRp95
(dp96
g55
V10.1016/S0981-9428(00)00730-0
p97
sg51
VPLANT PHYSIOL BIOCH
p98
sg53
V38
p99
sg85
(lp100
(VAGEORGES
VA
tp101
asg17
I2000
sg45
VLANT
p102
sbag1
(g2
g3
NtRp103
(dp104
g55
V10.1104/pp.009522
p105
sg51
VPLANT PHYSIOL
p106
sg53
V131
p107
sg85
(lp108
(VATANASSOVA
VR
tp109
asg17
I2003
sg45
VLANT
p110
sbag1
(g2
g3
NtRp111
(dp112
g55
V10.1093/pcp/pci248
p113
sg51
VPLANT CELL PHYSIOL
p114
sg53
V47
p115
sg85
(lp116
(VAZEVEDO
VH
tp117
asg17
I2006
sg45
VLANT
p118
sbag1
(g2
g3
NtRp119
(dp120
g55
V10.1111/j.1574-6976.1997.tb00346.x
p121
sg51
VFEMS MICROBIOL REV
p122
sg53
V21
p123
sg85
(lp124
(VBOLES
VE
tp125
asg17
I1997
sg45
V85
p126
sbag1
(g2
g3
NtRp127
(dp128
g55
V10.1034/j.1399-3054.1998.1020311.x
p129
sg51
VPHYSIOL PLANTARUM
p130
sg53
V102
p131
sg85
(lp132
(VBOTHA
VF C
tp133
asg17
I1998
sg45
VHYSIOL
p134
sbag1
(g2
g3
NtRp135
(dp136
g55
V10.1104/dijon.inra.fr
p137
sg51
VPLANT PHYSIOL
p138
sg53
V130
p139
sg85
(lp140
(VBOURQUE
VS
tp141
asg17
I2002
sg45
VLANT
p142
sbag1
(g2
g3
NtRp143
(dp144
g55
V10.1016/0005-2736(85)90128-2
p145
sg51
VBIOCHIM BIOPHYS ACTA
p146
sg53
V820
p147
sg85
(lp148
(VBUSTURIA
VA
tp149
asg17
I1985
sg45
V324
p150
sbag1
(g2
g3
NtRp151
(dp152
g55
Nsg51
VJ GEN MICROBIOL
p153
sg53
V132
p154
sg85
(lp155
(VBUSTURIA
VA
tp156
asg17
I1986
sg45
V379
p157
sbag1
(g2
g3
NtRp158
(dp159
g55
V10.1016/S0005-2736(00)00143-7
p160
sg51
VBBA
p161
sg53
V1465
p162
sg85
(lp163
(VBUTTNER
VM
tp164
asg17
I2000
sg45
V263
p165
sbag1
(g2
g3
NtRp166
(dp167
g55
V10.1105/tpc.013854
p168
sg51
VPLANT CELL
p169
sg53
V15
p170
sg85
(lp171
(VCAKIR
VB
tp172
asg17
I2003
sg45
VLANT
p173
sbag1
(g2
g3
NtRp174
(dp175
g55
V10.1073/pnas.96.18.10512
p176
sg51
VP NATL ACAD SCI USA
p177
sg53
V96
p178
sg85
(lp179
(VCHENG
VW H
tp180
asg17
I1999
sg45
V10512
p181
sbag1
(g2
g3
NtRp182
(dp183
g55
V10.1073/pnas.95.8.4784
p184
sg51
VP NATL ACAD SCI USA
p185
sg53
V95
p186
sg85
(lp187
(VCHIOU
VT J
tp188
asg17
I1998
sg45
V4784
p189
sbag1
(g2
g3
NtRp190
(dp191
g55
Nsg51
VAM J ENOL VITICULT
p192
sg53
V43
p193
sg85
(lp194
(VCOOMBE
VB G
tp195
asg17
I1992
sg45
V101
p196
sbag1
(g2
g3
NtRp197
(dp198
g55
V10.1104/pp.010538
p199
sg51
VPLANT PHYSIOL
p200
sg53
V131
p201
sg85
(lp202
(VCORTES
VS
tp203
asg17
I2003
sg45
VLANT
p204
sbag1
(g2
g3
NtRp205
(dp206
g55
V10.1016/S0168-9452(99)00059-X
p207
sg51
VPLANT SCI
p208
sg53
V147
p209
sg85
(lp210
(VDAVIES
VC
tp211
asg17
I1999
sg45
VLANT
p212
sbag1
(g2
g3
NtRp213
(dp214
g55
Nsg51
VJ BIOL CHEM
p215
sg53
V256
p216
sg85
(lp217
(VDELAPENA
VP
tp218
asg17
I1981
sg45
V420
p219
sbag1
(g2
g3
NtRp220
(dp221
g55
Nsg51
VTRANSPORT PHOTOASSIM
p222
sg53
Nsg85
(lp223
(VDELROT
VS
tp224
asg17
I1989
sg45
V167
p225
sbag1
(g2
g3
NtRp226
(dp227
g55
V10.1016/S0005-2736(00)00145-0
p228
sg51
VBBA
p229
sg53
V1465
p230
sg85
(lp231
(VDELROT
VS
tp232
asg17
I2000
sg45
V281
p233
sbag1
(g2
g3
NtRp234
(dp235
g55
Nsg51
VBIOTECHNOL LETT
p236
sg53
V18
p237
sg85
(lp238
(VDESCENDIT
VA
tp239
asg17
I1996
sg45
V659
p240
sbag1
(g2
g3
NtRp241
(dp242
g55
V10.1046/j.1365-313X.1997.11030539.x
p243
sg51
VPLANT J
p244
sg53
V11
p245
sg85
(lp246
(VEHNESS
VR
tp247
asg17
I1997
sg45
VLANT
p248
sbag1
(g2
g3
NtRp249
(dp250
g55
V10.1093/jxb/eri185
p251
sg51
VJ EXP BOT
p252
sg53
V56
p253
sg85
(lp254
(VETXEBERRIA
VE
tp255
asg17
I2005
sg45
V1905
p256
sbag1
(g2
g3
NtRp257
(dp258
g55
V10.1104/pp.120.4.1083
p259
sg51
VPLANT PHYSIOL
p260
sg53
V120
p261
sg85
(lp262
(VFILLION
VL
tp263
asg17
I1999
sg45
VLANT
p264
sbag1
(g2
g3
NtRp265
(dp266
g55
Nsg51
VJ BIOL CHEM
p267
sg53
V66
p268
sg85
(lp269
(VFISKE
VC H
tp270
asg17
I1925
sg45
V375
p271
sbag1
(g2
g3
NtRp272
(dp273
g55
V10.1104/pp.103.021428
p274
sg51
VPLANT PHYSIOL
p275
sg53
V132
p276
sg85
(lp277
(VFOTOPOULOS
VV
tp278
asg17
I2003
sg45
VLANT
p279
sbag1
(g2
g3
NtRp280
(dp281
g55
V10.1104/pp.102.016725
p282
sg51
VPLANT PHYSIOL
p283
sg53
V131
p284
sg85
(lp285
(VGAO
VZ F
tp286
asg17
I2003
sg45
VLANT
p287
sbag1
(g2
g3
NtRp288
(dp289
g55
V10.1093/jxb/erh048
p290
sg51
VJ EXP BOT
p291
sg53
V55
p292
sg85
(lp293
(VGIBSON
VS I
tp294
asg17
I2004
sg45
V253
p295
sbag1
(g2
g3
NtRp296
(dp297
g55
V10.1126/science.225.4664.801
p298
sg51
VSCIENCE
p299
sg53
V225
p300
sg85
(lp301
(VGIFFORD
VR M
tp302
asg17
I1984
sg45
V801
p303
sbag1
(g2
g3
NtRp304
(dp305
g55
V10.1105/tpc.6.5.761
p306
sg51
VPLANT CELL
p307
sg53
V6
sg85
(lp308
(VGRAHAM
VI A
tp309
asg17
I1994
sg45
VLANT
p310
sbag1
(g2
g3
NtRp311
(dp312
g55
Nsg51
VJ BACTERIOL
p313
sg53
V179
p314
sg85
(lp315
(VHORAK
VJ
tp316
asg17
I1997
sg45
V1541
p317
sbag1
(g2
g3
NtRp318
(dp319
g55
V10.1016/0042-6822(78)90086-7
p320
sg51
VVIROLOGY
p321
sg53
VIROLOGY
p322
sg85
(lp323
(VHOWELL
VS H
tp324
asg17
I1978
sg45
V468
p325
sbag1
(g2
g3
NtRp326
(dp327
g55
V10.1016/j.pbi.2004.03.014
p328
sg51
VCURR OPIN PLANT BIOL
p329
sg53
V7
sg85
(lp330
(VKOCH
VK
tp331
asg17
I2004
sg45
V235
p332
sbag1
(g2
g3
NtRp333
(dp334
g55
V10.1016/0005-2736(72)90361-6
p335
sg51
VBIOCHIM BIOPHYS ACTA
p336
sg53
V266
p337
sg85
(lp338
(VKOMOR
VE
tp339
asg17
I1972
sg45
V649
p340
sbag1
(g2
g3
NtRp341
(dp342
g55
V10.1016/S0981-9428(00)00776-2
p343
sg51
VPLANT PHYSIOL BIOCH
p344
sg53
V38
p345
sg85
(lp346
(VKROOK
VJ
tp347
asg17
I2000
sg45
VLANT
p348
sbag1
(g2
g3
NtRp349
(dp350
g55
V10.1126/science.275.5304.1298
p351
sg51
VSCIENCE
p352
sg53
V275
p353
sg85
(lp354
(VKUHN
VC
tp355
asg17
I1997
sg45
V1298
p356
sbag1
(g2
g3
NtRp357
(dp358
g55
V10.1016/0022-2836(70)90402-X
p359
sg51
VJ MOL BIOL
p360
sg53
V47
p361
sg85
(lp362
(VLAEMMLI
VU K
tp363
asg17
I1970
sg45
V69
p364
sbag1
(g2
g3
NtRp365
(dp366
g55
V10.1146/annurev.arplant.55.031903.141758
p367
sg51
VANNU REV PLANT BIOL
p368
sg53
V55
p369
sg85
(lp370
(VLALONDE
VS
tp371
asg17
I2004
sg45
V341
p372
sbag1
(g2
g3
NtRp373
(dp374
g55
Nsg51
VPLANT CELL
p375
sg53
V11
p376
sg85
(lp377
(VLALONDE
VS
tp378
asg17
I1999
sg45
VLANT
p379
sbag1
(g2
g3
NtRp380
(dp381
g55
V10.1093/jxb/erg119
p382
sg51
VJ EXP BOT
p383
sg53
V54
p384
sg85
(lp385
(VLETERRIER
VM
tp386
asg17
I2003
sg45
V1193
p387
sbag1
(g2
g3
NtRp388
(dp389
g55
Nsg51
VJ BIOL CHEM
p390
sg53
V193
p391
sg85
(lp392
(VLOWRY
VO H
tp393
asg17
I1951
sg45
V275
p394
sbag1
(g2
g3
NtRp395
(dp396
g55
Nsg51
VARABIDOPSIS BOOK
p397
sg53
Nsg85
(lp398
(VLUDEWIG
VU
tp399
asg17
I2002
sg45
Nsbag1
(g2
g3
NtRp400
(dp401
g55
V10.1104/pp.124.1.85
p402
sg51
VPLANT PHYSIOL
p403
sg53
V124
p404
sg85
(lp405
(VMATSUKURA
VC
tp406
asg17
I2000
sg45
VLANT
p407
sbag1
(g2
g3
NtRp408
(dp409
g55
V10.1093/jxb/erh087
p410
sg51
VJ EXP BOT
p411
sg53
V55
p412
sg85
(lp413
(VMAUREL
VK
tp414
asg17
I2004
sg45
V879
p415
sbag1
(g2
g3
NtRp416
(dp417
g55
V10.1128/JB.183.18.5223-5229.2001
p418
sg51
VJ BACTERIOL
p419
sg53
V183
p420
sg85
(lp421
(VMILKOWSKI
VC
tp422
asg17
I2001
sg45
V5223
p423
sbag1
(g2
g3
NtRp424
(dp425
g55
Nsg51
VPLANT CELL PHYSIOL
p426
sg53
V28
p427
sg85
(lp428
(VNAGAO
VT
tp429
asg17
I1987
sg45
VLANT
p430
sbag1
(g2
g3
NtRp431
(dp432
g55
V10.1093/pcp/pcf179
p433
sg51
VPLANT CELL PHYSIOL
p434
sg53
V43
p435
sg85
(lp436
(VOLIVEIRA
VJ
tp437
asg17
I2002
sg45
VLANT
p438
sbag1
(g2
g3
NtRp439
(dp440
g55
V10.1021/jf9507506
p441
sg51
VJ AGR FOOD CHEM
p442
sg53
V44
p443
sg85
(lp444
(VOLLE
VD
tp445
asg17
I1996
sg45
V2658
p446
sbag1
(g2
g3
NtRp447
(dp448
g55
V10.1146/annurev.arplant.48.1.191
p449
sg51
VANNU REV PLANT PHYS
p450
sg53
V48
p451
sg85
(lp452
(VPATRICK
VJ W
tp453
asg17
I1997
sg45
V191
p454
sbag1
(g2
g3
NtRp455
(dp456
g55
V10.1007/s00425-003-1011-x
p457
sg51
VPLANTA
p458
sg53
V217
p459
sg85
(lp460
(VRANSOM-HODGKINS
VW D
tp461
asg17
I2003
sg45
VLANTA
p462
sbag1
(g2
g3
NtRp463
(dp464
g55
V10.1126/science.283.5407.1541
p465
sg51
VSCIENCE
p466
sg53
V283
p467
sg85
(lp468
(VRIOU-KHAMLICHI
VC
tp469
asg17
I1999
sg45
V1541
p470
sbag1
(g2
g3
NtRp471
(dp472
g55
V10.1104/pp.121.2.647
p473
sg51
VPLANT PHYSIOL
p474
sg53
V121
p475
sg85
(lp476
(VRITTE
VG
tp477
asg17
I1999
sg45
VLANT
p478
sbag1
(g2
g3
NtRp479
(dp480
g55
V10.1016/S0014-5793(98)00165-3
p481
sg51
VFEBS LETT
p482
sg53
V424
p483
sg85
(lp484
(VROBLIN
VG
tp485
asg17
I1998
sg45
V165
p486
sbag1
(g2
g3
NtRp487
(dp488
g55
V10.1016/S1369-5266(99)80036-3
p489
sg51
VCURR OPIN PLANT BIOL
p490
sg53
V2
sg85
(lp491
(VROITSCH
VT
tp492
asg17
I1999
sg45
V198
p493
sbag1
(g2
g3
NtRp494
(dp495
g55
Nsg51
VPLANTA
p496
sg53
V193
p497
sg85
(lp498
(VROITSCH
VT
tp499
asg17
I1994
sg45
VLANTA
p500
sbag1
(g2
g3
NtRp501
(dp502
g55
V10.1016/S0968-0004(01)01805-9
p503
sg51
VTRENDS BIOCHEM SCI
p504
sg53
V26
p505
sg85
(lp506
(VROLLAND
VF
tp507
asg17
I2001
sg45
V310
p508
sbag1
(g2
g3
NtRp509
(dp510
g55
V10.1046/j.1365-313X.1998.00205.x
p511
sg51
VPLANT J
p512
sg53
V15
p513
sg85
(lp514
(VROOK
VF
tp515
asg17
I1998
sg45
VLANT
p516
sbag1
(g2
g3
NtRp517
(dp518
g55
Nsg51
VMethods Enzymol
p519
sg53
V55
p520
sg85
(lp521
(VROTTENBERG
VH
tp522
asg17
I1979
sg45
V547
p523
sbag1
(g2
g3
NtRp524
(dp525
g55
Nsg51
VEMBO J
p526
sg53
V9
sg85
(lp527
(VSAUER
VN
tp528
asg17
I1990
sg45
V3045
p529
sbag1
(g2
g3
NtRp530
(dp531
g55
Nsg51
VMETHOD ENZYMOL
p532
sg53
V157
p533
sg85
(lp534
(VSERRANO
VR
tp535
asg17
I1988
sg45
V333
p536
sbag1
(g2
g3
NtRp537
(dp538
g55
V10.1104/pp.118.4.1473
p539
sg51
VPLANT PHYSIOL
p540
sg53
V118
p541
sg85
(lp542
(VSHAKYA
VR
tp543
asg17
I1998
sg45
VLANT
p544
sbag1
(g2
g3
NtRp545
(dp546
g55
V10.1104/pp.103.024240
p547
sg51
VPLANT PHYSIOL
p548
sg53
V133
p549
sg85
(lp550
(VSTADLER
VR
tp551
asg17
I2003
sg45
VLANT
p552
sbag1
(g2
g3
NtRp553
(dp554
g55
V10.1007/s00425-005-0017-y
p555
sg51
VPLANTA
p556
sg53
V222
p557
sg85
(lp558
(VTERRIER
VN
tp559
asg17
I2005
sg45
VLANTA
p560
sbag1
(g2
g3
NtRp561
(dp562
g55
V10.1046/j.1365-313X.1999.00372.x
p563
sg51
VPLANT J
p564
sg53
V17
p565
sg85
(lp566
(VTRUERNIT
VE
tp567
asg17
I1999
sg45
VLANT
p568
sbag1
(g2
g3
NtRp569
(dp570
g55
V10.1105/tpc.8.12.2169
p571
sg51
VPLANT CELL
p572
sg53
V8
sg85
(lp573
(VTRUERNIT
VE
tp574
asg17
I1996
sg45
VLANT
p575
sbag1
(g2
g3
NtRp576
(dp577
g55
V10.1073/pnas.172198599
p578
sg51
VP NATL ACAD SCI USA
p579
sg53
V99
p580
sg85
(lp581
(VVAUGHN
VM W
tp582
asg17
I2002
sg45
V10876
p583
sbag1
(g2
g3
NtRp584
(dp585
g55
V10.1016/0304-4165(91)90144-6
p586
sg51
VBIOCHIM BIOPHYS ACTA
p587
sg53
V1073
p588
sg85
(lp589
(VVERSTAPPEN
VR
tp590
asg17
I1991
sg45
V366
p591
sbag1
(g2
g3
NtRp592
(dp593
g55
V10.1093/jxb/eri142
p594
sg51
VJ EXP BOT
p595
sg53
V56
p596
sg85
(lp597
(VVIGNAULT
VC
tp598
asg17
I2005
sg45
V1409
p599
sbag1
(g2
g3
NtRp600
(dp601
g55
V10.1093/pcp/pch121
p602
sg51
VPLANT CELL PHYSIOL
p603
sg53
V45
p604
sg85
(lp605
(VWATARI
VJ
tp606
asg17
I2004
sg45
VLANT
p607
sbag1
(g2
g3
NtRp608
(dp609
g55
V10.1105/tpc.9.6.895
p610
sg51
VPLANT CELL
p611
sg53
V9
sg85
(lp612
(VWEBER
VH
tp613
asg17
I1997
sg45
VLANT
p614
sbag1
(g2
g3
NtRp615
(dp616
g55
Nsg51
VJ BACTERIOL
p617
sg53
V176
p618
sg85
(lp619
(VWENDELL
VD L
tp620
asg17
I1994
sg45
V3730
p621
sbag1
(g2
g3
NtRp622
(dp623
g55
Nsg51
VBIOCHEM SOC T
p624
sg53
V33
p625
sg85
(lp626
(VWIESE
VA
tp627
asg17
I2005
sg45
V272
p628
sbag1
(g2
g3
NtRp629
(dp630
g55
V10.1105/tpc.01.019349
p631
sg51
VPLANT CELL
p632
sg53
V16
p633
sg85
(lp634
(VWIESE
VA
tp635
asg17
I2004
sg45
VLANT
p636
sbag1
(g2
g3
NtRp637
(dp638
g55
V10.1016/S1360-1385(00)01681-2
p639
sg51
VTRENDS PLANT SCI
p640
sg53
V5
sg85
(lp641
(VWILLIAMS
VL E
tp642
asg17
I2000
sg45
V283
p643
sbag1
(g2
g3
NtRp644
(dp645
g55
V10.1104/pp.103.036632
p646
sg51
VPLANT PHYSIOL
p647
sg53
V135
p648
sg85
(lp649
(VZHANG
VL Y
tp650
asg17
I2004
sg45
VLANT
p651
sbasb.