ccopy_reg
_reconstructor
p1
(ctethne.classes.paper
Paper
p2
c__builtin__
object
p3
NtRp4
(dp5
S'publisherCity'
p6
VROCKVILLE
p7
sS'reprintAddress'
p8
VMurata, N (reprint author), Natl Inst Basic Biol, Dept Regulat Biol, Okazaki, Aichi 4448585, Japan.
p9
sS'WC'
p10
VPlant Sciences
p11
sS'GA'
p12
V616XU
p13
sS'abstract'
p14
VLight stress and salt stress are major environmental factors that limit the efficiency of photosynthesis. However, we have found that the effects of light and salt stress on photosystem II (PSII) in the cyanobacterium Synechocystis sp. PCC 6803 are completely different. Strong light induced photodamage to PSII, whereas salt stress inhibited the repair of the photodamaged PSII and did not accelerate damage to PSII directly. The combination of light and salt stress appeared to inactivate PSII very rapidly as a consequence of their synergistic effects. Radioactive labeling of cells revealed that salt stress inhibited the synthesis of proteins de novo and, in particular, the synthesis of the D1 protein. Northern- and western-blotting analyses demonstrated that salt stress inhibited the transcription and the translation of psbA genes, which encode D1 protein. DNA microarray analysis indicated that the light-induced expression of various genes was suppressed by salt stress. Thus, our results suggest that salt stress inhibits the repair of PSII via suppression of the activities of the transcriptional and translational machinery.
p15
sS'pageEnd'
p16
I1453
sS'publisherAddress'
p17
V15501 MONONA DRIVE, ROCKVILLE, MD 20855 USA
p18
sS'documentType'
p19
VArticle
p20
sS'subject'
p21
VPlant Sciences
p22
sS'isoSource'
p23
VPlant Physiol.
p24
sS'timesCited'
p25
(lp26
I91
aVZ9 105
p27
asS'PT'
p28
VJ
sS'title'
p29
VSalt Stress Inhibits The Repair Of Photodamaged Photosystem Ii By Suppressing The Transcription And Translation Of Psba Genes In Synechocystis
p30
sS'ISSN'
p31
(lp32
V0032-0889
p33
aVJ9 PLANT PHYSIOL
p34
asS'authors_full'
p35
(lp36
(VALLAKHVERDIEV
VSI
tp37
a(VNISHIYAMA
VY
tp38
a(VMIYAIRI
VS
tp39
a(VYAMAMOTO
VH
tp40
a(VINAGAKI
VN
tp41
a(VKANESAKI
VY
tp42
a(VMURATA
VN
tp43
asS'PG'
p44
I11
sS'PD'
p45
VNOV
p46
sS'pageStart'
p47
I1443
sS'issue'
p48
I3
sS'RI'
p49
VNishiyama, Yoshitaka/K-3825-2012
p50
sS'journal'
p51
VPLANT PHYSIOLOGY
p52
sS'volume'
p53
V130
p54
sS'doi'
p55
V10.1104/pp.011114
p56
sS'authorAddress'
p57
(lp58
VNatl Inst Basic Biol, Dept Regulat Biol, Okazaki, Aichi 4448585, Japan.
p59
aVRussian Acad Sci, Inst Basic Biol Problems, Pushchino 142292, Moscow Region, Russia.
p60
aVEhime Univ, Dept Chem, Matsuyama, Ehime 7908577, Japan.
p61
aVNatl Inst Adv Ind Sci & Technol, Tsukuba, Ibaraki 3058566, Japan.
p62
aVNatl Inst Agribiol Resources, Tsukuba, Ibaraki 3058566, Japan.
p63
aVGrad Univ Adv Studies, Sch Life Sci, Dept Biomech, Okazaki, Aichi 4448585, Japan.
p64
asS'date'
p65
I2002
sS'ER'
p66
V
sS'publisher'
p67
VAMER SOC PLANT BIOLOGISTS
p68
sS'authorKeywords'
p69
(lp70
VMETABOLIZED 32-KILODALTON PROTEIN
p71
aVTERMINAL PROCESSING PROTEASE
p72
aVBLUE-GREEN-ALGAE
p73
aVCHLOROPLAST MEMBRANES
p74
aVCHLAMYDOMONAS-REINHARDTII
p75
aVD1 PROTEIN
p76
aVPHOTOINHIBITION
p77
aVPHOTOSYNTHESIS
p78
aVLIGHT
p79
aVTEMPERATURE
p80
asS'language'
p81
VEnglish
p82
sS'wosid'
p83
VWOS:000179329400036
p84
sS'citationCount'
p85
I44
sS'authors_init'
p86
(lp87
(VALLAKHVERDIEV
VS I
tp88
a(VNISHIYAMA
VY
tp89
a(VMIYAIRI
VS
tp90
a(VYAMAMOTO
VH
tp91
a(VINAGAKI
VN
tp92
a(VKANESAKI
VY
tp93
a(VMURATA
VN
tp94
asS'citedReferences'
p95
(lp96
g1
(g2
g3
NtRp97
(dp98
g55
Nsg51
VBIOFIZIKA
p99
sg53
V33
p100
sg86
(lp101
(VALLAKHVERDIEV
VS I
tp102
asg65
I1988
sg47
V442
p103
sbag1
(g2
g3
NtRp104
(dp105
g55
V10.1073/pnas.96.10.5862
p106
sg51
VP NATL ACAD SCI USA
p107
sg53
V96
p108
sg86
(lp109
(VALLAKHVERDIEV
VS I
tp110
asg65
I1999
sg47
V5862
p111
sbag1
(g2
g3
NtRp112
(dp113
g55
V10.1104/pp.123.3.1047
p114
sg51
VPLANT PHYSIOL
p115
sg53
V123
p116
sg86
(lp117
(VALLAKHVERDIEV
VS I
tp118
asg65
I2000
sg47
VLANT
p119
sbag1
(g2
g3
NtRp120
(dp121
g55
V10.1104/pp.122.4.1201
p122
sg51
VPLANT PHYSIOL
p123
sg53
V122
p124
sg86
(lp125
(VALLAKHVERDIEV
VS I
tp126
asg65
I2000
sg47
VLANT
p127
sbag1
(g2
g3
NtRp128
(dp129
g55
V10.1016/0005-2728(74)90063-2
p130
sg51
VBIOCHIM BIOPHYS ACTA
p131
sg53
V357
p132
sg86
(lp133
(VARNON
VD I
tp134
asg65
I1974
sg47
V231
p135
sbag1
(g2
g3
NtRp136
(dp137
g55
V10.1016/0005-2728(93)90134-2
p138
sg51
VBIOCHIM BIOPHYS ACTA
p139
sg53
V1143
p140
sg86
(lp141
(VARO
VE M
tp142
asg65
I1993
sg47
V113
p143
sbag1
(g2
g3
NtRp144
(dp145
g55
V10.1016/0968-0004(92)90503-2
p146
sg51
VTRENDS BIOCHEM SCI
p147
sg53
V17
p148
sg86
(lp149
(VBARBER
VJ
tp150
asg65
I1992
sg47
V61
p151
sbag1
(g2
g3
NtRp152
(dp153
g55
V10.1146/annurev.pp.31.060180.002423
p154
sg51
VANNU REV PLANT PHYS
p155
sg53
V31
p156
sg86
(lp157
(VBERRY
VJ
tp158
asg65
I1980
sg47
V491
p159
sbag1
(g2
g3
NtRp160
(dp161
g55
V10.1126/science.218.4571.443
p162
sg51
VSCIENCE
p163
sg53
V218
p164
sg86
(lp165
(VBOYER
VJ S
tp166
asg65
I1982
sg47
V443
p167
sbag1
(g2
g3
NtRp168
(dp169
g55
Nsg51
VPLANTA
p170
sg53
V168
p171
sg86
(lp172
(VGREER
VD H
tp173
asg65
I1986
sg47
VLANTA
p174
sbag1
(g2
g3
NtRp175
(dp176
g55
V10.1093/emboj/20.4.713
p177
sg51
VEMBO J
p178
sg53
V20
p179
sg86
(lp180
(VHAUSSUHL
VK
tp181
asg65
I2001
sg47
V713
p182
sbag1
(g2
g3
NtRp183
(dp184
g55
V10.1104/pp.100.3.1547
p185
sg51
VPLANT PHYSIOL
p186
sg53
V100
p187
sg86
(lp188
(VHERTWIG
VB
tp189
asg65
I1992
sg47
VLANT
p190
sbag1
(g2
g3
NtRp191
(dp192
g55
Nsg51
VPLANT CELL
p193
sg53
V13
p194
sg86
(lp195
(VHIHARA
VY
tp196
asg65
I2001
sg47
VLANT
p197
sbag1
(g2
g3
NtRp198
(dp199
g55
V10.1016/0014-5793(89)80286-8
p200
sg51
VFEBS LETT
p201
sg53
V246
p202
sg86
(lp203
(VINAGAKI
VN
tp204
asg65
I1989
sg47
V218
p205
sbag1
(g2
g3
NtRp206
(dp207
g55
V10.1016/S0014-5793(01)03180-5
p208
sg51
VFEBS LETT
p209
sg53
V509
p210
sg86
(lp211
(VINAGAKI
VN
tp212
asg65
I2001
sg47
V197
p213
sbag1
(g2
g3
NtRp214
(dp215
g55
V10.1104/pp.41.6.1044
p216
sg51
VPLANT PHYSIOL
p217
sg53
V41
p218
sg86
(lp219
(VJONES
VL W
tp220
asg65
I1966
sg47
VLANT
p221
sbag1
(g2
g3
NtRp222
(dp223
g55
V10.1104/pp.41.6.1037
p224
sg51
VPLANT PHYSIOL
p225
sg53
V41
p226
sg86
(lp227
(VJONES
VL W
tp228
asg65
I1966
sg47
VLANT
p229
sbag1
(g2
g3
NtRp230
(dp231
g55
V10.1006/bbrc.2001.6201
p232
sg51
VBIOCHEM BIOPH RES CO
p233
sg53
V290
p234
sg86
(lp235
(VKANESAKI
VY
tp236
asg65
I2002
sg47
V339
p237
sbag1
(g2
g3
NtRp238
(dp239
g55
Nsg51
VPHOTOSYNTHESIS PHOTO
p240
sg53
V10
p241
sg86
(lp242
(VKE
VB
tp243
asg65
I2001
sg47
VHOTOSYNTHESIS
p244
sbag1
(g2
g3
NtRp245
(dp246
g55
V10.1007/BF00118301
p247
sg51
VPHOTOSYNTH RES
p248
sg53
V10
p249
sg86
(lp250
(VKLIMOV
VV V
tp251
asg65
I1986
sg47
VHOTOSYNTH
p252
sbag1
(g2
g3
NtRp253
(dp254
g55
V10.1016/0006-3002(56)90003-8
p255
sg51
VBIOCHIM BIOPHYS ACTA
p256
sg53
V21
p257
sg86
(lp258
(VKOK
VB
tp259
asg65
I1956
sg47
V234
p260
sbag1
(g2
g3
NtRp261
(dp262
g55
V10.1073/pnas.81.13.4070
p263
sg51
VP NATL ACAD SCI
p264
sg53
V81
p265
sg86
(lp266
(VKYLE
VD J
tp267
asg65
I1984
sg47
V4070
p268
sbag1
(g2
g3
NtRp269
(dp270
g55
V10.1038/227680a0
p271
sg51
VNATURE
p272
sg53
V227
p273
sg86
(lp274
(VLAEMMLI
VU K
tp275
asg65
I1970
sg47
V680
p276
sbag1
(g2
g3
NtRp277
(dp278
g55
V10.1105/tpc.12.3.419
p279
sg51
VPLANT CELL
p280
sg53
V12
p281
sg86
(lp282
(VLINDAHL
VM
tp283
asg65
I2000
sg47
VLANT
p284
sbag1
(g2
g3
NtRp285
(dp286
g55
V10.1046/j.1365-2958.1997.5641912.x
p287
sg51
VMOL MICROBIOL
p288
sg53
V25
p289
sg86
(lp290
(VLOS
VD A
tp291
asg65
I1997
sg47
V1167
p292
sbag1
(g2
g3
NtRp293
(dp294
g55
Nsg51
VJ PLANT PHYSIOL
p295
sg53
V155
p296
sg86
(lp297
(VLU
VC M
tp298
asg65
I1999
sg47
V740
p299
sbag1
(g2
g3
NtRp300
(dp301
g55
Nsg51
VJ BIOL CHEM
p302
sg53
V259
p303
sg86
(lp304
(VMARDER
VJ B
tp305
asg65
I1984
sg47
V3900
p306
sbag1
(g2
g3
NtRp307
(dp308
g55
V10.1016/0092-8674(89)90897-0
p309
sg51
VCELL
p310
sg53
V56
p311
sg86
(lp312
(VMATTOO
VA K
tp313
asg65
I1989
sg47
V241
p314
sbag1
(g2
g3
NtRp315
(dp316
g55
V10.1073/pnas.81.5.1380
p317
sg51
VP NATL ACAD SCI
p318
sg53
V81
p319
sg86
(lp320
(VMATTOO
VA K
tp321
asg65
I1984
sg47
V1380
p322
sbag1
(g2
g3
NtRp323
(dp324
g55
Nsg51
VJ PLANT PHYSIOL
p325
sg53
V134
p326
sg86
(lp327
(VNEALE
VP J
tp328
asg65
I1989
sg47
V619
p329
sbag1
(g2
g3
NtRp330
(dp331
g55
V10.1093/emboj/20.20.5587
p332
sg51
VEMBO J
p333
sg53
V20
p334
sg86
(lp335
(VNISHIYAMA
VY
tp336
asg65
I2001
sg47
V5587
p337
sbag1
(g2
g3
NtRp338
(dp339
g55
V10.1083/jcb.99.2.481
p340
sg51
VJ CELL BIOL
p341
sg53
V99
p342
sg86
(lp343
(VOHAD
VI
tp344
asg65
I1984
sg47
V481
p345
sbag1
(g2
g3
NtRp346
(dp347
g55
V10.1104/pp.67.1.176
p348
sg51
VPLANT PHYSIOL
p349
sg53
V67
p350
sg86
(lp351
(VONO
VT A
tp352
asg65
I1981
sg47
VLANT
p353
sbag1
(g2
g3
NtRp354
(dp355
g55
V10.1146/annurev.pp.35.060184.000311
p356
sg51
VANNU REV PLANT PHYS
p357
sg53
V35
p358
sg86
(lp359
(VPOWLES
VS B
tp360
asg65
I1984
sg47
V15
p361
sbag1
(g2
g3
NtRp362
(dp363
g55
V10.1111/j.1432-1033.1982.tb05914.x
p364
sg51
VEUR J BIOCHEM
p365
sg53
V124
p366
sg86
(lp367
(VREISFELD
VA
tp368
asg65
I1982
sg47
V125
p369
sbag1
(g2
g3
NtRp370
(dp371
g55
V10.1111/j.1432-1033.1988.tb14389.x
p372
sg51
VEUR J BIOCHEM
p373
sg53
V177
p374
sg86
(lp375
(VSCHUSTER
VG
tp376
asg65
I1988
sg47
V403
p377
sbag1
(g2
g3
NtRp378
(dp379
g55
Nsg51
VJ PLANT PHYSIOL
p380
sg53
V138
p381
sg86
(lp382
(VSHARMA
VP K
tp383
asg65
I1991
sg47
V614
p384
sbag1
(g2
g3
NtRp385
(dp386
g55
Nsg51
VJ BIOL CHEM
p387
sg53
V269
p388
sg86
(lp389
(VSHESTAKOV
VS V
tp390
asg65
I1994
sg47
V19354
p391
sbag1
(g2
g3
NtRp392
(dp393
g55
Nsg51
VBACTERIOL REV
p394
sg53
V35
p395
sg86
(lp396
(VSTANIER
VR Y
tp397
asg65
I1971
sg47
V171
p398
sbag1
(g2
g3
NtRp399
(dp400
g55
V10.1046/j.1365-2958.2001.02379.x
p401
sg51
VMOL MICROBIOL
p402
sg53
V40
p403
sg86
(lp404
(VSUZUKI
VI
tp405
asg65
I2001
sg47
V235
p406
sbag1
(g2
g3
NtRp407
(dp408
g55
Nsg51
VJ BIOL CHEM
p409
sg53
V270
p410
sg86
(lp411
(VTAGUCHI
VF
tp412
asg65
I1995
sg47
V10711
p413
sbag1
(g2
g3
NtRp414
(dp415
g55
Nsg51
VFEBS LETT
p416
sg53
V326
p417
sg86
(lp418
(VTAGUCHI
VF
tp419
asg65
I1993
sg47
V277
p420
sbag1
(g2
g3
NtRp421
(dp422
g55
Nsg51
VEMBO J
p423
sg53
V15
p424
sg86
(lp425
(VTASAKA
VY
tp426
asg65
I1996
sg47
V6416
p427
sbag1
(g2
g3
NtRp428
(dp429
g55
V10.1016/0014-5793(88)80207-2
p430
sg51
VFEBS LETT
p431
sg53
V237
p432
sg86
(lp433
(VTAYLOR
VM A
tp434
asg65
I1988
sg47
V229
p435
sbasb.