ccopy_reg
_reconstructor
p1
(ctethne.classes.paper
Paper
p2
c__builtin__
object
p3
NtRp4
(dp5
S'publisherCity'
p6
VROCKVILLE
p7
sS'reprintAddress'
p8
VTegeder, M (reprint author), Washington State Univ, Sch Biol Sci, Ctr Reprod Biol, Ctr Integrated Biotechnol, Pullman, WA 99164 USA.
p9
sS'WC'
p10
VPlant Sciences
p11
sS'GA'
p12
V776GK
p13
sS'abstract'
p14
VNodulated legumes receive their nitrogen via nitrogen-fixing rhizobia, which exist in a symbiotic relationship with the root system. In tropical legumes like French bean (Phaseolus vulgaris) or soybean (Glycine max), most of the fixed nitrogen is used for synthesis of the ureides allantoin and allantoic acid, the major long-distance transport forms of organic nitrogen in these species. The purpose of this investigation was to identify a ureide transporter that would allow us to further characterize the mechanisms regulating ureide partitioning in legume roots. A putative allantoin transporter (PvUPS1) was isolated from nodulated roots of French bean and was functionally characterized in an allantoin transport-deficient yeast mutant showing that PvUPS1 transports allantoin but also binds its precursors xanthine and uric acid. In beans, PvUPS1 was expressed throughout the plant body, with strongest expression in nodulated roots, source leaves, pods, and seed coats. In roots, PvUPS1 expression was dependent on the status of nodulation, with highest expression in nodules and roots of nodulated plants compared with non-nodulated roots supplied with ammonium nitrate or allantoin. In situ RNA hybridization localized PvUPS1 to the nodule endodermis and the endodermis and phloem of the nodule vasculature. These results strengthen our prediction that in bean nodules, PvUPS1 is involved in delivery of allantoin to the vascular bundle and loading into the nodule phloem.
p15
sS'pageEnd'
p16
I675
sS'publisherAddress'
p17
V15501 MONONA DRIVE, ROCKVILLE, MD 20855 USA
p18
sS'documentType'
p19
VArticle
p20
sS'subject'
p21
VPlant Sciences
p22
sS'isoSource'
p23
VPlant Physiol.
p24
sS'timesCited'
p25
(lp26
I25
aVZ9 25
p27
asS'PT'
p28
VJ
sS'title'
p29
VPvups1, An Allantoin Transporter In Nodulated Roots Of French Bean
p30
sS'ISSN'
p31
(lp32
V0032-0889
p33
aVJ9 PLANT PHYSIOL
p34
asS'authors_full'
p35
(lp36
(VPELISSIER
VHC
tp37
a(VFRERICH
VA
tp38
a(VDESIMONE
VM
tp39
a(VSCHUMACHER
VK
tp40
a(VTEGEDER
VM
tp41
asS'PG'
p42
I12
sS'PD'
p43
VFEB
p44
sS'pageStart'
p45
I664
sS'issue'
p46
I2
sS'journal'
p47
VPLANT PHYSIOLOGY
p48
sS'volume'
p49
V134
p50
sS'doi'
p51
V10.1104/pp.103.033365
p52
sS'emailAddress'
p53
Vtegeder@wsu.edu
p54
sS'authorAddress'
p55
(lp56
VWashington State Univ, Sch Biol Sci, Ctr Reprod Biol, Ctr Integrated Biotechnol, Pullman, WA 99164 USA.
p57
aVUniv Tubingen, Zentrum Mol Biol Pflanzen, D-72076 Tubingen, Germany.
p58
asS'date'
p59
I2004
sS'ER'
p60
V
sS'publisher'
p61
VAMER SOC PLANT BIOLOGISTS
p62
sS'authorKeywords'
p63
(lp64
VAMINO-ACID TRANSPORTERS
p65
aVUNGUICULATA-L WALP
p66
aVVICIA-FABA L
p67
aVNITROGEN-FIXATION
p68
aVSOYBEAN PLANTS
p69
aVPHASEOLUS-VULGARIS
p70
aVUREIDE SYNTHESIS
p71
aVXYLEM TRANSPORT
p72
aVPHLOEM TRANSFER
p73
aVGRAIN LEGUMES
p74
asS'language'
p75
VEnglish
p76
sS'wosid'
p77
VWOS:000189108100012
p78
sS'citationCount'
p79
I55
sS'authors_init'
p80
(lp81
(VPELISSIER
VH C
tp82
a(VFRERICH
VA
tp83
a(VDESIMONE
VM
tp84
a(VSCHUMACHER
VK
tp85
a(VTEGEDER
VM
tp86
asS'citedReferences'
p87
(lp88
g1
(g2
g3
NtRp89
(dp90
g51
V10.1105/tpc.13.4.953
p91
sg47
VPLANT CELL
p92
sg49
V13
p93
sg80
(lp94
(VARGYROU
VE
tp95
asg59
I2001
sg45
VLANT
p96
sbag1
(g2
g3
NtRp97
(dp98
g51
Nsg47
VPROKARYOTIC NITROGEN FIXATION
p99
sg49
Nsg80
(lp100
(VATKINS
VC
tp101
asg59
I2000
sg45
VROKARYOTIC
p102
sbag1
(g2
g3
NtRp103
(dp104
g51
Nsg47
VNITROGEN HIGHER PLAN
p105
sg49
Nsg80
(lp106
(VATKINS
VC A
tp107
asg59
I1990
sg45
V233
p108
sbag1
(g2
g3
NtRp109
(dp110
g51
Nsg47
VZ PFLANZENPHYSIOL
p111
sg49
V97
p112
sg80
(lp113
(VATKINS
VC A
tp114
asg59
I1980
sg45
V249
p115
sbag1
(g2
g3
NtRp116
(dp117
g51
Nsg47
VPLANT PHYSIOL
p118
sg49
V113
p119
sg80
(lp120
(VATKINS
VC A
tp121
asg59
I1997
sg45
VLANT
p122
sbag1
(g2
g3
NtRp123
(dp124
g51
V10.1104/pp.70.2.476
p125
sg47
VPLANT PHYSIOL
p126
sg49
V70
p127
sg80
(lp128
(VATKINS
VC A
tp129
asg59
I1982
sg45
VLANT
p130
sbag1
(g2
g3
NtRp131
(dp132
g51
V10.1023/A:1004331011493
p133
sg47
VPLANT SOIL
p134
sg49
V204
p135
sg80
(lp136
(VCECCATTO
VV M
tp137
asg59
I1998
sg45
VLANT
p138
sbag1
(g2
g3
NtRp139
(dp140
g51
Nsg47
VPLANT PHYSIOL
p141
sg49
V112
p142
sg80
(lp143
(VCHAYA
VM S
tp144
asg59
I1996
sg45
VLANT
p145
sbag1
(g2
g3
NtRp146
(dp147
g51
V10.1016/0168-9452(87)90072-0
p148
sg47
VPLANT SCI
p149
sg49
V50
p150
sg80
(lp151
(VCOSTIGAN
VS A
tp152
asg59
I1987
sg45
VLANT
p153
sbag1
(g2
g3
NtRp154
(dp155
g51
V10.1093/protein/10.6.673
p156
sg47
VPROTEIN ENG
p157
sg49
V10
p158
sg80
(lp159
(VCSERZO
VM
tp160
asg59
I1997
sg45
VROTEIN
p161
sbag1
(g2
g3
NtRp162
(dp163
g51
V10.1007/PL00000778
p164
sg47
VCELL MOL LIFE SCI
p165
sg49
V58
p166
sg80
(lp167
(VDAY
VD A
tp168
asg59
I2001
sg45
V61
p169
sbag1
(g2
g3
NtRp170
(dp171
g51
V10.1016/S0005-2736(00)00145-0
p172
sg47
VBBA
p173
sg49
V1465
p174
sg80
(lp175
(VDELROT
VS
tp176
asg59
I2000
sg45
V281
p177
sbag1
(g2
g3
NtRp178
(dp179
g51
V10.1016/S0005-2728(00)00139-0
p180
sg47
VBBA
p181
sg49
V1460
p182
sg80
(lp183
(VDENCHER
VN A
tp184
asg59
I2000
sg45
V192
p185
sbag1
(g2
g3
NtRp186
(dp187
g51
V10.1105/tpc.010458
p188
sg47
VPLANT CELL
p189
sg49
V14
p190
sg80
(lp191
(VDESIMONE
VM
tp192
asg59
I2002
sg45
VLANT
p193
sbag1
(g2
g3
NtRp194
(dp195
g51
V10.1002/yea.320070704
p196
sg47
VYEAST
p197
sg49
V7
sg80
(lp198
(VDOHMEN
VR J
tp199
asg59
I1991
sg45
V691
p200
sbag1
(g2
g3
NtRp201
(dp202
g51
Nsg47
VJ BIOL CHEM
p203
sg49
V270
p204
sg80
(lp205
(VFISCHER
VW N
tp206
asg59
I1995
sg45
V16315
p207
sbag1
(g2
g3
NtRp208
(dp209
g51
V10.1016/0014-5793(94)00533-8
p210
sg47
VFEBS LETT
p211
sg49
V347
p212
sg80
(lp213
(VFROMMER
VW B
tp214
asg59
I1994
sg45
V185
p215
sbag1
(g2
g3
NtRp216
(dp217
g51
V10.1105/tpc.12.2.291
p218
sg47
VPLANT CELL
p219
sg49
V12
p220
sg80
(lp221
(VGILLISSEN
VB
tp222
asg59
I2000
sg45
VLANT
p223
sbag1
(g2
g3
NtRp224
(dp225
g51
V10.1104/pp.68.1.65
p226
sg47
VPLANT PHYSIOL
p227
sg49
V68
p228
sg80
(lp229
(VHANKS
VJ F
tp230
asg59
I1981
sg45
VLANT
p231
sbag1
(g2
g3
NtRp232
(dp233
g51
V10.1007/BF01280733
p234
sg47
VPROTOPLASMA
p235
sg49
V200
p236
sg80
(lp237
(VHARRINGTON
VG N
tp238
asg59
I1997
sg45
VROTOPLASMA
p239
sbag1
(g2
g3
NtRp240
(dp241
g51
V10.1007/s00425-001-0715-z
p242
sg47
VPLANTA
p243
sg49
V215
p244
sg80
(lp245
(VHARTMANN
VK
tp246
asg59
I2002
sg45
VLANTA
p247
sbag1
(g2
g3
NtRp248
(dp249
g51
V10.1104/pp.70.1.1
p250
sg47
VPLANT PHYSIOL
p251
sg49
V70
p252
sg80
(lp253
(VHERRIDGE
VD F
tp254
asg59
I1982
sg45
VLANT
p255
sbag1
(g2
g3
NtRp256
(dp257
g51
V10.1104/pp.62.4.495
p258
sg47
VPLANT PHYSIOL
p259
sg49
V62
p260
sg80
(lp261
(VHERRIDGE
VD F
tp262
asg59
I1978
sg45
VLANT
p263
sbag1
(g2
g3
NtRp264
(dp265
g51
Nsg47
VWATER CULTURE METHOD
p266
sg49
Nsg80
(lp267
(VHOAGLAND
VD R
tp268
asg59
I1938
sg45
Nsbag1
(g2
g3
NtRp269
(dp270
g51
Nsg47
VBIOL CHEM HOPPESEYLE
p271
sg49
V347
p272
sg80
(lp273
(VHOFMANN
VK
tp274
asg59
I1993
sg45
V166
p275
sbag1
(g2
g3
NtRp276
(dp277
g51
V10.1111/j.1365-3040.1985.tb01386.x
p278
sg47
VPLANT CELL ENVIRON
p279
sg49
V8
sg80
(lp280
(VKAUR
VA
tp281
asg59
I1985
sg45
VLANT
p282
sbag1
(g2
g3
NtRp283
(dp284
g51
V10.1104/pp.70.5.1290
p285
sg47
VPLANT PHYSIOL
p286
sg49
V70
p287
sg80
(lp288
(VLAYZELL
VD B
tp289
asg59
I1982
sg45
VLANT
p290
sbag1
(g2
g3
NtRp291
(dp292
g51
V10.1080/01904160009382072
p293
sg47
VJ PLANT NUTR
p294
sg49
V23
p295
sg80
(lp296
(VLIMA
VJ D
tp297
asg59
I2000
sg45
V937
p298
sbag1
(g2
g3
NtRp299
(dp300
g51
V10.1038/nature01527
p301
sg47
VNATURE
p302
sg49
V422
p303
sg80
(lp304
(VLODWIG
VE M
tp305
asg59
I2003
sg45
V722
p306
sbag1
(g2
g3
NtRp307
(dp308
g51
Nsg47
VPLANT CELL PHYSIOL
p309
sg49
V18
p310
sg80
(lp311
(VMATSUMOTO
VT
tp312
asg59
I1977
sg45
VLANT
p313
sbag1
(g2
g3
NtRp314
(dp315
g51
Nsg47
VPLANT CELL PHYSIOL
p316
sg49
V18
p317
sg80
(lp318
(VMATSUMOTO
VT
tp319
asg59
I1977
sg45
VLANT
p320
sbag1
(g2
g3
NtRp321
(dp322
g51
Nsg47
VPLANT CELL PHYSIOL
p323
sg49
V18
p324
sg80
(lp325
(VMATSUMOTO
VT
tp326
asg59
I1977
sg45
VLANT
p327
sbag1
(g2
g3
NtRp328
(dp329
g51
V10.1104/pp.64.3.411
p330
sg47
VPLANT PHYSIOL
p331
sg49
V64
p332
sg80
(lp333
(VMCCLURE
VP R
tp334
asg59
I1979
sg45
VLANT
p335
sbag1
(g2
g3
NtRp336
(dp337
g51
V10.1046/j.1365-313X.2001.01129.x
p338
sg47
VPLANT J
p339
sg49
V28
p340
sg80
(lp341
(VMIRANDA
VM
tp342
asg59
I2001
sg45
VLANT
p343
sbag1
(g2
g3
NtRp344
(dp345
g51
V10.1104/pp.103.024422
p346
sg47
VPLANT PHYSIOL
p347
sg49
V132
p348
sg80
(lp349
(VMIRANDA
VM
tp350
asg59
I2003
sg45
VLANT
p351
sbag1
(g2
g3
NtRp352
(dp353
g51
V10.1023/A:1006321221368
p354
sg47
VPLANT MOL BIOL
p355
sg49
V41
p356
sg80
(lp357
(VMONTAMAT
VF
tp358
asg59
I1999
sg45
VLANT
p359
sbag1
(g2
g3
NtRp360
(dp361
g51
V10.1007/BF00385400
p362
sg47
VPLANTA
p363
sg49
V122
p364
sg80
(lp365
(VPATE
VJ S
tp366
asg59
I1975
sg45
VLANTA
p367
sbag1
(g2
g3
NtRp368
(dp369
g51
V10.1104/pp.65.5.961
p370
sg47
VPLANT PHYSIOL
p371
sg49
V65
p372
sg80
(lp373
(VPATE
VJ S
tp374
asg59
I1980
sg45
VLANT
p375
sbag1
(g2
g3
NtRp376
(dp377
g51
V10.1104/pp.74.2.329
p378
sg47
VPLANT PHYSIOL
p379
sg49
V74
p380
sg80
(lp381
(VRAINBIRD
VR M
tp382
asg59
I1984
sg45
VLANT
p383
sbag1
(g2
g3
NtRp384
(dp385
g51
Nsg47
VSYST BIOL
p386
sg49
V47
p387
sg80
(lp388
(VROGERS
VJ S
tp389
asg59
I1998
sg45
V77
p390
sbag1
(g2
g3
NtRp391
(dp392
g51
V10.1016/0968-0004(90)90281-F
p393
sg47
VTRENDS BIOCHEM SCI
p394
sg49
V15
p395
sg80
(lp396
(VSARASTE
VM
tp397
asg59
I1990
sg45
V430
p398
sbag1
(g2
g3
NtRp399
(dp400
g51
V10.1146/annurev.arplant.37.1.539
p401
sg47
VANNU REV PLANT PHYS
p402
sg49
V37
p403
sg80
(lp404
(VSCHUBERT
VK R
tp405
asg59
I1986
sg45
V539
p406
sbag1
(g2
g3
NtRp407
(dp408
g51
V10.1104/pp.119.1.289
p409
sg47
VPLANT PHYSIOL
p410
sg49
V119
p411
sg80
(lp412
(VSERRAJ
VR
tp413
asg59
I1999
sg45
VLANT
p414
sbag1
(g2
g3
NtRp415
(dp416
g51
V10.1016/0003-9861(83)90229-1
p417
sg47
VARCH BIOCHEM BIOPHYS
p418
sg49
V224
p419
sg80
(lp420
(VSHELP
VB J
tp421
asg59
I1983
sg45
V429
p422
sbag1
(g2
g3
NtRp423
(dp424
g51
V10.1016/S0005-2736(00)00141-3
p425
sg47
VBBA
p426
sg49
V1465
p427
sg80
(lp428
(VSMITH
VF W
tp429
asg59
I2000
sg45
V236
p430
sbag1
(g2
g3
NtRp431
(dp432
g51
Nsg47
VJ BIOL CHEM
p433
sg49
V268
p434
sg80
(lp435
(VSMITH
VM T
tp436
asg59
I1993
sg45
V10746
p437
sbag1
(g2
g3
NtRp438
(dp439
g51
V10.1104/pp.010912
p440
sg47
VPLANT PHYSIOL
p441
sg49
V128
p442
sg80
(lp443
(VSMITH
VP M C
tp444
asg59
I2002
sg45
VLANT
p445
sbag1
(g2
g3
NtRp446
(dp447
g51
Nsg47
VProceedings Sixth International Conference on Intelligent Systems for Molecular Biology
p448
sg49
Nsg80
(lp449
(VSONNHAMMER
VE L L
tp450
asg59
I1998
sg45
Vroceedings
p451
sbag1
(g2
g3
NtRp452
(dp453
g51
V10.1104/pp.63.3.478
p454
sg47
VPLANT PHYSIOL
p455
sg49
V63
p456
sg80
(lp457
(VSTREETER
VJ G
tp458
asg59
I1979
sg45
VLANT
p459
sbag1
(g2
g3
NtRp460
(dp461
g51
V10.1104/pp.122.2.319
p462
sg47
VPLANT PHYSIOL
p463
sg49
V122
p464
sg80
(lp465
(VTEGEDER
VM
tp466
asg59
I2000
sg45
VLANT
p467
sbag1
(g2
g3
NtRp468
(dp469
g51
V10.1016/S0031-9422(00)84147-3
p470
sg47
VPHYTOCHEMISTRY
p471
sg49
V20
p472
sg80
(lp473
(VTHOMAS
VR J
tp474
asg59
I1981
sg45
VHYTOCHEMISTRY
p475
sbag1
(g2
g3
NtRp476
(dp477
g51
Nsg47
VJ EXP BOT
p478
sg49
V31
p479
sg80
(lp480
(VTHOMAS
VR J
tp481
asg59
I2000
sg45
V409
p482
sbag1
(g2
g3
NtRp483
(dp484
g51
V10.1111/j.1469-8137.1979.tb01660.x
p485
sg47
VNEW PHYTOL
p486
sg49
V82
p487
sg80
(lp488
(VTHOMAS
VR J
tp489
asg59
I1979
sg45
V657
p490
sbag1
(g2
g3
NtRp491
(dp492
g51
V10.1016/0304-4211(84)90162-7
p493
sg47
VPLANT SCI LETT
p494
sg49
V35
p495
sg80
(lp496
(VVANBEL
VA J E
tp497
asg59
I1984
sg45
VLANT
p498
sbag1
(g2
g3
NtRp499
(dp500
g51
V10.1016/S0968-0004(01)02054-0
p501
sg47
VTRENDS BIOCHEM SCI
p502
sg49
V27
p503
sg80
(lp504
(VWIPF
VD
tp505
asg59
I2002
sg45
V139
p506
sbasb.