ccopy_reg
_reconstructor
p1
(ctethne.classes.paper
Paper
p2
c__builtin__
object
p3
NtRp4
(dp5
S'publisherCity'
p6
VROCKVILLE
p7
sS'reprintAddress'
p8
VGoffman, FD (reprint author), Michigan State Univ, Dept Plant Biol, E Lansing, MI 48824 USA.
p9
sS'WC'
p10
VPlant Sciences
p11
sS'GA'
p12
V955DX
p13
sS'abstract'
p14
VThe conversion of photosynthate to seed storage reserves is crucial to plant fitness and agricultural production, yet quantitative information about the efficiency of this process is lacking. To measure metabolic efficiency in developing seeds, rapeseed (Brassica napus) embryos were cultured in media in which all carbon sources were [U-C-14]-labeled and their conversion into CO2, oil, protein, and other biomass was determined. The conversion efficiency of the supplied carbon into seed storage reserves was very high. When provided with 0, 50, or 150 mu mol m-(2) s-(1) light, the proportion of carbon taken up by embryos that was recovered in biomass was 60 % to 64 %, 77 % to 86 %, and 85 % to 95%, respectively. Light not only improved the efficiency of carbon storage, but also increased the growth rate, the proportion of C-14 recovered in oil relative to protein, and the fixation of external (CO2)-C-14 into biomass. Embryos grown at 50 mu mol m(-2) s(-1) in the presence of 5 mu M 1,1-dimethyl-3-(3,4-dichlorophenyl) urea ( an inhibitor of photosystem II) were reduced in total biomass and oil synthesis by 3.2-fold and 2.8-fold, respectively, to the levels observed in the dark. To explore if the reduced growth and carbon conversion efficiency in dark were related to oxygen supplied by photosystem II, embryos and siliques were cultured with increased oxygen. The carbon conversion efficiency of embryos remained unchanged when oxygen levels were increased 3-fold. Increasing the O-2 levels surrounding siliques from 21 % to 60 % did not increase oil synthesis rates either at 1,000 mu mol m(-2) s(-1) or in the dark. We conclude that light increases the growth, efficiency of carbon storage, and oil synthesis in developing rapeseed embryos primarily by providing reductant and/or ATP.
p15
sS'pageEnd'
p16
I2279
sS'date'
p17
I2005
sS'documentType'
p18
VArticle
p19
sS'subject'
p20
VPlant Sciences
p21
sS'isoSource'
p22
VPlant Physiol.
p23
sS'timesCited'
p24
(lp25
I50
aVZ9 55
p26
asS'PT'
p27
VJ
sS'title'
p28
VLight Enables A Very High Efficiency Of Carbon Storage In Developing Embryos Of Rapeseed
p29
sS'ISSN'
p30
(lp31
V0032-0889
p32
aVJ9 PLANT PHYSIOL
p33
asS'authors_full'
p34
(lp35
(VGOFFMAN
VFD
tp36
a(VALONSO
VAP
tp37
a(VSCHWENDER
VJ
tp38
a(VSHACHARHILL
VY
tp39
a(VOHLROGGE
VJB
tp40
asS'PG'
p41
I11
sS'PD'
p42
VAUG
p43
sS'pageStart'
p44
I2269
sS'issue'
p45
I4
sS'RI'
p46
VShachar-Hill, Yair/B-6165-2013
p47
sS'journal'
p48
VPLANT PHYSIOLOGY
p49
sS'volume'
p50
V138
p51
sS'doi'
p52
V10.1104/pp.105.063628
p53
sS'emailAddress'
p54
Vgoffman@msu.edu
p55
sS'authorAddress'
p56
VMichigan State Univ, Dept Plant Biol, E Lansing, MI 48824 USA.
p57
sS'publisherAddress'
p58
V15501 MONONA DRIVE, ROCKVILLE, MD 20855 USA
p59
sS'ER'
p60
V
sS'publisher'
p61
VAMER SOC PLANT BIOLOGISTS
p62
sS'authorKeywords'
p63
(lp64
VBRASSICA-NAPUS EMBRYOS
p65
aVFATTY-ACID SYNTHESIS
p66
aVANABOLIC PATHWAYS
p67
aVOILSEED RAPE
p68
aVSEED SIZE
p69
aVMETABOLISM
p70
aVSEEDLINGS
p71
aVECONOMY
p72
aVGROWTH
p73
aVOXYGEN
p74
asS'language'
p75
VEnglish
p76
sS'wosid'
p77
VWOS:000231206600041
p78
sS'citationCount'
p79
I40
sS'authors_init'
p80
(lp81
(VGOFFMAN
VF D
tp82
a(VALONSO
VA P
tp83
a(VSCHWENDER
VJ
tp84
a(VSHACHARHILL
VY
tp85
a(VOHLROGGE
VJ B
tp86
asS'citedReferences'
p87
(lp88
g1
(g2
g3
NtRp89
(dp90
g52
Nsg48
VBOT ACTA
p91
sg50
V111
p92
sg80
(lp93
(VAACH
VH
tp94
asg17
I1998
sg44
V123
p95
sbag1
(g2
g3
NtRp96
(dp97
g52
V10.2307/1940479
p98
sg48
VECOLOGY
p99
sg50
V74
p100
sg80
(lp101
(VARMSTRONG
VD P
tp102
asg17
I1993
sg44
V1092
p103
sbag1
(g2
g3
NtRp104
(dp105
g52
V10.1104/pp.118.1.183
p106
sg48
VPLANT PHYSIOL
p107
sg50
V118
p108
sg80
(lp109
(VBAO
VX M
tp110
asg17
I1998
sg44
VLANT
p111
sbag1
(g2
g3
NtRp112
(dp113
g52
V10.1071/AR9580299
p114
sg48
VAUSTRALIAN JOUR AGRIC RES
p115
sg50
V9
sg80
(lp116
(VBLACK
VJ N
tp117
asg17
I1958
sg44
V299
p118
sbag1
(g2
g3
NtRp119
(dp120
g52
V10.1007/BF00397388
p121
sg48
VPLANTA
p122
sg50
V166
p123
sg80
(lp124
(VBROWSE
VJ
tp125
asg17
I1985
sg44
VLANTA
p126
sbag1
(g2
g3
NtRp127
(dp128
g52
V10.2307/2265501
p129
sg48
VECOLOGY
p130
sg50
V77
p131
sg80
(lp132
(VBURKE
VM J W
tp133
asg17
I1996
sg44
V776
p134
sbag1
(g2
g3
NtRp135
(dp136
g52
V10.1007/s00253-002-1009-5
p137
sg48
VAPPL MICROBIOL BIOT
p138
sg50
V59
p139
sg80
(lp140
(VCONVERTI
VA
tp141
asg17
I2002
sg44
V303
p142
sbag1
(g2
g3
NtRp143
(dp144
g52
Nsg48
VJ BIOL CHEM
p145
sg50
V270
p146
sg80
(lp147
(VDIEUAIDENOUBHANI
VM
tp148
asg17
I1995
sg44
V13147
p149
sbag1
(g2
g3
NtRp150
(dp151
g52
V10.1093/jxb/47.11.1763
p152
sg48
VJ EXP BOT
p153
sg50
V47
p154
sg80
(lp155
(VEASTMOND
VP
tp156
asg17
I1996
sg44
V1763
p157
sbag1
(g2
g3
NtRp158
(dp159
g52
Nsg48
VSEED BIOL YIELD GRAI
p160
sg50
Nsg80
(lp161
(VEGLI
VD B
tp162
asg17
I1998
sg44
V15
p163
sbag1
(g2
g3
NtRp164
(dp165
g52
V10.1104/pp.60.3.412
p166
sg48
VPLANT PHYSIOL
p167
sg50
V60
p168
sg80
(lp169
(VFLINN
VA M
tp170
asg17
I1977
sg44
VLANT
p171
sbag1
(g2
g3
NtRp172
(dp173
g52
Nsg48
VJ PLANT PHYSIOL
p174
sg50
V143
p175
sg80
(lp176
(VFUHRMANN
VJ
tp177
asg17
I1994
sg44
V565
p178
sbag1
(g2
g3
NtRp179
(dp180
g52
V10.1093/jxb/erh190
p181
sg48
VJ EXP BOT
p182
sg50
V55
p183
sg80
(lp184
(VFURBANK
VR T
tp185
asg17
I2004
sg44
V1687
p186
sbag1
(g2
g3
NtRp187
(dp188
g52
V10.1016/S1369-5266(03)00038-4
p189
sg48
VCURR OPIN PLANT BIOL
p190
sg50
V6
sg80
(lp191
(VGEIGENBERGER
VP
tp192
asg17
I2003
sg44
V247
p193
sbag1
(g2
g3
NtRp194
(dp195
g52
V10.1016/j.plaphy.2004.07.003
p196
sg48
VPLANT PHYSIOL BIOCH
p197
sg50
V42
p198
sg80
(lp199
(VGOFFMAN
VF D
tp200
asg17
I2004
sg44
VLANT
p201
sbag1
(g2
g3
NtRp202
(dp203
g52
V10.2307/2257624
p204
sg48
VJ ECOL
p205
sg50
V53
p206
sg80
(lp207
(VGRIME
VJ P
tp208
asg17
I1965
sg44
V621
p209
sbag1
(g2
g3
NtRp210
(dp211
g52
V10.1007/BF00389011
p212
sg48
VOECOLOGIA
p213
sg50
V53
p214
sg80
(lp215
(VHOWE
VH F
tp216
asg17
I1982
sg44
V347
p217
sbag1
(g2
g3
NtRp218
(dp219
g52
Nsg48
VPLANT PHYSIOL
p220
sg50
V106
p221
sg80
(lp222
(VJOHNSONFLANAGAN
VA M
tp223
asg17
I1994
sg44
VLANT
p224
sbag1
(g2
g3
NtRp225
(dp226
g52
Nsg48
VAUST J PLANT PHYSIOL
p227
sg50
V25
p228
sg80
(lp229
(VKING
VS P
tp230
asg17
I1998
sg44
V377
p231
sbag1
(g2
g3
NtRp232
(dp233
g52
V10.1007/BF01258680
p234
sg48
VPLANTA
p235
sg50
V201
p236
sg80
(lp237
(VKOCKENBERGER
VW
tp238
asg17
I1997
sg44
VLANTA
p239
sbag1
(g2
g3
NtRp240
(dp241
g52
V10.1111/j.1399-3054.1962.tb08052.x
p242
sg48
VPHYSIOL PLANTARUM
p243
sg50
V15
p244
sg80
(lp245
(VMURASHIGE
VT
tp246
asg17
I1962
sg44
VHYSIOL
p247
sbag1
(g2
g3
NtRp248
(dp249
g52
Nsg48
VPHYSL BACT CELL MOL
p250
sg50
Nsg80
(lp251
(VNEIDHARDT
VF C
tp252
asg17
I1990
sg44
VHYSL
p253
sbag1
(g2
g3
NtRp254
(dp255
g52
V10.1128/JB.182.4.1136-1143.2000
p256
sg48
VJ BACTERIOL
p257
sg50
V182
p258
sg80
(lp259
(VNOVAK
VL
tp260
asg17
I2000
sg44
V1136
p261
sbag1
(g2
g3
NtRp262
(dp263
g52
V10.1104/pp.59.3.506
p264
sg48
VPLANT PHYSIOL
p265
sg50
V59
p266
sg80
(lp267
(VPATE
VJ S
tp268
asg17
I1977
sg44
VLANT
p269
sbag1
(g2
g3
NtRp270
(dp271
g52
V10.1104/pp.77.1.142
p272
sg48
VPLANT PHYSIOL
p273
sg50
V77
p274
sg80
(lp275
(VPEOPLES
VM B
tp276
asg17
I1985
sg44
VLANT
p277
sbag1
(g2
g3
NtRp278
(dp279
g52
V10.1139/cjb-77-10-1439
p280
sg48
VCAN J BOT
p281
sg50
V77
p282
sg80
(lp283
(VPORTERFIELD
VD M
tp284
asg17
I1999
sg44
V1439
p285
sbag1
(g2
g3
NtRp286
(dp287
g52
V10.1016/S0163-7827(01)00023-6
p288
sg48
VPROG LIPID RES
p289
sg50
V41
p290
sg80
(lp291
(VRAWSTHORNE
VS
tp292
asg17
I2002
sg44
VROG
p293
sbag1
(g2
g3
NtRp294
(dp295
g52
V10.1074/jbc.M206366200
p296
sg48
VJ BIOL CHEM
p297
sg50
V277
p298
sg80
(lp299
(VRONTEIN
VD
tp300
asg17
I2002
sg44
V43948
p301
sbag1
(g2
g3
NtRp302
(dp303
g52
V10.1104/pp.104.047977
p304
sg48
VPLANT PHYSIOL
p305
sg50
V136
p306
sg80
(lp307
(VRUUSKA
VS A
tp308
asg17
I2004
sg44
VLANT
p309
sbag1
(g2
g3
NtRp310
(dp311
g52
V10.1021/bp0200292
p312
sg48
VBIOTECHNOL PROGR
p313
sg50
V18
p314
sg80
(lp315
(VSAEZ
VJ C
tp316
asg17
I2002
sg44
V1400
p317
sbag1
(g2
g3
NtRp318
(dp319
g52
Nsg48
VSAS US GUID STAT VER
p320
sg50
Nsg80
(lp321
(VSAS
VINSTITUTE
tp322
asg17
I1985
sg44
V956
p323
sbag1
(g2
g3
NtRp324
(dp325
g52
V10.1038/nature03145
p326
sg48
VNATURE
p327
sg50
V432
p328
sg80
(lp329
(VSCHWENDER
VJ
tp330
asg17
I2004
sg44
V779
p331
sbag1
(g2
g3
NtRp332
(dp333
g52
V10.1074/jbc.M303432200
p334
sg48
VJ BIOL CHEM
p335
sg50
V278
p336
sg80
(lp337
(VSCHWENDER
VJ
tp338
asg17
I2003
sg44
V29442
p339
sbag1
(g2
g3
NtRp340
(dp341
g52
V10.1104/pp.004275
p342
sg48
VPLANT PHYSIOL
p343
sg50
V130
p344
sg80
(lp345
(VSCHWENDER
VJ
tp346
asg17
I2002
sg44
VLANT
p347
sbag1
(g2
g3
NtRp348
(dp349
g52
Nsg48
VPLANT TISSUE CULTURE
p350
sg50
Nsg80
(lp351
(VSMITH
VR H
tp352
asg17
I2000
sg44
VLANT
p353
sbag1
(g2
g3
NtRp354
(dp355
g52
V[10.1007/s00442-003-1237-0, 10.1007/s00442-003-1383-4]
p356
sg48
VOECOLOGIA
p357
sg50
V135
p358
sg80
(lp359
(VSOUSA
VW P
tp360
asg17
I2003
sg44
V564
p361
sbag1
(g2
g3
NtRp362
(dp363
g52
V10.2307/1938318
p364
sg48
VECOLOGY
p365
sg50
V65
p366
sg80
(lp367
(VSTANTON
VM L
tp368
asg17
I1984
sg44
V1105
p369
sbag1
(g2
g3
NtRp370
(dp371
g52
V10.1046/j.1365-2745.1998.00279.x
p372
sg48
VJ ECOL
p373
sg50
V86
p374
sg80
(lp375
(VVAUGHTON
VG
tp376
asg17
I1998
sg44
V563
p377
sbag1
(g2
g3
NtRp378
(dp379
g52
V10.1104/pp.103.031963
p380
sg48
VPLANT PHYSIOL
p381
sg50
V133
p382
sg80
(lp383
(VVIGEOLAS
VH
tp384
asg17
I2003
sg44
VLANT
p385
sbag1
(g2
g3
NtRp386
(dp387
g52
V10.1093/jxb/42.8.1013
p388
sg48
VJ EXP BOT
p389
sg50
V42
p390
sg80
(lp391
(VWATSON
VP A
tp392
asg17
I1991
sg44
V1013
p393
sbasb.