ccopy_reg
_reconstructor
p1
(ctethne.classes.paper
Paper
p2
c__builtin__
object
p3
NtRp4
(dp5
S'publisherCity'
p6
VROCKVILLE
p7
sS'reprintAddress'
p8
VRomano, PGN (reprint author), Univ Calif Berkeley, Dept Plant & Microbial Biol, Berkeley, CA 94720 USA.
p9
sS'WC'
p10
VPlant Sciences
p11
sS'GA'
p12
V812SY
p13
sS'pageEnd'
p14
I1247
sS'date'
p15
I2004
sS'documentType'
p16
VArticle
p17
sS'subject'
p18
VPlant Sciences
p19
sS'isoSource'
p20
VPlant Physiol.
p21
sS'timesCited'
p22
(lp23
I18
aVZ9 20
p24
asS'PT'
p25
VJ
sS'title'
p26
VArabidopsis Atcyp20-2 Is A Light-Regulated Cyclophilin-Type Peptidyl-Prolyl Cis-Trans Isomerase Associated With The Photosynthetic Membranes
p27
sS'ISSN'
p28
(lp29
V0032-0889
p30
aVJ9 PLANT PHYSIOL
p31
asS'authors_full'
p32
(lp33
(VROMANO
VPGN
tp34
a(VEDVARDSSON
VA
tp35
a(VRUBAN
VAV
tp36
a(VANDERSSON
VB
tp37
a(VVENER
VAV
tp38
a(VGRAY
VJE
tp39
a(VHORTON
VP
tp40
asS'PG'
p41
I4
sS'PD'
p42
VAPR
p43
sS'pageStart'
p44
I1244
sS'issue'
p45
I4
sS'RI'
p46
VAndersson , Bertil/C-9328-2009; Horton, Peter/A-3958-2012
p47
sS'journal'
p48
VPLANT PHYSIOLOGY
p49
sS'volume'
p50
V134
p51
sS'doi'
p52
V10.1104/pp.104.041186
p53
sS'emailAddress'
p54
Vp.romano@sheffield.ac.uk
p55
sS'authorAddress'
p56
(lp57
VUniv Sheffield, Dept Mol Biol & Biotechnol, Western Bank, Sheffield S10 2TN, S Yorkshire, England.
p58
aVLinkoping Univ, Div Cell Biol, SE-58185 Linkoping, Sweden.
p59
aVStockholm Univ, Arrhenius Labs Nat Sci, Dept Biochem & Biophys, SE-10691 Stockholm, Sweden.
p60
asS'publisherAddress'
p61
V15501 MONONA DRIVE, ROCKVILLE, MD 20855 USA
p62
sS'ER'
p63
V
sS'publisher'
p64
VAMER SOC PLANT BIOLOGISTS
p65
sS'authorKeywords'
p66
(lp67
VPHOTOSYSTEM-II MEMBRANES
p68
aVTHYLAKOID MEMBRANES
p69
aVHARVESTING ANTENNA
p70
aVPLANT CHLOROPLASTS
p71
aVPIGMENT-BINDING
p72
aVORGANIZATION
p73
aVPROTEIN
p74
aVTHALIANA
p75
aVLUMEN
p76
aVACCLIMATION
p77
asS'OI'
p78
VHorton, Peter/0000-0002-6095-1460
p79
sS'language'
p80
VEnglish
p81
sS'wosid'
p82
VWOS:000220860400002
p83
sS'citationCount'
p84
I23
sS'authors_init'
p85
(lp86
(VROMANO
VP G N
tp87
a(VEDVARDSSON
VA
tp88
a(VRUBAN
VA V
tp89
a(VANDERSSON
VB
tp90
a(VVENER
VA V
tp91
a(VGRAY
VJ E
tp92
a(VHORTON
VP
tp93
asS'citedReferences'
p94
(lp95
g1
(g2
g3
NtRp96
(dp97
g52
Nsg48
VAUST J PLANT PHYSIOL
p98
sg50
V15
p99
sg85
(lp100
(VANDERSON
VJ M
tp101
asg15
I1988
sg44
V11
p102
sbag1
(g2
g3
NtRp103
(dp104
g52
V10.1007/s004250100556
p105
sg48
VPLANTA
p106
sg50
V213
p107
sg85
(lp108
(VBAILEY
VS
tp109
asg15
I2001
sg44
VLANTA
p110
sbag1
(g2
g3
NtRp111
(dp112
g52
V10.1046/j.1432-1327.1999.00876.x
p113
sg48
VEUR J BIOCHEM
p114
sg50
V266
p115
sg85
(lp116
(VBOEKEMA
VE J
tp117
asg15
I1999
sg44
V444
p118
sbag1
(g2
g3
NtRp119
(dp120
g52
V10.1006/jmbi.2000.4037
p121
sg48
VJ MOL BIOL
p122
sg50
V301
p123
sg85
(lp124
(VBOEKEMA
VE J
tp125
asg15
I2000
sg44
V1123
p126
sbag1
(g2
g3
NtRp127
(dp128
g52
V10.1021/bi9827161
p129
sg48
VBIOCHEMISTRY
p130
sg50
V38
p131
sg85
(lp132
(VBOEKEMA
VE J
tp133
asg15
I1999
sg44
V2233
p134
sbag1
(g2
g3
NtRp135
(dp136
g52
V10.1111/j.1749-6632.1964.tb14213.x
p137
sg48
VANN NY ACAD SCI
p138
sg50
V121
p139
sg85
(lp140
(VDAVIS
VB J
tp141
asg15
I1964
sg44
V404
p142
sbag1
(g2
g3
NtRp143
(dp144
g52
V10.1016/S0014-5793(03)00366-1
p145
sg48
VFEBS LETT
p146
sg50
V542
p147
sg85
(lp148
(VEDVARDSSON
VA
tp149
asg15
I2003
sg44
V137
p150
sbag1
(g2
g3
NtRp151
(dp152
g52
V10.1105/tpc.017814
p153
sg48
VPLANT CELL
p154
sg50
V16
p155
sg85
(lp156
(VFRISO
VG
tp157
asg15
I2004
sg44
VLANT
p158
sbag1
(g2
g3
NtRp159
(dp160
g52
V10.1093/emboj/17.6.1577
p161
sg48
VEMBO J
p162
sg50
V17
p163
sg85
(lp164
(VFULGOSI
VH
tp165
asg15
I1998
sg44
V1577
p166
sbag1
(g2
g3
NtRp167
(dp168
g52
V10.1021/bi00035a019
p169
sg48
VBIOCHEMISTRY
p170
sg50
V34
p171
sg85
(lp172
(VFUNK
VC
tp173
asg15
I1995
sg44
V11133
p174
sbag1
(g2
g3
NtRp175
(dp176
g52
V10.1073/pnas.222550399
p177
sg48
VP NATL ACAD SCI USA
p178
sg50
V99
p179
sg85
(lp180
(VGUPTA
VR
tp181
asg15
I2002
sg44
V15806
p182
sbag1
(g2
g3
NtRp183
(dp184
g52
V10.1021/bi991439a
p185
sg48
VBIOCHEMISTRY
p186
sg50
V38
p187
sg85
(lp188
(VHEINEMANN
VB
tp189
asg15
I1999
sg44
V14088
p190
sbag1
(g2
g3
NtRp191
(dp192
g52
Nsg48
VPLANT PHYSIOL
p193
sg50
V109
p194
sg85
(lp195
(VKUTKATT
VR
tp196
asg15
I1995
sg44
VLANT
p197
sbag1
(g2
g3
NtRp198
(dp199
g52
V10.1007/BF00028524
p200
sg48
VPHOTOSYNTH RES
p201
sg50
V5
sg85
(lp202
(VLEONG
VT Y
tp203
asg15
I1984
sg44
VHOTOSYNTH
p204
sbag1
(g2
g3
NtRp205
(dp206
g52
Nsg48
VJ BIOL CHEM
p207
sg50
V269
p208
sg85
(lp209
(VLIPPUNER
VV
tp210
asg15
I1994
sg44
V7863
p211
sbag1
(g2
g3
NtRp212
(dp213
g52
V10.1105/tpc.010304
p214
sg48
VPLANT CELL
p215
sg50
V14
p216
sg85
(lp217
(VPELTIER
VJ B
tp218
asg15
I2002
sg44
VLANT
p219
sbag1
(g2
g3
NtRp220
(dp221
g52
V10.1038/nature01344
p222
sg48
VNATURE
p223
sg50
V421
p224
sg85
(lp225
(VRUBAN
VA V
tp226
asg15
I2003
sg44
V648
p227
sbag1
(g2
g3
NtRp228
(dp229
g52
Nsg48
VMOL CLONING LAB MANU
p230
sg50
Nsg85
(lp231
(VSAMBROOK
VJ
tp232
asg15
I1989
sg44
Nsbag1
(g2
g3
NtRp233
(dp234
g52
V10.1074/jbc.M108575200
p235
sg48
VJ BIOL CHEM
p236
sg50
V277
p237
sg85
(lp238
(VSCHUBERT
VM
tp239
asg15
I2002
sg44
V8354
p240
sbag1
(g2
g3
NtRp241
(dp242
g52
V10.1023/A:1006476213540
p243
sg48
VPHOTOSYNTH RES
p244
sg50
V64
p245
sg85
(lp246
(VVAN
VROON H
tp247
asg15
I2000
sg44
VHOTOSYNTH
p248
sbag1
(g2
g3
NtRp249
(dp250
g52
V10.1021/bi990971v
p251
sg48
VBIOCHEMISTRY
p252
sg50
V38
p253
sg85
(lp254
(VVENER
VA V
tp255
asg15
I1999
sg44
V14955
p256
sbag1
(g2
g3
NtRp257
(dp258
g52
Nsg48
VZ NATURFORSCH C
p259
sg50
V41
p260
sg85
(lp261
(VWILD
VA
tp262
asg15
I1986
sg44
V597
p263
sbag1
(g2
g3
NtRp264
(dp265
g52
V10.1046/j.0014-2956.2001.02505.x
p266
sg48
VEUR J BIOCHEM
p267
sg50
V268
p268
sg85
(lp269
(VYAKUSHEVSKA
VA E
tp270
asg15
I2001
sg44
V6020
p271
sbasb.