ccopy_reg
_reconstructor
p1
(ctethne.classes.paper
Paper
p2
c__builtin__
object
p3
NtRp4
(dp5
S'publisherCity'
p6
VROCKVILLE
p7
sS'reprintAddress'
p8
VBaldwin, IT (reprint author), Acad Sci Czech Republ, Inst Organ Chem & Biochem, Dept Prot Biochem, Prague 16610, Czech Republic.
p9
sS'WC'
p10
VPlant Sciences
p11
sS'GA'
p12
V962WZ
p13
sS'abstract'
p14
VTrypsin proteinase inhibitors (TPIs) of Nicotiana attenuata are major antiherbivore defenses that increase dramatically in leaves after attack or methyl jasmonate (MeJA) elicitation. To understand the elicitation process, we characterized the proteolytic fragmentation and release of TPIs from a multidomain precursor by proteases in MeJA-elicited and unelicited plants. A set of approximately 6-kD TPI peptides was purified from leaves, and their posttranslational modifications were characterized. In MeJA-elicited plants, the diversity of TPI structures was greater than the precursor gene predicted. This elicited structural heterogeneity resulted from differential fragmentation of the linker peptide ( LP) that separates the seven-domain TPI functional domains. Using an in vitro fluorescence resonance energy transfer assay and synthetic substrates derived from the LP sequence, we characterized proteases involved in both the processing of the TPI precursor and its vacuolar targeting sequence. Although both a vacuolar processing enzyme and a subtilisin-like protease were found to participate in a two-step processing of LP, only the activity of the subtilisin-like protease was significantly increased by MeJA elicitation. We propose that MeJA elicitation increases TPI precursor production and saturates the proteolytic machinery, changing the processing pattern of TPIs. To test this hypothesis, we elicited a TPI-deficient N. attenuata genotype that had been transformed with a functional NaTPI gene under control of a constitutive promoter and characterized the resulting TPIs. We found no alterations in the processing pattern predicted from the sequence: a result consistent with the saturation hypothesis.
p15
sS'pageEnd'
p16
I388
sS'date'
p17
I2005
sS'documentType'
p18
VArticle
p19
sS'subject'
p20
VPlant Sciences
p21
sS'isoSource'
p22
VPlant Physiol.
p23
sS'timesCited'
p24
(lp25
I22
aVZ9 23
p26
asS'PT'
p27
VJ
sS'title'
p28
VDifferential Elicitation Of Two Processing Proteases Controls The Processing Pattern Of The Trypsin Proteinase Inhibitor Precursor In Nicotiana Attenuata
p29
sS'ISSN'
p30
(lp31
V0032-0889
p32
aVJ9 PLANT PHYSIOL
p33
asS'authors_full'
p34
(lp35
(VHORN
VM
tp36
a(VPATANKAR
VAG
tp37
a(VZAVALA
VJA
tp38
a(VWU
VJQ
tp39
a(VDOLECKOVAMARESOVA
VL
tp40
a(VVUJTECHOVA
VM
tp41
a(VMARES
VM
tp42
a(VBALDWIN
VIT
tp43
asS'PG'
p44
I14
sS'PD'
p45
VSEP
p46
sS'pageStart'
p47
I375
sS'issue'
p48
I1
sS'RI'
p49
(lp50
VHorn, Martin/A-8701-2008; Mares, Michael/B-2413-2009; Baldwin, Ian
p51
aV/K-1809-2013
p52
asS'journal'
p53
VPLANT PHYSIOLOGY
p54
sS'volume'
p55
V139
p56
sS'doi'
p57
V10.1104/pp.105.064006
p58
sS'emailAddress'
p59
Vbaldwin@ice.mpg.de
p60
sS'authorAddress'
p61
(lp62
VAcad Sci Czech Republ, Inst Organ Chem & Biochem, Dept Prot Biochem, Prague 16610, Czech Republic.
p63
aVMax Planck Inst Chem Ecol, Dept Mol Ecol, D-07745 Jena, Germany.
p64
aVCharles Univ, Sch Nat Sci, Dept Biochem, Prague 12843, Czech Republic.
p65
asS'publisherAddress'
p66
V15501 MONONA DRIVE, ROCKVILLE, MD 20855 USA
p67
sS'ER'
p68
V
sS'publisher'
p69
VAMER SOC PLANT BIOLOGISTS
p70
sS'authorKeywords'
p71
(lp72
VWOUND RESPONSE
p73
aVTOMATO PLANTS
p74
aVALATA
p75
aVJASMONATE
p76
aVCLEAVAGE
p77
aVDEFENSE
p78
aVSTIGMAS
p79
aVENZYME
p80
aVFAMILY
p81
aVIDENTIFICATION
p82
asS'OI'
p83
VHorn, Martin/0000-0001-9110-2018; 
p84
sS'language'
p85
VEnglish
p86
sS'wosid'
p87
VWOS:000231765300035
p88
sS'citationCount'
p89
I50
sS'authors_init'
p90
(lp91
(VHORN
VM
tp92
a(VPATANKAR
VA G
tp93
a(VZAVALA
VJ A
tp94
a(VWU
VJ Q
tp95
a(VDOLECKOVAMARESOVA
VL
tp96
a(VVUJTECHOVA
VM
tp97
a(VMARES
VM
tp98
a(VBALDWIN
VI T
tp99
asS'citedReferences'
p100
(lp101
g1
(g2
g3
NtRp102
(dp103
g57
Nsg53
VSOLID PHASE PEPTIDE
p104
sg55
Nsg90
(lp105
(VATHERTON
VE
tp106
asg17
I1989
sg47
Nsbag1
(g2
g3
NtRp107
(dp108
g57
Nsg53
VPLANT CELL
p109
sg55
V5
sg90
(lp110
(VATKINSON
VA H
tp111
asg17
I1993
sg47
VLANT
p112
sbag1
(g2
g3
NtRp113
(dp114
g57
V10.1073/pnas.95.14.8113
p115
sg53
VP NATL ACAD SCI USA
p116
sg55
V95
p117
sg90
(lp118
(VBALDWIN
VI T
tp119
asg17
I1998
sg47
V8113
p120
sbag1
(g2
g3
NtRp121
(dp122
g57
V10.1104/pp.127.4.1449
p123
sg53
VPLANT PHYSIOL
p124
sg55
V127
p125
sg90
(lp126
(VBALDWIN
VI T
tp127
asg17
I2001
sg47
VLANT
p128
sbag1
(g2
g3
NtRp129
(dp130
g57
V10.1016/j.plaphy.2003.10.013
p131
sg53
VPLANT PHYSIOL BIOCH
p132
sg55
V42
p133
sg90
(lp134
(VBARNABY
VN G
tp135
asg17
I2004
sg47
VLANT
p136
sbag1
(g2
g3
NtRp137
(dp138
g57
V10.1074/jbc.M302020200
p139
sg53
VJ BIOL CHEM
p140
sg55
V278
p141
sg90
(lp142
(VBARRETTE-NG
VI H
tp143
asg17
I2003
sg47
V24062
p144
sbag1
(g2
g3
NtRp145
(dp146
g57
V10.1016/S0168-9525(02)02771-3
p147
sg53
VTRENDS GENET
p148
sg55
V18
p149
sg90
(lp150
(VBARTA
VE
tp151
asg17
I2002
sg47
V600
p152
sbag1
(g2
g3
NtRp153
(dp154
g57
V10.1016/S0167-4838(02)00228-5
p155
sg53
VBBA
p156
sg55
V1596
p157
sg90
(lp158
(VBOYD
VP M
tp159
asg17
I2002
sg47
V269
p160
sbag1
(g2
g3
NtRp161
(dp162
g57
Nsg53
VARCH INSECT BIOCHEM
p163
sg55
V32
p164
sg90
(lp165
(VBROADWAY
VR M
tp166
asg17
I1996
sg47
V39
p167
sbag1
(g2
g3
NtRp168
(dp169
g57
V10.1111/j.1749-6632.1964.tb14213.x
p170
sg53
VANN NY ACAD SCI
p171
sg55
V121
p172
sg90
(lp173
(VDAVIS
VB J
tp174
asg17
I1964
sg47
V404
p175
sbag1
(g2
g3
NtRp176
(dp177
g57
Nsg53
VPHYSIOL GENOMICS
p178
sg55
V1
sg90
(lp179
(VDE
VANGELIS D A
tp180
asg17
I1999
sg47
VHYSIOL
p181
sbag1
(g2
g3
NtRp182
(dp183
g57
V10.1021/cr010167q
p184
sg53
VCHEM REV
p185
sg55
V102
p186
sg90
(lp187
(VDUNN
VB M
tp188
asg17
I2002
sg47
V4431
p189
sbag1
(g2
g3
NtRp190
(dp191
g57
V10.1016/S0965-1748(98)00027-7
p192
sg53
VINSECT BIOCHEM MOLEC
p193
sg55
V28
p194
sg90
(lp195
(VGIRARD
VC
tp196
asg17
I1998
sg47
V229
p197
sbag1
(g2
g3
NtRp198
(dp199
g57
V10.1104/pp.116.1.393
p200
sg53
VPLANT PHYSIOL
p201
sg55
V116
p202
sg90
(lp203
(VGIRI
VA P
tp204
asg17
I1998
sg47
VLANT
p205
sbag1
(g2
g3
NtRp206
(dp207
g57
V10.1890/0012-9658(2003)084[0079:ECABCW]2.0.CO;2
p208
sg53
VECOLOGY
p209
sg55
V84
p210
sg90
(lp211
(VGLAWE
VG A
tp212
asg17
I2003
sg47
V79
p213
sbag1
(g2
g3
NtRp214
(dp215
g57
V10.1105/tpc.016378
p216
sg53
VPLANT CELL
p217
sg55
V16
p218
sg90
(lp219
(VGRUIS
VD F
tp220
asg17
I2004
sg47
VLANT
p221
sbag1
(g2
g3
NtRp222
(dp223
g57
V10.1111/j.1432-1033.1995.0250i.x
p224
sg53
VEUR J BIOCHEM
p225
sg55
V230
p226
sg90
(lp227
(VHEATH
VR L
tp228
asg17
I1995
sg47
V250
p229
sbag1
(g2
g3
NtRp230
(dp231
g57
V10.1110/ps.2910102
p232
sg53
VPROTEIN SCI
p233
sg55
V11
p234
sg90
(lp235
(VHORN
VM
tp236
asg17
I2002
sg47
VROTEIN
p237
sbag1
(g2
g3
NtRp238
(dp239
g57
V10.1016/S0022-1910(97)00040-1
p240
sg53
VJ INSECT PHYSIOL
p241
sg55
V43
p242
sg90
(lp243
(VJONGSMA
VM A
tp244
asg17
I1997
sg47
V885
p245
sbag1
(g2
g3
NtRp246
(dp247
g57
V10.1074/jbc.274.4.2360
p248
sg53
VJ BIOL CHEM
p249
sg55
V274
p250
sg90
(lp251
(VJORDA
VL
tp252
asg17
I1999
sg47
V2360
p253
sbag1
(g2
g3
NtRp254
(dp255
g57
V10.1104/pp.124.3.1049
p256
sg53
VPLANT PHYSIOL
p257
sg55
V124
p258
sg90
(lp259
(VJORDA
VL
tp260
asg17
I2000
sg47
VLANT
p261
sbag1
(g2
g3
NtRp262
(dp263
g57
Nsg53
VINDUCED RESPONSES HE
p264
sg55
Nsg90
(lp265
(VKARBAN
VR
tp266
asg17
I1997
sg47
Nsbag1
(g2
g3
NtRp267
(dp268
g57
V10.1006/abbi.1993.1274
p269
sg53
VARCH BIOCHEM BIOPHYS
p270
sg55
V303
p271
sg90
(lp272
(VKEMBHAVI
VA A
tp273
asg17
I1993
sg47
V208
p274
sbag1
(g2
g3
NtRp275
(dp276
g57
V10.1046/j.1365-313X.1999.00497.x
p277
sg53
VPLANT J
p278
sg55
V19
p279
sg90
(lp280
(VKINOSHITA
VT
tp281
asg17
I1999
sg47
VLANT
p282
sbag1
(g2
g3
NtRp283
(dp284
g57
V10.1016/S1360-1385(97)90052-2
p285
sg53
VTRENDS PLANT SCI
p286
sg55
V2
sg90
(lp287
(VKOIWA
VH
tp288
asg17
I1997
sg47
V379
p289
sbag1
(g2
g3
NtRp290
(dp291
g57
Nsg53
VPLANT PHYSIOL
p292
sg55
V115
p293
sg90
(lp294
(VKORTH
VK L
tp295
asg17
I1997
sg47
VLANT
p296
sbag1
(g2
g3
NtRp297
(dp298
g57
V10.1021/bi963061b
p299
sg53
VBIOCHEMISTRY
p300
sg55
V36
p301
sg90
(lp302
(VLAZO
VN D
tp303
asg17
I1997
sg47
V2559
p304
sbag1
(g2
g3
NtRp305
(dp306
g57
V10.1038/9293
p307
sg53
VNAT STRUCT BIOL
p308
sg55
V6
sg90
(lp309
(VLEE
VM C S
tp310
asg17
I1999
sg47
V526
p311
sbag1
(g2
g3
NtRp312
(dp313
g57
V10.1023/A:1006012005654
p314
sg53
VPLANT MOL BIOL
p315
sg55
V38
p316
sg90
(lp317
(VLEROUGE
VP
tp318
asg17
I1998
sg47
VLANT
p319
sbag1
(g2
g3
NtRp320
(dp321
g57
Nsg53
VPLANT CELL
p322
sg55
V11
p323
sg90
(lp324
(VMILLER
VE A
tp325
asg17
I1999
sg47
VLANT
p326
sbag1
(g2
g3
NtRp327
(dp328
g57
V10.1023/A:1006305429013
p329
sg53
VPLANT MOL BIOL
p330
sg55
V42
p331
sg90
(lp332
(VMILLER
VE A
tp333
asg17
I2000
sg47
VLANT
p334
sbag1
(g2
g3
NtRp335
(dp336
g57
V10.1104/pp.126.1.289
p337
sg53
VPLANT PHYSIOL
p338
sg55
V126
p339
sg90
(lp340
(VMOURA
VD S
tp341
asg17
I2001
sg47
VLANT
p342
sbag1
(g2
g3
NtRp343
(dp344
g57
V10.1016/S1360-1385(02)02298-7
p345
sg53
VTRENDS PLANT SCI
p346
sg55
V7
sg90
(lp347
(VMUNTZ
VK
tp348
asg17
I2002
sg47
V340
p349
sbag1
(g2
g3
NtRp350
(dp351
g57
V10.1021/bi952228i
p352
sg53
VBIOCHEMISTRY
p353
sg55
V35
p354
sg90
(lp355
(VNIELSEN
VK J
tp356
asg17
I1996
sg47
V369
p357
sbag1
(g2
g3
NtRp358
(dp359
g57
V10.1126/science.274.5294.1914
p360
sg53
VSCIENCE
p361
sg55
V274
p362
sg90
(lp363
(VODONNELL
VP J
tp364
asg17
I1996
sg47
V1914
p365
sbag1
(g2
g3
NtRp366
(dp367
g57
V10.1104/pp.102.017293
p368
sg53
VPLANT PHYSIOL
p369
sg55
V133
p370
sg90
(lp371
(VOUTCHKOUROV
VN S
tp372
asg17
I2003
sg47
VLANT
p373
sbag1
(g2
g3
NtRp374
(dp375
g57
V10.1042/BJ20031825
p376
sg53
VBIOCHEM J
p377
sg55
V378
p378
sg90
(lp379
(VRAWLINGS
VN D
tp380
asg17
I2004
sg47
V705
p381
sbag1
(g2
g3
NtRp382
(dp383
g57
V10.1111/j.1365-294X.2004.02260.x
p384
sg53
VMOL ECOL
p385
sg55
V13
p386
sg90
(lp387
(VRODA
VA
tp388
asg17
I2004
sg47
V2421
p389
sbag1
(g2
g3
NtRp390
(dp391
g57
V10.1515/BC.2001.119
p392
sg53
VBIOL CHEM
p393
sg55
V382
p394
sg90
(lp395
(VROTARI
VV I
tp396
asg17
I2001
sg47
V953
p397
sbag1
(g2
g3
NtRp398
(dp399
g57
V10.1146/annurev.py.28.090190.002233
p400
sg53
VANNU REV PHYTOPATHOL
p401
sg55
V28
p402
sg90
(lp403
(VRYAN
VC A
tp404
asg17
I1990
sg47
V425
p405
sbag1
(g2
g3
NtRp406
(dp407
g57
V10.1074/jbc.M305740200
p408
sg53
VJ BIOL CHEM
p409
sg55
V278
p410
sg90
(lp411
(VSHIMADA
VT
tp412
asg17
I2003
sg47
V32292
p413
sbag1
(g2
g3
NtRp414
(dp415
g57
V10.1111/j.1432-1033.2004.04136.x
p416
sg53
VEUR J BIOCHEM
p417
sg55
V271
p418
sg90
(lp419
(VSIMOES
VI
tp420
asg17
I2004
sg47
V2067
p421
sbag1
(g2
g3
NtRp422
(dp423
g57
V10.1104/pp.101.4.1239
p424
sg53
VPLANT PHYSIOL
p425
sg55
V101
p426
sg90
(lp427
(VSTICHER
VL
tp428
asg17
I1993
sg47
VLANT
p429
sbag1
(g2
g3
NtRp430
(dp431
g57
V10.1023/A:1010341022761
p432
sg53
VJ CHEM ECOL
p433
sg55
V27
p434
sg90
(lp435
(VVAN
VD A M N M
tp436
asg17
I2001
sg47
V547
p437
sbag1
(g2
g3
NtRp438
(dp439
g57
V10.1016/j.pbi.2004.04.003
p440
sg53
VCURR OPIN PLANT BIOL
p441
sg55
V7
sg90
(lp442
(VVAN
VD E R HOORN R A L
tp443
asg17
I2004
sg47
V400
p444
sbag1
(g2
g3
NtRp445
(dp446
g57
V10.1104/pp.125.4.2189
p447
sg53
VPLANT PHYSIOL
p448
sg55
V125
p449
sg90
(lp450
(VWINZ
VR A
tp451
asg17
I2001
sg47
VLANT
p452
sbag1
(g2
g3
NtRp453
(dp454
g57
V10.1074/jbc.274.4.2563
p455
sg53
VJ BIOL CHEM
p456
sg55
V274
p457
sg90
(lp458
(VYAMADA
VK
tp459
asg17
I1999
sg47
V2563
p460
sbag1
(g2
g3
NtRp461
(dp462
g57
V10.1073/pnas.0305096101
p463
sg53
VP NATL ACAD SCI USA
p464
sg55
V101
p465
sg90
(lp466
(VZAVALA
VJ A
tp467
asg17
I2004
sg47
V1607
p468
sbag1
(g2
g3
NtRp469
(dp470
g57
Nsg53
VBMC ECOL
p471
sg55
V10
p472
sg90
(lp473
(VZAVALA
VJ A
tp474
asg17
I2004
sg47
V11
p475
sbag1
(g2
g3
NtRp476
(dp477
g57
V10.1104/pp.103.035634
p478
sg53
VPLANT PHYSIOL
p479
sg55
V134
p480
sg90
(lp481
(VZAVALA
VJ A
tp482
asg17
I2004
sg47
VLANT
p483
sbasb.