ccopy_reg
_reconstructor
p1
(ctethne.classes.paper
Paper
p2
c__builtin__
object
p3
NtRp4
(dp5
S'publisherCity'
p6
VROCKVILLE
p7
sS'reprintAddress'
p8
VZachgo, S (reprint author), Univ Osnabruck, Dept Biol, D-49076 Osnabruck, Germany.
p9
sS'WC'
p10
VPlant Sciences
p11
sS'GA'
p12
V866JC
p13
sS'FX'
p14
(lp15
VThis work was supported by the Deutsche Forschungsgemeinschaft (grant
p16
aVnos. SFB 944 and ZA259/4 to S.Z.).
p17
asS'abstract'
p18
VGlutaredoxins (GRXs) are small, ubiquitous, glutathione-dependent oxidoreductases that participate in redox-regulated processes associated with stress responses. Recently, GRXs have been shown to exert crucial functions during flower developmental processes. GRXs modulate their target protein activities by the reduction of protein disulfide bonds or deglutathionylation reactions. The Arabidopsis (Arabidopsis thaliana) GRX ROXY1 participates in petal primordia initiation and further petal morphogenesis. ROXY1 belongs to a land plant-specific class of GRXs with a CC-type active site motif, deviating from the ubiquitously occurring CPYC and CGFS GRX classes. ROXY1 was previously shown to interact with floral TGA transcription factors in the nucleus, and this interaction is a prerequisite for ROXY1 to exert its activity required for Arabidopsis petal development. Deletion analysis further identified the importance of the ROXY1 C terminus for the ROXY1/TGA protein interactions and for the ROXY1 function in petal development. Here, by dissecting the ROXY1 C terminus, an alpha-helical L**LL motif immediately adjacent to the ROXY1 C-terminal eight amino acids was identified that is essential for the interaction with TGA transcription factors and crucial for the ROXY1 function in planta. Similar to the alpha-helical L**LL motifs binding to transcriptional coactivators with liganded nuclear receptors in animals, a hydrophobic face formed by the conserved leucines in the L**LL motif of ROXY1 possibly mediates the interaction with TGA transcription factors. Thus, the alpha-helical L**LL sequence is a conserved protein-protein interaction motif in both animals and plants. Furthermore, two separate TGA domains were identified by deletion experiments as being essential for mediating TGA protein interactions with ROXYs.
p19
sS'pageEnd'
p20
I2068
sS'date'
p21
I2011
sS'documentType'
p22
VArticle
p23
sS'subject'
p24
VPlant Sciences
p25
sS'isoSource'
p26
VPlant Physiol.
p27
sS'timesCited'
p28
(lp29
I5
aVZ9 5
p30
asS'funding'
p31
(lp32
(VDeutsche Forschungsgemeinschaft
VSFB 944, ZA259/4
tp33
asS'PT'
p34
VJ
sS'title'
p35
VThe Roxy1 C-Terminal L**Ll Motif Is Essential For The Interaction With Tga Transcription Factors
p36
sS'ISSN'
p37
(lp38
V0032-0889
p39
aVJ9 PLANT PHYSIOL
p40
asS'authors_full'
p41
(lp42
(VLI
VSHUTIAN
tp43
a(VGUTSCHE
VNORA
tp44
a(VZACHGO
VSABINE
tp45
asS'PG'
p46
I13
sS'PD'
p47
VDEC
p48
sS'pageStart'
p49
I2056
sS'issue'
p50
I4
sS'journal'
p51
VPLANT PHYSIOLOGY
p52
sS'volume'
p53
V157
p54
sS'doi'
p55
V10.1104/pp.111.185199
p56
sS'emailAddress'
p57
Vzachgo@biologie.uni-osnabrueck.de
p58
sS'authorAddress'
p59
V[Li, Shutian; Gutsche, Nora; Zachgo, Sabine] Univ Osnabruck, Dept Biol, D-49076 Osnabruck, Germany.
p60
sS'publisherAddress'
p61
V15501 MONONA DRIVE, ROCKVILLE, MD 20855 USA
p62
sS'ER'
p63
V
sS'publisher'
p64
VAMER SOC PLANT BIOLOGISTS
p65
sS'authorKeywords'
p66
(lp67
VFLORAL ORGAN NUMBER
p68
aVARABIDOPSIS-THALIANA
p69
aVREDOX REGULATION
p70
aVNUCLEAR RECEPTOR
p71
aVGLUTAREDOXIN FAMILY
p72
aVDISEASE RESISTANCE
p73
aVFLOWER DEVELOPMENT
p74
aVANTHER DEVELOPMENT
p75
aVPETAL DEVELOPMENT
p76
aVPERIANTHIA GENE
p77
asS'language'
p78
VEnglish
p79
sS'wosid'
p80
VWOS:000298375600036
p81
sS'citationCount'
p82
I40
sS'authors_init'
p83
(lp84
(VLI
VS T
tp85
a(VGUTSCHE
VN
tp86
a(VZACHGO
VS
tp87
asS'citedReferences'
p88
(lp89
g1
(g2
g3
NtRp90
(dp91
g55
V10.1105/tpc.109.071001
p92
sg51
VPLANT CELL
p93
sg53
V22
p94
sg83
(lp95
(VARSOVA
VB
tp96
asg21
I2010
sg49
VLANT
p97
sbag1
(g2
g3
NtRp98
(dp99
g55
V10.1105/tpc.109.071225
p100
sg51
VPLANT CELL
p101
sg53
V22
p102
sg83
(lp103
(VBASHANDY
VT
tp104
asg21
I2010
sg49
VLANT
p105
sbag1
(g2
g3
NtRp106
(dp107
g55
V10.1146/annurev.arplant.56.032604.144246
p108
sg51
VANNU REV PLANT BIOL
p109
sg53
V56
p110
sg83
(lp111
(VBUCHANAN
VB B
tp112
asg21
I2005
sg49
V187
p113
sbag1
(g2
g3
NtRp114
(dp115
g55
V10.1091/mbc.E08-09-0943
p116
sg51
VMOL BIOL CELL
p117
sg53
V20
p118
sg83
(lp119
(VCABRERA
VM
tp120
asg21
I2009
sg49
V1937
p121
sbag1
(g2
g3
NtRp122
(dp123
g55
V10.1101/gad.13.3.334
p124
sg51
VGENE DEV
p125
sg53
V13
p126
sg83
(lp127
(VCHUANG
VC F
tp128
asg21
I1999
sg49
V334
p129
sbag1
(g2
g3
NtRp130
(dp131
g55
V10.1046/j.1365-313x.1998.00343.x
p132
sg51
VPLANT J
p133
sg53
V16
p134
sg83
(lp135
(VCLOUGH
VS J
tp136
asg21
I1998
sg49
VLANT
p137
sbag1
(g2
g3
NtRp138
(dp139
g55
V10.1105/tpc.012849
p140
sg51
VPLANT CELL
p141
sg53
V15
p142
sg83
(lp143
(VDESPRES
VC
tp144
asg21
I2003
sg49
VLANT
p145
sbag1
(g2
g3
NtRp146
(dp147
g55
V10.1021/bi060444t
p148
sg51
VBIOCHEMISTRY
p149
sg53
V45
p150
sg83
(lp151
(VFENG
VY G
tp152
asg21
I2006
sg49
V7998
p153
sbag1
(g2
g3
NtRp154
(dp155
g55
Nsg51
VNATURE
p156
sg53
V387
p157
sg83
(lp158
(VHEERY
VD M
tp159
asg21
I1997
sg49
V733
p160
sbag1
(g2
g3
NtRp161
(dp162
g55
V10.1073/pnas.72.6.2305
p163
sg51
VP NATL ACAD SCI USA
p164
sg53
V72
p165
sg83
(lp166
(VHOLMGREN
VA
tp167
asg21
I1975
sg49
V2305
p168
sbag1
(g2
g3
NtRp169
(dp170
g55
V10.1104/pp.108.121301
p171
sg51
VPLANT PHYSIOL
p172
sg53
V147
p173
sg83
(lp174
(VHOU
VX L
tp175
asg21
I2008
sg49
VLANT
p176
sbag1
(g2
g3
NtRp177
(dp178
g55
V10.1016/S1360-1385(01)02223-3
p179
sg51
VTRENDS PLANT SCI
p180
sg53
V7
sg83
(lp181
(VJAKOBY
VM
tp182
asg21
I2002
sg49
V106
p183
sbag1
(g2
g3
NtRp184
(dp185
g55
V10.1038/340727a0
p186
sg51
VNATURE
p187
sg53
V340
p188
sg83
(lp189
(VKATAGIRI
VF
tp190
asg21
I1989
sg49
V727
p191
sbag1
(g2
g3
NtRp192
(dp193
g55
V10.1101/gad.4.11.1899
p194
sg51
VGENE DEV
p195
sg53
V4
sg83
(lp196
(VKATAGIRI
VF
tp197
asg21
I1990
sg49
V1899
p198
sbag1
(g2
g3
NtRp199
(dp200
g55
V10.1104/pp.106.095299
p201
sg51
VPLANT PHYSIOL
p202
sg53
V144
p203
sg83
(lp204
(VKESARWANI
VM
tp205
asg21
I2007
sg49
VLANT
p206
sbag1
(g2
g3
NtRp207
(dp208
g55
Nsg51
VEMBO J
p209
sg53
V15
p210
sg83
(lp211
(VLEDOUARIN
VB
tp212
asg21
I1996
sg49
V6701
p213
sbag1
(g2
g3
NtRp214
(dp215
g55
V10.1023/B:PRES.0000017174.60951.74
p216
sg51
VPHOTOSYNTH RES
p217
sg53
V79
p218
sg83
(lp219
(VLEMAIRE
VS D
tp220
asg21
I2004
sg49
VHOTOSYNTH
p221
sbag1
(g2
g3
NtRp222
(dp223
g55
V10.1105/tpc.108.064477
p224
sg51
VPLANT CELL
p225
sg53
V21
p226
sg83
(lp227
(VLI
VS
tp228
asg21
I2009
sg49
VLANT
p229
sbag1
(g2
g3
NtRp230
(dp231
g55
V10.1016/S0065-2296(10)52011-1
p232
sg51
VADV BOT RES
p233
sg53
V52
p234
sg83
(lp235
(VLI
VS T
tp236
asg21
I2009
sg49
V333
p237
sbag1
(g2
g3
NtRp238
(dp239
g55
V10.1105/tpc.109.066464
p240
sg51
VPLANT CELL
p241
sg53
V22
p242
sg83
(lp243
(VLINDERMAYR
VC
tp244
asg21
I2010
sg49
VLANT
p245
sbag1
(g2
g3
NtRp246
(dp247
g55
Nsg51
VEXPT MOL GENETICS
p248
sg53
Nsg83
(lp249
(VMILLER
VJ H
tp250
asg21
I1972
sg49
V352
p251
sbag1
(g2
g3
NtRp252
(dp253
g55
Nsg51
VBIOTECHNIQUES
p254
sg53
V36
p255
sg83
(lp256
(VMOCKLI
VN
tp257
asg21
I2004
sg49
V872
p258
sbag1
(g2
g3
NtRp259
(dp260
g55
V10.1104/pp.110.159111
p261
sg51
VPLANT PHYSIOL
p262
sg53
V154
p263
sg83
(lp264
(VMURMU
VJ
tp265
asg21
I2010
sg49
VLANT
p266
sbag1
(g2
g3
NtRp267
(dp268
g55
V10.1111/j.1365-313X.2007.03039.x
p269
sg51
VPLANT J
p270
sg53
V50
p271
sg83
(lp272
(VNDAMUKONG
VI
tp273
asg21
I2007
sg49
VLANT
p274
sbag1
(g2
g3
NtRp275
(dp276
g55
V10.1105/tpc.107.050849
p277
sg51
VPLANT CELL
p278
sg53
V19
p279
sg83
(lp280
(VREICHHELD
VJ P
tp281
asg21
I2007
sg49
VLANT
p282
sbag1
(g2
g3
NtRp283
(dp284
g55
Nsg51
VJ BIOL CHEM
p285
sg53
V269
p286
sg83
(lp287
(VRIBEIRO
VA
tp288
asg21
I1994
sg49
V31124
p289
sbag1
(g2
g3
NtRp290
(dp291
g55
V10.1093/jxb/erl001
p292
sg51
VJ EXP BOT
p293
sg53
V57
p294
sg83
(lp295
(VROUHIER
VN
tp296
asg21
I2006
sg49
V1685
p297
sbag1
(g2
g3
NtRp298
(dp299
g55
V10.1007/s00018-004-3410-y
p300
sg51
VCELL MOL LIFE SCI
p301
sg53
V61
p302
sg83
(lp303
(VROUHIER
VN
tp304
asg21
I2004
sg49
V1266
p305
sbag1
(g2
g3
NtRp306
(dp307
g55
Nsg51
VDEVELOPMENT
p308
sg53
V122
p309
sg83
(lp310
(VRUNNING
VM P
tp311
asg21
I1996
sg49
V1261
p312
sbag1
(g2
g3
NtRp313
(dp314
g55
V10.1111/j.1399-3011.2004.00126.x
p315
sg51
VJ PEPT RES
p316
sg53
V63
p317
sg83
(lp318
(VSAVKUR
VR S
tp319
asg21
I2004
sg49
V207
p320
sbag1
(g2
g3
NtRp321
(dp322
g55
V10.1093/emboj/17.2.507
p323
sg51
VEMBO J
p324
sg53
V17
p325
sg83
(lp326
(VVOEGEL
VJ J
tp327
asg21
I1998
sg49
V507
p328
sbag1
(g2
g3
NtRp329
(dp330
g55
V10.1046/j.1365-313X.2003.01676.x
p331
sg51
VPLANT J
p332
sg53
V33
p333
sg83
(lp334
(VVOINNET
VO
tp335
asg21
I2003
sg49
VLANT
p336
sbag1
(g2
g3
NtRp337
(dp338
g55
V10.1111/j.1365-313X.2004.02219.x
p339
sg51
VPLANT J
p340
sg53
V40
p341
sg83
(lp342
(VWALTER
VM
tp343
asg21
I2004
sg49
VLANT
p344
sbag1
(g2
g3
NtRp345
(dp346
g55
V10.1055/s-2006-924278
p347
sg51
VPLANT BIOLOGY
p348
sg53
V8
sg83
(lp349
(VXING
VS
tp350
asg21
I2006
sg49
VLANT
p351
sbag1
(g2
g3
NtRp352
(dp353
g55
V10.1111/j.1365-313X.2007.03375.x
p354
sg51
VPLANT J
p355
sg53
V53
p356
sg83
(lp357
(VXING
VS
tp358
asg21
I2008
sg49
VLANT
p359
sbag1
(g2
g3
NtRp360
(dp361
g55
V10.1242/dev.01725
p362
sg51
VDEVELOPMENT
p363
sg53
V132
p364
sg83
(lp365
(VXING
VS P
tp366
asg21
I2005
sg49
V1555
p367
sbag1
(g2
g3
NtRp368
(dp369
g55
V10.1105/tpc.014894
p370
sg51
VPLANT CELL
p371
sg53
V15
p372
sg83
(lp373
(VZHANG
VY L
tp374
asg21
I2003
sg49
VLANT
p375
sbag1
(g2
g3
NtRp376
(dp377
g55
V10.1094/MPMI.2000.13.2.191
p378
sg51
VMOL PLANT MICROBE IN
p379
sg53
V13
p380
sg83
(lp381
(VZHOU
VJ M
tp382
asg21
I2000
sg49
V191
p383
sbag1
(g2
g3
NtRp384
(dp385
g55
V10.1093/gbe/evp025
p386
sg51
VGENOME BIOL EVOL
p387
sg53
V1
sg83
(lp388
(VZIEMANN
VM
tp389
asg21
I2009
sg49
V265
p390
sbag1
(g2
g3
NtRp391
(dp392
g55
Nsg51
VFUNCT PLANT BIOL
p393
sg53
V38
p394
sg83
(lp395
(VZIEMANN
VM
tp396
asg21
I2010
sg49
V28
p397
sbasb.