ccopy_reg
_reconstructor
p1
(ctethne.classes.paper
Paper
p2
c__builtin__
object
p3
NtRp4
(dp5
S'publisherCity'
p6
VROCKVILLE
p7
sS'reprintAddress'
p8
VSchroeder, JI (reprint author), Univ Calif San Diego, Div Biol, Cell & Dev Biol Sect, 9500 Gilman Dr, La Jolla, CA 92093 USA.
p9
sS'WC'
p10
VPlant Sciences
p11
sS'GA'
p12
V492AY
p13
sS'abstract'
p14
VInward-rectifying potassium (K-in(+)) channels in guard cells have been suggested to provide a pathway for K+ uptake into guard cells during stomatal opening. To test the proposed role of guard cell K-in(+) channels in fight-induced stomatal opening, transgenic Arabidopsis plants were generated that expressed dominant negative point mutations in the K-in(+) channel subunit KAT1. Patch-clamp analyses with transgenic guard cells from independent lines showed that K-in(+) current magnitudes were reduced by approximately 75% compared with vector-transformed controls at -180 mV, which resulted in reduction in light-induced stomatal opening by 38% to 45% compared with vector-transformed controls. Analyses of intracellular K+ content using both sodium hexanitrocobaltate (III) and elemental x-ray microanalyses showed that light-induced K+ uptake was also significantly reduced in guard cells of K-in(+) channel depressor lines. These findings support the model that K-in(+) channels contribute to K+ uptake during light-induced stomatal opening. Furthermore, transpirational water loss from leaves was reduced in the K-in(+) channel depressor lines. Comparisons of guard cell K-in(+) current magnitudes among four different transgenic lines with different K-in(+) current magnitudes show the range of activities of K-in(+) channels required for guard cell K+ uptake during light-induced stomatal opening.
p15
sS'pageEnd'
p16
I485
sS'publisherAddress'
p17
V15501 MONONA DRIVE, ROCKVILLE, MD 20855 USA
p18
sS'documentType'
p19
VArticle
p20
sS'subject'
p21
VPlant Sciences
p22
sS'isoSource'
p23
VPlant Physiol.
p24
sS'timesCited'
p25
(lp26
I79
aVZ9 84
p27
asS'PT'
p28
VJ
sS'title'
p29
VDominant Negative Guard Cell K+ Channel Mutants Reduce Inward-Rectifying K+ Currents And Light-Induced Stomatal Opening In Arabidopsis
p30
sS'ISSN'
p31
(lp32
V0032-0889
p33
aVJ9 PLANT PHYSIOL
p34
asS'authors_full'
p35
(lp36
(VKWAK
VJM
tp37
a(VMURATA
VY
tp38
a(VBAIZABALAGUIRRE
VVM
tp39
a(VMERRILL
VJ
tp40
a(VWANG
VM
tp41
a(VKEMPER
VA
tp42
a(VHAWKE
VSD
tp43
a(VTALLMAN
VG
tp44
a(VSCHROEDER
VJI
tp45
asS'PG'
p46
I13
sS'PD'
p47
VOCT
p48
sS'pageStart'
p49
I473
sS'issue'
p50
I2
sS'RI'
p51
VKwak, June/G-8332-2011
p52
sS'journal'
p53
VPLANT PHYSIOLOGY
p54
sS'volume'
p55
V127
p56
sS'doi'
p57
V10.1104/pp.010428
p58
sS'authorAddress'
p59
(lp60
VUniv Calif San Diego, Div Biol, Cell & Dev Biol Sect, La Jolla, CA 92093 USA.
p61
aVUniv Calif San Diego, Ctr Genet Mol, La Jolla, CA 92093 USA.
p62
aVWillamette Univ, Dept Biol, Salem, OR USA.
p63
asS'date'
p64
I2001
sS'ER'
p65
V
sS'publisher'
p66
VAMER SOC PLANT BIOLOGISTS
p67
sS'authorKeywords'
p68
(lp69
VEXPRESSED SEQUENCE TAGS
p70
aVABSCISIC-ACID RESPONSES
p71
aVPOTASSIUM CHANNEL
p72
aVPLASMA-MEMBRANE
p73
aVION CHANNELS
p74
aVVICIA-FABA
p75
aVPATCH-CLAMP
p76
aVFUNCTIONAL EXPRESSION
p77
aVSIGNAL-TRANSDUCTION
p78
aVCARDIAC-ARRHYTHMIA
p79
asS'language'
p80
VEnglish
p81
sS'wosid'
p82
VWOS:000172144500013
p83
sS'citationCount'
p84
I76
sS'authors_init'
p85
(lp86
(VKWAK
VJ M
tp87
a(VMURATA
VY
tp88
a(VBAIZABALAGUIRRE
VV M
tp89
a(VMERRILL
VJ
tp90
a(VWANG
VM
tp91
a(VKEMPER
VA
tp92
a(VHAWKE
VS D
tp93
a(VTALLMAN
VG
tp94
a(VSCHROEDER
VJ I
tp95
asS'citedReferences'
p96
(lp97
g1
(g2
g3
NtRp98
(dp99
g57
V10.1046/j.1365-313x.1999.00574.x
p100
sg53
VPLANT J
p101
sg55
V19
p102
sg85
(lp103
(VALLEN
VG J
tp104
asg64
I1999
sg49
VLANT
p105
sbag1
(g2
g3
NtRp106
(dp107
g57
V10.1073/pnas.89.9.3736
p108
sg53
VP NATL ACAD SCI USA
p109
sg55
V89
p110
sg85
(lp111
(VANDERSON
VJ A
tp112
asg64
I1992
sg49
V3736
p113
sbag1
(g2
g3
NtRp114
(dp115
g57
V10.1007/s002329900476
p116
sg53
VJ MEMBRANE BIOL
p117
sg55
V167
p118
sg85
(lp119
(VBAIZABAL-AGUIRRE
VV M
tp120
asg64
I1999
sg49
V119
p121
sbag1
(g2
g3
NtRp122
(dp123
g57
Nsg53
VCR ACAD SCI III
p124
sg55
V316
p125
sg85
(lp126
(VBECHTOLD
VN
tp127
asg64
I1993
sg49
V1194
p128
sbag1
(g2
g3
NtRp129
(dp130
g57
V10.1046/j.1365-313X.1998.00084.x
p131
sg53
VPLANT J
p132
sg55
V13
p133
sg85
(lp134
(VBEI
VQ X
tp135
asg64
I1998
sg49
VLANT
p136
sbag1
(g2
g3
NtRp137
(dp138
g57
Nsg53
VJ PLANT PHYSIOL
p139
sg55
V154
p140
sg85
(lp141
(VBLANKE
VM M
tp142
asg64
I1999
sg49
V477
p143
sbag1
(g2
g3
NtRp144
(dp145
g57
V10.1038/346766a0
p146
sg53
VNATURE
p147
sg55
V346
p148
sg85
(lp149
(VBLATT
VM R
tp150
asg64
I1990
sg49
V766
p151
sbag1
(g2
g3
NtRp152
(dp153
g57
V10.1007/BF01160403
p154
sg53
VPLANTA
p155
sg55
V180
p156
sg85
(lp157
(VBLATT
VM R
tp158
asg64
I1990
sg49
VLANTA
p159
sbag1
(g2
g3
NtRp160
(dp161
g57
V10.1104/pp.109.3.1093
p162
sg53
VPLANT PHYSIOL
p163
sg55
V109
p164
sg85
(lp165
(VCAO
VY W
tp166
asg64
I1995
sg49
VLANT
p167
sbag1
(g2
g3
NtRp168
(dp169
g57
V10.1074/jbc.275.3.1723
p170
sg53
VJ BIOL CHEM
p171
sg55
V275
p172
sg85
(lp173
(VCHOI
VH I
tp174
asg64
I2000
sg49
V1723
p175
sbag1
(g2
g3
NtRp176
(dp177
g57
V10.1016/0092-8674(95)90358-5
p178
sg53
VCELL
p179
sg55
V80
p180
sg85
(lp181
(VCURRAN
VM E
tp182
asg64
I1995
sg49
V795
p183
sbag1
(g2
g3
NtRp184
(dp185
g57
V10.1093/jexbot/50.suppl_1.955
p186
sg53
VJ EXP BOT
p187
sg55
V50
p188
sg85
(lp189
(VCZEMPINSKI
VK
tp190
asg64
I1999
sg49
V955
p191
sbag1
(g2
g3
NtRp192
(dp193
g57
V10.1007/s004250050322
p194
sg53
VPLANTA
p195
sg55
V205
p196
sg85
(lp197
(VDIETRICH
VP
tp198
asg64
I1998
sg49
VLANTA
p199
sbag1
(g2
g3
NtRp200
(dp201
g57
V10.1016/S0168-9525(97)01370-X
p202
sg53
VTRENDS GENET
p203
sg55
V14
p204
sg85
(lp205
(VDOYLE
VJ L
tp206
asg64
I1998
sg49
V92
p207
sbag1
(g2
g3
NtRp208
(dp209
g57
Nsg53
VPLANT CELL
p210
sg55
V3
sg85
(lp211
(VFAIRLEYGRENOT
VK
tp212
asg64
I1991
sg49
VLANT
p213
sbag1
(g2
g3
NtRp214
(dp215
g57
Nsg53
VJ MEMBRANE BIOL
p216
sg55
V139
p217
sg85
(lp218
(VFINDLAY
VG P
tp219
asg64
I1994
sg49
V103
p220
sbag1
(g2
g3
NtRp221
(dp222
g57
Nsg53
VPLANT PHYSIOL
p223
sg55
V105
p224
sg85
(lp225
(VGASSMANN
VW
tp226
asg64
I1994
sg49
VLANT
p227
sbag1
(g2
g3
NtRp228
(dp229
g57
V10.1016/S0092-8674(00)81606-2
p230
sg53
VCELL
p231
sg55
V94
p232
sg85
(lp233
(VGAYMARD
VF
tp234
asg64
I1998
sg49
V647
p235
sbag1
(g2
g3
NtRp236
(dp237
g57
Nsg53
VSTAIN TECHNOL
p238
sg55
V65
p239
sg85
(lp240
(VGREEN
VD
tp241
asg64
I1990
sg49
V647
p242
sbag1
(g2
g3
NtRp243
(dp244
g57
Nsg53
VPLANT PHYSIOL
p245
sg55
V110
p246
sg85
(lp247
(VHENRIKSEN
VG H
tp248
asg64
I1996
sg49
VLANT
p249
sbag1
(g2
g3
NtRp250
(dp251
g57
Nsg53
VIONIC CHANNELS EXCIT
p252
sg55
Nsg85
(lp253
(VHILLE
VB
tp254
asg64
I1992
sg49
Nsbag1
(g2
g3
NtRp255
(dp256
g57
V10.1126/science.280.5365.918
p257
sg53
VSCIENCE
p258
sg55
V280
p259
sg85
(lp260
(VHIRSCH
VR E
tp261
asg64
I1998
sg49
V918
p262
sbag1
(g2
g3
NtRp263
(dp264
g57
V10.1104/pp.113.4.1203
p265
sg53
VPLANT PHYSIOL
p266
sg55
V113
p267
sg85
(lp268
(VHONG
VS W
tp269
asg64
I1997
sg49
VLANT
p270
sbag1
(g2
g3
NtRp271
(dp272
g57
V10.1085/jgp.105.3.309
p273
sg53
VJ GEN PHYSIOL
p274
sg55
V105
p275
sg85
(lp276
(VHOSHI
VT
tp277
asg64
I1995
sg49
V309
p278
sbag1
(g2
g3
NtRp279
(dp280
g57
V10.1104/pp.48.4.447
p281
sg53
VPLANT PHYSIOL
p282
sg55
V48
p283
sg85
(lp284
(VHUMBLE
VG D
tp285
asg64
I1971
sg49
VLANT
p286
sbag1
(g2
g3
NtRp287
(dp288
g57
Nsg53
VPLANT CELL
p289
sg55
V9
sg85
(lp290
(VICHIDA
VA M
tp291
asg64
I1997
sg49
VLANT
p292
sbag1
(g2
g3
NtRp293
(dp294
g57
Nsg53
VJAPANESE JOUR BOT
p295
sg55
V12
p296
sg85
(lp297
(VIMAMURA
VSHUNICHIRO
tp298
asg64
I1943
sg49
V251
p299
sbag1
(g2
g3
NtRp300
(dp301
g57
V10.1046/j.1365-313X.1995.8040479.x
p302
sg53
VPLANT J
p303
sg55
V8
sg85
(lp304
(VKELLY
VW B
tp305
asg64
I1995
sg49
VLANT
p306
sbag1
(g2
g3
NtRp307
(dp308
g57
Nsg53
VPLANT CELL
p309
sg55
V7
sg85
(lp310
(VKINOSHITA
VT
tp311
asg64
I1995
sg49
VLANT
p312
sbag1
(g2
g3
NtRp313
(dp314
g57
V10.1007/s004250050097
p315
sg53
VPLANTA
p316
sg55
V202
p317
sg85
(lp318
(VKWAK
VJ M
tp319
asg64
I1997
sg49
VLANTA
p320
sbag1
(g2
g3
NtRp321
(dp322
g57
V10.1105/tpc.12.6.837
p323
sg53
VPLANT CELL
p324
sg55
V12
p325
sg85
(lp326
(VLACOMBE
VB
tp327
asg64
I2000
sg49
VLANT
p328
sbag1
(g2
g3
NtRp329
(dp330
g57
V10.1073/pnas.140217497
p331
sg53
VP NATL ACAD SCI USA
p332
sg55
V97
p333
sg85
(lp334
(VLEMTIRI-CHLIEH
VF
tp335
asg64
I2000
sg49
V8687
p336
sbag1
(g2
g3
NtRp337
(dp338
g57
Nsg53
VJ MEMBRANE BIOL
p339
sg55
V137
p340
sg85
(lp341
(VLEMTIRICHLIEH
VF
tp342
asg64
I1994
sg49
V99
p343
sbag1
(g2
g3
NtRp344
(dp345
g57
V10.1105/tpc.9.5.759
p346
sg53
VPLANT CELL
p347
sg55
V9
sg85
(lp348
(VLEUNG
VJ
tp349
asg64
I1997
sg49
VLANT
p350
sbag1
(g2
g3
NtRp351
(dp352
g57
V10.1104/pp.106.3.963
p353
sg53
VPLANT PHYSIOL
p354
sg55
V106
p355
sg85
(lp356
(VLI
VW W
tp357
asg64
I1994
sg49
VLANT
p358
sbag1
(g2
g3
NtRp359
(dp360
g57
V10.1073/pnas.90.6.2202
p361
sg53
VP NATL ACAD SCI USA
p362
sg55
V90
p363
sg85
(lp364
(VLUAN
VS
tp365
asg64
I1993
sg49
V2202
p366
sbag1
(g2
g3
NtRp367
(dp368
g57
Nsg53
VPLANTA
p369
sg55
V197
p370
sg85
(lp371
(VMAATHUIS
VF J M
tp372
asg64
I1995
sg49
VLANTA
p373
sbag1
(g2
g3
NtRp374
(dp375
g57
V10.1093/jxb/34.12.1695
p376
sg53
VJ EXP BOT
p377
sg55
V34
p378
sg85
(lp379
(VMACROBBIE
VE A C
tp380
asg64
I1983
sg49
V1695
p381
sbag1
(g2
g3
NtRp382
(dp383
g57
V10.1098/rstb.1998.0303
p384
sg53
VPHILOS T ROY SOC B
p385
sg55
V353
p386
sg85
(lp387
(VMACROBBIE
VE A C
tp388
asg64
I1998
sg49
VHILOS
p389
sbag1
(g2
g3
NtRp390
(dp391
g57
V10.1104/pp.126.4.1646
p392
sg53
VPLANT PHYSIOL
p393
sg55
V126
p394
sg85
(lp395
(VMASER
VP
tp396
asg64
I2001
sg49
VLANT
p397
sbag1
(g2
g3
NtRp398
(dp399
g57
V10.1126/science.8197457
p400
sg53
VSCIENCE
p401
sg55
V264
p402
sg85
(lp403
(VMEYER
VK
tp404
asg64
I1994
sg49
V1452
p405
sbag1
(g2
g3
NtRp406
(dp407
g57
Nsg53
VPLANT MEMBRANE TRANS
p408
sg55
Nsg85
(lp409
(VMORAN
VN
tp410
asg64
I1989
sg49
VLANT
p411
sbag1
(g2
g3
NtRp412
(dp413
g57
Nsg53
VEMBO J
p414
sg55
V14
p415
sg85
(lp416
(VMULLERROBER
VB
tp417
asg64
I1995
sg49
V2409
p418
sbag1
(g2
g3
NtRp419
(dp420
g57
V10.1104/pp.109.2.371
p421
sg53
VPLANT PHYSIOL
p422
sg55
V109
p423
sg85
(lp424
(VNAKAMURA
VR L
tp425
asg64
I1995
sg49
VLANT
p426
sbag1
(g2
g3
NtRp427
(dp428
g57
Nsg53
VStomatal function
p429
sg55
Nsg85
(lp430
(VMORISON
VJ I L
tp431
asg64
I1987
sg49
V229
p432
sbag1
(g2
g3
NtRp433
(dp434
g57
V10.1111/j.1399-3054.1983.tb00775.x
p435
sg53
VPHYSIOL PLANTARUM
p436
sg55
V59
p437
sg85
(lp438
(VOUTLAW
VW H
tp439
asg64
I1983
sg49
VHYSIOL
p440
sbag1
(g2
g3
NtRp441
(dp442
g57
V10.1046/j.1365-313X.1997.11040693.x
p443
sg53
VPLANT J
p444
sg55
V11
p445
sg85
(lp446
(VPARCY
VF
tp447
asg64
I1997
sg49
VLANT
p448
sbag1
(g2
g3
NtRp449
(dp450
g57
V10.1104/pp.103.2.359
p451
sg53
VPLANT PHYSIOL
p452
sg55
V103
p453
sg85
(lp454
(VPARK
VY S
tp455
asg64
I1993
sg49
VLANT
p456
sbag1
(g2
g3
NtRp457
(dp458
g57
V10.1105/tpc.9.3.409
p459
sg53
VPLANT CELL
p460
sg55
V9
sg85
(lp461
(VPEI
VZ M
tp462
asg64
I1997
sg49
VLANT
p463
sbag1
(g2
g3
NtRp464
(dp465
g57
V10.1073/pnas.96.21.12186
p466
sg53
VP NATL ACAD SCI USA
p467
sg55
V96
p468
sg85
(lp469
(VPHILIPPAR
VK
tp470
asg64
I1999
sg49
V12186
p471
sbag1
(g2
g3
NtRp472
(dp473
g57
V10.1126/science.271.5250.785
p474
sg53
VSCIENCE
p475
sg55
V271
p476
sg85
(lp477
(VPOSTEL
VS L
tp478
asg64
I1996
sg49
V785
p479
sbag1
(g2
g3
NtRp480
(dp481
g57
Nsg53
VPLANT J
p482
sg55
V8
sg85
(lp483
(VROBERTS
VS K
tp484
asg64
I1995
sg49
VLANT
p485
sbag1
(g2
g3
NtRp486
(dp487
g57
V10.1007/s004250050098
p488
sg53
VPLANTA
p489
sg55
V202
p490
sg85
(lp491
(VROELFSEMA
VM R G
tp492
asg64
I1997
sg49
VLANTA
p493
sbag1
(g2
g3
NtRp494
(dp495
g57
V10.1073/pnas.93.5.2208
p496
sg53
VP NATL ACAD SCI USA
p497
sg55
V93
p498
sg85
(lp499
(VSANGUINETTI
VM C
tp500
asg64
I1996
sg49
V2208
p501
sbag1
(g2
g3
NtRp502
(dp503
g57
V10.1126/science.8966547
p504
sg53
VSCIENCE
p505
sg55
V258
p506
sg85
(lp507
(VSCHACHTMAN
VD P
tp508
asg64
I1992
sg49
V1654
p509
sbag1
(g2
g3
NtRp510
(dp511
g57
V10.1073/pnas.84.12.4108
p512
sg53
VP NATL ACAD SCI USA
p513
sg55
V84
p514
sg85
(lp515
(VSCHROEDER
VJ I
tp516
asg64
I1987
sg49
V4108
p517
sbag1
(g2
g3
NtRp518
(dp519
g57
V10.1085/jgp.92.5.667
p520
sg53
VJ GEN PHYSIOL
p521
sg55
V92
p522
sg85
(lp523
(VSCHROEDER
VJ I
tp524
asg64
I1988
sg49
V667
p525
sbag1
(g2
g3
NtRp526
(dp527
g57
V10.1038/312361a0
p528
sg53
VNATURE
p529
sg55
V312
p530
sg85
(lp531
(VSCHROEDER
VJ I
tp532
asg64
I1984
sg49
V361
p533
sbag1
(g2
g3
NtRp534
(dp535
g57
V10.1038/338427a0
p536
sg53
VNATURE
p537
sg55
V338
p538
sg85
(lp539
(VSCHROEDER
VJ I
tp540
asg64
I1989
sg49
V427
p541
sbag1
(g2
g3
NtRp542
(dp543
g57
V10.1146/annurev.bb.23.060194.002301
p544
sg53
VANNU REV BIOPH BIOM
p545
sg55
V23
p546
sg85
(lp547
(VSCHROEDER
VJ I
tp548
asg64
I1994
sg49
V441
p549
sbag1
(g2
g3
NtRp550
(dp551
g57
V10.1073/pnas.91.9.4019
p552
sg53
VP NATL ACAD SCI USA
p553
sg55
V91
p554
sg85
(lp555
(VSCHWARTZ
VA
tp556
asg64
I1994
sg49
V4019
p557
sbag1
(g2
g3
NtRp558
(dp559
g57
Nsg53
VPLANT PHYSIOL
p560
sg55
V109
p561
sg85
(lp562
(VSCHWARTZ
VA
tp563
asg64
I1995
sg49
VLANT
p564
sbag1
(g2
g3
NtRp565
(dp566
g57
V10.1126/science.1585180
p567
sg53
VSCIENCE
p568
sg55
V256
p569
sg85
(lp570
(VSENTENAC
VH
tp571
asg64
I1992
sg49
V663
p572
sbag1
(g2
g3
NtRp573
(dp574
g57
Nsg53
VSUSTAINABLE MANAGEME
p575
sg55
Nsg85
(lp576
(VSERAGELDIN
VI
tp577
asg64
I1995
sg49
V1
sbag1
(g2
g3
NtRp578
(dp579
g57
Nsg53
VPLANT J
p580
sg55
V3
sg85
(lp581
(VSHEAHAN
VJ J
tp582
asg64
I1993
sg49
VLANT
p583
sbag1
(g2
g3
NtRp584
(dp585
g57
V10.1073/pnas.051616698
p586
sg53
VP NATL ACAD SCI USA
p587
sg55
V98
p588
sg85
(lp589
(VSZYROKI
VA
tp590
asg64
I2001
sg49
V2917
p591
sbag1
(g2
g3
NtRp592
(dp593
g57
V10.1093/jexbot/49.suppl_1.329
p594
sg53
VJ EXP BOT
p595
sg55
V49
p596
sg85
(lp597
(VTALBOTT
VL D
tp598
asg64
I1998
sg49
V329
p599
sbag1
(g2
g3
NtRp600
(dp601
g57
Nsg53
VPLANT CELL
p602
sg55
V8
sg85
(lp603
(VTANG
VH X
tp604
asg64
I1996
sg49
VLANT
p605
sbag1
(g2
g3
NtRp606
(dp607
g57
V10.1111/j.1365-313X.1994.00727.x
p608
sg53
VPLANT J
p609
sg55
V5
sg85
(lp610
(VTHIEL
VG
tp611
asg64
I1994
sg49
VLANT
p612
sbag1
(g2
g3
NtRp613
(dp614
g57
V10.1007/s002329900002
p615
sg53
VJ MEMBRANE BIOL
p616
sg55
V149
p617
sg85
(lp618
(VTHIEL
VG
tp619
asg64
I1996
sg49
V9
sbag1
(g2
g3
NtRp620
(dp621
g57
V10.1046/j.1365-313x.2000.00828.x
p622
sg53
VPLANT J
p623
sg55
V23
p624
sg85
(lp625
(VURBACH
VS
tp626
asg64
I2000
sg49
VLANT
p627
sbag1
(g2
g3
NtRp628
(dp629
g57
V10.1046/j.1365-313X.1998.00147.x
p630
sg53
VPLANT J
p631
sg55
V14
p632
sg85
(lp633
(VVERY
VA A
tp634
asg64
I1998
sg49
VLANT
p635
sbag1
(g2
g3
NtRp636
(dp637
g57
Nsg53
VPLANT PHYSIOL
p638
sg55
V105
p639
sg85
(lp640
(VWEGNER
VL H
tp641
asg64
I1994
sg49
VLANT
p642
sbag1
(g2
g3
NtRp643
(dp644
g57
V10.1073/pnas.95.21.12432
p645
sg53
VP NATL ACAD SCI USA
p646
sg55
V95
p647
sg85
(lp648
(VWISMAN
VE
tp649
asg64
I1998
sg49
V12432
p650
sbag1
(g2
g3
NtRp651
(dp652
g57
Nsg53
VActa Phytophysiologica Sinica
p653
sg55
V21
p654
sg85
(lp655
(VWU
VWEIHUA
tp656
asg64
I1995
sg49
V347
p657
sbag1
(g2
g3
NtRp658
(dp659
g57
V10.1105/tpc.11.11.2187
p660
sg53
VPLANT CELL
p661
sg55
V11
p662
sg85
(lp663
(VYEPHREMOV
VA
tp664
asg64
I1999
sg49
VLANT
p665
sbasb.