ccopy_reg
_reconstructor
p1
(ctethne.classes.paper
Paper
p2
c__builtin__
object
p3
NtRp4
(dp5
S'publisherCity'
p6
VROCKVILLE
p7
sS'reprintAddress'
p8
VVitale, A (reprint author), CNR, Inst Biol & Biotecnol Agraria, IL-20133 Milan, Italy.
p9
sS'WC'
p10
VPlant Sciences
p11
sS'GA'
p12
V873XU
p13
sS'pageEnd'
p14
I3426
sS'publisherAddress'
p15
V15501 MONONA DRIVE, ROCKVILLE, MD 20855 USA
p16
sS'documentType'
p17
VArticle
p18
sS'subject'
p19
VPlant Sciences
p20
sS'isoSource'
p21
VPlant Physiol.
p22
sS'timesCited'
p23
(lp24
I64
aVZ9 67
p25
asS'PT'
p26
VJ
sS'title'
p27
VProtein Quality Control Mechanisms And Protein Storage In The Endoplasmic Reticulum. A Conflict Of Interests?
p28
sS'ISSN'
p29
(lp30
V0032-0889
p31
aVJ9 PLANT PHYSIOL
p32
asS'authors_full'
p33
(lp34
(VVITALE
VA
tp35
a(VCERIOTTI
VA
tp36
asS'PG'
p37
I7
sS'PD'
p38
VNOV
p39
sS'pageStart'
p40
I3420
sS'issue'
p41
I3
sS'journal'
p42
VPLANT PHYSIOLOGY
p43
sS'volume'
p44
V136
p45
sS'doi'
p46
V10.1104/pp.104.050351
p47
sS'emailAddress'
p48
Vvitale@ibba.cnr.it
p49
sS'authorAddress'
p50
VCNR, Inst Biol & Biotecnol Agraria, IL-20133 Milan, Italy.
p51
sS'date'
p52
I2004
sS'ER'
p53
V
sS'publisher'
p54
VAMER SOC PLANT BIOLOGISTS
p55
sS'authorKeywords'
p56
(lp57
VMAIZE ENDOSPERM
p58
aVXENOPUS-OOCYTES
p59
aVBODY FORMATION
p60
aVGAMMA-GLIADIN
p61
aVEXPRESSION
p62
aVSTRESS
p63
aVZEIN
p64
aVBIP
p65
aVTRANSPORT
p66
aVBINDING
p67
asS'language'
p68
VEnglish
p69
sS'wosid'
p70
VWOS:000225315600003
p71
sS'citationCount'
p72
I30
sS'authors_init'
p73
(lp74
(VVITALE
VA
tp75
a(VCERIOTTI
VA
tp76
asS'citedReferences'
p77
(lp78
g1
(g2
g3
NtRp79
(dp80
g46
Nsg42
VJ BIOL CHEM
p81
sg44
V269
p82
sg73
(lp83
(VALTSCHULER
VY
tp84
asg52
I1994
sg40
V6677
p85
sbag1
(g2
g3
NtRp86
(dp87
g46
V10.1007/s004250050339
p88
sg42
VPLANTA
p89
sg44
V205
p90
sg73
(lp91
(VALVAREZ
VI
tp92
asg52
I1998
sg40
VLANTA
p93
sbag1
(g2
g3
NtRp94
(dp95
g46
V10.1016/S0962-8924(03)00082-5
p96
sg42
VTRENDS CELL BIOL
p97
sg44
V13
p98
sg73
(lp99
(VBARLOWE
VC
tp100
asg52
I2003
sg40
V295
p101
sbag1
(g2
g3
NtRp102
(dp103
g46
V10.1111/j.1432-1033.1991.tb16456.x
p104
sg42
VEUR J BIOCHEM
p105
sg44
V202
p106
sg73
(lp107
(VCERIOTTI
VA
tp108
asg52
I1991
sg40
V959
p109
sbag1
(g2
g3
NtRp110
(dp111
g46
V10.1104/pp.83.4.778
p112
sg42
VPLANT PHYSIOL
p113
sg44
V83
p114
sg73
(lp115
(VCHRISPEELS
VM J
tp116
asg52
I1987
sg40
VLANT
p117
sbag1
(g2
g3
NtRp118
(dp119
g46
V10.1105/tpc.013052
p120
sg42
VPLANT CELL
p121
sg44
V15
p122
sg73
(lp123
(VFORESTI
VO
tp124
asg52
I2003
sg40
VLANT
p125
sbag1
(g2
g3
NtRp126
(dp127
g46
Nsg42
VPLANT CELL
p128
sg44
V6
sg73
(lp129
(VGELI
VM I
tp130
asg52
I1994
sg40
VLANT
p131
sbag1
(g2
g3
NtRp132
(dp133
g46
Nsg42
VPLANT CELL
p134
sg44
V11
p135
sg73
(lp136
(VHERMAN
VE M
tp137
asg52
I1999
sg40
VLANT
p138
sbag1
(g2
g3
NtRp139
(dp140
g46
V10.1105/tpc.003905
p141
sg42
VPLANT CELL
p142
sg44
V14
p143
sg73
(lp144
(VHUNTER
VB G
tp145
asg52
I2002
sg40
VLANT
p146
sbag1
(g2
g3
NtRp147
(dp148
g46
V10.1105/tpc.11.10.1935
p149
sg42
VPLANT CELL
p150
sg44
V11
p151
sg73
(lp152
(VJELITTO-VAN
VDOOREN EPWM
tp153
asg52
I1999
sg40
VLANT
p154
sbag1
(g2
g3
NtRp155
(dp156
g46
Nsg42
VPLANTA
p157
sg44
V195
p158
sg73
(lp159
(VKALINSKI
VA
tp160
asg52
I1995
sg40
VLANTA
p161
sbag1
(g2
g3
NtRp162
(dp163
g46
V10.2307/2441269
p164
sg42
VAM J BOT
p165
sg44
V57
p166
sg73
(lp167
(VKHOO
VU
tp168
asg52
I1970
sg40
V1042
p169
sbag1
(g2
g3
NtRp170
(dp171
g46
V10.1104/pp.103.031310
p172
sg42
VPLANT PHYSIOL
p173
sg44
V134
p174
sg73
(lp175
(VKIM
VC S
tp176
asg52
I2004
sg40
VLANT
p177
sbag1
(g2
g3
NtRp178
(dp179
g46
V10.1105/tpc.010431
p180
sg42
VPLANT CELL
p181
sg44
V14
p182
sg73
(lp183
(VKIM
VC S
tp184
asg52
I2002
sg40
VLANT
p185
sbag1
(g2
g3
NtRp186
(dp187
g46
V10.1002/bip.10578
p188
sg42
VBIOPOLYMERS
p189
sg44
V73
p190
sg73
(lp191
(VKOGAN
VM J
tp192
asg52
I2004
sg40
V258
p193
sbag1
(g2
g3
NtRp194
(dp195
g46
V10.1083/jcb.119.5.1117
p196
sg42
VJ CELL BIOL
p197
sg44
V119
p198
sg73
(lp199
(VLEVANONY
VH
tp200
asg52
I1992
sg40
V1117
p201
sbag1
(g2
g3
NtRp202
(dp203
g46
V10.1126/science.8235623
p204
sg42
VSCIENCE
p205
sg44
V262
p206
sg73
(lp207
(VLI
VX X
tp208
asg52
I1993
sg40
V1054
p209
sbag1
(g2
g3
NtRp210
(dp211
g46
V10.1104/pp.104.046409
p212
sg42
VPLANT PHYSIOL
p213
sg44
V136
p214
sg73
(lp215
(VMAINIERI
VD
tp216
asg52
I2004
sg40
VLANT
p217
sbag1
(g2
g3
NtRp218
(dp219
g46
Nsg42
VPLANT CELL PHYSIOL
p220
sg44
V38
p221
sg73
(lp222
(VMUENCH
VD G
tp223
asg52
I1997
sg40
VLANT
p224
sbag1
(g2
g3
NtRp225
(dp226
g46
V10.1007/s004250050218
p227
sg42
VPLANTA
p228
sg44
V203
p229
sg73
(lp230
(VNAPIER
VJ A
tp231
asg52
I1997
sg40
VLANTA
p232
sbag1
(g2
g3
NtRp233
(dp234
g46
V10.1126/science.287.5454.826
p235
sg42
VSCIENCE
p236
sg44
V287
p237
sg73
(lp238
(VRIVERA
VV M
tp239
asg52
I2000
sg40
V826
p240
sbag1
(g2
g3
NtRp241
(dp242
g46
Nsg42
VPLANT PHYSIOL
p243
sg44
V102
p244
sg73
(lp245
(VROSENBERG
VN
tp246
asg52
I1993
sg40
VLANT
p247
sbag1
(g2
g3
NtRp248
(dp249
g46
V10.1016/j.tcb.2003.11.001
p250
sg42
VTRENDS CELL BIOL
p251
sg44
V14
p252
sg73
(lp253
(VRUTKOWSKI
VD T
tp254
asg52
I2004
sg40
V20
p255
sbag1
(g2
g3
NtRp256
(dp257
g46
V10.1104/pp.108.1.327
p258
sg42
VPLANT PHYSIOL
p259
sg44
V108
p260
sg73
(lp261
(VSHIMONI
VY
tp262
asg52
I1995
sg40
VLANT
p263
sbag1
(g2
g3
NtRp264
(dp265
g46
V10.1038/nature02262
p266
sg42
VNATURE
p267
sg44
V426
p268
sg73
(lp269
(VSITIA
VR
tp270
asg52
I2003
sg40
V891
p271
sbag1
(g2
g3
NtRp272
(dp273
g46
Nsg42
VPLANT J
p274
sg44
V24
p275
sg73
(lp276
(VSPARVOLI
VR
tp277
asg52
I2000
sg40
VLANT
p278
sbag1
(g2
g3
NtRp279
(dp280
g46
Nsg42
VEUR J CELL BIOL
p281
sg44
V78
p282
sg73
(lp283
(VUMEBAYASHI
VK
tp284
asg52
I1999
sg40
V726
p285
sbag1
(g2
g3
NtRp286
(dp287
g46
V10.1016/S1074-7613(03)00024-4
p288
sg42
VIMMUNITY
p289
sg44
V18
p290
sg73
(lp291
(VVAN
VANKEN E
tp292
asg52
I2003
sg40
V243
p293
sbag1
(g2
g3
NtRp294
(dp295
g46
Nsg42
VPLANT CELL
p296
sg44
V11
p297
sg73
(lp298
(VVITALE
VA
tp299
asg52
I1999
sg40
VLANT
p300
sbag1
(g2
g3
NtRp301
(dp302
g46
V10.1007/BF01403729
p303
sg42
VPROTOPLASMA
p304
sg44
V171
p305
sg73
(lp306
(VZHANG
VF
tp307
asg52
I1992
sg40
VROTOPLASMA
p308
sbasb.