ccopy_reg
_reconstructor
p1
(ctethne.classes.paper
Paper
p2
c__builtin__
object
p3
NtRp4
(dp5
S'publisherCity'
p6
VROCKVILLE
p7
sS'reprintAddress'
p8
VMellerowicz, EJ (reprint author), Umea Plant Sci Ctr, Dept Forest Genet & Plant Physiol, SE-90183 Umea, Sweden.
p9
sS'WC'
p10
VPlant Sciences
p11
sS'GA'
p12
V701QV
p13
sS'FX'
p14
(lp15
VThis work was supported by grants from FORMAS, the Swedish Research
p16
aVCouncil, the Swedish Foundation for Strategic Research, the Wallenberg
p17
aVFoundation, the European Union projects EDEN and RENEWALL, the Wood
p18
aVUltrastructure Research Centre, the Sven and Lilly Lawski Foundation,
p19
aVand the Carl Tryggers Foundation.
p20
asS'abstract'
p21
VXyloglucan endo-transglycosylases (XETs) encoded by xyloglucan endo-transglycosylases/hydrolase (XTH) genes modify the xyloglucan-cellulose framework of plant cell walls, thereby regulating their expansion and strength. To evaluate the importance of XET in wood development, we studied xyloglucan dynamics and XTH gene expression in developing wood and modified XET activity in hybrid aspen (Populus tremula X tremuloides) by overexpressing PtxtXET16-34. We show that developmental modifications during xylem differentiation include changes from loosely to tightly bound forms of xyloglucan and increases in the abundance of fucosylated xyloglucan epitope recognized by the CCRC-M1 antibody. We found that at least 16 Populus XTH genes, all likely encoding XETs, are expressed in developing wood. Five genes were highly and ubiquitously expressed, whereas PtxtXET16-34 was expressed more weakly but specifically in developing wood. Transgenic up-regulation of XET activity induced changes in cell wall xyloglucan, but its effects were dependent on developmental stage. For instance, XET overexpression increased abundance of the CCRC-M1 epitope in cambial cells and xylem cells in early stages of differentiation but not in mature xylem. Correspondingly, an increase in tightly bound xyloglucan content was observed in primary-walled xylem but a decrease was seen in secondary-walled xylem. Thus, in young xylem cells, XET activity limits xyloglucan incorporation into the tightly bound wall network but removes it from cell walls in older cells. XET overexpression promoted vessel element growth but not fiber expansion. We suggest that the amount of nascent xyloglucan relative to XET is an important determinant of whether XET strengthens or loosens the cell wall.
p22
sS'pageEnd'
p23
I413
sS'date'
p24
I2011
sS'documentType'
p25
VArticle
p26
sS'subject'
p27
VPlant Sciences
p28
sS'isoSource'
p29
VPlant Physiol.
p30
sS'timesCited'
p31
(lp32
I12
aVZ9 15
p33
asS'funding'
p34
(lp35
(VFORMAS
Ntp36
a(VSwedish Research Council
Ntp37
a(VSwedish Foundation for Strategic Research
Ntp38
a(VWallenberg Foundation
Ntp39
a(VEuropean Union
Ntp40
a(VWood Ultrastructure Research Centre
Ntp41
a(VSven and Lilly Lawski Foundation
Ntp42
a(VCarl Tryggers Foundation
Ntp43
asS'PT'
p44
VJ
sS'title'
p45
VXyloglucan Endo-Transglycosylase-Mediated Xyloglucan Rearrangements In Developing Wood Of Hybrid Aspen
p46
sS'ISSN'
p47
(lp48
V0032-0889
p49
aVJ9 PLANT PHYSIOL
p50
asS'authors_full'
p51
(lp52
(VNISHIKUBO
VNOBUYUKI
tp53
a(VTAKAHASHI
VJUNKO
tp54
a(VROOS
VALEXANDRA A
tp55
a(VDERBAMACELUCH
VMARTA
tp56
a(VPIENS
VKATHLEEN
tp57
a(VBRUMER
VHARRY
tp58
a(VTEERI
VTUULA T
tp59
a(VSTALBRAND
VHENRIK
tp60
a(VMELLEROWICZ
VEWA J
tp61
asS'PG'
p62
I15
sS'PD'
p63
VJAN
p64
sS'pageStart'
p65
I399
sS'issue'
p66
I1
sS'RI'
p67
VTeeri, Tuula/E-7509-2013
p68
sS'journal'
p69
VPLANT PHYSIOLOGY
p70
sS'volume'
p71
V155
p72
sS'doi'
p73
V10.1104/pp.110.166934
p74
sS'emailAddress'
p75
Vewa.mellerowicz@genfys.slu.se
p76
sS'authorAddress'
p77
(lp78
V[Nishikubo, Nobuyuki; Takahashi, Junko; Derba-Maceluch, Marta; Mellerowicz, Ewa J.] Umea Plant Sci Ctr, Dept Forest Genet & Plant Physiol, SE-90183 Umea, Sweden.
p79
aV[Roos, Alexandra A.; Stalbrand, Henrik] Lund Univ, Ctr Chem & Chem Engn, Dept Biochem, SE-22100 Lund, Sweden.
p80
aV[Piens, Kathleen; Brumer, Harry; Teeri, Tuula T.] Royal Inst Technol, AlbaNova Univ Ctr, Dept Biotechnol, SE-10691 Stockholm, Sweden.
p81
asS'publisherAddress'
p82
V15501 MONONA DRIVE, ROCKVILLE, MD 20855 USA
p83
sS'ER'
p84
V
sS'publisher'
p85
VAMER SOC PLANT BIOLOGISTS
p86
sS'authorKeywords'
p87
(lp88
VPLANT-CELL-WALL
p89
aVMATRIX POLYSACCHARIDES
p90
aVARABIDOPSIS-THALIANA
p91
aVEXPRESSION PROFILES
p92
aVELONGATING TISSUES
p93
aVMOLECULAR-WEIGHT
p94
aVCICER-ARIETINUM
p95
aVGENE FAMILY
p96
aVROOT-GROWTH
p97
aVXTH GENES
p98
asS'language'
p99
VEnglish
p100
sS'wosid'
p101
VWOS:000285838300037
p102
sS'citationCount'
p103
I66
sS'authors_init'
p104
(lp105
(VNISHIKUBO
VN
tp106
a(VTAKAHASHI
VJ
tp107
a(VROOS
VA A
tp108
a(VDERBAMACELUCH
VM
tp109
a(VPIENS
VK
tp110
a(VBRUMER
VH
tp111
a(VTEERI
VT T
tp112
a(VSTALBRAND
VH
tp113
a(VMELLEROWICZ
VE J
tp114
asS'citedReferences'
p115
(lp116
g1
(g2
g3
NtRp117
(dp118
g73
V10.1104/pp.115.4.1319
p119
sg69
VPLANT PHYSIOL
p120
sg71
V115
p121
sg104
(lp122
(VANTOSIEWICZ
VD M
tp123
asg24
I1997
sg65
VLANT
p124
sbag1
(g2
g3
NtRp125
(dp126
g73
V10.1093/mp/ssp054
p127
sg69
VMOL PLANT
p128
sg71
V2
sg104
(lp129
(VBABA
VK
tp130
asg24
I2009
sg65
V893
p131
sbag1
(g2
g3
NtRp132
(dp133
g73
V10.1007/s00709-005-0095-5
p134
sg69
VPROTOPLASMA
p135
sg71
V225
p136
sg104
(lp137
(VBALUSKA
VF
tp138
asg24
I2005
sg65
VROTOPLASMA
p139
sbag1
(g2
g3
NtRp140
(dp141
g73
V10.1105/tpc.107.051391
p142
sg69
VPLANT CELL
p143
sg71
V19
p144
sg104
(lp145
(VBAUMANN
VM J
tp146
asg24
I2007
sg65
VLANT
p147
sbag1
(g2
g3
NtRp148
(dp149
g73
V10.1007/s11103-006-0021-z
p150
sg69
VPLANT MOL BIOL
p151
sg71
V61
p152
sg104
(lp153
(VBECNEL
VJ
tp154
asg24
I2006
sg65
VLANT
p155
sbag1
(g2
g3
NtRp156
(dp157
g73
V10.1105/tpc.007773
p158
sg69
VPLANT CELL
p159
sg71
V14
p160
sg104
(lp161
(VBOURQUIN
VV
tp162
asg24
I2002
sg65
VLANT
p163
sbag1
(g2
g3
NtRp164
(dp165
g73
V10.1105/tpc.108.059873
p166
sg69
VPLANT CELL
p167
sg71
V20
p168
sg104
(lp169
(VCAVALIER
VD M
tp170
asg24
I2008
sg65
VLANT
p171
sbag1
(g2
g3
NtRp172
(dp173
g73
V10.1111/j.1365-313X.2004.02018.x
p174
sg69
VPLANT J
p175
sg71
V38
p176
sg104
(lp177
(VCHANLIAUD
VE
tp178
asg24
I2004
sg65
VLANT
p179
sbag1
(g2
g3
NtRp180
(dp181
g73
V10.1016/j.febslet.2006.04.062
p182
sg69
VFEBS LETT
p183
sg71
V580
p184
sg104
(lp185
(VCHO
VS K
tp186
asg24
I2006
sg65
V3136
p187
sbag1
(g2
g3
NtRp188
(dp189
g73
V10.1038/nrm1746
p190
sg69
VNAT REV MOL CELL BIO
p191
sg71
V6
sg104
(lp192
(VCOSGROVE
VD J
tp193
asg24
I2005
sg65
V850
p194
sbag1
(g2
g3
NtRp195
(dp196
g73
V10.1111/j.1467-7652.2003.00056.x
p197
sg69
VPLANT BIOTECHNOL J
p198
sg71
V2
sg104
(lp199
(VDIMMER
VE
tp200
asg24
I2004
sg65
VLANT
p201
sbag1
(g2
g3
NtRp202
(dp203
g73
V10.1104/pp.110.156844
p204
sg69
VPLANT PHYSIOL
p205
sg71
V153
p206
sg104
(lp207
(VEKLOF
VJ M
tp208
asg24
I2010
sg65
VLANT
p209
sbag1
(g2
g3
NtRp210
(dp211
g73
Nsg69
VBIOCHEM J
p212
sg71
V282
p213
sg104
(lp214
(VFRY
VS C
tp215
asg24
I1992
sg65
V821
p216
sbag1
(g2
g3
NtRp217
(dp218
g73
V10.1104/pp.105.072652
p219
sg69
VPLANT PHYSIOL
p220
sg71
V140
p221
sg104
(lp222
(VGEISLER-LEE
VJ
tp223
asg24
I2006
sg65
VLANT
p224
sbag1
(g2
g3
NtRp225
(dp226
g73
V10.1093/jxb/ern013
p227
sg69
VJ EXP BOT
p228
sg71
V59
p229
sg104
(lp230
(VGENOVESI
VV
tp231
asg24
I2008
sg65
V875
p232
sbag1
(g2
g3
NtRp233
(dp234
g73
V10.1111/j.1467-7652.2007.00295.x
p235
sg69
VPLANT BIOTECHNOL J
p236
sg71
V6
sg104
(lp237
(VGRAY-MITSUMUNE
VM
tp238
asg24
I2008
sg65
VLANT
p239
sbag1
(g2
g3
NtRp240
(dp241
g73
V10.1104/pp.104.039321
p242
sg69
VPLANT PHYSIOL
p243
sg71
V135
p244
sg104
(lp245
(VGRAY-MITSUMUNE
VM
tp246
asg24
I2004
sg65
VLANT
p247
sbag1
(g2
g3
NtRp248
(dp249
g73
Nsg69
VANNU REV PLANT PHYS
p250
sg71
V40
p251
sg104
(lp252
(VHAYASHI
VT
tp253
asg24
I1989
sg65
V139
p254
sbag1
(g2
g3
NtRp255
(dp256
g73
Nsg69
VBIOSCI BIOTECH BIOCH
p257
sg71
V58
p258
sg104
(lp259
(VHAYASHI
VT
tp260
asg24
I1994
sg65
V1707
p261
sbag1
(g2
g3
NtRp262
(dp263
g73
V10.1042/BJ20030485
p264
sg69
VBIOCHEM J
p265
sg71
V375
p266
sg104
(lp267
(VHENRIKSSON
VH
tp268
asg24
I2003
sg65
V61
p269
sbag1
(g2
g3
NtRp270
(dp271
g73
V10.1007/s004250000393
p272
sg69
VPLANTA
p273
sg71
V212
p274
sg104
(lp275
(VHERBERS
VK
tp276
asg24
I2001
sg65
VLANTA
p277
sbag1
(g2
g3
NtRp278
(dp279
g73
V10.1104/pp.104.052274
p280
sg69
VPLANT PHYSIOL
p281
sg71
V136
p282
sg104
(lp283
(VJAN
VA
tp284
asg24
I2004
sg65
VLANT
p285
sbag1
(g2
g3
NtRp286
(dp287
g73
V10.1093/jxb/erl169
p288
sg69
VJ EXP BOT
p289
sg71
V57
p290
sg104
(lp291
(VJIMENEZ
VT
tp292
asg24
I2006
sg65
V3979
p293
sbag1
(g2
g3
NtRp294
(dp295
g73
V10.1104/pp.110.154138
p296
sg69
VPLANT PHYSIOL
p297
sg71
V153
p298
sg104
(lp299
(VKAIDA
VR
tp300
asg24
I2010
sg65
VLANT
p301
sbag1
(g2
g3
NtRp302
(dp303
g73
V10.1042/BJ20041749
p304
sg69
VBIOCHEM J
p305
sg71
V390
p306
sg104
(lp307
(VKALLAS
VA M
tp308
asg24
I2005
sg65
V105
p309
sbag1
(g2
g3
NtRp310
(dp311
g73
V10.1007/s00425-003-1027-2
p312
sg69
VPLANTA
p313
sg71
V217
p314
sg104
(lp315
(VKERR
VE M
tp316
asg24
I2003
sg65
VLANTA
p317
sbag1
(g2
g3
NtRp318
(dp319
g73
Nsg69
VRECL TRAV CHIM PAY B
p320
sg71
V79
p321
sg104
(lp322
(VKOOIMAN
VP
tp323
asg24
I1960
sg65
V675
p324
sbag1
(g2
g3
NtRp325
(dp326
g73
Nsg69
VVASCULAR CAMBIUM
p327
sg71
VASCULAR
p328
sg104
(lp329
(VLARSON
VP R
tp330
asg24
I1994
sg65
Nsbag1
(g2
g3
NtRp331
(dp332
g73
V10.1007/s00425-007-0591-2
p333
sg69
VPLANTA
p334
sg71
V226
p335
sg104
(lp336
(VLIU
VY B
tp337
asg24
I2007
sg65
VLANTA
p338
sbag1
(g2
g3
NtRp339
(dp340
g73
V10.1016/S0144-8617(02)00111-X
p341
sg69
VCARBOHYD POLYM
p342
sg71
V51
p343
sg104
(lp344
(VLUNDQVIST
VJ
tp345
asg24
I2003
sg65
V203
p346
sbag1
(g2
g3
NtRp347
(dp348
g73
V10.1186/1471-2229-8-60
p349
sg69
VBMC PLANT BIOL
p350
sg71
V8
sg104
(lp351
(VMARCUS
VS E
tp352
asg24
I2008
sg65
Nsbag1
(g2
g3
NtRp353
(dp354
g73
V10.1093/jxb/erp229
p355
sg69
VJ EXP BOT
p356
sg71
V60
p357
sg104
(lp358
(VMARIS
VA
tp359
asg24
I2009
sg65
V3959
p360
sbag1
(g2
g3
NtRp361
(dp362
g73
V10.1111/j.1365-313X.2005.02395.x
p363
sg69
VPLANT J
p364
sg71
V42
p365
sg104
(lp366
(VMATSUI
VA
tp367
asg24
I2005
sg65
VLANT
p368
sbag1
(g2
g3
NtRp369
(dp370
g73
Nsg69
VJ CELL SCI
p371
sg71
V96
p372
sg104
(lp373
(VMCCANN
VM C
tp374
asg24
I1990
sg65
V323
p375
sbag1
(g2
g3
NtRp376
(dp377
g73
Nsg69
VSCI LORE PLANT CELL
p378
sg71
Nsg104
(lp379
(VMELLEROWICZ
VE J
tp380
asg24
I2006
sg65
V267
p381
sbag1
(g2
g3
NtRp382
(dp383
g73
V10.1093/aob/mcn170
p384
sg69
VANN BOT
p385
sg71
V102
p386
sg104
(lp387
(VMELLEROWICZ
VE J
tp388
asg24
I2008
sg65
V659
p389
sbag1
(g2
g3
NtRp390
(dp391
g73
V10.1016/j.pbi.2008.03.003
p392
sg69
VCURR OPIN PLANT BIOL
p393
sg71
V11
p394
sg104
(lp395
(VMELLEROWICZ
VE J
tp396
asg24
I2008
sg65
V293
p397
sbag1
(g2
g3
NtRp398
(dp399
g73
V10.1023/A:1010699919325
p400
sg69
VPLANT MOL BIOL
p401
sg71
V47
p402
sg104
(lp403
(VMELLEROWICZ
VE J
tp404
asg24
I2001
sg65
VLANT
p405
sbag1
(g2
g3
NtRp406
(dp407
g73
V10.1021/jf100242z
p408
sg69
VJ AGR FOOD CHEM
p409
sg71
V58
p410
sg104
(lp411
(VMIEDES
VE
tp412
asg24
I2010
sg65
V5708
p413
sbag1
(g2
g3
NtRp414
(dp415
g73
V10.1093/pcp/pcg002
p416
sg69
VPLANT CELL PHYSIOL
p417
sg71
V44
p418
sg104
(lp419
(VNAKAMURA
VT
tp420
asg24
I2003
sg65
VLANT
p421
sbag1
(g2
g3
NtRp422
(dp423
g73
V10.1093/pcp/pcm055
p424
sg69
VPLANT CELL PHYSIOL
p425
sg71
V48
p426
sg104
(lp427
(VNISHIKUBO
VN
tp428
asg24
I2007
sg65
VLANT
p429
sbag1
(g2
g3
NtRp430
(dp431
g73
V10.1111/j.1399-3054.1981.tb02720.x
p432
sg69
VPHYSIOL PLANTARUM
p433
sg71
V52
p434
sg104
(lp435
(VNISHITANI
VK
tp436
asg24
I1981
sg65
VHYSIOL
p437
sbag1
(g2
g3
NtRp438
(dp439
g73
Nsg69
VJ BIOL CHEM
p440
sg71
V267
p441
sg104
(lp442
(VNISHITANI
VK
tp443
asg24
I1992
sg65
V21058
p444
sbag1
(g2
g3
NtRp445
(dp446
g73
V10.1007/s10265-006-0262-6
p447
sg69
VJ PLANT RES
p448
sg71
V119
p449
sg104
(lp450
(VOSATO
VY
tp451
asg24
I2006
sg65
V153
p452
sbag1
(g2
g3
NtRp453
(dp454
g73
V10.1007/s004250000448
p455
sg69
VPLANTA
p456
sg71
V212
p457
sg104
(lp458
(VPAULY
VM
tp459
asg24
I2001
sg65
VLANTA
p460
sbag1
(g2
g3
NtRp461
(dp462
g73
V10.1104/pp.127.4.1513
p463
sg69
VPLANT PHYSIOL
p464
sg71
V127
p465
sg104
(lp466
(VPLOMION
VC
tp467
asg24
I2001
sg65
VLANT
p468
sbag1
(g2
g3
NtRp469
(dp470
g73
V10.1007/s00425-007-0656-2
p471
sg69
VPLANTA
p472
sg71
V227
p473
sg104
(lp474
(VPOPPER
VZ A
tp475
asg24
I2008
sg65
VLANTA
p476
sbag1
(g2
g3
NtRp477
(dp478
g73
V10.1104/pp.104.2.699
p479
sg69
VPLANT PHYSIOL
p480
sg71
V104
p481
sg104
(lp482
(VPUHLMANN
VJ
tp483
asg24
I1994
sg65
VLANT
p484
sbag1
(g2
g3
NtRp485
(dp486
g73
V10.1016/j.plaphy.2005.01.014
p487
sg69
VPLANT PHYSIOL BIOCH
p488
sg71
V43
p489
sg104
(lp490
(VROMO
VS
tp491
asg24
I2005
sg65
VLANT
p492
sbag1
(g2
g3
NtRp493
(dp494
g73
V10.1093/pcp/pcf171
p495
sg69
VPLANT CELL PHYSIOL
p496
sg71
V43
p497
sg104
(lp498
(VROSE
VJ K C
tp499
asg24
I2002
sg65
VLANT
p500
sbag1
(g2
g3
NtRp501
(dp502
g73
V10.1104/pp.110.163212
p503
sg69
VPLANT PHYSIOL
p504
sg71
V154
p505
sg104
(lp506
(VSAMPEDRO
VJ
tp507
asg24
I2010
sg65
VLANT
p508
sbag1
(g2
g3
NtRp509
(dp510
g73
V10.1007/s00425-005-0189-5
p511
sg69
VPLANTA
p512
sg71
V224
p513
sg104
(lp514
(VSHIN
VY K
tp515
asg24
I2006
sg65
VLANTA
p516
sbag1
(g2
g3
NtRp517
(dp518
g73
V10.1104/pp.107.111963
p519
sg69
VPLANT PHYSIOL
p520
sg71
V146
p521
sg104
(lp522
(VSIEDLECKA
VA
tp523
asg24
I2008
sg65
VLANT
p524
sbag1
(g2
g3
NtRp525
(dp526
g73
V10.1006/abio.1995.1381
p527
sg69
VANAL BIOCHEM
p528
sg71
V229
p529
sg104
(lp530
(VSULOVA
VZ
tp531
asg24
I1995
sg65
V80
p532
sbag1
(g2
g3
NtRp533
(dp534
g73
V10.1021/ja00899a032
p535
sg69
VJ AM CHEM SOC
p536
sg71
V85
p537
sg104
(lp538
(VSWEELEY
VC C
tp539
asg24
I1963
sg65
V2497
p540
sbag1
(g2
g3
NtRp541
(dp542
g73
V10.1093/pcp/pcp062
p543
sg69
VPLANT CELL PHYSIOL
p544
sg71
V50
p545
sg104
(lp546
(VTAKAHASHI
VJ
tp547
asg24
I2009
sg65
VLANT
p548
sbag1
(g2
g3
NtRp549
(dp550
g73
V10.1073/pnas.132080299
p551
sg69
VP NATL ACAD SCI USA
p552
sg71
V99
p553
sg104
(lp554
(VTAKEDA
VT
tp555
asg24
I2002
sg65
V9055
p556
sbag1
(g2
g3
NtRp557
(dp558
g73
V10.1104/pp.98.1.369
p559
sg69
VPLANT PHYSIOL
p560
sg71
V98
p561
sg104
(lp562
(VTALBOTT
VL D
tp563
asg24
I1992
sg65
VLANT
p564
sbag1
(g2
g3
NtRp565
(dp566
g73
V10.1093/jxb/48.2.297
p567
sg69
VJ EXP BOT
p568
sg71
V48
p569
sg104
(lp570
(VTHOMPSON
VJ E
tp571
asg24
I1997
sg65
V297
p572
sbag1
(g2
g3
NtRp573
(dp574
g73
Nsg69
VBIOCHEM J
p575
sg71
V327
p576
sg104
(lp577
(VTHOMPSON
VJ E
tp578
asg24
I1997
sg65
V699
p579
sbag1
(g2
g3
NtRp580
(dp581
g73
V10.1093/pcp/pcf048
p582
sg69
VPLANT CELL PHYSIOL
p583
sg71
V43
p584
sg104
(lp585
(VTOKUMOTO
VH
tp586
asg24
I2002
sg65
VLANT
p587
sbag1
(g2
g3
NtRp588
(dp589
g73
V10.1093/aob/mcm248
p590
sg69
VANN BOT
p591
sg71
V100
p592
sg104
(lp593
(VVAN
VSANDT V S T
tp594
asg24
I2007
sg65
V1467
p595
sbag1
(g2
g3
NtRp596
(dp597
g73
V10.1093/jxb/eri048
p598
sg69
VJ EXP BOT
p599
sg71
V56
p600
sg104
(lp601
(VVISSENBERG
VK
tp602
asg24
I2005
sg65
V673
p603
sbag1
(g2
g3
NtRp604
(dp605
g73
V10.1093/pcp/pce154
p606
sg69
VPLANT CELL PHYSIOL
p607
sg71
V42
p608
sg104
(lp609
(VYOKOYAMA
VR
tp610
asg24
I2001
sg65
VLANT
p611
sbag1
(g2
g3
NtRp612
(dp613
g73
V10.1104/pp.103.035261
p614
sg69
VPLANT PHYSIOL
p615
sg71
V134
p616
sg104
(lp617
(VYOKOYAMA
VR
tp618
asg24
I2004
sg65
VLANT
p619
sbag1
(g2
g3
NtRp620
(dp621
g73
V10.1111/j.1399-3054.2005.00536.x
p622
sg69
VPHYSIOL PLANTARUM
p623
sg71
V125
p624
sg104
(lp625
(VYUN
VH S
tp626
asg24
I2005
sg65
VHYSIOL
p627
sbasb.