ccopy_reg
_reconstructor
p1
(ctethne.classes.paper
Paper
p2
c__builtin__
object
p3
NtRp4
(dp5
S'publisherCity'
p6
VROCKVILLE
p7
sS'reprintAddress'
p8
VBinder, S (reprint author), Univ Ulm, Inst Mol Bot, D-89069 Ulm, Germany.
p9
sS'WC'
p10
VPlant Sciences
p11
sS'GA'
p12
V844BL
p13
sS'FX'
p14
(lp15
VThis work was supported by the Deutsche Forschungsgemeinschaft (grant
p16
aVno. Bi 590/10-1).
p17
asS'abstract'
p18
VRNA PROCESSING FACTOR1 (RPF1) and RPF2 are pentatricopeptide repeat (PPR) proteins involved in 5' processing of different mitochondrial mRNAs in Arabidopsis (Arabidopsis thaliana). Both factors are highly similar to RESTORERS OF FERTILITY (RF), which are part of cytoplasmic male sterility/restoration systems in various plant species. These findings suggest a predominant role of RF-like PPR proteins in posttranscriptional 5' processing. To further explore the functions of this group of proteins, we examined a number of T-DNA lines carrying insertions in the corresponding PPR genes. This screening identified a nearly complete absence of mature ccmC transcripts in an At1g62930 T-DNA insertion line, a phenotype that could be restored by the introduction of the intact At1g62930 gene into the mutant. The insertion in this nuclear gene, which we now call RPF3, also leads to a severe reduction of the CcmC protein in mitochondria. The analysis of C24/rpf3-1 F2 hybrids lacking functional RPF3 genes revealed that this gene has less influence on the generation of the mature ccmC 5' transcript end derived from a distinct ccmC 5' upstream configuration found in mitochondrial DNAs from C24 and other accessions. These data show that a particular function of an RF-like protein is required only in connection with a distinct mtDNA configuration. Our new results further substantiate the fundamental role of RF-like PPR proteins in the posttranscriptional generation of plant mitochondrial 5' transcript termini.
p19
sS'pageEnd'
p20
I1439
sS'date'
p21
I2011
sS'documentType'
p22
VArticle
p23
sS'subject'
p24
VPlant Sciences
p25
sS'isoSource'
p26
VPlant Physiol.
p27
sS'timesCited'
p28
(lp29
I12
aVZ9 12
p30
asS'funding'
p31
(lp32
(VDeutsche Forschungsgemeinschaft
VBi 590/10-1
tp33
asS'PT'
p34
VJ
sS'title'
p35
VRna Processing Factor3 Is Crucial For The Accumulation Of Mature Ccmc Transcripts In Mitochondria Of Arabidopsis Accession Columbia
p36
sS'ISSN'
p37
(lp38
V0032-0889
p39
aVJ9 PLANT PHYSIOL
p40
asS'authors_full'
p41
(lp42
(VJONIETZ
VCHRISTIAN
tp43
a(VFORNER
VJOACHIM
tp44
a(VHILDEBRANDT
VTATJANA
tp45
a(VBINDER
VSTEFAN
tp46
asS'PG'
p47
I10
sS'PD'
p48
VNOV
p49
sS'pageStart'
p50
I1430
sS'issue'
p51
I3
sS'journal'
p52
VPLANT PHYSIOLOGY
p53
sS'volume'
p54
V157
p55
sS'doi'
p56
V10.1104/pp.111.181552
p57
sS'emailAddress'
p58
Vstefan.binder@uni-ulm.de
p59
sS'authorAddress'
p60
(lp61
V[Jonietz, Christian; Forner, Joachim; Binder, Stefan] Univ Ulm, Inst Mol Bot, D-89069 Ulm, Germany.
p62
aV[Hildebrandt, Tatjana] Leibniz Univ Hannover, Inst Pflanzengenet, Abt Pflanzenprote, D-30419 Hannover, Germany.
p63
asS'publisherAddress'
p64
V15501 MONONA DRIVE, ROCKVILLE, MD 20855 USA
p65
sS'ER'
p66
V
sS'publisher'
p67
VAMER SOC PLANT BIOLOGISTS
p68
sS'authorKeywords'
p69
(lp70
VPENTATRICOPEPTIDE-REPEAT PROTEIN
p71
aVCYTOPLASMIC MALE-STERILITY
p72
aVCYTOCHROME-C BIOGENESIS
p73
aVMESSENGER-RNA
p74
aVRESTORES FERTILITY
p75
aVHIGHER-PLANTS
p76
aVPPR MOTIF
p77
aVTHALIANA
p78
aVGENE
p79
aVMATURATION
p80
asS'language'
p81
VEnglish
p82
sS'wosid'
p83
VWOS:000296722300035
p84
sS'citationCount'
p85
I44
sS'authors_init'
p86
(lp87
(VJONIETZ
VC
tp88
a(VFORNER
VJ
tp89
a(VHILDEBRANDT
VT
tp90
a(VBINDER
VS
tp91
asS'citedReferences'
p92
(lp93
g1
(g2
g3
NtRp94
(dp95
g56
V10.1128/MCB.00563-08
p96
sg52
VMOL CELL BIOL
p97
sg54
V28
p98
sg86
(lp99
(VBEICK
VS
tp100
asg21
I2008
sg50
V5337
p101
sbag1
(g2
g3
NtRp102
(dp103
g56
V10.1073/pnas.102301599
p104
sg52
VP NATL ACAD SCI USA
p105
sg54
V99
p106
sg86
(lp107
(VBENTOLILA
VS
tp108
asg21
I2002
sg50
V10887
p109
sbag1
(g2
g3
NtRp110
(dp111
g56
V10.1006/bmmb.1994.1004
p112
sg52
VBIOCHEM MED METAB B
p113
sg54
V51
p114
sg86
(lp115
(VBIRCHMACHIN
VM A
tp116
asg21
I1994
sg50
V35
p117
sbag1
(g2
g3
NtRp118
(dp119
g56
V10.1046/j.1365-313X.2003.01799.x
p120
sg52
VPLANT J
p121
sg54
V35
p122
sg86
(lp123
(VBROWN
VG G
tp124
asg21
I2003
sg50
VLANT
p125
sbag1
(g2
g3
NtRp126
(dp127
g56
V10.1016/S0764-4469(01)01324-5
p128
sg52
VCR ACAD SCI III
p129
sg54
V324
p130
sg86
(lp131
(VBUDAR
VF
tp132
asg21
I2001
sg50
V543
p133
sbag1
(g2
g3
NtRp134
(dp135
g56
V10.1046/j.1365-313x.1998.00343.x
p136
sg52
VPLANT J
p137
sg54
V16
p138
sg86
(lp139
(VCLOUGH
VS J
tp140
asg21
I1998
sg50
VLANT
p141
sbag1
(g2
g3
NtRp142
(dp143
g56
V10.1104/pp.103.027979
p144
sg52
VPLANT PHYSIOL
p145
sg54
V133
p146
sg86
(lp147
(VCURTIS
VM D
tp148
asg21
I2003
sg50
VLANT
p149
sbag1
(g2
g3
NtRp150
(dp151
g56
V10.1104/pp.105.063743
p152
sg52
VPLANT PHYSIOL
p153
sg54
V139
p154
sg86
(lp155
(VCZECHOWSKI
VT
tp156
asg21
I2005
sg50
VLANT
p157
sbag1
(g2
g3
NtRp158
(dp159
g56
V10.1023/A:1005991617182
p160
sg52
VPLANT MOL BIOL
p161
sg54
V36
p162
sg86
(lp163
(VDAVIS
VS J
tp164
asg21
I1998
sg50
VLANT
p165
sbag1
(g2
g3
NtRp166
(dp167
g56
V10.1042/BST0351643
p168
sg52
VBIOCHEM SOC T
p169
sg54
V35
p170
sg86
(lp171
(VDELANNOY
VE
tp172
asg21
I2007
sg50
V1643
p173
sbag1
(g2
g3
NtRp174
(dp175
g56
V10.1038/sj.embor.embor848
p176
sg52
VEMBO REP
p177
sg54
V4
sg86
(lp178
(VDESLOIRE
VS
tp179
asg21
I2003
sg50
V588
p180
sbag1
(g2
g3
NtRp181
(dp182
g56
V10.1104/pp.108.126201
p183
sg52
VPLANT PHYSIOL
p184
sg54
V148
p185
sg86
(lp186
(VFORNER
VJ
tp187
asg21
I2008
sg50
VLANT
p188
sbag1
(g2
g3
NtRp189
(dp190
g56
V10.1186/1471-2229-7-28
p191
sg52
VBMC PLANT BIOL
p192
sg54
V7
sg86
(lp193
(VFORNER
VJ
tp194
asg21
I2007
sg50
Nsbag1
(g2
g3
NtRp195
(dp196
g56
V10.1093/nar/gkm270
p197
sg52
VNUCLEIC ACIDS RES
p198
sg54
V35
p199
sg86
(lp200
(VFORNER
VJ
tp201
asg21
I2007
sg50
V3676
p202
sbag1
(g2
g3
NtRp203
(dp204
g56
V10.1016/j.mito.2007.10.001
p205
sg52
VMITOCHONDRION
p206
sg54
V8
sg86
(lp207
(VGIEGE
VP
tp208
asg21
I2008
sg50
V61
p209
sbag1
(g2
g3
NtRp210
(dp211
g56
V10.1016/j.bbamcr.2008.06.017
p212
sg52
VBBA
p213
sg54
V1793
p214
sg86
(lp215
(VHAMEL
VP
tp216
asg21
I2009
sg50
V125
p217
sbag1
(g2
g3
NtRp218
(dp219
g56
V10.1111/j.1365-313X.2010.04460.x
p220
sg52
VPLANT J
p221
sg54
V65
p222
sg86
(lp223
(VHOLZLE
VA
tp224
asg21
I2011
sg50
VLANT
p225
sbag1
(g2
g3
NtRp226
(dp227
g56
V10.1105/tpc.109.066266
p228
sg52
VPLANT CELL
p229
sg54
V22
p230
sg86
(lp231
(VJOHNSON
VX
tp232
asg21
I2010
sg50
VLANT
p233
sbag1
(g2
g3
NtRp234
(dp235
g56
V10.1105/tpc.109.066944
p236
sg52
VPLANT CELL
p237
sg54
V22
p238
sg86
(lp239
(VJONIETZ
VC
tp240
asg21
I2010
sg50
VLANT
p241
sbag1
(g2
g3
NtRp242
(dp243
g56
V10.1111/j.1365-313X.2008.03529.x
p244
sg52
VPLANT J
p245
sg54
V55
p246
sg86
(lp247
(VKAZAMA
VT
tp248
asg21
I2008
sg50
VLANT
p249
sbag1
(g2
g3
NtRp250
(dp251
g56
V10.1016/j.jplph.2008.09.002
p252
sg52
VJ PLANT PHYSIOL
p253
sg54
V166
p254
sg86
(lp255
(VKITAZAKI
VK
tp256
asg21
I2009
sg50
V775
p257
sbag1
(g2
g3
NtRp258
(dp259
g56
V10.1007/s11103-009-9584-9
p260
sg52
VPLANT MOL BIOL
p261
sg54
V72
p262
sg86
(lp263
(VKOHLER
VD
tp264
asg21
I2010
sg50
VLANT
p265
sbag1
(g2
g3
NtRp266
(dp267
g56
V10.1046/j.1365-313X.2003.01735.x
p268
sg52
VPLANT J
p269
sg54
V34
p270
sg86
(lp271
(VKOIZUKA
VN
tp272
asg21
I2003
sg50
VLANT
p273
sbag1
(g2
g3
NtRp274
(dp275
g56
V10.1128/MMBR.00001-09
p276
sg52
VMICROBIOL MOL BIOL R
p277
sg54
V73
p278
sg86
(lp279
(VKRANZ
VR G
tp280
asg21
I2009
sg50
V510
p281
sbag1
(g2
g3
NtRp282
(dp283
g56
V10.1016/j.mito.2007.10.006
p284
sg52
VMITOCHONDRION
p285
sg54
V8
sg86
(lp286
(VKUBO
VT
tp287
asg21
I2008
sg50
V5
sbag1
(g2
g3
NtRp288
(dp289
g56
V10.1093/nar/30.2.439
p290
sg52
VNUCLEIC ACIDS RES
p291
sg54
V30
p292
sg86
(lp293
(VKUHN
VJ
tp294
asg21
I2002
sg50
V439
p295
sbag1
(g2
g3
NtRp296
(dp297
g56
V10.1105/tpc.109.068536
p298
sg52
VPLANT CELL
p299
sg54
V21
p300
sg86
(lp301
(VKUHN
VK
tp302
asg21
I2009
sg50
VLANT
p303
sbag1
(g2
g3
NtRp304
(dp305
g56
V10.1128/MCB.02056-07
p306
sg52
VMOL CELL BIOL
p307
sg54
V28
p308
sg86
(lp309
(VLOISELAY
VC
tp310
asg21
I2008
sg50
V5529
p311
sbag1
(g2
g3
NtRp312
(dp313
g56
V10.1105/tpc.104.022236
p314
sg52
VPLANT CELL
p315
sg54
V16
p316
sg86
(lp317
(VLURIN
VC
tp318
asg21
I2004
sg50
VLANT
p319
sbag1
(g2
g3
NtRp320
(dp321
g56
V10.1104/pp.107.108076
p322
sg52
VPLANT PHYSIOL
p323
sg54
V145
p324
sg86
(lp325
(VMATTHES
VA
tp326
asg21
I2007
sg50
VLANT
p327
sbag1
(g2
g3
NtRp328
(dp329
g56
V10.1093/nar/gkh435
p330
sg52
VNUCLEIC ACIDS RES
p331
sg54
V32
p332
sg86
(lp333
(VMCGINNIS
VS
tp334
asg21
I2004
sg50
VW20
p335
sbag1
(g2
g3
NtRp336
(dp337
g56
V10.1073/pnas.0503473102
p338
sg52
VP NATL ACAD SCI USA
p339
sg54
V102
p340
sg86
(lp341
(VMEYER
VE H
tp342
asg21
I2005
sg50
V16113
p343
sbag1
(g2
g3
NtRp344
(dp345
g56
V10.1038/emboj.2009.121
p346
sg52
VEMBO J
p347
sg54
V28
p348
sg86
(lp349
(VPFALZ
VJ
tp350
asg21
I2009
sg50
V2042
p351
sbag1
(g2
g3
NtRp352
(dp353
g56
V10.1016/j.febslet.2006.09.010
p354
sg52
VFEBS LETT
p355
sg54
V580
p356
sg86
(lp357
(VRACZYNSKA
VK D
tp358
asg21
I2006
sg50
V5641
p359
sbag1
(g2
g3
NtRp360
(dp361
g56
V10.1074/jbc.M704091200
p362
sg52
VJ BIOL CHEM
p363
sg54
V282
p364
sg86
(lp365
(VRAYAPURAM
VN
tp366
asg21
I2007
sg50
V21015
p367
sbag1
(g2
g3
NtRp368
(dp369
g56
V10.1074/jbc.M802621200
p370
sg52
VJ BIOL CHEM
p371
sg54
V283
p372
sg86
(lp373
(VRAYAPURAM
VN
tp374
asg21
I2008
sg50
V25200
p375
sbag1
(g2
g3
NtRp376
(dp377
g56
Nsg52
VMOL CLONING LAB MANU
p378
sg54
Nsg86
(lp379
(VSAMBROOK
VJ
tp380
asg21
I2001
sg50
Nsbag1
(g2
g3
NtRp381
(dp382
g56
V10.1016/j.tim.2010.03.006
p383
sg52
VTRENDS MICROBIOL
p384
sg54
V18
p385
sg86
(lp386
(VSANDERS
VC
tp387
asg21
I2010
sg50
V266
p388
sbag1
(g2
g3
NtRp389
(dp390
g56
V10.1016/j.tplants.2008.10.001
p391
sg52
VTRENDS PLANT SCI
p392
sg54
V13
p393
sg86
(lp394
(VSCHMITZ-LINNEWEBER
VC
tp395
asg21
I2008
sg50
V663
p396
sbag1
(g2
g3
NtRp397
(dp398
g56
V10.1002/9780470110423.ch3
p399
sg52
VMethods Biochem Anal
p400
sg54
V22
p401
sg86
(lp402
(VSINGER
VT P
tp403
asg21
I1974
sg50
V123
p404
sbag1
(g2
g3
NtRp405
(dp406
g56
V10.1016/S0968-0004(99)01520-0
p407
sg52
VTRENDS BIOCHEM SCI
p408
sg54
V25
p409
sg86
(lp410
(VSMALL
VI D
tp411
asg21
I2000
sg50
V46
p412
sbag1
(g2
g3
NtRp413
(dp414
g56
V10.1074/jbc.M008853200
p415
sg52
VJ BIOL CHEM
p416
sg54
V276
p417
sg86
(lp418
(VSPIELEWOY
VN
tp419
asg21
I2001
sg50
V5491
p420
sbag1
(g2
g3
NtRp421
(dp422
g56
V10.1105/tpc.105.038240
p423
sg52
VPLANT CELL
p424
sg54
V18
p425
sg86
(lp426
(VWANG
VZ H
tp427
asg21
I2006
sg50
VLANT
p428
sbag1
(g2
g3
NtRp429
(dp430
g56
Nsg52
VARABIDOPSIS LAB MANU
p431
sg54
Nsg86
(lp432
(VWEIGEL
VD
tp433
asg21
I2002
sg50
Nsbasb.