ccopy_reg
_reconstructor
p1
(ctethne.classes.paper
Paper
p2
c__builtin__
object
p3
NtRp4
(dp5
S'publisherCity'
p6
VROCKVILLE
p7
sS'reprintAddress'
p8
VPaterson, AH (reprint author), Univ Georgia, Plant Genome Mapping Lab, Athens, GA 30602 USA.
p9
sS'WC'
p10
VPlant Sciences
p11
sS'GA'
p12
V156KE
p13
sS'FX'
p14
(lp15
VThis work was supported by the U.S. National Science Foundation (grant
p16
aVnos. MCB-0821096 and MCB-1021718).
p17
asS'abstract'
p18
VEpisodes of whole-genome duplication (WGD) followed by gene loss dominate the evolutionary history of flowering plants. Despite the importance of understanding gene evolution following WGD, little is known about the evolutionary dynamics of this process. In this study, we analyzed duplicated genes from three WGD events in the Arabidopsis (Arabidopsis thaliana) lineage using multiple data types. Most duplicated genes that have survived from the most recent WGD (alpha) are under purifying selection in modern Arabidopsis populations. Using the number of identified protein-protein interactions as a proxy for functional divergence, approximately 92.7% of alpha-duplicated genes were diverged in function from one another in modern Arabidopsis populations, indicating that their preservation is no longer explicable by dosage balance. Dosage-balanced retention declines with antiquity of duplication: 24.1% of alpha-duplicated gene pairs in Arabidopsis remain in dosage balance with interacting partners, versus 12.9% and 9.4% for the earlier beta-duplication and gamma-triplication. GO-slim (a cut-down version of gene ontologies) terms reinforce evidence from protein-protein interactions, showing that the putatively diverged gene pairs are adapted to different cellular components. We identified a group of alpha-duplicated genes that show higher than average single-nucleotide polymorphism density, indicating that a period of positive selection, potentially driving functional divergence, may have preceded the current phase of purifying selection. We propose three possible paths for the evolution of duplicated genes following WGD.
p19
sS'pageEnd'
p20
I778
sS'date'
p21
I2013
sS'documentType'
p22
VArticle
p23
sS'subject'
p24
VPlant Sciences
p25
sS'isoSource'
p26
VPlant Physiol.
p27
sS'timesCited'
p28
(lp29
I0
aVZ9 0
p30
asS'funding'
p31
(lp32
(VU.S. National Science Foundation
VMCB-0821096, MCB-1021718
tp33
asS'PT'
p34
VJ
sS'title'
p35
VFunction Relaxation Followed By Diversifying Selection After Whole-Genome Duplication In Flowering Plants
p36
sS'ISSN'
p37
(lp38
V0032-0889
p39
aVJ9 PLANT PHYSIOL
p40
asS'authors_full'
p41
(lp42
(VGUO
VHUI
tp43
a(VLEE
VTAEHO
tp44
a(VWANG
VXIYIN
tp45
a(VPATERSON
VANDREW H
tp46
asS'PG'
p47
I10
sS'PD'
p48
VJUN
p49
sS'pageStart'
p50
I769
sS'issue'
p51
I2
sS'journal'
p52
VPLANT PHYSIOLOGY
p53
sS'volume'
p54
V162
p55
sS'doi'
p56
V10.1104/pp.112.213447
p57
sS'emailAddress'
p58
Vpaterson@plantbio.uga.edu
p59
sS'authorAddress'
p60
(lp61
V[Guo, Hui; Lee, Tae-Ho; Wang, Xiyin; Paterson, Andrew H.] Univ Georgia, Plant Genome Mapping Lab, Athens, GA 30602 USA.
p62
aV[Guo, Hui; Paterson, Andrew H.] Univ Georgia, Dept Plant Biol, Athens, GA 30602 USA.
p63
aV[Paterson, Andrew H.] Univ Georgia, Dept Genet, Athens, GA 30602 USA.
p64
aV[Paterson, Andrew H.] Univ Georgia, Dept Crop & Soil Sci, Athens, GA 30602 USA.
p65
aV[Wang, Xiyin] Hebei United Univ, Sch Life Sci, Ctr Genom & Computat Biol, Tangshan 063000, Hebei, Peoples R China.
p66
aV[Wang, Xiyin] Hebei United Univ, Sch Sci, Tangshan 063000, Hebei, Peoples R China.
p67
asS'publisherAddress'
p68
V15501 MONONA DRIVE, ROCKVILLE, MD 20855 USA
p69
sS'ER'
p70
V
sS'publisher'
p71
VAMER SOC PLANT BIOLOGISTS
p72
sS'authorKeywords'
p73
(lp74
VGENE BALANCE HYPOTHESIS
p75
aVPHYLOGENETIC ANALYSIS
p76
aVDOSAGE SENSITIVITY
p77
aVEVOLUTION
p78
aVPOLYPLOIDY
p79
aVDIVERGENCE
p80
aVARABIDOPSIS
p81
aVEXTINCTION
p82
aVSEQUENCE
p83
aVFAMILIES
p84
asS'language'
p85
VEnglish
p86
sS'wosid'
p87
VWOS:000319819900019
p88
sS'citationCount'
p89
I68
sS'authors_init'
p90
(lp91
(VGUO
VH
tp92
a(VLEE
VT H
tp93
a(VWANG
VX Y
tp94
a(VPATERSON
VA H
tp95
asS'citedReferences'
p96
(lp97
g1
(g2
g3
NtRp98
(dp99
g56
V10.1126/science.1203877
p100
sg52
VSCIENCE
p101
sg54
V333
p102
sg90
(lp103
(VBRAUN
VP
tp104
asg21
I2011
sg50
V601
p105
sbag1
(g2
g3
NtRp106
(dp107
g56
V10.1126/science.1207205
p108
sg52
VSCIENCE
p109
sg54
V333
p110
sg90
(lp111
(VMAYROSE
VI
tp112
asg21
I2011
sg50
V1257
p113
sbag1
(g2
g3
NtRp114
(dp115
g56
V10.1105/tpc.110.081281
p116
sg52
VPLANT CELL
p117
sg54
V23
p118
sg90
(lp119
(VBEKAERT
VM
tp120
asg21
I2011
sg50
VLANT
p121
sbag1
(g2
g3
NtRp122
(dp123
g56
V10.1016/i.tig.2005.02.010
p124
sg52
VTRENDS GENET
p125
sg54
V21
p126
sg90
(lp127
(VBIRCHLER
VJ A
tp128
asg21
I2005
sg50
V219
p129
sbag1
(g2
g3
NtRp130
(dp131
g56
V10.1111/j.1469-8137.2009.03087.x
p132
sg52
VNEW PHYTOL
p133
sg54
V186
p134
sg90
(lp135
(VBIRCHLER
VJ A
tp136
asg21
I2010
sg50
V54
p137
sbag1
(g2
g3
NtRp138
(dp139
g56
V10.1105/tpc.106.049338
p140
sg52
VPLANT CELL
p141
sg54
V19
p142
sg90
(lp143
(VBIRCHLER
VJ A
tp144
asg21
I2007
sg50
VLANT
p145
sbag1
(g2
g3
NtRp146
(dp147
g56
V10.1105/tpc.021345
p148
sg52
VPLANT CELL
p149
sg54
V16
p150
sg90
(lp151
(VBLANC
VG
tp152
asg21
I2004
sg50
VLANT
p153
sbag1
(g2
g3
NtRp154
(dp155
g56
V10.1105/tpc.021410
p156
sg52
VPLANT CELL
p157
sg54
V16
p158
sg90
(lp159
(VBLANC
VG
tp160
asg21
I2004
sg50
VLANT
p161
sbag1
(g2
g3
NtRp162
(dp163
g56
V10.1038/nature01521
p164
sg52
VNATURE
p165
sg54
V422
p166
sg90
(lp167
(VBOWERS
VJ E
tp168
asg21
I2003
sg50
V433
p169
sbag1
(g2
g3
NtRp170
(dp171
g56
V10.1111/j.1095-8312.2004.00337.x
p172
sg52
VBIOL J LINN SOC
p173
sg54
V82
p174
sg90
(lp175
(VBROCHMANN
VC
tp176
asg21
I2004
sg50
V521
p177
sbag1
(g2
g3
NtRp178
(dp179
g56
V10.1073/pnas.0507782103
p180
sg52
VP NATL ACAD SCI USA
p181
sg54
V103
p182
sg90
(lp183
(VCHAPMAN
VB A
tp184
asg21
I2006
sg50
V2730
p185
sbag1
(g2
g3
NtRp186
(dp187
g56
V10.1038/nrg1711
p188
sg52
VNAT REV GENET
p189
sg54
V6
sg90
(lp190
(VCOMAI
VL
tp191
asg21
I2005
sg50
V836
p192
sbag1
(g2
g3
NtRp193
(dp194
g56
V10.1038/nrg2482
p195
sg52
VNAT REV GENET
p196
sg54
V9
sg90
(lp197
(VCONANT
VG C
tp198
asg21
I2008
sg50
V938
p199
sbag1
(g2
g3
NtRp200
(dp201
g56
V10.1093/molbev/msj083
p202
sg52
VMOL BIOL EVOL
p203
sg54
V23
p204
sg90
(lp205
(VCROW
VK D
tp206
asg21
I2006
sg50
V887
p207
sbag1
(g2
g3
NtRp208
(dp209
g56
V10.1016/j.tig.2005.07.008
p210
sg52
VTRENDS GENET
p211
sg54
V21
p212
sg90
(lp213
(VDAVIS
VJ C
tp214
asg21
I2005
sg50
V548
p215
sbag1
(g2
g3
NtRp216
(dp217
g56
V10.1371/journal.pbio.0030314
p218
sg52
VPLOS BIOL
p219
sg54
V3
sg90
(lp220
(VDEHAL
VP
tp221
asg21
I2005
sg50
VLOS
p222
sbag1
(g2
g3
NtRp223
(dp224
g56
V10.1038/nature07092
p225
sg52
VNATURE
p226
sg54
V454
p227
sg90
(lp228
(VDES
VMARAIS D L
tp229
asg21
I2008
sg50
V762
p230
sbag1
(g2
g3
NtRp231
(dp232
g56
V10.1073/pnas.0900906106
p233
sg52
VP NATL ACAD SCI USA
p234
sg54
V106
p235
sg90
(lp236
(VFAWCETT
VJ A
tp237
asg21
I2009
sg50
V5737
p238
sbag1
(g2
g3
NtRp239
(dp240
g56
V10.1093/nar/gkp985
p241
sg52
VNUCLEIC ACIDS RES
p242
sg54
V38
p243
sg90
(lp244
(VFINN
VR D
tp245
asg21
I2010
sg50
VD211
p246
sbag1
(g2
g3
NtRp247
(dp248
g56
Nsg52
VGENETICS
p249
sg54
V151
p250
sg90
(lp251
(VFORCE
VA
tp252
asg21
I1999
sg50
V1531
p253
sbag1
(g2
g3
NtRp254
(dp255
g56
V10.1038/ng1579
p256
sg52
VNAT GENET
p257
sg54
V37
p258
sg90
(lp259
(VFRANCINO
VM P
tp260
asg21
I2005
sg50
V573
p261
sbag1
(g2
g3
NtRp262
(dp263
g56
V10.1101/gr.3681406
p264
sg52
VGENOME RES
p265
sg54
V16
p266
sg90
(lp267
(VFREELING
VM
tp268
asg21
I2006
sg50
V805
p269
sbag1
(g2
g3
NtRp270
(dp271
g56
V10.1186/gb-2004-5-10-r80
p272
sg52
VGENOME BIOL
p273
sg54
V5
sg90
(lp274
(VGENTLEMAN
VR C
tp275
asg21
I2004
sg50
Nsbag1
(g2
g3
NtRp276
(dp277
g56
V10.1016/S0168-9525(02)02837-8
p278
sg52
VTRENDS GENET
p279
sg54
V18
p280
sg90
(lp281
(VGU
VZ L
tp282
asg21
I2002
sg50
V609
p283
sbag1
(g2
g3
NtRp284
(dp285
g56
V10.1186/gb-2007-8-10-r209
p286
sg52
VGENOME BIOL
p287
sg54
V8
sg90
(lp288
(VHAKES
VL
tp289
asg21
I2007
sg50
Nsbag1
(g2
g3
NtRp290
(dp291
g56
V10.1093/nar/gkh036
p292
sg52
VNUCLEIC ACIDS RES
p293
sg54
V32
p294
sg90
(lp295
(VHARRIS
VM A
tp296
asg21
I2004
sg50
VD258
p297
sbag1
(g2
g3
NtRp298
(dp299
g56
Nsg52
VPRINCIPLES POPULATIO
p300
sg54
Nsg90
(lp301
(VHARTL
VD L
tp302
asg21
I2007
sg50
VRINCIPLES
p303
sbag1
(g2
g3
NtRp304
(dp305
g56
V10.1534/genetics.104.037051
p306
sg52
VGENETICS
p307
sg54
V169
p308
sg90
(lp309
(VHE
VX L
tp310
asg21
I2005
sg50
V1157
p311
sbag1
(g2
g3
NtRp312
(dp313
g56
V10.1073/pnas.89.22.10915
p314
sg52
VP NATL ACAD SCI USA
p315
sg54
V89
p316
sg90
(lp317
(VHENIKOFF
VS
tp318
asg21
I1992
sg50
V10915
p319
sbag1
(g2
g3
NtRp320
(dp321
g56
V10.1098/rspb.1994.0058
p322
sg52
VP ROY SOC B
p323
sg54
V256
p324
sg90
(lp325
(VHUGHES
VA L
tp326
asg21
I1994
sg50
V119
p327
sbag1
(g2
g3
NtRp328
(dp329
g56
V10.1038/nrg2689
p330
sg52
VNAT REV GENET
p331
sg54
V11
p332
sg90
(lp333
(VINNAN
VH
tp334
asg21
I2010
sg50
V97
p335
sbag1
(g2
g3
NtRp336
(dp337
g56
V10.1038/nature06148
p338
sg52
VNATURE
p339
sg54
V449
p340
sg90
(lp341
(VJAILLON
VO
tp342
asg21
I2007
sg50
V463
p343
sbag1
(g2
g3
NtRp344
(dp345
g56
V10.1038/nature09916
p346
sg52
VNATURE
p347
sg54
V473
p348
sg90
(lp349
(VJIAO
VY N
tp350
asg21
I2011
sg50
V97
p351
sbag1
(g2
g3
NtRp352
(dp353
g56
V10.1126/science.148.3667.237
p354
sg52
VSCIENCE
p355
sg54
V148
p356
sg90
(lp357
(VJOHNSON
VA W
tp358
asg21
I1965
sg50
V237
p359
sbag1
(g2
g3
NtRp360
(dp361
g56
V10.1093/bioinformatics/btn647
p362
sg52
VBioinformatics
p363
sg54
V25
p364
sg90
(lp365
(VKAUFFMANN
VAUDREY
tp366
asg21
I2009
sg50
V415
p367
sbag1
(g2
g3
NtRp368
(dp369
g56
V10.1093/bioinformatics/btm404
p370
sg52
VBIOINFORMATICS
p371
sg54
V23
p372
sg90
(lp373
(VLARKIN
VM A
tp374
asg21
I2007
sg50
V2947
p375
sbag1
(g2
g3
NtRp376
(dp377
g56
Nsg52
VMOL EVOLUTION
p378
sg54
Nsg90
(lp379
(VLI
VW
tp380
asg21
I1997
sg50
Nsbag1
(g2
g3
NtRp381
(dp382
g56
V10.1371/journal.pgen.0040011
p383
sg52
VPLOS GENET
p384
sg54
V4
sg90
(lp385
(VLIANG
VH
tp386
asg21
I2008
sg50
VLOS
p387
sbag1
(g2
g3
NtRp388
(dp389
g56
V10.1086/285812
p390
sg52
VAM NAT
p391
sg54
V146
p392
sg90
(lp393
(VLYNCH
VM
tp394
asg21
I1995
sg50
V489
p395
sbag1
(g2
g3
NtRp396
(dp397
g56
V10.1126/science.290.5494.1151
p398
sg52
VSCIENCE
p399
sg54
V290
p400
sg90
(lp401
(VLYNCH
VM
tp402
asg21
I2000
sg50
V1151
p403
sbag1
(g2
g3
NtRp404
(dp405
g56
V10.1073/pnas.0501102102
p406
sg52
VP NATL ACAD SCI USA
p407
sg54
V102
p408
sg90
(lp409
(VMAERE
VS
tp410
asg21
I2005
sg50
V5454
p411
sbag1
(g2
g3
NtRp412
(dp413
g56
V10.1101/gr.1133803
p414
sg52
VGENOME RES
p415
sg54
V13
p416
sg90
(lp417
(VMAKOVA
VK D
tp418
asg21
I2003
sg50
V1638
p419
sbag1
(g2
g3
NtRp420
(dp421
g56
V10.1038/nature06856
p422
sg52
VNATURE
p423
sg54
V452
p424
sg90
(lp425
(VMING
VR
tp426
asg21
I2008
sg50
V991
p427
sbag1
(g2
g3
NtRp428
(dp429
g56
V10.1073/pnas.2535513100
p430
sg52
VP NATL ACAD SCI USA
p431
sg54
V100
p432
sg90
(lp433
(VMOORE
VR C
tp434
asg21
I2003
sg50
V15682
p435
sbag1
(g2
g3
NtRp436
(dp437
g56
Nsg52
VEVOLUTION GENE DUPLI
p438
sg54
Nsg90
(lp439
(VOHNO
VS
tp440
asg21
I1970
sg50
Nsbag1
(g2
g3
NtRp441
(dp442
g56
V10.1038/nature01771
p443
sg52
VNATURE
p444
sg54
V424
p445
sg90
(lp446
(VPAPP
VB
tp447
asg21
I2003
sg50
V194
p448
sbag1
(g2
g3
NtRp449
(dp450
g56
V10.1073/pnas.0307901101
p451
sg52
VP NATL ACAD SCI USA
p452
sg54
V101
p453
sg90
(lp454
(VPATERSON
VA H
tp455
asg21
I2004
sg50
V9903
p456
sbag1
(g2
g3
NtRp457
(dp458
g56
V10.1016/j.tig.2006.09.003
p459
sg52
VTRENDS GENET
p460
sg54
V22
p461
sg90
(lp462
(VPATERSON
VA H
tp463
asg21
I2006
sg50
V597
p464
sbag1
(g2
g3
NtRp465
(dp466
g56
V10.1038/nrg2413
p467
sg52
VNAT REV GENET
p468
sg54
V9
sg90
(lp469
(VPONTING
VC P
tp470
asg21
I2008
sg50
V689
p471
sbag1
(g2
g3
NtRp472
(dp473
g56
Nsg52
VEVOLUTION
p474
sg54
V60
p475
sg90
(lp476
(VPROULX
VS R
tp477
asg21
I2006
sg50
V881
p478
sbag1
(g2
g3
NtRp479
(dp480
g56
V10.1126/science.11542058
p481
sg52
VSCIENCE
p482
sg54
V231
p483
sg90
(lp484
(VRAUP
VD M
tp485
asg21
I1986
sg50
V1528
p486
sbag1
(g2
g3
NtRp487
(dp488
g56
V10.1146/annurev.genet.31.1.91
p489
sg52
VANNU REV GENET
p490
sg54
V31
p491
sg90
(lp492
(VROMERO
VD
tp493
asg21
I1997
sg50
V91
p494
sbag1
(g2
g3
NtRp495
(dp496
g56
V10.1038/nature08670
p497
sg52
VNATURE
p498
sg54
V463
p499
sg90
(lp500
(VSCHMUTZ
VJ
tp501
asg21
I2010
sg50
V178
p502
sbag1
(g2
g3
NtRp503
(dp504
g56
V10.1016/S0169-5347(99)01638-9
p505
sg52
VTRENDS ECOL EVOL
p506
sg54
V14
p507
sg90
(lp508
(VSOLTIS
VD E
tp509
asg21
I1999
sg50
V348
p510
sbag1
(g2
g3
NtRp511
(dp512
g56
V10.1086/282611
p513
sg52
VAM NAT
p514
sg54
V103
p515
sg90
(lp516
(VSPOFFORD
VJ B
tp517
asg21
I1969
sg50
V407
p518
sbag1
(g2
g3
NtRp519
(dp520
g56
V10.1093/nar/gkj109
p521
sg52
VNUCLEIC ACIDS RES
p522
sg54
V34
p523
sg90
(lp524
(VSTARK
VC
tp525
asg21
I2006
sg50
VD535
p526
sbag1
(g2
g3
NtRp527
(dp528
g56
V10.1093/nar/gkl315
p529
sg52
VNUCLEIC ACIDS RES
p530
sg54
V34
p531
sg90
(lp532
(VSUYAMA
VM
tp533
asg21
I2006
sg50
VW609
p534
sbag1
(g2
g3
NtRp535
(dp536
g56
V10.1101/gr.2332504
p537
sg52
VGENOME RES
p538
sg54
V14
p539
sg90
(lp540
(VSWIGONOVA
VZ
tp541
asg21
I2004
sg50
V1916
p542
sbag1
(g2
g3
NtRp543
(dp544
g56
V10.1126/science.1153917
p545
sg52
VSCIENCE
p546
sg54
V320
p547
sg90
(lp548
(VTANG
VH B
tp549
asg21
I2008
sg50
V486
p550
sbag1
(g2
g3
NtRp551
(dp552
g56
V10.1073/pnas.0908007107
p553
sg52
VP NATL ACAD SCI USA
p554
sg54
V107
p555
sg90
(lp556
(VTANG
VH B
tp557
asg21
I2010
sg50
V472
p558
sbag1
(g2
g3
NtRp559
(dp560
g56
Nsg52
VBOT JB
p561
sg54
V47
p562
sg90
(lp563
(VTISCHLER
VG
tp564
asg21
I1935
sg50
V1
sbag1
(g2
g3
NtRp565
(dp566
g56
V10.1126/science.1128691
p567
sg52
VSCIENCE
p568
sg54
V313
p569
sg90
(lp570
(VTUSKAN
VG A
tp571
asg21
I2006
sg50
V1596
p572
sbag1
(g2
g3
NtRp573
(dp574
g56
V10.1038/nrg1449
p575
sg52
VNAT REV GENET
p576
sg54
V5
sg90
(lp577
(VVAN
VD E PEER Y
tp578
asg21
I2004
sg50
V752
p579
sbag1
(g2
g3
NtRp580
(dp581
g56
Nsg52
VMOL BIOL EVOL
p582
sg54
V19
p583
sg90
(lp584
(VWAGNER
VA
tp585
asg21
I2002
sg50
V1760
p586
sbag1
(g2
g3
NtRp587
(dp588
g56
V10.1101/gr.087288.108
p589
sg52
VGENOME RES
p590
sg54
V19
p591
sg90
(lp592
(VWANG
VX Y
tp593
asg21
I2009
sg50
V1026
p594
sbag1
(g2
g3
NtRp595
(dp596
g56
V10.1038/42711
p597
sg52
VNATURE
p598
sg54
V387
p599
sg90
(lp600
(VWOLFE
VK H
tp601
asg21
I1997
sg50
V708
p602
sbag1
(g2
g3
NtRp603
(dp604
g56
V10.1093/molbev/msm088
p605
sg52
VMOL BIOL EVOL
p606
sg54
V24
p607
sg90
(lp608
(VYANG
VZ H
tp609
asg21
I2007
sg50
V1586
p610
sbag1
(g2
g3
NtRp611
(dp612
g56
V10.1016/S0169-5347(03)00033-8
p613
sg52
VTRENDS ECOL EVOL
p614
sg54
V18
p615
sg90
(lp616
(VZHANG
VJ Z
tp617
asg21
I2003
sg50
V292
p618
sbasb.