ccopy_reg
_reconstructor
p1
(ctethne.classes.paper
Paper
p2
c__builtin__
object
p3
NtRp4
(dp5
S'publisherCity'
p6
VROCKVILLE
p7
sS'reprintAddress'
p8
VBall, S (reprint author), Univ Sci & Tech Lille Flandres Artois, Chim Biol Lab, CNRS, Unite Mixte Rech 8576, F-59655 Villeneuve Dascq, France.
p9
sS'WC'
p10
VPlant Sciences
p11
sS'GA'
p12
V227JZ
p13
sS'abstract'
p14
VWe describe a novel mutation in the Chlamydomonas reinhardtii STA11 gene, which results in significantly reduced granular starch deposition and major modifications in amylopectin structure and granule shape. This defect simultaneously leads to the accumulation of linear malto-oligosaccharides. The sta11-1 mutation causes the absence of an alpha-1,4 glucanotransferase known as disproportionating enzyme (D-enzyme). D-enzyme activity was found to be correlated with the amount of wild-type allele doses in gene dosage experiments. All other enzymes involved in starch biosynthesis, including ADP-glucose pyrophosphorylase, debranching enzymes, soluble and granule-bound starch synthases, branching enzymes, phosphorylases, cu-glucosidases (maltases), and amylases, were unaffected by the mutation. These data indicate that the D-enzyme is required for normal starch granule biogenesis in the monocellular alga C. reinhardtii.
p15
sS'pageEnd'
p16
I1003
sS'date'
p17
I1999
sS'documentType'
p18
VArticle
p19
sS'subject'
p20
VPlant Sciences
p21
sS'isoSource'
p22
VPlant Physiol.
p23
sS'timesCited'
p24
(lp25
I42
aVZ9 45
p26
asS'PT'
p27
VJ
sS'title'
p28
VGenetic And Biochemical Evidence For The Involvement Of Alpha-1,4 Glucanotransferases In Amylopectin Synthesis
p29
sS'ISSN'
p30
(lp31
V0032-0889
p32
aVJ9 PLANT PHYSIOL
p33
asS'authors_full'
p34
(lp35
(VCOLLEONI
VC
tp36
a(VDAUVILLEE
VD
tp37
a(VMOUILLE
VG
tp38
a(VBULEON
VA
tp39
a(VGALLANT
VD
tp40
a(VBOUCHET
VB
tp41
a(VMORELL
VM
tp42
a(VSAMUEL
VM
tp43
a(VDELRUE
VB
tp44
a(VDHULST
VC
tp45
a(VBLIARD
VC
tp46
a(VNUZILLARD
VJM
tp47
a(VBALL
VS
tp48
asS'PG'
p49
I11
sS'PD'
p50
VAUG
p51
sS'pageStart'
p52
I993
sS'issue'
p53
I4
sS'RI'
p54
(lp55
VDauvillee, David/A-2174-2009; Colleoni, Christophe/J-1476-2012; D'HULST,
p56
aVChristophe/B-2072-2012
p57
asS'journal'
p58
VPLANT PHYSIOLOGY
p59
sS'volume'
p60
V120
p61
sS'doi'
p62
V10.1104/pp.120.4.993
p63
sS'authorAddress'
p64
(lp65
VUniv Sci & Tech Lille Flandres Artois, Chim Biol Lab, CNRS, Unite Mixte Rech 8576, F-59655 Villeneuve Dascq, France.
p66
aVInst Natl Rech Agron, Ctr Rech Agroalimentaires, F-44316 Nantes 03, France.
p67
aVCSIRO, Div Plant Ind, Canberra, ACT 2601, Australia.
p68
aVUniv Reims, Lab Pharmacognosie, Grp Glycotech, F-51097 Reims 2, France.
p69
asS'publisherAddress'
p70
V15501 MONONA DRIVE, ROCKVILLE, MD 20855 USA
p71
sS'ER'
p72
V
sS'publisher'
p73
VAMER SOC PLANT PHYSIOLOGISTS
p74
sS'authorKeywords'
p75
(lp76
VALGA CHLAMYDOMONAS-REINHARDTII
p77
aVSTARCH COMPOSITION
p78
aVBIOSYNTHESIS
p79
aVGRANULE
p80
aVMUTANT
p81
aVENZYME
p82
aVOLIGOSACCHARIDES
p83
aVELECTROPHORESIS
p84
aVBIOGENESIS
p85
aVMUTATIONS
p86
asS'OI'
p87
(lp88
VDauvillee, David/0000-0002-0751-9193; D'HULST,
p89
aVChristophe/0000-0002-5556-9099
p90
asS'language'
p91
VEnglish
p92
sS'wosid'
p93
VWOS:000082078400007
p94
sS'citationCount'
p95
I23
sS'authors_init'
p96
(lp97
(VCOLLEONI
VC
tp98
a(VDAUVILLEE
VD
tp99
a(VMOUILLE
VG
tp100
a(VBULEON
VA
tp101
a(VGALLANT
VD
tp102
a(VBOUCHET
VB
tp103
a(VMORELL
VM
tp104
a(VSAMUEL
VM
tp105
a(VDELRUE
VB
tp106
a(VDHULST
VC
tp107
a(VBLIARD
VC
tp108
a(VNUZILLARD
VJ M
tp109
a(VBALL
VS
tp110
asS'citedReferences'
p111
(lp112
g1
(g2
g3
NtRp113
(dp114
g62
Nsg58
VPLANTA
p115
sg60
V185
p116
sg96
(lp117
(VBALL
VS
tp118
asg17
I1991
sg52
VLANTA
p119
sbag1
(g2
g3
NtRp120
(dp121
g62
V10.1016/S0092-8674(00)80107-5
p122
sg58
VCELL
p123
sg60
V86
p124
sg96
(lp125
(VBALL
VS
tp126
asg17
I1996
sg52
V349
p127
sbag1
(g2
g3
NtRp128
(dp129
g62
Nsg58
VAdvances in Photosynthesis
p130
sg60
V7
sg96
(lp131
(VBALL
VSTEVEN G
tp132
asg17
I1998
sg52
V549
p133
sbag1
(g2
g3
NtRp134
(dp135
g62
V10.1016/0168-9452(90)90162-H
p136
sg58
VPLANT SCI
p137
sg60
V66
p138
sg96
(lp139
(VBALL
VS G
tp140
asg17
I1990
sg52
VLANT
p141
sbag1
(g2
g3
NtRp142
(dp143
g62
Nsg58
VMICROBIOL MOL BIOL R
p144
sg60
V62
p145
sg96
(lp146
(VBOOS
VW
tp147
asg17
I1998
sg52
V204
p148
sbag1
(g2
g3
NtRp149
(dp150
g62
V10.1104/pp.115.3.949
p151
sg58
VPLANT PHYSIOL
p152
sg60
V115
p153
sg96
(lp154
(VBULEON
VA
tp155
asg17
I1997
sg52
VLANT
p156
sbag1
(g2
g3
NtRp157
(dp158
g62
V10.1016/S0141-8130(98)00040-3
p159
sg58
VINT J BIOL MACROMOL
p160
sg60
V23
p161
sg96
(lp162
(VBULEON
VA
tp163
asg17
I1998
sg52
V85
p164
sbag1
(g2
g3
NtRp165
(dp166
g62
V10.1104/pp.119.1.321
p167
sg58
VPLANT PHYSIOL
p168
sg60
V119
p169
sg96
(lp170
(VDAUVILLEE
VD
tp171
asg17
I1999
sg52
VLANT
p172
sbag1
(g2
g3
NtRp173
(dp174
g62
Nsg58
VJ BACTERIOL
p175
sg60
V174
p176
sg96
(lp177
(VDELRUE
VB
tp178
asg17
I1992
sg52
V3612
p179
sbag1
(g2
g3
NtRp180
(dp181
g62
Nsg58
VJ BIOL CHEM
p182
sg60
V268
p183
sg96
(lp184
(VFONTAINE
VT
tp185
asg17
I1993
sg52
V16223
p186
sbag1
(g2
g3
NtRp187
(dp188
g62
Nsg58
VCHLAMYDOMONAS SOURCE
p189
sg60
Nsg96
(lp190
(VHARRIS
VE H
tp191
asg17
I1989
sg52
V399
p192
sbag1
(g2
g3
NtRp193
(dp194
g62
V10.1105/tpc.7.4.417
p195
sg58
VPLANT CELL
p196
sg60
V7
sg96
(lp197
(VJAMES
VM G
tp198
asg17
I1995
sg52
VLANT
p199
sbag1
(g2
g3
NtRp200
(dp201
g62
Nsg58
VJ BIOL CHEM
p202
sg60
V271
p203
sg96
(lp204
(VVANDENKOORNHUYSE
VN
tp205
asg17
I1996
sg52
V16281
p206
sbag1
(g2
g3
NtRp207
(dp208
g62
Nsg58
VPLANT CELL
p209
sg60
V7
sg96
(lp210
(VLIBESSART
VN
tp211
asg17
I1995
sg52
VLANT
p212
sbag1
(g2
g3
NtRp213
(dp214
g62
Nsg58
VPLANT CELL
p215
sg60
V8
sg96
(lp216
(VMOUILLE
VG
tp217
asg17
I1996
sg52
VLANT
p218
sbag1
(g2
g3
NtRp219
(dp220
g62
V10.1034/j.1399-3054.1996.970311.x
p221
sg58
VPHYSIOL PLANTARUM
p222
sg60
V97
p223
sg96
(lp224
(VNAKAMURA
VY
tp225
asg17
I1996
sg52
VHYSIOL
p226
sbag1
(g2
g3
NtRp227
(dp228
g62
V10.1002/elps.1150170410
p229
sg58
VELECTROPHORESIS
p230
sg60
V17
p231
sg96
(lp232
(VOSHEA
VM G
tp233
asg17
I1996
sg52
V681
p234
sbag1
(g2
g3
NtRp235
(dp236
g62
V10.1016/S0008-6215(97)10085-4
p237
sg58
VCARBOHYD RES
p238
sg60
V307
p239
sg96
(lp240
(VO'SHEA
VM G
tp241
asg17
I1998
sg52
V1
sbag1
(g2
g3
NtRp242
(dp243
g62
V10.1039/jr9560000044
p244
sg58
VJ CHEM SOC
p245
sg60
Nsg96
(lp246
(VPEAT
VS
tp247
asg17
I1956
sg52
V44
p248
sbag1
(g2
g3
NtRp249
(dp250
g62
V10.1007/BF01279818
p251
sg58
VPROTOPLASMA
p252
sg60
V75
p253
sg96
(lp254
(VSCHOTZ
VF
tp255
asg17
I1972
sg52
VROTOPLASMA
p256
sbag1
(g2
g3
NtRp257
(dp258
g62
V10.1007/s004250050342
p259
sg58
VPLANTA
p260
sg60
V205
p261
sg96
(lp262
(VTAKAHA
VT
tp263
asg17
I1998
sg52
VLANTA
p264
sbag1
(g2
g3
NtRp265
(dp266
g62
Nsg58
VPLANT CELL
p267
sg60
V10
p268
sg96
(lp269
(VZEEMAN
VS C
tp270
asg17
I1998
sg52
VLANT
p271
sbag1
(g2
g3
NtRp272
(dp273
g62
V10.1046/j.1365-313X.1998.00213.x
p274
sg58
VPLANT J
p275
sg60
V15
p276
sg96
(lp277
(VZEEMAN
VS C
tp278
asg17
I1998
sg52
VLANT
p279
sbasb.