ccopy_reg
_reconstructor
p1
(ctethne.classes.paper
Paper
p2
c__builtin__
object
p3
NtRp4
(dp5
S'publisherCity'
p6
VROCKVILLE
p7
sS'reprintAddress'
p8
VHeyl, A (reprint author), Free Univ Berlin, Dahlem Ctr Plant Sci, Inst Biol Appl Genet, Albrecht Thaer Weg 6, D-14195 Berlin, Germany.
p9
sS'WC'
p10
VPlant Sciences
p11
sS'GA'
p12
V117WP
p13
sS'pageEnd'
p14
I1065
sS'publisherAddress'
p15
V15501 MONONA DRIVE, ROCKVILLE, MD 20855 USA
p16
sS'documentType'
p17
VLetter
p18
sS'subject'
p19
VPlant Sciences
p20
sS'isoSource'
p21
VPlant Physiol.
p22
sS'timesCited'
p23
(lp24
I2
aVZ9 2
p25
asS'PT'
p26
VJ
sS'title'
p27
VNomenclature For Members Of The Two-Component Signaling Pathway Of Plants
p28
sS'ISSN'
p29
(lp30
V0032-0889
p31
aVJ9 PLANT PHYSIOL
p32
asS'authors_full'
p33
(lp34
(VHEYL
VALEXANDER
tp35
a(VBRAULT
VMATHIAS
tp36
a(VFRUGIER
VFLORIAN
tp37
a(VKUDEROVA
VALENA
tp38
a(VLINDNER
VANNCATHRIN
tp39
a(VMOTYKA
VVACLAV
tp40
a(VRASHOTTE
VAARON M
tp41
a(VVON SCHWARTZENBERG
VKLAUS
tp42
a(VVANKOVA
VRADOMIRA
tp43
a(VSCHALLER
VG ERIC
tp44
asS'PG'
p45
I3
sS'PD'
p46
VMAR
p47
sS'pageStart'
p48
I1063
sS'issue'
p49
I3
sS'journal'
p50
VPLANT PHYSIOLOGY
p51
sS'volume'
p52
V161
p53
sS'doi'
p54
V10.1104/pp.112.213207
p55
sS'authorAddress'
p56
(lp57
V[Heyl, Alexander] Free Univ Berlin, Dahlem Ctr Plant Sci, Inst Biol Appl Genet, D-14195 Berlin, Germany.
p58
aV[Brault, Mathias; Frugier, Florian] CNRS, Inst Sci Vegetal, F-91198 Gif Sur Yvette, France.
p59
aV[Brault, Mathias] Univ Paris Diderot, Sorbonne Paris Cite, F-75205 Paris 13, France.
p60
aV[Kuderova, Alena] Masaryk Univ, Lab Funct Genom & Prote Plants, Cent European Inst Technol, Brno 62500, Czech Republic.
p61
aV[Lindner, Ann-Cathrin; von Schwartzenberg, Klaus] Univ Hamburg, Biozentrum Klein Flottbek & Bot Garten, D-22609 Hamburg, Germany.
p62
aV[Motyka, Vaclav; Vankova, Radomira] Acad Sci Czech Republic, Inst Expt Bot, Lab Hormonal Regulat Plants, CZ-16502 Prague 6, Czech Republic.
p63
aV[Rashotte, Aaron M.] Auburn Univ, Dept Biol Sci, Auburn, AL 36849 USA.
p64
aV[Schaller, G. Eric] Dartmouth Coll, Dept Biol Sci, Hanover, NH 03755 USA.
p65
asS'date'
p66
I2013
sS'ER'
p67
V
sS'publisher'
p68
VAMER SOC PLANT BIOLOGISTS
p69
sS'authorKeywords'
p70
(lp71
VLIGAND-BINDING
p72
aVCHASE DOMAIN
p73
aVTRANSDUCTION
p74
aVRICE
p75
aVPERCEPTION
p76
aVRECEPTORS
p77
aVEVOLUTION
p78
asS'language'
p79
VEnglish
p80
sS'wosid'
p81
VWOS:000316984100001
p82
sS'citationCount'
p83
I18
sS'authors_init'
p84
(lp85
(VHEYL
VA
tp86
a(VBRAULT
VM
tp87
a(VFRUGIER
VF
tp88
a(VKUDEROVA
VA
tp89
a(VLINDNER
VA C
tp90
a(VMOTYKA
VV
tp91
a(VRASHOTTE
VA M
tp92
a(VVON SCHWARTZENBERG
VK
tp93
a(VVANKOVA
VR
tp94
a(VSCHALLER
VG E
tp95
asS'citedReferences'
p96
(lp97
g1
(g2
g3
NtRp98
(dp99
g54
V10.1016/S0968-0004(01)01968-5
p100
sg50
VTRENDS BIOCHEM SCI
p101
sg52
V26
p102
sg84
(lp103
(VANANTHARAMAN
VV
tp104
asg66
I2001
sg48
V579
p105
sbag1
(g2
g3
NtRp106
(dp107
g54
Nsg50
VANN PLANT REV PLANT
p108
sg52
V44
p109
sg84
(lp110
(VBINDER
VB M
tp111
asg66
I2012
sg48
V117
p112
sbag1
(g2
g3
NtRp113
(dp114
g54
Nsg50
VPlant Signal Behav
p115
sg52
V5
sg84
(lp116
(VHELLMANN
VE V A
tp117
asg66
I2010
sg48
Vlant
p118
sbag1
(g2
g3
NtRp119
(dp120
g54
V10.1186/1471-2148-7-62
p121
sg50
VBMC EVOL BIOL
p122
sg52
V7
sg84
(lp123
(VHEYL
VA
tp124
asg66
I2007
sg48
Nsbag1
(g2
g3
NtRp125
(dp126
g54
V10.1016/S1369-5266(03)00087-6
p127
sg50
VCURR OPIN PLANT BIOL
p128
sg52
V6
sg84
(lp129
(VHEYL
VA
tp130
asg66
I2003
sg48
V480
p131
sbag1
(g2
g3
NtRp132
(dp133
g54
V10.1146/annurev.arplant.54.031902.134802
p134
sg50
VANNU REV PLANT BIOL
p135
sg52
V54
p136
sg84
(lp137
(VKAKIMOTO
VT
tp138
asg66
I2003
sg48
V605
p139
sbag1
(g2
g3
NtRp140
(dp141
g54
V10.1126/science.1118875
p142
sg50
VSCIENCE
p143
sg52
V311
p144
sg84
(lp145
(VMAHONEN
VA P
tp146
asg66
I2006
sg48
V94
p147
sbag1
(g2
g3
NtRp148
(dp149
g54
V10.1007/s12284-008-9004-9
p150
sg50
VRICE
p151
sg52
V1
sg84
(lp152
(VMCCOUCH
VS R
tp153
asg66
I2008
sg48
V72
p154
sbag1
(g2
g3
NtRp155
(dp156
g54
V10.1093/pcp/pci087
p157
sg50
VPLANT CELL PHYSIOL
p158
sg52
V46
p159
sg84
(lp160
(VMIZUNO
VT
tp161
asg66
I2005
sg48
VLANT
p162
sbag1
(g2
g3
NtRp163
(dp164
g54
V10.1016/j.pbi.2004.07.015
p165
sg50
VCURR OPIN PLANT BIOL
p166
sg52
V7
sg84
(lp167
(VMIZUNO
VT
tp168
asg66
I2004
sg48
V499
p169
sbag1
(g2
g3
NtRp170
(dp171
g54
V10.1016/S0968-0004(01)01969-7
p172
sg50
VTRENDS BIOCHEM SCI
p173
sg52
V26
p174
sg84
(lp175
(VMOUGEL
VC
tp176
asg66
I2001
sg48
V582
p177
sbag1
(g2
g3
NtRp178
(dp179
g54
V10.1104/pp.109.139188
p180
sg50
VPLANT PHYSIOL
p181
sg52
V151
p182
sg84
(lp183
(VPILS
VB
tp184
asg66
I2009
sg48
VLANT
p185
sbag1
(g2
g3
NtRp186
(dp187
g54
Nsg50
VPLANT CELL
p188
sg52
V6
sg84
(lp189
(VQUAIL
VP H
tp190
asg66
I1994
sg48
VLANT
p191
sbag1
(g2
g3
NtRp192
(dp193
g54
V10.1093/dnares/dsq033
p194
sg50
VDNA RES
p195
sg52
V18
p196
sg84
(lp197
(VSATBHAI
VS B
tp198
asg66
I2011
sg48
V39
p199
sbag1
(g2
g3
NtRp200
(dp201
g54
V10.1104/pp.106.093666
p202
sg50
VPLANT PHYSIOL
p203
sg52
V143
p204
sg84
(lp205
(VSCHALLER
VG E
tp206
asg66
I2007
sg48
VLANT
p207
sbag1
(g2
g3
NtRp208
(dp209
g54
V10.1199/tab.0112
p210
sg50
VArabidopsis Book
p211
sg52
V6
sg84
(lp212
(VSCHALLER
VG ERIC
tp213
asg66
I2008
sg48
Ve0112
p214
sbag1
(g2
g3
NtRp215
(dp216
g54
V10.1016/j.cub.2011.02.045
p217
sg50
VCURR BIOL
p218
sg52
V21
p219
sg84
(lp220
(VSCHALLER
VG E
tp221
asg66
I2011
sg48
VR320
p222
sbag1
(g2
g3
NtRp223
(dp224
g54
V10.1104/pp.111.192765
p225
sg50
VPLANT PHYSIOL
p226
sg52
V158
p227
sg84
(lp228
(VTSAI
VY C
tp229
asg66
I2012
sg48
VLANT
p230
sbasb.