ccopy_reg
_reconstructor
p1
(ctethne.classes.paper
Paper
p2
c__builtin__
object
p3
NtRp4
(dp5
S'publisherCity'
p6
VROCKVILLE
p7
sS'reprintAddress'
p8
VKumlehn, J (reprint author), Leibniz Inst Plant Genet & Crop Plant Res, D-06466 Gatersleben, Germany.
p9
sS'WC'
p10
VPlant Sciences
p11
sS'GA'
p12
V237SI
p13
sS'abstract'
p14
VGenetic transformation of crop plants offers the possibility of testing hypotheses about the function of individual genes as well as the exploitation of transgenes for targeted trait improvement. However, in most cereals, this option has long been compromised by tedious and low-efficiency transformation protocols, as well as by the lack of versatile vector systems. After having adopted and further improved the protocols for Agrobacterium-mediated stable transformation of barley ( Hordeum vulgare) and wheat ( Triticum aestivum), we now present a versatile set of binary vectors for transgene overexpression, as well as for gene silencing by double-stranded RNA interference. The vector set is offered with a series of functionally validated promoters and allows for rapid integration of the desired genes or gene fragments by GATEWAY-based recombination. Additional in-built flexibility lies in the choice of plant selectable markers, cassette orientation, and simple integration of further promoters to drive specific expression of genes of interest. Functionality of the cereal vector set has been demonstrated by transient as well as stable transformation experiments for transgene overexpression, as well as for targeted gene silencing in barley.
p15
sS'pageEnd'
p16
I1200
sS'date'
p17
I2007
sS'documentType'
p18
VArticle
p19
sS'subject'
p20
VPlant Sciences
p21
sS'isoSource'
p22
VPlant Physiol.
p23
sS'timesCited'
p24
(lp25
I35
aVZ9 36
p26
asS'PT'
p27
VJ
sS'title'
p28
VA Set Of Modular Binary Vectors For Transformation Of Cereals
p29
sS'ISSN'
p30
(lp31
V0032-0889
p32
aVJ9 PLANT PHYSIOL
p33
asS'authors_full'
p34
(lp35
(VHIMMELBACH
VAXEL
tp36
a(VZIEROLD
VUWE
tp37
a(VHENSEL
VGOETZ
tp38
a(VRIECHEN
VJAN
tp39
a(VDOUCHKOV
VDIMITAR
tp40
a(VSCHWEIZER
VPATRICK
tp41
a(VKUMLEHN
VJOCHEN
tp42
asS'PG'
p43
I9
sS'PD'
p44
VDEC
p45
sS'pageStart'
p46
I1192
sS'issue'
p47
I4
sS'RI'
p48
VHensel, Goetz/F-9957-2010; Douchkov, Dimitar/K-7192-2012
p49
sS'journal'
p50
VPLANT PHYSIOLOGY
p51
sS'volume'
p52
V145
p53
sS'doi'
p54
V10.1104/pp.107.111575
p55
sS'emailAddress'
p56
Vkumlehn@ipk-gatersleben.de
p57
sS'authorAddress'
p58
VLeibniz Inst Plant Genet & Crop Plant Res, D-06466 Gatersleben, Germany.
p59
sS'publisherAddress'
p60
V15501 MONONA DRIVE, ROCKVILLE, MD 20855 USA
p61
sS'ER'
p62
V
sS'publisher'
p63
VAMER SOC PLANT BIOLOGISTS
p64
sS'authorKeywords'
p65
(lp66
VENDOSPERM-SPECIFIC EXPRESSION
p67
aVDEFENSE-RELATED GENES
p68
aVTRANSGENIC BARLEY
p69
aVFUNCTIONAL ASSESSMENT
p70
aVARABIDOPSIS-THALIANA
p71
aVPROMOTER ACTIVITY
p72
aVPLANTS
p73
aVRESISTANCE
p74
aVPROTEIN
p75
aVWHEAT
p76
asS'OI'
p77
VHensel, Goetz/0000-0002-5539-3097; 
p78
sS'language'
p79
VEnglish
p80
sS'wosid'
p81
VWOS:000251396300012
p82
sS'citationCount'
p83
I57
sS'authors_init'
p84
(lp85
(VHIMMELBACH
VA
tp86
a(VZIEROLD
VU
tp87
a(VHENSEL
VG
tp88
a(VRIECHEN
VJ
tp89
a(VDOUCHKOV
VD
tp90
a(VSCHWEIZER
VP
tp91
a(VKUMLEHN
VJ
tp92
asS'citedReferences'
p93
(lp94
g1
(g2
g3
NtRp95
(dp96
g54
V10.1038/nrg1893
p97
sg50
VNAT REV GENET
p98
sg52
V7
sg84
(lp99
(VALONSO
VJ M
tp100
asg17
I2006
sg46
V524
p101
sbag1
(g2
g3
NtRp102
(dp103
g54
V10.1007/s11103-004-7564-7
p104
sg50
VPLANT MOL BIOL
p105
sg52
V57
p106
sg84
(lp107
(VALTPETER
VF
tp108
asg17
I2005
sg46
VLANT
p109
sbag1
(g2
g3
NtRp110
(dp111
g54
V10.1016/0022-2836(92)90629-X
p112
sg50
VJ MOL BIOL
p113
sg52
V226
p114
sg84
(lp115
(VBERNARD
VP
tp116
asg17
I1992
sg46
V735
p117
sbag1
(g2
g3
NtRp118
(dp119
g54
V10.1007/s10681-006-9087-6
p120
sg50
VEUPHYTICA
p121
sg52
V149
p122
sg84
(lp123
(VBHALLA
VP L
tp124
asg17
I2006
sg46
V353
p125
sbag1
(g2
g3
NtRp126
(dp127
g54
Nsg50
VANAL BIOCHEM
p128
sg52
V72
p129
sg84
(lp130
(VBRADFORD
VM M
tp131
asg17
I1976
sg46
V254
p132
sbag1
(g2
g3
NtRp133
(dp134
g54
V10.1007/s11103-006-9065-3
p135
sg50
VPLANT MOL BIOL
p136
sg52
V62
p137
sg84
(lp138
(VCHEN
VQ J
tp139
asg17
I2006
sg46
VLANT
p140
sbag1
(g2
g3
NtRp141
(dp142
g54
V10.1034/j.1399-3054.2002.1150117.x
p143
sg50
VPHYSIOL PLANTARUM
p144
sg52
V115
p145
sg84
(lp146
(VCHO
VM J
tp147
asg17
I2002
sg46
VHYSIOL
p148
sbag1
(g2
g3
NtRp149
(dp150
g54
V10.1007/BF00020010
p151
sg50
VPLANT MOL BIOL
p152
sg52
V18
p153
sg84
(lp154
(VCHRISTENSEN
VA H
tp155
asg17
I1992
sg46
VLANT
p156
sbag1
(g2
g3
NtRp157
(dp158
g54
V10.1016/j.tplants.2005.06.001
p159
sg50
VTRENDS PLANT SCI
p160
sg52
V10
p161
sg84
(lp162
(VCHUNG
VS M
tp163
asg17
I2005
sg46
V357
p164
sbag1
(g2
g3
NtRp165
(dp166
g54
V10.1104/pp.103.034462
p167
sg50
VPLANT PHYSIOL
p168
sg52
V134
p169
sg84
(lp170
(VCLOSE
VT J
tp171
asg17
I2004
sg46
VLANT
p172
sbag1
(g2
g3
NtRp173
(dp174
g54
V10.1007/s10681-006-9316-z
p175
sg50
VEUPHYTICA
p176
sg52
V154
p177
sg84
(lp178
(VCONNER
VA J
tp179
asg17
I2007
sg46
V341
p180
sbag1
(g2
g3
NtRp181
(dp182
g54
V10.1104/pp.103.027979
p183
sg50
VPLANT PHYSIOL
p184
sg52
V133
p185
sg84
(lp186
(VCURTIS
VM D
tp187
asg17
I2003
sg46
VLANT
p188
sbag1
(g2
g3
NtRp189
(dp190
g54
V10.1002/biot.200600182
p191
sg50
VBiotechnology Journal
p192
sg52
V2
sg84
(lp193
(VDARBANI
VBEHROOZ
tp194
asg17
I2007
sg46
V83
p195
sbag1
(g2
g3
NtRp196
(dp197
g54
V10.1046/j.1365-313X.2003.01922.x
p198
sg50
VPLANT J
p199
sg52
V36
p200
sg84
(lp201
(VDEVEAUX
VY
tp202
asg17
I2003
sg46
VLANT
p203
sbag1
(g2
g3
NtRp204
(dp205
g54
V10.1094/MPMI-18-0755
p206
sg50
VMOL PLANT MICROBE IN
p207
sg52
V18
p208
sg84
(lp209
(VDOUCHKOV
VD
tp210
asg17
I2005
sg46
V755
p211
sbag1
(g2
g3
NtRp212
(dp213
g54
V10.1007/s10142-006-0025-4
p214
sg50
VFunctional 
p215
sg52
V6
sg84
(lp216
(VDRUKA
VARNIS
tp217
asg17
I2006
sg46
V202
p218
sbag1
(g2
g3
NtRp219
(dp220
g54
V10.1111/j.1365-313X.2005.02617.x
p221
sg50
VPLANT J
p222
sg52
V45
p223
sg84
(lp224
(VEARLEY
VK W
tp225
asg17
I2006
sg46
VLANT
p226
sbag1
(g2
g3
NtRp227
(dp228
g54
V10.1111/j.1467-7652.2005.00135.x
p229
sg50
VPLANT BIOTECHNOL J
p230
sg52
V3
sg84
(lp231
(VFURTADO
VA
tp232
asg17
I2005
sg46
VLANT
p233
sbag1
(g2
g3
NtRp234
(dp235
g54
Nsg50
VTRANSGENIC PLANT J
p236
sg52
V1
sg84
(lp237
(VGOEDEKE
VS
tp238
asg17
I2007
sg46
V104
p239
sbag1
(g2
g3
NtRp240
(dp241
g54
V10.1111/1.1365-2672.2005.02595.x
p242
sg50
VJ APPL MICROBIOL
p243
sg52
V99
p244
sg84
(lp245
(VGOLDSTEIN
VD A
tp246
asg17
I2005
sg46
V7
sbag1
(g2
g3
NtRp247
(dp248
g54
V10.1111/j.1467-7652.2004.00113.x
p249
sg50
VPLANT BIOTECHNOL J
p250
sg52
V3
sg84
(lp251
(VHALPIN
VC
tp252
asg17
I2005
sg46
VLANT
p253
sbag1
(g2
g3
NtRp254
(dp255
g54
Nsg50
VIN RPESS J PLANT PHY
p256
sg52
Nsg84
(lp257
(VHENSEL
VG
tp258
asg17
I2008
sg46
Nsbag1
(g2
g3
NtRp259
(dp260
g54
V10.1007/BF00041155
p261
sg50
VPLANT MOL BIOL
p262
sg52
V29
p263
sg84
(lp264
(VHOLTORF
VS
tp265
asg17
I1995
sg46
VLANT
p266
sbag1
(g2
g3
NtRp267
(dp268
g54
V10.1016/0147-619X(84)90027-1
p269
sg50
VPLASMID
p270
sg52
V11
p271
sg84
(lp272
(VITOH
VY
tp273
asg17
I1984
sg46
VLASMID
p274
sbag1
(g2
g3
NtRp275
(dp276
g54
V10.1016/0092-8674(94)90509-6
p277
sg50
VCELL
p278
sg52
V76
p279
sg84
(lp280
(VJACK
VT
tp281
asg17
I1994
sg46
V703
p282
sbag1
(g2
g3
NtRp283
(dp284
g54
Nsg50
VEMBO J
p285
sg52
V6
sg84
(lp286
(VJEFFERSON
VR A
tp287
asg17
I1987
sg46
V3901
p288
sbag1
(g2
g3
NtRp289
(dp290
g54
Nsg50
VTRENDS PLANT SCI
p291
sg52
V7
sg84
(lp292
(VKARIMI
VM
tp293
asg17
I2002
sg46
V1993
p294
sbag1
(g2
g3
NtRp295
(dp296
g54
V10.1046/j.1365-313X.2003.01733.x
p297
sg50
VPLANT J
p298
sg52
V34
p299
sg84
(lp300
(VLACOMME
VC
tp301
asg17
I2003
sg46
VLANT
p302
sbag1
(g2
g3
NtRp303
(dp304
g54
V10.1146/annurev.biochem.58.1.913
p305
sg50
VANNU REV BIOCHEM
p306
sg52
V58
p307
sg84
(lp308
(VLANDY
VA
tp309
asg17
I1989
sg46
V913
p310
sbag1
(g2
g3
NtRp311
(dp312
g54
Nsg50
VJ BIOMED BIOTECHNOL
p313
sg52
Nsg84
(lp314
(VLATHAM
VJ R
tp315
asg17
I2006
sg46
V1
sbag1
(g2
g3
NtRp316
(dp317
g54
V10.1007/s11103-006-9031-0
p318
sg50
VPLANT MOL BIOL
p319
sg52
V62
p320
sg84
(lp321
(VLUO
VH
tp322
asg17
I2006
sg46
VLANT
p323
sbag1
(g2
g3
NtRp324
(dp325
g54
V10.1111/j.1365-313X.2004.02027.x
p326
sg50
VPLANT J
p327
sg52
V38
p328
sg84
(lp329
(VMAIZEL
VA
tp330
asg17
I2004
sg46
VLANT
p331
sbag1
(g2
g3
NtRp332
(dp333
g54
V10.1105/tpc.2.2.163
p334
sg50
VPLANT CELL
p335
sg52
V2
sg84
(lp336
(VMCELROY
VD
tp337
asg17
I1990
sg46
VLANT
p338
sbag1
(g2
g3
NtRp339
(dp340
g54
V10.1093/pcp/pch048
p341
sg50
VPLANT CELL PHYSIOL
p342
sg52
V45
p343
sg84
(lp344
(VMIKI
VD
tp345
asg17
I2004
sg46
VLANT
p346
sbag1
(g2
g3
NtRp347
(dp348
g54
V10.1006/pmpp.1998.0184
p349
sg50
VPHYSIOL MOL PLANT P
p350
sg52
V54
p351
sg84
(lp352
(VNIELSEN
VK
tp353
asg17
I1999
sg46
VHYSIOL
p354
sbag1
(g2
g3
NtRp355
(dp356
g54
V10.1038/313810a0
p357
sg50
VNATURE
p358
sg52
V313
p359
sg84
(lp360
(VODELL
VJ T
tp361
asg17
I1985
sg46
V810
p362
sbag1
(g2
g3
NtRp363
(dp364
g54
V10.1094/MPMI.2001.14.7.832
p365
sg50
VMOL PLANT MICROBE IN
p366
sg52
V14
p367
sg84
(lp368
(VOLDACH
VK H
tp369
asg17
I2001
sg46
V832
p370
sbag1
(g2
g3
NtRp371
(dp372
g54
Nsg50
VJ BIOL CHEM
p373
sg52
V271
p374
sg84
(lp375
(VOLIVE
VM
tp376
asg17
I1996
sg46
V2040
p377
sbag1
(g2
g3
NtRp378
(dp379
g54
V10.1023/A:1009640427515
p380
sg50
VMOL BREEDING
p381
sg52
V6
sg84
(lp382
(VPATEL
VM
tp383
asg17
I2000
sg46
V113
p384
sbag1
(g2
g3
NtRp385
(dp386
g54
V10.1046/j.1365-313X.2003.01662.x
p387
sg50
VPLANT J
p388
sg52
V33
p389
sg84
(lp390
(VRAMIREZ-PARRA
VE
tp391
asg17
I2003
sg46
VLANT
p392
sbag1
(g2
g3
NtRp393
(dp394
g54
Nsg50
VIN VITRO CELL DEV
p395
sg52
V37
p396
sg84
(lp397
(VREED
VJ
tp398
asg17
I2001
sg46
V127
p399
sbag1
(g2
g3
NtRp400
(dp401
g54
Nsg50
VMOL CLONING LAB MANU
p402
sg52
Nsg84
(lp403
(VSAMBROOK
VJ
tp404
asg17
I2001
sg46
Nsbag1
(g2
g3
NtRp405
(dp406
g54
V10.1046/j.1365-313x.2000.00941.x
p407
sg50
VPLANT J
p408
sg52
V24
p409
sg84
(lp410
(VSCHWEIZER
VP
tp411
asg17
I2000
sg46
VLANT
p412
sbag1
(g2
g3
NtRp413
(dp414
g54
V10.1094/MPMI.1999.12.8.647
p415
sg50
VMOL PLANT MICROBE IN
p416
sg52
V12
p417
sg84
(lp418
(VSCHWEIZER
VP
tp419
asg17
I1999
sg46
V647
p420
sbag1
(g2
g3
NtRp421
(dp422
g54
V10.1111/j.1467-7652.2006.00209.x
p423
sg50
VPLANT BIOTECHNOL J
p424
sg52
V4
sg84
(lp425
(VSHRAWAT
VA K
tp426
asg17
I2006
sg46
VLANT
p427
sbag1
(g2
g3
NtRp428
(dp429
g54
V10.1007/s10577-006-1107-9
p430
sg50
VCHROMOSOME RES
p431
sg52
V15
p432
sg84
(lp433
(VSTEIN
VN
tp434
asg17
I2007
sg46
V21
p435
sbag1
(g2
g3
NtRp436
(dp437
g54
Nsg50
VMOL BREEDING
p438
sg52
V5
sg84
(lp439
(VSTOEGER
VE
tp440
asg17
I1999
sg46
V65
p441
sbag1
(g2
g3
NtRp442
(dp443
g54
V10.1007/s11103-005-0340-5
p444
sg50
VPLANT MOL BIOL
p445
sg52
V57
p446
sg84
(lp447
(VTZFIRA
VT
tp448
asg17
I2005
sg46
VLANT
p449
sbag1
(g2
g3
NtRp450
(dp451
g54
V10.1016/j.copbio.2006.01.009
p452
sg50
VCURR OPIN BIOTECH
p453
sg52
V17
p454
sg84
(lp455
(VTZFIRA
VT
tp456
asg17
I2006
sg46
V147
p457
sbag1
(g2
g3
NtRp458
(dp459
g54
V10.1007/s11103-006-9014-1
p460
sg50
VPLANT MOL BIOL
p461
sg52
V62
p462
sg84
(lp463
(VVICKERS
VC E
tp464
asg17
I2006
sg46
VLANT
p465
sbag1
(g2
g3
NtRp466
(dp467
g54
V10.1073/pnas.95.23.13959
p468
sg50
VP NATL ACAD SCI USA
p469
sg52
V95
p470
sg84
(lp471
(VWATERHOUSE
VP M
tp472
asg17
I1998
sg46
V13959
p473
sbag1
(g2
g3
NtRp474
(dp475
g54
V10.1046/j.1365-313X.2001.01105.x
p476
sg50
VPLANT J
p477
sg52
V27
p478
sg84
(lp479
(VWESLEY
VS V
tp480
asg17
I2001
sg46
VLANT
p481
sbag1
(g2
g3
NtRp482
(dp483
g54
V10.1007/s002990100384
p484
sg50
VPLANT CELL REP
p485
sg52
V20
p486
sg84
(lp487
(VXIAO
VF H
tp488
asg17
I2001
sg46
VLANT
p489
sbag1
(g2
g3
NtRp490
(dp491
g54
V10.1111/j.1365-313X.2004.02209.x
p492
sg50
VPLANT J
p493
sg52
V40
p494
sg84
(lp495
(VZHANG
VH N
tp496
asg17
I2004
sg46
VLANT
p497
sbag1
(g2
g3
NtRp498
(dp499
g54
V[10.1111/j.1364-3703.2005.00271.x, 10.1111/J.1364-3703.2005.00271.X]
p500
sg50
VMOL PLANT PATHOL
p501
sg52
V6
sg84
(lp502
(VZIEROLD
VU
tp503
asg17
I2005
sg46
V139
p504
sbag1
(g2
g3
NtRp505
(dp506
g54
V10.1104/pp.106.083824
p507
sg50
VPLANT PHYSIOL
p508
sg52
V142
p509
sg84
(lp510
(VZIMMERMANN
VG
tp511
asg17
I2006
sg46
VLANT
p512
sbag1
(g2
g3
NtRp513
(dp514
g54
V10.1016/S0958-1669(00)00073-2
p515
sg50
VCURR OPIN BIOTECH
p516
sg52
V11
p517
sg84
(lp518
(VZUO
VJ R
tp519
asg17
I2000
sg46
V146
p520
sbasb.