ccopy_reg
_reconstructor
p1
(ctethne.classes.paper
Paper
p2
c__builtin__
object
p3
NtRp4
(dp5
S'publisherCity'
p6
VROCKVILLE
p7
sS'reprintAddress'
p8
VGrimm, B (reprint author), Humboldt Univ, Inst Biol, D-10115 Berlin, Germany.
p9
sS'WC'
p10
VPlant Sciences
p11
sS'GA'
p12
V138YM
p13
sS'abstract'
p14
VThe NADPH-dependent thioredoxin reductase C (NTRC) is involved in redox-related regulatory processes in chloroplasts and nonphotosynthetic active plastids. Together with 2-cysteine peroxiredoxin, it forms a two-component peroxide-detoxifying system that acts as a reductant under stress conditions. NTRC stimulates in vitro activity of magnesium protoporphyrin IX monomethylester (MgPMME) cyclase, most likely by scavenging peroxides. Reexamination of tetrapyrrole intermediate levels of the Arabidopsis (Arabidopsis thaliana) knockout ntrc reveals lower magnesium protoporphyrin IX (MgP) and MgPMME steady-state levels, the substrate and the product of MgP methyltransferase (CHLM) preceding MgPMME cyclase, while MgP strongly accumulates in mutant leaves after 5-aminolevulinic acid feeding. The ntrc mutant has a reduced capacity to synthesize 5-aminolevulinic acid and reduced CHLM activity compared with the wild type. Although transcript levels of genes involved in chlorophyll biosynthesis are not significantly altered in 2-week-old ntrc seedlings, the contents of glutamyl-transfer RNA reductase1 (GluTR1) and CHLM are reduced. Bimolecular fluorescence complementation assay confirms a physical interaction of NTRC with GluTR1 and CHLM. While ntrc contains partly oxidized CHLM, the wild type has only reduced CHLM. As NTRC also stimulates CHLM activity in vitro, it is proposed that NTRC has a regulatory impact on the redox status of conserved cysteine residues of CHLM. It is hypothesized that a deficiency of NTRC leads to a lower capacity to reduce cysteine residues of GluTR1 and CHLM, affecting the stability and, thereby, altering the activity in the entire tetrapyrrole synthesis pathway.
p15
sS'pageEnd'
p16
I73
sS'publisherAddress'
p17
V15501 MONONA DRIVE, ROCKVILLE, MD 20855 USA
p18
sS'documentType'
p19
VArticle
p20
sS'subject'
p21
VPlant Sciences
p22
sS'isoSource'
p23
VPlant Physiol.
p24
sS'timesCited'
p25
(lp26
I1
aVZ9 1
p27
asS'PT'
p28
VJ
sS'title'
p29
VPosttranslational Influence Of Nadph-Dependent Thioredoxin Reductase C On Enzymes In Tetrapyrrole Synthesis
p30
sS'ISSN'
p31
(lp32
V0032-0889
p33
aVJ9 PLANT PHYSIOL
p34
asS'authors_full'
p35
(lp36
(VRICHTER
VANDREAS S
tp37
a(VPETER
VENRICO
tp38
a(VROTHBART
VMAXI
tp39
a(VSCHLICKE
VHAGEN
tp40
a(VTOIVOLA
VJOUNI
tp41
a(VRINTAMAKI
VEEVI
tp42
a(VGRIMM
VBERNHARD
tp43
asS'PG'
p44
I11
sS'PD'
p45
VMAY
p46
sS'pageStart'
p47
I63
sS'issue'
p48
I1
sS'journal'
p49
VPLANT PHYSIOLOGY
p50
sS'volume'
p51
V162
p52
sS'doi'
p53
V10.1104/pp.113.217141
p54
sS'emailAddress'
p55
Vbernhard.grimm@hu-berlin.de
p56
sS'authorAddress'
p57
(lp58
V[Richter, Andreas S.; Peter, Enrico; Rothbart, Maxi; Schlicke, Hagen; Grimm, Bernhard] Humboldt Univ, Inst Biol, D-10115 Berlin, Germany.
p59
aV[Toivola, Jouni; Rintamaki, Eevi] Univ Turku, Dept Biochem & Food Chem, FIN-20014 Turku, Finland.
p60
asS'date'
p61
I2013
sS'ER'
p62
V
sS'publisher'
p63
VAMER SOC PLANT BIOLOGISTS
p64
sS'authorKeywords'
p65
(lp66
VPROTOPORPHYRIN-IX METHYLTRANSFERASE
p67
aVADP-GLUCOSE PYROPHOSPHORYLASE
p68
aV5-AMINOLEVULINIC ACID SYNTHESIS
p69
aVARABIDOPSIS-THALIANA
p70
aVCHLOROPHYLL BIOSYNTHESIS
p71
aVMAGNESIUM CHELATASE
p72
aVREDOX-MODIFICATION
p73
aVPROTEIN
p74
aVCHLOROPLAST
p75
aVLIGHT
p76
asS'language'
p77
VEnglish
p78
sS'wosid'
p79
VWOS:000318547900006
p80
sS'citationCount'
p81
I41
sS'authors_init'
p82
(lp83
(VRICHTER
VA S
tp84
a(VPETER
VE
tp85
a(VROTHBART
VM
tp86
a(VSCHLICKE
VH
tp87
a(VTOIVOLA
VJ
tp88
a(VRINTAMAKI
VE
tp89
a(VGRIMM
VB
tp90
asS'citedReferences'
p91
(lp92
g1
(g2
g3
NtRp93
(dp94
g53
V10.1007/s11103-005-1427-8
p95
sg49
VPLANT MOL BIOL
p96
sg51
V57
p97
sg82
(lp98
(VALAWADY
VA
tp99
asg61
I2005
sg47
VLANT
p100
sbag1
(g2
g3
NtRp101
(dp102
g53
V10.1111/j.1365-313X.2004.02291.x
p103
sg49
VPLANT J
p104
sg51
V41
p105
sg82
(lp106
(VALAWADY
VA E
tp107
asg61
I2005
sg47
VLANT
p108
sbag1
(g2
g3
NtRp109
(dp110
g53
V10.1146/annurev.arplant.55.031903.141701
p111
sg49
VANNU REV PLANT BIOL
p112
sg51
V55
p113
sg82
(lp114
(VAPEL
VK
tp115
asg61
I2004
sg47
V373
p116
sbag1
(g2
g3
NtRp117
(dp118
g53
V10.1093/jxb/ers283
p119
sg49
VJ EXP BOT
p120
sg51
V63
p121
sg82
(lp122
(VBOHRER
VA S
tp123
asg61
I2012
sg47
V6315
p124
sbag1
(g2
g3
NtRp125
(dp126
g53
V10.1146/annurev.arplant.56.032604.144246
p127
sg49
VANNU REV PLANT BIOL
p128
sg51
V56
p129
sg82
(lp130
(VBUCHANAN
VB B
tp131
asg61
I2005
sg47
V187
p132
sbag1
(g2
g3
NtRp133
(dp134
g53
V10.1093/jxb/err437
p135
sg49
VJ EXP BOT
p136
sg51
V63
p137
sg82
(lp138
(VCZARNECKI
VO
tp139
asg61
I2012
sg47
V1675
p140
sbag1
(g2
g3
NtRp141
(dp142
g53
V10.1105/tpc.111.086421
p143
sg49
VPLANT CELL
p144
sg51
V23
p145
sg82
(lp146
(VCZARNECKI
VO
tp147
asg61
I2011
sg47
VLANT
p148
sbag1
(g2
g3
NtRp149
(dp150
g53
V10.1093/mp/ssp040
p151
sg49
VMOL PLANT
p152
sg51
V2
sg82
(lp153
(VGEHL
VC
tp154
asg61
I2009
sg47
V1051
p155
sbag1
(g2
g3
NtRp156
(dp157
g53
V10.1104/pp.103.024513
p158
sg49
VPLANT PHYSIOL
p159
sg51
V133
p160
sg82
(lp161
(VHENDRIKS
VJ H M
tp162
asg61
I2003
sg47
VLANT
p163
sbag1
(g2
g3
NtRp164
(dp165
g53
V10.1016/S0014-5793(97)00371-2
p166
sg49
VFEBS LETT
p167
sg51
V407
p168
sg82
(lp169
(VHINCHIGERI
VS B
tp170
asg61
I1997
sg47
V337
p171
sbag1
(g2
g3
NtRp172
(dp173
g53
V10.1074/jbc.M703324200
p174
sg49
VJ BIOL CHEM
p175
sg51
V282
p176
sg82
(lp177
(VIKEGAMI
VA
tp178
asg61
I2007
sg47
V19282
p179
sbag1
(g2
g3
NtRp180
(dp181
g53
V10.1016/j.febslet.2011.12.029
p182
sg49
VFEBS LETT
p183
sg51
V586
p184
sg82
(lp185
(VKAUSS
VD
tp186
asg61
I2012
sg47
V211
p187
sbag1
(g2
g3
NtRp188
(dp189
g53
V10.1105/tpc.111.092304
p190
sg49
VPLANT CELL
p191
sg51
V24
p192
sg82
(lp193
(VKIRCHSTEIGER
VK
tp194
asg61
I2012
sg47
VLANT
p195
sbag1
(g2
g3
NtRp196
(dp197
g53
V10.1093/mp/ssn082
p198
sg49
VMOL PLANT
p199
sg51
V2
sg82
(lp200
(VKIRCHSTEIGER
VK
tp201
asg61
I2009
sg47
V298
p202
sbag1
(g2
g3
NtRp203
(dp204
g53
V10.1126/science.1079978
p205
sg49
VSCIENCE
p206
sg51
V299
p207
sg82
(lp208
(VLARKIN
VR M
tp209
asg61
I2003
sg47
V902
p210
sbag1
(g2
g3
NtRp211
(dp212
g53
V10.1104/pp.108.133777
p213
sg49
VPLANT PHYSIOL
p214
sg51
V149
p215
sg82
(lp216
(VLEPISTO
VA
tp217
asg61
I2009
sg47
VLANT
p218
sbag1
(g2
g3
NtRp219
(dp220
g53
V10.1093/pcp/pcr193
p221
sg49
VPLANT CELL PHYSIOL
p222
sg51
V53
p223
sg82
(lp224
(VLI
VJ
tp225
asg61
I2012
sg47
VLANT
p226
sbag1
(g2
g3
NtRp227
(dp228
g53
V10.1104/pp.112.195446
p229
sg49
VPLANT PHYSIOL
p230
sg51
V159
p231
sg82
(lp232
(VLUO
VT
tp233
asg61
I2012
sg47
VLANT
p234
sbag1
(g2
g3
NtRp235
(dp236
g53
V10.1199/tab.0145
p237
sg49
VArabidopsis Book
p238
sg51
V9
sg82
(lp239
(VTANAKA
VRYOUICHI
tp240
asg61
I2011
sg47
Ve0145
p241
sbag1
(g2
g3
NtRp242
(dp243
g53
Nsg49
VJ BIOL CHEM
p244
sg51
V219
p245
sg82
(lp246
(VMAUZERALL
VD
tp247
asg61
I1956
sg47
V435
p248
sbag1
(g2
g3
NtRp249
(dp250
g53
V10.1073/pnas.221252798
p251
sg49
VP NATL ACAD SCI USA
p252
sg51
V98
p253
sg82
(lp254
(VMESKAUSKIENE
VR
tp255
asg61
I2001
sg47
V12826
p256
sbag1
(g2
g3
NtRp257
(dp258
g53
V10.1073/pnas.0903559106
p259
sg49
VP NATL ACAD SCI USA
p260
sg51
V106
p261
sg82
(lp262
(VMICHALSKA
VJ
tp263
asg61
I2009
sg47
V9908
p264
sbag1
(g2
g3
NtRp265
(dp266
g53
V10.1093/mp/ssp011
p267
sg49
VMOL PLANT
p268
sg51
V2
sg82
(lp269
(VPEREZ-RUIZ
VJ M
tp270
asg61
I2009
sg47
V457
p271
sbag1
(g2
g3
NtRp272
(dp273
g53
V10.1105/tpc.106.041541
p274
sg49
VPLANT CELL
p275
sg51
V18
p276
sg82
(lp277
(VPEREZ-RUIZ
VJ M
tp278
asg61
I2006
sg47
VLANT
p279
sbag1
(g2
g3
NtRp280
(dp281
g53
V10.1016/j.febslet.2009.03.067
p282
sg49
VFEBS LETT
p283
sg51
V583
p284
sg82
(lp285
(VPEREZ-RUIZ
VJ M
tp286
asg61
I2009
sg47
V1399
p287
sbag1
(g2
g3
NtRp288
(dp289
g53
V10.1093/pcp/pcq071
p290
sg49
VPLANT CELL PHYSIOL
p291
sg51
V51
p292
sg82
(lp293
(VPETER
VE
tp294
asg61
I2010
sg47
VLANT
p295
sbag1
(g2
g3
NtRp296
(dp297
g53
V10.1093/mp/ssp072
p298
sg49
VMOL PLANT
p299
sg51
V2
sg82
(lp300
(VPETER
VE
tp301
asg61
I2009
sg47
V1198
p302
sbag1
(g2
g3
NtRp303
(dp304
g53
V10.1093/jxb/erq218
p305
sg49
VJ EXP BOT
p306
sg51
V61
p307
sg82
(lp308
(VPULIDO
VP
tp309
asg61
I2010
sg47
V4043
p310
sbag1
(g2
g3
NtRp311
(dp312
g53
V10.1093/pcp/pcq047
p313
sg49
VPLANT CELL PHYSIOL
p314
sg51
V51
p315
sg82
(lp316
(VRICHTER
VA
tp317
asg61
I2010
sg47
VLANT
p318
sbag1
(g2
g3
NtRp319
(dp320
g53
Nsg49
VMOL CLONING LAB MANU
p321
sg51
Nsg82
(lp322
(VSAMBROOK
VD W
tp323
asg61
I2001
sg47
Nsbag1
(g2
g3
NtRp324
(dp325
g53
V10.1074/jbc.M404696200
p326
sg49
VJ BIOL CHEM
p327
sg51
V279
p328
sg82
(lp329
(VSERRATO
VA J
tp330
asg61
I2004
sg47
V43821
p331
sbag1
(g2
g3
NtRp332
(dp333
g53
V10.1111/j.1742-4658.2005.04873.x
p334
sg49
VFEBS J
p335
sg51
V272
p336
sg82
(lp337
(VSHEPHERD
VM
tp338
asg61
I2005
sg47
V4532
p339
sbag1
(g2
g3
NtRp340
(dp341
g53
Nsg49
VBIOCHEM J
p342
sg51
V382
p343
sg82
(lp344
(VSHEPHERD
VM
tp345
asg61
I2004
sg47
V1009
p346
sbag1
(g2
g3
NtRp347
(dp348
g53
V10.1111/j.1399-3054.2008.01088.x
p349
sg49
VPHYSIOL PLANTARUM
p350
sg51
V133
p351
sg82
(lp352
(VSPINOLA
VM C
tp353
asg61
I2008
sg47
VHYSIOL
p354
sbag1
(g2
g3
NtRp355
(dp356
g53
V10.1016/j.phytochem.2010.03.022
p357
sg49
VPHYTOCHEMISTRY
p358
sg51
V71
p359
sg82
(lp360
(VSTENBAEK
VA
tp361
asg61
I2010
sg47
VHYTOCHEMISTRY
p362
sbag1
(g2
g3
NtRp363
(dp364
g53
V10.1016/j.febslet.2008.07.006
p365
sg49
VFEBS LETT
p366
sg51
V582
p367
sg82
(lp368
(VSTENBAEK
VA
tp369
asg61
I2008
sg47
V2773
p370
sbag1
(g2
g3
NtRp371
(dp372
g53
V10.1111/j.1365-3040.2012.02549.x
p373
sg49
VPLANT CELL ENVIRON
p374
sg51
V36
p375
sg82
(lp376
(VTHORMAHLEN
VI
tp377
asg61
I2013
sg47
VLANT
p378
sbag1
(g2
g3
NtRp379
(dp380
g53
V10.1073/pnas.2136793100
p381
sg49
VP NATL ACAD SCI USA
p382
sg51
V100
p383
sg82
(lp384
(VTOTTEY
VS
tp385
asg61
I2003
sg47
V16119
p386
sbag1
(g2
g3
NtRp387
(dp388
g53
V10.1111/j.1365-313X.2004.02219.x
p389
sg49
VPLANT J
p390
sg51
V40
p391
sg82
(lp392
(VWALTER
VM
tp393
asg61
I2004
sg47
VLANT
p394
sbag1
(g2
g3
NtRp395
(dp396
g53
V10.1021/bi200058a
p397
sg49
VBIOCHEMISTRY
p398
sg51
V50
p399
sg82
(lp400
(VWULFF
VR P
tp401
asg61
I2011
sg47
V3713
p402
sbag1
(g2
g3
NtRp403
(dp404
g53
V10.1016/j.febslet.2011.12.026
p405
sg49
VFEBS LETT
p406
sg51
V586
p407
sg82
(lp408
(VZHOU
VS X
tp409
asg61
I2012
sg47
V205
p410
sbasb.