ccopy_reg
_reconstructor
p1
(ctethne.classes.paper
Paper
p2
c__builtin__
object
p3
NtRp4
(dp5
S'publisherCity'
p6
VROCKVILLE
p7
sS'reprintAddress'
p8
VHannah, LC (reprint author), Univ Florida, Program Plant Mol & Cellular Biol, POB 110690,2211 Fifield Hall, Gainesville, FL 32611 USA.
p9
sS'WC'
p10
VPlant Sciences
p11
sS'GA'
p12
V474TV
p13
sS'abstract'
p14
VPlant ADP-glucose pyrophosphorylase (AGP) is a heterotetrameric enzyme composed of two large and two small subunits. Here, we report the structures of the maize (Zea mays) genes encoding AGP small subunits of leaf and endosperm. Excluding exon 1, protein-encoding sequences of the two genes are nearly identical. Exon I coding sequences, however, possess no similarity. Introns are placed in identical positions and exhibit obvious sequence similarity. Size differences are primarily due to insertions and duplications, hallmarks of transposable element visitation. Comparison of the maize genes with other plant AGP small subunit genes leads to a number of noteworthy inferences concerning the evolution of these genes. The small subunit gene can be divided into two modules. One module, encompassing all coding information except that derived from exon 1, displays striking similarity among all genes. It is surprising that members from eudicots form one group, whereas those from cereals form a second group. This implies that the duplications giving rise to family members occurred at least twice and after the separation of eudicots and monocot cereals. One intron within this module may have had a transposon origin. A different evolutionary history is suggested for exon 1. These sequences define three distinct groups, two of which come from cereal seeds. This distinction likely has functional significance because cereal endosperm AGPs are cytosolic, whereas all other forms appear to be plastid localized. Finally, whereas barley (Hordeum vulgare) reportedly employs only one gene to encode the small subunit of the seed and leaf, maize utilizes the two genes described here.
p15
sS'pageEnd'
p16
I183
sS'publisherAddress'
p17
V15501 MONONA DRIVE, ROCKVILLE, MD 20855 USA
p18
sS'documentType'
p19
VArticle
p20
sS'subject'
p21
VPlant Sciences
p22
sS'isoSource'
p23
VPlant Physiol.
p24
sS'timesCited'
p25
(lp26
I36
aVZ9 41
p27
asS'PT'
p28
VJ
sS'title'
p29
VMaize Genes Encoding The Small Subunit Of Adp-Glucose Pyrophosphorylase
p30
sS'ISSN'
p31
(lp32
V0032-0889
p33
aVJ9 PLANT PHYSIOL
p34
asS'authors_full'
p35
(lp36
(VHANNAH
VLC
tp37
a(VSHAW
VJR
tp38
a(VGIROUX
VMJ
tp39
a(VREYSS
VA
tp40
a(VPRIOUL
VJL
tp41
a(VBAE
VJM
tp42
a(VLEE
VJY
tp43
asS'PG'
p44
I11
sS'PD'
p45
VSEP
p46
sS'pageStart'
p47
I173
sS'issue'
p48
I1
sS'RI'
p49
VPrioul, Jean-Louis/B-4214-2008; Giroux, Michael/F-4413-2010
p50
sS'journal'
p51
VPLANT PHYSIOLOGY
p52
sS'volume'
p53
V127
p54
sS'doi'
p55
V10.1104/pp.127.1.173
p56
sS'authorAddress'
p57
(lp58
VUniv Florida, Program Plant Mol & Cellular Biol, Gainesville, FL 32611 USA.
p59
aVUniv Paris 11, CNRS,Associe Struct & Metab Plantes, UMR8618, Inst Biotechnol Plantes, F-91405 Orsay, France.
p60
asS'date'
p61
I2001
sS'ER'
p62
V
sS'publisher'
p63
VAMER SOC PLANT BIOLOGISTS
p64
sS'authorKeywords'
p65
(lp66
VADPGLUCOSE PYROPHOSPHORYLASE
p67
aVCDNA CLONES
p68
aVMOLECULAR CHARACTERIZATION
p69
aVARABIDOPSIS-THALIANA
p70
aVSTARCH BIOSYNTHESIS
p71
aVBARLEY ENDOSPERM
p72
aVRICE ENDOSPERM
p73
aVMULTIPLE FORMS
p74
aVEXPRESSION
p75
aVCLONING
p76
asS'language'
p77
VEnglish
p78
sS'wosid'
p79
VWOS:000171123700022
p80
sS'citationCount'
p81
I53
sS'authors_init'
p82
(lp83
(VHANNAH
VL C
tp84
a(VSHAW
VJ R
tp85
a(VGIROUX
VM J
tp86
a(VREYSS
VA
tp87
a(VPRIOUL
VJ L
tp88
a(VBAE
VJ M
tp89
a(VLEE
VJ Y
tp90
asS'citedReferences'
p91
(lp92
g1
(g2
g3
NtRp93
(dp94
g55
V10.1016/0378-1119(91)90052-D
p95
sg51
VGENE
p96
sg53
V97
p97
sg82
(lp98
(VANDERSON
VJ M
tp99
asg61
I1991
sg47
V199
p100
sbag1
(g2
g3
NtRp101
(dp102
g55
V10.1007/s004380050406
p103
sg51
VMOL GEN GENET
p104
sg53
V254
p105
sg82
(lp106
(VBAE
VJ M
tp107
asg61
I1997
sg47
V179
p108
sbag1
(g2
g3
NtRp109
(dp110
g55
Nsg51
VMAYDICA
p111
sg53
V35
p112
sg82
(lp113
(VBAE
VJ M
tp114
asg61
I1990
sg47
V317
p115
sbag1
(g2
g3
NtRp116
(dp117
g55
V10.1104/pp.109.1.245
p118
sg51
VPLANT PHYSIOL
p119
sg53
V109
p120
sg82
(lp121
(VBALLICORA
VM A
tp122
asg61
I1995
sg47
VLANT
p123
sbag1
(g2
g3
NtRp124
(dp125
g55
V10.1104/pp.125.2.818
p126
sg51
VPLANT PHYSIOL
p127
sg53
V125
p128
sg82
(lp129
(VBECKLES
VD M
tp130
asg61
I2001
sg47
VLANT
p131
sbag1
(g2
g3
NtRp132
(dp133
g55
V10.1105/tpc.2.6.581
p134
sg51
VPLANT CELL
p135
sg53
V2
sg82
(lp136
(VBHAVE
VM R
tp137
asg61
I1990
sg47
VLANT
p138
sbag1
(g2
g3
NtRp139
(dp140
g55
Nsg51
VPLANT PHYSIOL BIOCH
p141
sg53
V35
p142
sg82
(lp143
(VBRANGEON
VJ
tp144
asg61
I1997
sg47
VLANT
p145
sbag1
(g2
g3
NtRp146
(dp147
g55
V10.1104/pp.63.2.312
p148
sg51
VPLANT PHYSIOL
p149
sg53
V63
p150
sg82
(lp151
(VBRYCE
VW H
tp152
asg61
I1979
sg47
VLANT
p153
sbag1
(g2
g3
NtRp154
(dp155
g55
V10.1023/A:1005752311130
p156
sg51
VPLANT MOL BIOL
p157
sg53
V33
p158
sg82
(lp159
(VBURGESS
VD
tp160
asg61
I1997
sg47
VLANT
p161
sbag1
(g2
g3
NtRp162
(dp163
g55
Nsg51
VPHYSIOL PLANTARUM
p164
sg53
V95
p165
sg82
(lp166
(VCAO
VH P
tp167
asg61
I1995
sg47
VHYSIOL
p168
sbag1
(g2
g3
NtRp169
(dp170
g55
V10.1104/pp.113.1.235
p171
sg51
VPLANT PHYSIOL
p172
sg53
V113
p173
sg82
(lp174
(VCHEN
VB Y
tp175
asg61
I1997
sg47
VLANT
p176
sbag1
(g2
g3
NtRp177
(dp178
g55
V10.1093/pcp/pce019
p179
sg51
VPLANT CELL PHYSIOL
p180
sg53
V42
p181
sg82
(lp182
(VCHOI
VS B
tp183
asg61
I2001
sg47
VLANT
p184
sbag1
(g2
g3
NtRp185
(dp186
g55
V10.1093/nar/16.22.10881
p187
sg51
VNUCLEIC ACIDS RES
p188
sg53
V16
p189
sg82
(lp190
(VCORPET
VF
tp191
asg61
I1988
sg47
V10881
p192
sbag1
(g2
g3
NtRp193
(dp194
g55
V10.1104/pp.112.2.779
p195
sg51
VPLANT PHYSIOL
p196
sg53
V112
p197
sg82
(lp198
(VDENYER
VK
tp199
asg61
I1996
sg47
VLANT
p200
sbag1
(g2
g3
NtRp201
(dp202
g55
V10.1104/pp.121.3.965
p203
sg51
VPLANT PHYSIOL
p204
sg53
V121
p205
sg82
(lp206
(VDOAN
VD N P
tp207
asg61
I1999
sg47
VLANT
p208
sbag1
(g2
g3
NtRp209
(dp210
g55
Nsg51
VTHESIS TEXAS A M U C
p211
sg53
Nsg82
(lp212
(VFUCHS
VR L
tp213
asg61
I1977
sg47
Nsbag1
(g2
g3
NtRp214
(dp215
g55
V10.1104/pp.108.3.1333
p216
sg51
VPLANT PHYSIOL
p217
sg53
V108
p218
sg82
(lp219
(VGIROUX
VM
tp220
asg61
I1995
sg47
VLANT
p221
sbag1
(g2
g3
NtRp222
(dp223
g55
V10.1073/pnas.91.25.12150
p224
sg51
VP NATL ACAD SCI USA
p225
sg53
V91
p226
sg82
(lp227
(VGIROUX
VM J
tp228
asg61
I1994
sg47
V12150
p229
sbag1
(g2
g3
NtRp230
(dp231
g55
Nsg51
VMOL GEN GENET
p232
sg53
V243
p233
sg82
(lp234
(VGIROUX
VM J
tp235
asg61
I1994
sg47
V400
p236
sbag1
(g2
g3
NtRp237
(dp238
g55
V10.1073/pnas.95.17.10322
p239
sg51
VP NATL ACAD SCI USA
p240
sg53
V95
p241
sg82
(lp242
(VGREENE
VT W
tp243
asg61
I1998
sg47
V10322
p244
sbag1
(g2
g3
NtRp245
(dp246
g55
V10.1007/BF00485834
p247
sg51
VBIOCHEM GENET
p248
sg53
V14
p249
sg82
(lp250
(VHANNAH
VL C
tp251
asg61
I1976
sg47
V547
p252
sbag1
(g2
g3
NtRp253
(dp254
g55
Nsg51
VADV CELL MOL BIOL PL
p255
sg53
V4
sg82
(lp256
(VHANNAH
VL C
tp257
asg61
I1997
sg47
V375
p258
sbag1
(g2
g3
NtRp259
(dp260
g55
V10.1104/pp.99.4.1626
p261
sg51
VPLANT PHYSIOL
p262
sg53
V99
p263
sg82
(lp264
(VHYLTON
VC
tp265
asg61
I1992
sg47
VLANT
p266
sbag1
(g2
g3
NtRp267
(dp268
g55
V10.1104/pp.91.1.217
p269
sg51
VPLANT PHYSIOL
p270
sg53
V91
p271
sg82
(lp272
(VKIM
VW T
tp273
asg61
I1989
sg47
VLANT
p274
sbag1
(g2
g3
NtRp275
(dp276
g55
Nsg51
VMOL GEN GENET
p277
sg53
V246
p278
sg82
(lp279
(VLACOGNATA
VU
tp280
asg61
I1995
sg47
V538
p281
sbag1
(g2
g3
NtRp282
(dp283
g55
V10.1104/pp.86.4.1131
p284
sg51
VPLANT PHYSIOL
p285
sg53
V86
p286
sg82
(lp287
(VLIN
VT P
tp288
asg61
I1988
sg47
VLANT
p289
sbag1
(g2
g3
NtRp290
(dp291
g55
V10.1104/pp.88.4.1175
p292
sg51
VPLANT PHYSIOL
p293
sg53
V88
p294
sg82
(lp295
(VLIN
VT P
tp296
asg61
I1988
sg47
VLANT
p297
sbag1
(g2
g3
NtRp298
(dp299
g55
V10.1073/pnas.83.23.9099
p300
sg51
VP NATL ACAD SCI USA
p301
sg53
V83
p302
sg82
(lp303
(VMCCARTY
VD R
tp304
asg61
I1986
sg47
V9099
p305
sbag1
(g2
g3
NtRp306
(dp307
g55
Nsg51
VMAIZE GEN COOP NEWSL
p308
sg53
V60
p309
sg82
(lp310
(VMCCARTY
VD R
tp311
asg61
I1986
sg47
V61
p312
sbag1
(g2
g3
NtRp313
(dp314
g55
Nsg51
VEMBO J
p315
sg53
V11
p316
sg82
(lp317
(VMULLERROBER
VB
tp318
asg61
I1992
sg47
V1229
p319
sbag1
(g2
g3
NtRp320
(dp321
g55
V10.1034/j.1399-3054.1992.840303.x
p322
sg51
VPHYSIOL PLANTARUM
p323
sg53
V84
p324
sg82
(lp325
(VNAKAMURA
VY
tp326
asg61
I1992
sg47
VHYSIOL
p327
sbag1
(g2
g3
NtRp328
(dp329
g55
V10.1104/pp.93.2.785
p330
sg51
VPLANT PHYSIOL
p331
sg53
V93
p332
sg82
(lp333
(VOKITA
VT W
tp334
asg61
I1990
sg47
VLANT
p335
sbag1
(g2
g3
NtRp336
(dp337
g55
V10.1104/pp.64.2.187
p338
sg51
VPLANT PHYSIOL
p339
sg53
V64
p340
sg82
(lp341
(VOKITA
VT W
tp342
asg61
I1979
sg47
VLANT
p343
sbag1
(g2
g3
NtRp344
(dp345
g55
V10.1007/BF00036967
p346
sg51
VPLANT MOL BIOL
p347
sg53
V12
p348
sg82
(lp349
(VOLIVE
VM R
tp350
asg61
I1989
sg47
VLANT
p351
sbag1
(g2
g3
NtRp352
(dp353
g55
V10.1016/S0079-6603(08)60255-X
p354
sg51
VPROG NUCLEIC ACID RE
p355
sg53
V47
p356
sg82
(lp357
(VPREISS
VJ
tp358
asg61
I1994
sg47
VROG
p359
sbag1
(g2
g3
NtRp360
(dp361
g55
Nsg51
VPHOTOASSIMILATE DIST
p362
sg53
Nsg82
(lp363
(VPREISS
VJ
tp364
asg61
I1996
sg47
VHOTOASSIMILATE
p365
sbag1
(g2
g3
NtRp366
(dp367
g55
V10.1104/pp.47.1.104
p368
sg51
VPLANT PHYSIOL
p369
sg53
V47
p370
sg82
(lp371
(VPREISS
VJ
tp372
asg61
I1971
sg47
VLANT
p373
sbag1
(g2
g3
NtRp374
(dp375
g55
Nsg51
VPLANT PHYSIOL
p376
sg53
V106
p377
sg82
(lp378
(VPRIOUL
VJ P
tp379
asg61
I1994
sg47
VLANT
p380
sbag1
(g2
g3
NtRp381
(dp382
g55
Nsg51
VPLANT PHYSIOL
p383
sg53
V105
p384
sg82
(lp385
(VPRIOUL
VJ P
tp386
asg61
I1994
sg47
VLANT
p387
sbag1
(g2
g3
NtRp388
(dp389
g55
V10.1104/pp.104.1.179
p390
sg51
VPLANT PHYSIOL
p391
sg53
V104
p392
sg82
(lp393
(VPRIOUL
VJ L
tp394
asg61
I1994
sg47
VLANT
p395
sbag1
(g2
g3
NtRp396
(dp397
g55
Nsg51
VMOL CLONING
p398
sg53
Nsg82
(lp399
(VSAMBROOK
VJ
tp400
asg61
I1989
sg47
Nsbag1
(g2
g3
NtRp401
(dp402
g55
Nsg51
VPLANT PHYSIOL
p403
sg53
V110
p404
sg82
(lp405
(VSHANNON
VJ C
tp406
asg61
I1996
sg47
VLANT
p407
sbag1
(g2
g3
NtRp408
(dp409
g55
V10.1104/pp.106.4.1659
p410
sg51
VPLANT PHYSIOL
p411
sg53
V106
p412
sg82
(lp413
(VSHAW
VJ R
tp414
asg61
I1994
sg47
VLANT
p415
sbag1
(g2
g3
NtRp416
(dp417
g55
Nsg51
VPLANT PHYSIOL
p418
sg53
V113
p419
sg82
(lp420
(VSINGLETARY
VG W
tp421
asg61
I1997
sg47
VLANT
p422
sbag1
(g2
g3
NtRp423
(dp424
g55
V10.1104/pp.89.4.1279
p425
sg51
VPLANT PHYSIOL
p426
sg53
V89
p427
sg82
(lp428
(VSMITH
VA M
tp429
asg61
I1989
sg47
VLANT
p430
sbag1
(g2
g3
NtRp431
(dp432
g55
V10.1007/BF00162999
p433
sg51
VJ MOL EVOL
p434
sg53
V34
p435
sg82
(lp436
(VSMITHWHITE
VB J
tp437
asg61
I1992
sg47
V449
p438
sbag1
(g2
g3
NtRp439
(dp440
g55
V10.1046/j.1365-313X.1996.10020243.x
p441
sg51
VPLANT J
p442
sg53
V10
p443
sg82
(lp444
(VTHORBJORNSEN
VT
tp445
asg61
I1996
sg47
VLANT
p446
sbag1
(g2
g3
NtRp447
(dp448
g55
Nsg51
VBIOCHEM J
p449
sg53
V313
p450
sg82
(lp451
(VTHORBJORNSEN
VT
tp452
asg61
I1996
sg47
V149
p453
sbag1
(g2
g3
NtRp454
(dp455
g55
V10.1126/science.151.3708.341
p456
sg51
VSCIENCE
p457
sg53
V151
p458
sg82
(lp459
(VTSAI
VC Y
tp460
asg61
I1966
sg47
V341
p461
sbag1
(g2
g3
NtRp462
(dp463
g55
Nsg51
VZ NATURFORSCH C
p464
sg53
V49
p465
sg82
(lp466
(VVILLAND
VP
tp467
asg61
I1994
sg47
V215
p468
sbag1
(g2
g3
NtRp469
(dp470
g55
V10.1007/BF00042361
p471
sg51
VPLANT MOL BIOL
p472
sg53
V23
p473
sg82
(lp474
(VVILLAND
VP
tp475
asg61
I1993
sg47
VLANT
p476
sbag1
(g2
g3
NtRp477
(dp478
g55
V10.1007/BF00023385
p479
sg51
VPLANT MOL BIOL
p480
sg53
V19
p481
sg82
(lp482
(VVILLAND
VP
tp483
asg61
I1992
sg47
VLANT
p484
sbag1
(g2
g3
NtRp485
(dp486
g55
Nsg51
VPLANTA
p487
sg53
V195
p488
sg82
(lp489
(VWEBER
VH
tp490
asg61
I1995
sg47
VLANTA
p491
sbasb.