ccopy_reg
_reconstructor
p1
(ctethne.classes.paper
Paper
p2
c__builtin__
object
p3
NtRp4
(dp5
S'publisherCity'
p6
VROCKVILLE
p7
sS'reprintAddress'
p8
VSaito, K (reprint author), Chiba Univ, Fac Pharmaceut Sci, Inage Ku, 1-33 Yayoi Cho, Chiba 2638522, Japan.
p9
sS'WC'
p10
VPlant Sciences
p11
sS'GA'
p12
V334YD
p13
sS'abstract'
p14
Vbeta-Cyano-alanine synthase (GAS; EC 4.4.1.9) plays an important role in cyanide metabolism in plants. Although the enzymatic activity of beta-cyano-Ala synthase has been detected in a variety of plants, no cDNA or gene has been identified so far. We hypothesized that the mitochondrial cysteine synthase (CS; EC 4.2.99.8) isoform, Bsas3, could actually be identical to CAS in spinach (Spinacia oleracea) and Arabidopsis. An Arabidopsis expressed sequence tag database was searched for putative Bsas3 homologs and four new CS-like isoforms,ARAth;Bsas1;1, ARAth;Bsas3;1, ARAth;Bsas4;1, and ARAth;Bsas4;2, were identified in the process. ARAth;Bsas3;1 protein was homologous to the mitochondrial SPIol;Bsas3;1 isoform from spinach, whereas ARAth;Bsas4;1 and ARAth;Bsas4;2 proteins defined a new class within the CS-like proteins family. In contrast to spinach SPIol;Bsas1;1 and SPIol;Bsas2;1 recombinant proteins, spinach SPIol;Bsas3;1 and Arabidopsis ARAth; Bsas3;1 recombinant proteins exhibited preferred substrate specificities for the CAS reaction rather than for the CS reaction, which identified these Bsas3 isoforms as GAS. Immunoblot studies supported this conclusion. This is the first report of the identification of CAS synthase-encoding cDNAs in a living organism. A new nomenclature for CS-like proteins in plants is also proposed.
p15
sS'pageEnd'
p16
I1171
sS'publisherAddress'
p17
V15501 MONONA DRIVE, ROCKVILLE, MD 20855 USA
p18
sS'documentType'
p19
VArticle
p20
sS'subject'
p21
VPlant Sciences
p22
sS'isoSource'
p23
VPlant Physiol.
p24
sS'timesCited'
p25
(lp26
I68
aVZ9 73
p27
asS'PT'
p28
VJ
sS'title'
p29
VBeta-Cyanoalanine Synthase Is A Mitochondrial Cysteine Synthase-Like Protein In Spinach And Arabidopsis
p30
sS'ISSN'
p31
(lp32
V0032-0889
p33
aVJ9 PLANT PHYSIOL
p34
asS'authors_full'
p35
(lp36
(VHATZFELD
VY
tp37
a(VMARUYAMA
VA
tp38
a(VSCHMIDT
VA
tp39
a(VNOJI
VM
tp40
a(VISHIZAWA
VK
tp41
a(VSAITO
VK
tp42
asS'PG'
p43
I9
sS'PD'
p44
VJUL
p45
sS'pageStart'
p46
I1163
sS'issue'
p47
I3
sS'RI'
p48
VSaito, Kazuki/D-2670-2009
p49
sS'journal'
p50
VPLANT PHYSIOLOGY
p51
sS'volume'
p52
V123
p53
sS'doi'
p54
V10.1104/pp.123.3.1163
p55
sS'authorAddress'
p56
(lp57
VChiba Univ, Fac Pharmaceut Sci, Inage Ku, Chiba 2638522, Japan.
p58
aVTohoku Univ, Inst Biol, Grad Sch Sci, Sendai, Miyagi 9808578, Japan.
p59
aVUniv Hannover, Inst Bot, D-30419 Hannover, Germany.
p60
asS'date'
p61
I2000
sS'ER'
p62
V
sS'publisher'
p63
VAMER SOC PLANT PHYSIOLOGISTS
p64
sS'authorKeywords'
p65
(lp66
VACETYLSERINE THIOL LYASE
p67
aVSERINE ACETYLTRANSFERASE
p68
aVMOLECULAR-CLONING
p69
aVHIGHER-PLANTS
p70
aVSACCHAROMYCES-CEREVISIAE
p71
aVCYANIDE METABOLISM
p72
aVCDNA CLONING
p73
aVO-ACETYLSERINE(THIOL)LYASE
p74
aVPURIFICATION
p75
aVBIOSYNTHESIS
p76
asS'language'
p77
VEnglish
p78
sS'wosid'
p79
VWOS:000088213300039
p80
sS'citationCount'
p81
I49
sS'authors_init'
p82
(lp83
(VHATZFELD
VY
tp84
a(VMARUYAMA
VA
tp85
a(VSCHMIDT
VA
tp86
a(VNOJI
VM
tp87
a(VISHIZAWA
VK
tp88
a(VSAITO
VK
tp89
asS'citedReferences'
p90
(lp91
g1
(g2
g3
NtRp92
(dp93
g54
V10.1073/pnas.72.4.1617
p94
sg50
VP NATL ACAD SCI USA
p95
sg52
V72
p96
sg82
(lp97
(VAKOPYAN
VT N
tp98
asg61
I1975
sg46
V1617
p99
sbag1
(g2
g3
NtRp100
(dp101
g54
Nsg50
VJournal of Biological Chemistry
p102
sg52
V243
p103
sg82
(lp104
(VBLUMENTHAL
VS G
tp105
asg61
I1968
sg46
V5302
p106
sbag1
(g2
g3
NtRp107
(dp108
g54
V10.1046/j.1365-313X.1997.11020251.x
p109
sg50
VPLANT J
p110
sg52
V11
p111
sg82
(lp112
(VBOGDANOVA
VN
tp113
asg61
I1997
sg46
VLANT
p114
sbag1
(g2
g3
NtRp115
(dp116
g54
V10.1006/abio.1976.9999
p117
sg50
VANAL BIOCHEM
p118
sg52
V72
p119
sg82
(lp120
(VBRADFORD
VM M
tp121
asg61
I1976
sg46
V248
p122
sbag1
(g2
g3
NtRp123
(dp124
g54
V10.1016/0003-9861(72)90193-2
p125
sg50
VARCH BIOCHEM BIOPHYS
p126
sg52
V152
p127
sg82
(lp128
(VCASTRIC
VP A
tp129
asg61
I1972
sg46
V62
p130
sbag1
(g2
g3
NtRp131
(dp132
g54
Nsg50
VJ BACTERIOL
p133
sg52
V175
p134
sg82
(lp135
(VCHEREST
VH
tp136
asg61
I1993
sg46
V5366
p137
sbag1
(g2
g3
NtRp138
(dp139
g54
V10.1046/j.1432-1327.1998.2550235.x
p140
sg50
VEUR J BIOCHEM
p141
sg52
V255
p142
sg82
(lp143
(VDROUX
VM
tp144
asg61
I1998
sg46
V235
p145
sbag1
(g2
g3
NtRp146
(dp147
g54
V10.1016/0003-9861(92)90531-Z
p148
sg50
VARCH BIOCHEM BIOPHYS
p149
sg52
V295
p150
sg82
(lp151
(VDROUX
VM
tp152
asg61
I1992
sg46
V379
p153
sbag1
(g2
g3
NtRp154
(dp155
g54
V10.1038/2081206a0
p156
sg50
VNATURE
p157
sg52
V208
p158
sg82
(lp159
(VDUNNILL
VP M
tp160
asg61
I1965
sg46
V1206
p161
sbag1
(g2
g3
NtRp162
(dp163
g54
V10.1038/2081207a0
p164
sg50
VNATURE
p165
sg52
V208
p166
sg82
(lp167
(VFLOSS
VH G
tp168
asg61
I1965
sg46
V1207
p169
sbag1
(g2
g3
NtRp170
(dp171
g54
Nsg50
VBIOCHEM J
p172
sg52
V104
p173
sg82
(lp174
(VGAITONDE
VM K
tp175
asg61
I1967
sg46
V627
p176
sbag1
(g2
g3
NtRp177
(dp178
g54
Nsg50
VPHYSIOL PLANTARUM
p179
sg52
V91
p180
sg82
(lp181
(VHASEGAWA
VR
tp182
asg61
I1994
sg46
VHYSIOL
p183
sbag1
(g2
g3
NtRp184
(dp185
g54
V10.1016/0014-5793(94)00872-8
p186
sg50
VFEBS LETT
p187
sg52
V351
p188
sg82
(lp189
(VHELL
VR
tp190
asg61
I1994
sg46
V257
p191
sbag1
(g2
g3
NtRp192
(dp193
g54
Nsg50
VJ BIOL CHEM
p194
sg52
V244
p195
sg82
(lp196
(VHENDRICKHR
S''
tp197
asg61
I1969
sg46
V2632
p198
sbag1
(g2
g3
NtRp199
(dp200
g54
V10.1007/BF01321531
p201
sg50
VAMINO ACIDS
p202
sg52
V16
p203
sg82
(lp204
(VHESSE
VH
tp205
asg61
I1999
sg46
V113
p206
sbag1
(g2
g3
NtRp207
(dp208
g54
V10.1016/S0031-9422(00)94805-2
p209
sg50
VPHYTOCHEMISTRY
p210
sg52
V35
p211
sg82
(lp212
(VIKEGAMI
VF
tp213
asg61
I1994
sg46
VHYTOCHEMISTRY
p214
sbag1
(g2
g3
NtRp215
(dp216
g54
V10.1016/0031-9422(88)80736-2
p217
sg50
VPHYTOCHEMISTRY
p218
sg52
V27
p219
sg82
(lp220
(VIKEGAMI
VF
tp221
asg61
I1988
sg46
VHYTOCHEMISTRY
p222
sbag1
(g2
g3
NtRp223
(dp224
g54
V10.1016/0031-9422(92)80101-J
p225
sg50
VPHYTOCHEMISTRY
p226
sg52
V32
p227
sg82
(lp228
(VIKEGAMI
VF
tp229
asg61
I1993
sg46
VHYTOCHEMISTRY
p230
sbag1
(g2
g3
NtRp231
(dp232
g54
Nsg50
VPHYTOCHEMISTRY
p233
sg52
V27
p234
sg82
(lp235
(VIKEGAMI
VF
tp236
asg61
I1988
sg46
VHYTOCHEMISTRY
p237
sbag1
(g2
g3
NtRp238
(dp239
g54
V10.1038/227680a0
p240
sg50
VNATURE
p241
sg52
V227
p242
sg82
(lp243
(VLAEMMLI
VU K
tp244
asg61
I1970
sg46
V680
p245
sbag1
(g2
g3
NtRp246
(dp247
g54
V10.1104/pp.94.3.1345
p248
sg50
VPLANT PHYSIOL
p249
sg52
V94
p250
sg82
(lp251
(VLUNN
VJ E
tp252
asg61
I1990
sg46
VLANT
p253
sbag1
(g2
g3
NtRp254
(dp255
g54
Nsg50
VPLANT CELL PHYSIOL
p256
sg52
V41
p257
sg82
(lp258
(VMARUYAMA
VA
tp259
asg61
I2000
sg46
VLANT
p260
sbag1
(g2
g3
NtRp261
(dp262
g54
Nsg50
VPLANT CELL PHYSIOL
p263
sg52
V39
p264
sg82
(lp265
(VMARUYAMA
VA
tp266
asg61
I1998
sg46
VLANT
p267
sbag1
(g2
g3
NtRp268
(dp269
g54
Nsg50
VJ BIOCHEM
p270
sg52
V77
p271
sg82
(lp272
(VMASADA
VM
tp273
asg61
I1975
sg46
V1107
p274
sbag1
(g2
g3
NtRp275
(dp276
g54
Nsg50
VBIOCHIM BIOPHYS ACTA
p277
sg52
V786
p278
sg82
(lp279
(VMCADAM
VA
tp280
asg61
I1984
sg46
V123
p281
sbag1
(g2
g3
NtRp282
(dp283
g54
V10.1016/0304-4165(91)90252-C
p284
sg50
VBIOCHIM BIOPHYS ACTA
p285
sg52
V1075
p286
sg82
(lp287
(VMEYERS
VD M
tp288
asg61
I1991
sg46
V195
p289
sbag1
(g2
g3
NtRp290
(dp291
g54
V10.1104/pp.65.6.1199
p292
sg50
VPLANT PHYSIOL
p293
sg52
V65
p294
sg82
(lp295
(VMILLER
VJ M
tp296
asg61
I1980
sg46
VLANT
p297
sbag1
(g2
g3
NtRp298
(dp299
g54
V10.1016/S0888-7543(05)80111-9
p300
sg50
VGENOMICS
p301
sg52
V14
p302
sg82
(lp303
(VNAKAI
VK
tp304
asg61
I1992
sg46
V897
p305
sbag1
(g2
g3
NtRp306
(dp307
g54
V10.1074/jbc.273.49.32739
p308
sg50
VJ BIOL CHEM
p309
sg52
V273
p310
sg82
(lp311
(VNOJI
VM
tp312
asg61
I1998
sg46
V32739
p313
sbag1
(g2
g3
NtRp314
(dp315
g54
V10.1073/pnas.81.10.3059
p316
sg50
VP NATL ACAD SCI
p317
sg52
V81
p318
sg82
(lp319
(VPEISER
VG D
tp320
asg61
I1984
sg46
V3059
p321
sbag1
(g2
g3
NtRp322
(dp323
g54
V10.1021/ja01038a058
p324
sg50
VJ AM CHEM SOC
p325
sg52
V91
p326
sg82
(lp327
(VRESSLER
VC
tp328
asg61
I1969
sg46
V2758
p329
sbag1
(g2
g3
NtRp330
(dp331
g54
V10.1104/pp.98.3.927
p332
sg50
VPLANT PHYSIOL
p333
sg52
V98
p334
sg82
(lp335
(VROLLAND
VN
tp336
asg61
I1992
sg46
VLANT
p337
sbag1
(g2
g3
NtRp338
(dp339
g54
V10.1006/abbi.1993.1030
p340
sg50
VARCH BIOCHEM BIOPHYS
p341
sg52
V300
p342
sg82
(lp343
(VROLLAND
VN
tp344
asg61
I1993
sg46
V213
p345
sbag1
(g2
g3
NtRp346
(dp347
g54
V10.1073/pnas.89.17.8078
p348
sg50
VP NATL ACAD SCI USA
p349
sg52
V89
p350
sg82
(lp351
(VSAITO
VK
tp352
asg61
I1992
sg46
V8078
p353
sbag1
(g2
g3
NtRp354
(dp355
g54
V10.1073/pnas.88.16.7041
p356
sg50
VP NATL ACAD SCI USA
p357
sg52
V88
p358
sg82
(lp359
(VSAITO
VK
tp360
asg61
I1991
sg46
V7041
p361
sbag1
(g2
g3
NtRp362
(dp363
g54
Nsg50
VJ BIOL CHEM
p364
sg52
V269
p365
sg82
(lp366
(VSAITO
VK
tp367
asg61
I1994
sg46
V28187
p368
sbag1
(g2
g3
NtRp369
(dp370
g54
Nsg50
VJ BIOL CHEM
p371
sg52
V270
p372
sg82
(lp373
(VSAITO
VK
tp374
asg61
I1995
sg46
V16321
p375
sbag1
(g2
g3
NtRp376
(dp377
g54
V10.1016/0014-5793(93)80127-G
p378
sg50
VFEBS LETT
p379
sg52
V324
p380
sg82
(lp381
(VSAITO
VK
tp382
asg61
I1993
sg46
V247
p383
sbag1
(g2
g3
NtRp384
(dp385
g54
Nsg50
VMOL CLONING LAB MANU
p386
sg52
Nsg82
(lp387
(VSAMBROOK
VJ
tp388
asg61
I1989
sg46
Nsbag1
(g2
g3
NtRp389
(dp390
g54
V10.1146/annurev.pp.43.060192.001545
p391
sg50
VANNU REV PLANT PHYS
p392
sg52
V43
p393
sg82
(lp394
(VSCHMIDT
VA
tp395
asg61
I1992
sg46
V325
p396
sbag1
(g2
g3
NtRp397
(dp398
g54
Nsg50
VMETHODS PLANT BIOCH
p399
sg52
V3
sg82
(lp400
(VSCHMIDT
VA
tp401
asg61
I1990
sg46
V349
p402
sbag1
(g2
g3
NtRp403
(dp404
g54
V10.1038/359357a0
p405
sg50
VNATURE
p406
sg52
V359
p407
sg82
(lp408
(VTATE
VM E
tp409
asg61
I1992
sg46
V357
p410
sbag1
(g2
g3
NtRp411
(dp412
g54
Nsg50
VMICROBIOL MOL BIOL R
p413
sg52
V61
p414
sg82
(lp415
(VTHOMAS
VD
tp416
asg61
I1997
sg46
V503
p417
sbag1
(g2
g3
NtRp418
(dp419
g54
V10.1093/nar/25.24.4876
p420
sg50
VNUCLEIC ACIDS RES
p421
sg52
V25
p422
sg82
(lp423
(VTHOMPSON
VJ D
tp424
asg61
I1997
sg46
V4876
p425
sbag1
(g2
g3
NtRp426
(dp427
g54
Nsg50
VIN PRESS J EXP BOT
p428
sg52
Nsg82
(lp429
(VWARRILOW
VA
tp430
asg61
I2000
sg46
Nsbag1
(g2
g3
NtRp431
(dp432
g54
V10.1093/jexbot/49.327.1625
p433
sg50
VJ EXP BOT
p434
sg52
V49
p435
sg82
(lp436
(VWARRILOW
VA G S
tp437
asg61
I1998
sg46
V1625
p438
sbag1
(g2
g3
NtRp439
(dp440
g54
V10.1104/pp.88.2.473
p441
sg50
VPLANT PHYSIOL
p442
sg52
V88
p443
sg82
(lp444
(VYIP
VW K
tp445
asg61
I1988
sg46
VLANT
p446
sbag1
(g2
g3
NtRp447
(dp448
g54
V10.1046/j.1365-313X.1993.04050759.x
p449
sg50
VPLANT J
p450
sg52
V4
sg82
(lp451
(VYOUSSEFIAN
VS
tp452
asg61
I1993
sg46
VLANT
p453
sbag1
(g2
g3
NtRp454
(dp455
g54
V10.1007/BF00016491
p456
sg50
VPLANT MOL BIOL
p457
sg52
V26
p458
sg82
(lp459
(VZAREMBINSKI
VT I
tp460
asg61
I1994
sg46
VLANT
p461
sbasb.