ccopy_reg
_reconstructor
p1
(ctethne.classes.paper
Paper
p2
c__builtin__
object
p3
NtRp4
(dp5
S'publisherCity'
p6
VROCKVILLE
p7
sS'reprintAddress'
p8
VRajjou, L (reprint author), Chaire Physiol Vegetale, AgroParisTech, Lab Biol Semences, INRA AgroParisTech,UMR 204, F-75231 Paris 5, France.
p9
sS'WC'
p10
VPlant Sciences
p11
sS'GA'
p12
V344SM
p13
sS'abstract'
p14
VA variety of mechanisms have been proposed to account for the extension of life span in seeds (seed longevity). In this work, we used Arabidopsis (Arabidopsis thaliana) seeds as a model and carried out differential proteomics to investigate this trait, which is of both ecological and agricultural importance. In our system based on a controlled deterioration treatment (CDT), we compared seed samples treated for different periods of time up to 7 d. Germination tests showed a progressive decrease of germination vigor depending on the duration of CDT. Proteomic analyses revealed that this loss in seed vigor can be accounted for by protein changes in the dry seeds and by an inability of the low- vigor seeds to display a normal proteome during germination. Furthermore, CDT strongly increased the extent of protein oxidation (carbonylation), which might induce a loss of functional properties of seed proteins and enzymes and/or enhance their susceptibility toward proteolysis. These results revealed essential mechanisms for seed vigor, such as translational capacity, mobilization of seed storage reserves, and detoxification efficiency. Finally, this work shows that similar molecular events accompany artificial and natural seed aging.
p15
sS'pageEnd'
p16
I641
sS'publisherAddress'
p17
V15501 MONONA DRIVE, ROCKVILLE, MD 20855 USA
p18
sS'documentType'
p19
VReview
p20
sS'subject'
p21
VPlant Sciences
p22
sS'isoSource'
p23
VPlant Physiol.
p24
sS'timesCited'
p25
(lp26
I64
aVZ9 65
p27
asS'PT'
p28
VJ
sS'title'
p29
VProteome-Wide Characterization Of Seed Aging In Arabidopsis: A Comparison Between Artificial And Natural Aging Protocols
p30
sS'ISSN'
p31
(lp32
V0032-0889
p33
aVJ9 PLANT PHYSIOL
p34
asS'authors_full'
p35
(lp36
(VRAJJOU
VLOIC
tp37
a(VLOVIGNY
VYOANN
tp38
a(VGROOT
VSTEVEN P C
tp39
a(VBELGHAZ
VMAYA
tp40
a(VJOB
VCLAUDETTE
tp41
a(VJOB
VDOMINIQUE
tp42
asS'PG'
p43
I22
sS'PD'
p44
VSEP
p45
sS'pageStart'
p46
I620
sS'issue'
p47
I1
sS'journal'
p48
VPLANT PHYSIOLOGY
p49
sS'volume'
p50
V148
p51
sS'doi'
p52
V10.1104/pp.108.123141
p53
sS'emailAddress'
p54
Vloic.rajjou@agroparistech.fr
p55
sS'authorAddress'
p56
(lp57
V[Rajjou, Loic] Chaire Physiol Vegetale, AgroParisTech, Lab Biol Semences, INRA AgroParisTech,UMR 204, F-75231 Paris 5, France.
p58
aV[Rajjou, Loic] Inst Jean Pierre, Lab Biol Semences, INRA AgroParisTech, UMR 204, F-78026 Versailles, France.
p59
aV[Lovigny, Yoann; Job, Claudette; Job, Dominique] Univ Lyon 1, Inst Natl Sci Appl Lyon, Bayer CropSci Joint Lab, CNRS,UMR 5240, F-69263 Lyon 9, France.
p60
aV[Groot, Steven P. C.] Univ Wageningen & Res Ctr, NL-6700 AA Wageningen, Netherlands.
p61
aV[Belghaz, Maya] Inst Fed Rech Jean Roche, Ctr Anal Proteom Marseille, F-13916 Marseille 20, France.
p62
asS'date'
p63
I2008
sS'ER'
p64
V
sS'publisher'
p65
VAMER SOC PLANT BIOLOGISTS
p66
sS'authorKeywords'
p67
(lp68
VEMBRYOGENESIS ABUNDANT PROTEIN
p69
aVGENE-EXPRESSION PROGRAMS
p70
aVSTORED MESSENGER-RNA
p71
aVOXIDATIVE STRESS
p72
aVABSCISIC-ACID
p73
aVCONTROLLED DETERIORATION
p74
aVMETHIONINE BIOSYNTHESIS
p75
aVBIOTINYLATED PROTEIN
p76
aVDEVELOPMENTAL-STAGES
p77
aVDISULFIDE-ISOMERASE
p78
asS'language'
p79
VEnglish
p80
sS'wosid'
p81
VWOS:000258947600053
p82
sS'citationCount'
p83
I137
sS'authors_init'
p84
(lp85
(VRAJJOU
VL
tp86
a(VLOVIGNY
VY
tp87
a(VGROOT
VS P C
tp88
a(VBELGHAZ
VM
tp89
a(VJOB
VC
tp90
a(VJOB
VD
tp91
asS'citedReferences'
p92
(lp93
g1
(g2
g3
NtRp94
(dp95
g52
Nsg48
VANN BOT
p96
sg50
V32
p97
sg84
(lp98
(VABDALLA
VF H
tp99
asg63
I1968
sg46
V119
p100
sbag1
(g2
g3
NtRp101
(dp102
g52
V10.1016/0968-0004(81)90059-1
p103
sg48
VTRENDS BIOCHEM SCI
p104
sg50
V6
sg84
(lp105
(VADAMS
VD O
tp106
asg63
I1981
sg46
V161
p107
sbag1
(g2
g3
NtRp108
(dp109
g52
V10.1016/j.jchromb.2004.11.024
p110
sg48
VJ CHROMATOGR B
p111
sg50
V815
p112
sg84
(lp113
(VAGRAWAL
VG K
tp114
asg63
I2005
sg46
V109
p115
sbag1
(g2
g3
NtRp116
(dp117
g52
V10.1016/j.jchromb.2004.11.023
p118
sg48
VJ CHROMATOGR B
p119
sg50
V815
p120
sg84
(lp121
(VAGRAWAL
VG K
tp122
asg63
I2005
sg46
V125
p123
sbag1
(g2
g3
NtRp124
(dp125
g52
V10.1016/j.jchromb.2004.11.022
p126
sg48
VJ CHROMATOGR B
p127
sg50
V815
p128
sg84
(lp129
(VAGRAWAL
VG K
tp130
asg63
I2005
sg46
V137
p131
sbag1
(g2
g3
NtRp132
(dp133
g52
V10.1146/annurev.arplant.51.1.17
p134
sg48
VANNU REV PLANT PHYS
p135
sg50
V51
p136
sg84
(lp137
(VALBAN
VC
tp138
asg63
I2000
sg46
V17
p139
sbag1
(g2
g3
NtRp140
(dp141
g52
V10.1104/pp.76.3.664
p142
sg48
VPLANT PHYSIOL
p143
sg50
V76
p144
sg84
(lp145
(VASPART
VL
tp146
asg63
I1984
sg46
VLANT
p147
sbag1
(g2
g3
NtRp148
(dp149
g52
V10.1079/SSR2004159
p150
sg48
VSEED SCI RES
p151
sg50
V14
p152
sg84
(lp153
(VBAILLY
VC
tp154
asg63
I2004
sg46
V93
p155
sbag1
(g2
g3
NtRp156
(dp157
g52
V10.1104/pp.123.1.335
p158
sg48
VPLANT PHYSIOL
p159
sg50
V123
p160
sg84
(lp161
(VBARTOLI
VC G
tp162
asg63
I2000
sg46
VLANT
p163
sbag1
(g2
g3
NtRp164
(dp165
g52
V10.1104/pp.106.090431
p166
sg48
VPLANT PHYSIOL
p167
sg50
V143
p168
sg84
(lp169
(VBAXTER
VC J
tp170
asg63
I2007
sg46
VLANT
p171
sbag1
(g2
g3
NtRp172
(dp173
g52
V10.1073/pnas.0607877103
p174
sg48
VP NATL ACAD SCI USA
p175
sg50
V103
p176
sg84
(lp177
(VBENTSINK
VL
tp178
asg63
I2006
sg46
V17042
p179
sbag1
(g2
g3
NtRp180
(dp181
g52
V10.1104/pp.124.4.1595
p182
sg48
VPLANT PHYSIOL
p183
sg50
V124
p184
sg84
(lp185
(VBENTSINK
VL
tp186
asg63
I2000
sg46
VLANT
p187
sbag1
(g2
g3
NtRp188
(dp189
g52
V10.1074/jbc.272.33.20313
p190
sg48
VJ BIOL CHEM
p191
sg50
V272
p192
sg84
(lp193
(VBERLETT
VB S
tp194
asg63
I1997
sg46
V20313
p195
sbag1
(g2
g3
NtRp196
(dp197
g52
V10.1007/s00425-005-0116-9
p198
sg48
VPLANTA
p199
sg50
V223
p200
sg84
(lp201
(VBETHKE
VP C
tp202
asg63
I2006
sg46
VLANTA
p203
sbag1
(g2
g3
NtRp204
(dp205
g52
Nsg48
VSEEDS PHYSL DEV GERM
p206
sg50
Nsg84
(lp207
(VBEWLEY
VJ D
tp208
asg63
I1994
sg46
Nsbag1
(g2
g3
NtRp209
(dp210
g52
V10.1007/s11103-008-9304-x
p211
sg48
VPLANT MOL BIOL
p212
sg50
V67
p213
sg84
(lp214
(VBIES-ETHEVE
VN
tp215
asg63
I2008
sg46
VLANT
p216
sbag1
(g2
g3
NtRp217
(dp218
g52
V10.1002/elps.1150080203
p219
sg48
VELECTROPHORESIS
p220
sg50
V8
sg84
(lp221
(VBLUM
VH
tp222
asg63
I1987
sg46
V93
p223
sbag1
(g2
g3
NtRp224
(dp225
g52
V10.1111/j.1432-1033.1985.tb08808.x
p226
sg48
VEUR J BIOCHEM
p227
sg50
V148
p228
sg84
(lp229
(VBONOMI
VF
tp230
asg63
I1985
sg46
V67
p231
sbag1
(g2
g3
NtRp232
(dp233
g52
V10.1186/1471-2229-2-5
p234
sg48
VBMC Plant Biol
p235
sg50
V2
sg84
(lp236
(VBOROVSKII
VGENADII B
tp237
asg63
I2002
sg46
V5
sbag1
(g2
g3
NtRp238
(dp239
g52
V10.1104/pp.105.074039
p240
sg48
VPLANT PHYSIOL
p241
sg50
V140
p242
sg84
(lp243
(VBOUDET
VJ
tp244
asg63
I2006
sg46
VLANT
p245
sbag1
(g2
g3
NtRp246
(dp247
g52
Nsg48
VANAL BIOCHEM
p248
sg50
V72
p249
sg84
(lp250
(VBRADFORD
VM M
tp251
asg63
I1976
sg46
V254
p252
sbag1
(g2
g3
NtRp253
(dp254
g52
V10.1016/S0031-9422(02)00549-6
p255
sg48
VPHYTOCHEMISTRY
p256
sg50
V62
p257
sg84
(lp258
(VBROWN
VP D
tp259
asg63
I2003
sg46
VHYTOCHEMISTRY
p260
sbag1
(g2
g3
NtRp261
(dp262
g52
V10.1104/pp.000687
p263
sg48
VPLANT PHYSIOL
p264
sg50
V129
p265
sg84
(lp266
(VBUSK
VP K
tp267
asg63
I2002
sg46
VLANT
p268
sbag1
(g2
g3
NtRp269
(dp270
g52
Nsg48
VJ BIOL CHEM
p271
sg50
V275
p272
sg84
(lp273
(VCABISCOL
VE
tp274
asg63
I2000
sg46
V27393
p275
sbag1
(g2
g3
NtRp276
(dp277
g52
V10.1002/pmic.200300602
p278
sg48
VPROTEOMICS
p279
sg50
V4
sg84
(lp280
(VCANOVAS
VF M
tp281
asg63
I2004
sg46
VROTEOMICS
p282
sbag1
(g2
g3
NtRp283
(dp284
g52
V10.1007/s10886-006-9205-x
p285
sg48
VJ CHEM ECOL
p286
sg50
V33
p287
sg84
(lp288
(VCIPOLLINI
VD
tp289
asg63
I2007
sg46
V85
p290
sbag1
(g2
g3
NtRp291
(dp292
g52
V10.1080/15216540701206859
p293
sg48
VIUBMB LIFE
p294
sg50
V59
p295
sg84
(lp296
(VCIPOLLONE
VR
tp297
asg63
I2007
sg46
V51
p298
sbag1
(g2
g3
NtRp299
(dp300
g52
V10.1016/S1568-1637(03)00011-4
p301
sg48
VAGEING RES REV
p302
sg50
V2
sg84
(lp303
(VCLARKE
VS
tp304
asg63
I2003
sg46
V263
p305
sbag1
(g2
g3
NtRp306
(dp307
g52
V10.1104/pp.103.036814
p308
sg48
VPLANT PHYSIOL
p309
sg50
V135
p310
sg84
(lp311
(VCLERKX
VE J M
tp312
asg63
I2004
sg46
VLANT
p313
sbag1
(g2
g3
NtRp314
(dp315
g52
V10.1111/j.1399-3054.2004.00339.x
p316
sg48
VPHYSIOL PLANTARUM
p317
sg50
V121
p318
sg84
(lp319
(VCLERKX
VE J M
tp320
asg63
I2004
sg46
VHYSIOL
p321
sbag1
(g2
g3
NtRp322
(dp323
g52
V10.1111/j.1399-3054.1996.tb00546.x
p324
sg48
VPHYSIOL PLANTARUM
p325
sg50
V97
p326
sg84
(lp327
(VCLOSE
VT J
tp328
asg63
I1996
sg46
VHYSIOL
p329
sbag1
(g2
g3
NtRp330
(dp331
g52
V10.1034/j.1399-3054.1997.1000210.x
p332
sg48
VPHYSIOL PLANTARUM
p333
sg50
V100
p334
sg84
(lp335
(VCLOSE
VT J
tp336
asg63
I1997
sg46
VHYSIOL
p337
sbag1
(g2
g3
NtRp338
(dp339
g52
Nsg48
VSEED PROTEINS
p340
sg50
Nsg84
(lp341
(VCUMING
VA C
tp342
asg63
I1999
sg46
V753
p343
sbag1
(g2
g3
NtRp344
(dp345
g52
V10.1016/j.bbapap.2004.08.007
p346
sg48
VBBA
p347
sg50
V1703
p348
sg84
(lp349
(VDAVIES
VM J
tp350
asg63
I2005
sg46
V93
p351
sbag1
(g2
g3
NtRp352
(dp353
g52
V10.1007/s00438-003-0875-6
p354
sg48
VMOL GENET GENOMICS
p355
sg50
V269
p356
sg84
(lp357
(VDE
VL O S REYES B G
tp358
asg63
I2003
sg46
V692
p359
sbag1
(g2
g3
NtRp360
(dp361
g52
V10.1104/pp.122.2.403
p362
sg48
VPLANT PHYSIOL
p363
sg50
V122
p364
sg84
(lp365
(VDEBEAUJON
VI
tp366
asg63
I2000
sg46
VLANT
p367
sbag1
(g2
g3
NtRp368
(dp369
g52
Nsg48
VSeed Science and Technology
p370
sg50
V1
sg84
(lp371
(VDELOUCHE
VJ C
tp372
asg63
I1973
sg46
V427
p373
sbag1
(g2
g3
NtRp374
(dp375
g52
V10.1111/j.1365-313X.2007.03103.x
p376
sg48
VPLANT J
p377
sg50
V50
p378
sg84
(lp379
(VDEVAIAH
VS P
tp380
asg63
I2007
sg46
VLANT
p381
sbag1
(g2
g3
NtRp382
(dp383
g52
Nsg48
VJ BACTERIOL
p384
sg50
V172
p385
sg84
(lp386
(VDONADIO
VS
tp387
asg63
I1990
sg46
V350
p388
sbag1
(g2
g3
NtRp389
(dp390
g52
V10.1046/j.1432-1327.1998.2550235.x
p391
sg48
VEUR J BIOCHEM
p392
sg50
V255
p393
sg84
(lp394
(VDROUX
VM
tp395
asg63
I1998
sg46
V235
p396
sbag1
(g2
g3
NtRp397
(dp398
g52
Nsg48
VRESPONSE PLANTS CELL
p399
sg50
Nsg84
(lp400
(VDURE
VI I I L
tp401
asg63
I1993
sg46
V91
p402
sbag1
(g2
g3
NtRp403
(dp404
g52
V10.1007/BF00039537
p405
sg48
VPLANT MOL BIOL
p406
sg50
V26
p407
sg84
(lp408
(VDUVAL
VM
tp409
asg63
I1994
sg46
VLANT
p410
sbag1
(g2
g3
NtRp411
(dp412
g52
Nsg48
VBIOCHEM J
p413
sg50
V299
p414
sg84
(lp415
(VDUVAL
VM
tp416
asg63
I1994
sg46
V141
p417
sbag1
(g2
g3
NtRp418
(dp419
g52
V10.1016/S1360-1385(00)01835-5
p420
sg48
VTRENDS PLANT SCI
p421
sg50
V6
sg84
(lp422
(VEASTMOND
VP J
tp423
asg63
I2001
sg46
V72
p424
sbag1
(g2
g3
NtRp425
(dp426
g52
V10.1021/bi00846a006
p427
sg48
VBIOCHEMISTRY
p428
sg50
V7
sg84
(lp429
(VELLIS
VW D
tp430
asg63
I1968
sg46
V2054
p431
sbag1
(g2
g3
NtRp432
(dp433
g52
V10.1080/713608059
p434
sg48
VCRIT REV PLANT SCI
p435
sg50
V13
p436
sg84
(lp437
(VFELLER
VU
tp438
asg63
I1994
sg46
V241
p439
sbag1
(g2
g3
NtRp440
(dp441
g52
V10.1007/BF00291999
p442
sg48
VMOL GEN GENET
p443
sg50
V238
p444
sg84
(lp445
(VFINKELSTEIN
VR R
tp446
asg63
I1993
sg46
V401
p447
sbag1
(g2
g3
NtRp448
(dp449
g52
Nsg48
VSeed Science Research
p450
sg50
V7
sg84
(lp451
(VFRANCA
VNETO J B
tp452
asg63
I1997
sg46
V377
p453
sbag1
(g2
g3
NtRp454
(dp455
g52
V10.1016/S0960-9822(98)70295-7
p456
sg48
VCURR BIOL
p457
sg50
V8
sg84
(lp458
(VFREEDMAN
VR B
tp459
asg63
I1998
sg46
VR468
p460
sbag1
(g2
g3
NtRp461
(dp462
g52
V10.1034/j.1399-3054.2002.1160214.x
p463
sg48
VPHYSIOL PLANTARUM
p464
sg50
V116
p465
sg84
(lp466
(VGALLARDO
VK
tp467
asg63
I2002
sg46
VHYSIOL
p468
sbag1
(g2
g3
NtRp469
(dp470
g52
V10.1104/pp.126.2.835
p471
sg48
VPLANT PHYSIOL
p472
sg50
V126
p473
sg84
(lp474
(VGALLARDO
VK
tp475
asg63
I2001
sg46
VLANT
p476
sbag1
(g2
g3
NtRp477
(dp478
g52
V10.1104/pp.002816
p479
sg48
VPLANT PHYSIOL
p480
sg50
V129
p481
sg84
(lp482
(VGALLARDO
VK
tp483
asg63
I2002
sg46
VLANT
p484
sbag1
(g2
g3
NtRp485
(dp486
g52
V10.1016/j.plaphy.2007.04.008
p487
sg48
VPLANT PHYSIOL BIOCH
p488
sg50
V45
p489
sg84
(lp490
(VGARCIA
VN A T
tp491
asg63
I2007
sg46
VLANT
p492
sbag1
(g2
g3
NtRp493
(dp494
g52
V10.1078/0176-1617-00881
p495
sg48
VJ PLANT PHYSIOL
p496
sg50
V160
p497
sg84
(lp498
(VGOEL
VA
tp499
asg63
I2003
sg46
V1093
p500
sbag1
(g2
g3
NtRp501
(dp502
g52
V10.1016/0092-8674(89)90888-X
p503
sg48
VCELL
p504
sg50
V56
p505
sg84
(lp506
(VGOLDBERG
VR B
tp507
asg63
I1989
sg46
V149
p508
sbag1
(g2
g3
NtRp509
(dp510
g52
V10.1002/elps.1150080207
p511
sg48
VELECTROPHORESIS
p512
sg50
V8
sg84
(lp513
(VGORG
VA
tp514
asg63
I1987
sg46
V122
p515
sbag1
(g2
g3
NtRp516
(dp517
g52
V10.1146/annurev.arplant.59.032607.092938
p518
sg48
VANNU REV PLANT BIOL
p519
sg50
V59
p520
sg84
(lp521
(VGRAHAM
VI A
tp522
asg63
I2008
sg46
V115
p523
sbag1
(g2
g3
NtRp524
(dp525
g52
Nsg48
VSEED TECHNOLOGY ITS
p526
sg50
Nsg84
(lp527
(VHALMER
VP
tp528
asg63
I2000
sg46
V257
p529
sbag1
(g2
g3
NtRp530
(dp531
g52
V10.1002/(SICI)1522-2683(19990101)20:4/5<826::AID-ELPS826>3.0.CO;2-A
p532
sg48
VELECTROPHORESIS
p533
sg50
V20
p534
sg84
(lp535
(VHARDER
VA
tp536
asg63
I1999
sg46
V826
p537
sbag1
(g2
g3
NtRp538
(dp539
g52
Nsg48
VJ GERONTOL
p540
sg50
V11
p541
sg84
(lp542
(VHARMAN
VD
tp543
asg63
I1956
sg46
V298
p544
sbag1
(g2
g3
NtRp545
(dp546
g52
V10.1038/246042a0
p547
sg48
VNATURE
p548
sg50
V246
p549
sg84
(lp550
(VHEYDECKEW
S''
tp551
asg63
I1973
sg46
V42
p552
sbag1
(g2
g3
NtRp553
(dp554
g52
V10.1007/s007260170045
p555
sg48
VAMINO ACIDS
p556
sg50
V20
p557
sg84
(lp558
(VHOFGEN
VR
tp559
asg63
I2001
sg46
V291
p560
sbag1
(g2
g3
NtRp561
(dp562
g52
V10.1016/j.tplants.2007.11.002
p563
sg48
VTRENDS PLANT SCI
p564
sg50
V13
p565
sg84
(lp566
(VHOLDSWORTH
VM J
tp567
asg63
I2008
sg46
V7
sbag1
(g2
g3
NtRp568
(dp569
g52
V10.1023/A:1006079926339
p570
sg48
VPLANT MOL BIOL
p571
sg50
V38
p572
sg84
(lp573
(VHSING
VY I C
tp574
asg63
I1998
sg46
VLANT
p575
sbag1
(g2
g3
NtRp576
(dp577
g52
V10.1046/j.1432-1033.2002.02838.x
p578
sg48
VEUR J BIOCHEM
p579
sg50
V269
p580
sg84
(lp581
(VINGROSSO
VD
tp582
asg63
I2002
sg46
V2032
p583
sbag1
(g2
g3
NtRp584
(dp585
g52
V10.1104/pp.120.1.237
p586
sg48
VPLANT PHYSIOL
p587
sg50
V120
p588
sg84
(lp589
(VISMAIL
VA M
tp590
asg63
I1999
sg46
VLANT
p591
sbag1
(g2
g3
NtRp592
(dp593
g52
V10.1104/pp.105.062778
p594
sg48
VPLANT PHYSIOL
p595
sg50
V138
p596
sg84
(lp597
(VJOB
VC
tp598
asg63
I2005
sg46
VLANT
p599
sbag1
(g2
g3
NtRp600
(dp601
g52
Nsg48
VSEED SCI RES
p602
sg50
V11
p603
sg84
(lp604
(VJOB
VC
tp605
asg63
I2001
sg46
V149
p606
sbag1
(g2
g3
NtRp607
(dp608
g52
V10.1016/0003-9861(75)90138-1
p609
sg48
VARCH BIOCHEM BIOPHYS
p610
sg50
V170
p611
sg84
(lp612
(VJOB
VD
tp613
asg63
I1975
sg46
V427
p614
sbag1
(g2
g3
NtRp615
(dp616
g52
V10.1074/jbc.M402652200
p617
sg48
VJ BIOL CHEM
p618
sg50
V279
p619
sg84
(lp620
(VJOHANSSON
VE
tp621
asg63
I2004
sg46
V22204
p622
sbag1
(g2
g3
NtRp623
(dp624
g52
V10.1002/pmic.200700135
p625
sg48
VPROTEOMICS
p626
sg50
V7
sg84
(lp627
(VJORRIN
VJ V
tp628
asg63
I2007
sg46
VROTEOMICS
p629
sbag1
(g2
g3
NtRp630
(dp631
g52
V10.1111/j.1399-3054.2006.00771.x
p632
sg48
VPHYSIOL PLANTARUM
p633
sg50
V128
p634
sg84
(lp635
(VKIBINZA
VS
tp636
asg63
I2006
sg46
VHYSIOL
p637
sbag1
(g2
g3
NtRp638
(dp639
g52
V10.1002/1522-2683(200210)23:19<3428::AID-ELPS3428>3.0.CO;2-5
p640
sg48
VELECTROPHORESIS
p641
sg50
V23
p642
sg84
(lp643
(VKOROLAINEN
VM A
tp644
asg63
I2002
sg46
V3428
p645
sbag1
(g2
g3
NtRp646
(dp647
g52
Nsg48
VBIOL CHEM
p648
sg50
V378
p649
sg84
(lp650
(VLABOISSIERE
VM C A
tp651
asg63
I1997
sg46
V431
p652
sbag1
(g2
g3
NtRp653
(dp654
g52
Nsg48
VFASEB J
p655
sg50
V5
sg84
(lp656
(VLANE
VB G
tp657
asg63
I1991
sg46
V2893
p658
sbag1
(g2
g3
NtRp659
(dp660
g52
V10.1007/BF00027165
p661
sg48
VPLANT MOL BIOL
p662
sg50
V20
p663
sg84
(lp664
(VLANG
VV
tp665
asg63
I1992
sg46
VLANT
p666
sbag1
(g2
g3
NtRp667
(dp668
g52
V10.1006/anbo.1996.0074
p669
sg48
VANN BOT
p670
sg50
V77
p671
sg84
(lp672
(VLANTERI
VS
tp673
asg63
I1996
sg46
V591
p674
sbag1
(g2
g3
NtRp675
(dp676
g52
V10.1016/S0531-5565(01)00135-8
p677
sg48
VEXP GERONTOL
p678
sg50
V36
p679
sg84
(lp680
(VLEVINE
VR L
tp681
asg63
I2001
sg46
V1495
p682
sbag1
(g2
g3
NtRp683
(dp684
g52
Nsg48
VMETHOD ENZYMOL
p685
sg50
V186
p686
sg84
(lp687
(VLEVINE
VR L
tp688
asg63
I1990
sg46
V464
p689
sbag1
(g2
g3
NtRp690
(dp691
g52
V10.1104/pp.108.117408
p692
sg48
VPLANT PHYSIOL
p693
sg50
V147
p694
sg84
(lp695
(VLOPEZ-MARTIN
VM C
tp696
asg63
I2008
sg46
VLANT
p697
sbag1
(g2
g3
NtRp698
(dp699
g52
V10.1046/j.1365-313X.2002.01430.x
p700
sg48
VPLANT J
p701
sg50
V32
p702
sg84
(lp703
(VLOPEZ-MOLINA
VL
tp704
asg63
I2002
sg46
VLANT
p705
sbag1
(g2
g3
NtRp706
(dp707
g52
V10.1104/pp.105.070391
p708
sg48
VPLANT PHYSIOL
p709
sg50
V139
p710
sg84
(lp711
(VMANO
VJ
tp712
asg63
I2005
sg46
VLANT
p713
sbag1
(g2
g3
NtRp714
(dp715
g52
V10.1002/pmic.200700456
p716
sg48
VPROTEOMICS
p717
sg50
V7
sg84
(lp718
(VMARCH
VT J
tp719
asg63
I2007
sg46
VROTEOMICS
p720
sbag1
(g2
g3
NtRp721
(dp722
g52
Nsg48
VSEED SCI TECHNOL
p723
sg50
V27
p724
sg84
(lp725
(VMCDONALD
VM B
tp726
asg63
I1999
sg46
V177
p727
sbag1
(g2
g3
NtRp728
(dp729
g52
V10.1007/s00122-002-0872-x
p730
sg48
VTHEOR APPL GENET
p731
sg50
V104
p732
sg84
(lp733
(VMIURA
VK
tp734
asg63
I2002
sg46
V981
p735
sbag1
(g2
g3
NtRp736
(dp737
g52
V10.1146/annurev.arplant.58.032806.103946
p738
sg48
VANNU REV PLANT BIOL
p739
sg50
V58
p740
sg84
(lp741
(VMOLLER
VI M
tp742
asg63
I2007
sg46
V459
p743
sbag1
(g2
g3
NtRp744
(dp745
g52
V10.1074/jbc.M505643200
p746
sg48
VJ BIOL CHEM
p747
sg50
V280
p748
sg84
(lp749
(VNAGAHARA
VN
tp750
asg63
I2005
sg46
V34569
p751
sbag1
(g2
g3
NtRp752
(dp753
g52
V10.1111/j.1365-313X.2005.02337.x
p754
sg48
VPLANT J
p755
sg50
V41
p756
sg84
(lp757
(VNAKABAYASHI
VK
tp758
asg63
I2005
sg46
VLANT
p759
sbag1
(g2
g3
NtRp760
(dp761
g52
V10.1016/S0003-9861(03)00156-5
p762
sg48
VARCH BIOCHEM BIOPHYS
p763
sg50
V414
p764
sg84
(lp765
(VNIKOLAU
VB J
tp766
asg63
I2003
sg46
V211
p767
sbag1
(g2
g3
NtRp768
(dp769
g52
V10.1038/sj.emboj.7600599
p770
sg48
VEMBO J
p771
sg50
V24
p772
sg84
(lp773
(VNYSTROM
VT
tp774
asg63
I2005
sg46
V1311
p775
sbag1
(g2
g3
NtRp776
(dp777
g52
V10.1105/tpc.011650
p778
sg48
VPLANT CELL
p779
sg50
V15
p780
sg84
(lp781
(VOGAWA
VM
tp782
asg63
I2003
sg46
VLANT
p783
sbag1
(g2
g3
NtRp784
(dp785
g52
V[10.1093/jxb/ern089, 10.1093/jxb/em089]
p786
sg48
VJ EXP BOT
p787
sg50
V59
p788
sg84
(lp789
(VORACZ
VK
tp790
asg63
I2008
sg46
V2241
p791
sbag1
(g2
g3
NtRp792
(dp793
g52
Nsg48
VIsrael Journal of Botany
p794
sg50
V29
p795
sg84
(lp796
(VOSBORNE
VD J
tp797
asg63
I1980
sg46
V259
p798
sbag1
(g2
g3
NtRp799
(dp800
g52
V10.1111/j.1432-1033.1984.tb08295.x
p801
sg48
VEUR J BIOCHEM
p802
sg50
V142
p803
sg84
(lp804
(VPAGANI
VS
tp805
asg63
I1984
sg46
V361
p806
sbag1
(g2
g3
NtRp807
(dp808
g52
V10.1104/pp.108.116897
p809
sg48
VPLANT PHYSIOL
p810
sg50
V147
p811
sg84
(lp812
(VPAPDI
VC
tp813
asg63
I2008
sg46
VLANT
p814
sbag1
(g2
g3
NtRp815
(dp816
g52
V10.1046/j.1432-1327.2000.00980.x
p817
sg48
VEUR J BIOCHEM
p818
sg50
V267
p819
sg84
(lp820
(VPAPENBROCK
VJ
tp821
asg63
I2000
sg46
V145
p822
sbag1
(g2
g3
NtRp823
(dp824
g52
V10.1046/j.1432-1327.2000.01623.x
p825
sg48
VEUR J BIOCHEM
p826
sg50
V267
p827
sg84
(lp828
(VPAPENBROCK
VJ
tp829
asg63
I2000
sg46
V5571
p830
sbag1
(g2
g3
NtRp831
(dp832
g52
Nsg48
VPLANT CELL
p833
sg50
V6
sg84
(lp834
(VPARCY
VF
tp835
asg63
I1994
sg46
VLANT
p836
sbag1
(g2
g3
NtRp837
(dp838
g52
Nsg48
VJ BIOCHEM MOL BIOL
p839
sg50
V37
p840
sg84
(lp841
(VPARK
VO K
tp842
asg63
I2004
sg46
V133
p843
sbag1
(g2
g3
NtRp844
(dp845
g52
V10.1104/pp.116.3.935
p846
sg48
VPLANT PHYSIOL
p847
sg50
V116
p848
sg84
(lp849
(VPATTON
VD A
tp850
asg63
I1998
sg46
VLANT
p851
sbag1
(g2
g3
NtRp852
(dp853
g52
V10.1073/pnas.81.10.3059
p854
sg48
VP NATL ACAD SCI
p855
sg50
V81
p856
sg84
(lp857
(VPEISER
VG D
tp858
asg63
I1984
sg46
V3059
p859
sbag1
(g2
g3
NtRp860
(dp861
g52
V10.1034/j.1399-3054.1997.1000207.x
p862
sg48
VPHYSIOL PLANTARUM
p863
sg50
V100
p864
sg84
(lp865
(VPELL
VE J
tp866
asg63
I1997
sg46
VHYSIOL
p867
sbag1
(g2
g3
NtRp868
(dp869
g52
V10.1016/0006-291X(77)91182-2
p870
sg48
VBIOCHEM BIOPH RES CO
p871
sg50
V79
p872
sg84
(lp873
(VPILLAY
VD T N
tp874
asg63
I1977
sg46
V796
p875
sbag1
(g2
g3
NtRp876
(dp877
g52
V10.1104/pp.94.2.401
p878
sg48
VPLANT PHYSIOL
p879
sg50
V94
p880
sg84
(lp881
(VPOULTON
VJ E
tp882
asg63
I1990
sg46
VLANT
p883
sbag1
(g2
g3
NtRp884
(dp885
g52
Nsg48
VSEED VIGOUR TESTING
p886
sg50
Nsg84
(lp887
(VPOWELL
VA A
tp888
asg63
I1995
sg46
V73
p889
sbag1
(g2
g3
NtRp890
(dp891
g52
V10.1104/pp.106.087817
p892
sg48
VPLANT PHYSIOL
p893
sg50
V142
p894
sg84
(lp895
(VPRIETO-DAPENA
VP
tp896
asg63
I2006
sg46
VLANT
p897
sbag1
(g2
g3
NtRp898
(dp899
g52
Nsg48
VANN PLANT REV
p900
sg50
V28
p901
sg84
(lp902
(VRAJJOU
VL
tp903
asg63
I2006
sg46
V151
p904
sbag1
(g2
g3
NtRp905
(dp906
g52
V10.1079/9781845931971.0324
p907
sg48
VSEEDS
p908
sg50
Nsg84
(lp909
(VRAJJOU
VL
tp910
asg63
I2007
sg46
V324
p911
sbag1
(g2
g3
NtRp912
(dp913
g52
V10.1104/pp.103.036293
p914
sg48
VPLANT PHYSIOL
p915
sg50
V134
p916
sg84
(lp917
(VRAJJOU
VL
tp918
asg63
I2004
sg46
VLANT
p919
sbag1
(g2
g3
NtRp920
(dp921
g52
V10.1104/pp.106.082057
p922
sg48
VPLANT PHYSIOL
p923
sg50
V141
p924
sg84
(lp925
(VRAJJOU
VL
tp926
asg63
I2006
sg46
VLANT
p927
sbag1
(g2
g3
NtRp928
(dp929
g52
V10.1079/9781845931971.0149
p930
sg48
VSEEDS
p931
sg50
Nsg84
(lp932
(VRAJJOU
VL
tp933
asg63
I2007
sg46
V149
p934
sbag1
(g2
g3
NtRp935
(dp936
g52
V10.1073/pnas.95.13.7805
p937
sg48
VP NATL ACAD SCI USA
p938
sg50
V95
p939
sg84
(lp940
(VRAVANEL
VS
tp941
asg63
I1998
sg46
V7805
p942
sbag1
(g2
g3
NtRp943
(dp944
g52
V10.1002/pmic.200600260
p945
sg48
VPROTEOMICS
p946
sg50
V6
sg84
(lp947
(VROSSIGNOL
VM
tp948
asg63
I2006
sg46
VROTEOMICS
p949
sbag1
(g2
g3
NtRp950
(dp951
g52
V10.1105/tpc.021360
p952
sg48
VPLANT CELL
p953
sg50
V16
p954
sg84
(lp955
(VSATTLER
VS E
tp956
asg63
I2004
sg46
VLANT
p957
sbag1
(g2
g3
NtRp958
(dp959
g52
Nsg48
VSEED SCI RES
p960
sg50
V7
sg84
(lp961
(VSHATTERS
VR G
tp962
asg63
I1997
sg46
V373
p963
sbag1
(g2
g3
NtRp964
(dp965
g52
V10.1079/SSR2002112
p966
sg48
VSEED SCI RES
p967
sg50
V12
p968
sg84
(lp969
(VSHEN-MILLER
VJ
tp970
asg63
I2002
sg46
V131
p971
sbag1
(g2
g3
NtRp972
(dp973
g52
V10.2307/2445863
p974
sg48
VAM J BOT
p975
sg50
V82
p976
sg84
(lp977
(VSHENMILLER
VJ
tp978
asg63
I1995
sg46
V1367
p979
sbag1
(g2
g3
NtRp980
(dp981
g52
Nsg48
VPLANT CELL
p982
sg50
V2
sg84
(lp983
(VSKRIVER
VK
tp984
asg63
I1990
sg46
VLANT
p985
sbag1
(g2
g3
NtRp986
(dp987
g52
V10.1104/pp.104.051664
p988
sg48
VPLANT PHYSIOL
p989
sg50
V137
p990
sg84
(lp991
(VSOEDA
VY
tp992
asg63
I2005
sg46
VLANT
p993
sbag1
(g2
g3
NtRp994
(dp995
g52
V10.1038/nrg927
p996
sg48
VNAT REV GENET
p997
sg50
V3
sg84
(lp998
(VSOMERVILLE
VC
tp999
asg63
I2002
sg46
V883
p1000
sbag1
(g2
g3
NtRp1001
(dp1002
g52
V10.1007/s12038-007-0050-z
p1003
sg48
VJ BIOSCIENCES
p1004
sg50
V32
p1005
sg84
(lp1006
(VSOTI
VC
tp1007
asg63
I2007
sg46
V511
p1008
sbag1
(g2
g3
NtRp1009
(dp1010
g52
Nsg48
VANN NY ACAD SCI
p1011
sg50
V928
p1012
sg84
(lp1013
(VSTADTMAN
VE R
tp1014
asg63
I2001
sg46
V22
p1015
sbag1
(g2
g3
NtRp1016
(dp1017
g52
Nsg48
VCURR MED CHEM
p1018
sg50
V11
p1019
sg84
(lp1020
(VSTADTMAN
VE R
tp1021
asg63
I2004
sg46
V1105
p1022
sbag1
(g2
g3
NtRp1023
(dp1024
g52
V10.1074/jbc.273.5.3027
p1025
sg48
VJ BIOL CHEM
p1026
sg50
V273
p1027
sg84
(lp1028
(VTAMARIT
VJ
tp1029
asg63
I1998
sg46
V3027
p1030
sbag1
(g2
g3
NtRp1031
(dp1032
g52
V10.1104/pp.52.1.23
p1033
sg48
VPLANT PHYSIOL
p1034
sg50
V52
p1035
sg84
(lp1036
(VTAYLORSORB
S''
tp1037
asg63
I1973
sg46
VLANT
p1038
sbag1
(g2
g3
NtRp1039
(dp1040
g52
Nsg48
VSEED VIGOUR TESTING
p1041
sg50
Nsg84
(lp1042
(VTEKRONY
VD M
tp1043
asg63
I1995
sg46
V53
p1044
sbag1
(g2
g3
NtRp1045
(dp1046
g52
V10.1093/jxb/erm357
p1047
sg48
VJ EXP BOT
p1048
sg50
V59
p1049
sg84
(lp1050
(VTERSKIKH
VV V
tp1051
asg63
I2008
sg46
V765
p1052
sbag1
(g2
g3
NtRp1053
(dp1054
g52
Nsg48
VSEED SCI TECHNOL
p1055
sg50
V30
p1056
sg84
(lp1057
(VTESNIER
VK
tp1058
asg63
I2002
sg46
V149
p1059
sbag1
(g2
g3
NtRp1060
(dp1061
g52
Nsg48
VNATURE
p1062
sg50
V408
p1063
sg84
(lp1064
(VKAUL
VS
tp1065
asg63
I2000
sg46
V796
p1066
sbag1
(g2
g3
NtRp1067
(dp1068
g52
V10.1016/j.cryobiol.2004.01.007
p1069
sg48
VCRYOBIOLOGY
p1070
sg50
V48
p1071
sg84
(lp1072
(VWALTERS
VC
tp1073
asg63
I2004
sg46
V229
p1074
sbag1
(g2
g3
NtRp1075
(dp1076
g52
V10.1079/SSR2004195
p1077
sg48
VSEED SCI RES
p1078
sg50
V15
p1079
sg84
(lp1080
(VWALTERS
VC
tp1081
asg63
I2005
sg46
V1
sbag1
(g2
g3
NtRp1082
(dp1083
g52
Nsg48
VBIOPHYS J
p1084
sg50
V86
p1085
sg84
(lp1086
(VWALTERS
VC
tp1087
asg63
I2004
sg46
V1253
p1088
sbag1
(g2
g3
NtRp1089
(dp1090
g52
V10.1006/abio.1994.1538
p1091
sg48
VANAL BIOCHEM
p1092
sg50
V223
p1093
sg84
(lp1094
(VWAN
VC Y
tp1095
asg63
I1994
sg46
V7
sbag1
(g2
g3
NtRp1096
(dp1097
g52
V10.1093/jxb/45.7.1027
p1098
sg48
VJ EXP BOT
p1099
sg50
V45
p1100
sg84
(lp1101
(VWECHSBERG
VG E
tp1102
asg63
I1994
sg46
V1027
p1103
sbag1
(g2
g3
NtRp1104
(dp1105
g52
V10.1016/j.bbapap.2004.02.017
p1106
sg48
VBBA
p1107
sg50
V1699
p1108
sg84
(lp1109
(VWILKINSON
VB
tp1110
asg63
I2004
sg46
V35
p1111
sbag1
(g2
g3
NtRp1112
(dp1113
g52
V10.1104/pp.104.046094
p1114
sg48
VPLANT PHYSIOL
p1115
sg50
V136
p1116
sg84
(lp1117
(VXU
VQ L
tp1118
asg63
I2004
sg46
VLANT
p1119
sbag1
(g2
g3
NtRp1120
(dp1121
g52
V10.1111/j.1742-4658.2004.05639.x
p1122
sg48
VFEBS J
p1123
sg50
V274
p1124
sg84
(lp1125
(VYOSHIDA
VH
tp1126
asg63
I2007
sg46
V630
p1127
sbasb.