ccopy_reg
_reconstructor
p1
(ctethne.classes.paper
Paper
p2
c__builtin__
object
p3
NtRp4
(dp5
S'publisherCity'
p6
VROCKVILLE
p7
sS'reprintAddress'
p8
VWeiller, G (reprint author), Australian Natl Univ, Res Sch Biol Sci, Genom Interact Grp,Australian Res Council Ctr Exc, Integrat Legume Res & Bioinformat Lab, Canberra, ACT 2601, Australia.
p9
sS'WC'
p10
VPlant Sciences
p11
sS'GA'
p12
V258TP
p13
sS'abstract'
p14
VMicroarrays measure the expression of large numbers of genes simultaneously and can be used to delve into interaction networks involving many genes at a time. However, it is often difficult to decide to what extent knowledge about the expression of genes gleaned in one model organism can be transferred to other species. This can be examined either by measuring the expression of genes of interest under comparable experimental conditions in other species, or by gathering the necessary data from comparable microarray experiments. However, it is essential to know which genes to compare between the organisms. To facilitate comparison of expression data across different species, we have implemented a Web-based software tool that provides information about sequence orthologs across a range of Affymetrix microarray chips. AffyTrees provides a quick and easy way of assigning which probe sets on different Affymetrix chips measure the expression of orthologous genes. Even in cases where gene or genome duplications have complicated the assignment, groups of comparable probe sets can be identified. The phylogenetic trees provide a resource that can be used to improve sequence annotation and detect biases in the sequence complement of Affymetrix chips. Being able to identify sequence orthologs and recognize biases in the sequence complement of chips is necessary for reliable cross-species microarray comparison. As the amount of work required to generate a single phylogeny in a nonautomated manner is considerable, AffyTrees can greatly reduce the workload for scientists interested in large-scale cross-species comparisons.
p15
sS'pageEnd'
p16
I386
sS'publisherAddress'
p17
V15501 MONONA DRIVE, ROCKVILLE, MD 20855 USA
p18
sS'documentType'
p19
VArticle
p20
sS'subject'
p21
VPlant Sciences
p22
sS'isoSource'
p23
VPlant Physiol.
p24
sS'timesCited'
p25
(lp26
I8
aVZ9 9
p27
asS'PT'
p28
VJ
sS'title'
p29
VAffytrees: Facilitating Comparative Analysis Of Affymetrix Plant Microarray Chips
p30
sS'ISSN'
p31
(lp32
V0032-0889
p33
aVJ9 PLANT PHYSIOL
p34
asS'authors_full'
p35
(lp36
(VFRICKEY
VTANCRED
tp37
a(VBENEDITO
VVAGNER AUGUSTO
tp38
a(VUDVARDI
VMICHAEL
tp39
a(VWEILLER
VGEORG
tp40
asS'PG'
p41
I10
sS'PD'
p42
VFEB
p43
sS'pageStart'
p44
I377
sS'issue'
p45
I2
sS'journal'
p46
VPLANT PHYSIOLOGY
p47
sS'volume'
p48
V146
p49
sS'doi'
p50
V10.1104/pp.107.109603
p51
sS'emailAddress'
p52
Vgeorg.weiller@anu.edu.au
p53
sS'authorAddress'
p54
(lp55
V[Frickey, Tancred; Weiller, Georg] Australian Natl Univ, Res Sch Biol Sci, Genom Interact Grp,Australian Res Council Ctr Exc, Integrat Legume Res & Bioinformat Lab, Canberra, ACT 2601, Australia.
p56
aV[Benedito, Vagner Augusto; Udvardi, Michael] Samuel Roberts Noble Fdn Inc, Ardmore, OK 73401 USA.
p57
asS'date'
p58
I2008
sS'ER'
p59
V
sS'publisher'
p60
VAMER SOC PLANT BIOLOGISTS
p61
sS'authorKeywords'
p62
(lp63
VGENE-EXPRESSION
p64
aVDATABASE
p65
aVIDENTIFICATION
p66
aVARABIDOPSIS
p67
aVORTHOLOGS
p68
aVNEIGHBOR
p69
asS'language'
p70
VEnglish
p71
sS'wosid'
p72
VWOS:000252892700005
p73
sS'citationCount'
p74
I17
sS'authors_init'
p75
(lp76
(VFRICKEY
VT
tp77
a(VBENEDITO
VV A
tp78
a(VUDVARDI
VM
tp79
a(VWEILLER
VG
tp80
asS'citedReferences'
p81
(lp82
g1
(g2
g3
NtRp83
(dp84
g50
V10.1093/bioinformatics/btl213
p85
sg46
VBIOINFORMATICS
p86
sg48
V22
p87
sg75
(lp88
(VALEXEYENKO
VA
tp89
asg58
I2006
sg44
VE9
p90
sbag1
(g2
g3
NtRp91
(dp92
g50
Nsg46
VNUCLEIC ACIDS RES
p93
sg48
V25
p94
sg75
(lp95
(VALTSCHUL
VS F
tp96
asg58
I1997
sg44
V3402
p97
sbag1
(g2
g3
NtRp98
(dp99
g50
V10.1093/bioinformatics/btk040
p100
sg46
VBIOINFORMATICS
p101
sg48
V22
p102
sg75
(lp103
(VCHIU
VJ C
tp104
asg58
I2006
sg44
V699
p105
sbag1
(g2
g3
NtRp106
(dp107
g50
V10.1093/nar/30.1.207
p108
sg46
VNUCLEIC ACIDS RES
p109
sg48
V30
p110
sg75
(lp111
(VEDGAR
VR
tp112
asg58
I2002
sg44
V207
p113
sbag1
(g2
g3
NtRp114
(dp115
g50
V10.1093/nar/gkh867
p116
sg46
VNUCLEIC ACIDS RES
p117
sg48
V32
p118
sg75
(lp119
(VFRICKEY
VT
tp120
asg58
I2004
sg44
V5231
p121
sbag1
(g2
g3
NtRp122
(dp123
g50
V10.1104/pp.104.059048
p124
sg46
VPLANT PHYSIOL
p125
sg48
V138
p126
sg75
(lp127
(VHORAN
VK
tp128
asg58
I2005
sg44
VLANT
p129
sbag1
(g2
g3
NtRp130
(dp131
g50
V10.1093/bioinformatics/18.12.1585
p132
sg46
VBIOINFORMATICS
p133
sg48
V18
p134
sg75
(lp135
(VHUBBELL
VE
tp136
asg58
I2002
sg44
V1585
p137
sbag1
(g2
g3
NtRp138
(dp139
g50
V10.1104/pp.106.087676
p140
sg46
VPLANT PHYSIOL
p141
sg48
V142
p142
sg75
(lp143
(VJOHNSON
VX
tp144
asg58
I2006
sg44
VLANT
p145
sbag1
(g2
g3
NtRp146
(dp147
g50
Nsg46
VJ MOL EVOL
p148
sg48
V52
p149
sg75
(lp150
(VKOSKI
VL B
tp151
asg58
I2001
sg44
V540
p152
sbag1
(g2
g3
NtRp153
(dp154
g50
V10.1101/gr.1224503
p155
sg46
VGENOME RES
p156
sg48
V13
p157
sg75
(lp158
(VLI
VL
tp159
asg58
I2003
sg44
V2178
p160
sbag1
(g2
g3
NtRp161
(dp162
g50
Nsg46
VBIOINFORMATICS
p163
sg48
V23
p164
sg75
(lp165
(VLIM
VW K
tp166
asg58
I2007
sg44
V282
p167
sbag1
(g2
g3
NtRp168
(dp169
g50
V10.1186/1471-2105-4-41
p170
sg46
VBMC BIOINFORMATICS
p171
sg48
V4
sg75
(lp172
(VTATUSOV
VR L
tp173
asg58
I2003
sg44
Nsbag1
(g2
g3
NtRp174
(dp175
g50
V10.1093/nar/gki107
p176
sg46
VNUCLEIC ACIDS RES
p177
sg48
V33
p178
sg75
(lp179
(VO'BRIEN
VK P
tp180
asg58
I2005
sg44
VD476
p181
sbag1
(g2
g3
NtRp182
(dp183
g50
Nsg46
VMOL BIOL EVOL
p184
sg48
V4
sg75
(lp185
(VSAITOU
VN
tp186
asg58
I1987
sg44
V406
p187
sbag1
(g2
g3
NtRp188
(dp189
g50
V10.1038/ng1543
p190
sg46
VNAT GENET
p191
sg48
V37
p192
sg75
(lp193
(VSCHMID
VM
tp194
asg58
I2005
sg44
V501
p195
sbag1
(g2
g3
NtRp196
(dp197
g50
V10.1126/science.278.5338.631
p198
sg46
VSCIENCE
p199
sg48
V278
p200
sg75
(lp201
(VTATUSOV
VR L
tp202
asg58
I1997
sg44
V631
p203
sbag1
(g2
g3
NtRp204
(dp205
g50
Nsg46
VMODEL BASED BACKGROU
p206
sg48
Nsg75
(lp207
(VWU
VZ
tp208
asg58
I2004
sg44
Nsbasb.