ccopy_reg
_reconstructor
p1
(ctethne.classes.paper
Paper
p2
c__builtin__
object
p3
NtRp4
(dp5
S'publisherCity'
p6
VROCKVILLE
p7
sS'reprintAddress'
p8
VZuo, JR (reprint author), Chinese Acad Sci, Inst Genet & Dev Biol, State Key Lab Plant Genom, Beijing 100101, Peoples R China.
p9
sS'WC'
p10
VPlant Sciences
p11
sS'GA'
p12
V138YM
p13
sS'FX'
p14
(lp15
VThis work was supported by the National Natural Science Foundation of
p16
aVChina (grant nos. 31225003 and 30330360) and the Ministry of Agriculture
p17
aVof China (grant nos. 2009ZX08009-115B and 2011ZX08010-002-003).
p18
asS'abstract'
p19
VParaquat is one of the most widely used herbicides worldwide. In green plants, paraquat targets the chloroplast by transferring electrons from photosystem I to molecular oxygen to generate toxic reactive oxygen species, which efficiently induce membrane damage and cell death. A number of paraquat-resistant biotypes of weeds and Arabidopsis (Arabidopsis thaliana) mutants have been identified. The herbicide resistance in Arabidopsis is partly attributed to a reduced uptake of paraquat through plasma membrane-localized transporters. However, the biochemical mechanism of paraquat resistance remains poorly understood. Here, we report the identification and characterization of an Arabidopsis paraquat resistant1 (par1) mutant that shows strong resistance to the herbicide without detectable developmental abnormalities. PAR1 encodes a putative L-type amino acid transporter protein localized to the Golgi apparatus. Compared with the wild-type plants, the par1 mutant plants show similar efficiency of paraquat uptake, suggesting that PAR1 is not directly responsible for the intercellular uptake of paraquat. However, the par1 mutation caused a reduction in the accumulation of paraquat in the chloroplast, suggesting that PAR1 is involved in the intracellular transport of paraquat into the chloroplast. We identified a PAR1-like gene, OsPAR1, in rice (Oryza sativa). Whereas the overexpression of OsPAR1 resulted in hypersensitivity to paraquat, the knockdown of its expression using RNA interference conferred paraquat resistance on the transgenic rice plants. These findings reveal a unique mechanism by which paraquat is actively transported into the chloroplast and also provide a practical approach for genetic manipulations of paraquat resistance in crops.
p20
sS'pageEnd'
p21
I483
sS'date'
p22
I2013
sS'documentType'
p23
VArticle
p24
sS'subject'
p25
VPlant Sciences
p26
sS'isoSource'
p27
VPlant Physiol.
p28
sS'timesCited'
p29
(lp30
I0
aVZ9 0
p31
asS'funding'
p32
(lp33
(VNational Natural Science Foundation of China
V31225003, 30330360
tp34
a(VMinistry of Agriculture of China
V2009ZX08009-115B, 2011ZX08010-002-003
tp35
asS'PT'
p36
VJ
sS'title'
p37
VParaquat Resistant1, A Golgi-Localized Putative Transporter Protein, Is Involved In Intracellular Transport Of Paraquat(1[C][W])
p38
sS'ISSN'
p39
(lp40
V0032-0889
p41
aVJ9 PLANT PHYSIOL
p42
asS'authors_full'
p43
(lp44
(VLI
VJIANYONG
tp45
a(VMU
VJINYE
tp46
a(VBAI
VJIAOTENG
tp47
a(VFU
VFUYOU
tp48
a(VZOU
VTINGTING
tp49
a(VAN
VFENGYING
tp50
a(VZHANG
VJIAN
tp51
a(VJING
VHONGWEI
tp52
a(VWANG
VQING
tp53
a(VLI
VZHEN
tp54
a(VYANG
VSHUHUA
tp55
a(VZUO
VJIANRU
tp56
asS'PG'
p57
I14
sS'PD'
p58
VMAY
p59
sS'pageStart'
p60
I470
sS'issue'
p61
I1
sS'journal'
p62
VPLANT PHYSIOLOGY
p63
sS'volume'
p64
V162
p65
sS'doi'
p66
V10.1104/pp.113.213892
p67
sS'emailAddress'
p68
Vjrzuo@genetics.ac.cn
p69
sS'authorAddress'
p70
(lp71
V[Li, Jianyong; Yang, Shuhua] China Agr Univ, Coll Biol Sci, State Key Lab Plant Physiol & Biochem, Beijing 100193, Peoples R China.
p72
aV[Li, Jianyong; Yang, Shuhua] China Agr Univ, Coll Biol Sci, Natl Plant Gene Res Ctr, Beijing 100193, Peoples R China.
p73
aV[Zou, Tingting; Li, Zhen] China Agr Univ, Coll Anim Sci & Technol, State Key Lab Anim Nutr, Beijing 100193, Peoples R China.
p74
aV[Mu, Jinye; Bai, Jiaoteng; Fu, Fuyou; An, Fengying; Zhang, Jian; Jing, Hongwei; Wang, Qing; Zuo, Jianru] Chinese Acad Sci, Inst Genet & Dev Biol, State Key Lab Plant Genom, Beijing 100101, Peoples R China.
p75
aV[Mu, Jinye; Bai, Jiaoteng; Fu, Fuyou; An, Fengying; Zhang, Jian; Jing, Hongwei; Wang, Qing; Zuo, Jianru] Chinese Acad Sci, Inst Genet & Dev Biol, Natl Plant Gene Res Ctr, Beijing 100101, Peoples R China.
p76
aV[Bai, Jiaoteng; Jing, Hongwei] Chinese Acad Sci, Grad Sch, Beijing 100049, Peoples R China.
p77
asS'publisherAddress'
p78
V15501 MONONA DRIVE, ROCKVILLE, MD 20855 USA
p79
sS'ER'
p80
V
sS'publisher'
p81
VAMER SOC PLANT BIOLOGISTS
p82
sS'authorKeywords'
p83
(lp84
VS-NITROSOGLUTATHIONE REDUCTASE
p85
aVTRANSIENT GENE-EXPRESSION
p86
aVBLOOD-BRAIN-BARRIER
p87
aVARABIDOPSIS-THALIANA
p88
aVSUPEROXIDE-DISMUTASE
p89
aVTRANSGENIC PLANTS
p90
aVMETHYL VIOLOGEN
p91
aVCELL-DEATH
p92
aVPHOTOOXIDATIVE STRESS
p93
aVBIPYRIDYL HERBICIDES
p94
asS'language'
p95
VEnglish
p96
sS'wosid'
p97
VWOS:000318547900035
p98
sS'citationCount'
p99
I68
sS'authors_init'
p100
(lp101
(VLI
VJ Y
tp102
a(VMU
VJ Y
tp103
a(VBAI
VJ T
tp104
a(VFU
VF Y
tp105
a(VZOU
VT T
tp106
a(VAN
VF Y
tp107
a(VZHANG
VJ
tp108
a(VJING
VH W
tp109
a(VWANG
VQ
tp110
a(VLI
VZ
tp111
a(VYANG
VS H
tp112
a(VZUO
VJ R
tp113
asS'citedReferences'
p114
(lp115
g1
(g2
g3
NtRp116
(dp117
g66
V10.1105/tpc.021832
p118
sg62
VPLANT CELL
p119
sg64
V16
p120
sg100
(lp121
(VAHLFORS
VR
tp122
asg22
I2004
sg60
VLANT
p123
sbag1
(g2
g3
NtRp124
(dp125
g66
V10.1126/science.1086391
p126
sg62
VSCIENCE
p127
sg64
V301
p128
sg100
(lp129
(VALONSO
VJ M
tp130
asg22
I2003
sg60
V653
p131
sbag1
(g2
g3
NtRp132
(dp133
g66
Nsg62
VPLANT PHYSIOL
p134
sg64
V103
p135
sg100
(lp136
(VAMSELLEM
VZ
tp137
asg22
I1993
sg60
VLANT
p138
sbag1
(g2
g3
NtRp139
(dp140
g66
V10.1104/pp.117.2.565
p141
sg62
VPLANT PHYSIOL
p142
sg64
V117
p143
sg100
(lp144
(VARISI
VA C M
tp145
asg22
I1998
sg60
VLANT
p146
sbag1
(g2
g3
NtRp147
(dp148
g66
V10.1104/pp.90.4.1267
p149
sg62
VPLANT PHYSIOL
p150
sg64
V90
p151
sg100
(lp152
(VBABBS
VC F
tp153
asg22
I1989
sg60
VLANT
p154
sbag1
(g2
g3
NtRp155
(dp156
g66
V10.1016/j.brainres.2008.12.033
p157
sg62
VBRAIN RES
p158
sg64
V1259
p159
sg100
(lp160
(VBARTLETT
VR M
tp161
asg22
I2009
sg60
V74
p162
sbag1
(g2
g3
NtRp163
(dp164
g66
V10.1038/cdd.2009.217
p165
sg62
VCELL DEATH DIFFER
p166
sg64
V17
p167
sg100
(lp168
(VBERRY
VC
tp169
asg22
I2010
sg60
V1115
p170
sbag1
(g2
g3
NtRp171
(dp172
g66
V10.1016/j.molbrainres.2004.11.005
p173
sg62
VMOL BRAIN RES
p174
sg64
V134
p175
sg100
(lp176
(VBONNEH-BARKAY
VD
tp177
asg22
I2005
sg60
V52
p178
sbag1
(g2
g3
NtRp179
(dp180
g66
Nsg62
VEMBO J
p181
sg64
V10
p182
sg100
(lp183
(VBOWLER
VC
tp184
asg22
I1991
sg60
V1723
p185
sbag1
(g2
g3
NtRp186
(dp187
g66
V10.1002/ps.823
p188
sg62
VPEST MANAG SCI
p189
sg64
V60
p190
sg100
(lp191
(VBROMILOW
VR H
tp192
asg22
I2004
sg60
VEST
p193
sbag1
(g2
g3
NtRp194
(dp195
g66
V10.1038/cr.2009.117
p196
sg62
VCELL RES
p197
sg64
V19
p198
sg100
(lp199
(VCHEN
VR Q
tp200
asg22
I2009
sg60
V1377
p201
sbag1
(g2
g3
NtRp202
(dp203
g66
V10.1002/(SICI)1096-9063(199705)50:1<5::AID-PS551>3.0.CO;2-F
p204
sg62
VPESTIC SCI
p205
sg64
V50
p206
sg100
(lp207
(VCHUN
VJ C
tp208
asg22
I1997
sg60
VESTIC
p209
sbag1
(g2
g3
NtRp210
(dp211
g66
V10.1006/pest.1997.2307
p212
sg62
VPESTIC BIOCHEM PHYS
p213
sg64
V59
p214
sg100
(lp215
(VCHUN
VJ C
tp216
asg22
I1997
sg60
VESTIC
p217
sbag1
(g2
g3
NtRp218
(dp219
g66
V10.1046/j.1365-313x.1998.00343.x
p220
sg62
VPLANT J
p221
sg64
V16
p222
sg100
(lp223
(VCLOUGH
VS J
tp224
asg22
I1998
sg60
VLANT
p225
sbag1
(g2
g3
NtRp226
(dp227
g66
V10.1038/317741a0
p228
sg62
VNATURE
p229
sg64
V317
p230
sg100
(lp231
(VCOMAI
VL
tp232
asg22
I1985
sg60
V741
p233
sbag1
(g2
g3
NtRp234
(dp235
g66
V10.1126/science.221.4608.370
p236
sg62
VSCIENCE
p237
sg64
V221
p238
sg100
(lp239
(VCOMAI
VL
tp240
asg22
I1983
sg60
V370
p241
sbag1
(g2
g3
NtRp242
(dp243
g66
V10.1073/pnas.231178298
p244
sg62
VP NATL ACAD SCI USA
p245
sg64
V98
p246
sg100
(lp247
(VDELLEDONNE
VM
tp248
asg22
I2001
sg60
V13454
p249
sbag1
(g2
g3
NtRp250
(dp251
g66
V10.1105/tpc.108.065128
p252
sg62
VPLANT CELL
p253
sg64
V22
p254
sg100
(lp255
(VDENG
VY
tp256
asg22
I2010
sg60
VLANT
p257
sbag1
(g2
g3
NtRp258
(dp259
g66
V10.1105/tpc.12.6.853
p260
sg62
VPLANT CELL
p261
sg64
V12
p262
sg100
(lp263
(VDIENER
VA C
tp264
asg22
I2000
sg60
VLANT
p265
sbag1
(g2
g3
NtRp266
(dp267
g66
V10.1016/0160-9327(71)90039-1
p268
sg62
VENDEAVOUR
p269
sg64
V30
p270
sg100
(lp271
(VDODGE
VA D
tp272
asg22
I1971
sg60
V130
p273
sbag1
(g2
g3
NtRp274
(dp275
g66
Nsg62
VPLANT PHYSIOL
p276
sg64
V113
p277
sg100
(lp278
(VDONAHUE
VJ L
tp279
asg22
I1997
sg60
VLANT
p280
sbag1
(g2
g3
NtRp281
(dp282
g66
V10.1043/pnas.0501456102
p283
sg62
VP NATL ACAD SCI USA
p284
sg64
V102
p285
sg100
(lp286
(VFEECHAN
VA
tp287
asg22
I2005
sg60
V8054
p288
sbag1
(g2
g3
NtRp289
(dp290
g66
V10.1104/pp.77.4.984
p291
sg62
VPLANT PHYSIOL
p292
sg64
V77
p293
sg100
(lp294
(VFUERST
VE P
tp295
asg22
I1985
sg60
VLANT
p296
sbag1
(g2
g3
NtRp297
(dp298
g66
Nsg62
VWEED TECHNOL
p299
sg64
V4
sg100
(lp300
(VFUERST
VE P
tp301
asg22
I1990
sg60
V150
p302
sbag1
(g2
g3
NtRp303
(dp304
g66
V10.1104/pp.103.033480
p305
sg62
VPLANT PHYSIOL
p306
sg64
V134
p307
sg100
(lp308
(VFUJIBE
VT
tp309
asg22
I2004
sg60
VLANT
p310
sbag1
(g2
g3
NtRp311
(dp312
g66
V10.1016/0005-2728(90)90213-N
p313
sg62
VBIOCHIM BIOPHYS ACTA
p314
sg64
V1015
p315
sg100
(lp316
(VFUJII
VT
tp317
asg22
I1990
sg60
V41
p318
sbag1
(g2
g3
NtRp319
(dp320
g66
V10.1073/pnas.1121406109
p321
sg62
VP NATL ACAD SCI USA
p322
sg64
V109
p323
sg100
(lp324
(VFUJITA
VM
tp325
asg22
I2012
sg60
V6343
p326
sbag1
(g2
g3
NtRp327
(dp328
g66
V10.1073/pnas.90.4.1629
p329
sg62
VP NATL ACAD SCI USA
p330
sg64
V90
p331
sg100
(lp332
(VGUPTA
VA S
tp333
asg22
I1993
sg60
V1629
p334
sbag1
(g2
g3
NtRp335
(dp336
g66
Nsg62
VCLIN TOXICOL
p337
sg64
V14
p338
sg100
(lp339
(VHALEY
VT J
tp340
asg22
I1979
sg60
V1
sbag1
(g2
g3
NtRp341
(dp342
g66
V10.1016/0048-3575(92)90034-W
p343
sg62
VPESTIC BIOCHEM PHYS
p344
sg64
V43
p345
sg100
(lp346
(VHART
VJ J
tp347
asg22
I1992
sg60
VESTIC
p348
sbag1
(g2
g3
NtRp349
(dp350
g66
V10.1046/j.1365-313X.1994.6020271.x
p351
sg62
VPLANT J
p352
sg64
V6
sg100
(lp353
(VHIEI
VY
tp354
asg22
I1994
sg60
VLANT
p355
sbag1
(g2
g3
NtRp356
(dp357
g66
V10.1038/cr.2009.84
p358
sg62
VCELL RES
p359
sg64
V19
p360
sg100
(lp361
(VHUANG
VX Z
tp362
asg22
I2009
sg60
V1205
p363
sbag1
(g2
g3
NtRp364
(dp365
g66
Nsg62
VMICROBIOL
p366
sg64
V146
p367
sg100
(lp368
(VJACK
VD L
tp369
asg22
I2000
sg60
V1797
p370
sbag1
(g2
g3
NtRp371
(dp372
g66
Nsg62
VEMBO J
p373
sg64
V6
sg100
(lp374
(VJEFFERSON
VR A
tp375
asg22
I1987
sg60
V3901
p376
sbag1
(g2
g3
NtRp377
(dp378
g66
V10.1016/j.pestbp.2006.08.013
p379
sg62
VPESTIC BIOCHEM PHYS
p380
sg64
V88
p381
sg100
(lp382
(VJORI
VB
tp383
asg22
I2007
sg60
VESTIC
p384
sbag1
(g2
g3
NtRp385
(dp386
g66
V10.1111/j.1365-313X.2009.04007.x
p387
sg62
VPLANT J
p388
sg64
V60
p389
sg100
(lp390
(VLAM
VS K
tp391
asg22
I2009
sg60
VLANT
p392
sbag1
(g2
g3
NtRp393
(dp394
g66
V10.1105/tpc.107.052647
p395
sg62
VPLANT CELL
p396
sg64
V20
p397
sg100
(lp398
(VLEE
VU
tp399
asg22
I2008
sg60
VLANT
p400
sbag1
(g2
g3
NtRp401
(dp402
g66
V10.1023/A:1013316816955
p403
sg62
VMOL BREEDING
p404
sg64
V8
sg100
(lp405
(VLI
VX
tp406
asg22
I2001
sg60
V109
p407
sbag1
(g2
g3
NtRp408
(dp409
g66
Nsg62
VMETHOD ENZYMOL
p410
sg64
V148
p411
sg100
(lp412
(VLICHTENTHALER
VH K
tp413
asg22
I1987
sg60
V350
p414
sbag1
(g2
g3
NtRp415
(dp416
g66
V10.1007/s00425-012-1668-0
p417
sg62
VPLANTA
p418
sg64
V236
p419
sg100
(lp420
(VMULANGI
VV
tp421
asg22
I2012
sg60
VLANTA
p422
sbag1
(g2
g3
NtRp423
(dp424
g66
V10.1111/j.1365-313X.2004.02092.x
p425
sg62
VPLANT J
p426
sg64
V38
p427
sg100
(lp428
(VMURGIA
VI
tp429
asg22
I2004
sg60
VLANT
p430
sbag1
(g2
g3
NtRp431
(dp432
g66
V10.1104/pp.011569
p433
sg62
VPLANT PHYSIOL
p434
sg64
V130
p435
sg100
(lp436
(VNEBENFUHR
VA
tp437
asg22
I2002
sg60
VLANT
p438
sbag1
(g2
g3
NtRp439
(dp440
g66
V10.1111/j.1365-313X.2007.03212.x
p441
sg62
VPLANT J
p442
sg64
V51
p443
sg100
(lp444
(VNELSON
VB K
tp445
asg22
I2007
sg60
VLANT
p446
sbag1
(g2
g3
NtRp447
(dp448
g66
V10.1104/pp.58.3.309
p449
sg62
VPLANT PHYSIOL
p450
sg64
V58
p451
sg100
(lp452
(VNISHIMURA
VM
tp453
asg22
I1976
sg60
VLANT
p454
sbag1
(g2
g3
NtRp455
(dp456
g66
V10.1006/pest.1993.1055
p457
sg62
VPESTIC BIOCHEM PHYS
p458
sg64
V46
p459
sg100
(lp460
(VNORMAN
VM A
tp461
asg22
I1993
sg60
VESTIC
p462
sbag1
(g2
g3
NtRp463
(dp464
g66
V10.1007/s00726-011-0987-y
p465
sg62
VAMINO ACIDS
p466
sg64
V42
p467
sg100
(lp468
(VPOULIN
VR
tp469
asg22
I2012
sg60
V711
p470
sbag1
(g2
g3
NtRp471
(dp472
g66
Nsg62
VWEED SCI
p473
sg64
V37
p474
sg100
(lp475
(VPOWLES
VS B
tp476
asg22
I1989
sg60
V60
p477
sbag1
(g2
g3
NtRp478
(dp479
g66
V10.1614/WT-04-142R.1
p480
sg62
VWEED TECHNOL
p481
sg64
V20
p482
sg100
(lp483
(VPOWLES
VS B
tp484
asg22
I2006
sg60
V282
p485
sbag1
(g2
g3
NtRp486
(dp487
g66
V10.1104/pp.100.2.630
p488
sg62
VPLANT PHYSIOL
p489
sg64
V100
p490
sg100
(lp491
(VPRESTON
VC
tp492
asg22
I1992
sg60
VLANT
p493
sbag1
(g2
g3
NtRp494
(dp495
g66
V10.1111/j.1365-3040.1994.tb02009.x
p496
sg62
VPLANT CELL ENVIRON
p497
sg64
V17
p498
sg100
(lp499
(VPRESTON
VC
tp500
asg22
I1994
sg60
VLANT
p501
sbag1
(g2
g3
NtRp502
(dp503
g66
V10.1111/j.1742-4658.2009.07109.x
p504
sg62
VFEBS J
p505
sg64
V276
p506
sg100
(lp507
(VPROSECKA
VJ
tp508
asg22
I2009
sg60
V4001
p509
sbag1
(g2
g3
NtRp510
(dp511
g66
V10.1016/0048-3575(86)90058-1
p512
sg62
VPESTIC BIOCHEM PHYS
p513
sg64
V26
p514
sg100
(lp515
(VSHAALTIEL
VY
tp516
asg22
I1986
sg60
VESTIC
p517
sbag1
(g2
g3
NtRp518
(dp519
g66
V10.1016/S0006-8993(01)02577-X
p520
sg62
VBRAIN RES
p521
sg64
V906
p522
sg100
(lp523
(VSHIMIZU
VK
tp524
asg22
I2001
sg60
V135
p525
sbag1
(g2
g3
NtRp526
(dp527
g66
V10.1016/S0048-3575(03)00069-5
p528
sg62
VPESTIC BIOCHEM PHYS
p529
sg64
V76
p530
sg100
(lp531
(VSOAR
VC J
tp532
asg22
I2003
sg60
VESTIC
p533
sbag1
(g2
g3
NtRp534
(dp535
g66
V10.1074/jbc.M401287200
p536
sg62
VJ BIOL CHEM
p537
sg64
V279
p538
sg100
(lp539
(VSOULET
VD
tp540
asg22
I2004
sg60
V49355
p541
sbag1
(g2
g3
NtRp542
(dp543
g66
V10.1016/S0300-483X(02)00382-7
p544
sg62
VTOXICOLOGY
p545
sg64
V180
p546
sg100
(lp547
(VSUNTRES
VZ E
tp548
asg22
I2002
sg60
V65
p549
sbag1
(g2
g3
NtRp550
(dp551
g66
Nsg62
VPLANT CELL
p552
sg64
V11
p553
sg100
(lp554
(VTSUGANE
VK
tp555
asg22
I1999
sg60
VLANT
p556
sbag1
(g2
g3
NtRp557
(dp558
g66
V10.1002/ps.696
p559
sg62
VPEST MANAG SCI
p560
sg64
V59
p561
sg100
(lp562
(VVAUGHN
VK C
tp563
asg22
I2003
sg60
VEST
p564
sbag1
(g2
g3
NtRp565
(dp566
g66
V10.1111/j.1365-313X.2004.02219.x
p567
sg62
VPLANT J
p568
sg64
V40
p569
sg100
(lp570
(VWALTER
VM
tp571
asg22
I2004
sg60
VLANT
p572
sbag1
(g2
g3
NtRp573
(dp574
g66
V10.1111/j.1365-313X.2011.04659.x
p575
sg62
VPLANT J
p576
sg64
V67
p577
sg100
(lp578
(VWANG
VZ
tp579
asg22
I2011
sg60
VLANT
p580
sbag1
(g2
g3
NtRp581
(dp582
g66
V10.1007/BF02772683
p583
sg62
VPlant Molecular Biology Reporter
p584
sg64
V22
p585
sg100
(lp586
(VWANG
VZHEN
tp587
asg22
I2004
sg60
Vlant
p588
sbag1
(g2
g3
NtRp589
(dp590
g66
V10.1111/j.1365-313X.2011.04830.x
p591
sg62
VPLANT J
p592
sg64
V69
p593
sg100
(lp594
(VXI
VJ
tp595
asg22
I2012
sg60
VLANT
p596
sbag1
(g2
g3
NtRp597
(dp598
g66
V10.1007/s004250000257
p599
sg62
VPLANTA
p600
sg64
V211
p601
sg100
(lp602
(VYE
VB
tp603
asg22
I2000
sg60
VLANTA
p604
sbag1
(g2
g3
NtRp605
(dp606
g66
V10.1038/nprot.2007.199
p607
sg62
VNAT PROTOC
p608
sg64
V2
sg100
(lp609
(VYOO
VS D
tp610
asg22
I2007
sg60
V1565
p611
sbag1
(g2
g3
NtRp612
(dp613
g66
V10.1071/FP03234
p614
sg62
VFUNCT PLANT BIOL
p615
sg64
V31
p616
sg100
(lp617
(VYU
VQ
tp618
asg22
I2004
sg60
V247
p619
sbag1
(g2
g3
NtRp620
(dp621
g66
V10.1007/s00425-006-0364-3
p622
sg62
VPLANTA
p623
sg64
V225
p624
sg100
(lp625
(VYU
VQ
tp626
asg22
I2007
sg60
VLANTA
p627
sbag1
(g2
g3
NtRp628
(dp629
g66
V10.1186/1746-4811-7-30
p630
sg62
VPLANT METHODS
p631
sg64
V7
sg100
(lp632
(VZHANG
VY
tp633
asg22
I2011
sg60
VLANT
p634
sbag1
(g2
g3
NtRp635
(dp636
g66
V10.1046/j.1365-313x.2000.00868.x
p637
sg62
VPLANT J
p638
sg64
V24
p639
sg100
(lp640
(VZUO
VJ R
tp641
asg22
I2000
sg60
VLANT
p642
sbasb.