ccopy_reg
_reconstructor
p1
(ctethne.classes.paper
Paper
p2
c__builtin__
object
p3
NtRp4
(dp5
S'publisherCity'
p6
VROCKVILLE
p7
sS'reprintAddress'
p8
VKris, RM (reprint author), NuvoGen Res, LLC, Tucson, AZ 85728 USA.
p9
sS'WC'
p10
VPlant Sciences
p11
sS'GA'
p12
V187LO
p13
sS'abstract'
p14
VHigh-throughput gene expression analysis of genes expressed during salt stress was performed using a novel multiplexed quantitative nuclease protection assay that involves customized DNA microarrays printed within the individual wells of 96-well plates. The levels of expression of the transcripts from 16 different genes were quantified within crude homogenates prepared from Arabidopsis ( Arabidopsis thaliana) plants also grown in a 96-well plate format. Examples are provided of the high degree of reproducibility of quantitative dose-response data and of the sensitivity of detection of changes in gene expression within limiting amounts of tissue. The lack of requirement for RNA purification renders the assay particularly suited for high-throughput gene expression analysis and for the discovery of novel chemical compounds that specifically modulate the expression of endogenous target genes.
p15
sS'pageEnd'
p16
I1266
sS'publisherAddress'
p17
V15501 MONONA DRIVE, ROCKVILLE, MD 20855 USA
p18
sS'documentType'
p19
VArticle
p20
sS'subject'
p21
VPlant Sciences
p22
sS'isoSource'
p23
VPlant Physiol.
p24
sS'timesCited'
p25
(lp26
I5
aVZ9 6
p27
asS'PT'
p28
VJ
sS'title'
p29
VHigh-Throughput, High-Sensitivity Analysis Of Gene Expression In Arabidopsis
p30
sS'ISSN'
p31
(lp32
V0032-0889
p33
aVJ9 PLANT PHYSIOL
p34
asS'authors_full'
p35
(lp36
(VKRIS
VRICHARD MARTIN
tp37
a(VFELDER
VSTEPHEN
tp38
a(VDEYHOLOS
VMICHAEL
tp39
a(VLAMBERT
VGEORGINA M
tp40
a(VHINTON
VJAMES
tp41
a(VBOTROS
VIHAB
tp42
a(VMARTEL
VRALPH
tp43
a(VSELIGMANN
VBRUCE
tp44
a(VGALBRAITH
VDAVID W
tp45
asS'PG'
p46
I11
sS'PD'
p47
VJUL
p48
sS'pageStart'
p49
I1256
sS'issue'
p50
I3
sS'journal'
p51
VPLANT PHYSIOLOGY
p52
sS'volume'
p53
V144
p54
sS'doi'
p55
V10.1104/pp.107.098681
p56
sS'emailAddress'
p57
Vrkris@nuvogenresearch.com
p58
sS'authorAddress'
p59
(lp60
VNuvoGen Res, LLC, Tucson, AZ 85728 USA.
p61
aVUniv Arizona, Dept Plant Sci, Tucson, AZ 85721 USA.
p62
aVHigh Throughput Genom Inc, Tucson, AZ 85712 USA.
p63
asS'date'
p64
I2007
sS'ER'
p65
V
sS'publisher'
p66
VAMER SOC PLANT BIOLOGISTS
p67
sS'authorKeywords'
p68
(lp69
VLENGTH CDNA MICROARRAY
p70
aVOXIDATIVE STRESS
p71
aVRESPONSIVE GENES
p72
aVHIGH-SALINITY
p73
aVPROFILES
p74
aVDISCOVERY
p75
aVTHALIANA
p76
aVPATHWAYS
p77
aVGENOME
p78
aVARRAY
p79
asS'language'
p80
VEnglish
p81
sS'wosid'
p82
VWOS:000247849400004
p83
sS'citationCount'
p84
I26
sS'authors_init'
p85
(lp86
(VKRIS
VR M
tp87
a(VFELDER
VS
tp88
a(VDEYHOLOS
VM
tp89
a(VLAMBERT
VG M
tp90
a(VHINTON
VJ
tp91
a(VBOTROS
VI
tp92
a(VMARTEL
VR
tp93
a(VSELIGMANN
VB
tp94
a(VGALBRAITH
VD W
tp95
asS'citedReferences'
p96
(lp97
g1
(g2
g3
NtRp98
(dp99
g55
V10.1038/76469
p100
sg51
VNAT BIOTECHNOL
p101
sg53
V18
p102
sg85
(lp103
(VBRENNER
VS
tp104
asg64
I2000
sg49
V630
p105
sbag1
(g2
g3
NtRp106
(dp107
g55
V10.1111/j.1365-313X.2004.02051.x
p108
sg51
VPLANT J
p109
sg53
V38
p110
sg85
(lp111
(VCZECHOWSKI
VT
tp112
asg64
I2004
sg49
VLANT
p113
sbag1
(g2
g3
NtRp114
(dp115
g55
Nsg51
VBIOTECHNIQUES
p116
sg53
V37
p117
sg85
(lp118
(VDAFFORN
VA
tp119
asg64
I2004
sg49
V854
p120
sbag1
(g2
g3
NtRp121
(dp122
g55
V10.1002/1097-0320(20010401)43:4<229::AID-CYTO1055>3.0.CO;2-2
p123
sg51
VCYTOMETRY
p124
sg53
V43
p125
sg85
(lp126
(VDEYHOLOS
VM K
tp127
asg64
I2001
sg49
V229
p128
sbag1
(g2
g3
NtRp129
(dp130
g55
V10.1126/science.1990438
p131
sg51
VSCIENCE
p132
sg53
V251
p133
sg85
(lp134
(VFODOR
VS P A
tp135
asg64
I1991
sg49
V767
p136
sbag1
(g2
g3
NtRp137
(dp138
g55
V10.1126/science.286.5439.531
p139
sg51
VSCIENCE
p140
sg53
V286
p141
sg85
(lp142
(VGOLUB
VT R
tp143
asg64
I1999
sg49
V531
p144
sbag1
(g2
g3
NtRp145
(dp146
g55
V10.1016/S0092-8674(00)00015-5
p147
sg51
VCELL
p148
sg53
V102
p149
sg85
(lp150
(VHUGHES
VT R
tp151
asg64
I2000
sg49
V109
p152
sbag1
(g2
g3
NtRp153
(dp154
g55
V10.1046/j.1469-8137.2001.00151.x
p155
sg51
VNEW PHYTOL
p156
sg53
V151
p157
sg85
(lp158
(VJENKINS
VG I
tp159
asg64
I2001
sg49
V121
p160
sbag1
(g2
g3
NtRp161
(dp162
g55
V10.1111/j.1365-313X.2004.02295.x
p163
sg51
VPLANT J
p164
sg53
V41
p165
sg85
(lp166
(VKIM
VH S
tp167
asg64
I2005
sg49
VLANT
p168
sbag1
(g2
g3
NtRp169
(dp170
g55
V10.1126/science.1132939
p171
sg51
VSCIENCE
p172
sg53
V313
p173
sg85
(lp174
(VLAMB
VJ
tp175
asg64
I2006
sg49
V1929
p176
sbag1
(g2
g3
NtRp177
(dp178
g55
V10.1093/jxb/erj098
p179
sg51
VJ EXP BOT
p180
sg53
V57
p181
sg85
(lp182
(VMA
VS S
tp183
asg64
I2006
sg49
V1097
p184
sbag1
(g2
g3
NtRp185
(dp186
g55
V10.1089/154065802761001310
p187
sg51
VASSAY DRUG DEV TECHN
p188
sg53
V1
sg85
(lp189
(VMARTEL
VR R
tp190
asg64
I2002
sg49
V61
p191
sbag1
(g2
g3
NtRp192
(dp193
g55
Nsg51
VGENE CLONING EXPRESS
p194
sg53
Nsg85
(lp195
(VMARTEL
VR R
tp196
asg64
I2002
sg49
V549
p197
sbag1
(g2
g3
NtRp198
(dp199
g55
V10.1104/pp.104.040840
p200
sg51
VPLANT PHYSIOL
p201
sg53
V135
p202
sg85
(lp203
(VMEYERS
VB C
tp204
asg64
I2004
sg49
VLANT
p205
sbag1
(g2
g3
NtRp206
(dp207
g55
V10.1007/s11103-005-2418-5
p208
sg51
VPLANT MOL BIOL
p209
sg53
V60
p210
sg85
(lp211
(VNAKASHIMA
VK
tp212
asg64
I2006
sg49
VLANT
p213
sbag1
(g2
g3
NtRp214
(dp215
g55
Nsg51
VATGENEXPRESS PROJECT
p216
sg53
Nsg85
(lp217
(VNOVER
VL
tp218
asg64
I2005
sg49
V3611
p219
sbag1
(g2
g3
NtRp220
(dp221
g55
V10.1023/A:1006469128280
p222
sg51
VPLANT MOL BIOL
p223
sg53
V45
p224
sg85
(lp225
(VNYLANDER
VM
tp226
asg64
I2001
sg49
VLANT
p227
sbag1
(g2
g3
NtRp228
(dp229
g55
V10.1104/pp.104.900155
p230
sg51
VPLANT PHYSIOL
p231
sg53
V138
p232
sg85
(lp233
(VRAIKHEL
VN
tp234
asg64
I2005
sg49
VLANT
p235
sbag1
(g2
g3
NtRp236
(dp237
g55
V10.1126/science.270.5235.467
p238
sg51
VSCIENCE
p239
sg53
V270
p240
sg85
(lp241
(VSCHENA
VM
tp242
asg64
I1995
sg49
V467
p243
sbag1
(g2
g3
NtRp244
(dp245
g55
V10.1038/ng1543
p246
sg51
VNAT GENET
p247
sg53
V37
p248
sg85
(lp249
(VSCHMID
VM
tp250
asg64
I2005
sg49
V501
p251
sbag1
(g2
g3
NtRp252
(dp253
g55
V10.1046/j.1365-313X.2002.01359.x
p254
sg51
VPLANT J
p255
sg53
V31
p256
sg85
(lp257
(VSEKI
VM
tp258
asg64
I2002
sg49
VLANT
p259
sbag1
(g2
g3
NtRp260
(dp261
g55
V10.1038/13664
p262
sg51
VNAT BIOTECHNOL
p263
sg53
V17
p264
sg85
(lp265
(VSINGH-GASSON
VS
tp266
asg64
I1999
sg49
V974
p267
sbag1
(g2
g3
NtRp268
(dp269
g55
V10.1016/S1367-5931(97)80078-6
p270
sg51
VCURR OPIN CHEM BIOL
p271
sg53
V1
sg85
(lp272
(VSITTAMPALAM
VG S
tp273
asg64
I1997
sg49
V384
p274
sbag1
(g2
g3
NtRp275
(dp276
g55
V10.1038/ng0697-126
p277
sg51
VNAT GENET
p278
sg53
V16
p279
sg85
(lp280
(VSTRACHAN
VT
tp281
asg64
I1997
sg49
V126
p282
sbag1
(g2
g3
NtRp283
(dp284
g55
V10.1007/s11103-004-2200-0
p285
sg51
VPLANT MOL BIOL
p286
sg53
V56
p287
sg85
(lp288
(VTAKAHASHI
VS
tp289
asg64
I2004
sg49
VLANT
p290
sbag1
(g2
g3
NtRp291
(dp292
g55
V10.1126/science.270.5235.484
p293
sg51
VSCIENCE
p294
sg53
V270
p295
sg85
(lp296
(VVELCULESCU
VV E
tp297
asg64
I1995
sg49
V484
p298
sbasb.