ccopy_reg
_reconstructor
p1
(ctethne.classes.paper
Paper
p2
c__builtin__
object
p3
NtRp4
(dp5
S'publisherCity'
p6
VROCKVILLE
p7
sS'reprintAddress'
p8
VDraper, J (reprint author), Univ Wales, Inst Biol Sci, Edward Llwyd Bldg, Aberystwyth SY23 3DA, Ceredigion, Wales.
p9
sS'WC'
p10
VPlant Sciences
p11
sS'GA'
p12
V503WK
p13
sS'abstract'
p14
VA new model for grass functional genomics is described based on Brachypodium distachyon, which in the evolution of the Pooideae diverged just prior to the clade of "core pooid" genera that contain the majority of important temperate cereals and forage grasses. Diploid ecotypes of B. distachyon (2n = 10) have five easily distinguishable chromosomes that display high levels of chiasma formation at meiosis. The B. distachyon nuclear genome was indistinguishable in size from that of Arabidopsis, making it the simplest genome described in grasses to date. B. distachyon is a self-fertile, inbreeding annual with a life cycle of less than 4 months. These features, coupled with its small size (approximately 20 cm at maturity), lack of seed-head shatter, and undemanding growth requirements should make it amenable to high-throughput genetics and mutant screens. Immature embryos exhibited a high capacity for plant regeneration via somatic embryogenesis. Regenerated plants display very low levels of albinism and have normal fertility. A simple transformation system has been developed based on microprojectile bombardment of embryogenic callus and hygromycin selection. Selected B. distachyon ecotypes were resistant to all tested cereal-adapted Blumeria graminis species and cereal brown rusts (Puccinia reconditia). In contrast, different ecotypes displayed resistance or disease symptoms following challenge with the rice blast pathogen (Magnaporthe grisea) and wheat/barley yellow stripe rusts (Puccinia striformis). Despite its small stature, B. distachyon has large seeds that should prove useful for studies on grain filling. Such biological characteristics represent important traits for study in temperate cereals.
p15
sS'pageEnd'
p16
I1555
sS'publisherAddress'
p17
V15501 MONONA DRIVE, ROCKVILLE, MD 20855 USA
p18
sS'documentType'
p19
VArticle
p20
sS'subject'
p21
VPlant Sciences
p22
sS'isoSource'
p23
VPlant Physiol.
p24
sS'timesCited'
p25
(lp26
I164
aVZ9 194
p27
asS'PT'
p28
VJ
sS'title'
p29
VBrachypodium Distachyon. A New Model System For Functional Genomics In Grasses
p30
sS'ISSN'
p31
(lp32
V0032-0889
p33
aVJ9 PLANT PHYSIOL
p34
asS'authors_full'
p35
(lp36
(VDRAPER
VJ
tp37
a(VMUR
VLAJ
tp38
a(VJENKINS
VG
tp39
a(VGHOSHBISWAS
VGC
tp40
a(VBABLAK
VP
tp41
a(VHASTEROK
VR
tp42
a(VROUTLEDGE
VAPM
tp43
asS'PG'
p44
I17
sS'PD'
p45
VDEC
p46
sS'pageStart'
p47
I1539
sS'issue'
p48
I4
sS'journal'
p49
VPLANT PHYSIOLOGY
p50
sS'volume'
p51
V127
p52
sS'doi'
p53
V10.1104/pp.010196
p54
sS'emailAddress'
p55
Vjhd@aber.ac.uk
p56
sS'authorAddress'
p57
VUniv Wales, Inst Biol Sci, Aberystwyth SY23 3DA, Ceredigion, Wales.
p58
sS'date'
p59
I2001
sS'ER'
p60
V
sS'publisher'
p61
VAMER SOC PLANT BIOLOGISTS
p62
sS'authorKeywords'
p63
(lp64
VNUCLEAR-DNA AMOUNTS
p65
aVCHLOROPLAST NDHF GENE
p66
aVRIBOSOMAL-RNA GENES
p67
aVAGROBACTERIUM-TUMEFACIENS
p68
aVARABIDOPSIS-THALIANA
p69
aVMEDIATED TRANSFORMATION
p70
aVRICE TRANSFORMATION
p71
aVCROP IMPROVEMENT
p72
aVFLOW-CYTOMETRY
p73
aVPLANT
p74
asS'language'
p75
VEnglish
p76
sS'wosid'
p77
VWOS:000172824500032
p78
sS'citationCount'
p79
I71
sS'authors_init'
p80
(lp81
(VDRAPER
VJ
tp82
a(VMUR
VL A J
tp83
a(VJENKINS
VG
tp84
a(VGHOSHBISWAS
VG C
tp85
a(VBABLAK
VP
tp86
a(VHASTEROK
VR
tp87
a(VROUTLEDGE
VA P M
tp88
asS'citedReferences'
p89
(lp90
g1
(g2
g3
NtRp91
(dp92
g53
V10.1007/BF00711156
p93
sg49
VCHROMOSOME RES
p94
sg51
V3
sg80
(lp95
(VABBO
VS
tp96
asg59
I1995
sg47
V5
sbag1
(g2
g3
NtRp97
(dp98
g53
V10.1007/BF02524643
p99
sg49
VCHROMOSOMA
p100
sg51
V105
p101
sg80
(lp102
(VARAGONALCAIDE
VL
tp103
asg59
I1996
sg47
V261
p104
sbag1
(g2
g3
NtRp105
(dp106
g53
V10.1007/BF00037687
p107
sg49
VPLANT CELL TISS ORG
p108
sg51
V42
p109
sg80
(lp110
(VBABLAK
VP
tp111
asg59
I1995
sg47
VLANT
p112
sbag1
(g2
g3
NtRp113
(dp114
g53
V10.1126/science.276.5313.726
p115
sg49
VSCIENCE
p116
sg51
V276
p117
sg80
(lp118
(VBAKER
VB
tp119
asg59
I1997
sg47
V726
p120
sbag1
(g2
g3
NtRp121
(dp122
g53
V10.1006/anbo.1995.1085
p123
sg49
VANN BOT
p124
sg51
V76
p125
sg80
(lp126
(VBENNETT
VM D
tp127
asg59
I1995
sg47
V113
p128
sbag1
(g2
g3
NtRp129
(dp130
g53
V10.1006/anbo.2000.1253
p131
sg49
VANN BOT
p132
sg51
V86
p133
sg80
(lp134
(VBENNETT
VM D
tp135
asg59
I2000
sg47
V859
p136
sbag1
(g2
g3
NtRp137
(dp138
g53
V10.1098/rstb.1976.0044
p139
sg49
VPHILOS T ROY SOC B
p140
sg51
V274
p141
sg80
(lp142
(VBENNETT
VM D
tp143
asg59
I1976
sg47
VHILOS
p144
sbag1
(g2
g3
NtRp145
(dp146
g53
V10.1098/rspb.1982.0069
p147
sg49
VPROC R SOC SER B
p148
sg51
V216
p149
sg80
(lp150
(VBENNETT
VM D
tp151
asg59
I1982
sg47
VROC
p152
sbag1
(g2
g3
NtRp153
(dp154
g53
V10.1006/anbo.1997.0415
p155
sg49
VANN BOT
p156
sg51
V80
p157
sg80
(lp158
(VBENNETT
VM D
tp159
asg59
I1997
sg47
V169
p160
sbag1
(g2
g3
NtRp161
(dp162
g53
V10.1073/pnas.95.5.1975
p163
sg49
VP NATL ACAD SCI USA
p164
sg51
V95
p165
sg80
(lp166
(VBENNETZEN
VJ L
tp167
asg59
I1998
sg47
V1975
p168
sbag1
(g2
g3
NtRp169
(dp170
g53
Nsg49
VPLANT SCI
p171
sg51
V133
p172
sg80
(lp173
(VBISWAS
VG C G
tp174
asg59
I1998
sg47
VLANT
p175
sbag1
(g2
g3
NtRp176
(dp177
g53
Nsg49
VPLANT CELL REP
p178
sg51
V11
p179
sg80
(lp180
(VCAO
VJ
tp181
asg59
I1992
sg47
VLANT
p182
sbag1
(g2
g3
NtRp183
(dp184
g53
Nsg49
VCAN J BOT
p185
sg51
V73
p186
sg80
(lp187
(VCARVER
VT L W
tp188
asg59
I1995
sg47
V632
p189
sbag1
(g2
g3
NtRp190
(dp191
g53
V10.1006/bojl.1995.0018
p192
sg49
VBOT J LINN SOC
p193
sg51
V117
p194
sg80
(lp195
(VCATALAN
VP
tp196
asg59
I1995
sg47
V263
p197
sbag1
(g2
g3
NtRp198
(dp199
g53
V10.1007/BF00985367
p200
sg49
VPLANT SYST EVOL
p201
sg51
V220
p202
sg80
(lp203
(VCATALAN
VP
tp204
asg59
I2000
sg47
VLANT
p205
sbag1
(g2
g3
NtRp206
(dp207
g53
V10.1006/mpev.1997.0416
p208
sg49
VMOL PHYLOGENET EVOL
p209
sg51
V8
sg80
(lp210
(VCATALAN
VP
tp211
asg59
I1997
sg47
V150
p212
sbag1
(g2
g3
NtRp213
(dp214
g53
Nsg49
VPLANT CELL PHYSIOL
p215
sg51
V33
p216
sg80
(lp217
(VCHAN
VM T
tp218
asg59
I1992
sg47
VLANT
p219
sbag1
(g2
g3
NtRp220
(dp221
g53
V10.1073/pnas.94.7.3431
p222
sg49
VP NATL ACAD SCI USA
p223
sg51
V94
p224
sg80
(lp225
(VCHEN
VM
tp226
asg59
I1997
sg47
V3431
p227
sbag1
(g2
g3
NtRp228
(dp229
g53
V10.1104/pp.123.2.423
p230
sg49
VPLANT PHYSIOL
p231
sg51
V123
p232
sg80
(lp233
(VCHORY
VJ
tp234
asg59
I2000
sg47
VLANT
p235
sbag1
(g2
g3
NtRp236
(dp237
g53
V10.1046/j.1365-313x.1998.00343.x
p238
sg49
VPLANT J
p239
sg51
V16
p240
sg80
(lp241
(VCLOUGH
VS J
tp242
asg59
I1998
sg47
VLANT
p243
sbag1
(g2
g3
NtRp244
(dp245
g53
V10.1515/bchm2.1980.361.2.1223
p246
sg49
VH
sg51
V361
p247
sg80
(lp248
(VDESHPANDE
VV G
tp249
asg59
I1980
sg47
V1223
p250
sbag1
(g2
g3
NtRp251
(dp252
g53
V10.1101/gr.9.9.825
p253
sg49
VGENOME RES
p254
sg51
V9
sg80
(lp255
(VDEVOS
VK M
tp256
asg59
I1999
sg47
V825
p257
sbag1
(g2
g3
NtRp258
(dp259
g53
V10.1038/35054705
p260
sg49
VNATURE
p261
sg51
V409
p262
sg80
(lp263
(VDICKSON
VD
tp264
asg59
I2001
sg47
V551
p265
sbag1
(g2
g3
NtRp266
(dp267
g53
Nsg49
VBIOL PLANTARUM
p268
sg51
V31
p269
sg80
(lp270
(VDOLEZEL
VJ
tp271
asg59
I1989
sg47
V113
p272
sbag1
(g2
g3
NtRp273
(dp274
g53
V10.1006/anbo.1998.0730
p275
sg49
VANN BOT
p276
sg51
V82
p277
sg80
(lp278
(VDOLEZEL
VJ
tp279
asg59
I1998
sg47
V17
p280
sbag1
(g2
g3
NtRp281
(dp282
g53
V10.1093/jexbot/51.suppl_1.487
p283
sg49
VJ EXP BOT
p284
sg51
V51
p285
sg80
(lp286
(VDUNWELL
VJ M
tp287
asg59
I2000
sg47
V487
p288
sbag1
(g2
g3
NtRp289
(dp290
g53
V10.1101/gr.10.7.895
p291
sg49
VGENOME RES
p292
sg51
V10
p293
sg80
(lp294
(VELLIS
VM C
tp295
asg59
I2000
sg47
V895
p296
sbag1
(g2
g3
NtRp297
(dp298
g53
V10.1046/j.1365-313X.1999.00549.x
p299
sg49
VPLANT J
p300
sg51
V19
p301
sg80
(lp302
(VENOKI
VH
tp303
asg59
I1999
sg47
VLANT
p304
sbag1
(g2
g3
NtRp305
(dp306
g53
V10.1016/0003-2697(83)90418-9
p307
sg49
VANAL BIOCHEM
p308
sg51
V132
p309
sg80
(lp310
(VFEINBERG
VA P
tp311
asg59
I1983
sg47
V6
sbag1
(g2
g3
NtRp312
(dp313
g53
V10.1038/81137
p314
sg49
VNAT BIOTECHNOL
p315
sg51
V18
p316
sg80
(lp317
(VFIEHN
VO
tp318
asg59
I2000
sg47
V1157
p319
sbag1
(g2
g3
NtRp320
(dp321
g53
Nsg49
VGENETICS
p322
sg51
V147
p323
sg80
(lp324
(VFOOTE
VT
tp325
asg59
I1997
sg47
V801
p326
sbag1
(g2
g3
NtRp327
(dp328
g53
V10.1038/nbt0990-833
p329
sg49
VBIO
p330
sg51
V8
sg80
(lp331
(VFROMM
VM E
tp332
asg59
I1990
sg47
V833
p333
sbag1
(g2
g3
NtRp334
(dp335
g53
V10.1126/science.220.4601.1049
p336
sg49
VSCIENCE
p337
sg51
V220
p338
sg80
(lp339
(VGALBRAITH
VD W
tp340
asg59
I1983
sg47
V1049
p341
sbag1
(g2
g3
NtRp342
(dp343
g53
V10.1073/pnas.95.5.1971
p344
sg49
VP NATL ACAD SCI USA
p345
sg51
V95
p346
sg80
(lp347
(VGALE
VM D
tp348
asg59
I1998
sg47
V1971
p349
sbag1
(g2
g3
NtRp350
(dp351
g53
V10.1093/nar/8.21.4851
p352
sg49
VNUCLEIC ACIDS RES
p353
sg51
V8
sg80
(lp354
(VGERLACH
VW L
tp355
asg59
I1980
sg47
V4851
p356
sbag1
(g2
g3
NtRp357
(dp358
g53
V10.1016/S1369-5266(99)80018-1
p359
sg49
VCURR OPIN PLANT BIOL
p360
sg51
V2
sg80
(lp361
(VGOFF
VS A
tp362
asg59
I1999
sg47
V86
p363
sbag1
(g2
g3
NtRp364
(dp365
g53
V10.1104/pp.95.2.426
p366
sg49
VPLANT PHYSIOL
p367
sg51
V95
p368
sg80
(lp369
(VGOULD
VJ
tp370
asg59
I1991
sg47
VLANT
p371
sbag1
(g2
g3
NtRp372
(dp373
g53
V10.1126/science.287.5452.412
p374
sg49
VSCIENCE
p375
sg51
V287
p376
sg80
(lp377
(VGURA
VT
tp378
asg59
I2000
sg47
V412
p379
sbag1
(g2
g3
NtRp380
(dp381
g53
V10.1016/S1360-1385(99)01412-0
p382
sg49
VTRENDS PLANT SCI
p383
sg51
V4
sg80
(lp384
(VHANSEN
VG
tp385
asg59
I1999
sg47
V226
p386
sbag1
(g2
g3
NtRp387
(dp388
g53
V10.1016/S0959-437X(96)80025-6
p389
sg49
VCURR OPIN GENET DEV
p390
sg51
V6
sg80
(lp391
(VHAVUKKALA
VI J
tp392
asg59
I1996
sg47
V711
p393
sbag1
(g2
g3
NtRp394
(dp395
g53
V10.1023/A:1005769605026
p396
sg49
VPLANT MOL BIOL
p397
sg51
V35
p398
sg80
(lp399
(VIZAWA
VT
tp400
asg59
I1997
sg47
VLANT
p401
sbag1
(g2
g3
NtRp402
(dp403
g53
V10.1016/S1360-1385(00)01629-0
p404
sg49
VTRENDS PLANT SCI
p405
sg51
V5
sg80
(lp406
(VKELLER
VB
tp407
asg59
I2000
sg47
V246
p408
sbag1
(g2
g3
NtRp409
(dp410
g53
V10.1111/j.1756-1051.1999.tb01108.x
p411
sg49
VNORD J BOT
p412
sg51
V19
p413
sg80
(lp414
(VKHAN
VM A
tp415
asg59
I1999
sg47
V257
p416
sbag1
(g2
g3
NtRp417
(dp418
g53
V10.1104/pp.91.1.440
p419
sg49
VPLANT PHYSIOL
p420
sg51
V91
p421
sg80
(lp422
(VKLEIN
VT M
tp423
asg59
I1989
sg47
VLANT
p424
sbag1
(g2
g3
NtRp425
(dp426
g53
V10.1046/j.1365-313x.2000.00843.x
p427
sg49
VPLANT J
p428
sg51
V23
p429
sg80
(lp430
(VLAUGE
VR
tp431
asg59
I2000
sg47
VLANT
p432
sbag1
(g2
g3
NtRp433
(dp434
g53
Nsg49
VPLANT CELL REP
p435
sg51
V12
p436
sg80
(lp437
(VLI
VL C
tp438
asg59
I1993
sg47
VLANT
p439
sbag1
(g2
g3
NtRp440
(dp441
g53
V10.1073/pnas.95.5.1983
p442
sg49
VP NATL ACAD SCI USA
p443
sg51
V95
p444
sg80
(lp445
(VMCCOUCH
VS
tp446
asg59
I1998
sg47
V1983
p447
sbag1
(g2
g3
NtRp448
(dp449
g53
V10.1007/BF00293832
p450
sg49
VMOL GEN GENET
p451
sg51
V231
p452
sg80
(lp453
(VMCELROY
VD
tp454
asg59
I1991
sg47
V150
p455
sbag1
(g2
g3
NtRp456
(dp457
g53
Nsg49
VSCIENCE
p458
sg51
V282
p459
sg80
(lp460
(VMEINKE
VD W
tp461
asg59
I1998
sg47
V679
p462
sbag1
(g2
g3
NtRp463
(dp464
g53
Nsg49
VPLANT CELL TISS ORG
p465
sg51
V25
p466
sg80
(lp467
(VMOONEY
VP A
tp468
asg59
I1991
sg47
VLANT
p469
sbag1
(g2
g3
NtRp470
(dp471
g53
V10.1038/nbt0593-584
p472
sg49
VBIO
p473
sg51
V11
p474
sg80
(lp475
(VMOORE
VG
tp476
asg59
I1993
sg47
V584
p477
sbag1
(g2
g3
NtRp478
(dp479
g53
V10.1093/nar/8.19.4321
p480
sg49
VNUCLEIC ACIDS RES
p481
sg51
V8
sg80
(lp482
(VMURRAY
VM G
tp483
asg59
I1980
sg47
V4321
p484
sbag1
(g2
g3
NtRp485
(dp486
g53
V10.1038/nbt0690-535
p487
sg49
VBIO
p488
sg51
V8
sg80
(lp489
(VPOTRYKUS
VI
tp490
asg59
I1990
sg47
V535
p491
sbag1
(g2
g3
NtRp492
(dp493
g53
V10.1016/0022-2836(86)90226-3
p494
sg49
VJ MOL BIOL
p495
sg51
V187
p496
sg80
(lp497
(VPRUITT
VR E
tp498
asg59
I1986
sg47
V169
p499
sbag1
(g2
g3
NtRp500
(dp501
g53
Nsg49
VBibliographia Genetica
p502
sg51
V20
p503
sg80
(lp504
(VREDEI
VG P
tp505
asg59
I1970
sg47
V1
sbag1
(g2
g3
NtRp506
(dp507
g53
Nsg49
VMOL CLONING LAB MANU
p508
sg51
Nsg80
(lp509
(VSAMBROOK
VJ
tp510
asg59
I1989
sg47
Nsbag1
(g2
g3
NtRp511
(dp512
g53
Nsg49
VPRACTICAL IN SITU HY
p513
sg51
Nsg80
(lp514
(VSCHWARZACHER
VT
tp515
asg59
I2000
sg47
VRACTICAL
p516
sbag1
(g2
g3
NtRp517
(dp518
g53
Nsg49
VTHESIS U LEICESTER L
p519
sg51
Nsg80
(lp520
(VSHI
VY
tp521
asg59
I1991
sg47
Nsbag1
(g2
g3
NtRp522
(dp523
g53
Nsg49
VPLANT SYST EVOL
p524
sg51
V188
p525
sg80
(lp526
(VSHI
VY
tp527
asg59
I1993
sg47
VLANT
p528
sbag1
(g2
g3
NtRp529
(dp530
g53
Nsg49
VARABIDOPSIS
p531
sg51
Nsg80
(lp532
(VSOMERVILLE
VC R
tp533
asg59
I1994
sg47
Nsbag1
(g2
g3
NtRp534
(dp535
g53
Nsg49
VNATURE
p536
sg51
V408
p537
sg80
(lp538
(VKAUL
VS
tp539
asg59
I2000
sg47
V796
p540
sbag1
(g2
g3
NtRp541
(dp542
g53
V10.1073/pnas.96.13.7409
p543
sg49
VP NATL ACAD SCI USA
p544
sg51
V96
p545
sg80
(lp546
(VTIKHONOV
VA P
tp547
asg59
I1999
sg47
V7409
p548
sbag1
(g2
g3
NtRp549
(dp550
g53
V10.1046/j.1365-313X.1997.11061369.x
p551
sg49
VPLANT J
p552
sg51
V11
p553
sg80
(lp554
(VTINGAY
VS
tp555
asg59
I1997
sg47
VLANT
p556
sbag1
(g2
g3
NtRp557
(dp558
g53
V10.1105/tpc.11.10.1841
p559
sg49
VPLANT CELL
p560
sg51
V11
p561
sg80
(lp562
(VTISSIER
VA F
tp563
asg59
I1999
sg47
VLANT
p564
sbag1
(g2
g3
NtRp565
(dp566
g53
V10.1016/S0168-9452(00)00325-3
p567
sg49
VPLANT SCI
p568
sg51
V158
p569
sg80
(lp570
(VTYAGI
VA K
tp571
asg59
I2000
sg47
VLANT
p572
sbag1
(g2
g3
NtRp573
(dp574
g53
Nsg49
VNUCLEIC ACIDS RES
p575
sg51
V18
p576
sg80
(lp577
(VUNFRIED
VI
tp578
asg59
I1990
sg47
V4011
p579
sbag1
(g2
g3
NtRp580
(dp581
g53
Nsg49
VBIOTECHNOLOGY
p582
sg51
V9
sg80
(lp583
(VVASIL
VV
tp584
asg59
I1991
sg47
V734
p585
sbag1
(g2
g3
NtRp586
(dp587
g53
Nsg49
VPLANT GENE ISOLATION
p588
sg51
Nsg80
(lp589
(VVIZIR
VI
tp590
asg59
I1996
sg47
VLANT
p591
sbag1
(g2
g3
NtRp592
(dp593
g53
Nsg49
VPLANT GENETIC TRANSF
p594
sg51
Nsg80
(lp595
(VWALDEN
VR
tp596
asg59
I1988
sg47
VLANT
p597
sbag1
(g2
g3
NtRp598
(dp599
g53
V10.1046/j.1365-313X.1993.t01-11-00999.x
p600
sg49
VPLANT J
p601
sg51
V3
sg80
(lp602
(VWARNER
VS A J
tp603
asg59
I1993
sg47
VLANT
p604
sbag1
(g2
g3
NtRp605
(dp606
g53
V10.1007/s001220051081
p607
sg49
VTHEOR APPL GENET
p608
sg51
V98
p609
sg80
(lp610
(VZHONG
VX B
tp611
asg59
I1999
sg47
V365
p612
sbasb.