ccopy_reg
_reconstructor
p1
(ctethne.classes.paper
Paper
p2
c__builtin__
object
p3
NtRp4
(dp5
S'publisherCity'
p6
VROCKVILLE
p7
sS'reprintAddress'
p8
VPeters, JL (reprint author), Catholic Univ Nijmegen, Dept Expt Bot, Toernooiveld 1, NL-6525 ED Nijmegen, Netherlands.
p9
sS'WC'
p10
VPlant Sciences
p11
sS'GA'
p12
V503WK
p13
sS'abstract'
p14
VWe have positioned amplified fragment-length polymorphism (AFLP) markers directly on the genome sequence of a complex organism, Arabidopsis, by combining gel-based AFLP analysis with in silico restriction fragment analysis using the published genome sequence. For placement of the markers, we used information on restriction fragment size, four selective nucleotides, and the rough genetic position of the markers as deduced from the analysis of a limited number of Columbia (Col)/Landsberg (Ler) recombinant inbred lines. This approach allows for exact physical positioning of markers as opposed to the statistical localization resulting from traditional genetic mapping procedures. In addition, it is fast because no extensive segregation analysis is needed. In principle, the method can be applied to all organisms for which a complete or nearly complete genome sequence is available. We have located 1,267 AFLP Col/Ler markers resulting from 256 SacI+2, MseI + 2 primer combinations to a physical position on the Arabidopsis genome. The positioning was verified by sequence analysis of 70 markers and by segregation analysis of two leaf-form mutants. Approximately 50% of the mapped Col/Ler AFLP markers can be used for segregation analysis in Col/C24, Col/Wassilewskija, or Col/Cape Verde Islands crosses. We present data on one such cross: the localization of a viviparous-like mutant segregating in a Col/C24 cross.
p15
sS'pageEnd'
p16
I1589
sS'date'
p17
I2001
sS'documentType'
p18
VArticle
p19
sS'subject'
p20
VPlant Sciences
p21
sS'isoSource'
p22
VPlant Physiol.
p23
sS'timesCited'
p24
(lp25
I57
aVZ9 59
p26
asS'PT'
p27
VJ
sS'title'
p28
VA Physical Amplified Fragment-Length Polymorphism Map Of Arabidopsis
p29
sS'ISSN'
p30
(lp31
V0032-0889
p32
aVJ9 PLANT PHYSIOL
p33
asS'authors_full'
p34
(lp35
(VPETERS
VJL
tp36
a(VCONSTANDT
VH
tp37
a(VNEYT
VP
tp38
a(VCNOPS
VG
tp39
a(VZETHOF
VJ
tp40
a(VZABEAU
VM
tp41
a(VGERATS
VT
tp42
asS'PG'
p43
I11
sS'PD'
p44
VDEC
p45
sS'pageStart'
p46
I1579
sS'issue'
p47
I4
sS'RI'
p48
VGerats, Tom/A-3528-2012; Peters, Janny/K-7745-2013
p49
sS'journal'
p50
VPLANT PHYSIOLOGY
p51
sS'volume'
p52
V127
p53
sS'doi'
p54
V10.1104/pp.127.4.1579
p55
sS'emailAddress'
p56
Vjapet@sci.kun.nl
p57
sS'authorAddress'
p58
VState Univ Ghent VIB, Dept Plant Genet, B-9000 Ghent, Belgium.
p59
sS'publisherAddress'
p60
V15501 MONONA DRIVE, ROCKVILLE, MD 20855 USA
p61
sS'ER'
p62
V
sS'publisher'
p63
VAMER SOC PLANT BIOLOGISTS
p64
sS'authorKeywords'
p65
(lp66
VAFLP MARKERS
p67
aVGENOME SEQUENCE
p68
aVTHALIANA
p69
aVCLONING
p70
asS'OI'
p71
VPeters, Janny/0000-0002-1081-5209
p72
sS'language'
p73
VEnglish
p74
sS'wosid'
p75
VWOS:000172824500039
p76
sS'citationCount'
p77
I21
sS'authors_init'
p78
(lp79
(VPETERS
VJ L
tp80
a(VCONSTANDT
VH
tp81
a(VNEYT
VP
tp82
a(VCNOPS
VG
tp83
a(VZETHOF
VJ
tp84
a(VZABEAU
VM
tp85
a(VGERATS
VT
tp86
asS'citedReferences'
p87
(lp88
g1
(g2
g3
NtRp89
(dp90
g54
V10.1126/science.287.5461.2185
p91
sg50
VSCIENCE
p92
sg52
V287
p93
sg78
(lp94
(VADAMS
VM D
tp95
asg17
I2000
sg46
V2185
p96
sbag1
(g2
g3
NtRp97
(dp98
g54
V10.1046/j.1365-313X.1998.00115.x
p99
sg50
VPLANT J
p100
sg52
V14
p101
sg78
(lp102
(VALONSO-BLANCO
VC
tp103
asg17
I1998
sg46
VLANT
p104
sbag1
(g2
g3
NtRp105
(dp106
g54
V10.1016/S0923-2508(99)80044-8
p107
sg50
VRES MICROBIOL
p108
sg52
V150
p109
sg78
(lp110
(VARNOLD
VC
tp111
asg17
I1999
sg46
V33
p112
sbag1
(g2
g3
NtRp113
(dp114
g54
Nsg50
VGENETICS
p115
sg52
V152
p116
sg78
(lp117
(VBERNA
VG
tp118
asg17
I1999
sg46
V729
p119
sbag1
(g2
g3
NtRp120
(dp121
g54
V10.1038/13833
p122
sg50
VNAT GENET
p123
sg52
V23
p124
sg78
(lp125
(VCHO
VR J
tp126
asg17
I1999
sg46
V203
p127
sbag1
(g2
g3
NtRp128
(dp129
g54
V10.1126/science.286.5449.2468
p130
sg50
VSCIENCE
p131
sg52
V286
p132
sg78
(lp133
(VCOPENHAVER
VG P
tp134
asg17
I1999
sg46
V2468
p135
sbag1
(g2
g3
NtRp136
(dp137
g54
V10.1104/pp.124.4.1483
p138
sg50
VPLANT PHYSIOL
p139
sg52
V124
p140
sg78
(lp141
(VDRENKARD
VE
tp142
asg17
I2000
sg46
VLANT
p143
sbag1
(g2
g3
NtRp144
(dp145
g54
Nsg50
VCROP SCI
p146
sg52
V37
p147
sg78
(lp148
(VKEIM
VP
tp149
asg17
I1997
sg46
V537
p150
sbag1
(g2
g3
NtRp151
(dp152
g54
Nsg50
VMETH MOL B
p153
sg52
V82
p154
sg78
(lp155
(VKUIPER
VM T R
tp156
asg17
I1998
sg46
V157
p157
sbag1
(g2
g3
NtRp158
(dp159
g54
V10.1038/45471
p160
sg50
VNATURE
p161
sg52
V402
p162
sg78
(lp163
(VLIN
VX Y
tp164
asg17
I1999
sg46
V761
p165
sbag1
(g2
g3
NtRp166
(dp167
g54
V10.1046/j.1365-313X.1993.04040745.x
p168
sg50
VPLANT J
p169
sg52
V4
sg78
(lp170
(VLISTER
VC
tp171
asg17
I1993
sg46
VLANT
p172
sbag1
(g2
g3
NtRp173
(dp174
g54
V10.1104/pp.123.3.795
p175
sg50
VPLANT PHYSIOL
p176
sg52
V123
p177
sg78
(lp178
(VLUKOWITZ
VW
tp179
asg17
I2000
sg46
VLANT
p180
sbag1
(g2
g3
NtRp181
(dp182
g54
Nsg50
VNATURE
p183
sg52
V402
p184
sg78
(lp185
(VMAYER
VK
tp186
asg17
I1999
sg46
V769
p187
sbag1
(g2
g3
NtRp188
(dp189
g54
Nsg50
VHEREDITY
p190
sg52
V79
p191
sg78
(lp192
(VPOWELL
VW
tp193
asg17
I1997
sg46
V48
p194
sbag1
(g2
g3
NtRp195
(dp196
g54
V10.1093/nar/29.7.1616
p197
sg50
VNUCLEIC ACIDS RES
p198
sg52
V29
p199
sg78
(lp200
(VQIN
VL
tp201
asg17
I2001
sg46
V1616
p202
sbag1
(g2
g3
NtRp203
(dp204
g54
V10.1007/s004380100535
p205
sg50
VMOL GENET GENOMICS
p206
sg52
V266
p207
sg78
(lp208
(VROBLES
VP
tp209
asg17
I2001
sg46
V12
p210
sbag1
(g2
g3
NtRp211
(dp212
g54
Nsg50
VNATURE
p213
sg52
V408
p214
sg78
(lp215
(VKAUL
VS
tp216
asg17
I2000
sg46
V796
p217
sbag1
(g2
g3
NtRp218
(dp219
g54
V10.1126/science.282.5396.2012
p220
sg50
VScience 
p221
sg52
V282
p222
sg78
(lp223
(VTHE C ELEGANS SEQUENCING CONSORTIUM
S''
tp224
asg17
I1998
sg46
V2012
p225
sbag1
(g2
g3
NtRp226
(dp227
g54
Nsg50
VMOL BREEDING
p228
sg52
V1
sg78
(lp229
(VVANECK
VH J
tp230
asg17
I1995
sg46
V397
p231
sbag1
(g2
g3
NtRp232
(dp233
g54
V10.1093/nar/23.21.4407
p234
sg50
VNUCLEIC ACIDS RES
p235
sg52
V23
p236
sg78
(lp237
(VVOS
VP
tp238
asg17
I1995
sg46
V4407
p239
sbag1
(g2
g3
NtRp240
(dp241
g54
V10.1007/s001220051399
p242
sg50
VTHEOR APPL GENET
p243
sg52
V99
p244
sg78
(lp245
(VVUYLSTEKE
VM
tp246
asg17
I1999
sg46
V921
p247
sbasb.