ccopy_reg
_reconstructor
p1
(ctethne.classes.paper
Paper
p2
c__builtin__
object
p3
NtRp4
(dp5
S'publisherCity'
p6
VPHILADELPHIA
p7
sS'reprintAddress'
p8
VSundaramanickam, A (reprint author), Annamalai Univ, Fac Marine Sci, Ctr Adv Study Marine Biol, Parangipettai 608502, Tamil Nadu, India.
p9
sS'WC'
p10
(lp11
VENVIRONMENTAL SCIENCES
p12
asS'GA'
p13
VCH1HF
p14
sS'FX'
p15
(lp16
VThis work was supported by the Ministry of Earth Sciences (MoES), India
p17
aV(Grant No. ICMAM-PD/SWQM/CASMB/35/2012).
p18
asS'abstract'
p19
VBiosurfactants are surface-active biomolecules produced by microbes (bacteria, fungi, and yeast) and have several advantages over the chemical surfactants, such as lower toxicity, higher biodegradability, better environmental compatibility, higher foaming, high selectivity, and specific activity under extreme conditions such as temperature, pH, and salinity. Almost all the surfactants now available in the market are chemically synthesized. Recently, attention toward the biosurfactants was doubled, which is mainly due to their wide range of functional properties and the diverse synthetic capabilities of the microbes. Microbial biosurfactants are found to have a wide range of applications in environmental protection, which include enhancing oil recovery, controlling oil spills, biodegradation, and detoxification of oil-contaminated industrial effluents and soils. Biosurfactants produced by microorganisms have potential applications in pharmaceutical/medicine, food, cosmetic, pesticide, oil, and biodegradation industries. In this review article, we concentrated on three important aspects such as various types of biosurfactants, the group of microbes involved in the production of biosurfactants, and application of microbial biosurfactants.
p20
sS'keywordsPlus'
p21
(lp22
VBIODEGRADATION
p23
aVCONTAMINATION
p24
aVBIOSURFACTANT
p25
aVMICROBES
p26
aVBIOEMULSIFIER
p27
asS'pageEnd'
p28
I1554
sS'date'
p29
I2015
sS'documentType'
p30
VReview
p31
sS'subject'
p32
(lp33
VENVIRONMENTAL SCIENCES & ECOLOGY
p34
asS'isoSource'
p35
VCrit. Rev. Environ. Sci. Technol.
p36
sS'timesCited'
p37
(lp38
I1
aVZ9 1
p39
asS'funding'
p40
(lp41
(VMinistry of Earth Sciences (MoES), India
VICMAM-PD/SWQM/CASMB/35/2012
tp42
asS'PT'
p43
VJ
sS'title'
p44
VBiosurfactant Producing Microbes And Their Potential Applications: A Review
p45
sS'ISSN'
p46
V1064-3389
p47
sS'authors_full'
p48
(lp49
(VSHEKHAR
VSUDHANSHU
tp50
a(VSUNDARAMANICKAM
VARUMUGAM
tp51
a(VBALASUBRAMANIAN
VTANGAVEL
tp52
asS'PG'
p53
I33
sS'PD'
p54
VJUL 18
p55
sS'pageStart'
p56
I1522
sS'issue'
p57
I14
sS'RI'
p58
Vahmed, Jamila/E-8653-2015
p59
sS'EI'
p60
(lp61
V1547-6537
p62
aVJ9 CRIT REV ENV SCI TEC
p63
asS'journal'
p64
VCRITICAL REVIEWS IN ENVIRONMENTAL SCIENCE AND TECHNOLOGY
p65
sS'volume'
p66
V45
p67
sS'doi'
p68
V10.1080/10643389.2014.955631
p69
sS'emailAddress'
p70
Vfish_lar@yahoo.com
p71
sS'authorAddress'
p72
V[Shekhar, Sudhanshu; Sundaramanickam, Arumugam; Balasubramanian, Tangavel] Annamalai Univ, Fac Marine Sci, Ctr Adv Study Marine Biol, Parangipettai 608502, Tamil Nadu, India.
p73
sS'publisherAddress'
p74
V530 WALNUT STREET, STE 850, PHILADELPHIA, PA 19106 USA
p75
sS'publisher'
p76
VTAYLOR & FRANCIS INC
p77
sS'authorKeywords'
p78
(lp79
VENHANCED OIL-RECOVERY
p80
aVACINETOBACTER-CALCOACETICUS A2
p81
aVSTREPTOCOCCUS-THERMOPHILUS-A
p82
aVSURFACE-ACTIVE PROPERTIES
p83
aVBACILLUS-SUBTILIS
p84
aVMANNOSYLERYTHRITOL LIPIDS
p85
aVCRUDE-OIL
p86
aVPSEUDOMONAS-AERUGINOSA
p87
aVMARINE MICROORGANISMS
p88
aVYARROWIA-LIPOLYTICA
p89
asS'language'
p90
VEnglish
p91
sS'wosid'
p92
VWOS:000353771400002
p93
sS'citationCount'
p94
I200
sS'authors_init'
p95
(lp96
(VSHEKHAR
VS
tp97
a(VSUNDARAMANICKAM
VA
tp98
a(VBALASUBRAMANIAN
VT
tp99
asS'citedReferences'
p100
(lp101
g1
(g2
g3
NtRp102
(dp103
g68
V10.1016/S0005-2760(98)00058-7
p104
sg64
VBBA
p105
sg66
V1393
p106
sg95
(lp107
(VABRAHAM
VW R
tp108
asg29
I1998
sg56
V57
p109
sbag1
(g2
g3
NtRp110
(dp111
g68
V10.1002/abio.370110405
p112
sg64
VACTA BIOTECHNOL
p113
sg66
V11
p114
sg95
(lp115
(VABURUWAIDA
VA S
tp116
asg29
I1991
sg56
V315
p117
sbag1
(g2
g3
NtRp118
(dp119
g68
V10.1007/BF02310920
p120
sg64
VWORLD J MICROB BIOT
p121
sg66
V7
sg95
(lp122
(VABURUWAIDA
VA S
tp123
asg29
I1991
sg56
V53
p124
sbag1
(g2
g3
NtRp125
(dp126
g68
V10.1007/BF01642388
p127
sg64
VCURR MICROBIOL
p128
sg66
V6
sg95
(lp129
(VAKIT
VJ
tp130
asg29
I1981
sg56
V145
p131
sbag1
(g2
g3
NtRp132
(dp133
g68
V10.1016/j.procbio.2006.03.029
p134
sg64
VPROCESS BIOCHEM
p135
sg66
V41
p136
sg95
(lp137
(VAMARAL
VP F F
tp138
asg29
I2006
sg56
VROCESS
p139
sbag1
(g2
g3
NtRp140
(dp141
g68
V10.1016/j.biortech.2005.11.025
p142
sg64
VBIORESOURCE TECHNOL
p143
sg66
V98
p144
sg95
(lp145
(VAMEZCUA-VEGA
VC
tp146
asg29
I2007
sg56
V237
p147
sbag1
(g2
g3
NtRp148
(dp149
g68
Nsg64
VJ BIOSCI TECH
p150
sg66
V1
sg95
(lp151
(VANANDARAJ
VB
tp152
asg29
I2010
sg56
V120
p153
sbag1
(g2
g3
NtRp154
(dp155
g68
V10.1186/1475-2859-8-63
p156
sg64
VMICROB CELL FACT
p157
sg66
V8
sg95
(lp158
(VARGUELLES-ARIAS
VA
tp159
asg29
I2009
sg56
Nsbag1
(g2
g3
NtRp160
(dp161
g68
V10.1016/0006-291X(68)90503-2
p162
sg64
VBIOCHEM BIOPH RES CO
p163
sg66
V31
p164
sg95
(lp165
(VARIMA
VK
tp166
asg29
I1968
sg56
V488
p167
sbag1
(g2
g3
NtRp168
(dp169
g68
V10.1016/j.jenvman.2009.09.036
p170
sg64
VJ ENVIRON MANAGE
p171
sg66
V91
p172
sg95
(lp173
(VASCI
VY
tp174
asg29
I2010
sg56
V724
p175
sbag1
(g2
g3
NtRp176
(dp177
g68
V10.1016/S0169-7722(96)00034-4
p178
sg64
VJ CONTAM HYDROL
p179
sg66
V25
p180
sg95
(lp181
(VBAI
VG Y
tp182
asg29
I1997
sg56
V157
p183
sbag1
(g2
g3
NtRp184
(dp185
g68
Nsg64
VDEV PETR SCI
p186
sg66
V39
p187
sg95
(lp188
(VBAN
VT
tp189
asg29
I1993
sg56
V115
p190
sbag1
(g2
g3
NtRp191
(dp192
g68
V10.1016/S0032-9592(03)00065-7
p193
sg64
VPROCESS BIOCHEM
p194
sg66
V39
p195
sg95
(lp196
(VBANAT
VF
tp197
asg29
I2003
sg56
VROCESS
p198
sbag1
(g2
g3
NtRp199
(dp200
g68
V10.1016/0960-8524(94)00101-6
p201
sg64
VBIORESOURCE TECHNOL
p202
sg66
V51
p203
sg95
(lp204
(VBANAT
VI M
tp205
asg29
I1995
sg56
V1
sbag1
(g2
g3
NtRp206
(dp207
g68
V10.1007/s00253-010-2589-0
p208
sg64
VAPPL MICROBIOL BIOT
p209
sg66
V87
p210
sg95
(lp211
(VBANAT
VI M
tp212
asg29
I2010
sg56
V427
p213
sbag1
(g2
g3
NtRp214
(dp215
g68
V10.1007/BF00138546
p216
sg64
VBIOTECHNOL LETT
p217
sg66
V15
p218
sg95
(lp219
(VBANAT
VI M
tp220
asg29
I1993
sg56
V591
p221
sbag1
(g2
g3
NtRp222
(dp223
g68
V10.1002/abio.370150302
p224
sg64
VACTA BIOTECHNOL
p225
sg66
V15
p226
sg95
(lp227
(VBANAT
VI M
tp228
asg29
I1995
sg56
V251
p229
sbag1
(g2
g3
NtRp230
(dp231
g68
Nsg64
VAPPL ENVIRON MICROB
p232
sg66
V65
p233
sg95
(lp234
(VBARKAY
VT
tp235
asg29
I1999
sg56
V2697
p236
sbag1
(g2
g3
NtRp237
(dp238
g68
V10.1016/j.biortech.2005.04.020
p239
sg64
VBIORESOURCE TECHNOL
p240
sg66
V97
p241
sg95
(lp242
(VBATISTA
VS B
tp243
asg29
I2006
sg56
V868
p244
sbag1
(g2
g3
NtRp245
(dp246
g68
V10.1128/AEM.00730-09
p247
sg64
VAPPL ENVIRON MICROB
p248
sg66
V75
p249
sg95
(lp250
(VBEGLEY
VM
tp251
asg29
I2009
sg56
V5451
p252
sbag1
(g2
g3
NtRp253
(dp254
g68
V10.1016/0014-5793(79)81320-4
p255
sg64
VFEBS LETT
p256
sg66
V101
p257
sg95
(lp258
(VBELSKY
VI
tp259
asg29
I1979
sg56
V175
p260
sbag1
(g2
g3
NtRp261
(dp262
g68
V10.1016/j.biotech.2004.09.008
p263
sg64
VBIORESOURCE TECHNOL
p264
sg66
V96
p265
sg95
(lp266
(VBENTO
VF M
tp267
asg29
I2005
sg56
V1049
p268
sbag1
(g2
g3
NtRp269
(dp270
g68
Nsg64
VJ GEN MICROBIOL
p271
sg66
V61
p272
sg95
(lp273
(VBERNHEIMAW
S''
tp274
asg29
I1970
sg56
V361
p275
sbag1
(g2
g3
NtRp276
(dp277
g68
V10.1007/BF01021050
p278
sg64
VBIOTECHNOL LETT
p279
sg66
V14
p280
sg95
(lp281
(VBESSON
VF
tp282
asg29
I1992
sg56
V1013
p283
sbag1
(g2
g3
NtRp284
(dp285
g68
V10.1128/AEM.69.6.3280-3287.2003
p286
sg64
VAPPL ENVIRON MICROB
p287
sg66
V69
p288
sg95
(lp289
(VBODOUR
VA A
tp290
asg29
I2003
sg56
V3280
p291
sbag1
(g2
g3
NtRp292
(dp293
g68
V10.1016/S0927-7757(98)00684-0
p294
sg64
VCOLLOID SURFACE A
p295
sg66
V152
p296
sg95
(lp297
(VBOGNOLO
VG
tp298
asg29
I1999
sg56
V41
p299
sbag1
(g2
g3
NtRp300
(dp301
g68
Nsg64
VUS Patent
p302
sg66
Nsg95
(lp303
(VBORZEIX
VC
tp304
asg29
I2003
sg56
Vatent
p305
sbag1
(g2
g3
NtRp306
(dp307
g68
V10.1016/j.jcis.2011.05.054
p308
sg64
VJ COLLOID INTERF SCI
p309
sg66
V361
p310
sg95
(lp311
(VBURGOS-DIAZ
VC
tp312
asg29
I2011
sg56
V195
p313
sbag1
(g2
g3
NtRp314
(dp315
g68
Nsg64
VAPPL ENVIRON MICROB
p316
sg66
V63
p317
sg95
(lp318
(VBUSSCHER
VH J
tp319
asg29
I1997
sg56
V3810
p320
sbag1
(g2
g3
NtRp321
(dp322
g68
V10.1007/BF01569916
p323
sg64
VJ IND MICROBIOL
p324
sg66
V16
p325
sg95
(lp326
(VBUSSCHER
VH J
tp327
asg29
I1996
sg56
V15
p328
sbag1
(g2
g3
NtRp329
(dp330
g68
V10.1038/sj.jim.2900513
p331
sg64
VJ IND MICROBIOL BIOT
p332
sg66
V20
p333
sg95
(lp334
(VCALVO
VC
tp335
asg29
I1998
sg56
V205
p336
sbag1
(g2
g3
NtRp337
(dp338
g68
Nsg64
VAPPL ENVIRON MICROB
p339
sg66
V54
p340
sg95
(lp341
(VCAMERON
VD R
tp342
asg29
I1988
sg56
V1420
p343
sbag1
(g2
g3
NtRp344
(dp345
g68
V10.1007/BF00327807
p346
sg64
VWORLD J MICROB BIOT
p347
sg66
V12
p348
sg95
(lp349
(VCARRILLO
VP G
tp350
asg29
I1996
sg56
V82
p351
sbag1
(g2
g3
NtRp352
(dp353
g68
V10.1016/S1389-1723(00)87664-1
p354
sg64
VJ BIOSCI BIOENG
p355
sg66
V88
p356
sg95
(lp357
(VCASAS
VJ A
tp358
asg29
I1999
sg56
V488
p359
sbag1
(g2
g3
NtRp360
(dp361
g68
V10.1016/S0168-1656(03)00067-1
p362
sg64
VJ BIOTECHNOL
p363
sg66
V103
p364
sg95
(lp365
(VCAVALERO
VD A
tp366
asg29
I2003
sg56
V31
p367
sbag1
(g2
g3
NtRp368
(dp369
g68
Nsg64
VENV ENG
p370
sg66
V20
p371
sg95
(lp372
(VCHA
VD K
tp373
asg29
I2000
sg56
V1
sbag1
(g2
g3
NtRp374
(dp375
g68
V10.1016/0168-1656(95)00175-1
p376
sg64
VJ BIOTECHNOL
p377
sg66
V45
p378
sg95
(lp379
(VCHOI
VJ W
tp380
asg29
I1996
sg56
V217
p381
sbag1
(g2
g3
NtRp382
(dp383
g68
V10.1046/j.1365-2672.2002.01774.x
p384
sg64
VJ APPL MICROBIOL
p385
sg66
V93
p386
sg95
(lp387
(VCHRISTOFI
VN
tp388
asg29
I2002
sg56
V915
p389
sbag1
(g2
g3
NtRp390
(dp391
g68
Nsg64
VAPPL ENVIRON MICROB
p392
sg66
V48
p393
sg95
(lp394
(VCIRIGLIANO
VM C
tp395
asg29
I1984
sg56
V747
p396
sbag1
(g2
g3
NtRp397
(dp398
g68
Nsg64
VAPPL ENVIRON MICROB
p399
sg66
V50
p400
sg95
(lp401
(VCIRIGLIANO
VM C
tp402
asg29
I1985
sg56
V846
p403
sbag1
(g2
g3
NtRp404
(dp405
g68
Nsg64
VSURFACTANTS AGGREGAT
p406
sg66
Nsg95
(lp407
(VCLINT
VJ
tp408
asg29
I1992
sg56
Nsbag1
(g2
g3
NtRp409
(dp410
g68
V10.1242/jcs.00799
p411
sg64
VJ CELL SCI
p412
sg66
V116
p413
sg95
(lp414
(VCOELHO
VP A
tp415
asg29
I2003
sg56
V4763
p416
sbag1
(g2
g3
NtRp417
(dp418
g68
V10.1016/S0065-2164(08)70335-6
p419
sg64
VADV APPL MICROBIOL
p420
sg66
V26
p421
sg95
(lp422
(VCOOPER
VD G
tp423
asg29
I1980
sg56
V229
p424
sbag1
(g2
g3
NtRp425
(dp426
g68
Nsg64
VAPPL ENVIRON MICROB
p427
sg66
V47
p428
sg95
(lp429
(VCOOPER
VD G
tp430
asg29
I1984
sg56
V173
p431
sbag1
(g2
g3
NtRp432
(dp433
g68
Nsg64
VAPPL ENVIRON MICROB
p434
sg66
V46
p435
sg95
(lp436
(VCOOPER
VD G
tp437
asg29
I1983
sg56
V1426
p438
sbag1
(g2
g3
NtRp439
(dp440
g68
V10.1016/j.colsurfb.2011.01.011
p441
sg64
VCOLLOID SURFACE B
p442
sg66
V84
p443
sg95
(lp444
(VDARVISHI
VP
tp445
asg29
I2011
sg56
V292
p446
sbag1
(g2
g3
NtRp447
(dp448
g68
V10.1016/j.biortech.2006.05.032
p449
sg64
VBIORESOURCE TECHNOL
p450
sg66
V98
p451
sg95
(lp452
(VDAS
VK
tp453
asg29
I2007
sg56
V1339
p454
sbag1
(g2
g3
NtRp455
(dp456
g68
V10.1016/j.chemosphere.2008.05.015
p457
sg64
VCHEMOSPHERE
p458
sg66
V72
p459
sg95
(lp460
(VDAS
VP
tp461
asg29
I2008
sg56
V1229
p462
sbag1
(g2
g3
NtRp463
(dp464
g68
V10.1016/j.colsurfb.2009.02.004
p465
sg64
VCOLLOID SURFACE B
p466
sg66
V71
p467
sg95
(lp468
(VDAS
VP
tp469
asg29
I2009
sg56
V183
p470
sbag1
(g2
g3
NtRp471
(dp472
g68
V10.1111/j.1365-2672.2007.03701.x
p473
sg64
VJ APPL MICROBIOL
p474
sg66
V104
p475
sg95
(lp476
(VDAS
VP
tp477
asg29
I2008
sg56
V1675
p478
sbag1
(g2
g3
NtRp479
(dp480
g68
Nsg64
VCURR SCI INDIA
p481
sg66
V57
p482
sg95
(lp483
(VDESAI
VA J
tp484
asg29
I1988
sg56
V500
p485
sbag1
(g2
g3
NtRp486
(dp487
g68
Nsg64
VMICROBIOL MOL BIOL R
p488
sg66
V61
p489
sg95
(lp490
(VDESAI
VJ D
tp491
asg29
I1997
sg56
V47
p492
sbag1
(g2
g3
NtRp493
(dp494
g68
V10.1002/bit.260400113
p495
sg64
VBIOTECHNOL BIOENG
p496
sg66
V40
p497
sg95
(lp498
(VDROUIN
VC M
tp499
asg29
I1992
sg56
V86
p500
sbag1
(g2
g3
NtRp501
(dp502
g68
Nsg64
VMikrobiologicheskii Zhurnal 
p503
sg66
V53
p504
sg95
(lp505
(VELISEEV
VS A
tp506
asg29
I1991
sg56
V61
p507
sbag1
(g2
g3
NtRp508
(dp509
g68
V10.13005/bbra/1161
p510
sg64
VBiosciences
p511
sg66
V10
p512
sg95
(lp513
(VEL-SHESHTAWY
VH S
tp514
asg29
I2013
sg56
V515
p515
sbag1
(g2
g3
NtRp516
(dp517
g68
V10.1016/j.enzmictec.2006.04.013
p518
sg64
VENZYME MICROB TECH
p519
sg66
V40
p520
sg95
(lp521
(VFELSE
VP A
tp522
asg29
I2007
sg56
V316
p523
sbag1
(g2
g3
NtRp524
(dp525
g68
V10.1021/cr00021a001
p526
sg64
VCHEM REV
p527
sg66
V93
p528
sg95
(lp529
(VFENICAL
VW
tp530
asg29
I1993
sg56
V1673
p531
sbag1
(g2
g3
NtRp532
(dp533
g68
V10.1590/S1517-83822007000400022
p534
sg64
VBRAZ J MICROBIOL
p535
sg66
V38
p536
sg95
(lp537
(VFERNANDES
VP A V
tp538
asg29
I2007
sg56
V704
p539
sbag1
(g2
g3
NtRp540
(dp541
g68
V10.1023/A:1008256110136
p542
sg64
VBIODEGRADATION
p543
sg66
V8
sg95
(lp544
(VFIEBIG
VR
tp545
asg29
I1997
sg56
V67
p546
sbag1
(g2
g3
NtRp547
(dp548
g68
V10.1002/bit.260180709
p549
sg64
VBIOTECHNOL BIOENG
p550
sg66
V18
p551
sg95
(lp552
(VKAEPPELI
VO
tp553
asg29
I1976
sg56
V967
p554
sbag1
(g2
g3
NtRp555
(dp556
g68
V10.1016/0167-7799(92)90215-H
p557
sg64
VTRENDS BIOTECHNOL
p558
sg66
V10
p559
sg95
(lp560
(VFIECHTER
VA
tp561
asg29
I1992
sg56
V208
p562
sbag1
(g2
g3
NtRp563
(dp564
g68
Nsg64
VCHEMOSPHERE
p565
sg66
V75
p566
sg95
(lp567
(VFRAZETTI
VA
tp568
asg29
I2009
sg56
V801
p569
sbag1
(g2
g3
NtRp570
(dp571
g68
V10.1086/340126
p572
sg64
VJ INFECT DIS
p573
sg66
V185
p574
sg95
(lp575
(VGAN
VB S
tp576
asg29
I2002
sg56
V1369
p577
sbag1
(g2
g3
NtRp578
(dp579
g68
V10.1016/j.jhazmat.2010.09.076
p580
sg64
VJ HAZARD MATER
p581
sg66
V185
p582
sg95
(lp583
(VGAO
VY Z
tp584
asg29
I2011
sg56
V703
p585
sbag1
(g2
g3
NtRp586
(dp587
g68
VDOI 10.5650/J0S.55.155
p588
sg64
VJ OLEO SCI
p589
sg66
V55
p590
sg95
(lp591
(VGAUTAM
VK K
tp592
asg29
I2005
sg56
V155
p593
sbag1
(g2
g3
NtRp594
(dp595
g68
V10.1038/nbt0192-60
p596
sg64
VBIO
p597
sg66
V10
p598
sg95
(lp599
(VGEORGIOU
VG
tp600
asg29
I1992
sg56
V60
p601
sbag1
(g2
g3
NtRp602
(dp603
g68
Nsg64
VAPPL MICROBIOL BIOT
p604
sg66
V48
p605
sg95
(lp606
(VGILEWICZ
VM
tp607
asg29
I1997
sg56
V528
p608
sbag1
(g2
g3
NtRp609
(dp610
g68
V10.1007/BF00140041
p611
sg64
VBIOTECHNOL LETT
p612
sg66
V6
sg95
(lp613
(VGOBBERT
VU
tp614
asg29
I1984
sg56
V225
p615
sbag1
(g2
g3
NtRp616
(dp617
g68
V10.1016/j.colsurfb.2009.11.008
p618
sg64
VCOLLOID SURFACE B
p619
sg66
V76
p620
sg95
(lp621
(VGUDINA
VE J
tp622
asg29
I2010
sg56
V298
p623
sbag1
(g2
g3
NtRp624
(dp625
g68
Nsg64
VAPPL MICROBIOL BIOT
p626
sg66
V24
p627
sg95
(lp628
(VGUERRASANTOS
VL H
tp629
asg29
I1986
sg56
V443
p630
sbag1
(g2
g3
NtRp631
(dp632
g68
V10.1007/s00253-007-1091-9
p633
sg64
VAPPL MICROBIOL BIOT
p634
sg66
V76
p635
sg95
(lp636
(VGUTIERREZ
VT
tp637
asg29
I2007
sg56
V1017
p638
sbag1
(g2
g3
NtRp639
(dp640
g68
V10.1111/j.1365-2672.2007.03407.x
p641
sg64
VJ APPL MICROBIOL
p642
sg66
V103
p643
sg95
(lp644
(VGUTIERREZ
VT
tp645
asg29
I2007
sg56
V1716
p646
sbag1
(g2
g3
NtRp647
(dp648
g68
Nsg64
VBIOSURFACTANTS BIOTE
p649
sg66
Nsg95
(lp650
(VGUTNICK
VD L
tp651
asg29
I1987
sg56
V211
p652
sbag1
(g2
g3
NtRp653
(dp654
g68
Nsg64
VADV BIOCHEM ENG BIOT
p655
sg66
V33
p656
sg95
(lp657
(VHAFERBURG
VD
tp658
asg29
I1986
sg56
V53
p659
sbag1
(g2
g3
NtRp660
(dp661
g68
Nsg64
VAGR BIOL CHEM TOKYO
p662
sg66
V35
p663
sg95
(lp664
(VHISATSUKKI
S''
tp665
asg29
I1971
sg56
V686
p666
sbag1
(g2
g3
NtRp667
(dp668
g68
V10.1021/np980341e
p669
sg64
VJ NAT PROD
p670
sg66
V62
p671
sg95
(lp672
(VHOLLER
VU
tp673
asg29
I1999
sg56
V114
p674
sbag1
(g2
g3
NtRp675
(dp676
g68
V10.1016/0168-1656(94)90107-4
p677
sg64
VJ BIOTECHNOL
p678
sg66
V33
p679
sg95
(lp680
(VHOMMEL
VR K
tp681
asg29
I1994
sg56
V147
p682
sbag1
(g2
g3
NtRp683
(dp684
g68
V10.1007/BF01575868
p685
sg64
VJ IND MICROBIOL
p686
sg66
V6
sg95
(lp687
(VHOROWITZ
VS
tp688
asg29
I1990
sg56
V243
p689
sbag1
(g2
g3
NtRp690
(dp691
g68
V10.1023/A:1018581829320
p692
sg64
VWORLD J MICROB BIOT
p693
sg66
V13
p694
sg95
(lp695
(VHUSAIN
VD R
tp696
asg29
I1997
sg56
V587
p697
sbag1
(g2
g3
NtRp698
(dp699
g68
V10.1089/1092875041358467
p700
sg64
VENVIRON ENG SCI
p701
sg66
V21
p702
sg95
(lp703
(VINAKOLLU
VS
tp704
asg29
I2004
sg56
V463
p705
sbag1
(g2
g3
NtRp706
(dp707
g68
Nsg64
VAPPL ENVIRON MICROB
p708
sg66
V43
p709
sg95
(lp710
(VITO
VS
tp711
asg29
I1982
sg56
V1278
p712
sbag1
(g2
g3
NtRp713
(dp714
g68
Nsg64
VAGR BIOL CHEM TOKYO
p715
sg66
V38
p716
sg95
(lp717
(VITOH
VS
tp718
asg29
I1974
sg56
V1443
p719
sbag1
(g2
g3
NtRp720
(dp721
g68
Nsg64
VJ BASIC MICROB
p722
sg66
V51
p723
sg95
(lp724
(VJADHAV
VM
tp725
asg29
I2011
sg56
V1
sbag1
(g2
g3
NtRp726
(dp727
g68
V10.1021/ja01180a073
p728
sg64
VJ AM CHEM SOC
p729
sg66
V71
p730
sg95
(lp731
(VJARVIS
VF G
tp732
asg29
I1949
sg56
V4124
p733
sbag1
(g2
g3
NtRp734
(dp735
g68
Nsg64
VDEV IND MICROBIOL
p736
sg66
V24
p737
sg95
(lp738
(VJENNEMAN
VG E
tp739
asg29
I1983
sg56
V485
p740
sbag1
(g2
g3
NtRp741
(dp742
g68
V10.1146/annurev.mi.48.100194.003015
p743
sg64
VANNU REV MICROBIOL
p744
sg66
V48
p745
sg95
(lp746
(VJENSEN
VP R
tp747
asg29
I1994
sg56
V559
p748
sbag1
(g2
g3
NtRp749
(dp750
g68
V10.1146/annurev.mi.32.100178.002025
p751
sg64
VANNU REV MICROBIOL
p752
sg66
V32
p753
sg95
(lp754
(VJUNI
VE
tp755
asg29
I1978
sg56
V349
p756
sbag1
(g2
g3
NtRp757
(dp758
g68
Nsg64
VBIOSCI BIOTECH BIOCH
p759
sg66
V66
p760
sg95
(lp761
(VKAKUGAWA
VK
tp762
asg29
I2002
sg56
V188
p763
sbag1
(g2
g3
NtRp764
(dp765
g68
V10.1007/s12010-009-8580-5
p766
sg64
VAPPL BIOCHEM BIOTECH
p767
sg66
V160
p768
sg95
(lp769
(VKANG
VS W
tp770
asg29
I2010
sg56
V780
p771
sbag1
(g2
g3
NtRp772
(dp773
g68
Nsg64
VAPPL ENVIRON MICROB
p774
sg66
V53
p775
sg95
(lp776
(VKAPLAN
VD
tp777
asg29
I1987
sg56
V2953
p778
sbag1
(g2
g3
NtRp779
(dp780
g68
Nsg64
VJ BACTERIOL
p781
sg66
V140
p782
sg95
(lp783
(VKAPPELI
VO
tp784
asg29
I1979
sg56
V707
p785
sbag1
(g2
g3
NtRp786
(dp787
g68
V10.1007/s10295-009-0545-8
p788
sg64
VJ IND MICROBIOL BIOT
p789
sg66
V36
p790
sg95
(lp791
(VKEBBOUCHE-GANA
VS
tp792
asg29
I2009
sg56
V727
p793
sbag1
(g2
g3
NtRp794
(dp795
g68
V10.1016/0141-0229(94)90081-7
p796
sg64
VENZYME MICROB TECH
p797
sg66
V16
p798
sg95
(lp799
(VKHIRE
VJ M
tp800
asg29
I1994
sg56
V170
p801
sbag1
(g2
g3
NtRp802
(dp803
g68
V10.1016/0168-1656(93)90042-L
p804
sg64
VJ BIOTECHNOL
p805
sg66
V29
p806
sg95
(lp807
(VKITAMOTO
VD
tp808
asg29
I1993
sg56
V91
p809
sbag1
(g2
g3
NtRp810
(dp811
g68
V10.1007/BF01022329
p812
sg64
VBIOTECHNOL LETT
p813
sg66
V14
p814
sg95
(lp815
(VKITAMOTO
VD
tp816
asg29
I1992
sg56
V305
p817
sbag1
(g2
g3
NtRp818
(dp819
g68
Nsg64
VJ BIOSCI BIOENG
p820
sg66
V94
p821
sg95
(lp822
(VKITAMOTO
VD
tp823
asg29
I2002
sg56
V187
p824
sbag1
(g2
g3
NtRp825
(dp826
g68
Nsg64
VAGR BIOL CHEM TOKYO
p827
sg66
V54
p828
sg95
(lp829
(VKITAMOTO
VD
tp830
asg29
I1990
sg56
V37
p831
sbag1
(g2
g3
NtRp832
(dp833
g68
Nsg64
VBIOSURFACTANTS BIOTE
p834
sg66
Nsg95
(lp835
(VKOSARIC
VN
tp836
asg29
I1987
sg56
Nsbag1
(g2
g3
NtRp837
(dp838
g68
Nsg64
VFOOD TECHNOL BIOTECH
p839
sg66
V39
p840
sg95
(lp841
(VKOSARIC
VN
tp842
asg29
I2001
sg56
V295
p843
sbag1
(g2
g3
NtRp844
(dp845
g68
V10.1021/bi00287a019
p846
sg64
VBIOCHEMISTRY
p847
sg66
V22
p848
sg95
(lp849
(VKRAUSS
VE M
tp850
asg29
I1983
sg56
V4280
p851
sbag1
(g2
g3
NtRp852
(dp853
g68
Nsg64
VAPPL ENVIRON MICROB
p854
sg66
V44
p855
sg95
(lp856
(VKRETSCHMER
VA
tp857
asg29
I1982
sg56
V864
p858
sbag1
(g2
g3
NtRp859
(dp860
g68
V10.1016/j.envint.2004.09.009
p861
sg64
VENVIRON INT
p862
sg66
V31
p863
sg95
(lp864
(VKUYUKINA
VM S
tp865
asg29
I2005
sg56
V155
p866
sbag1
(g2
g3
NtRp867
(dp868
g68
V10.1016/j.jhazmat.2009.01.017
p869
sg64
VJ HAZARD MATER
p870
sg66
V167
p871
sg95
(lp872
(VLAI
VC C
tp873
asg29
I2009
sg56
V609
p874
sbag1
(g2
g3
NtRp875
(dp876
g68
Nsg64
VBIOSURFACTANTS BIOTE
p877
sg66
Nsg95
(lp878
(VLANG
VS
tp879
asg29
I1987
sg56
V21
p880
sbag1
(g2
g3
NtRp881
(dp882
g68
Nsg64
VSURF SCI SER
p883
sg66
V48
p884
sg95
(lp885
(VLANG
VS
tp886
asg29
I1993
sg56
V251
p887
sbag1
(g2
g3
NtRp888
(dp889
g68
Nsg64
VMICROBIOL J
p890
sg66
V53
p891
sg95
(lp892
(VLESIK
VO Y
tp893
asg29
I1991
sg56
V36
p894
sbag1
(g2
g3
NtRp895
(dp896
g68
Nsg64
VMICROBIOL J
p897
sg66
V51
p898
sg95
(lp899
(VLESIK
VO Y
tp900
asg29
I1989
sg56
V56
p901
sbag1
(g2
g3
NtRp902
(dp903
g68
V10.1016/0166-6622(90)80239-Z
p904
sg64
VCOLLOID SURFACE
p905
sg66
V48
p906
sg95
(lp907
(VLEVY
VN
tp908
asg29
I1990
sg56
V337
p909
sbag1
(g2
g3
NtRp910
(dp911
g68
V10.1007/s12010-008-8188-1
p912
sg64
VApplied Biochemistry and Biotechnology
p913
sg66
V152
p914
sg95
(lp915
(VLIMA C J B DE
S''
tp916
asg29
I2009
sg56
V156
p917
sbag1
(g2
g3
NtRp918
(dp919
g68
V10.1007/s002530050144
p920
sg64
VAPPL MICROBIOL BIOT
p921
sg66
V41
p922
sg95
(lp923
(VLIN
VS C
tp924
asg29
I1994
sg56
V281
p925
sbag1
(g2
g3
NtRp926
(dp927
g68
V10.1021/np020196b
p928
sg64
VJ NAT PROD
p929
sg66
V66
p930
sg95
(lp931
(VLIN
VW H
tp932
asg29
I2003
sg56
V57
p933
sbag1
(g2
g3
NtRp934
(dp935
g68
V10.1016/j.colsurfa.2010.03.021
p936
sg64
VCOLLOID SURFACE A
p937
sg66
V361
p938
sg95
(lp939
(VLIU
VJ
tp940
asg29
I2010
sg56
V90
p941
sbag1
(g2
g3
NtRp942
(dp943
g68
V10.1007/s10295-003-0105-6
p944
sg64
VJ IND MICROBIOL BIOT
p945
sg66
V30
p946
sg95
(lp947
(VLUKONDEH
VT
tp948
asg29
I2003
sg56
V715
p949
sbag1
(g2
g3
NtRp950
(dp951
g68
Nsg64
VANTARCT SCI
p952
sg66
V9
sg95
(lp953
(VMACCORMACK
VW P
tp954
asg29
I1997
sg56
V150
p955
sbag1
(g2
g3
NtRp956
(dp957
g68
Nsg64
VAPPL ENVIRON MICROB
p958
sg66
V41
p959
sg95
(lp960
(VMACDONALD
VC R
tp961
asg29
I1981
sg56
V117
p962
sbag1
(g2
g3
NtRp963
(dp964
g68
V10.1007/s11746-997-0233-7
p965
sg64
VJ AM OIL CHEM SOC
p966
sg66
V74
p967
sg95
(lp968
(VMAKKAR
VR S
tp969
asg29
I1997
sg56
V887
p970
sbag1
(g2
g3
NtRp971
(dp972
g68
V10.1038/sj.jim.2900474
p973
sg64
VJ IND MICROBIOL BIOT
p974
sg66
V20
p975
sg95
(lp976
(VMAKKAR
VR S
tp977
asg29
I1998
sg56
V48
p978
sbag1
(g2
g3
NtRp979
(dp980
g68
Nsg64
VSONGKLANAKARIN J SCI
p981
sg66
V29
p982
sg95
(lp983
(VMANEERA
VS
tp984
asg29
I2007
sg56
V769
p985
sbag1
(g2
g3
NtRp986
(dp987
g68
V10.1007/s00253-005-0050-6
p988
sg64
VAPPL MICROBIOL BIOT
p989
sg66
V70
p990
sg95
(lp991
(VMANEERAT
VS
tp992
asg29
I2006
sg56
V254
p993
sbag1
(g2
g3
NtRp994
(dp995
g68
Nsg64
VJ SCI TECHNOL
p996
sg66
V29
p997
sg95
(lp998
(VMANEERAT
VS
tp999
asg29
I2007
sg56
V781
p1000
sbag1
(g2
g3
NtRp1001
(dp1002
g68
Nsg64
VSONGKLANAKARIN J SCI
p1003
sg66
V27
p1004
sg95
(lp1005
(VMANEERAT
VS
tp1006
asg29
I2005
sg56
V675
p1007
sbag1
(g2
g3
NtRp1008
(dp1009
g68
Nsg64
VAPPL MICROBIOL BIOT
p1010
sg66
V67
p1011
sg95
(lp1012
(VMANEERAT
VS
tp1013
asg29
I2004
sg56
V683
p1014
sbag1
(g2
g3
NtRp1015
(dp1016
g68
V10.1007/BF01573858
p1017
sg64
VJ IND MICROBIOL
p1018
sg66
V5
sg95
(lp1019
(VMCINERNEY
VM J
tp1020
asg29
I1990
sg56
V95
p1021
sbag1
(g2
g3
NtRp1022
(dp1023
g68
V10.1007/BF02660299
p1024
sg64
VJ AM OIL CHEM SOC
p1025
sg66
V68
p1026
sg95
(lp1027
(VMCNEILL
VG P
tp1028
asg29
I1991
sg56
V6
sbag1
(g2
g3
NtRp1029
(dp1030
g68
V10.1128/JB.183.20.5848-5854.2001
p1031
sg64
VJ BACTERIOL
p1032
sg66
V183
p1033
sg95
(lp1034
(VMIRELES
VJ R
tp1035
asg29
I2001
sg56
V5848
p1036
sbag1
(g2
g3
NtRp1037
(dp1038
g68
Nsg64
VJ BACTERIOL
p1039
sg66
V175
p1040
sg95
(lp1041
(VMORIKAWA
VM
tp1042
asg29
I1993
sg56
V6459
p1043
sbag1
(g2
g3
NtRp1044
(dp1045
g68
V10.1016/0922-338X(92)90055-Y
p1046
sg64
VJ FERMENT BIOENG
p1047
sg66
V74
p1048
sg95
(lp1049
(VMORIKAWA
VM
tp1050
asg29
I1992
sg56
V255
p1051
sbag1
(g2
g3
NtRp1052
(dp1053
g68
V10.1007/s00253-006-0672-3
p1054
sg64
VAPPL MICROBIOL BIOT
p1055
sg66
V74
p1056
sg95
(lp1057
(VMORITA
VT
tp1058
asg29
I2007
sg56
V307
p1059
sbag1
(g2
g3
NtRp1060
(dp1061
g68
V10.1007/s00253-006-0466-7
p1062
sg64
VAPPL MICROBIOL BIOT
p1063
sg66
V73
p1064
sg95
(lp1065
(VMORITA
VT
tp1066
asg29
I2006
sg56
V305
p1067
sbag1
(g2
g3
NtRp1068
(dp1069
g68
V10.1016/j.tibtech.2006.09.005
p1070
sg64
VTRENDS BIOTECHNOL
p1071
sg66
V24
p1072
sg95
(lp1073
(VMUKHERJEE
VS
tp1074
asg29
I2006
sg56
V509
p1075
sbag1
(g2
g3
NtRp1076
(dp1077
g68
Nsg64
VProceedings of the Indian National Science Academy Part B Biological Sciences
p1078
sg66
V70
p1079
sg95
(lp1080
(VMULLIGAN
VCATHERINE N
tp1081
asg29
I2004
sg56
Vroceedings
p1082
sbag1
(g2
g3
NtRp1083
(dp1084
g68
V10.1016/S0013-7952(00)00101-0
p1085
sg64
VENG GEOL
p1086
sg66
V60
p1087
sg95
(lp1088
(VMULLIGAN
VC N
tp1089
asg29
I2001
sg56
V193
p1090
sbag1
(g2
g3
NtRp1091
(dp1092
g68
V10.1016/S0001-8686(03)00106-4
p1093
sg64
VADV COLLOID INTERFAC
p1094
sg66
V106
p1095
sg95
(lp1096
(VMULQUEEN
VP
tp1097
asg29
I2003
sg56
V83
p1098
sbag1
(g2
g3
NtRp1099
(dp1100
g68
Nsg64
VCURR SCI INDIA
p1101
sg66
V94
p1102
sg95
(lp1103
(VMUTHUSAMY
VK
tp1104
asg29
I2008
sg56
V736
p1105
sbag1
(g2
g3
NtRp1106
(dp1107
g68
Nsg64
VAPPL ENVIRON MICROB
p1108
sg66
V61
p1109
sg95
(lp1110
(VNAVONVENEZIA
VS
tp1111
asg29
I1995
sg56
V3240
p1112
sbag1
(g2
g3
NtRp1113
(dp1114
g68
Nsg64
VJ SCI IND RES INDIA
p1115
sg66
V68
p1116
sg95
(lp1117
(VNERURKAR
VA S
tp1118
asg29
I2009
sg56
V273
p1119
sbag1
(g2
g3
NtRp1120
(dp1121
g68
Nsg64
VAPPL MICROBIOL BIOT
p1122
sg66
V32
p1123
sg95
(lp1124
(VNEU
VT R
tp1125
asg29
I1990
sg56
V518
p1126
sbag1
(g2
g3
NtRp1127
(dp1128
g68
Nsg64
VJ GEN MICROBIOL
p1129
sg66
V138
p1130
sg95
(lp1131
(VNEU
VT R
tp1132
asg29
I1992
sg56
V2531
p1133
sbag1
(g2
g3
NtRp1134
(dp1135
g68
V10.1046/j.1365-2672.1999.00798.x
p1136
sg64
VJ APPL MICROBIOL
p1137
sg66
V87
p1138
sg95
(lp1139
(VNIELSEN
VT H
tp1140
asg29
I1999
sg56
V80
p1141
sbag1
(g2
g3
NtRp1142
(dp1143
g68
V10.1271/bbb.66.1792
p1144
sg64
VBIOSCI BIOTECH BIOCH
p1145
sg66
V66
p1146
sg95
(lp1147
(VNISHIO
VE
tp1148
asg29
I2002
sg56
V1792
p1149
sbag1
(g2
g3
NtRp1150
(dp1151
g68
V10.1007/s11274-009-0053-z
p1152
sg64
VWORLD J MICROB BIOT
p1153
sg66
V25
p1154
sg95
(lp1155
(VOBAYORI
VO S
tp1156
asg29
I2009
sg56
V1615
p1157
sbag1
(g2
g3
NtRp1158
(dp1159
g68
V10.1007/s10295-003-0078-5
p1160
sg64
VJ IND MICROBIOL BIOT
p1161
sg66
V30
p1162
sg95
(lp1163
(VOLIVERA
VN L
tp1164
asg29
I2003
sg56
V542
p1165
sbag1
(g2
g3
NtRp1166
(dp1167
g68
Nsg64
VAFR J BIOTECHNOL
p1168
sg66
V4
sg95
(lp1169
(VOLOKE
VJ K
tp1170
asg29
I2005
sg56
V164
p1171
sbag1
(g2
g3
NtRp1172
(dp1173
g68
Nsg64
VAPPL MICROBIOL BIOT
p1174
sg66
V37
p1175
sg95
(lp1176
(VPASSERI
VS
tp1177
asg29
I1992
sg56
V281
p1178
sbag1
(g2
g3
NtRp1179
(dp1180
g68
Nsg64
VUS Patent No
p1181
sg66
Nsg95
(lp1182
(VPATIL
VJ R
tp1183
asg29
I2003
sg56
Vatent
p1184
sbag1
(g2
g3
NtRp1185
(dp1186
g68
V10.1016/S1001-0742(08)62429-8
p1187
sg64
VJ ENVIRON SCI
p1188
sg66
V21
p1189
sg95
(lp1190
(VPEI
VX H
tp1191
asg29
I2009
sg56
V1378
p1192
sbag1
(g2
g3
NtRp1193
(dp1194
g68
V10.1111/j.1365-2672.2006.03267.x
p1195
sg64
VJ APPL MICROBIOL
p1196
sg66
V102
p1197
sg95
(lp1198
(VPENG
VF
tp1199
asg29
I2007
sg56
V1603
p1200
sbag1
(g2
g3
NtRp1201
(dp1202
g68
V10.1016/j.femsec.2004.09.013
p1203
sg64
VFEMS MICROBIOL ECOL
p1204
sg66
V53
p1205
sg95
(lp1206
(VPEPI
VM
tp1207
asg29
I2005
sg56
V157
p1208
sbag1
(g2
g3
NtRp1209
(dp1210
g68
Nsg64
VJ APPL MICROBIOL
p1211
sg66
V75
p1212
sg95
(lp1213
(VPERFUMO
VA
tp1214
asg29
I2006
sg56
V132
p1215
sbag1
(g2
g3
NtRp1216
(dp1217
g68
V10.1002/tox.2530060205
p1218
sg64
VENVIRON TOXIC WATER
p1219
sg66
V6
sg95
(lp1220
(VPOREMBA
VK
tp1221
asg29
I1991
sg56
V157
p1222
sbag1
(g2
g3
NtRp1223
(dp1224
g68
Nsg64
VZ NATURFORSCH C
p1225
sg66
V46
p1226
sg95
(lp1227
(VPOREMBA
VK
tp1228
asg29
I1991
sg56
V210
p1229
sbag1
(g2
g3
NtRp1230
(dp1231
g68
V10.1002/abio.200390043
p1232
sg64
VACTA BIOTECHNOL
p1233
sg66
V23
p1234
sg95
(lp1235
(VRAHMAN
VK S M
tp1236
asg29
I2003
sg56
V335
p1237
sbag1
(g2
g3
NtRp1238
(dp1239
g68
V10.1007/s00253-005-1906-5
p1240
sg64
VAPPL MICROBIOL BIOT
p1241
sg66
V68
p1242
sg95
(lp1243
(VRAU
VU
tp1244
asg29
I2005
sg56
V607
p1245
sbag1
(g2
g3
NtRp1246
(dp1247
g68
Nsg64
VAPPL MICROBIOL
p1248
sg66
V24
p1249
sg95
(lp1250
(VREISFELD
VA
tp1251
asg29
I1972
sg56
V363
p1252
sbag1
(g2
g3
NtRp1253
(dp1254
g68
V10.1007/s00253-009-1987-7
p1255
sg64
VAPPL MICROBIOL BIOT
p1256
sg66
V83
p1257
sg95
(lp1258
(VRIVARDO
VF
tp1259
asg29
I2009
sg56
V541
p1260
sbag1
(g2
g3
NtRp1261
(dp1262
g68
V10.1007/BF01026843
p1263
sg64
VBIOTECHNOL LETT
p1264
sg66
V11
p1265
sg95
(lp1266
(VROBERT
VM
tp1267
asg29
I1989
sg56
V871
p1268
sbag1
(g2
g3
NtRp1269
(dp1270
g68
V10.1128/AEM.70.7.4408-4410.2004
p1271
sg64
VAPPL ENVIRON MICROB
p1272
sg66
V70
p1273
sg95
(lp1274
(VRODRIGUES
VL
tp1275
asg29
I2004
sg56
V4408
p1276
sbag1
(g2
g3
NtRp1277
(dp1278
g68
V10.1111/j.1574-695X.2005.00006.x
p1279
sg64
VFEMS IMMUNOL MED MIC
p1280
sg66
V46
p1281
sg95
(lp1282
(VRODRIGUES
VL
tp1283
asg29
I2006
sg56
V107
p1284
sbag1
(g2
g3
NtRp1285
(dp1286
g68
V10.1016/j.colsurfb.2006.08.009
p1287
sg64
VCOLLOID SURFACE B
p1288
sg66
V53
p1289
sg95
(lp1290
(VRODRIGUES
VL R
tp1291
asg29
I2006
sg56
V105
p1292
sbag1
(g2
g3
NtRp1293
(dp1294
g68
V10.1023/A:1012548513766
p1295
sg64
VRUSSIAN J MARINE BIO
p1296
sg66
V27
p1297
sg95
(lp1298
(VROMANENKO
VL A
tp1299
asg29
I2001
sg56
V291
p1300
sbag1
(g2
g3
NtRp1301
(dp1302
g68
Nsg64
VAPPL ENVIRON MICROB
p1303
sg66
V54
p1304
sg95
(lp1305
(VROSENBERG
VE
tp1306
asg29
I1988
sg56
V323
p1307
sbag1
(g2
g3
NtRp1308
(dp1309
g68
V10.1080/01932698908943173
p1310
sg64
VJ DISPER SCI TECHNOL
p1311
sg66
V10
p1312
sg95
(lp1313
(VROSENBERG
VE
tp1314
asg29
I1989
sg56
V241
p1315
sbag1
(g2
g3
NtRp1316
(dp1317
g68
Nsg64
VAPPL ENVIRON MICROB
p1318
sg66
V37
p1319
sg95
(lp1320
(VROSENBERG
VE
tp1321
asg29
I1979
sg56
V402
p1322
sbag1
(g2
g3
NtRp1323
(dp1324
g68
Nsg64
VBACTERIAL OUTER MEMB
p1325
sg66
Nsg95
(lp1326
(VROSENBERG
VE
tp1327
asg29
I1987
sg56
V311
p1328
sbag1
(g2
g3
NtRp1329
(dp1330
g68
Nsg64
VAPPL ENVIRON MICROB
p1331
sg66
V54
p1332
sg95
(lp1333
(VROSENBERG
VE
tp1334
asg29
I1988
sg56
V317
p1335
sbag1
(g2
g3
NtRp1336
(dp1337
g68
Nsg64
VBIOPOLYMERS RENEWAL
p1338
sg66
Nsg95
(lp1339
(VROSENBERG
VE
tp1340
asg29
I1989
sg56
V281
p1341
sbag1
(g2
g3
NtRp1342
(dp1343
g68
V10.1098/rspb.2008.1281
p1344
sg64
VP R SOC B
p1345
sg66
V276
p1346
sg95
(lp1347
(VROSTAS
VM
tp1348
asg29
I2009
sg56
V633
p1349
sbag1
(g2
g3
NtRp1350
(dp1351
g68
Nsg64
VBIOTECHNOL APPL BIOC
p1352
sg66
V12
p1353
sg95
(lp1354
(VSANDRIN
VC
tp1355
asg29
I1990
sg56
V370
p1356
sbag1
(g2
g3
NtRp1357
(dp1358
g68
V10.1007/s00284-006-0412-z
p1359
sg64
VCURR MICROBIOL
p1360
sg66
V54
p1361
sg95
(lp1362
(VSARUBBO
VL A
tp1363
asg29
I2007
sg56
V68
p1364
sbag1
(g2
g3
NtRp1365
(dp1366
g68
Nsg64
VINDIAN J MAR SCI
p1367
sg66
V37
p1368
sg95
(lp1369
(VSATPUTE
VS K
tp1370
asg29
I2008
sg56
V243
p1371
sbag1
(g2
g3
NtRp1372
(dp1373
g68
Nsg64
VZ NATURFORSCH C
p1374
sg66
V46
p1375
sg95
(lp1376
(VSCHULZ
VD
tp1377
asg29
I1991
sg56
V197
p1378
sbag1
(g2
g3
NtRp1379
(dp1380
g68
VDOI 10.4172/2157-7463.1000133
p1381
sg64
VJ PET ENV BIOTECHNOL
p1382
sg66
V3
sg95
(lp1383
(VSEKHON
VK K
tp1384
asg29
I2012
sg56
V133
p1385
sbag1
(g2
g3
NtRp1386
(dp1387
g68
V10.1016/0168-1656(95)00053-S
p1388
sg64
VJ BIOTECHNOL
p1389
sg66
V40
p1390
sg95
(lp1391
(VSHEPHERD
VR
tp1392
asg29
I1995
sg56
V207
p1393
sbag1
(g2
g3
NtRp1394
(dp1395
g68
V10.1016/0005-2736(91)90406-X
p1396
sg64
VBIOCHIM BIOPHYS ACTA
p1397
sg66
V1064
p1398
sg95
(lp1399
(VSHEPPARD
VJ D
tp1400
asg29
I1991
sg56
V13
p1401
sbag1
(g2
g3
NtRp1402
(dp1403
g68
Nsg64
VMikrobiologiya
p1404
sg66
V59
p1405
sg95
(lp1406
(VSHUL'GA
VA N
tp1407
asg29
I1990
sg56
V443
p1408
sbag1
(g2
g3
NtRp1409
(dp1410
g68
V10.1139/m90-127
p1411
sg64
VCAN J MICROBIOL
p1412
sg66
V36
p1413
sg95
(lp1414
(VSINGER
VM E V
tp1415
asg29
I1990
sg56
V741
p1416
sbag1
(g2
g3
NtRp1417
(dp1418
g68
V10.1016/j.biotechadv.2006.10.004
p1419
sg64
VBIOTECHNOL ADV
p1420
sg66
V25
p1421
sg95
(lp1422
(VSINGH
VA
tp1423
asg29
I2007
sg56
V99
p1424
sbag1
(g2
g3
NtRp1425
(dp1426
g68
Nsg64
VINDIAN J EXP BIOL
p1427
sg66
V27
p1428
sg95
(lp1429
(VSINGH
VM
tp1430
asg29
I1989
sg56
V224
p1431
sbag1
(g2
g3
NtRp1432
(dp1433
g68
V10.1111/j.1365-2672.2007.03626.x
p1434
sg64
VJ APPL MICROBIOL
p1435
sg66
V104
p1436
sg95
(lp1437
(VSUTYAK
VK E
tp1438
asg29
I2008
sg56
V1067
p1439
sbag1
(g2
g3
NtRp1440
(dp1441
g68
Nsg64
VAGR BIOL CHEM TOKYO
p1442
sg66
V38
p1443
sg95
(lp1444
(VSUZUKI
VT
tp1445
asg29
I1974
sg56
V557
p1446
sbag1
(g2
g3
NtRp1447
(dp1448
g68
Nsg64
VJ BIOCHEM
p1449
sg66
V57
p1450
sg95
(lp1451
(VSUZUKI
VT
tp1452
asg29
I1965
sg56
V226
p1453
sbag1
(g2
g3
NtRp1454
(dp1455
g68
V10.1111/j.1365-2958.2007.05941.x
p1456
sg64
VMOL MICROBIOL
p1457
sg66
V66
p1458
sg95
(lp1459
(VTEICHMANN
VB
tp1460
asg29
I2007
sg56
V525
p1461
sbag1
(g2
g3
NtRp1462
(dp1463
g68
V10.1111/j.1574-6968.1995.tb07507.x
p1464
sg64
VFEMS MICROBIOL LETT
p1465
sg66
V128
p1466
sg95
(lp1467
(VTHIMON
VL
tp1468
asg29
I1995
sg56
V101
p1469
sbag1
(g2
g3
NtRp1470
(dp1471
g68
V10.1016/j.colsurfa.2008.04.009
p1472
sg64
VCOLLOID SURFACE A
p1473
sg66
V324
p1474
sg95
(lp1475
(VTRINDADE
VJ R
tp1476
asg29
I2008
sg56
V149
p1477
sbag1
(g2
g3
NtRp1478
(dp1479
g68
V10.1139/v68-551
p1480
sg64
VCAN J CHEMISTRY
p1481
sg66
V46
p1482
sg95
(lp1483
(VTULLOCK
VA P
tp1484
asg29
I1968
sg56
V3337
p1485
sbag1
(g2
g3
NtRp1486
(dp1487
g68
V10.1248/bpb.30.169
p1488
sg64
VBIOL PHARM BULL
p1489
sg66
V30
p1490
sg95
(lp1491
(VUENO
VY
tp1492
asg29
I2007
sg56
V169
p1493
sbag1
(g2
g3
NtRp1494
(dp1495
g68
Nsg64
VJ ANTIBIOT
p1496
sg66
V39
p1497
sg95
(lp1498
(VVANITTANAKOM
VN
tp1499
asg29
I1986
sg56
V888
p1500
sbag1
(g2
g3
NtRp1501
(dp1502
g68
Nsg64
VCAN J MICROBIOL
p1503
sg66
V41
p1504
sg95
(lp1505
(VVENKATESWARAN
VK
tp1506
asg29
I1995
sg56
V767
p1507
sbag1
(g2
g3
NtRp1508
(dp1509
g68
V10.1016/j.biotechadv.2007.06.001
p1510
sg64
VBIOTECHNOL ADV
p1511
sg66
V25
p1512
sg95
(lp1513
(VVILLENEUVE
VP
tp1514
asg29
I2007
sg56
V515
p1515
sbag1
(g2
g3
NtRp1516
(dp1517
g68
Nsg64
VInternational Biodeterioration
p1518
sg66
V27
p1519
sg95
(lp1520
(VWASKO
VM P
tp1521
asg29
I1990
sg56
V265
p1522
sbag1
(g2
g3
NtRp1523
(dp1524
g68
Nsg64
VBIOCATALYSIS
p1525
sg66
V5
sg95
(lp1526
(VWEBER
VL
tp1527
asg29
I1992
sg56
V262
p1528
sbag1
(g2
g3
NtRp1529
(dp1530
g68
Nsg64
VAPPL ENVIRON MICROB
p1531
sg66
V61
p1532
sg95
(lp1533
(VYAKIMOV
VM M
tp1534
asg29
I1995
sg56
V1706
p1535
sbag1
(g2
g3
NtRp1536
(dp1537
g68
V10.1016/S0920-4105(97)00015-6
p1538
sg64
VJ PETROL SCI ENG
p1539
sg66
V18
p1540
sg95
(lp1541
(VYAKIMOV
VM M
tp1542
asg29
I1997
sg56
V147
p1543
sbag1
(g2
g3
NtRp1544
(dp1545
g68
V10.1128/AEM.02264-06
p1546
sg64
VAPPL ENVIRON MICROB
p1547
sg66
V73
p1548
sg95
(lp1549
(VYOUSSEF
VN
tp1550
asg29
I2007
sg56
V1239
p1551
sbag1
(g2
g3
NtRp1552
(dp1553
g68
V10.1002/bit.260190905
p1554
sg64
VBIOTECHNOL BIOENG
p1555
sg66
V19
p1556
sg95
(lp1557
(VZAJIC
VJ E
tp1558
asg29
I1977
sg56
V1303
p1559
sbag1
(g2
g3
NtRp1560
(dp1561
g68
V10.1016/j.ijpharm.2010.01.035
p1562
sg64
VINT J PHARMACEUT
p1563
sg66
V390
p1564
sg95
(lp1565
(VZHANG
VY
tp1566
asg29
I2010
sg56
V198
p1567
sbag1
(g2
g3
NtRp1568
(dp1569
g68
Nsg64
VCANCER RES
p1570
sg66
V59
p1571
sg95
(lp1572
(VZHAO
VX X
tp1573
asg29
I1999
sg56
V482
p1574
sbag1
(g2
g3
NtRp1575
(dp1576
g68
V10.1046/j.1472-765X.1997.00355.x
p1577
sg64
VLETT APPL MICROBIOL
p1578
sg66
V24
p1579
sg95
(lp1580
(VZINJARDE
VS
tp1581
asg29
I1997
sg56
V117
p1582
sbag1
(g2
g3
NtRp1583
(dp1584
g68
V10.1002/1521-4028(200203)42:1<67::AID-JOBM67>3.0.CO;2-M
p1585
sg64
VJ BASIC MICROB
p1586
sg66
V42
p1587
sg95
(lp1588
(VZINJARDE
VS S
tp1589
asg29
I2002
sg56
V67
p1590
sbag1
(g2
g3
NtRp1591
(dp1592
g68
V10.1002/bit.260240203
p1593
sg64
VBIOTECHNOL BIOENG
p1594
sg66
V24
p1595
sg95
(lp1596
(VZOSIM
VZ
tp1597
asg29
I1982
sg56
V281
p1598
sbasb.