ccopy_reg
_reconstructor
p1
(ctethne.classes.paper
Paper
p2
c__builtin__
object
p3
NtRp4
(dp5
S'publisherCity'
p6
VROCKVILLE
p7
sS'reprintAddress'
p8
VBlatt, MR (reprint author), Univ Glasgow, Lab Plant Physiol & Biophys, Inst Mol Cell & Syst Biol, Glasgow G12 8QQ, Lanark, Scotland.
p9
sS'WC'
p10
VPlant Sciences
p11
sS'GA'
p12
V049QJ
p13
sS'FX'
p14
(lp15
VThis work was supported by the Biotechnology and Biological Sciences
p16
aVResearch Council (grant nos. BB/H024867/1, BB/F001630/1, and
p17
aVBB/H009817/1 to M.R.B.), by a Chinese Scholarship Council and Glasgow
p18
aVUniversity PhD scholarship to Y.W., and by a Begonia Trust PhD
p19
aVstudentship to M.P.
p20
asS'abstract'
p21
VStomata account for much of the 70% of global water usage associated with agriculture and have a profound impact on the water and carbon cycles of the world. Stomata have long been modeled mathematically, but until now, no systems analysis of a plant cell has yielded detail sufficient to guide phenotypic and mutational analysis. Here, we demonstrate the predictive power of a systems dynamic model in Arabidopsis (Arabidopsis thaliana) to explain the paradoxical suppression of channels that facilitate K+ uptake, slowing stomatal opening, by mutation of the SLAC1 anion channel, which mediates solute loss for closure. The model showed how anion accumulation in the mutant suppressed the H+ load on the cytosol and promoted Ca2+ influx to elevate cytosolic pH (pH(i)) and free cytosolic Ca2+ concentration ([Ca2+](i)), in turn regulating the K+ channels. We have confirmed these predictions, measuring pH(i) and [Ca2+](i) in vivo, and report that experimental manipulation of pHi and [Ca2+] i is sufficient to recover K+ channel activities and accelerate stomatal opening in the slac1 mutant. Thus, we uncover a previously unrecognized signaling network that ameliorates the effects of the slac1 mutant on transpiration by regulating the K+ channels. Additionally, these findings underscore the importance of H+-coupled anion transport for pH(i) homeostasis.
p22
sS'pageEnd'
p23
I1967
sS'date'
p24
I2012
sS'documentType'
p25
VArticle
p26
sS'subject'
p27
VPlant Sciences
p28
sS'isoSource'
p29
VPlant Physiol.
p30
sS'timesCited'
p31
(lp32
I4
aVZ9 4
p33
asS'funding'
p34
(lp35
(VBiotechnology and Biological Sciences Research Council
VBB/H024867/1, BB/F001630/1, BB/H009817/1
tp36
a(VChinese Scholarship Council
Ntp37
a(VGlasgow University
Ntp38
a(VBegonia Trust
Ntp39
asS'PT'
p40
VJ
sS'title'
p41
VSystems Dynamic Modeling Of A Guard Cell Cl- Channel Mutant Uncovers An Emergent Homeostatic Network Regulating Stomatal Transpiration
p42
sS'ISSN'
p43
(lp44
V0032-0889
p45
aVJ9 PLANT PHYSIOL
p46
asS'authors_full'
p47
(lp48
(VWANG
VYIZHOU
tp49
a(VPAPANATSIOU
VMARIA
tp50
a(VEISENACH
VCORNELIA
tp51
a(VKARNIK
VRUCHA
tp52
a(VWILLIAMS
VMARY
tp53
a(VHILLS
VADRIAN
tp54
a(VLEW
VVIRGILIO L
tp55
a(VBLATT
VMICHAEL R
tp56
asS'PG'
p57
I12
sS'PD'
p58
VDEC
p59
sS'pageStart'
p60
I1956
sS'issue'
p61
I4
sS'RI'
p62
VWang, Yizhou/D-2098-2011
p63
sS'journal'
p64
VPLANT PHYSIOLOGY
p65
sS'volume'
p66
V160
p67
sS'doi'
p68
V10.1104/pp.112.207704
p69
sS'emailAddress'
p70
Vmichael.blatt@glasgow.ac.uk
p71
sS'authorAddress'
p72
(lp73
V[Wang, Yizhou; Papanatsiou, Maria; Eisenach, Cornelia; Karnik, Rucha; Williams, Mary; Hills, Adrian; Blatt, Michael R.] Univ Glasgow, Lab Plant Physiol & Biophys, Inst Mol Cell & Syst Biol, Glasgow G12 8QQ, Lanark, Scotland.
p74
aV[Williams, Mary] Amer Soc Plant Biologists, Rockville, MD 20855 USA.
p75
aV[Lew, Virgilio L.] Univ Cambridge, Physiol Lab, Cambridge CB2 3EG, England.
p76
asS'publisherAddress'
p77
V15501 MONONA DRIVE, ROCKVILLE, MD 20855 USA
p78
sS'ER'
p79
V
sS'publisher'
p80
VAMER SOC PLANT BIOLOGISTS
p81
sS'authorKeywords'
p82
(lp83
VS-TYPE ANION
p84
aVABSCISIC-ACID
p85
aVK+ CHANNELS
p86
aVOUTWARD RECTIFIER
p87
aVPLASMA-MEMBRANE
p88
aVELECTRICAL CHARACTERISTICS
p89
aVARABIDOPSIS-THALIANA
p90
aVPOTASSIUM CHANNELS
p91
aVVEGETATIVE GROWTH
p92
aVINWARD-RECTIFIER
p93
asS'language'
p94
VEnglish
p95
sS'wosid'
p96
VWOS:000311998200023
p97
sS'citationCount'
p98
I55
sS'authors_init'
p99
(lp100
(VWANG
VY Z
tp101
a(VPAPANATSIOU
VM
tp102
a(VEISENACH
VC
tp103
a(VKARNIK
VR
tp104
a(VWILLIAMS
VM
tp105
a(VHILLS
VA
tp106
a(VLEW
VV L
tp107
a(VBLATT
VM R
tp108
asS'citedReferences'
p109
(lp110
g1
(g2
g3
NtRp111
(dp112
g68
V10.1016/S0014-5793(00)02248-1
p113
sg64
VFEBS LETT
p114
sg66
V486
p115
sg99
(lp116
(VACHE
VP
tp117
asg24
I2000
sg60
V93
p118
sbag1
(g2
g3
NtRp119
(dp120
g68
V10.1038/35082575
p121
sg64
VNATURE
p122
sg66
V411
p123
sg99
(lp124
(VALLEN
VG J
tp125
asg24
I2001
sg60
V1053
p126
sbag1
(g2
g3
NtRp127
(dp128
g68
V10.1111/j.1469-8137.2008.02666.x
p129
sg64
VNEW PHYTOL
p130
sg66
V181
p131
sg99
(lp132
(VAMTMANN
VA
tp133
asg24
I2009
sg60
V35
p134
sbag1
(g2
g3
NtRp135
(dp136
g68
V10.1146/annurev-arplant-042110-103741
p137
sg64
VANNU REV PLANT BIOL
p138
sg66
V62
p139
sg99
(lp140
(VBARBIER-BRYGOO
VH
tp141
asg24
I2011
sg60
V25
p142
sbag1
(g2
g3
NtRp143
(dp144
g68
V10.1038/nature06045
p145
sg64
VNATURE
p146
sg66
V448
p147
sg99
(lp148
(VBETTS
VR A
tp149
asg24
I2007
sg60
V1037
p150
sbag1
(g2
g3
NtRp151
(dp152
g68
V10.1146/annurev.cellbio.16.1.221
p153
sg64
VANNU REV CELL DEV BI
p154
sg66
V16
p155
sg99
(lp156
(VBLATT
VM R
tp157
asg24
I2000
sg60
V221
p158
sbag1
(g2
g3
NtRp159
(dp160
g68
V10.1007/BF01925717
p161
sg64
VJ MEMBRANE BIOL
p162
sg66
V102
p163
sg99
(lp164
(VBLATT
VM R
tp165
asg24
I1988
sg60
V235
p166
sbag1
(g2
g3
NtRp167
(dp168
g68
V10.1085/jgp.99.4.615
p169
sg64
VJ GEN PHYSIOL
p170
sg66
V99
p171
sg99
(lp172
(VBLATT
VM R
tp173
asg24
I1992
sg60
V615
p174
sbag1
(g2
g3
NtRp175
(dp176
g68
Nsg64
VPLANTA
p177
sg66
V191
p178
sg99
(lp179
(VBLATT
VM R
tp180
asg24
I1993
sg60
VLANTA
p181
sbag1
(g2
g3
NtRp182
(dp183
g68
V10.1007/s002329900261
p184
sg64
VJ MEMBRANE BIOL
p185
sg66
V158
p186
sg99
(lp187
(VBLATT
VM R
tp188
asg24
I1997
sg60
V241
p189
sbag1
(g2
g3
NtRp190
(dp191
g68
V10.1007/BF00397898
p192
sg64
VPLANTA
p193
sg66
V170
p194
sg99
(lp195
(VBLATT
VM R
tp196
asg24
I1987
sg60
VLANTA
p197
sbag1
(g2
g3
NtRp198
(dp199
g68
V10.1007/BF01870589
p200
sg64
VJ MEMBRANE BIOL
p201
sg66
V72
p202
sg99
(lp203
(VBLATT
VM R
tp204
asg24
I1983
sg60
V223
p205
sbag1
(g2
g3
NtRp206
(dp207
g68
V10.1007/BF01871188
p208
sg64
VJ MEMBRANE BIOL
p209
sg66
V98
p210
sg99
(lp211
(VBLATT
VM R
tp212
asg24
I1987
sg60
V257
p213
sbag1
(g2
g3
NtRp214
(dp215
g68
V10.1111/j.1365-313X.2009.04108.x
p216
sg64
VPLANT J
p217
sg66
V61
p218
sg99
(lp219
(VCHEN
VZ H
tp220
asg24
I2010
sg60
VLANT
p221
sbag1
(g2
g3
NtRp222
(dp223
g68
V10.1104/pp.112.197350
p224
sg64
VPLANT PHYSIOL
p225
sg66
V159
p226
sg99
(lp227
(VCHEN
VZ H
tp228
asg24
I2012
sg60
VLANT
p229
sbag1
(g2
g3
NtRp230
(dp231
g68
V10.1186/1746-4811-8-15
p232
sg64
VPLANT METHODS
p233
sg66
V8
sg99
(lp234
(VCHEN
VZ H
tp235
asg24
I2012
sg60
VLANT
p236
sbag1
(g2
g3
NtRp237
(dp238
g68
V10.1038/nature05013
p239
sg64
VNATURE
p240
sg66
V442
p241
sg99
(lp242
(VDE
VANGELI A
tp243
asg24
I2006
sg60
V939
p244
sbag1
(g2
g3
NtRp245
(dp246
g68
V10.1105/tpc.105.037978
p247
sg64
VPLANT CELL
p248
sg66
V18
p249
sg99
(lp250
(VDETTMER
VJ
tp251
asg24
I2006
sg60
VLANT
p252
sbag1
(g2
g3
NtRp253
(dp254
g68
V10.1126/science.1146757
p255
sg64
VSCIENCE
p256
sg66
V318
p257
sg99
(lp258
(VDODD
VA N
tp259
asg24
I2007
sg60
V1789
p260
sbag1
(g2
g3
NtRp261
(dp262
g68
V10.1186/1472-6785-2-8
p263
sg64
VBMC Ecol
p264
sg66
V2
sg99
(lp265
(VEAMUS
VD
tp266
asg24
I2002
sg60
V8
sbag1
(g2
g3
NtRp267
(dp268
g68
V10.1111/j.1365-313X.2011.04786.x
p269
sg64
VPLANT J
p270
sg66
V69
p271
sg99
(lp272
(VEISENACH
VC
tp273
asg24
I2012
sg60
VLANT
p274
sbag1
(g2
g3
NtRp275
(dp276
g68
Nsg64
VPLANT CELL
p277
sg66
V3
sg99
(lp278
(VFAIRLEYGRENOT
VK
tp279
asg24
I1991
sg60
VLANT
p280
sbag1
(g2
g3
NtRp281
(dp282
g68
Nsg64
VAUST J PLANT PHYSIOL
p283
sg66
V11
p284
sg99
(lp285
(VFARQUHAR
VG D
tp286
asg24
I1984
sg60
V191
p287
sbag1
(g2
g3
NtRp288
(dp289
g68
Nsg64
VPLANT PHYSIOL
p290
sg66
V114
p291
sg99
(lp292
(VFELLE
VH H
tp293
asg24
I1997
sg60
VLANT
p294
sbag1
(g2
g3
NtRp295
(dp296
g68
V10.1073/pnas.1434381100
p297
sg64
VP NATL ACAD SCI USA
p298
sg66
V100
p299
sg99
(lp300
(VGARCIA-MATA
VC
tp301
asg24
I2003
sg60
V11116
p302
sbag1
(g2
g3
NtRp303
(dp304
g68
V10.1038/nature04504
p305
sg64
VNATURE
p306
sg66
V439
p307
sg99
(lp308
(VGEDNEY
VN
tp309
asg24
I2006
sg60
V835
p310
sbag1
(g2
g3
NtRp311
(dp312
g68
V10.1073/pnas.0702595104
p313
sg64
VP NATL ACAD SCI USA
p314
sg66
V104
p315
sg99
(lp316
(VGOBERT
VA
tp317
asg24
I2007
sg60
V10726
p318
sbag1
(g2
g3
NtRp319
(dp320
g68
V10.1007/BF01258684
p321
sg64
VPLANTA
p322
sg66
V201
p323
sg99
(lp324
(VGRABOV
VA
tp325
asg24
I1997
sg60
VLANTA
p326
sbag1
(g2
g3
NtRp327
(dp328
g68
V10.1104/pp.119.1.277
p329
sg64
VPLANT PHYSIOL
p330
sg66
V119
p331
sg99
(lp332
(VGRABOV
VA
tp333
asg24
I1999
sg60
VLANT
p334
sbag1
(g2
g3
NtRp335
(dp336
g68
V10.1073/pnas.95.8.4778
p337
sg64
VP NATL ACAD SCI USA
p338
sg66
V95
p339
sg99
(lp340
(VGRABOV
VA
tp341
asg24
I1998
sg60
V4778
p342
sbag1
(g2
g3
NtRp343
(dp344
g68
V10.1111/j.1467-7652.2008.00346.x
p345
sg64
VPLANT BIOTECHNOL J
p346
sg66
V6
sg99
(lp347
(VGUTIERREZ
VL
tp348
asg24
I2008
sg60
VLANT
p349
sbag1
(g2
g3
NtRp350
(dp351
g68
V10.1073/pnas.080068897
p352
sg64
VP NATL ACAD SCI USA
p353
sg66
V97
p354
sg99
(lp355
(VHAMILTON
VD W A
tp356
asg24
I2000
sg60
V4967
p357
sbag1
(g2
g3
NtRp358
(dp359
g68
V10.1104/pp.111.189167
p360
sg64
VPLANT PHYSIOL
p361
sg66
V158
p362
sg99
(lp363
(VHARUTA
VM
tp364
asg24
I2012
sg60
VLANT
p365
sbag1
(g2
g3
NtRp366
(dp367
g68
V10.1104/pp.112.197244
p368
sg64
VPLANT PHYSIOL
p369
sg66
V159
p370
sg99
(lp371
(VHILLS
VA
tp372
asg24
I2012
sg60
VLANT
p373
sbag1
(g2
g3
NtRp374
(dp375
g68
V10.1105/tpc.109.066118
p376
sg64
VPLANT CELL
p377
sg66
V21
p378
sg99
(lp379
(VHONSBEIN
VA
tp380
asg24
I2009
sg60
VLANT
p381
sbag1
(g2
g3
NtRp382
(dp383
g68
V10.1073/pnas.0733970100
p384
sg64
VP NATL ACAD SCI USA
p385
sg66
V100
p386
sg99
(lp387
(VHOSY
VE
tp388
asg24
I2003
sg60
V5549
p389
sbag1
(g2
g3
NtRp390
(dp391
g68
V10.1074/jbc.274.17.11599
p392
sg64
VJ BIOL CHEM
p393
sg66
V274
p394
sg99
(lp395
(VHOTH
VS
tp396
asg24
I1999
sg60
V11599
p397
sbag1
(g2
g3
NtRp398
(dp399
g68
V10.1111/j.1365-313X.2010.04352.x
p400
sg64
VPLANT J
p401
sg66
V64
p402
sg99
(lp403
(VJOSSIER
VM
tp404
asg24
I2010
sg60
VLANT
p405
sbag1
(g2
g3
NtRp406
(dp407
g68
V10.1073/pnas.0709732105
p408
sg64
VP NATL ACAD SCI USA
p409
sg66
V105
p410
sg99
(lp411
(VLEBAUDY
VA
tp412
asg24
I2008
sg60
V5271
p413
sbag1
(g2
g3
NtRp414
(dp415
g68
Nsg64
VANNU PLANT REV
p416
sg66
V15
p417
sg99
(lp418
(VLOPEZ-MARQUES
VR L
tp419
asg24
I2004
sg60
V72
p420
sbag1
(g2
g3
NtRp421
(dp422
g68
V10.1111/j.1469-8137.2008.02682.x
p423
sg64
VNEW PHYTOL
p424
sg66
V181
p425
sg99
(lp426
(VMCAINSH
VM R
tp427
asg24
I2009
sg60
V275
p428
sbag1
(g2
g3
NtRp429
(dp430
g68
Nsg64
VPHYSIOL REV
p431
sg66
V60
p432
sg99
(lp433
(VMCLAUGHLIN
VS G A
tp434
asg24
I1980
sg60
VHYSIOL
p435
sbag1
(g2
g3
NtRp436
(dp437
g68
Nsg64
VJ MEMBRANE BIOL
p438
sg66
V145
p439
sg99
(lp440
(VMEHARG
VA A
tp441
asg24
I1995
sg60
V49
p442
sbag1
(g2
g3
NtRp443
(dp444
g68
V10.1104/pp.109.2.371
p445
sg64
VPLANT PHYSIOL
p446
sg66
V109
p447
sg99
(lp448
(VNAKAMURA
VR L
tp449
asg24
I1995
sg60
VLANT
p450
sbag1
(g2
g3
NtRp451
(dp452
g68
V10.1038/nature06720
p453
sg64
VNATURE
p454
sg66
V452
p455
sg99
(lp456
(VNEGI
VJ
tp457
asg24
I2008
sg60
V483
p458
sbag1
(g2
g3
NtRp459
(dp460
g68
V10.1038/nature03381
p461
sg64
VNATURE
p462
sg66
V434
p463
sg99
(lp464
(VPEITER
VE
tp465
asg24
I2005
sg60
V404
p466
sbag1
(g2
g3
NtRp467
(dp468
g68
V10.1074/jbc.M007303200
p469
sg64
VJ BIOL CHEM
p470
sg66
V276
p471
sg99
(lp472
(VPILOT
VG
tp473
asg24
I2001
sg60
V3215
p474
sbag1
(g2
g3
NtRp475
(dp476
g68
Nsg64
VMICROBEAM ANAL
p477
sg66
V4
sg99
(lp478
(VRASBAND
VW S
tp479
asg24
I1995
sg60
V137
p480
sbag1
(g2
g3
NtRp481
(dp482
g68
V10.1007/BF01871740
p483
sg64
VJ MEMBRANE BIOL
p484
sg66
V108
p485
sg99
(lp486
(VSANDERS
VD
tp487
asg24
I1989
sg60
V253
p488
sbag1
(g2
g3
NtRp489
(dp490
g68
V10.1126/science.8966547
p491
sg64
VSCIENCE
p492
sg66
V258
p493
sg99
(lp494
(VSCHACHTMAN
VD P
tp495
asg24
I1992
sg60
V1654
p496
sbag1
(g2
g3
NtRp497
(dp498
g68
V10.1146/annurev.arplant.52.1.627
p499
sg64
VANNU REV PLANT PHYS
p500
sg66
V52
p501
sg99
(lp502
(VSCHROEDER
VJ I
tp503
asg24
I2001
sg60
V627
p504
sbag1
(g2
g3
NtRp505
(dp506
g68
V10.1111/j.1365-313X.2009.03872.x
p507
sg64
VPLANT J
p508
sg66
V59
p509
sg99
(lp510
(VSIEGEL
VR S
tp511
asg24
I2009
sg60
VLANT
p512
sbag1
(g2
g3
NtRp513
(dp514
g68
V10.1073/pnas.86.17.6607
p515
sg64
VP NATL ACAD SCI USA
p516
sg66
V86
p517
sg99
(lp518
(VSPEKSNIJDER
VJ E
tp519
asg24
I1989
sg60
V6607
p520
sbag1
(g2
g3
NtRp521
(dp522
g68
V10.1038/nature06608
p523
sg64
VNATURE
p524
sg66
V452
p525
sg99
(lp526
(VVAHISALU
VT
tp527
asg24
I2008
sg60
V487
p528
sbag1
(g2
g3
NtRp529
(dp530
g68
V10.1042/BJ20110845
p531
sg64
VBIOCHEM J
p532
sg66
V439
p533
sg99
(lp534
(VWANG
VY Z
tp535
asg24
I2011
sg60
V161
p536
sbasb.