ccopy_reg
_reconstructor
p1
(ctethne.classes.paper
Paper
p2
c__builtin__
object
p3
NtRp4
(dp5
S'publisherCity'
p6
VROCKVILLE
p7
sS'reprintAddress'
p8
VHolsters, M (reprint author), VIB, Dept Plant Syst Biol, B-9052 Ghent, Belgium.
p9
sS'WC'
p10
VPlant Sciences
p11
sS'GA'
p12
V590PS
p13
sS'FX'
p14
(lp15
VThis work was supported by the Ministerie van de Vlaamse Gemeenschap
p16
aV(grant no. CLO/IWT/020714), by the Research Foundation-Flanders (grant
p17
aVnos. G.0350.04N and 3G006607 and predoctoral fellowship to K. D.), and
p18
aVby the Agency for Innovation by Science and Technology in Flanders
p19
aV(predoctoral fellowship to G. D. H.).
p20
asS'abstract'
p21
VThe CLAVATA3/embryo-surrounding region (CLE) peptides control the fine balance between proliferation and differentiation in plant development. We studied the role of CLE peptides during indeterminate nodule development and identified 25 MtCLE peptide genes in the Medicago truncatula genome, of which two genes, MtCLE12 and MtCLE13, had nodulation-related expression patterns that were linked to proliferation and differentiation. MtCLE13 expression was up-regulated early in nodule development. A high-to-low expression gradient radiated from the inner toward the outer cortical cell layers in a region defining the incipient nodule. At later stages, MtCLE12 and MtCLE13 were expressed in differentiating nodules and in the apical part of mature, elongated nodules. Functional analysis revealed a putative role for MtCLE12 and MtCLE13 in autoregulation of nodulation, a mechanism that controls the number of nodules and involves systemic signals mediated by a leucine-rich repeat receptor-like kinase, SUNN, which is active in the shoot. When MtCLE12 and MtCLE13 were ectopically expressed in transgenic roots, nodulation was abolished at the level of the nodulation factor signal transduction, and this inhibition involved long-distance signaling. In addition, composite plants with roots ectopically expressing MtCLE12 or MtCLE13 had elongated petioles. This systemic effect was not observed in transgenic roots ectopically expressing MtCLE12 and MtCLE13 in a sunn-1 mutant background, although nodulation was still strongly reduced. These results suggest multiple roles for CLE signaling in nodulation.
p22
sS'pageEnd'
p23
I237
sS'date'
p24
I2010
sS'documentType'
p25
VArticle
p26
sS'subject'
p27
VPlant Sciences
p28
sS'isoSource'
p29
VPlant Physiol.
p30
sS'timesCited'
p31
(lp32
I41
aVZ9 41
p33
asS'funding'
p34
(lp35
(VMinisterie van de Vlaamse Gemeenschap
VCLO/IWT/020714
tp36
a(VResearch Foundation-Flanders
VG.0350.04N, 3G006607
tp37
a(VAgency for Innovation by Science and Technology in Flanders
Ntp38
asS'PT'
p39
VJ
sS'title'
p40
VCle Peptides Control Medicago Truncatula Nodulation Locally And Systemically
p41
sS'ISSN'
p42
(lp43
V0032-0889
p44
aVJ9 PLANT PHYSIOL
p45
asS'authors_full'
p46
(lp47
(VMORTIER
VVIRGINIE
tp48
a(VDEN HERDER
VGRIET
tp49
a(VWHITFORD
VRYAN
tp50
a(VVAN DE VELDE
VWILLEM
tp51
a(VROMBAUTS
VSTEPHANE
tp52
a(VDHAESELEER
VKATRIEN
tp53
a(VHOLSTERS
VMARCELLE
tp54
a(VGOORMACHTIG
VSOFIE
tp55
asS'PG'
p56
I16
sS'PD'
p57
VMAY
p58
sS'pageStart'
p59
I222
sS'issue'
p60
I1
sS'RI'
p61
VWhitford, Ryan/G-4160-2010
p62
sS'journal'
p63
VPLANT PHYSIOLOGY
p64
sS'volume'
p65
V153
p66
sS'doi'
p67
V10.1104/pp.110.153718
p68
sS'emailAddress'
p69
Vmarcelle.holsters@psb.vib-ugent.be
p70
sS'authorAddress'
p71
(lp72
V[Holsters, Marcelle] VIB, Dept Plant Syst Biol, B-9052 Ghent, Belgium.
p73
aVUniv Ghent, Dept Plant Biotechnol & Genet, B-9052 Ghent, Belgium.
p74
asS'publisherAddress'
p75
V15501 MONONA DRIVE, ROCKVILLE, MD 20855 USA
p76
sS'ER'
p77
V
sS'publisher'
p78
VAMER SOC PLANT BIOLOGISTS
p79
sS'authorKeywords'
p80
(lp81
VAUXIN TRANSPORT REGULATION
p82
aVROOT-NODULE DEVELOPMENT
p83
aVOF-FUNCTION PHENOTYPES
p84
aVRECEPTOR-LIKE KINASES
p85
aVSTEM-CELL FATE
p86
aVLOTUS-JAPONICUS
p87
aVARABIDOPSIS-THALIANA
p88
aVORGAN DEVELOPMENT
p89
aVRHIZOBIUM-MELILOTI
p90
aVGENE-EXPRESSION
p91
asS'language'
p92
VEnglish
p93
sS'wosid'
p94
VWOS:000277239900017
p95
sS'citationCount'
p96
I94
sS'authors_init'
p97
(lp98
(VMORTIER
VV
tp99
a(VDEN HERDER
VG
tp100
a(VWHITFORD
VR
tp101
a(VVAN DE VELDE
VW
tp102
a(VROMBAUTS
VS
tp103
a(VDHAESELEER
VK
tp104
a(VHOLSTERS
VM
tp105
a(VGOORMACHTIG
VS
tp106
asS'citedReferences'
p107
(lp108
g1
(g2
g3
NtRp109
(dp110
g67
V10.1105/tpc.107.052944
p111
sg63
VPLANT CELL
p112
sg65
V19
p113
sg97
(lp114
(VANDRIANKAJA
VA
tp115
asg24
I2007
sg59
VLANT
p116
sbag1
(g2
g3
NtRp117
(dp118
g67
V10.1016/j.jmb.2004.05.028
p119
sg63
VJ MOL BIOL
p120
sg65
V340
p121
sg97
(lp122
(VBENDTSEN
VJ D
tp123
asg24
I2004
sg59
V783
p124
sbag1
(g2
g3
NtRp125
(dp126
g67
V10.1038/nbt0102-83
p127
sg63
VNAT BIOTECHNOL
p128
sg65
V20
p129
sg97
(lp130
(VBEVIS
VB J
tp131
asg24
I2002
sg59
V83
p132
sbag1
(g2
g3
NtRp133
(dp134
g67
Nsg63
VREV GEN BOT
p135
sg65
V71
p136
sg97
(lp137
(VBLONDON
VF
tp138
asg24
I1964
sg59
V293
p139
sbag1
(g2
g3
NtRp140
(dp141
g67
V10.1094/MPMI.2001.14.6.695
p142
sg63
VMOL PLANT MICROBE IN
p143
sg65
V14
p144
sg97
(lp145
(VBOISSON-DERNIER
VA
tp146
asg24
I2001
sg59
V695
p147
sbag1
(g2
g3
NtRp148
(dp149
g67
V10.1094/MPMI.1999.12.10.839
p150
sg63
VMOL PLANT MICROBE IN
p151
sg65
V12
p152
sg97
(lp153
(VBOOT
VK J M
tp154
asg24
I1999
sg59
V839
p155
sbag1
(g2
g3
NtRp156
(dp157
g67
V10.1104/pp.102.016071
p158
sg63
VPLANT PHYSIOL
p159
sg65
V131
p160
sg97
(lp161
(VBORISOV
VA Y
tp162
asg24
I2003
sg59
VLANT
p163
sbag1
(g2
g3
NtRp164
(dp165
g67
V10.1104/pp.106.082594
p166
sg63
VPLANT PHYSIOL
p167
sg65
V142
p168
sg97
(lp169
(VBUCCIARELLI
VB
tp170
asg24
I2006
sg59
VLANT
p171
sbag1
(g2
g3
NtRp172
(dp173
g67
V10.1105/tpc.12.9.1647
p174
sg63
VPLANT CELL
p175
sg65
V12
p176
sg97
(lp177
(VCATOIRA
VR
tp178
asg24
I2000
sg59
VLANT
p179
sbag1
(g2
g3
NtRp180
(dp181
g67
Nsg63
VJ BACTERIOL
p182
sg65
V180
p183
sg97
(lp184
(VCHENG
VH P
tp185
asg24
I1998
sg59
V5183
p186
sbag1
(g2
g3
NtRp187
(dp188
g67
V10.1016/S0092-8674(00)80239-1
p189
sg63
VCELL
p190
sg65
V89
p191
sg97
(lp192
(VCLARK
VS E
tp193
asg24
I1997
sg59
V575
p194
sbag1
(g2
g3
NtRp195
(dp196
g67
V10.1104/pp.126.3.939
p197
sg63
VPLANT PHYSIOL
p198
sg65
V126
p199
sg97
(lp200
(VCOCK
VJ M
tp201
asg24
I2001
sg59
VLANT
p202
sbag1
(g2
g3
NtRp203
(dp204
g67
V10.1101/gad.402806
p205
sg63
VGENE DEV
p206
sg65
V20
p207
sg97
(lp208
(VCOMBIER
VJ P
tp209
asg24
I2006
sg59
V3084
p210
sbag1
(g2
g3
NtRp211
(dp212
g67
V10.1104/pp.104.049197
p213
sg63
VPLANT PHYSIOL
p214
sg65
V136
p215
sg97
(lp216
(VCOX
VM C H
tp217
asg24
I2004
sg59
VLANT
p218
sbag1
(g2
g3
NtRp219
(dp220
g67
Nsg63
VEUPHYTICA
p221
sg65
V85
p222
sg97
(lp223
(VDELOOSE
VM
tp224
asg24
I1995
sg59
V209
p225
sbag1
(g2
g3
NtRp226
(dp227
g67
V10.1104/pp.82.2.588
p228
sg63
VPLANT PHYSIOL
p229
sg65
V82
p230
sg97
(lp231
(VDELVES
VA C
tp232
asg24
I1986
sg59
VLANT
p233
sbag1
(g2
g3
NtRp234
(dp235
g67
V10.1534/genetics.108.091108
p236
sg63
VGENETICS
p237
sg65
V180
p238
sg97
(lp239
(VDEYOUNG
VB J
tp240
asg24
I2008
sg59
V895
p241
sbag1
(g2
g3
NtRp242
(dp243
g67
V10.1111/j.1365-313X.2005.02592.x
p244
sg63
VPLANT J
p245
sg65
V45
p246
sg97
(lp247
(VDEYOUNG
VB J
tp248
asg24
I2006
sg59
VLANT
p249
sbag1
(g2
g3
NtRp250
(dp251
g67
V10.1105/tpc.010504
p252
sg63
VPLANT CELL
p253
sg65
V15
p254
sg97
(lp255
(VDIEVART
VA
tp256
asg24
I2003
sg59
VLANT
p257
sbag1
(g2
g3
NtRp258
(dp259
g67
V10.1242/dev.044941
p260
sg63
VDEVELOPMENT
p261
sg65
V137
p262
sg97
(lp263
(VETCHELLS
VJ P
tp264
asg24
I2010
sg59
V767
p265
sbag1
(g2
g3
NtRp266
(dp267
g67
V10.1105/tpc.105.034009
p268
sg63
VPLANT CELL
p269
sg65
V17
p270
sg97
(lp271
(VFIERS
VM
tp272
asg24
I2005
sg59
VLANT
p273
sbag1
(g2
g3
NtRp274
(dp275
g67
V10.1016/j.cub.2007.05.049
p276
sg63
VCURR BIOL
p277
sg65
V17
p278
sg97
(lp279
(VFISHER
VK
tp280
asg24
I2007
sg59
V1061
p281
sbag1
(g2
g3
NtRp282
(dp283
g67
V10.1016/j.tplants.2008.01.003
p284
sg63
VTRENDS PLANT SCI
p285
sg65
V13
p286
sg97
(lp287
(VFRUGIER
VF
tp288
asg24
I2008
sg59
V115
p289
sbag1
(g2
g3
NtRp290
(dp291
g67
V10.1016/j.pbi.2007.08.013
p292
sg63
VCURR OPIN PLANT BIOL
p293
sg65
V10
p294
sg97
(lp295
(VFUKUDA
VH
tp296
asg24
I2007
sg59
V477
p297
sbag1
(g2
g3
NtRp298
(dp299
g67
V10.1038/nature04812
p300
sg63
VNATURE
p301
sg65
V441
p302
sg97
(lp303
(VGLEASON
VC
tp304
asg24
I2006
sg59
V1149
p305
sbag1
(g2
g3
NtRp306
(dp307
g67
V10.1105/tpc.106.043778
p308
sg63
VPLANT CELL
p309
sg65
V18
p310
sg97
(lp311
(VGONZALEZ-RIZZO
VS
tp312
asg24
I2006
sg59
VLANT
p313
sbag1
(g2
g3
NtRp314
(dp315
g67
V10.1094/MPMI.1997.10.3.316
p316
sg63
VMOL PLANT MICROBE IN
p317
sg65
V10
p318
sg97
(lp319
(VGOORMACHTIG
VS
tp320
asg24
I1997
sg59
V316
p321
sbag1
(g2
g3
NtRp322
(dp323
g67
Nsg63
VDEVELOPMENT
p324
sg65
V124
p325
sg97
(lp326
(VHEIDSTRA
VR
tp327
asg24
I1997
sg59
V1781
p328
sbag1
(g2
g3
NtRp329
(dp330
g67
V10.1073/pnas.0808444105
p331
sg63
VP NATL ACAD SCI USA
p332
sg65
V105
p333
sg97
(lp334
(VHIRAKAWA
VY
tp335
asg24
I2008
sg59
V15208
p336
sbag1
(g2
g3
NtRp337
(dp338
g67
V10.1126/science.1128436
p339
sg63
VSCIENCE
p340
sg65
V313
p341
sg97
(lp342
(VITO
VY
tp343
asg24
I2006
sg59
V842
p344
sbag1
(g2
g3
NtRp345
(dp346
g67
V10.1038/nrmicro1705
p347
sg63
VNAT REV MICROBIOL
p348
sg65
V5
sg97
(lp349
(VJONES
VK M
tp350
asg24
I2007
sg59
V619
p351
sbag1
(g2
g3
NtRp352
(dp353
g67
V10.1094/MPMI.2001.14.6.737
p354
sg63
VMOL PLANT MICROBE IN
p355
sg65
V14
p356
sg97
(lp357
(VJOURNET
VE P
tp358
asg24
I2001
sg59
V737
p359
sbag1
(g2
g3
NtRp360
(dp361
g67
V10.1093/nar/gkf685
p362
sg63
VNUCLEIC ACIDS RES
p363
sg65
V30
p364
sg97
(lp365
(VJOURNET
VE P
tp366
asg24
I2002
sg59
V5579
p367
sbag1
(g2
g3
NtRp368
(dp369
g67
V10.1007/s00018-007-7411-5
p370
sg63
VCELL MOL LIFE SCI
p371
sg65
V65
p372
sg97
(lp373
(VJUN
VJ H
tp374
asg24
I2008
sg59
V743
p375
sbag1
(g2
g3
NtRp376
(dp377
g67
V10.1104/pp.107.110411
p378
sg63
VPLANT PHYSIOL
p379
sg65
V145
p380
sg97
(lp381
(VKARIMI
VM
tp382
asg24
I2007
sg59
VLANT
p383
sbag1
(g2
g3
NtRp384
(dp385
g67
V10.1016/S1360-1385(02)02251-3
p386
sg63
VTRENDS PLANT SCI
p387
sg65
V7
sg97
(lp388
(VKARIMI
VM
tp389
asg24
I2002
sg59
V193
p390
sbag1
(g2
g3
NtRp391
(dp392
g67
V10.1094/MPMI.2002.15.1.17
p393
sg63
VMOL PLANT MICROBE IN
p394
sg65
V15
p395
sg97
(lp396
(VKAWAGUCHI
VM
tp397
asg24
I2002
sg59
V17
p398
sbag1
(g2
g3
NtRp399
(dp400
g67
V10.1093/pcp/pcm154
p401
sg63
VPLANT CELL PHYSIOL
p402
sg65
V48
p403
sg97
(lp404
(VKINOSHITA
VA
tp405
asg24
I2007
sg59
VLANT
p406
sbag1
(g2
g3
NtRp407
(dp408
g67
V10.1126/science.1128439
p409
sg63
VSCIENCE
p410
sg65
V313
p411
sg97
(lp412
(VKONDO
VT
tp413
asg24
I2006
sg59
V845
p414
sbag1
(g2
g3
NtRp415
(dp416
g67
V10.1104/pp.75.1.125
p417
sg63
VPLANT PHYSIOL
p418
sg65
V75
p419
sg97
(lp420
(VKOSSLAK
VR M
tp421
asg24
I1984
sg59
VLANT
p422
sbag1
(g2
g3
NtRp423
(dp424
g67
V10.1038/nature01207
p425
sg63
VNATURE
p426
sg65
V420
p427
sg97
(lp428
(VKRUSELL
VL
tp429
asg24
I2002
sg59
V422
p430
sbag1
(g2
g3
NtRp431
(dp432
g67
V10.1016/j.jplph.2009.03.004
p433
sg63
VJ PLANT PHYSIOL
p434
sg65
V166
p435
sg97
(lp436
(VLI
VD X
tp437
asg24
I2009
sg59
V955
p438
sbag1
(g2
g3
NtRp439
(dp440
g67
V10.1006/meth.2001.1262
p441
sg63
VMETHODS
p442
sg65
V25
p443
sg97
(lp444
(VLIVAK
VK J
tp445
asg24
I2001
sg59
V402
p446
sbag1
(g2
g3
NtRp447
(dp448
g67
V10.1038/nature02045
p449
sg63
VNATURE
p450
sg65
V425
p451
sg97
(lp452
(VMADSEN
VE B
tp453
asg24
I2003
sg59
V637
p454
sbag1
(g2
g3
NtRp455
(dp456
g67
V10.1007/s10059-009-0016-0
p457
sg63
VMOL CELLS
p458
sg65
V27
p459
sg97
(lp460
(VMAGORI
VS
tp461
asg24
I2009
sg59
V129
p462
sbag1
(g2
g3
NtRp463
(dp464
g67
V10.1104/pp.106.093021
p465
sg63
VPLANT PHYSIOL
p466
sg65
V144
p467
sg97
(lp468
(VMARSH
VJ F
tp469
asg24
I2007
sg59
VLANT
p470
sbag1
(g2
g3
NtRp471
(dp472
g67
V10.1046/j.1365-313X.1998.00090.x
p473
sg63
VPLANT J
p474
sg65
V14
p475
sg97
(lp476
(VMATHESIUS
VU
tp477
asg24
I1998
sg59
VLANT
p478
sbag1
(g2
g3
NtRp479
(dp480
g67
V10.1104/pp.102.018192
p481
sg63
VPLANT PHYSIOL
p482
sg65
V132
p483
sg97
(lp484
(VMERGAERT
VP
tp485
asg24
I2003
sg59
VLANT
p486
sbag1
(g2
g3
NtRp487
(dp488
g67
V10.1105/tpc.106.048264
p489
sg63
VPLANT CELL
p490
sg65
V19
p491
sg97
(lp492
(VMIDDLETON
VP H
tp493
asg24
I2007
sg59
VLANT
p494
sbag1
(g2
g3
NtRp495
(dp496
g67
V10.1111/j.1469-8137.2009.02921.x
p497
sg63
VNEW PHYTOL
p498
sg65
V184
p499
sg97
(lp500
(VMILLENAAR
VF F
tp501
asg24
I2009
sg59
V141
p502
sbag1
(g2
g3
NtRp503
(dp504
g67
V10.1016/j.pbi.2007.10.010
p505
sg63
VCURR OPIN PLANT BIOL
p506
sg65
V11
p507
sg97
(lp508
(VMITCHUM
VM G
tp509
asg24
I2008
sg59
V75
p510
sbag1
(g2
g3
NtRp511
(dp512
g67
V10.1007/s10265-008-0207-3
p513
sg63
VJ PLANT RES
p514
sg65
V122
p515
sg97
(lp516
(VMIWA
VH
tp517
asg24
I2009
sg59
V31
p518
sbag1
(g2
g3
NtRp519
(dp520
g67
V10.1126/science.1132514
p521
sg63
VSCIENCE
p522
sg65
V315
p523
sg97
(lp524
(VMURRAY
VJ D
tp525
asg24
I2007
sg59
V101
p526
sbag1
(g2
g3
NtRp527
(dp528
g67
V10.1104/pp.105.072678
p529
sg63
VPLANT PHYSIOL
p530
sg65
V140
p531
sg97
(lp532
(VNI
VJ
tp533
asg24
I2006
sg59
VLANT
p534
sbag1
(g2
g3
NtRp535
(dp536
g67
V10.1038/nature01231
p537
sg63
VNATURE
p538
sg65
V420
p539
sg97
(lp540
(VNISHIMURA
VR
tp541
asg24
I2002
sg59
V426
p542
sbag1
(g2
g3
NtRp543
(dp544
g67
V10.1094/MPMI-20-7-0769
p545
sg63
VMOL PLANT MICROBE IN
p546
sg65
V20
p547
sg97
(lp548
(VNONTACHALYAPOOM
VS
tp549
asg24
I2007
sg59
V769
p550
sbag1
(g2
g3
NtRp551
(dp552
g67
Nsg63
VANN BOT
p553
sg65
V16
p554
sg97
(lp555
(VNUTMAN
VP S
tp556
asg24
I1952
sg59
V79
p557
sbag1
(g2
g3
NtRp558
(dp559
g67
V10.1186/1471-2229-8-1
p560
sg63
VBMC PLANT BIOL
p561
sg65
V8
sg97
(lp562
(VOELKERS
VK
tp563
asg24
I2008
sg59
Nsbag1
(g2
g3
NtRp564
(dp565
g67
Nsg63
VSCIENCE
p566
sg65
V319
p567
sg97
(lp568
(VOGAWA
VM
tp569
asg24
I2008
sg59
V901
p570
sbag1
(g2
g3
NtRp571
(dp572
g67
V10.1038/nchembio.182
p573
sg63
VNAT CHEM BIOL
p574
sg65
V5
sg97
(lp575
(VOHYAMA
VK
tp576
asg24
I2009
sg59
V578
p577
sbag1
(g2
g3
NtRp578
(dp579
g67
V10.1093/pcp/pcn194
p580
sg63
VPLANT CELL PHYSIOL
p581
sg65
V50
p582
sg97
(lp583
(VOKAMOTO
VS
tp584
asg24
I2009
sg59
VLANT
p585
sbag1
(g2
g3
NtRp586
(dp587
g67
Nsg63
VPlant Signal Behav
p588
sg65
V4
sg97
(lp589
(VDING
VYILIANG
tp590
asg24
I2009
sg59
Vlant
p591
sbag1
(g2
g3
NtRp592
(dp593
g67
V10.1146/annurev.arplant.59.032607.092839
p594
sg63
VANNU REV PLANT BIOL
p595
sg65
V59
p596
sg97
(lp597
(VOLDROYD
VG E D
tp598
asg24
I2008
sg59
V519
p599
sbag1
(g2
g3
NtRp600
(dp601
g67
V10.1104/pp.102.010710
p602
sg63
VPLANT PHYSIOL
p603
sg65
V131
p604
sg97
(lp605
(VOLDROYD
VG E D
tp606
asg24
I2003
sg59
VLANT
p607
sbag1
(g2
g3
NtRp608
(dp609
g67
V10.1023/B:PLAN.0000004308.78057.f5
p610
sg63
VPLANT MOL BIOL
p611
sg65
V52
p612
sg97
(lp613
(VPACIOS-BRAS
VC
tp614
asg24
I2003
sg59
VLANT
p615
sbag1
(g2
g3
NtRp616
(dp617
g67
V10.1104/pp.108.13349
p618
sg63
VPlant Signal Behav
p619
sg65
V4
sg97
(lp620
(VPIERIK
VRONALD
tp621
asg24
I2009
sg59
Vlant
p622
sbag1
(g2
g3
NtRp623
(dp624
g67
V10.1094/MPMI-6-699
p625
sg63
VMOL PLANT MICROBE IN
p626
sg65
V6
sg97
(lp627
(VQUANDT
VH J
tp628
asg24
I1993
sg59
V699
p629
sbag1
(g2
g3
NtRp630
(dp631
g67
V10.1038/sj.emboj.7601826
p632
sg63
VEMBO J
p633
sg65
V26
p634
sg97
(lp635
(VRADUTOIU
VS
tp636
asg24
I2007
sg59
V3923
p637
sbag1
(g2
g3
NtRp638
(dp639
g67
V10.1038/nature02039
p640
sg63
VNATURE
p641
sg65
V425
p642
sg97
(lp643
(VRADUTOIU
VS
tp644
asg24
I2003
sg59
V585
p645
sbag1
(g2
g3
NtRp646
(dp647
g67
V10.1016/0092-8674(91)90290-F
p648
sg63
VCELL
p649
sg65
V67
p650
sg97
(lp651
(VROCHE
VP
tp652
asg24
I1991
sg59
V1131
p653
sbag1
(g2
g3
NtRp654
(dp655
g67
Nsg63
VMOL CLONING LAB MANU
p656
sg65
Nsg97
(lp657
(VSAMBROOK
VJ
tp658
asg24
I1989
sg59
Nsbag1
(g2
g3
NtRp659
(dp660
g67
V10.1093/dnares/dsn008
p661
sg63
VDNA RES
p662
sg65
V15
p663
sg97
(lp664
(VSATO
VS
tp665
asg24
I2008
sg59
V227
p666
sbag1
(g2
g3
NtRp667
(dp668
g67
V10.1038/46058
p669
sg63
VNATURE
p670
sg65
V402
p671
sg97
(lp672
(VSCHAUSER
VL
tp673
asg24
I1999
sg59
V191
p674
sbag1
(g2
g3
NtRp675
(dp676
g67
V10.1007/s11103-005-8102-y
p677
sg63
VPLANT MOL BIOL
p678
sg65
V58
p679
sg97
(lp680
(VSCHNABEL
VE
tp681
asg24
I2005
sg59
VLANT
p682
sbag1
(g2
g3
NtRp683
(dp684
g67
V10.1126/science.1077937
p685
sg63
VSCIENCE
p686
sg65
V299
p687
sg97
(lp688
(VSEARLE
VI R
tp689
asg24
I2003
sg59
V109
p690
sbag1
(g2
g3
NtRp691
(dp692
g67
V10.1023/A:1022038932376
p693
sg63
VPLANT MOL BIOL
p694
sg65
V51
p695
sg97
(lp696
(VSHARMA
VV K
tp697
asg24
I2003
sg59
VLANT
p698
sbag1
(g2
g3
NtRp699
(dp700
g67
V10.1073/pnas.181141598
p701
sg63
VP NATL ACAD SCI USA
p702
sg65
V98
p703
sg97
(lp704
(VSHIU
VS H
tp705
asg24
I2001
sg59
V10763
p706
sbag1
(g2
g3
NtRp707
(dp708
g67
V10.1126/science.1131833
p709
sg63
VSCIENCE
p710
sg65
V313
p711
sg97
(lp712
(VSIMON
VR
tp713
asg24
I2006
sg59
V773
p714
sbag1
(g2
g3
NtRp715
(dp716
g67
V10.1126/science.1111025
p717
sg63
VSCIENCE
p718
sg65
V308
p719
sg97
(lp720
(VSMIT
VP
tp721
asg24
I2005
sg59
V1789
p722
sbag1
(g2
g3
NtRp723
(dp724
g67
V10.1007/BF00041176
p725
sg63
VPLANT MOL BIOL
p726
sg65
V29
p727
sg97
(lp728
(VSMIT
VG
tp729
asg24
I1995
sg59
VLANT
p730
sbag1
(g2
g3
NtRp731
(dp732
g67
V10.1016/j.cub.2009.03.060
p733
sg63
VCURR BIOL
p734
sg65
V19
p735
sg97
(lp736
(VSTAHL
VY
tp737
asg24
I2009
sg59
V909
p738
sbag1
(g2
g3
NtRp739
(dp740
g67
V10.1104/pp.105.075515
p741
sg63
VPLANT PHYSIOL
p742
sg65
V140
p743
sg97
(lp744
(VSTRABALA
VT J
tp745
asg24
I2006
sg59
VLANT
p746
sbag1
(g2
g3
NtRp747
(dp748
g67
V10.1104/pp.94.3.865
p749
sg63
VPLANT PHYSIOL
p750
sg65
V94
p751
sg97
(lp752
(VTAKATS
VS T
tp753
asg24
I1990
sg59
VLANT
p754
sbag1
(g2
g3
NtRp755
(dp756
g67
Nsg63
VDEVELOPMENT
p757
sg65
V126
p758
sg97
(lp759
(VTIMMERS
VA C J
tp760
asg24
I1999
sg59
V3617
p761
sbag1
(g2
g3
NtRp762
(dp763
g67
V10.1126/science.1132397
p764
sg63
VSCIENCE
p765
sg65
V315
p766
sg97
(lp767
(VTIRICHINE
VL
tp768
asg24
I2007
sg59
V104
p769
sbag1
(g2
g3
NtRp770
(dp771
g67
V10.1126/science.257.5066.70
p772
sg63
VSCIENCE
p773
sg65
V257
p774
sg97
(lp775
(VVANBRUSSEL
VA A N
tp776
asg24
I1992
sg59
V70
p777
sbag1
(g2
g3
NtRp778
(dp779
g67
Nsg63
VMOL PLANT MICROBE IN
p780
sg65
V5
sg97
(lp781
(VVANDENEEDE
VG
tp782
asg24
I1992
sg59
V228
p783
sbag1
(g2
g3
NtRp784
(dp785
g67
V10.1104/pp.105.075879
p786
sg63
VPLANT PHYSIOL
p787
sg65
V140
p788
sg97
(lp789
(VVAN
VNOORDEN G E
tp790
asg24
I2006
sg59
VLANT
p791
sbag1
(g2
g3
NtRp792
(dp793
g67
V10.1094/MPMI.2001.14.7.839
p794
sg63
VMOL PLANT MICROBE IN
p795
sg65
V14
p796
sg97
(lp797
(VVAN
VSPRONSEN P C
tp798
asg24
I2001
sg59
V839
p799
sbag1
(g2
g3
NtRp800
(dp801
g67
V10.1099/0022-1317-26-1-33
p802
sg63
VJ GEN VIROL
p803
sg65
V26
p804
sg97
(lp805
(VVERVLIET
VG
tp806
asg24
I1975
sg59
V33
p807
sbag1
(g2
g3
NtRp808
(dp809
g67
V10.1105/tpc.105.038232
p810
sg63
VPLANT CELL
p811
sg65
V18
p812
sg97
(lp813
(VWASSON
VA P
tp814
asg24
I2006
sg59
VLANT
p815
sbag1
(g2
g3
NtRp816
(dp817
g67
V10.1073/pnas.0809395105
p818
sg63
VP NATL ACAD SCI USA
p819
sg65
V105
p820
sg97
(lp821
(VWHITFORD
VR
tp822
asg24
I2008
sg59
V18625
p823
sbag1
(g2
g3
NtRp824
(dp825
g67
V10.1046/j.1365-313x.2000.00799.x
p826
sg63
VPLANT J
p827
sg65
V23
p828
sg97
(lp829
(VWOPEREIS
VJ
tp830
asg24
I2000
sg59
VLANT
p831
sbag1
(g2
g3
NtRp832
(dp833
g67
Nsg63
VPLANT CELL
p834
sg65
V6
sg97
(lp835
(VYANG
VW C
tp836
asg24
I1994
sg59
VLANT
p837
sbasb.