ccopy_reg
_reconstructor
p1
(ctethne.classes.paper
Paper
p2
c__builtin__
object
p3
NtRp4
(dp5
S'publisherCity'
p6
VROCKVILLE
p7
sS'WC'
p8
VPlant Sciences
p9
sS'pageEnd'
p10
I1771
sS'publisherAddress'
p11
V15501 MONONA DRIVE, ROCKVILLE, MD 20855 USA
p12
sS'documentType'
p13
VCorrection
p14
sS'subject'
p15
VPlant Sciences
p16
sS'isoSource'
p17
VPlant Physiol.
p18
sS'timesCited'
p19
(lp20
I1
aVZ9 1
p21
asS'PT'
p22
VJ
sS'title'
p23
VSurface Position, Not Signaling From Surrounding Maternal Tissues, Specifies Aleurone Epidermal Cell Fate In Maize (Vol 141, Pg 898, 2006)
p24
sS'ISSN'
p25
(lp26
V0032-0889
p27
aVJ9 PLANT PHYSIOL
p28
asS'authors_full'
p29
(lp30
(VGRUIS
VD
tp31
a(VGUO
VH
tp32
a(VSELINGER
VD
tp33
a(VTIAN
VQ
tp34
a(VOLSEN
VO A
tp35
asS'PG'
p36
I1
sS'PD'
p37
VDEC
p38
sS'pageStart'
p39
I1771
sS'issue'
p40
I4
sS'journal'
p41
VPLANT PHYSIOLOGY
p42
sS'volume'
p43
V142
p44
sS'GA'
p45
V113TY
p46
sS'date'
p47
I2006
sS'ER'
p48
V
sS'publisher'
p49
VAMER SOC PLANT BIOLOGISTS
p50
sS'language'
p51
VEnglish
p52
sS'wosid'
p53
VWOS:000242621800037
p54
sS'citationCount'
p55
I1
sS'authors_init'
p56
(lp57
(VGRUIS
VD
tp58
a(VGUO
VH
tp59
a(VSELINGER
VD
tp60
a(VTIAN
VQ
tp61
a(VOLSEN
VO A
tp62
asS'citedReferences'
p63
(lp64
g1
(g2
g3
NtRp65
(dp66
S'doi'
p67
V10.1104/pp.106.080945
p68
sg41
VPLANT PHYSIOL
p69
sg43
V141
p70
sg56
(lp71
(VGRUIS
VD
tp72
asg47
I2006
sg39
VLANT
p73
sbasb.