ccopy_reg
_reconstructor
p1
(ctethne.classes.paper
Paper
p2
c__builtin__
object
p3
NtRp4
(dp5
S'publisherCity'
p6
VROCKVILLE
p7
sS'reprintAddress'
p8
VMadore, MA (reprint author), Univ Calif Riverside, Dept Bot & Plant Sci, Riverside, CA 92521 USA.
p9
sS'WC'
p10
VPlant Sciences
p11
sS'GA'
p12
V256UX
p13
sS'abstract'
p14
VVariegated coleus (Coleus blumei Benth.) plants were exposed to a restricted water supply for 21 d. The relative water content in leaf tissues was reduced from 80% (control) to 60% (drought-stressed). Under drought conditions, the stomatal conductance and leaf photosynthetic rate were reduced. In green leaf tissues, drought stress also greatly decreased the diurnal light-period levels of the raffinose family oligosaccharides (RFOs) stachyose and raffinose, as well as those of other non-structural carbohydrates (galactinol, sucrose, hexoses, and starch). However, drought had little effect on soluble carbohydrate content of white, non-photosynthetic leaf tissues. In green tissues, galactinol synthase activity was depressed by drought stress. An accumulation of O-methyl-inositol was also observed, which is consistent with the induction of myoinositol-6-O-methyltransferase activity seen in the stressed green tissues. In source tissues, RFO metabolism is apparently reduced by drought stress through a combined effect of decreased photosynthesis and reduced galactinol synthase activity. Moreover, a further reduction in RFO biosynthesis may have been due to a switch in carbon partitioning to O-methyl-inositol biosynthesis, creating competition for myoinositol, a metabolite shared by both biochemical pathways.
p15
sS'pageEnd'
p16
I993
sS'date'
p17
I1999
sS'documentType'
p18
VArticle
p19
sS'subject'
p20
VPlant Sciences
p21
sS'isoSource'
p22
VPlant Physiol.
p23
sS'timesCited'
p24
(lp25
I28
aVZ9 32
p26
asS'PT'
p27
VJ
sS'title'
p28
VWater Deficit Effects On Raffinose Family Oligosaccharide Metabolism In Coleus
p29
sS'ISSN'
p30
(lp31
V0032-0889
p32
aVJ9 PLANT PHYSIOL
p33
asS'authors_full'
p34
(lp35
(VPATTANAGUL
VW
tp36
a(VMADORE
VMA
tp37
asS'PG'
p38
I7
sS'PD'
p39
VNOV
p40
sS'pageStart'
p41
I987
sS'issue'
p42
I3
sS'RI'
p43
VPattanagul, Wattana/E-9253-2010
p44
sS'journal'
p45
VPLANT PHYSIOLOGY
p46
sS'volume'
p47
V121
p48
sS'doi'
p49
V10.1104/pp.121.3.987
p50
sS'emailAddress'
p51
Vmadore@mail.ucr.edu
p52
sS'authorAddress'
p53
VUniv Calif Riverside, Dept Bot & Plant Sci, Riverside, CA 92521 USA.
p54
sS'publisherAddress'
p55
V15501 MONONA DRIVE, ROCKVILLE, MD 20855 USA
p56
sS'ER'
p57
V
sS'publisher'
p58
VAMER SOC PLANT BIOLOGISTS
p59
sS'authorKeywords'
p60
(lp61
VCARBOHYDRATE-METABOLISM
p62
aVGALACTINOL SYNTHASE
p63
aVTRANSGENIC TOBACCO
p64
aVSTRESS
p65
aVLEAVES
p66
aVMANNITOL
p67
aVDROUGHT
p68
aVPHOTOSYNTHESIS
p69
aVACCUMULATION
p70
aVDESICCATION
p71
asS'language'
p72
VEnglish
p73
sS'wosid'
p74
VWOS:000083745800033
p75
sS'citationCount'
p76
I30
sS'authors_init'
p77
(lp78
(VPATTANAGUL
VW
tp79
a(VMADORE
VM A
tp80
asS'citedReferences'
p81
(lp82
g1
(g2
g3
NtRp83
(dp84
g49
Nsg45
VPLANT PHYSIOL
p85
sg47
V105
p86
sg77
(lp87
(VBACHMANN
VM
tp88
asg17
I1994
sg41
VLANT
p89
sbag1
(g2
g3
NtRp90
(dp91
g49
Nsg45
VCUR TOP PL
p92
sg47
V13
p93
sg77
(lp94
(VBACHMANN
VM
tp95
asg17
I1995
sg41
V215
p96
sbag1
(g2
g3
NtRp97
(dp98
g49
V10.1016/0167-7799(96)80929-2
p99
sg45
VTRENDS BIOTECHNOL
p100
sg47
V14
p101
sg77
(lp102
(VBOHNERT
VH J
tp103
asg17
I1996
sg41
V89
p104
sbag1
(g2
g3
NtRp105
(dp106
g49
V10.1006/abio.1976.9999
p107
sg45
VANAL BIOCHEM
p108
sg47
V72
p109
sg77
(lp110
(VBRADFORD
VM M
tp111
asg17
I1976
sg41
V248
p112
sbag1
(g2
g3
NtRp113
(dp114
g49
Nsg45
VJ IMMUNOL
p115
sg47
V156
p116
sg77
(lp117
(VCHATURVEDI
VV
tp118
asg17
I1996
sg41
V3836
p119
sbag1
(g2
g3
NtRp120
(dp121
g49
Nsg45
VPLANT PHYSIOL
p122
sg47
V115
p123
sg77
(lp124
(VGILBERT
VG A
tp125
asg17
I1997
sg41
VLANT
p126
sbag1
(g2
g3
NtRp127
(dp128
g49
V10.1016/S0098-8472(96)01047-7
p129
sg45
VENVIRON EXP BOT
p130
sg47
V37
p131
sg77
(lp132
(VGUO
VC X
tp133
asg17
I1997
sg41
V147
p134
sbag1
(g2
g3
NtRp135
(dp136
g49
V10.1146/annurev.pp.33.060182.001115
p137
sg45
VANNU REV PLANT PHYS
p138
sg47
V33
p139
sg77
(lp140
(VHANSON
VA D
tp141
asg17
I1982
sg41
V163
p142
sbag1
(g2
g3
NtRp143
(dp144
g49
Nsg45
VCAN J BOT
p145
sg47
V66
p146
sg77
(lp147
(VJACOMINI
VE
tp148
asg17
I1988
sg41
V970
p149
sbag1
(g2
g3
NtRp150
(dp151
g49
V10.1073/pnas.95.25.15129
p152
sg45
VP NATL ACAD SCI USA
p153
sg47
V95
p154
sg77
(lp155
(VJENNINGS
VD B
tp156
asg17
I1998
sg41
V15129
p157
sbag1
(g2
g3
NtRp158
(dp159
g49
V10.1093/jxb/44.8.1351
p160
sg45
VJ EXP BOT
p161
sg47
V44
p162
sg77
(lp163
(VKELLER
VF
tp164
asg17
I1993
sg41
V1351
p165
sbag1
(g2
g3
NtRp166
(dp167
g49
V10.1104/pp.88.3.829
p168
sg45
VPLANT PHYSIOL
p169
sg47
V88
p170
sg77
(lp171
(VKOSTER
VK L
tp172
asg17
I1988
sg41
VLANT
p173
sbag1
(g2
g3
NtRp174
(dp175
g49
V10.1016/S0168-9452(98)00042-9
p176
sg45
VPLANT SCI
p177
sg47
V134
p178
sg77
(lp179
(VLIU
VJ J J
tp180
asg17
I1998
sg41
VLANT
p181
sbag1
(g2
g3
NtRp182
(dp183
g49
V10.1104/pp.87.3.588
p184
sg45
VPLANT PHYSIOL
p185
sg47
V87
p186
sg77
(lp187
(VMADORE
VM A
tp188
asg17
I1988
sg41
VLANT
p189
sbag1
(g2
g3
NtRp190
(dp191
g49
V10.1104/pp.93.2.617
p192
sg45
VPLANT PHYSIOL
p193
sg47
V93
p194
sg77
(lp195
(VMADORE
VM A
tp196
asg17
I1990
sg41
VLANT
p197
sbag1
(g2
g3
NtRp198
(dp199
g49
Nsg45
VP ROY SOC EDINB B
p200
sg47
V102
p201
sg77
(lp202
(VORTHEN
VB
tp203
asg17
I1994
sg41
V269
p204
sbag1
(g2
g3
NtRp205
(dp206
g49
V10.1046/j.1365-3040.1997.d01-89.x
p207
sg45
VPLANT CELL ENVIRON
p208
sg47
V20
p209
sg77
(lp210
(VPELLESCHI
VS
tp211
asg17
I1997
sg41
VLANT
p212
sbag1
(g2
g3
NtRp213
(dp214
g49
Nsg45
VHORTSCIENCE
p215
sg47
V30
p216
sg77
(lp217
(VPHARR
VD M
tp218
asg17
I1995
sg41
V1182
p219
sbag1
(g2
g3
NtRp220
(dp221
g49
V10.1104/pp.115.2.327
p222
sg45
VPLANT PHYSIOL
p223
sg47
V115
p224
sg77
(lp225
(VSHINOZAKI
VK
tp226
asg17
I1997
sg41
VLANT
p227
sbag1
(g2
g3
NtRp228
(dp229
g49
V10.1016/0031-9422(89)80182-7
p230
sg45
VPHYTOCHEMISTRY
p231
sg47
V28
p232
sg77
(lp233
(VSMIRNOFF
VN
tp234
asg17
I1989
sg41
VHYTOCHEMISTRY
p235
sbag1
(g2
g3
NtRp236
(dp237
g49
V10.1104/pp.96.3.693
p238
sg45
VPLANT PHYSIOL
p239
sg47
V96
p240
sg77
(lp241
(VSMITH
VP T
tp242
asg17
I1991
sg41
VLANT
p243
sbag1
(g2
g3
NtRp244
(dp245
g49
V10.1126/science.259.5094.508
p246
sg45
VSCIENCE
p247
sg47
V259
p248
sg77
(lp249
(VTARCZYNSKI
VM C
tp250
asg17
I1993
sg41
V508
p251
sbag1
(g2
g3
NtRp252
(dp253
g49
V10.1007/BF02180062
p254
sg45
VPLANT SOIL
p255
sg47
V58
p256
sg77
(lp257
(VTURNER
VN C
tp258
asg17
I1981
sg41
VLANT
p259
sbag1
(g2
g3
NtRp260
(dp261
g49
Nsg45
VEMBO J
p262
sg47
V11
p263
sg77
(lp264
(VVERNON
VD M
tp265
asg17
I1992
sg41
V2077
p266
sbag1
(g2
g3
NtRp267
(dp268
g49
V10.1046/j.1365-313X.1993.04010199.x
p269
sg45
VPLANT J
p270
sg47
V4
sg77
(lp271
(VVERNON
VD M
tp272
asg17
I1993
sg41
VLANT
p273
sbag1
(g2
g3
NtRp274
(dp275
g49
V10.1006/anbo.1995.1053
p276
sg45
VANN BOT
p277
sg47
V75
p278
sg77
(lp279
(VVOLAIRE
VF
tp280
asg17
I1995
sg41
V513
p281
sbag1
(g2
g3
NtRp282
(dp283
g49
V10.1034/j.1399-3054.1998.1030305.x
p284
sg45
VPHYSIOL PLANTARUM
p285
sg47
V103
p286
sg77
(lp287
(VVU
VJ C V
tp288
asg17
I1998
sg41
VHYSIOL
p289
sbag1
(g2
g3
NtRp290
(dp291
g49
Nsg45
VANN BOT
p292
sg47
V56
p293
sg77
(lp294
(VVYAS
VS P
tp295
asg17
I1985
sg41
V323
p296
sbag1
(g2
g3
NtRp297
(dp298
g49
V10.1034/j.1399-3054.1997.1010223.x
p299
sg45
VPHYSIOL PLANTARUM
p300
sg47
V101
p301
sg77
(lp302
(VWANEK
VW
tp303
asg17
I1997
sg41
VHYSIOL
p304
sbag1
(g2
g3
NtRp305
(dp306
g49
V10.1007/BF00395973
p307
sg45
VPLANTA
p308
sg47
V164
p309
sg77
(lp310
(VWESTGATE
VM E
tp311
asg17
I1985
sg41
VLANTA
p312
sbasb.