ccopy_reg
_reconstructor
p1
(ctethne.classes.paper
Paper
p2
c__builtin__
object
p3
NtRp4
(dp5
S'publisherCity'
p6
VROCKVILLE
p7
sS'reprintAddress'
p8
VSchulze-Lefert, P (reprint author), Max Planck Inst Zuchtungsforsch, Dept Plant Microbe Interact, D-50829 Cologne, Germany.
p9
sS'WC'
p10
VPlant Sciences
p11
sS'GA'
p12
V333WR
p13
sS'pageEnd'
p14
I1583
sS'date'
p15
I2008
sS'documentType'
p16
VArticle
p17
sS'subject'
p18
VPlant Sciences
p19
sS'isoSource'
p20
VPlant Physiol.
p21
sS'timesCited'
p22
(lp23
I39
aVZ9 40
p24
asS'PT'
p25
VJ
sS'title'
p26
VSecretory Pathways In Plant Immune Responses
p27
sS'ISSN'
p28
(lp29
V0032-0889
p30
aVJ9 PLANT PHYSIOL
p31
asS'authors_full'
p32
(lp33
(VKWON
VCHIAN
tp34
a(VBEDNAREK
VPAWEL
tp35
a(VSCHULZELEFERT
VPAUL
tp36
asS'PG'
p37
I9
sS'PD'
p38
VAUG
p39
sS'pageStart'
p40
I1575
sS'issue'
p41
I4
sS'RI'
p42
VSchulze-Lefert, Paul/B-6707-2011; Bednarek, Pawel/D-2561-2009
p43
sS'journal'
p44
VPLANT PHYSIOLOGY
p45
sS'volume'
p46
V147
p47
sS'doi'
p48
V10.1104/pp.108.121566
p49
sS'emailAddress'
p50
Vschlef@mpiz-koeln.mpg.de
p51
sS'authorAddress'
p52
V[Kwon, Chian; Bednarek, Pawel; Schulze-Lefert, Paul] Max Planck Inst Zuchtungsforsch, Dept Plant Microbe Interact, D-50829 Cologne, Germany.
p53
sS'publisherAddress'
p54
V15501 MONONA DRIVE, ROCKVILLE, MD 20855 USA
p55
sS'ER'
p56
V
sS'publisher'
p57
VAMER SOC PLANT BIOLOGISTS
p58
sS'authorKeywords'
p59
(lp60
VSYSTEMIC ACQUIRED-RESISTANCE
p61
aVBINDING CASSETTE TRANSPORTER
p62
aVSYRINGAE PV PHASEOLICOLA
p63
aVPOWDERY MILDEW FUNGUS
p64
aVCELL-WALL ALTERATIONS
p65
aVARABIDOPSIS-THALIANA
p66
aVDISEASE-RESISTANCE
p67
aVTRANSCRIPTION FACTORS
p68
aVNONHOST RESISTANCE
p69
aVHYPERSENSITIVE REACTION
p70
asS'OI'
p71
VBednarek, Pawel/0000-0002-3064-7775
p72
sS'language'
p73
VEnglish
p74
sS'wosid'
p75
VWOS:000258184800013
p76
sS'citationCount'
p77
I78
sS'authors_init'
p78
(lp79
(VKWON
VC
tp80
a(VBEDNAREK
VP
tp81
a(VSCHULZELEFERT
VP
tp82
asS'citedReferences'
p83
(lp84
g1
(g2
g3
NtRp85
(dp86
g48
V10.1073/pnas.0507892103
p87
sg44
VP NATL ACAD SCI USA
p88
sg46
V103
p89
sg78
(lp90
(VABRAMOVITCH
VR B
tp91
asg15
I2006
sg40
V2851
p92
sbag1
(g2
g3
NtRp93
(dp94
g48
V10.1146/annurev.py.14.090176.001045
p95
sg44
VANNU REV PHYTOPATHOL
p96
sg46
V14
p97
sg78
(lp98
(VAIST
VJ R
tp99
asg15
I1976
sg40
V145
p100
sbag1
(g2
g3
NtRp101
(dp102
g48
V10.1073/pnas.90.15.7327
p103
sg44
VP NATL ACAD SCI USA
p104
sg46
V90
p105
sg78
(lp106
(VALEXANDER
VD
tp107
asg15
I1993
sg40
V7327
p108
sbag1
(g2
g3
NtRp109
(dp110
g48
V10.1091/mbc.E04-02-0140
p111
sg44
VMOL BIOL CELL
p112
sg46
V15
p113
sg78
(lp114
(VASSAAD
VF F
tp115
asg15
I2004
sg40
V5118
p116
sbag1
(g2
g3
NtRp117
(dp118
g48
V10.1038/nature03356
p119
sg44
VNATURE
p120
sg46
V434
p121
sg78
(lp122
(VBAIS
VH P
tp123
asg15
I2005
sg40
V217
p124
sbag1
(g2
g3
NtRp125
(dp126
g48
V10.1104/pp.104.057794
p127
sg44
VPLANT PHYSIOL
p128
sg46
V138
p129
sg78
(lp130
(VBEDNAREK
VP
tp131
asg15
I2005
sg40
VLANT
p132
sbag1
(g2
g3
NtRp133
(dp134
g48
Nsg44
VPOWDERY MILDEWS
p135
sg46
Nsg78
(lp136
(VBELANGER
VR R
tp137
asg15
I2002
sg40
VOWDERY
p138
sbag1
(g2
g3
NtRp139
(dp140
g48
Nsg44
VPLANT CELL
p141
sg46
V9
sg78
(lp142
(VBESTWICK
VC S
tp143
asg15
I1997
sg40
VLANT
p144
sbag1
(g2
g3
NtRp145
(dp146
g48
Nsg44
VPLANT PHYSIOL
p147
sg46
V108
p148
sg78
(lp149
(VBESTWICK
VC S
tp150
asg15
I1995
sg40
VLANT
p151
sbag1
(g2
g3
NtRp152
(dp153
g48
V10.1073/pnas.0500012102
p154
sg44
VP NATL ACAD SCI USA
p155
sg46
V102
p156
sg78
(lp157
(VBHAT
VR A
tp158
asg15
I2005
sg40
V3135
p159
sbag1
(g2
g3
NtRp160
(dp161
g48
V10.1038/nri2021
p162
sg44
VNAT REV IMMUNOL
p163
sg46
V7
sg78
(lp164
(VBILLADEAU
VD D
tp165
asg15
I2007
sg40
V131
p166
sbag1
(g2
g3
NtRp167
(dp168
g48
V10.1078/0176-1617-00230
p169
sg44
VJ PLANT PHYSIOL
p170
sg46
V158
p171
sg78
(lp172
(VCHURNGCHOW
VN
tp173
asg15
I2001
sg40
V875
p174
sbag1
(g2
g3
NtRp175
(dp176
g48
V10.1038/nature02076
p177
sg44
VNATURE
p178
sg46
V425
p179
sg78
(lp180
(VCOLLINS
VN C
tp181
asg15
I2003
sg40
V973
p182
sbag1
(g2
g3
NtRp183
(dp184
g48
V10.1105/tpc.12.2.279
p185
sg44
VPLANT CELL
p186
sg46
V12
p187
sg78
(lp188
(VDESPRES
VC
tp189
asg15
I2000
sg40
VLANT
p190
sbag1
(g2
g3
NtRp191
(dp192
g48
V10.1111/j.1365-313X.2006.02798.x
p193
sg44
VPLANT J
p194
sg46
V47
p195
sg78
(lp196
(VDE
VTORRES M
tp197
asg15
I2006
sg40
VLANT
p198
sbag1
(g2
g3
NtRp199
(dp200
g48
V10.1038/35081178
p201
sg44
VNATURE
p202
sg46
V411
p203
sg78
(lp204
(VDIXON
VR A
tp205
asg15
I2001
sg40
V843
p206
sbag1
(g2
g3
NtRp207
(dp208
g48
V10.1016/j.tplants.2003.12.002
p209
sg44
VTRENDS PLANT SCI
p210
sg46
V9
sg78
(lp211
(VDONG
VX N
tp212
asg15
I2004
sg40
V60
p213
sbag1
(g2
g3
NtRp214
(dp215
g48
V10.1016/S0092-8674(03)00855-9
p216
sg44
VCELL
p217
sg46
V115
p218
sg78
(lp219
(VFELDMANN
VJ
tp220
asg15
I2003
sg40
V461
p221
sbag1
(g2
g3
NtRp222
(dp223
g48
V10.1111/j.1469-8137.2006.01863.x
p224
sg44
VNEW PHYTOL
p225
sg46
V172
p226
sg78
(lp227
(VFIELD
VB
tp228
asg15
I2006
sg40
V193
p229
sbag1
(g2
g3
NtRp230
(dp231
g48
V10.1016/j.pbi.2005.05.003
p232
sg44
VCURR OPIN PLANT BIOL
p233
sg46
V8
sg78
(lp234
(VFOBERT
VP R
tp235
asg15
I2005
sg40
V378
p236
sbag1
(g2
g3
NtRp237
(dp238
g48
V10.1016/S0092-8674(03)00003-5
p239
sg44
VCELL
p240
sg46
V112
p241
sg78
(lp242
(VGELDNER
VN
tp243
asg15
I2003
sg40
V219
p244
sbag1
(g2
g3
NtRp245
(dp246
g48
V10.1016/j.tplants.2005.12.006
p247
sg44
VTRENDS PLANT SCI
p248
sg46
V11
p249
sg78
(lp250
(VGRUBB
VC D
tp251
asg15
I2006
sg40
V89
p252
sbag1
(g2
g3
NtRp253
(dp254
g48
V10.1073/pnas.021551098
p255
sg44
VP NATL ACAD SCI USA
p256
sg46
V98
p257
sg78
(lp258
(VHAGEMEIER
VJ
tp259
asg15
I2001
sg40
V753
p260
sbag1
(g2
g3
NtRp261
(dp262
g48
V10.1083/jcb.200107126
p263
sg44
VJ CELL BIOL
p264
sg46
V155
p265
sg78
(lp266
(VHEESE
VM
tp267
asg15
I2001
sg40
V239
p268
sbag1
(g2
g3
NtRp269
(dp270
g48
V10.1094/PHYTO.1998.88.8.856
p271
sg44
VPHYTOPATHOLOGY
p272
sg46
V88
p273
sg78
(lp274
(VHOOGKAMP
VT J H
tp275
asg15
I1998
sg40
VHYTOPATHOLOGY
p276
sbag1
(g2
g3
NtRp277
(dp278
g48
V10.1038/nri1245
p279
sg44
VNAT REV IMMUNOL
p280
sg46
V3
sg78
(lp281
(VHUPPA
VJ B
tp282
asg15
I2003
sg40
V973
p283
sbag1
(g2
g3
NtRp284
(dp285
g48
V10.1105/tpc.016097
p286
sg44
VPLANT CELL
p287
sg46
V15
p288
sg78
(lp289
(VJACOBS
VA K
tp290
asg15
I2003
sg40
VLANT
p291
sbag1
(g2
g3
NtRp292
(dp293
g48
V10.1038/nrm2002
p294
sg44
VNAT REV MOL CELL BIO
p295
sg46
V7
sg78
(lp296
(VJAHN
VR
tp297
asg15
I2006
sg40
V631
p298
sbag1
(g2
g3
NtRp299
(dp300
g48
V10.1105/tpc.13.5.1095
p301
sg44
VPLANT CELL
p302
sg46
V13
p303
sg78
(lp304
(VJASINSKI
VM
tp305
asg15
I2001
sg40
VLANT
p306
sbag1
(g2
g3
NtRp307
(dp308
g48
Nsg44
VCAN J BOT
p309
sg46
V60
p310
sg78
(lp311
(VJOHNSON
VL E B
tp312
asg15
I1982
sg40
V1068
p313
sbag1
(g2
g3
NtRp314
(dp315
g48
V10.1038/nature05286
p316
sg44
VNATURE
p317
sg46
V444
p318
sg78
(lp319
(VJONES
VJ D G
tp320
asg15
I2006
sg40
V323
p321
sbag1
(g2
g3
NtRp322
(dp323
g48
V10.1073/pnas.0701083104
p324
sg44
VP NATL ACAD SCI USA
p325
sg46
V104
p326
sg78
(lp327
(VKALDE
VM
tp328
asg15
I2007
sg40
V11850
p329
sbag1
(g2
g3
NtRp330
(dp331
g48
V10.1105/tpc.8.10.1711
p332
sg44
VPLANT CELL
p333
sg46
V8
sg78
(lp334
(VKNOGGE
VW
tp335
asg15
I1996
sg40
VLANT
p336
sbag1
(g2
g3
NtRp337
(dp338
g48
V10.1046/j.1365-313X.1997.11030525.x
p339
sg44
VPLANT J
p340
sg46
V11
p341
sg78
(lp342
(VKOBAYASHI
VY
tp343
asg15
I1997
sg40
VLANT
p344
sbag1
(g2
g3
NtRp345
(dp346
g48
V10.1111/j.1365-313X.2005.02545.x
p347
sg44
VPLANT J
p348
sg46
V44
p349
sg78
(lp350
(VKOH
VS
tp351
asg15
I2005
sg40
VLANT
p352
sbag1
(g2
g3
NtRp353
(dp354
g48
V10.1146/annurev.py.23.090185.001255
p355
sg44
VANNU REV PHYTOPATHOL
p356
sg46
V23
p357
sg78
(lp358
(VKOLATTUKUDY
VP E
tp359
asg15
I1985
sg40
V223
p360
sbag1
(g2
g3
NtRp361
(dp362
g48
V10.1016/j.it.2008.01.004
p363
sg44
VTRENDS IMMUNOL
p364
sg46
V29
p365
sg78
(lp366
(VKWON
VC
tp367
asg15
I2008
sg40
V159
p368
sbag1
(g2
g3
NtRp369
(dp370
g48
V10.1038/nature06545
p371
sg44
VNATURE
p372
sg46
V451
p373
sg78
(lp374
(VKWON
VC
tp375
asg15
I2008
sg40
V835
p376
sbag1
(g2
g3
NtRp377
(dp378
g48
Nsg44
VPLANT CELL
p379
sg46
V1
sg78
(lp380
(VLINTHORST
VH J M
tp381
asg15
I1989
sg40
VLANT
p382
sbag1
(g2
g3
NtRp383
(dp384
g48
V10.1146/annurev.cellbio.23.090506.123529
p385
sg44
VANNU REV CELL DEV BI
p386
sg46
V23
p387
sg78
(lp388
(VLIPKA
VV
tp389
asg15
I2007
sg40
V147
p390
sbag1
(g2
g3
NtRp391
(dp392
g48
V10.1126/science.1119409
p393
sg44
VSCIENCE
p394
sg46
V310
p395
sg78
(lp396
(VLIPKA
VV
tp397
asg15
I2005
sg40
V1180
p398
sbag1
(g2
g3
NtRp399
(dp400
g48
V10.1016/S0092-8674(00)80993-9
p401
sg44
VCELL
p402
sg46
V84
p403
sg78
(lp404
(VLUKOWITZ
VW
tp405
asg15
I1996
sg40
V61
p406
sbag1
(g2
g3
NtRp407
(dp408
g48
V10.1046/j.1365-313X.1999.00403.x
p409
sg44
VPLANT J
p410
sg46
V17
p411
sg78
(lp412
(VMCLUSKY
VS R
tp413
asg15
I1999
sg40
VLANT
p414
sbag1
(g2
g3
NtRp415
(dp416
g48
V10.1016/S1369-5266(99)00055-2
p417
sg44
VCURR OPIN PLANT BIOL
p418
sg46
V3
sg78
(lp419
(VMELCHERS
VL S
tp420
asg15
I2000
sg40
V147
p421
sbag1
(g2
g3
NtRp422
(dp423
g48
V10.1016/j.cell.2006.06.054
p424
sg44
VCELL
p425
sg46
V126
p426
sg78
(lp427
(VMELOTTO
VM
tp428
asg15
I2006
sg40
V969
p429
sbag1
(g2
g3
NtRp430
(dp431
g48
Nsg44
VNAT GENET
p432
sg46
V25
p433
sg78
(lp434
(VMENASCHE
VG
tp435
asg15
I2000
sg40
V173
p436
sbag1
(g2
g3
NtRp437
(dp438
g48
Nsg44
VNew Phytologist
p439
sg46
V124
p440
sg78
(lp441
(VMENDGEN
VKURT
tp442
asg15
I1993
sg40
V192
p443
sbag1
(g2
g3
NtRp444
(dp445
g48
V10.1104/pp.107.098897
p446
sg44
VPLANT PHYSIOL
p447
sg46
V144
p448
sg78
(lp449
(VMIKLIS
VM
tp450
asg15
I2007
sg40
VLANT
p451
sbag1
(g2
g3
NtRp452
(dp453
g48
V10.1074/jbc.M304843200
p454
sg44
VJ BIOL CHEM
p455
sg46
V278
p456
sg78
(lp457
(VMILNE
VT J
tp458
asg15
I2003
sg40
V31105
p459
sbag1
(g2
g3
NtRp460
(dp461
g48
V10.1016/S0955-0674(03)00071-1
p462
sg44
VCURR OPIN CELL BIOL
p463
sg46
V15
p464
sg78
(lp465
(VNIE
VZ Z
tp466
asg15
I2003
sg40
V396
p467
sbag1
(g2
g3
NtRp468
(dp469
g48
V10.1016/j.pmpp.2005.02.001
p470
sg44
VPHYSIOL MOL PLANT P
p471
sg46
V65
p472
sg78
(lp473
(VNIELSEN
VK A
tp474
asg15
I2004
sg40
VHYSIOL
p475
sbag1
(g2
g3
NtRp476
(dp477
g48
V10.1126/science.1086716
p478
sg44
VSCIENCE
p479
sg46
V301
p480
sg78
(lp481
(VNISHIMURA
VM T
tp482
asg15
I2003
sg40
V969
p483
sbag1
(g2
g3
NtRp484
(dp485
g48
V10.1126/science.1129523
p486
sg44
VSCIENCE
p487
sg46
V313
p488
sg78
(lp489
(VNOMURA
VK
tp490
asg15
I2006
sg40
V220
p491
sbag1
(g2
g3
NtRp492
(dp493
g48
V10.1111/j.1365-313X.2004.02292.x
p494
sg44
VPLANT J
p495
sg46
V41
p496
sg78
(lp497
(VOPALSKI
VK S
tp498
asg15
I2005
sg40
VLANT
p499
sbag1
(g2
g3
NtRp500
(dp501
g48
V10.1038/nature05966
p502
sg44
VNATURE
p503
sg46
V448
p504
sg78
(lp505
(VROSEBROCK
VT R
tp506
asg15
I2007
sg40
V370
p507
sbag1
(g2
g3
NtRp508
(dp509
g48
V10.1016/S0014-5793(02)02697-2
p510
sg44
VFEBS LETT
p511
sg46
V518
p512
sg78
(lp513
(VSASABE
VM
tp514
asg15
I2002
sg40
V164
p515
sbag1
(g2
g3
NtRp516
(dp517
g48
V10.1016/S1360-1385(02)02307-5
p518
sg44
VTRENDS PLANT SCI
p519
sg46
V7
sg78
(lp520
(VSCHMELZER
VE
tp521
asg15
I2002
sg40
V411
p522
sbag1
(g2
g3
NtRp523
(dp524
g48
V10.1046/j.1365-313X.2003.01905.x
p525
sg44
VPLANT J
p526
sg46
V36
p527
sg78
(lp528
(VSCHULTHEISS
VH
tp529
asg15
I2003
sg40
VLANT
p530
sbag1
(g2
g3
NtRp531
(dp532
g48
V10.1016/j.jmb.2004.03.015
p533
sg44
VJ MOL BIOL
p534
sg46
V339
p535
sg78
(lp536
(VSERRANO
VR L
tp537
asg15
I2004
sg40
V173
p538
sbag1
(g2
g3
NtRp539
(dp540
g48
V10.1016/0885-5765(91)90012-7
p541
sg44
VPHYSIOL MOL PLANT P
p542
sg46
V39
p543
sg78
(lp544
(VSNYDER
VB A
tp545
asg15
I1991
sg40
VHYSIOL
p546
sbag1
(g2
g3
NtRp547
(dp548
g48
V10.1126/science.248.4963.1637
p549
sg44
VSCIENCE
p550
sg46
V248
p551
sg78
(lp552
(VSNYDER
VB A
tp553
asg15
I1990
sg40
V1637
p554
sbag1
(g2
g3
NtRp555
(dp556
g48
V10.1105/tpc.105.038372
p557
sg44
VPLANT CELL
p558
sg46
V18
p559
sg78
(lp560
(VSTEIN
VM
tp561
asg15
I2006
sg40
VLANT
p562
sbag1
(g2
g3
NtRp563
(dp564
g48
V10.1146/annurev.cellbio.23.090506.123521
p565
sg44
VANNU REV CELL DEV BI
p566
sg46
V23
p567
sg78
(lp568
(VSTINCHCOMBE
VJ C
tp569
asg15
I2007
sg40
V495
p570
sbag1
(g2
g3
NtRp571
(dp572
g48
V10.1104/pp.105.062372
p573
sg44
VPLANT PHYSIOL
p574
sg46
V139
p575
sg78
(lp576
(VSTUKKENS
VY
tp577
asg15
I2005
sg40
VLANT
p578
sbag1
(g2
g3
NtRp579
(dp580
g48
V10.1046/j.1365-313X.2003.01673.x
p581
sg44
VPLANT J
p582
sg46
V33
p583
sg78
(lp584
(VTAKEMOTO
VD
tp585
asg15
I2003
sg40
VLANT
p586
sbag1
(g2
g3
NtRp587
(dp588
g48
V10.1016/j.phytochem.2003.12.009
p589
sg44
VPHYTOCHEMISTRY
p590
sg46
V65
p591
sg78
(lp592
(VTAN
VJ W
tp593
asg15
I2004
sg40
VHYTOCHEMISTRY
p594
sbag1
(g2
g3
NtRp595
(dp596
g48
V[10.1111/j.1364-3703.2005.00292.x, 10.1111/J.1364-3703.2005.00292.X]
p597
sg44
VMOL PLANT PATHOL
p598
sg46
V6
sg78
(lp599
(VTHOMMA
VBPHJ
tp600
asg15
I2005
sg40
V379
p601
sbag1
(g2
g3
NtRp602
(dp603
g48
V10.1247/csf.29.49
p604
sg44
VCELL STRUCT FUNCT
p605
sg46
V29
p606
sg78
(lp607
(VUEMURA
VT
tp608
asg15
I2004
sg40
V49
p609
sbag1
(g2
g3
NtRp610
(dp611
g48
V10.1146/annurev.phyto.44.070505.143425
p612
sg44
VANNU REV PHYTOPATHOL
p613
sg46
V44
p614
sg78
(lp615
(VVAN
VLOON L C
tp616
asg15
I2006
sg40
V135
p617
sbag1
(g2
g3
NtRp618
(dp619
g48
V10.1126/science.1108791
p620
sg44
VSCIENCE
p621
sg46
V308
p622
sg78
(lp623
(VWANG
VD
tp624
asg15
I2005
sg40
V1036
p625
sbag1
(g2
g3
NtRp626
(dp627
g48
V10.1111/j.1574-695X.2002.tb00602.x
p628
sg44
VFEMS IMMUNOL MED MIC
p629
sg46
V34
p630
sg78
(lp631
(VWANG
VJ F
tp632
asg15
I2002
sg40
V51
p633
sbag1
(g2
g3
NtRp634
(dp635
g48
V10.1017/S0953756204000243
p636
sg44
VMYCOL RES
p637
sg46
V108
p638
sg78
(lp639
(VWEBER
VR W S
tp640
asg15
I2004
sg40
V662
p641
sbag1
(g2
g3
NtRp642
(dp643
g48
V10.1073/pnas.1430749100
p644
sg44
VP NATL ACAD SCI USA
p645
sg46
V100
p646
sg78
(lp647
(VYANO
VD
tp648
asg15
I2003
sg40
V8589
p649
sbag1
(g2
g3
NtRp650
(dp651
g48
V10.1073/pnas.96.11.6523
p652
sg44
VP NATL ACAD SCI USA
p653
sg46
V96
p654
sg78
(lp655
(VZHANG
VY L
tp656
asg15
I1999
sg40
V6523
p657
sbag1
(g2
g3
NtRp658
(dp659
g48
V10.1105/tpc.014894
p660
sg44
VPLANT CELL
p661
sg46
V15
p662
sg78
(lp663
(VZHANG
VY L
tp664
asg15
I2003
sg40
VLANT
p665
sbag1
(g2
g3
NtRp666
(dp667
g48
V10.1111/j.1365-313X.2006.02961.x
p668
sg44
VPLANT J
p669
sg46
V49
p670
sg78
(lp671
(VZHANG
VZ G
tp672
asg15
I2007
sg40
VLANT
p673
sbag1
(g2
g3
NtRp674
(dp675
g48
V10.1104/pp.113.2.463
p676
sg44
VPLANT PHYSIOL
p677
sg46
V113
p678
sg78
(lp679
(VZOOK
VM
tp680
asg15
I1997
sg40
VLANT
p681
sbag1
(g2
g3
NtRp682
(dp683
g48
V10.1093/hmg/ddi076
p684
sg44
VHUM MOL GENET
p685
sg46
V14
p686
sg78
(lp687
(VZUR
VSTADT U
tp688
asg15
I2005
sg40
V827
p689
sbasb.