ccopy_reg
_reconstructor
p1
(ctethne.classes.paper
Paper
p2
c__builtin__
object
p3
NtRp4
(dp5
S'publisherCity'
p6
VROCKVILLE
p7
sS'reprintAddress'
p8
VWalker, AR (reprint author), Univ Adelaide, Commonwealth Sci & Ind Res Org, Adelaide Lab, Waite Campus, Urrbrae, SA 5064, Australia.
p9
sS'WC'
p10
VPlant Sciences
p11
sS'GA'
p12
V103NG
p13
sS'abstract'
p14
VAnthocyanins are secondary metabolites found in higher plants that contribute to the colors of flowers and fruits. In apples ( Malus domestica Borkh.), several steps of the anthocyanin pathway are coordinately regulated, suggesting control by common transcription factors. A gene encoding an R2R3 MYB transcription factor was isolated from apple (cv Cripps' Pink) and designated MdMYB1. Analysis of the deduced amino acid sequence suggests that this gene encodes an ortholog of anthocyanin regulators in other plants. The expression of MdMYB1 in both Arabidopsis ( Arabidopsis thaliana) plants and cultured grape cells induced the ectopic synthesis of anthocyanin. In the grape ( Vitis vinifera) cells MdMYB1 stimulated transcription from the promoters of two apple genes encoding anthocyanin biosynthetic enzymes. In ripening apple fruit the transcription of MdMYB1 was correlated with anthocyanin synthesis in red skin sectors of fruit. When dark-grown fruit were exposed to sunlight, MdMYB1 transcript levels increased over several days, correlating with anthocyanin synthesis in the skin. MdMYB1 gene transcripts were more abundant in red skin apple cultivars compared to non-red skin cultivars. Several polymorphisms were identified in the promoter of MdMYB1. A derived cleaved amplified polymorphic sequence marker designed to one of these polymorphisms segregated with the inheritance of skin color in progeny from a cross of an unnamed red skin selection ( a sibling of Cripps' Pink) and the non-red skin cultivar Golden Delicious. We conclude that MdMYB1 coordinately regulates genes in the anthocyanin pathway and the expression level of this regulator is the genetic basis for apple skin color.
p15
sS'pageEnd'
p16
I1232
sS'date'
p17
I2006
sS'documentType'
p18
VArticle
p19
sS'subject'
p20
VPlant Sciences
p21
sS'isoSource'
p22
VPlant Physiol.
p23
sS'timesCited'
p24
(lp25
I137
aVZ9 168
p26
asS'PT'
p27
VJ
sS'title'
p28
VLight-Induced Expression Of A Myb Gene Regulates Anthocyanin Biosynthesis In Red Apples
p29
sS'ISSN'
p30
(lp31
V0032-0889
p32
aVJ9 PLANT PHYSIOL
p33
asS'authors_full'
p34
(lp35
(VTAKOS
VADAM M
tp36
a(VJAFFE
VFELIX W
tp37
a(VJACOB
VSTEELE R
tp38
a(VBOGS
VJOCHEN
tp39
a(VROBINSON
VSIMON P
tp40
a(VWALKER
VAMANDA R
tp41
asS'PG'
p42
I17
sS'PD'
p43
VNOV
p44
sS'pageStart'
p45
I1216
sS'issue'
p46
I3
sS'RI'
p47
VRobinson, Simon/B-3800-2012; Walker, Amanda/C-4957-2012
p48
sS'journal'
p49
VPLANT PHYSIOLOGY
p50
sS'volume'
p51
V142
p52
sS'doi'
p53
V10.1104/pp.106.088104
p54
sS'emailAddress'
p55
Vmandy.walker@csiro.au
p56
sS'authorAddress'
p57
(lp58
VUniv Adelaide, Commonwealth Sci & Ind Res Org, Adelaide Lab, Urrbrae, SA 5064, Australia.
p59
aVManjimup Hort Res Inst, Dept Agr & Food Western Australia, Manjimup, WA 6258, Australia.
p60
asS'publisherAddress'
p61
V15501 MONONA DRIVE, ROCKVILLE, MD 20855 USA
p62
sS'ER'
p63
V
sS'publisher'
p64
VAMER SOC PLANT BIOLOGISTS
p65
sS'authorKeywords'
p66
(lp67
VDEVELOPING GRAPE BERRIES
p68
aVVITIS-VINIFERA L.
p69
aVFRUIT SKIN COLOR
p70
aVTRANSCRIPTION FACTOR
p71
aVFLAVONOID BIOSYNTHESIS
p72
aVARABIDOPSIS-THALIANA
p73
aVPHENYLPROPANOID BIOSYNTHESIS
p74
aVDEVELOPMENTAL-CHANGES
p75
aVPERILLA-FRUTESCENS
p76
aVCHLOROGENIC ACID
p77
asS'language'
p78
VEnglish
p79
sS'wosid'
p80
VWOS:000241892900036
p81
sS'citationCount'
p82
I88
sS'authors_init'
p83
(lp84
(VTAKOS
VA M
tp85
a(VJAFFE
VF W
tp86
a(VJACOB
VS R
tp87
a(VBOGS
VJ
tp88
a(VROBINSON
VS P
tp89
a(VWALKER
VA R
tp90
asS'citedReferences'
p91
(lp92
g1
(g2
g3
NtRp93
(dp94
g53
V10.1016/j.tplants.2004.05.004
p95
sg49
VTRENDS PLANT SCI
p96
sg51
V9
sg83
(lp97
(VADAMS-PHILLIPS
VL
tp98
asg17
I2004
sg45
V331
p99
sbag1
(g2
g3
NtRp100
(dp101
g53
V10.1046/j.1365-313X.2001.01154.x
p102
sg49
VPLANT J
p103
sg51
V28
p104
sg83
(lp105
(VAHARONI
VA
tp106
asg17
I2001
sg45
VLANT
p107
sbag1
(g2
g3
NtRp108
(dp109
g53
V10.1021/jf052947w
p110
sg49
VJ AGR FOOD CHEM
p111
sg51
V54
p112
sg83
(lp113
(VANTTONEN
VM J
tp114
asg17
I2006
sg45
V2614
p115
sbag1
(g2
g3
NtRp116
(dp117
g53
Nsg49
VJ JPN SOC HORTIC SCI
p118
sg51
V57
p119
sg83
(lp120
(VARAKAWA
VO
tp121
asg17
I1988
sg45
V373
p122
sbag1
(g2
g3
NtRp123
(dp124
g53
V10.1016/S0304-4238(00)00215-6
p125
sg49
VSCI HORTIC
p126
sg51
V88
p127
sg83
(lp128
(VAWADA
VM A
tp129
asg17
I2001
sg45
V289
p130
sbag1
(g2
g3
NtRp131
(dp132
g53
V10.1016/S0304-4238(01)00266-7
p133
sg49
VSCI HORTIC
p134
sg51
V91
p135
sg83
(lp136
(VAWAD
VM A
tp137
asg17
I2001
sg45
V227
p138
sbag1
(g2
g3
NtRp139
(dp140
g53
V10.1111/j.1365-313X.2004.02138.x
p141
sg49
VPLANT J
p142
sg51
V39
p143
sg83
(lp144
(VBAUDRY
VA
tp145
asg17
I2004
sg45
VLANT
p146
sbag1
(g2
g3
NtRp147
(dp148
g53
V10.1104/pp.105.064238
p149
sg49
VPLANT PHYSIOL
p150
sg51
V139
p151
sg83
(lp152
(VBOGS
VJ
tp153
asg17
I2005
sg45
VLANT
p154
sbag1
(g2
g3
NtRp155
(dp156
g53
V10.1105/tpc.12.12.2383
p157
sg49
VPLANT CELL
p158
sg51
V12
p159
sg83
(lp160
(VBOREVITZ
VJ O
tp161
asg17
I2000
sg45
VLANT
p162
sbag1
(g2
g3
NtRp163
(dp164
g53
V10.1007/s00122-004-1625-9
p165
sg49
VTHEOR APPL GENET
p166
sg51
V109
p167
sg83
(lp168
(VBOROVSKY
VY
tp169
asg17
I2004
sg45
V23
p170
sbag1
(g2
g3
NtRp171
(dp172
g53
V10.1007/BF00019111
p173
sg49
VPLANT MOL BIOL
p174
sg51
V32
p175
sg83
(lp176
(VBOSS
VP K
tp177
asg17
I1996
sg45
VLANT
p178
sbag1
(g2
g3
NtRp179
(dp180
g53
V10.1007/BF00225749
p181
sg49
VTHEOR APPL GENET
p182
sg51
V93
p183
sg83
(lp184
(VCHENG
VF S
tp185
asg17
I1996
sg45
V222
p186
sbag1
(g2
g3
NtRp187
(dp188
g53
V10.1046/j.1365-313x.1998.00343.x
p189
sg49
VPLANT J
p190
sg51
V16
p191
sg83
(lp192
(VCLOUGH
VS J
tp193
asg17
I1998
sg45
VLANT
p194
sbag1
(g2
g3
NtRp195
(dp196
g53
Nsg49
VNEW ZEAL J CROP HORT
p197
sg51
V25
p198
sg83
(lp199
(VCORRIGAN
VV K
tp200
asg17
I1997
sg45
V375
p201
sbag1
(g2
g3
NtRp202
(dp203
g53
V10.1071/FP03062
p204
sg49
VFUNCT PLANT BIOL
p205
sg51
V30
p206
sg83
(lp207
(VDAVIES
VK M
tp208
asg17
I2003
sg45
V913
p209
sbag1
(g2
g3
NtRp210
(dp211
g53
V10.1104/pp.105.067231
p212
sg49
VPLANT PHYSIOL
p213
sg51
V140
p214
sg83
(lp215
(VDELUC
VL
tp216
asg17
I2006
sg45
VLANT
p217
sbag1
(g2
g3
NtRp218
(dp219
g53
V10.1046/j.1365-313X.1999.00529.x
p220
sg49
VPLANT J
p221
sg51
V19
p222
sg83
(lp223
(VDEVIC
VM
tp224
asg17
I1999
sg45
VLANT
p225
sbag1
(g2
g3
NtRp226
(dp227
g53
V10.1007/BF00041286
p228
sg49
VPLANT CELL TISS ORG
p229
sg51
V27
p230
sg83
(lp231
(VDO
VC B
tp232
asg17
I1991
sg45
VLANT
p233
sbag1
(g2
g3
NtRp234
(dp235
g53
Nsg49
VAUST VITIC
p236
sg51
V9
sg83
(lp237
(VDOWNEY
VM
tp238
asg17
I2005
sg45
V68
p239
sbag1
(g2
g3
NtRp240
(dp241
g53
Nsg49
VAUST J GRAPE WINE R
p242
sg51
V10
p243
sg83
(lp244
(VDOWNEY
VM O
tp245
asg17
I2004
sg45
V55
p246
sbag1
(g2
g3
NtRp247
(dp248
g53
V10.1111/j.1755-0238.2003.tb00261.x
p249
sg49
VAUST J GRAPE WINE R
p250
sg51
V9
sg83
(lp251
(VDOWNEY
VM O
tp252
asg17
I2003
sg45
V110
p253
sbag1
(g2
g3
NtRp254
(dp255
g53
V10.1111/j.1755-0238.2003.tb00228.x
p256
sg49
VAUST J GRAPE WINE R
p257
sg51
V9
sg83
(lp258
(VDOWNEY
VM O
tp259
asg17
I2003
sg45
V15
p260
sbag1
(g2
g3
NtRp261
(dp262
g53
Nsg49
VCAN J PLANT SCI
p263
sg51
V85
p264
sg83
(lp265
(VEMBREE
VC G
tp266
asg17
I2005
sg45
V453
p267
sbag1
(g2
g3
NtRp268
(dp269
g53
V10.1104/pp.127.2.566
p270
sg49
VPLANT PHYSIOL
p271
sg51
V127
p272
sg83
(lp273
(VFEILD
VT S
tp274
asg17
I2001
sg45
VLANT
p275
sbag1
(g2
g3
NtRp276
(dp277
g53
V10.1093/annonc/mdi361
p278
sg49
VANN ONCOL
p279
sg51
V16
p280
sg83
(lp281
(VGALLUS
VS
tp282
asg17
I2005
sg45
V1841
p283
sbag1
(g2
g3
NtRp284
(dp285
g53
V10.1007/BF00028910
p286
sg49
VPLANT MOL BIOL
p287
sg51
V20
p288
sg83
(lp289
(VGLEAVE
VA P
tp290
asg17
I1992
sg45
VLANT
p291
sbag1
(g2
g3
NtRp292
(dp293
g53
V10.1007/PL00008639
p294
sg49
VMOL GEN GENET
p295
sg51
V262
p296
sg83
(lp297
(VGONG
VZ Z
tp298
asg17
I1999
sg45
V65
p299
sbag1
(g2
g3
NtRp300
(dp301
g53
V10.1021/jf0524170
p302
sg49
VJ AGR FOOD CHEM
p303
sg51
V54
p304
sg83
(lp305
(VHALBWIRTH
VH
tp306
asg17
I2006
sg45
V1479
p307
sbag1
(g2
g3
NtRp308
(dp309
g53
V10.1007/s11103-004-6910-0
p310
sg49
VPLANT MOL BIOL
p311
sg51
V57
p312
sg83
(lp313
(VHARTMANN
VU
tp314
asg17
I2005
sg45
VLANT
p315
sbag1
(g2
g3
NtRp316
(dp317
g53
V10.1074/jbc.M407845200
p318
sg49
VJ BIOL CHEM
p319
sg51
V279
p320
sg83
(lp321
(VHERNANDEZ
VJ M
tp322
asg17
I2004
sg45
V48205
p323
sbag1
(g2
g3
NtRp324
(dp325
g53
V10.1016/S0981-9428(02)01454-7
p326
sg49
VPLANT PHYSIOL BIOCH
p327
sg51
V40
p328
sg83
(lp329
(VHONDA
VC
tp330
asg17
I2002
sg45
VLANT
p331
sbag1
(g2
g3
NtRp332
(dp333
g53
Nsg49
VBMC BIOTECHNOL
p334
sg51
V4
sg83
(lp335
(VHORSTMANN
VV
tp336
asg17
I2004
sg45
V1
sbag1
(g2
g3
NtRp337
(dp338
g53
V10.1016/S0304-4238(01)00308-9
p339
sg49
VSCI HORTIC
p340
sg51
V93
p341
sg83
(lp342
(VIGLESIAS
VI
tp343
asg17
I2002
sg45
V39
p344
sbag1
(g2
g3
NtRp345
(dp346
g53
V10.1104/pp.006957
p347
sg49
VPLANT PHYSIOL
p348
sg51
V130
p349
sg83
(lp350
(VJAAKOLA
VL
tp351
asg17
I2002
sg45
VLANT
p352
sbag1
(g2
g3
NtRp353
(dp354
g53
V10.1016/j.plantsci.2004.03.021
p355
sg49
VPLANT SCI
p356
sg51
V167
p357
sg83
(lp358
(VJEONG
VS T
tp359
asg17
I2004
sg45
VLANT
p360
sbag1
(g2
g3
NtRp361
(dp362
g53
V10.1016/j.postharvbio.2004.06.004
p363
sg49
VPOSTHARVEST BIOL TEC
p364
sg51
V35
p365
sg83
(lp366
(VJIA
VH J
tp367
asg17
I2005
sg45
VOSTHARVEST
p368
sbag1
(g2
g3
NtRp369
(dp370
g53
V10.1186/gb-2004-5-7-r46
p371
sg49
VGENOME BIOL
p372
sg51
V5
sg83
(lp373
(VJIANG
VC Z
tp374
asg17
I2004
sg45
Nsbag1
(g2
g3
NtRp375
(dp376
g53
V10.1016/S0304-4238(99)00038-2
p377
sg49
VSCI HORTIC
p378
sg51
V82
p379
sg83
(lp380
(VJU
VZ Q
tp381
asg17
I1999
sg45
V47
p382
sbag1
(g2
g3
NtRp383
(dp384
g53
Nsg49
VHORTSCIENCE
p385
sg51
V39
p386
sg83
(lp387
(VKATAOKA
VI
tp388
asg17
I2004
sg45
V1234
p389
sbag1
(g2
g3
NtRp390
(dp391
g53
V10.1016/S0168-9452(03)00201-2
p392
sg49
VPLANT SCI
p393
sg51
V165
p394
sg83
(lp395
(VKIM
VS H
tp396
asg17
I2003
sg45
VLANT
p397
sbag1
(g2
g3
NtRp398
(dp399
g53
Nsg49
VJ AMER POMOLOG SOC
p400
sg51
V56
p401
sg83
(lp402
(VKING
VM C
tp403
asg17
I2002
sg45
V223
p404
sbag1
(g2
g3
NtRp405
(dp406
g53
V10.1126/science.1095011
p407
sg49
VSCIENCE
p408
sg51
V304
p409
sg83
(lp410
(VKOBAYASHI
VS
tp411
asg17
I2004
sg45
V982
p412
sbag1
(g2
g3
NtRp413
(dp414
g53
V10.1016/j.tplants.2005.03.002
p415
sg49
VTRENDS PLANT SCI
p416
sg51
V10
p417
sg83
(lp418
(VKOES
VR
tp419
asg17
I2005
sg45
V236
p420
sbag1
(g2
g3
NtRp421
(dp422
g53
Nsg49
VJ HORTIC SCI BIOTECH
p423
sg51
V77
p424
sg83
(lp425
(VKONDO
VS
tp426
asg17
I2002
sg45
V718
p427
sbag1
(g2
g3
NtRp428
(dp429
g53
Nsg49
VJ JPN SOC HORTIC SCI
p430
sg51
V70
p431
sg83
(lp432
(VKONDO
VS
tp433
asg17
I2001
sg45
V546
p434
sbag1
(g2
g3
NtRp435
(dp436
g53
V10.1080/07352689209382324
p437
sg49
VCRIT REV PLANT SCI
p438
sg51
V10
p439
sg83
(lp440
(VLANCASTER
VJ E
tp441
asg17
I1992
sg45
V487
p442
sbag1
(g2
g3
NtRp443
(dp444
g53
V10.1021/jf051503x
p445
sg49
VJ AGR FOOD CHEM
p446
sg51
V53
p447
sg83
(lp448
(VLATA
VB
tp449
asg17
I2005
sg45
V8970
p450
sbag1
(g2
g3
NtRp451
(dp452
g53
Nsg49
VHORTTECHNOLOGY
p453
sg51
V12
p454
sg83
(lp455
(VLAYNE
VD R
tp456
asg17
I2002
sg45
V640
p457
sbag1
(g2
g3
NtRp458
(dp459
g53
Nsg49
VJ PLANT BIOL
p460
sg51
V48
p461
sg83
(lp462
(VLEE
VY
tp463
asg17
I2005
sg45
V356
p464
sbag1
(g2
g3
NtRp465
(dp466
g53
Nsg49
VJ JPN SOC HORTIC SCI
p467
sg51
V70
p468
sg83
(lp469
(VLI
VY J
tp470
asg17
I2001
sg45
V28
p471
sbag1
(g2
g3
NtRp472
(dp473
g53
Nsg49
VJ JPN SOC HORTIC SCI
p474
sg51
V71
p475
sg83
(lp476
(VLI
VZ H
tp477
asg17
I2002
sg45
V317
p478
sbag1
(g2
g3
NtRp479
(dp480
g53
V10.1002/(SICI)1097-0010(199607)71:3<313::AID-JSFA586>3.0.CO;2-N
p481
sg49
VJ SCI FOOD AGR
p482
sg51
V71
p483
sg83
(lp484
(VLISTER
VC E
tp485
asg17
I1996
sg45
V313
p486
sbag1
(g2
g3
NtRp487
(dp488
g53
V10.1002/jsfa.2740640204
p489
sg49
VJ SCI FOOD AGR
p490
sg51
V64
p491
sg83
(lp492
(VLISTER
VC E
tp493
asg17
I1994
sg45
V155
p494
sbag1
(g2
g3
NtRp495
(dp496
g53
V10.1021/jf058010
p497
sg49
VJ AGR FOOD CHEM
p498
sg51
V53
p499
sg83
(lp500
(VLIU
VR H
tp501
asg17
I2005
sg45
V2341
p502
sbag1
(g2
g3
NtRp503
(dp504
g53
V10.1021/jf051609s
p505
sg49
VJ AGR FOOD CHEM
p506
sg51
V53
p507
sg83
(lp508
(VLO
VPIERO A R
tp509
asg17
I2005
sg45
V9083
p510
sbag1
(g2
g3
NtRp511
(dp512
g53
V10.1105/tpc.012963
p513
sg49
VPLANT CELL
p514
sg51
V15
p515
sg83
(lp516
(VMATHEWS
VH
tp517
asg17
I2003
sg45
VLANT
p518
sbag1
(g2
g3
NtRp519
(dp520
g53
Nsg49
VJ JPN SOC HORTIC SCI
p521
sg51
V68
p522
sg83
(lp523
(VMATSUZOE
VN
tp524
asg17
I1999
sg45
V138
p525
sbag1
(g2
g3
NtRp526
(dp527
g53
V10.1104/pp.104.058032
p528
sg49
VPLANT PHYSIOL
p529
sg51
V138
p530
sg83
(lp531
(VMEHRTENS
VF
tp532
asg17
I2005
sg45
VLANT
p533
sbag1
(g2
g3
NtRp534
(dp535
g53
V10.1105/tpc.13.9.2099
p536
sg49
VPLANT CELL
p537
sg51
V13
p538
sg83
(lp539
(VNESI
VN
tp540
asg17
I2001
sg45
VLANT
p541
sbag1
(g2
g3
NtRp542
(dp543
g53
V10.1104/pp.010799
p544
sg49
VPLANT PHYSIOL
p545
sg51
V128
p546
sg83
(lp547
(VPIAZZA
VP
tp548
asg17
I2002
sg45
VLANT
p549
sbag1
(g2
g3
NtRp550
(dp551
g53
Nsg49
VPLANT CELL
p552
sg51
V9
sg83
(lp553
(VPROCISSI
VA
tp554
asg17
I1997
sg45
VLANT
p555
sbag1
(g2
g3
NtRp556
(dp557
g53
V10.1023/A:1024852021124
p558
sg49
VPLANT MOL BIOL
p559
sg51
V52
p560
sg83
(lp561
(VRAMSAY
VN A
tp562
asg17
I2003
sg45
VLANT
p563
sbag1
(g2
g3
NtRp564
(dp565
g53
V10.1002/mnfr.200400082
p566
sg49
VMOL NUTR FOOD RES
p567
sg51
V49
p568
sg83
(lp569
(VRASMUSSEN
VS E
tp570
asg17
I2005
sg45
V159
p571
sbag1
(g2
g3
NtRp572
(dp573
g53
V10.1016/S0304-4238(98)00197-6
p574
sg49
VSCI HORTIC
p575
sg51
V79
p576
sg83
(lp577
(VREAY
VP F
tp578
asg17
I1999
sg45
V113
p579
sbag1
(g2
g3
NtRp580
(dp581
g53
V10.1002/(SICI)1097-0010(199801)76:1<63::AID-JSFA908>3.3.CO;2-B
p582
sg49
VJ SCI FOOD AGR
p583
sg51
V76
p584
sg83
(lp585
(VREAY
VP F
tp586
asg17
I1998
sg45
V63
p587
sbag1
(g2
g3
NtRp588
(dp589
g53
Nsg49
VSCI HORTIC
p590
sg51
V90
p591
sg83
(lp592
(VREAY
VR F
tp593
asg17
I2001
sg45
V57
p594
sbag1
(g2
g3
NtRp595
(dp596
g53
V10.1098/rstb.2000.0773
p597
sg49
VPHILOS T R SOC B
p598
sg51
V356
p599
sg83
(lp600
(VREGAN
VB C
tp601
asg17
I2001
sg45
VHILOS
p602
sbag1
(g2
g3
NtRp603
(dp604
g53
V10.1016/0304-4238(90)90082-P
p605
sg49
VSCI HORTIC
p606
sg51
V42
p607
sg83
(lp608
(VSAURE
VM C
tp609
asg17
I1990
sg45
V181
p610
sbag1
(g2
g3
NtRp611
(dp612
g53
V10.1016/j.tree.2004.08.003
p613
sg49
VTRENDS ECOL EVOL
p614
sg51
V19
p615
sg83
(lp616
(VSCHAEFER
VH M
tp617
asg17
I2004
sg45
V577
p618
sbag1
(g2
g3
NtRp619
(dp620
g53
Nsg49
VJ APPL BOT
p621
sg51
V77
p622
sg83
(lp623
(VSCHIRRMACHER
VG
tp624
asg17
I2003
sg45
V163
p625
sbag1
(g2
g3
NtRp626
(dp627
g53
Nsg49
VHORTSCIENCE
p628
sg51
V40
p629
sg83
(lp630
(VSCHNEIDER
VD
tp631
asg17
I2005
sg45
V1280
p632
sbag1
(g2
g3
NtRp633
(dp634
g53
Nsg49
VJ AM SOC HORTIC SCI
p635
sg51
V129
p636
sg83
(lp637
(VSTEYN
VW J
tp638
asg17
I2004
sg45
V6
sbag1
(g2
g3
NtRp639
(dp640
g53
V10.1016/S1369-5266(00)00199-0
p641
sg49
VCURR OPIN PLANT BIOL
p642
sg51
V4
sg83
(lp643
(VSTRACKE
VR
tp644
asg17
I2001
sg45
V447
p645
sbag1
(g2
g3
NtRp646
(dp647
g53
Nsg49
VJ HORTIC SCI BIOTECH
p648
sg51
V81
p649
sg83
(lp650
(VTAKOS
VA M
tp651
asg17
I2006
sg45
V735
p652
sbag1
(g2
g3
NtRp653
(dp654
g53
V10.1016/j.plantsci.2005.10.001
p655
sg49
VPLANT SCI
p656
sg51
V170
p657
sg83
(lp658
(VTAKOS
VA M
tp659
asg17
I2006
sg45
VLANT
p660
sbag1
(g2
g3
NtRp661
(dp662
g53
V10.1111/j.1365-313X.2005.02371.x
p663
sg49
VPLANT J
p664
sg51
V42
p665
sg83
(lp666
(VTOHGE
VT
tp667
asg17
I2005
sg45
VLANT
p668
sbag1
(g2
g3
NtRp669
(dp670
g53
Nsg49
VVITIS
p671
sg51
VITIS
p672
sg83
(lp673
(VTORREGROSA
VL
tp674
asg17
I2002
sg45
V27
p675
sbag1
(g2
g3
NtRp676
(dp677
g53
Nsg49
VJ AM SOC HORTIC SCI
p678
sg51
V129
p679
sg83
(lp680
(VTSUDA
VT
tp681
asg17
I2004
sg45
V857
p682
sbag1
(g2
g3
NtRp683
(dp684
g53
V10.1016/S0304-4238(97)00125-8
p685
sg49
VSCI HORTIC
p686
sg51
V72
p687
sg83
(lp688
(VTYAS
VJ A
tp689
asg17
I1998
sg45
V203
p690
sbag1
(g2
g3
NtRp691
(dp692
g53
V10.1104/pp.105.065896
p693
sg49
VPLANT PHYSIOL
p694
sg51
V139
p695
sg83
(lp696
(VVANDERAUWERA
VS
tp697
asg17
I2005
sg45
VLANT
p698
sbag1
(g2
g3
NtRp699
(dp700
g53
V10.1021/jf040482o
p701
sg49
VJ AGR FOOD CHEM
p702
sg51
V53
p703
sg83
(lp704
(VVANZANI
VP
tp705
asg17
I2005
sg45
V3377
p706
sbag1
(g2
g3
NtRp707
(dp708
g53
Nsg49
VIN PRESS PLANT J
p709
sg51
Nsg83
(lp710
(VWALKER
VA R
tp711
asg17
I2006
sg45
Nsbag1
(g2
g3
NtRp712
(dp713
g53
V10.1006/abio.1994.1538
p714
sg49
VANAL BIOCHEM
p715
sg51
V223
p716
sg83
(lp717
(VWAN
VC Y
tp718
asg17
I1994
sg45
V7
sbag1
(g2
g3
NtRp719
(dp720
g53
V10.1104/pp.126.2.485
p721
sg49
VPLANT PHYSIOL
p722
sg51
V126
p723
sg83
(lp724
(VWINKEL-SHIRLEY
VB
tp725
asg17
I2001
sg45
VLANT
p726
sbag1
(g2
g3
NtRp727
(dp728
g53
V10.1016/S1369-703X(02)00222-X
p729
sg49
VBIOCHEM ENG J
p730
sg51
V14
p731
sg83
(lp732
(VYAMAZAKI
VM
tp733
asg17
I2003
sg45
V191
p734
sbag1
(g2
g3
NtRp735
(dp736
g53
V10.1242/dev.00681
p737
sg49
VDEVELOPMENT
p738
sg51
V130
p739
sg83
(lp740
(VZHANG
VF
tp741
asg17
I2003
sg45
V4859
p742
sbag1
(g2
g3
NtRp743
(dp744
g53
Nsg49
VFASEB J
p745
sg51
V14
p746
sg83
(lp747
(VZHOU
VY
tp748
asg17
I2000
sg45
VA1416
p749
sbag1
(g2
g3
NtRp750
(dp751
g53
V10.1111/j.1365-313X.2004.02183.x
p752
sg49
VPLANT J
p753
sg51
V40
p754
sg83
(lp755
(VZIMMERMANN
VI M
tp756
asg17
I2004
sg45
VLANT
p757
sbasb.