ccopy_reg
_reconstructor
p1
(ctethne.classes.paper
Paper
p2
c__builtin__
object
p3
NtRp4
(dp5
S'publisherCity'
p6
VROCKVILLE
p7
sS'reprintAddress'
p8
VHesse, H (reprint author), Max Planck Inst Mol Pflanzenphysiol, Dept Prof Dr Lothar Willmitzer, Muhlenberg 1, D-14476 Golm, Germany.
p9
sS'WC'
p10
VPlant Sciences
p11
sS'GA'
p12
V717FQ
p13
sS'abstract'
p14
VIn plants, metabolic pathways leading to methionine (Met) and threonine diverge at the level of their common substrate, O-phosphohomoserine (OPHS). To investigate the regulation of this branch point, we engineered transgenic potato (Solanum tuberosum) plants affected in cystathionine gamma-synthase (CgS), the enzyme utilizing OPHS for the Met pathway. Plants overexpressing potato CgS exhibited either: (a) high transgene RNA levels and 2.7-fold elevated CgS activities but unchanged soluble Met levels, or (b) decreased transcript amounts and enzyme activities (down to 7% of wild-type levels). In leaf tissues, these cosuppression lines revealed a significant reduction of soluble Met and an accumulation of OPHS. Plants expressing CgS antisense constructs exhibited reductions in enzyme activity to as low as 19% of wild type. The metabolite contents of these lines were similar to those of the CgS cosuppression lines. Surprisingly, neither increased nor decreased CgS activity led to visible phenotypic alterations or significant changes in protein-bound Met levels in transgenic potato plants, indicating that metabolic flux to Met synthesis was not greatly affected. Furthermore, in vitro feeding experiments revealed that potato CgS is not subject to feedback regulation by Met, as reported for Arabidopsis. In conclusion, our results demonstrate that potato CgS catalyzes a near-equilibrium reaction and, more importantly, does not display features of a pathway-regulating enzyme. These results are inconsistent with the current hypothesis that CgS exerts major Met metabolic flux control in higher plants.
p15
sS'pageEnd'
p16
I1854
sS'publisherAddress'
p17
V15501 MONONA DRIVE, ROCKVILLE, MD 20855 USA
p18
sS'documentType'
p19
VArticle
p20
sS'subject'
p21
VPlant Sciences
p22
sS'isoSource'
p23
VPlant Physiol.
p24
sS'timesCited'
p25
(lp26
I50
aVZ9 53
p27
asS'PT'
p28
VJ
sS'title'
p29
VFunctional Analysis Of Cystathionine Gamma-Synthase In Genetically Engineered Potato Plants
p30
sS'ISSN'
p31
(lp32
V0032-0889
p33
aVJ9 PLANT PHYSIOL
p34
asS'authors_full'
p35
(lp36
(VKREFT
VO
tp37
a(VHOEFGEN
VR
tp38
a(VHESSE
VH
tp39
asS'PG'
p40
I12
sS'PD'
p41
VAPR
p42
sS'pageStart'
p43
I1843
sS'issue'
p44
I4
sS'journal'
p45
VPLANT PHYSIOLOGY
p46
sS'volume'
p47
V131
p48
sS'doi'
p49
V10.1104/pp.102.015933
p50
sS'authorAddress'
p51
VMax Planck Inst Mol Pflanzenphysiol, Dept Prof Dr Lothar Willmitzer, D-14476 Golm, Germany.
p52
sS'date'
p53
I2003
sS'ER'
p54
V
sS'publisher'
p55
VAMER SOC PLANT BIOLOGISTS
p56
sS'authorKeywords'
p57
(lp58
VMETHIONINE BIOSYNTHESIS
p59
aVTHREONINE SYNTHASE
p60
aVARABIDOPSIS-THALIANA
p61
aVSOLUBLE METHIONINE
p62
aVS-METHYLMETHIONINE
p63
aVSOLANUM-TUBEROSUM
p64
aVASPARTATE KINASE
p65
aVESCHERICHIA-COLI
p66
aVAMINO-ACIDS
p67
aVBETA-LYASE
p68
asS'language'
p69
VEnglish
p70
sS'wosid'
p71
VWOS:000185076400035
p72
sS'citationCount'
p73
I56
sS'authors_init'
p74
(lp75
(VKREFT
VO
tp76
a(VHOEFGEN
VR
tp77
a(VHESSE
VH
tp78
asS'citedReferences'
p79
(lp80
g1
(g2
g3
NtRp81
(dp82
g49
V10.1016/S1360-1385(02)02227-6
p83
sg45
VTRENDS PLANT SCI
p84
sg47
V7
sg74
(lp85
(VAMIR
VR
tp86
asg53
I2002
sg43
V153
p87
sbag1
(g2
g3
NtRp88
(dp89
g49
V10.1104/pp.123.1.101
p90
sg45
VPLANT PHYSIOL
p91
sg47
V123
p92
sg74
(lp93
(VBARTLEM
VD
tp94
asg53
I2000
sg43
VLANT
p95
sbag1
(g2
g3
NtRp96
(dp97
g49
V10.1016/S0168-9452(01)00598-2
p98
sg45
VPLANT SCI
p99
sg47
V162
p100
sg74
(lp101
(VBLASZCZYK
VA
tp102
asg53
I2002
sg43
VLANT
p103
sbag1
(g2
g3
NtRp104
(dp105
g49
V10.1105/tpc.11.8.1485
p106
sg45
VPLANT CELL
p107
sg47
V11
p108
sg74
(lp109
(VBOURGIS
VF
tp110
asg53
I1999
sg43
VLANT
p111
sbag1
(g2
g3
NtRp112
(dp113
g49
V10.1006/abio.1976.9999
p114
sg45
VANAL BIOCHEM
p115
sg47
V72
p116
sg74
(lp117
(VBRADFORD
VM M
tp118
asg53
I1976
sg43
V248
p119
sbag1
(g2
g3
NtRp120
(dp121
g49
Nsg45
VFED PROC
p122
sg47
V34
p123
sg74
(lp124
(VBROWN
VJ R
tp125
asg53
I1975
sg43
V591
p126
sbag1
(g2
g3
NtRp127
(dp128
g49
V10.1126/science.286.5443.1371
p129
sg45
VSCIENCE
p130
sg47
V286
p131
sg74
(lp132
(VCHIBA
VY
tp133
asg53
I1999
sg43
V1371
p134
sbag1
(g2
g3
NtRp135
(dp136
g49
V10.1016/0014-5793(96)00633-3
p137
sg45
VFEBS LETT
p138
sg47
V390
p139
sg74
(lp140
(VCURIEN
VG
tp141
asg53
I1996
sg43
V85
p142
sbag1
(g2
g3
NtRp143
(dp144
g49
V10.1093/nar/13.13.4777
p145
sg45
VNUCLEIC ACIDS RES
p146
sg47
V13
p147
sg74
(lp148
(VDEBLAERE
VR
tp149
asg53
I1985
sg43
V4777
p150
sbag1
(g2
g3
NtRp151
(dp152
g49
Nsg45
VGENE TRANSFER PLANTS
p153
sg47
Nsg74
(lp154
(VDIETZE
VJ
tp155
asg53
I1995
sg43
V24
p156
sbag1
(g2
g3
NtRp157
(dp158
g49
V10.1111/j.1432-1033.1995.tb20655.x
p159
sg45
VEUR J BIOCHEM
p160
sg47
V230
p161
sg74
(lp162
(VEICHEL
VJ
tp163
asg53
I1995
sg43
V1053
p164
sbag1
(g2
g3
NtRp165
(dp166
g49
V10.1016/0003-2697(81)90573-X
p167
sg45
VANAL BIOCHEM
p168
sg47
V111
p169
sg74
(lp170
(VFAHEY
VR C
tp171
asg53
I1981
sg43
V357
p172
sbag1
(g2
g3
NtRp173
(dp174
g49
Nsg45
VFRONTIERS METABOLISM
p175
sg47
V2
sg74
(lp176
(VFELL
VD
tp177
asg53
I1997
sg43
Nsbag1
(g2
g3
NtRp178
(dp179
g49
V10.1038/81137
p180
sg45
VNAT BIOTECHNOL
p181
sg47
V18
p182
sg74
(lp183
(VFIEHN
VO
tp184
asg53
I2000
sg43
V1157
p185
sbag1
(g2
g3
NtRp186
(dp187
g49
V10.1016/S0764-4469(00)01242-7
p188
sg45
VCR ACAD SCI III
p189
sg47
V323
p190
sg74
(lp191
(VGAKIERE
VB
tp192
asg53
I2000
sg43
V841
p193
sbag1
(g2
g3
NtRp194
(dp195
g49
V10.1016/S0981-9428(01)01354-7
p196
sg45
VPLANT PHYSIOL BIOCH
p197
sg47
V40
p198
sg74
(lp199
(VGAKIERE
VB
tp200
asg53
I2002
sg43
VLANT
p201
sbag1
(g2
g3
NtRp202
(dp203
g49
V10.1105/tpc.7.7.899
p204
sg45
VPLANT CELL
p205
sg47
V7
sg74
(lp206
(VGALILI
VG
tp207
asg53
I1995
sg43
VLANT
p208
sbag1
(g2
g3
NtRp209
(dp210
g49
V10.1006/mben.2001.0203
p211
sg45
VMETAB ENG
p212
sg47
V4
sg74
(lp213
(VGALILI
VG
tp214
asg53
I2002
sg43
V3
sbag1
(g2
g3
NtRp215
(dp216
g49
V10.1104/pp.76.2.285
p217
sg45
VPLANT PHYSIOL
p218
sg47
V76
p219
sg74
(lp220
(VGIOVANELLI
VJ
tp221
asg53
I1984
sg43
VLANT
p222
sbag1
(g2
g3
NtRp223
(dp224
g49
V10.1104/pp.77.2.450
p225
sg45
VPLANT PHYSIOL
p226
sg47
V77
p227
sg74
(lp228
(VGIOVANELLI
VJ
tp229
asg53
I1985
sg43
VLANT
p230
sbag1
(g2
g3
NtRp231
(dp232
g49
Nsg45
VPLANT PHYSIOL
p233
sg47
V128
p234
sg74
(lp235
(VHACHAM
VY
tp236
asg53
I2002
sg43
VLANT
p237
sbag1
(g2
g3
NtRp238
(dp239
g49
Nsg45
VPLANT PHYSIOL
p240
sg47
V121
p241
sg74
(lp242
(VHESSE
VH
tp243
asg53
I1999
sg43
VLANT
p244
sbag1
(g2
g3
NtRp245
(dp246
g49
Nsg45
VPLANT PHYSIOL
p247
sg47
V116
p248
sg74
(lp249
(VHESSE
VH
tp250
asg53
I1998
sg43
VLANT
p251
sbag1
(g2
g3
NtRp252
(dp253
g49
V10.1016/0168-9452(90)90207-5
p254
sg45
VPLANT SCI
p255
sg47
V66
p256
sg74
(lp257
(VHOFGEN
VR
tp258
asg53
I1990
sg43
VLANT
p259
sbag1
(g2
g3
NtRp260
(dp261
g49
Nsg45
VPLANT PHYSIOL
p262
sg47
V104
p263
sg74
(lp264
(VINABA
VK
tp265
asg53
I1994
sg43
VLANT
p266
sbag1
(g2
g3
NtRp267
(dp268
g49
Nsg45
VBIOCHEM SOC T
p269
sg47
V23
p270
sg74
(lp271
(VKACSER
VH
tp272
asg53
I1995
sg43
V341
p273
sbag1
(g2
g3
NtRp274
(dp275
g49
V10.1016/S0168-9452(99)00188-0
p276
sg45
VPLANT SCI
p277
sg47
V151
p278
sg74
(lp279
(VKIM
VJ
tp280
asg53
I2000
sg43
VLANT
p281
sbag1
(g2
g3
NtRp282
(dp283
g49
V10.1104/pp.128.1.95
p284
sg45
VPLANT PHYSIOL
p285
sg47
V128
p286
sg74
(lp287
(VKIM
VJ
tp288
asg53
I2002
sg43
VLANT
p289
sbag1
(g2
g3
NtRp290
(dp291
g49
V10.1007/BF00041395
p292
sg45
VPLANT MOL BIOL
p293
sg47
V32
p294
sg74
(lp295
(VKIM
VJ S
tp296
asg53
I1996
sg43
VLANT
p297
sbag1
(g2
g3
NtRp298
(dp299
g49
V10.1021/ac50047a019
p300
sg45
VANAL CHEM
p301
sg47
V51
p302
sg74
(lp303
(VLINDROTH
VP
tp304
asg53
I1979
sg43
V1667
p305
sbag1
(g2
g3
NtRp306
(dp307
g49
V10.1016/0003-2697(87)90086-8
p308
sg45
VANAL BIOCHEM
p309
sg47
V163
p310
sg74
(lp311
(VLOGEMANN
VJ
tp312
asg53
I1987
sg43
V16
p313
sbag1
(g2
g3
NtRp314
(dp315
g49
V10.1046/j.1365-313x.2000.00842.x
p316
sg45
VPLANT J
p317
sg47
V23
p318
sg74
(lp319
(VMAIMANN
VS
tp320
asg53
I2000
sg43
VLANT
p321
sbag1
(g2
g3
NtRp322
(dp323
g49
Nsg45
VPLANTA
p324
sg47
V214
p325
sg74
(lp326
(VMAIMANN
VS
tp327
asg53
I2001
sg43
VLANTA
p328
sbag1
(g2
g3
NtRp329
(dp330
g49
Nsg45
VPLANT AMINO ACIDS BI
p331
sg47
Nsg74
(lp332
(VMATTHEWS
VB F
tp333
asg53
I1999
sg43
VLANT
p334
sbag1
(g2
g3
NtRp335
(dp336
g49
V10.1104/pp.123.2.655
p337
sg45
VPLANT PHYSIOL
p338
sg47
V123
p339
sg74
(lp340
(VMIRON
VD
tp341
asg53
I2000
sg43
VLANT
p342
sbag1
(g2
g3
NtRp343
(dp344
g49
Nsg45
VJ PLANT PHYSIOL
p345
sg47
V150
p346
sg74
(lp347
(VMUHITCH
VM J
tp348
asg53
I1997
sg43
V16
p349
sbag1
(g2
g3
NtRp350
(dp351
g49
V10.1007/s007260200013
p352
sg45
VAMINO ACIDS
p353
sg47
V22
p354
sg74
(lp355
(VNIKIFOROVA
VV
tp356
asg53
I2002
sg43
V259
p357
sbag1
(g2
g3
NtRp358
(dp359
g49
V10.1074/jbc.M204645200
p360
sg45
VJ BIOL CHEM
p361
sg47
V277
p362
sg74
(lp363
(VOMINATO
VK
tp364
asg53
I2002
sg43
V36380
p365
sbag1
(g2
g3
NtRp366
(dp367
g49
Nsg45
VPLANT PHYSIOL
p368
sg47
V109
p369
sg74
(lp370
(VPETERSEN
VM
tp371
asg53
I1995
sg43
VLANT
p372
sbag1
(g2
g3
NtRp373
(dp374
g49
V10.1046/j.1365-313x.2001.00988.x
p375
sg45
VPLANT J
p376
sg47
V25
p377
sg74
(lp378
(VRANOCHA
VP
tp379
asg53
I2001
sg43
VLANT
p380
sbag1
(g2
g3
NtRp381
(dp382
g49
V10.1006/abbi.1995.1077
p383
sg45
VARCH BIOCHEM BIOPHYS
p384
sg47
V316
p385
sg74
(lp386
(VRAVANEL
VS
tp387
asg53
I1995
sg43
V572
p388
sbag1
(g2
g3
NtRp389
(dp390
g49
V10.1073/pnas.95.13.7805
p391
sg45
VP NATL ACAD SCI USA
p392
sg47
V95
p393
sg74
(lp394
(VRAVANEL
VS
tp395
asg53
I1998
sg43
V7805
p396
sbag1
(g2
g3
NtRp397
(dp398
g49
V10.1055/s-2007-978567
p399
sg45
VPLANT BIOLOGY
p400
sg47
V1
sg74
(lp401
(VRIEDEL
VK
tp402
asg53
I1999
sg43
VLANT
p403
sbag1
(g2
g3
NtRp404
(dp405
g49
Nsg45
VEMBO J
p406
sg47
V8
sg74
(lp407
(VROCHASOSA
VM
tp408
asg53
I1989
sg43
V23
p409
sbag1
(g2
g3
NtRp410
(dp411
g49
V10.1105/tpc.13.1.11
p412
sg45
VPLANT CELL
p413
sg47
V13
p414
sg74
(lp415
(VROESSNER
VU
tp416
asg53
I2001
sg43
VLANT
p417
sbag1
(g2
g3
NtRp418
(dp419
g49
Nsg45
VPLANT J
p420
sg47
V23
p421
sg74
(lp422
(VROESSNER
VU
tp423
asg53
I2000
sg43
VLANT
p424
sbag1
(g2
g3
NtRp425
(dp426
g49
Nsg45
VPLANT AMINO ACIDS BI
p427
sg47
Nsg74
(lp428
(VSAITO
VK
tp429
asg53
I1999
sg43
VLANT
p430
sbag1
(g2
g3
NtRp431
(dp432
g49
Nsg45
VMOL CLONING LAB MANU
p433
sg47
Nsg74
(lp434
(VSAMBROOK
VJ
tp435
asg53
I1989
sg43
Nsbag1
(g2
g3
NtRp436
(dp437
g49
V10.1007/s004250050196
p438
sg45
VPLANTA
p439
sg47
V203
p440
sg74
(lp441
(VSCHEIBLE
VW R
tp442
asg53
I1997
sg43
VLANTA
p443
sbag1
(g2
g3
NtRp444
(dp445
g49
V10.1104/pp.100.3.1157
p446
sg45
VPLANT PHYSIOL
p447
sg47
V100
p448
sg74
(lp449
(VSHAUL
VO
tp450
asg53
I1992
sg43
VLANT
p451
sbag1
(g2
g3
NtRp452
(dp453
g49
Nsg45
VADV ENZYMOL RAMB
p454
sg47
V56
p455
sg74
(lp456
(VTABOR
VC W
tp457
asg53
I1984
sg43
V251
p458
sbag1
(g2
g3
NtRp459
(dp460
g49
V10.1104/pp.69.5.1077
p461
sg45
VPLANT PHYSIOL
p462
sg47
V69
p463
sg74
(lp464
(VTHOMPSON
VG A
tp465
asg53
I1982
sg43
VLANT
p466
sbag1
(g2
g3
NtRp467
(dp468
g49
Nsg45
VPlant Mol Biol
p469
sg47
V32
p470
sg74
(lp471
(VBEN-TZVI
VTZCHORI I
tp472
asg53
I1996
sg43
Vlant
p473
sbag1
(g2
g3
NtRp474
(dp475
g49
V10.1104/pp.71.4.780
p476
sg45
VPLANT PHYSIOL
p477
sg47
V71
p478
sg74
(lp479
(VWALLSGROVE
VR M
tp480
asg53
I1983
sg43
VLANT
p481
sbag1
(g2
g3
NtRp482
(dp483
g49
V10.1104/pp.127.3.792
p484
sg45
VPLANT PHYSIOL
p485
sg47
V127
p486
sg74
(lp487
(VZEH
VM
tp488
asg53
I2001
sg43
VLANT
p489
sbag1
(g2
g3
NtRp490
(dp491
g49
V10.1023/A:1013333303554
p492
sg45
VPLANT MOL BIOL
p493
sg47
V48
p494
sg74
(lp495
(VZEH
VM
tp496
asg53
I2002
sg43
VLANT
p497
sbasb.