ccopy_reg
_reconstructor
p1
(ctethne.classes.paper
Paper
p2
c__builtin__
object
p3
NtRp4
(dp5
S'publisherCity'
p6
VROCKVILLE
p7
sS'reprintAddress'
p8
VNickson, TE (reprint author), Monsanto Co, Regulatory Environm Sci Ctr, St Louis, MO 63167 USA.
p9
sS'WC'
p10
VPlant Sciences
p11
sS'GA'
p12
V308XI
p13
sS'pageEnd'
p14
I502
sS'publisherAddress'
p15
V15501 MONONA DRIVE, ROCKVILLE, MD 20855 USA
p16
sS'documentType'
p17
VArticle
p18
sS'subject'
p19
VPlant Sciences
p20
sS'isoSource'
p21
VPlant Physiol.
p22
sS'timesCited'
p23
(lp24
I20
aVZ9 24
p25
asS'PT'
p26
VJ
sS'title'
p27
VPlanning Environmental Risk Assessment For Genetically Modified Crops: Problem Formulation For Stress-Tolerant Crops
p28
sS'ISSN'
p29
(lp30
V0032-0889
p31
aVJ9 PLANT PHYSIOL
p32
asS'authors_full'
p33
(lp34
(VNICKSON
VTHOMAS E
tp35
asS'PG'
p36
I9
sS'PD'
p37
VJUN
p38
sS'pageStart'
p39
I494
sS'issue'
p40
I2
sS'journal'
p41
VPLANT PHYSIOLOGY
p42
sS'volume'
p43
V147
p44
sS'doi'
p45
V10.1104/pp.108.118422
p46
sS'emailAddress'
p47
Vthomas.nickson@monsanto.com
p48
sS'authorAddress'
p49
VMonsanto Co, Regulatory Environm Sci Ctr, St Louis, MO 63167 USA.
p50
sS'date'
p51
I2008
sS'ER'
p52
V
sS'publisher'
p53
VAMER SOC PLANT BIOLOGISTS
p54
sS'authorKeywords'
p55
(lp56
VENGINEERED ORGANISMS
p57
aVTRANSGENIC CROPS
p58
aVRECOMMENDATIONS
p59
aVPLANTS
p60
asS'language'
p61
VEnglish
p62
sS'wosid'
p63
VWOS:000256423600007
p64
sS'citationCount'
p65
I34
sS'authors_init'
p66
(lp67
(VNICKSON
VT E
tp68
asS'citedReferences'
p69
(lp70
g1
(g2
g3
NtRp71
(dp72
g45
V10.1614/P2002-163
p73
sg41
VWEED SCI
p74
sg43
V52
p75
sg66
(lp76
(VBECKIE
VH J
tp77
asg51
I2004
sg39
V152
p78
sbag1
(g2
g3
NtRp79
(dp80
g45
Nsg41
VAGBIOFORUM
p81
sg43
V3
sg66
(lp82
(VBELSON
VN A
tp83
asg51
I2000
sg39
V268
p84
sbag1
(g2
g3
NtRp85
(dp86
g45
Nsg41
VPEST MANAG SCI
p87
sg43
V61
p88
sg66
(lp89
(VBRIMNER
VT A
tp90
asg51
I2005
sg39
VEST
p91
sbag1
(g2
g3
NtRp92
(dp93
g45
Nsg41
VCART PROT BIOS CONV
p94
sg43
Nsg66
(lp95
(VBSP
S''
tp96
asg51
I2000
sg39
Nsbag1
(g2
g3
NtRp97
(dp98
g45
Nsg41
VBULG J PLANT PHYSL
p99
sg43
Nsg66
(lp100
(VCASSELLS
VA C
tp101
asg51
I2003
sg39
Nsbag1
(g2
g3
NtRp102
(dp103
g45
Nsg41
VAPPL BIOSAFETY
p104
sg43
V11
p105
sg66
(lp106
(VDEJESUS
VK R E
tp107
asg51
I2006
sg39
V127
p108
sbag1
(g2
g3
NtRp109
(dp110
g45
Nsg41
VMAN ASS EC HUM HLTH
p111
sg43
Nsg66
(lp112
(VEDM I
S''
tp113
asg51
I1998
sg39
Nsbag1
(g2
g3
NtRp114
(dp115
g45
V10.1109/TWC.200601009
p116
sg41
VIEEE T WIREL COMMUN
p117
sg43
V5
sg66
(lp118
(VGARCIA-ARMADA
VA
tp119
asg51
I2006
sg39
V57
p120
sbag1
(g2
g3
NtRp121
(dp122
g45
V10.1641/0006-3568(2003)053[0512:AFFATR]2.0.CO;2
p123
sg41
VBIOSCIENCE
p124
sg43
V53
p125
sg66
(lp126
(VHANCOCK
VJ F
tp127
asg51
I2003
sg39
V512
p128
sbag1
(g2
g3
NtRp129
(dp130
g45
V10.1051/ebr:2005012
p131
sg41
VEnvironmental Biosafety Research
p132
sg43
V4
sg66
(lp133
(VHILL
VRYAN A
tp134
asg51
I2005
sg39
V67
p135
sbag1
(g2
g3
NtRp136
(dp137
g45
Nsg41
VEnvironmental Biosafety Research
p138
sg43
V2
sg66
(lp139
(VHILL
VRYAN A
tp140
asg51
I2003
sg39
V81
p141
sbag1
(g2
g3
NtRp142
(dp143
g45
V10.1073/pnas.0604882103
p144
sg41
VP NATL ACAD SCI USA
p145
sg43
V103
p146
sg66
(lp147
(VHU
VH H
tp148
asg51
I2006
sg39
V12987
p149
sbag1
(g2
g3
NtRp150
(dp151
g45
Nsg41
V303 NERI DMU
p152
sg43
Nsg66
(lp153
(VKJAER
VC
tp154
asg51
I1999
sg39
Nsbag1
(g2
g3
NtRp155
(dp156
g45
Nsg41
VMETHODS RISK ASSESSM
p157
sg43
V2
sg66
(lp158
(VKJELLSON
VG
tp159
asg51
I1997
sg39
V221
p160
sbag1
(g2
g3
NtRp161
(dp162
g45
Nsg41
VFIELD TEST GEN MOD O
p163
sg43
Nsg66
(lp164
(VNAT RES COUNC
S''
tp165
asg51
I1987
sg39
Nsbag1
(g2
g3
NtRp166
(dp167
g45
Nsg41
VUND RISK INF DEC DEM
p168
sg43
Nsg66
(lp169
(VNAT RES COUNC
S''
tp170
asg51
I1996
sg39
Nsbag1
(g2
g3
NtRp171
(dp172
g45
Nsg41
VRISK ASS FED GOV MAN
p173
sg43
Nsg66
(lp174
(VNATIONAL
VRESEARCH COUNCIL
tp175
asg51
I1983
sg39
Nsbag1
(g2
g3
NtRp176
(dp177
g45
V10.1073/pnas.0707193104
p178
sg41
VP NATL ACAD SCI USA
p179
sg43
V104
p180
sg66
(lp181
(VNELSON
VD E
tp182
asg51
I2007
sg39
V16450
p183
sbag1
(g2
g3
NtRp184
(dp185
g45
Nsg41
VBIOTECHNOLOGY SAFETY
p186
sg43
Nsg66
(lp187
(VNICKSON
VT
tp188
asg51
I2002
sg39
V233
p189
sbag1
(g2
g3
NtRp190
(dp191
g45
Nsg41
VP 9 INT S BIOS GEN M
p192
sg43
Nsg66
(lp193
(VNICKSON
VT E
tp194
asg51
I2006
sg39
V76
p195
sbag1
(g2
g3
NtRp196
(dp197
g45
Nsg41
VSERIES HARMONIZATION
p198
sg43
V42
p199
sg66
(lp200
(VOECD
S''
tp201
asg51
I2007
sg39
V1
sbag1
(g2
g3
NtRp202
(dp203
g45
Nsg41
VSAF CONS BIOT SCAL U
p204
sg43
Nsg66
(lp205
(VOECD
S''
tp206
asg51
I1993
sg39
Nsbag1
(g2
g3
NtRp207
(dp208
g45
V10.1093/jxb/erl212
p209
sg41
VJ EXP BOT
p210
sg43
V58
p211
sg66
(lp212
(VPASSIOURA
VJ
tp213
asg51
I2007
sg39
V113
p214
sbag1
(g2
g3
NtRp215
(dp216
g45
V10.1051/ebr:2007004
p217
sg41
VEnvironmental Biosafety Research
p218
sg43
V5
sg66
(lp219
(VRAYBOULD
VALAN
tp220
asg51
I2006
sg39
V119
p221
sbag1
(g2
g3
NtRp222
(dp223
g45
V10.1016/j.plantsci.2007.09.003
p224
sg41
VPLANT SCI
p225
sg43
V173
p226
sg66
(lp227
(VRAYBOULD
VA
tp228
asg51
I2007
sg39
VLANT
p229
sbag1
(g2
g3
NtRp230
(dp231
g45
Nsg41
VECOLOGICAL RISKS ENG
p232
sg43
Nsg66
(lp233
(VRISSLER
VJ
tp234
asg51
I1996
sg39
Nsbag1
(g2
g3
NtRp235
(dp236
g45
V10.1890/04-0539
p237
sg41
VECOL APPL
p238
sg43
V15
p239
sg66
(lp240
(VSNOW
VA A
tp241
asg51
I2005
sg39
V377
p242
sbag1
(g2
g3
NtRp243
(dp244
g45
Nsg41
VECOLOGICAL RISK ASSE
p245
sg43
Nsg66
(lp246
(VSUTER
VG W
tp247
asg51
I1993
sg39
Nsbag1
(g2
g3
NtRp248
(dp249
g45
V10.2307/1937535
p250
sg41
VECOLOGY
p251
sg43
V70
p252
sg66
(lp253
(VTIEDJE
VJ M
tp254
asg51
I1989
sg39
V298
p255
sbag1
(g2
g3
NtRp256
(dp257
g45
Nsg41
VECOL APPL
p258
sg43
V7
sg66
(lp259
(VTOUART
VL W
tp260
asg51
I1997
sg39
V1086
p261
sbag1
(g2
g3
NtRp262
(dp263
g45
Nsg41
VUNEP INT TECHN GUID
p264
sg43
Nsg66
(lp265
(VUNEP
S''
tp266
asg51
I1995
sg39
Nsbag1
(g2
g3
NtRp267
(dp268
g45
Nsg41
VGUID EC RISK ASS
p269
sg43
Nsg66
(lp270
(VUS
VENVIRONMENTAL PROTECTION AGENCY
tp271
asg51
I1998
sg39
Nsbag1
(g2
g3
NtRp272
(dp273
g45
V10.1111/j.1467-7652.2007.00239.x
p274
sg41
VPLANT BIOTECHNOL J
p275
sg43
V5
sg66
(lp276
(VVIJ
VS
tp277
asg51
I2007
sg39
VLANT
p278
sbag1
(g2
g3
NtRp279
(dp280
g45
V10.1016/S1360-1385(03)00057-8
p281
sg41
VTRENDS PLANT SCI
p282
sg43
V8
sg66
(lp283
(VWILKINSON
VM J
tp284
asg51
I2003
sg39
V208
p285
sbasb.