ccopy_reg
_reconstructor
p1
(ctethne.classes.paper
Paper
p2
c__builtin__
object
p3
NtRp4
(dp5
S'publisherCity'
p6
VROCKVILLE
p7
sS'reprintAddress'
p8
VRose, JKC (reprint author), Cornell Univ, Dept Plant Biol, Ithaca, NY 14853 USA.
p9
sS'WC'
p10
VPlant Sciences
p11
sS'GA'
p12
V209LS
p13
sS'FX'
p14
(lp15
VThis work was supported by the U.S. Department of Agriculture
p16
aVAgriculture and Food Research Initiative Competitive Grants Program
p17
aV(grant no. 2011-67013-19399), by the National Institute of Food and
p18
aVAgriculture, and by the National Science Foundation Plant Genome
p19
aVResearch Program (grant no. DBI-0606595).
p20
asS'abstract'
p21
VThe plant cuticle is an extracellular hydrophobic layer that covers the aerial epidermis of all land plants, providing protection against desiccation and external environmental stresses. The past decade has seen considerable progress in assembling models for the biosynthesis of its two major components, the polymer cutin and cuticular waxes. Most recently, two breakthroughs in the long-sought molecular bases of alkane formation and polyester synthesis have allowed construction of nearly complete biosynthetic pathways for both waxes and cutin. Concurrently, a complex regulatory network controlling the synthesis of the cuticle is emerging. It has also become clear that the physiological role of the cuticle extends well beyond its primary function as a transpiration barrier, playing important roles in processes ranging from development to interaction with microbes. Here, we review recent progress in the biochemistry and molecular biology of cuticle synthesis and function and highlight some of the major questions that will drive future research in this field.
p22
sS'pageEnd'
p23
I20
sS'date'
p24
I2013
sS'documentType'
p25
VReview
p26
sS'subject'
p27
VPlant Sciences
p28
sS'isoSource'
p29
VPlant Physiol.
p30
sS'timesCited'
p31
(lp32
I0
aVZ9 0
p33
asS'funding'
p34
(lp35
(VU.S. Department of Agriculture Agriculture and Food Research Initiative Competitive Grants Program
V2011-67013-19399
tp36
a(VNational Institute of Food and Agriculture
Ntp37
a(VNational Science Foundation Plant Genome Research Program
VDBI-0606595
tp38
asS'PT'
p39
VJ
sS'title'
p40
VThe Formation And Function Of Plant Cuticles
p41
sS'ISSN'
p42
(lp43
V0032-0889
p44
aVJ9 PLANT PHYSIOL
p45
asS'authors_full'
p46
(lp47
(VYEATS
VTREVOR H
tp48
a(VROSE
VJOCELYN K C
tp49
asS'PG'
p50
I16
sS'PD'
p51
VSEP
p52
sS'pageStart'
p53
I5
sS'issue'
p54
I1
sS'journal'
p55
VPLANT PHYSIOLOGY
p56
sS'volume'
p57
V163
p58
sS'doi'
p59
V10.1104/pp.113.222737
p60
sS'emailAddress'
p61
Vjr286@cornell.edu
p62
sS'authorAddress'
p63
V[Yeats, Trevor H.; Rose, Jocelyn K. C.] Cornell Univ, Dept Plant Biol, Ithaca, NY 14853 USA.
p64
sS'publisherAddress'
p65
V15501 MONONA DRIVE, ROCKVILLE, MD 20855 USA
p66
sS'ER'
p67
V
sS'publisher'
p68
VAMER SOC PLANT BIOLOGISTS
p69
sS'authorKeywords'
p70
(lp71
VCUTICULAR WAX BIOSYNTHESIS
p72
aVBETA-KETOACYL-COENZYME
p73
aVTRANSCRIPTION FACTOR GENE
p74
aVSYNTHETASE 1 LACS1
p75
aVARABIDOPSIS-THALIANA
p76
aVCELL-DIFFERENTIATION
p77
aVMEDICAGO-TRUNCATULA
p78
aVEPICUTICULAR WAX
p79
aVACYL-COENZYME
p80
aVFRUIT CUTICLE
p81
asS'language'
p82
VEnglish
p83
sS'wosid'
p84
VWOS:000323759200002
p85
sS'citationCount'
p86
I131
sS'authors_init'
p87
(lp88
(VYEATS
VT H
tp89
a(VROSE
VJ K C
tp90
asS'citedReferences'
p91
(lp92
g1
(g2
g3
NtRp93
(dp94
g59
V10.1105/tpc.104.022897
p95
sg55
VPLANT CELL
p96
sg57
V16
p97
sg87
(lp98
(VAHARONI
VA
tp99
asg24
I2004
sg53
VLANT
p100
sbag1
(g2
g3
NtRp101
(dp102
g59
V10.1104/pp.110.168641
p103
sg55
VPLANT PHYSIOL
p104
sg57
V155
p105
sg87
(lp106
(VAMBAVARAM
VM M R
tp107
asg24
I2011
sg53
VLANT
p108
sbag1
(g2
g3
NtRp109
(dp110
g59
V10.1093/jxb/err266
p111
sg55
VJ EXP BOT
p112
sg57
V63
p113
sg87
(lp114
(VAROCA
VR
tp115
asg24
I2012
sg53
V43
p116
sbag1
(g2
g3
NtRp117
(dp118
g59
V10.1073/pnas.0805089105
p119
sg55
VP NATL ACAD SCI USA
p120
sg57
V105
p121
sg87
(lp122
(VBACH
VL
tp123
asg24
I2008
sg53
V14727
p124
sbag1
(g2
g3
NtRp125
(dp126
g59
V10.1007/s004250050096
p127
sg55
VPLANTA
p128
sg57
V202
p129
sg87
(lp130
(VBARTHLOTT
VW
tp131
asg24
I1997
sg53
VLANTA
p132
sbag1
(g2
g3
NtRp133
(dp134
g59
V10.1104/pp.109.137497
p135
sg55
VPLANT PHYSIOL
p136
sg57
V150
p137
sg87
(lp138
(VBEAUDOIN
VF
tp139
asg24
I2009
sg53
VLANT
p140
sbag1
(g2
g3
NtRp141
(dp142
g59
V10.1105/tpc.112.099796
p143
sg55
VPLANT CELL
p144
sg57
V24
p145
sg87
(lp146
(VBERNARD
VA
tp147
asg24
I2012
sg53
VLANT
p148
sbag1
(g2
g3
NtRp149
(dp150
g59
V10.1016/j.plipres.2012.10.002
p151
sg55
VPROG LIPID RES
p152
sg57
V52
p153
sg87
(lp154
(VBERNARD
VA
tp155
asg24
I2013
sg53
VROG
p156
sbag1
(g2
g3
NtRp157
(dp158
g59
V10.1105/tpc.111.083121
p159
sg55
VPLANT CELL
p160
sg57
V23
p161
sg87
(lp162
(VBESSIRE
VM
tp163
asg24
I2011
sg53
VLANT
p164
sbag1
(g2
g3
NtRp165
(dp166
g59
V10.1038/sj.emboj.7601658
p167
sg55
VEMBO J
p168
sg57
V26
p169
sg87
(lp170
(VBESSIRE
VM
tp171
asg24
I2007
sg53
V2158
p172
sbag1
(g2
g3
NtRp173
(dp174
g59
V10.1021/la2043729
p175
sg55
VLANGMUIR
p176
sg57
V28
p177
sg87
(lp178
(VBHUSHAN
VB
tp179
asg24
I2012
sg53
V1698
p180
sbag1
(g2
g3
NtRp181
(dp182
g59
V10.1111/j.1365-313X.2007.03252.x
p183
sg55
VPLANT J
p184
sg57
V52
p185
sg87
(lp186
(VBIRD
VD
tp187
asg24
I2007
sg53
VLANT
p188
sbag1
(g2
g3
NtRp189
(dp190
g59
V10.1146/annurev.arplant.57.032905.105346
p191
sg55
VANNU REV PLANT BIOL
p192
sg57
V60
p193
sg87
(lp194
(VBOLLER
VT
tp195
asg24
I2009
sg53
V379
p196
sbag1
(g2
g3
NtRp197
(dp198
g59
V10.1111/j.1365-313X.2004.02258.x
p199
sg55
VPLANT J
p200
sg57
V40
p201
sg87
(lp202
(VBONAVENTURE
VG
tp203
asg24
I2004
sg53
VLANT
p204
sbag1
(g2
g3
NtRp205
(dp206
g59
V10.1007/s00339-010-5794-x
p207
sg55
VAPPL PHYS A
p208
sg57
V100
p209
sg87
(lp210
(VBORODICH
VF M
tp211
asg24
I2010
sg53
V63
p212
sbag1
(g2
g3
NtRp213
(dp214
g59
V10.1073/pnas.0305574101
p215
sg55
VP NATL ACAD SCI USA
p216
sg57
V101
p217
sg87
(lp218
(VBROUN
VP
tp219
asg24
I2004
sg53
V4706
p220
sbag1
(g2
g3
NtRp221
(dp222
g59
V10.1111/j.1365-313X.2009.03960.x
p223
sg55
VPLANT J
p224
sg57
V60
p225
sg87
(lp226
(VBUDA
VG J
tp227
asg24
I2009
sg53
VLANT
p228
sbag1
(g2
g3
NtRp229
(dp230
g59
V10.3732/ajb.1100311
p231
sg55
VAM J BOT
p232
sg57
V99
p233
sg87
(lp234
(VBUDKE
VJ M
tp235
asg24
I2012
sg53
V14
p236
sbag1
(g2
g3
NtRp237
(dp238
g59
Nsg55
VANNU PLANT REV
p239
sg57
V23
p240
sg87
(lp241
(VBURGHARDT
VM
tp242
asg24
I2006
sg53
V292
p243
sbag1
(g2
g3
NtRp244
(dp245
g59
V10.1104/pp.112.198473
p246
sg55
VPLANT PHYSIOL
p247
sg57
V160
p248
sg87
(lp249
(VBUSCHHAUS
VC
tp250
asg24
I2012
sg53
VLANT
p251
sbag1
(g2
g3
NtRp252
(dp253
g59
V10.1111/j.1365-313X.2006.03017.x
p254
sg55
VPLANT J
p255
sg57
V49
p256
sg87
(lp257
(VCHASSOT
VC
tp258
asg24
I2007
sg53
VLANT
p259
sbag1
(g2
g3
NtRp260
(dp261
g59
V10.1080/112635000500056344
p262
sg55
VPLANT BIOSYST
p263
sg57
V139
p264
sg87
(lp265
(VCHASSOT
VC
tp266
asg24
I2005
sg53
VLANT
p267
sbag1
(g2
g3
NtRp268
(dp269
g59
V10.1073/pnas.81.21.6613
p270
sg55
VP NATL ACAD SCI
p271
sg57
V81
p272
sg87
(lp273
(VCHEESBROUGH
VT M
tp274
asg24
I1984
sg53
V6613
p275
sbag1
(g2
g3
NtRp276
(dp277
g59
V10.1073/pnas.1108444108
p278
sg55
VP NATL ACAD SCI USA
p279
sg57
V108
p280
sg87
(lp281
(VCHEN
VG X
tp282
asg24
I2011
sg53
V12354
p283
sbag1
(g2
g3
NtRp284
(dp285
g59
V10.1073/pnas.1003954107
p286
sg55
VP NATL ACAD SCI USA
p287
sg57
V107
p288
sg87
(lp289
(VCHEN
VJ H
tp290
asg24
I2010
sg53
V10754
p291
sbag1
(g2
g3
NtRp292
(dp293
g59
V10.1111/j.1365-313X.2007.03310.x
p294
sg55
VPLANT J
p295
sg57
V53
p296
sg87
(lp297
(VCOMINELLI
VE
tp298
asg24
I2008
sg53
VLANT
p299
sbag1
(g2
g3
NtRp300
(dp301
g59
V10.1105/tpc.108.064451
p302
sg55
VPLANT CELL
p303
sg57
V21
p304
sg87
(lp305
(VDEBONO
VA
tp306
asg24
I2009
sg53
VLANT
p307
sbag1
(g2
g3
NtRp308
(dp309
g59
V10.1016/S1286-4579(00)01319-8
p310
sg55
VMICROBES INFECT
p311
sg57
V2
sg87
(lp312
(VDEISING
VH B
tp313
asg24
I2000
sg53
V1631
p314
sbag1
(g2
g3
NtRp315
(dp316
g59
V10.1016/j.ppees.2011.09.001
p317
sg55
VPERSPECT PLANT ECOL
p318
sg57
V14
p319
sg87
(lp320
(VDELAUX
VP M
tp321
asg24
I2012
sg53
VERSPECT
p322
sbag1
(g2
g3
NtRp323
(dp324
g59
V10.1094/MPMI.2003.16.5.411
p325
sg55
VMOL PLANT MICROBE IN
p326
sg57
V16
p327
sg87
(lp328
(VDICKMAN
VM B
tp329
asg24
I2003
sg53
V411
p330
sbag1
(g2
g3
NtRp331
(dp332
g59
V10.1111/j.1469-8137.2010.03553.x
p333
sg55
VNEW PHYTOL
p334
sg57
V189
p335
sg87
(lp336
(VDOMINGUEZ
VE
tp337
asg24
I2011
sg53
V938
p338
sbag1
(g2
g3
NtRp339
(dp340
g59
V10.1073/pnas.0803356105
p341
sg55
VP NATL ACAD SCI USA
p342
sg57
V105
p343
sg87
(lp344
(VDONG
VZ
tp345
asg24
I2008
sg53
V9970
p346
sbag1
(g2
g3
NtRp347
(dp348
g59
V10.1111/j.1469-8137.1993.tb03879.x
p349
sg55
VNEW PHYTOL
p350
sg57
V125
p351
sg87
(lp352
(VEDWARDS
VD
tp353
asg24
I1993
sg53
V225
p354
sbag1
(g2
g3
NtRp355
(dp356
g59
V10.1105/tpc.12.10.2001
p357
sg55
VPLANT CELL
p358
sg57
V12
p359
sg87
(lp360
(VFIEBIG
VA
tp361
asg24
I2000
sg53
VLANT
p362
sbag1
(g2
g3
NtRp363
(dp364
g59
V10.1016/j.phytochem.2005.09.027
p365
sg55
VPHYTOCHEMISTRY
p366
sg57
V66
p367
sg87
(lp368
(VFRANKE
VR
tp369
asg24
I2005
sg53
VHYTOCHEMISTRY
p370
sbag1
(g2
g3
NtRp371
(dp372
g59
V10.1071/FP12321
p373
sg55
VFUNCT PLANT BIOL
p374
sg57
V40
p375
sg87
(lp376
(VGAFF
VD F
tp377
asg24
I2013
sg53
V315
p378
sbag1
(g2
g3
NtRp379
(dp380
g59
V10.1105/tpc.112.101055
p381
sg55
VPLANT CELL
p382
sg57
V24
p383
sg87
(lp384
(VGIRARD
VA L
tp385
asg24
I2012
sg53
VLANT
p386
sbag1
(g2
g3
NtRp387
(dp388
g59
V10.1104/pp.107.107300
p389
sg55
VPLANT PHYSIOL
p390
sg57
V145
p391
sg87
(lp392
(VGREER
VS
tp393
asg24
I2007
sg53
VLANT
p394
sbag1
(g2
g3
NtRp395
(dp396
g59
V10.1666/05038.1
p397
sg55
VPALEOBIOLOGY
p398
sg57
V32
p399
sg87
(lp400
(VGUPTA
VN S
tp401
asg24
I2006
sg53
VALEOBIOLOGY
p402
sbag1
(g2
g3
NtRp403
(dp404
g59
V10.1111/j.1365-3059.2011.02467.x
p405
sg55
VPLANT PATHOL
p406
sg57
V60
p407
sg87
(lp408
(VHANSJAKOB
VA
tp409
asg24
I2011
sg53
VLANT
p410
sbag1
(g2
g3
NtRp411
(dp412
g59
V10.1111/j.1469-8137.2010.03419.x
p413
sg55
VNEW PHYTOL
p414
sg57
V188
p415
sg87
(lp416
(VHANSJAKOB
VA
tp417
asg24
I2010
sg53
V1039
p418
sbag1
(g2
g3
NtRp419
(dp420
g59
V10.1104/pp.112.201640
p421
sg55
VPLANT PHYSIOL
p422
sg57
V160
p423
sg87
(lp424
(VHASLAM
VT M
tp425
asg24
I2012
sg53
VLANT
p426
sbag1
(g2
g3
NtRp427
(dp428
g59
V10.1046/j.1365-3040.2002.00779.x
p429
sg55
VPLANT CELL ENVIRON
p430
sg57
V25
p431
sg87
(lp432
(VHOLMES
VM G
tp433
asg24
I2002
sg53
VLANT
p434
sbag1
(g2
g3
NtRp435
(dp436
g59
V10.1104/pp.003707
p437
sg55
VPLANT PHYSIOL
p438
sg57
V129
p439
sg87
(lp440
(VHOOKER
VT S
tp441
asg24
I2002
sg53
VLANT
p442
sbag1
(g2
g3
NtRp443
(dp444
g59
V10.1105/tpc.106.049304
p445
sg55
VPLANT CELL
p446
sg57
V19
p447
sg87
(lp448
(VHOOKER
VT S
tp449
asg24
I2007
sg53
VLANT
p450
sbag1
(g2
g3
NtRp451
(dp452
g59
V10.1111/j.1365-313X.2009.03969.x
p453
sg55
VPLANT J
p454
sg57
V60
p455
sg87
(lp456
(VISAACSON
VT
tp457
asg24
I2009
sg53
VLANT
p458
sbag1
(g2
g3
NtRp459
(dp460
g59
V10.1104/pp.109.150540
p461
sg55
VPLANT PHYSIOL
p462
sg57
V154
p463
sg87
(lp464
(VJAVELLE
VM
tp465
asg24
I2010
sg53
VLANT
p466
sbag1
(g2
g3
NtRp467
(dp468
g59
V10.1111/j.1469-8137.2010.03514.x
p469
sg55
VNEW PHYTOL
p470
sg57
V189
p471
sg87
(lp472
(VJAVELLE
VM
tp473
asg24
I2011
sg53
V17
p474
sbag1
(g2
g3
NtRp475
(dp476
g59
Nsg55
VANNU PLANT REV
p477
sg57
V23
p478
sg87
(lp479
(VJEFFREE
VC E
tp480
asg24
I2006
sg53
V11
p481
sbag1
(g2
g3
NtRp482
(dp483
g59
Nsg55
VHorticultural Reviews
p484
sg57
V23
p485
sg87
(lp486
(VJENKS
VM A
tp487
asg24
I1999
sg53
V1
sbag1
(g2
g3
NtRp488
(dp489
g59
Nsg55
VANNU PLANT REV
p490
sg57
V23
p491
sg87
(lp492
(VJETTER
VR
tp493
asg24
I2006
sg53
V145
p494
sbag1
(g2
g3
NtRp495
(dp496
g59
V10.1093/aob/mcs136
p497
sg55
VANN BOT
p498
sg57
V110
p499
sg87
(lp500
(VJONES
VV A S
tp501
asg24
I2012
sg53
V205
p502
sbag1
(g2
g3
NtRp503
(dp504
g59
V10.1007/s11103-008-9339-z
p505
sg55
VPLANT MOL BIOL
p506
sg57
V67
p507
sg87
(lp508
(VJOUBES
VJ
tp509
asg24
I2008
sg53
VLANT
p510
sbag1
(g2
g3
NtRp511
(dp512
g59
V10.1105/tpc.106.047076
p513
sg55
VPLANT CELL
p514
sg57
V19
p515
sg87
(lp516
(VKANNANGARA
VR
tp517
asg24
I2007
sg53
VLANT
p518
sbag1
(g2
g3
NtRp519
(dp520
g59
V10.1104/pp.120.4.1175
p521
sg55
VPLANT PHYSIOL
p522
sg57
V120
p523
sg87
(lp524
(VKAUSS
VH
tp525
asg24
I1999
sg53
VLANT
p526
sbag1
(g2
g3
NtRp527
(dp528
g59
V10.1093/pcp/pcs083
p529
sg55
VPLANT CELL PHYSIOL
p530
sg57
V53
p531
sg87
(lp532
(VKIM
VH
tp533
asg24
I2012
sg53
VLANT
p534
sbag1
(g2
g3
NtRp535
(dp536
g59
Nsg55
VADV BIOCHEM ENG BIOT
p537
sg57
V71
p538
sg87
(lp539
(VKOLATTUKUDY
VP E
tp540
asg24
I2001
sg53
V1
sbag1
(g2
g3
NtRp541
(dp542
g59
Nsg55
VJ HERED
p543
sg57
V80
p544
sg87
(lp545
(VKOORNNEEF
VM
tp546
asg24
I1989
sg53
V118
p547
sbag1
(g2
g3
NtRp548
(dp549
g59
V10.1111/j.1365-313X.2010.04229.x
p550
sg55
VPLANT J
p551
sg57
V63
p552
sg87
(lp553
(VKOSMA
VD K
tp554
asg24
I2010
sg53
VLANT
p555
sbag1
(g2
g3
NtRp556
(dp557
g59
V10.1104/pp.109.141911
p558
sg55
VPLANT PHYSIOL
p559
sg57
V151
p560
sg87
(lp561
(VKOSMA
VD K
tp562
asg24
I2009
sg53
VLANT
p563
sbag1
(g2
g3
NtRp564
(dp565
g59
V10.1111/j.1365-3040.1997.tb00684.x
p566
sg55
VPLANT CELL ENVIRON
p567
sg57
V20
p568
sg87
(lp569
(VKRAUSS
VP
tp570
asg24
I1997
sg53
VLANT
p571
sbag1
(g2
g3
NtRp572
(dp573
g59
V10.1046/j.1365-313X.2003.01824.x
p574
sg55
VPLANT J
p575
sg57
V35
p576
sg87
(lp577
(VKROLIKOWSKI
VK A
tp578
asg24
I2003
sg53
VLANT
p579
sbag1
(g2
g3
NtRp580
(dp581
g59
V10.1007/s00425-005-0215-7
p582
sg55
VPLANTA
p583
sg57
V224
p584
sg87
(lp585
(VKURDYUKOV
VS
tp586
asg24
I2006
sg53
VLANTA
p587
sbag1
(g2
g3
NtRp588
(dp589
g59
V10.1105/tpc.105.036079
p590
sg55
VPLANT CELL
p591
sg57
V18
p592
sg87
(lp593
(VKURDYUKOV
VS
tp594
asg24
I2006
sg53
VLANT
p595
sbag1
(g2
g3
NtRp596
(dp597
g59
V10.1104/pp.112.199646
p598
sg55
VPLANT PHYSIOL
p599
sg57
V159
p600
sg87
(lp601
(VLAM
VP
tp602
asg24
I2012
sg53
VLANT
p603
sbag1
(g2
g3
NtRp604
(dp605
g59
V10.1104/pp.109.137745
p606
sg55
VPLANT PHYSIOL
p607
sg57
V150
p608
sg87
(lp609
(VLEE
VS B
tp610
asg24
I2009
sg53
VLANT
p611
sbag1
(g2
g3
NtRp612
(dp613
g59
V10.1111/j.1365-3040.2011.02426.x
p614
sg55
VPLANT CELL ENVIRON
p615
sg57
V35
p616
sg87
(lp617
(VLEE
VS C
tp618
asg24
I2012
sg53
VLANT
p619
sbag1
(g2
g3
NtRp620
(dp621
g59
V10.1104/pp.107.099481
p622
sg55
VPLANT PHYSIOL
p623
sg57
V144
p624
sg87
(lp625
(VLEIDE
VJ
tp626
asg24
I2007
sg53
VLANT
p627
sbag1
(g2
g3
NtRp628
(dp629
g59
V10.1002/bies.201100035
p630
sg55
VBIOESSAYS
p631
sg57
V33
p632
sg87
(lp633
(VLELIAERT
VF
tp634
asg24
I2011
sg53
V683
p635
sbag1
(g2
g3
NtRp636
(dp637
g59
V10.1104/pp.108.123471
p638
sg55
VPLANT PHYSIOL
p639
sg57
V148
p640
sg87
(lp641
(VLI
VF
tp642
asg24
I2008
sg53
VLANT
p643
sbag1
(g2
g3
NtRp644
(dp645
g59
V10.1073/pnas.0909090106
p646
sg55
VP NATL ACAD SCI USA
p647
sg57
V106
p648
sg87
(lp649
(VLI-BEISSON
VY
tp650
asg24
I2009
sg53
V22008
p651
sbag1
(g2
g3
NtRp652
(dp653
g59
V10.1016/S1388-1981(99)00159-6
p654
sg55
VBBA
p655
sg57
V1441
p656
sg87
(lp657
(VLONGHI
VS
tp658
asg24
I1999
sg53
V185
p659
sbag1
(g2
g3
NtRp660
(dp661
g59
V10.1104/pp.112.198697
p662
sg55
VPLANT PHYSIOL
p663
sg57
V159
p664
sg87
(lp665
(VLU
VS Y
tp666
asg24
I2012
sg53
VLANT
p667
sbag1
(g2
g3
NtRp668
(dp669
g59
V10.1111/j.1365-313X.2009.03892.x
p670
sg55
VPLANT J
p671
sg57
V59
p672
sg87
(lp673
(VLU
VS Y
tp674
asg24
I2009
sg53
VLANT
p675
sbag1
(g2
g3
NtRp676
(dp677
g59
Nsg55
VDEVELOPMENT
p678
sg57
V122
p679
sg87
(lp680
(VMASUCCI
VJ D
tp681
asg24
I1996
sg53
V1253
p682
sbag1
(g2
g3
NtRp683
(dp684
g59
V10.1105/tpc.110.077974
p685
sg55
VPLANT CELL
p686
sg57
V22
p687
sg87
(lp688
(VMCFARLANE
VH E
tp689
asg24
I2010
sg53
VLANT
p690
sbag1
(g2
g3
NtRp691
(dp692
g59
V10.1515/DMDI.2011.015
p693
sg55
VDrug Metabolism and Drug Interactions
p694
sg57
V26
p695
sg87
(lp696
(VMOITRA
VKAROBI
tp697
asg24
I2011
sg53
V105
p698
sbag1
(g2
g3
NtRp699
(dp700
g59
V10.1007/s10886-005-7617-7
p701
sg55
VJ CHEM ECOL
p702
sg57
V31
p703
sg87
(lp704
(VMULLER
VC
tp705
asg24
I2005
sg53
V2621
p706
sbag1
(g2
g3
NtRp707
(dp708
g59
V10.1007/BF00345193
p709
sg55
VOECOLOGIA
p710
sg57
V38
p711
sg87
(lp712
(VMULROY
VT W
tp713
asg24
I1979
sg53
V349
p714
sbag1
(g2
g3
NtRp715
(dp716
g59
V10.1104/pp.112.198374
p717
sg55
VPLANT PHYSIOL
p718
sg57
V159
p719
sg87
(lp720
(VNADAKUDUTI
VS S
tp721
asg24
I2012
sg53
VLANT
p722
sbag1
(g2
g3
NtRp723
(dp724
g59
V10.1104/pp.106.077388
p725
sg55
VPLANT PHYSIOL
p726
sg57
V141
p727
sg87
(lp728
(VNAKAMURA
VM
tp729
asg24
I2006
sg53
VLANT
p730
sbag1
(g2
g3
NtRp731
(dp732
g59
V10.1007/s00018-012-1091-5
p733
sg55
VCELL MOL LIFE SCI
p734
sg57
V69
p735
sg87
(lp736
(VOBATA
VT
tp737
asg24
I2012
sg53
V3225
p738
sbag1
(g2
g3
NtRp739
(dp740
g59
V10.1016/S0065-2296(10)55004-3
p741
sg55
VADV BOT RES
p742
sg57
V55
p743
sg87
(lp744
(VOGBURN
VR M
tp745
asg24
I2010
sg53
V179
p746
sbag1
(g2
g3
NtRp747
(dp748
g59
V10.1105/tpc.113.110783
p749
sg55
VPLANT CELL
p750
sg57
V25
p751
sg87
(lp752
(VOSHIMA
VY
tp753
asg24
I2013
sg53
VLANT
p754
sbag1
(g2
g3
NtRp755
(dp756
g59
V10.1111/j.1469-8137.2010.03608.x
p757
sg55
VNEW PHYTOL
p758
sg57
V190
p759
sg87
(lp760
(VPANIKASHVILI
VD
tp761
asg24
I2011
sg53
V113
p762
sbag1
(g2
g3
NtRp763
(dp764
g59
V10.1104/pp.109.143388
p765
sg55
VPLANT PHYSIOL
p766
sg57
V151
p767
sg87
(lp768
(VPANIKASHVILI
VD
tp769
asg24
I2009
sg53
VLANT
p770
sbag1
(g2
g3
NtRp771
(dp772
g59
V10.1111/j.1399-3054.2012.01592.x
p773
sg55
VPHYSIOL PLANTARUM
p774
sg57
V146
p775
sg87
(lp776
(VPARSONS
VE P
tp777
asg24
I2012
sg53
VHYSIOL
p778
sbag1
(g2
g3
NtRp779
(dp780
g59
V10.1111/tpj.12060
p781
sg55
VPLANT J
p782
sg57
V73
p783
sg87
(lp784
(VPASCAL
VS
tp785
asg24
I2013
sg53
VLANT
p786
sbag1
(g2
g3
NtRp787
(dp788
g59
Nsg55
VANNU PLANT REV
p789
sg57
V23
p790
sg87
(lp791
(VPFUNDEL
VE E
tp792
asg24
I2006
sg53
V216
p793
sbag1
(g2
g3
NtRp794
(dp795
g59
V10.1126/science.1102331
p796
sg55
VSCIENCE
p797
sg57
V306
p798
sg87
(lp799
(VPIGHIN
VJ A
tp800
asg24
I2004
sg53
V702
p801
sbag1
(g2
g3
NtRp802
(dp803
g59
V10.1016/j.tplants.2008.03.003
p804
sg55
VTRENDS PLANT SCI
p805
sg57
V13
p806
sg87
(lp807
(VPOLLARD
VM
tp808
asg24
I2008
sg53
V236
p809
sbag1
(g2
g3
NtRp810
(dp811
g59
V10.1016/j.plaphy.2011.10.003
p812
sg55
VPLANT PHYSIOL BIOCH
p813
sg57
V51
p814
sg87
(lp815
(VPULSIFER
VI P
tp816
asg24
I2012
sg53
VLANT
p817
sbag1
(g2
g3
NtRp818
(dp819
g59
V10.1105/tpc.107.054858
p820
sg55
VPLANT CELL
p821
sg57
V20
p822
sg87
(lp823
(VRAFFAELE
VS
tp824
asg24
I2008
sg53
VLANT
p825
sbag1
(g2
g3
NtRp826
(dp827
g59
V10.1074/jbc.M110.133116
p828
sg55
VJ BIOL CHEM
p829
sg57
V285
p830
sg87
(lp831
(VRANI
VS H
tp832
asg24
I2010
sg53
V38337
p833
sbag1
(g2
g3
NtRp834
(dp835
g59
V10.1093/jxb/erm136
p836
sg55
VJ EXP BOT
p837
sg57
V58
p838
sg87
(lp839
(VREINA
VJ J
tp840
asg24
I2007
sg53
V2717
p841
sbag1
(g2
g3
NtRp842
(dp843
g59
V10.1016/j.plaphy.2009.01.004
p844
sg55
VPLANT PHYSIOL BIOCH
p845
sg57
V47
p846
sg87
(lp847
(VREINA-PINTO
VJ J
tp848
asg24
I2009
sg53
VLANT
p849
sbag1
(g2
g3
NtRp850
(dp851
g59
V10.1007/s00425-006-0437-3
p852
sg55
VPLANTA
p853
sg57
V225
p854
sg87
(lp855
(VRIEDEL
VM
tp856
asg24
I2007
sg53
VLANTA
p857
sbag1
(g2
g3
NtRp858
(dp859
g59
Nsg55
VWAXES CHEM MOL BIOL
p860
sg57
Nsg87
(lp861
(VRIEDERER
VM
tp862
asg24
I1995
sg53
V131
p863
sbag1
(g2
g3
NtRp864
(dp865
g59
V10.1093/jexbot/52.363.2023
p866
sg55
VJ EXP BOT
p867
sg57
V52
p868
sg87
(lp869
(VRIEDERER
VM
tp870
asg24
I2001
sg53
V2023
p871
sbag1
(g2
g3
NtRp872
(dp873
g59
V10.1007/s00425-009-0924-4
p874
sg55
VPLANTA
p875
sg57
V230
p876
sg87
(lp877
(VRINGELMANN
VA
tp878
asg24
I2009
sg53
VLANTA
p879
sbag1
(g2
g3
NtRp880
(dp881
g59
V10.1104/pp.106.086785
p882
sg55
VPLANT PHYSIOL
p883
sg57
V142
p884
sg87
(lp885
(VROWLAND
VO
tp886
asg24
I2006
sg53
VLANT
p887
sbag1
(g2
g3
NtRp888
(dp889
g59
V10.1016/S0169-5347(96)10062-8
p890
sg55
VTRENDS ECOL EVOL
p891
sg57
V12
p892
sg87
(lp893
(VROZEMA
VJ
tp894
asg24
I1997
sg53
V22
p895
sbag1
(g2
g3
NtRp896
(dp897
g59
V10.1006/abbi.2000.1798
p898
sg55
VARCH BIOCHEM BIOPHYS
p899
sg57
V377
p900
sg87
(lp901
(VSCHNEIDER-BELHADDAD
VF
tp902
asg24
I2000
sg53
V341
p903
sbag1
(g2
g3
NtRp904
(dp905
g59
V10.1046/j.1365-313X.1996.10020331.x
p906
sg55
VPLANT J
p907
sg57
V10
p908
sg87
(lp909
(VSCHWEIZER
VP
tp910
asg24
I1996
sg53
VLANT
p911
sbag1
(g2
g3
NtRp912
(dp913
g59
V10.1105/tpc.111.083485
p914
sg55
VPLANT CELL
p915
sg57
V23
p916
sg87
(lp917
(VSEO
VP J
tp918
asg24
I2011
sg53
VLANT
p919
sbag1
(g2
g3
NtRp920
(dp921
g59
V10.1104/pp.109.144220
p922
sg55
VPLANT PHYSIOL
p923
sg57
V151
p924
sg87
(lp925
(VSEO
VP J
tp926
asg24
I2009
sg53
VLANT
p927
sbag1
(g2
g3
NtRp928
(dp929
g59
V10.1016/j.plantsci.2012.06.013
p930
sg55
VPLANT SCI
p931
sg57
V195
p932
sg87
(lp933
(VSERRA
VO
tp934
asg24
I2012
sg53
VLANT
p935
sbag1
(g2
g3
NtRp936
(dp937
g59
V10.1111/nph.12032
p938
sg55
VNEW PHYTOL
p939
sg57
V197
p940
sg87
(lp941
(VSHI
VJ X
tp942
asg24
I2013
sg53
V468
p943
sbag1
(g2
g3
NtRp944
(dp945
g59
V10.1371/journal.pgen.1001388
p946
sg55
VPLOS GENET
p947
sg57
V7
sg87
(lp948
(VSHI
VJ X
tp949
asg24
I2011
sg53
VLOS
p950
sbag1
(g2
g3
NtRp951
(dp952
g59
V10.1105/tpc.12.5.721
p953
sg55
VPLANT CELL
p954
sg57
V12
p955
sg87
(lp956
(VSIEBER
VP
tp957
asg24
I2000
sg53
VLANT
p958
sbag1
(g2
g3
NtRp959
(dp960
g59
V10.1104/pp.112.206656
p961
sg55
VPLANT PHYSIOL
p962
sg57
V161
p963
sg87
(lp964
(VSMIRNOVA
VA
tp965
asg24
I2013
sg53
VLANT
p966
sbag1
(g2
g3
NtRp967
(dp968
g59
V10.1111/j.1365-313X.2011.04686.x
p969
sg55
VPLANT J
p970
sg57
V68
p971
sg87
(lp972
(VSORENSEN
VI
tp973
asg24
I2011
sg53
VLANT
p974
sbag1
(g2
g3
NtRp975
(dp976
g59
V10.1242/dev.094417
p977
sg55
VDEVELOPMENT
p978
sg57
V140
p979
sg87
(lp980
(VTAKADA
VS
tp981
asg24
I2013
sg53
V1919
p982
sbag1
(g2
g3
NtRp983
(dp984
g59
V10.1073/pnas.0711034105
p985
sg55
VP NATL ACAD SCI USA
p986
sg57
V105
p987
sg87
(lp988
(VTAKETA
VS
tp989
asg24
I2008
sg53
V4062
p990
sbag1
(g2
g3
NtRp991
(dp992
g59
V10.1104/pp.106.094318
p993
sg55
VPLANT PHYSIOL
p994
sg57
V144
p995
sg87
(lp996
(VTANG
VD Z
tp997
asg24
I2007
sg53
VLANT
p998
sbag1
(g2
g3
NtRp999
(dp1000
g59
V10.1007/978-1-4020-2626-3_5
p1001
sg55
VBOTRYTIS BIOL PATHOL
p1002
sg57
Nsg87
(lp1003
(VTENBERGE
VK B
tp1004
asg24
I2007
sg53
V67
p1005
sbag1
(g2
g3
NtRp1006
(dp1007
g59
V10.1006/pmpp.2002.0376
p1008
sg55
VPHYSIOL MOL PLANT P
p1009
sg57
V60
p1010
sg87
(lp1011
(VTSUBA
VM
tp1012
asg24
I2002
sg53
VHYSIOL
p1013
sbag1
(g2
g3
NtRp1014
(dp1015
g59
V10.1105/tpc.111.093104
p1016
sg55
VPLANT CELL
p1017
sg57
V24
p1018
sg87
(lp1019
(VUPPALAPATI
VS R
tp1020
asg24
I2012
sg53
VLANT
p1021
sbag1
(g2
g3
NtRp1022
(dp1023
g59
V10.1371/journal.pgen.1000703
p1024
sg55
VPLOS GENET
p1025
sg57
V5
sg87
(lp1026
(VVOISIN
VD
tp1027
asg24
I2009
sg53
VLOS
p1028
sbag1
(g2
g3
NtRp1029
(dp1030
g59
V10.1093/molbev/msq226
p1031
sg55
VMOL BIOL EVOL
p1032
sg57
V28
p1033
sg87
(lp1034
(VVOLOKITA
VM
tp1035
asg24
I2011
sg53
V551
p1036
sbag1
(g2
g3
NtRp1037
(dp1038
g59
V10.1016/j.ympev.2003.07.018
p1039
sg55
VMOL PHYLOGENET EVOL
p1040
sg57
V29
p1041
sg87
(lp1042
(VWATERS
VE R
tp1043
asg24
I2003
sg53
V456
p1044
sbag1
(g2
g3
NtRp1045
(dp1046
g59
V10.1073/pnas.171285998
p1047
sg55
VP NATL ACAD SCI USA
p1048
sg57
V98
p1049
sg87
(lp1050
(VWELLESEN
VK
tp1051
asg24
I2001
sg53
V9694
p1052
sbag1
(g2
g3
NtRp1053
(dp1054
g59
V10.1105/tpc.111.088625
p1055
sg55
VPLANT CELL
p1056
sg57
V23
p1057
sg87
(lp1058
(VWU
VR H
tp1059
asg24
I2011
sg53
VLANT
p1060
sbag1
(g2
g3
NtRp1061
(dp1062
g59
V10.1104/pp.112.201996
p1063
sg55
VPLANT PHYSIOL
p1064
sg57
V160
p1065
sg87
(lp1066
(VYANG
VW L
tp1067
asg24
I2012
sg53
VLANT
p1068
sbag1
(g2
g3
NtRp1069
(dp1070
g59
V10.1073/pnas.0914149107
p1071
sg55
VP NATL ACAD SCI USA
p1072
sg57
V107
p1073
sg87
(lp1074
(VYANG
VW L
tp1075
asg24
I2010
sg53
V12040
p1076
sbag1
(g2
g3
NtRp1077
(dp1078
g59
V10.1111/j.1365-313X.2011.04820.x
p1079
sg55
VPLANT J
p1080
sg57
V69
p1081
sg87
(lp1082
(VYEATS
VT H
tp1083
asg24
I2012
sg53
VLANT
p1084
sbag1
(g2
g3
NtRp1085
(dp1086
g59
V[10.1038/nchembio.960, 10.1038/NCHEMBIO.960]
p1087
sg55
VNAT CHEM BIOL
p1088
sg57
V8
sg87
(lp1089
(VYEATS
VT H
tp1090
asg24
I2012
sg53
V609
p1091
sbag1
(g2
g3
NtRp1092
(dp1093
g59
V10.1110/ps.073300108
p1094
sg55
VPROTEIN SCI
p1095
sg57
V17
p1096
sg87
(lp1097
(VYEATS
VT H
tp1098
asg24
I2008
sg53
VROTEIN
p1099
sbag1
(g2
g3
NtRp1100
(dp1101
g59
V10.1105/tpc.11.11.2187
p1102
sg55
VPLANT CELL
p1103
sg57
V11
p1104
sg87
(lp1105
(VYEPHREMOV
VA
tp1106
asg24
I1999
sg53
VLANT
p1107
sbag1
(g2
g3
NtRp1108
(dp1109
g59
V10.1111/j.1365-313X.2005.02405.x
p1110
sg55
VPLANT J
p1111
sg57
V42
p1112
sg87
(lp1113
(VZHANG
VJ Y
tp1114
asg24
I2005
sg53
VLANT
p1115
sbag1
(g2
g3
NtRp1116
(dp1117
g59
V10.1105/tpc.104.030155
p1118
sg55
VPLANT CELL
p1119
sg57
V17
p1120
sg87
(lp1121
(VZHENG
VH Q
tp1122
asg24
I2005
sg53
VLANT
p1123
sbasb.