ccopy_reg
_reconstructor
p1
(ctethne.classes.paper
Paper
p2
c__builtin__
object
p3
NtRp4
(dp5
S'publisherCity'
p6
VROCKVILLE
p7
sS'reprintAddress'
p8
VInouhe, M (reprint author), Ehime Univ, Fac Sci, Dept Biol & Earth Sci, Matsuyama, Ehime 7908577, Japan.
p9
sS'WC'
p10
VPlant Sciences
p11
sS'GA'
p12
V334YD
p13
sS'abstract'
p14
VSuspension-cultured cells of azuki bean (Vigna angularis) as well as the original root tissues were hypersensitive to Cd (<10 mu M). Repeated subculturings with a sublethal level of Cd (1-10 mu M) did not affect the subsequent response of cells to inhibitory levels of Cd (10-100 mu M). The azuki bean cells challenged to Cd did not contain phytochelatin (PC) peptides, unlike tomato (Lycopersicon esculentum) cells that have a substantial tolerance to Cd (>100 mu M). Both of the cell suspensions contained a similar level of reduced glutathione (GSH) when grown in the absence of Cd. Externally applied GSH to azuki bean cells recovered neither Cd tolerance nor PC synthesis of the cells. Furthermore, enzyme assays in vitro revealed that the protein extracts of azuki bean cells had no activity converting GSH to PCs, unlike tomato. These results suggest that azuki bean cells are lacking in the PC synthase activity per se, hence being Cd hypersensitive. We concluded that the PC synthase has an important role in Cd tolerance of suspension-cultured cells.
p15
sS'pageEnd'
p16
I1036
sS'publisherAddress'
p17
V15501 MONONA DRIVE, ROCKVILLE, MD 20855 USA
p18
sS'documentType'
p19
VArticle
p20
sS'subject'
p21
VPlant Sciences
p22
sS'isoSource'
p23
VPlant Physiol.
p24
sS'timesCited'
p25
(lp26
I33
aVZ9 37
p27
asS'PT'
p28
VJ
sS'title'
p29
VAzuki Bean Cells Are Hypersensitive To Cadmium And Do Not Synthesize Phytochelatins
p30
sS'ISSN'
p31
(lp32
V0032-0889
p33
aVJ9 PLANT PHYSIOL
p34
asS'authors_full'
p35
(lp36
(VINOUHE
VM
tp37
a(VITO
VR
tp38
a(VITO
VS
tp39
a(VSASADA
VN
tp40
a(VTOHOYAMA
VH
tp41
a(VJOHO
VM
tp42
asS'PG'
p43
I8
sS'PD'
p44
VJUL
p45
sS'pageStart'
p46
I1029
sS'issue'
p47
I3
sS'journal'
p48
VPLANT PHYSIOLOGY
p49
sS'volume'
p50
V123
p51
sS'doi'
p52
V10.1104/pp.123.3.1029
p53
sS'authorAddress'
p54
VEhime Univ, Fac Sci, Dept Biol & Earth Sci, Matsuyama, Ehime 7908577, Japan.
p55
sS'date'
p56
I2000
sS'ER'
p57
V
sS'publisher'
p58
VAMER SOC PLANT PHYSIOLOGISTS
p59
sS'authorKeywords'
p60
(lp61
VMETAL-BINDING PEPTIDES
p62
aVGAMMA-GLUTAMYLCYSTEINE SYNTHETASE
p63
aVTOMATO CELLS
p64
aVSCHIZOSACCHAROMYCES-POMBE
p65
aVARABIDOPSIS-THALIANA
p66
aVHIGHER-PLANTS
p67
aVHEAVY-METALS
p68
aVGLUTATHIONE-DEFICIENT
p69
aVDATURA-INNOXIA
p70
aVTOLERANCE
p71
asS'language'
p72
VEnglish
p73
sS'wosid'
p74
VWOS:000088213300026
p75
sS'citationCount'
p76
I45
sS'authors_init'
p77
(lp78
(VINOUHE
VM
tp79
a(VITO
VR
tp80
a(VITO
VS
tp81
a(VSASADA
VN
tp82
a(VTOHOYAMA
VH
tp83
a(VJOHO
VM
tp84
asS'citedReferences'
p85
(lp86
g1
(g2
g3
NtRp87
(dp88
g52
Nsg48
VMETHOD ENZYMOL
p89
sg50
V113
p90
sg77
(lp91
(VANDERSON
VM E
tp92
asg56
I1985
sg46
V548
p93
sbag1
(g2
g3
NtRp94
(dp95
g52
Nsg48
VPLANT PHYSIOL
p96
sg50
V106
p97
sg77
(lp98
(VCHEN
VJ J
tp99
asg56
I1994
sg46
VLANT
p100
sbag1
(g2
g3
NtRp101
(dp102
g52
V10.1034/j.1399-3054.1997.1010122.x
p103
sg48
VPHYSIOL PLANTARUM
p104
sg50
V101
p105
sg77
(lp106
(VCHEN
VJ J
tp107
asg56
I1997
sg46
VHYSIOL
p108
sbag1
(g2
g3
NtRp109
(dp110
g52
V10.1093/emboj/18.12.3325
p111
sg48
VEMBO J
p112
sg50
V18
p113
sg77
(lp114
(VCLEMENS
VS
tp115
asg56
I1999
sg46
V3325
p116
sbag1
(g2
g3
NtRp117
(dp118
g52
V10.1046/j.1365-313x.1998.00262.x
p119
sg48
VPLANT J
p120
sg50
V16
p121
sg77
(lp122
(VCOBBETT
VC S
tp123
asg56
I1998
sg46
VLANT
p124
sbag1
(g2
g3
NtRp125
(dp126
g52
V10.1104/pp.89.2.700
p127
sg48
VPLANT PHYSIOL
p128
sg50
V89
p129
sg77
(lp130
(VDELHAIZE
VE
tp131
asg56
I1989
sg46
VLANT
p132
sbag1
(g2
g3
NtRp133
(dp134
g52
Nsg48
VEXPT PLANT TISSUE CU
p135
sg50
Nsg77
(lp136
(VDODDS
VJ H
tp137
asg56
I1985
sg46
V104
p138
sbag1
(g2
g3
NtRp139
(dp140
g52
Nsg48
VJ BIOL CHEM
p141
sg50
V254
p142
sg77
(lp143
(VGRIFFITH
VO W
tp144
asg56
I1979
sg46
V7558
p145
sbag1
(g2
g3
NtRp146
(dp147
g52
V10.1073/pnas.84.2.439
p148
sg48
VP NATL ACAD SCI USA
p149
sg50
V84
p150
sg77
(lp151
(VGRILL
VE
tp152
asg56
I1987
sg46
V439
p153
sbag1
(g2
g3
NtRp154
(dp155
g52
V10.1073/pnas.86.18.6838
p156
sg48
VP NATL ACAD SCI USA
p157
sg50
V86
p158
sg77
(lp159
(VGRILL
VE
tp160
asg56
I1989
sg46
V6838
p161
sbag1
(g2
g3
NtRp162
(dp163
g52
V10.1126/science.230.4726.674
p164
sg48
VSCIENCE
p165
sg50
V230
p166
sg77
(lp167
(VGRILL
VE
tp168
asg56
I1985
sg46
V674
p169
sbag1
(g2
g3
NtRp170
(dp171
g52
V10.1105/tpc.11.6.1153
p172
sg48
VPLANT CELL
p173
sg50
V11
p174
sg77
(lp175
(VHA
VS B
tp176
asg56
I1999
sg46
VLANT
p177
sbag1
(g2
g3
NtRp178
(dp179
g52
V10.1104/pp.107.4.1059
p180
sg48
VPLANT PHYSIOL
p181
sg50
V107
p182
sg77
(lp183
(VHOWDEN
VR
tp184
asg56
I1995
sg46
VLANT
p185
sbag1
(g2
g3
NtRp186
(dp187
g52
V10.1104/pp.107.4.1067
p188
sg48
VPLANT PHYSIOL
p189
sg50
V107
p190
sg77
(lp191
(VHOWDEN
VR
tp192
asg56
I1995
sg46
VLANT
p193
sbag1
(g2
g3
NtRp194
(dp195
g52
V10.1007/BF02344245
p196
sg48
VJ PLANT RES
p197
sg50
V107
p198
sg77
(lp199
(VINOUHE
VM
tp200
asg56
I1994
sg46
V201
p201
sbag1
(g2
g3
NtRp202
(dp203
g52
V10.1007/BF02489454
p204
sg48
VBOT MAG TOKYO
p205
sg50
V104
p206
sg77
(lp207
(VINOUHE
VM
tp208
asg56
I1991
sg46
V217
p209
sbag1
(g2
g3
NtRp210
(dp211
g52
Nsg48
VPLANT CELL PHYSIOL
p212
sg50
V37
p213
sg77
(lp214
(VINOUHE
VM
tp215
asg56
I1996
sg46
VLANT
p216
sbag1
(g2
g3
NtRp217
(dp218
g52
V10.1104/pp.75.4.914
p219
sg48
VPLANT PHYSIOL
p220
sg50
V75
p221
sg77
(lp222
(VJACKSON
VP J
tp223
asg56
I1984
sg46
VLANT
p224
sbag1
(g2
g3
NtRp225
(dp226
g52
Nsg48
VPLANT PHYSIOL
p227
sg50
V107
p228
sg77
(lp229
(VKLAPHECK
VS
tp230
asg56
I1995
sg46
VLANT
p231
sbag1
(g2
g3
NtRp232
(dp233
g52
V10.1016/S0040-4039(01)91190-6
p234
sg48
VTETRAHEDRON LETT
p235
sg50
V25
p236
sg77
(lp237
(VKONDO
VN
tp238
asg56
I1984
sg46
V3869
p239
sbag1
(g2
g3
NtRp240
(dp241
g52
V10.1104/pp.91.2.780
p242
sg48
VPLANT PHYSIOL
p243
sg50
V91
p244
sg77
(lp245
(VKROTZ
VR M
tp246
asg56
I1989
sg46
VLANT
p247
sbag1
(g2
g3
NtRp248
(dp249
g52
V10.1016/0014-5793(89)81611-4
p250
sg48
VFEBS LETT
p251
sg50
V258
p252
sg77
(lp253
(VLOEFFLER
VS
tp254
asg56
I1989
sg46
V42
p255
sbag1
(g2
g3
NtRp256
(dp257
g52
Nsg48
VCHEM PHARM BULL
p258
sg50
V38
p259
sg77
(lp260
(VMATSUMOTO
VY
tp261
asg56
I1990
sg46
V2364
p262
sbag1
(g2
g3
NtRp263
(dp264
g52
Nsg48
VJ CELL BIOCHEM
p265
sg50
V45
p266
sg77
(lp267
(VMEHRA
VR K
tp268
asg56
I1990
sg46
V1
sbag1
(g2
g3
NtRp269
(dp270
g52
V10.1104/pp.93.2.484
p271
sg48
VPLANT PHYSIOL
p272
sg50
V93
p273
sg77
(lp274
(VMENDUM
VM L
tp275
asg56
I1990
sg46
VLANT
p276
sbag1
(g2
g3
NtRp277
(dp278
g52
V10.1111/j.1399-3054.1962.tb08052.x
p279
sg48
VPHYSIOL PLANTARUM
p280
sg50
V15
p281
sg77
(lp282
(VMURASHIGE
VT
tp283
asg56
I1962
sg46
VHYSIOL
p284
sbag1
(g2
g3
NtRp285
(dp286
g52
V10.1016/0006-291X(81)90911-6
p287
sg48
VBIOCHEM BIOPH RES CO
p288
sg50
V103
p289
sg77
(lp290
(VMURASUGI
VA
tp291
asg56
I1981
sg46
V1021
p292
sbag1
(g2
g3
NtRp293
(dp294
g52
V10.1016/0006-291X(88)90555-4
p295
sg48
VBIOCHEM BIOPH RES CO
p296
sg50
V151
p297
sg77
(lp298
(VMUTOH
VN
tp299
asg56
I1988
sg46
V32
p300
sbag1
(g2
g3
NtRp301
(dp302
g52
V10.1146/annurev.arplant.49.1.249
p303
sg48
VANNU REV PLANT PHYS
p304
sg50
V49
p305
sg77
(lp306
(VNOCTOR
VG
tp307
asg56
I1998
sg46
V249
p308
sbag1
(g2
g3
NtRp309
(dp310
g52
V10.1104/pp.88.4.1407
p311
sg48
VPLANT PHYSIOL
p312
sg50
V88
p313
sg77
(lp314
(VNUSSBAUM
VS
tp315
asg56
I1988
sg46
VLANT
p316
sbag1
(g2
g3
NtRp317
(dp318
g52
V10.1146/annurev.biochem.59.1.61
p319
sg48
VANNU REV BIOCHEM
p320
sg50
V59
p321
sg77
(lp322
(VRAUSER
VW E
tp323
asg56
I1990
sg46
V61
p324
sbag1
(g2
g3
NtRp325
(dp326
g52
V10.1104/pp.109.4.1141
p327
sg48
VPLANT PHYSIOL
p328
sg50
V109
p329
sg77
(lp330
(VRAUSER
VW E
tp331
asg56
I1995
sg46
VLANT
p332
sbag1
(g2
g3
NtRp333
(dp334
g52
V10.1104/pp.84.3.574
p335
sg48
VPLANT PHYSIOL
p336
sg50
V84
p337
sg77
(lp338
(VREESE
VR N
tp339
asg56
I1987
sg46
VLANT
p340
sbag1
(g2
g3
NtRp341
(dp342
g52
V10.1104/pp.98.1.225
p343
sg48
VPLANT PHYSIOL
p344
sg50
V98
p345
sg77
(lp346
(VREESE
VR N
tp347
asg56
I1992
sg46
VLANT
p348
sbag1
(g2
g3
NtRp349
(dp350
g52
Nsg48
VPHYTOCHEMISTRY
p351
sg50
V21
p352
sg77
(lp353
(VRENNENBERG
VH
tp354
asg56
I1982
sg46
VHYTOCHEMISTRY
p355
sbag1
(g2
g3
NtRp356
(dp357
g52
V10.1104/pp.99.2.428
p358
sg48
VPLANT PHYSIOL
p359
sg50
V99
p360
sg77
(lp361
(VRUEGSEGGER
VA
tp362
asg56
I1992
sg46
VLANT
p363
sbag1
(g2
g3
NtRp364
(dp365
g52
V10.1104/pp.85.4.1031
p366
sg48
VPLANT PHYSIOL
p367
sg50
V85
p368
sg77
(lp369
(VSCHELLER
VH V
tp370
asg56
I1987
sg46
VLANT
p371
sbag1
(g2
g3
NtRp372
(dp373
g52
Nsg48
VJ BIOL CHEM
p374
sg50
V261
p375
sg77
(lp376
(VSTEFFENS
VJ C
tp377
asg56
I1986
sg46
V13879
p378
sbag1
(g2
g3
NtRp379
(dp380
g52
Nsg48
VANNU REV PLANT PHYS
p381
sg50
V41
p382
sg77
(lp383
(VSTEFFENS
VJ C
tp384
asg56
I1990
sg46
V553
p385
sbag1
(g2
g3
NtRp386
(dp387
g52
V10.1073/pnas.96.12.7110
p388
sg48
VP NATL ACAD SCI USA
p389
sg50
V96
p390
sg77
(lp391
(VVATAMANIUK
VO K
tp392
asg56
I1999
sg46
V7110
p393
sbag1
(g2
g3
NtRp394
(dp395
g52
V10.1111/j.1365-3040.1990.tb01981.x
p396
sg48
VPLANT CELL ENVIRON
p397
sg50
V13
p398
sg77
(lp399
(VVERKLEIJ
VJ A C
tp400
asg56
I1990
sg46
VLANT
p401
sbag1
(g2
g3
NtRp402
(dp403
g52
Nsg48
VMETAL ION HOMEOSTASI
p404
sg50
Nsg77
(lp405
(VWAGNER
VG J
tp406
asg56
I1989
sg46
V325
p407
sbag1
(g2
g3
NtRp408
(dp409
g52
V10.1105/tpc.10.9.1539
p410
sg48
VPLANT CELL
p411
sg50
V10
p412
sg77
(lp413
(VXIANG
VC B
tp414
asg56
I1998
sg46
VLANT
p415
sbag1
(g2
g3
NtRp416
(dp417
g52
V10.1016/S0378-1119(96)00422-2
p418
sg48
VGENE
p419
sg50
V179
p420
sg77
(lp421
(VZENK
VM H
tp422
asg56
I1996
sg46
V21
p423
sbag1
(g2
g3
NtRp424
(dp425
g52
Nsg48
VPLANT PHYSIOL
p426
sg50
V119
p427
sg77
(lp428
(VZHU
VY L
tp429
asg56
I1999
sg46
VLANT
p430
sbasb.