ccopy_reg
_reconstructor
p1
(ctethne.classes.paper
Paper
p2
c__builtin__
object
p3
NtRp4
(dp5
S'publisherCity'
p6
VROCKVILLE
p7
sS'reprintAddress'
p8
Vvan Wijk, KJ (reprint author), Cornell Univ, Dept Plant Biol, Ithaca, NY 14853 USA.
p9
sS'WC'
p10
VPlant Sciences
p11
sS'GA'
p12
V870IL
p13
sS'FX'
p14
(lp15
VThis work was supported by the National Science Foundation (grant no.
p16
aVIOS-0922560 to K.J.v.W. and A.B. and grant no. 0701736 to K.J.v.W.).
p17
asS'abstract'
p18
VPlastids contain multiple copies of the plastid chromosome, folded together with proteins and RNA into nucleoids. The degree to which components of the plastid gene expression and protein biogenesis machineries are nucleoid associated, and the factors involved in plastid DNA organization, repair, and replication, are poorly understood. To provide a conceptual framework for nucleoid function, we characterized the proteomes of highly enriched nucleoid fractions of proplastids and mature chloroplasts isolated from the maize (Zea mays) leaf base and tip, respectively, using mass spectrometry. Quantitative comparisons with proteomes of unfractionated proplastids and chloroplasts facilitated the determination of nucleoid-enriched proteins. This nucleoid-enriched proteome included proteins involved in DNA replication, organization, and repair as well as transcription, mRNA processing, splicing, and editing. Many proteins of unknown function, including pentatricopeptide repeat (PPR), tetratricopeptide repeat (TPR), DnaJ, and mitochondrial transcription factor (mTERF) domain proteins, were identified. Strikingly, 70S ribosome and ribosome assembly factors were strongly overrepresented in nucleoid fractions, but protein chaperones were not. Our analysis strongly suggests that mRNA processing, splicing, and editing, as well as ribosome assembly, take place in association with the nucleoid, suggesting that these processes occur cotranscriptionally. The plastid developmental state did not dramatically change the nucleoid-enriched proteome but did quantitatively shift the predominating function from RNA metabolism in undeveloped plastids to translation and homeostasis in chloroplasts. This study extends the known maize plastid proteome by hundreds of proteins, including more than 40 PPR and mTERF domain proteins, and provides a resource for targeted studies on plastid gene expression. Details of protein identification and annotation are provided in the Plant Proteome Database.
p19
sS'pageEnd'
p20
I189
sS'date'
p21
I2012
sS'documentType'
p22
VArticle
p23
sS'subject'
p24
VPlant Sciences
p25
sS'isoSource'
p26
VPlant Physiol.
p27
sS'timesCited'
p28
(lp29
I29
aVZ9 29
p30
asS'funding'
p31
(lp32
(VNational Science Foundation
VIOS-0922560, 0701736
tp33
asS'PT'
p34
VJ
sS'title'
p35
VNucleoid-Enriched Proteomes In Developing Plastids And Chloroplasts From Maize Leaves: A New Conceptual Framework For Nucleoid Functions
p36
sS'ISSN'
p37
(lp38
V0032-0889
p39
aVJ9 PLANT PHYSIOL
p40
asS'authors_full'
p41
(lp42
(VMAJERAN
VWOJCIECH
tp43
a(VFRISO
VGIULIA
tp44
a(VASAKURA
VYUKARI
tp45
a(VQU
VXIAN
tp46
a(VHUANG
VMINGSHU
tp47
a(VPONNALA
VLALIT
tp48
a(VWATKINS
VKENNETH P
tp49
a(VBARKAN
VALICE
tp50
a(VVAN WIJK
VKLAAS J
tp51
asS'PG'
p52
I34
sS'PD'
p53
VJAN
p54
sS'pageStart'
p55
I156
sS'issue'
p56
I1
sS'journal'
p57
VPLANT PHYSIOLOGY
p58
sS'volume'
p59
V158
p60
sS'doi'
p61
V10.1104/pp.111.188474
p62
sS'emailAddress'
p63
Vkv35@cornell.edu
p64
sS'authorAddress'
p65
(lp66
V[Majeran, Wojciech; Friso, Giulia; Asakura, Yukari; Qu, Xian; Huang, Mingshu; van Wijk, Klaas J.] Cornell Univ, Dept Plant Biol, Ithaca, NY 14853 USA.
p67
aV[Ponnala, Lalit] Cornell Univ, Computat Biol Serv Unit, Ithaca, NY 14853 USA.
p68
aV[Watkins, Kenneth P.; Barkan, Alice] Univ Oregon, Inst Mol Biol, Eugene, OR 97403 USA.
p69
asS'publisherAddress'
p70
V15501 MONONA DRIVE, ROCKVILLE, MD 20855 USA
p71
sS'ER'
p72
V
sS'publisher'
p73
VAMER SOC PLANT BIOLOGISTS
p74
sS'authorKeywords'
p75
(lp76
VFERREDOXIN-SULFITE REDUCTASE
p77
aVSIGNAL RECOGNITION PARTICLE
p78
aVTHYLAKOID MEMBRANE-PROTEIN
p79
aVDNA-COMPACTING PROTEIN
p80
aVRNA-BINDING DOMAIN
p81
aVDEAD-BOX PROTEINS
p82
aVGROUP-II INTRONS
p83
aVARABIDOPSIS-THALIANA
p84
aVGENE-EXPRESSION
p85
aVBUNDLE-SHEATH
p86
asS'language'
p87
VEnglish
p88
sS'wosid'
p89
VWOS:000298662500017
p90
sS'citationCount'
p91
I161
sS'authors_init'
p92
(lp93
(VMAJERAN
VW
tp94
a(VFRISO
VG
tp95
a(VASAKURA
VY
tp96
a(VQU
VX
tp97
a(VHUANG
VM S
tp98
a(VPONNALA
VL
tp99
a(VWATKINS
VK P
tp100
a(VBARKAN
VA
tp101
a(VVAN WIJK
VK J
tp102
asS'citedReferences'
p103
(lp104
g1
(g2
g3
NtRp105
(dp106
g61
V10.1007/s11103-008-9291-y
p107
sg57
VPLANT MOL BIOL
p108
sg59
V66
p109
sg92
(lp110
(VALBRECHT
VV
tp111
asg21
I2008
sg55
VLANT
p112
sbag1
(g2
g3
NtRp113
(dp114
g61
V10.1016/S0968-0004(99)01537-6
p115
sg57
VTRENDS BIOCHEM SCI
p116
sg59
V25
p117
sg92
(lp118
(VARAVIND
VL
tp119
asg21
I2000
sg55
V112
p120
sbag1
(g2
g3
NtRp121
(dp122
g61
V10.1105/tpc.109.071001
p123
sg57
VPLANT CELL
p124
sg59
V22
p125
sg92
(lp126
(VARSOVA
VB
tp127
asg21
I2010
sg55
VLANT
p128
sbag1
(g2
g3
NtRp129
(dp130
g61
V10.1104/pp.106.088096
p131
sg57
VPLANT PHYSIOL
p132
sg59
V142
p133
sg92
(lp134
(VASAKURA
VY
tp135
asg21
I2006
sg55
VLANT
p136
sbag1
(g2
g3
NtRp137
(dp138
g61
V10.1073/pnas.1103442108
p139
sg57
VP NATL ACAD SCI USA
p140
sg59
V108
p141
sg92
(lp142
(VBABIYCHUK
VE
tp143
asg21
I2011
sg55
V6674
p144
sbag1
(g2
g3
NtRp145
(dp146
g61
Nsg57
VRNA
p147
sg59
V7
sg92
(lp148
(VBAGINSKY
VS
tp149
asg21
I2001
sg55
V1464
p150
sbag1
(g2
g3
NtRp151
(dp152
g61
V10.1104/pp.60.4.640
p153
sg57
VPLANT PHYSIOL
p154
sg59
V60
p155
sg92
(lp156
(VBAKER
VN R
tp157
asg21
I1977
sg55
VLANT
p158
sbag1
(g2
g3
NtRp159
(dp160
g61
V10.1007/s00216-007-1486-6
p161
sg57
VANAL BIOANAL CHEM
p162
sg59
V389
p163
sg92
(lp164
(VBANTSCHEFF
VM
tp165
asg21
I2007
sg55
V1017
p166
sbag1
(g2
g3
NtRp167
(dp168
g61
V10.1104/pp.110.171231
p169
sg57
VPLANT PHYSIOL
p170
sg59
V155
p171
sg92
(lp172
(VBARKAN
VA
tp173
asg21
I2011
sg55
VLANT
p174
sbag1
(g2
g3
NtRp175
(dp176
g61
V10.1023/A:1022557825768
p177
sg57
VPLANT MOL BIOL
p178
sg59
V51
p179
sg92
(lp180
(VBISANZ
VC
tp181
asg21
I2003
sg55
VLANT
p182
sbag1
(g2
g3
NtRp183
(dp184
g61
V10.1007/s11103-008-9436-z
p185
sg57
VPLANT MOL BIOL
p186
sg59
V69
p187
sg92
(lp188
(VBOLLENBACH
VT J
tp189
asg21
I2009
sg55
VLANT
p190
sbag1
(g2
g3
NtRp191
(dp192
g61
V10.1093/embo-reports/kvf150
p193
sg57
VEMBO REP
p194
sg59
V3
sg92
(lp195
(VBORDO
VD
tp196
asg21
I2002
sg55
V741
p197
sbag1
(g2
g3
NtRp198
(dp199
g61
V10.4161/psb.5.1.10294
p200
sg57
VPlant Signal Behav
p201
sg59
V5
sg92
(lp202
(VBRA\u0308UTIGAM
VKATHARINA
tp203
asg21
I2010
sg55
Vlant
p204
sbag1
(g2
g3
NtRp205
(dp206
g61
Nsg57
VPLANT CELL
p207
sg59
V11
p208
sg92
(lp209
(VBRUTNELL
VT P
tp210
asg21
I1999
sg55
VLANT
p211
sbag1
(g2
g3
NtRp212
(dp213
g61
V10.1104/pp.110.168120
p214
sg57
VPLANT PHYSIOL
p215
sg59
V155
p216
sg92
(lp217
(VBRYANT
VN
tp218
asg21
I2011
sg55
VLANT
p219
sbag1
(g2
g3
NtRp220
(dp221
g61
V10.1126/science.1184953
p222
sg57
VSCIENCE
p223
sg59
V328
p224
sg92
(lp225
(VBURMANN
VB M
tp226
asg21
I2010
sg55
V501
p227
sbag1
(g2
g3
NtRp228
(dp229
g61
V10.1016/j.cmet.2011.04.002
p230
sg57
VCELL METAB
p231
sg59
V13
p232
sg92
(lp233
(VCAMARA
VY
tp234
asg21
I2011
sg55
V527
p235
sbag1
(g2
g3
NtRp236
(dp237
g61
V10.1023/A:1006135615924
p238
sg57
VPLANT MOL BIOL
p239
sg59
V39
p240
sg92
(lp241
(VCANNON
VG C
tp242
asg21
I1999
sg55
VLANT
p243
sbag1
(g2
g3
NtRp244
(dp245
g61
Nsg57
VEMBO J
p246
sg59
V15
p247
sg92
(lp248
(VCHATTERJEE
VM
tp249
asg21
I1996
sg55
V4194
p250
sbag1
(g2
g3
NtRp251
(dp252
g61
V10.1016/j.jplph.2011.04.001
p253
sg57
VJ PLANT PHYSIOL
p254
sg59
V168
p255
sg92
(lp256
(VCHEN
VK M
tp257
asg21
I2011
sg55
V1780
p258
sbag1
(g2
g3
NtRp259
(dp260
g61
V10.1186/1471-2229-10-43
p261
sg57
VBMC PLANT BIOL
p262
sg59
V10
p263
sg92
(lp264
(VCHEN
VK M
tp265
asg21
I2010
sg55
Nsbag1
(g2
g3
NtRp266
(dp267
g61
V10.1023/A:1015500431421
p268
sg57
VPLANT MOL BIOL
p269
sg59
V49
p270
sg92
(lp271
(VCHI-HAM
VC L
tp272
asg21
I2002
sg55
VLANT
p273
sbag1
(g2
g3
NtRp274
(dp275
g61
V10.1104/pp.110.161224
p276
sg57
VPLANT PHYSIOL
p277
sg59
V154
p278
sg92
(lp279
(VCHIU
VC C
tp280
asg21
I2010
sg55
VLANT
p281
sbag1
(g2
g3
NtRp282
(dp283
g61
V10.1080/15216540701206859
p284
sg57
VIUBMB LIFE
p285
sg59
V59
p286
sg92
(lp287
(VCIPOLLONE
VR
tp288
asg21
I2007
sg55
V51
p289
sbag1
(g2
g3
NtRp290
(dp291
g61
V10.1111/j.1365-2958.2010.07292.x
p292
sg57
VMOL MICROBIOL
p293
sg59
V77
p294
sg92
(lp295
(VCOSGRIFF
VS
tp296
asg21
I2010
sg55
V1289
p297
sbag1
(g2
g3
NtRp298
(dp299
g61
V10.1016/j.tibs.2003.10.007
p300
sg57
VTRENDS BIOCHEM SCI
p301
sg59
V28
p302
sg92
(lp303
(VD'ANDREA
VL D
tp304
asg21
I2003
sg55
V655
p305
sbag1
(g2
g3
NtRp306
(dp307
g61
V10.1007/4735_2007_0231
p308
sg57
VV19
p309
sg59
V19
p310
sg92
(lp311
(VDAY
VANIL
tp312
asg21
I2007
sg55
V65
p313
sbag1
(g2
g3
NtRp314
(dp315
g61
V10.1038/nrmicro2261
p316
sg57
VNAT REV MICROBIOL
p317
sg59
V8
sg92
(lp318
(VDILLON
VS C
tp319
asg21
I2010
sg55
V185
p320
sbag1
(g2
g3
NtRp321
(dp322
g61
V10.1038/nbt.1661
p323
sg57
VNAT BIOTECHNOL
p324
sg59
V28
p325
sg92
(lp326
(VDOMON
VB
tp327
asg21
I2010
sg55
V710
p328
sbag1
(g2
g3
NtRp329
(dp330
g61
V10.1021/pr700624e
p331
sg57
VJ PROTEOME RES
p332
sg59
V7
sg92
(lp333
(VDONG
VM
tp334
asg21
I2008
sg55
V1836
p335
sbag1
(g2
g3
NtRp336
(dp337
g61
V10.1016/S0959-437X(98)80033-6
p338
sg57
VCURR OPIN GENET DEV
p339
sg59
V8
sg92
(lp340
(VDOUGLAS
VS E
tp341
asg21
I1998
sg55
V655
p342
sbag1
(g2
g3
NtRp343
(dp344
g61
V10.1073/pnas.95.25.14863
p345
sg57
VP NATL ACAD SCI USA
p346
sg59
V95
p347
sg92
(lp348
(VEISEN
VM B
tp349
asg21
I1998
sg55
V14863
p350
sbag1
(g2
g3
NtRp351
(dp352
g61
V10.1038/nature08669
p353
sg57
VNATURE
p354
sg59
V463
p355
sg92
(lp356
(VEPSHTEIN
VV
tp357
asg21
I2010
sg55
V245
p358
sbag1
(g2
g3
NtRp359
(dp360
g61
V10.1093/nar/gkp985
p361
sg57
VNUCLEIC ACIDS RES
p362
sg59
V38
p363
sg92
(lp364
(VFINN
VR D
tp365
asg21
I2010
sg55
VD211
p366
sbag1
(g2
g3
NtRp367
(dp368
g61
V10.1105/tpc.108.058768
p369
sg57
VPLANT CELL
p370
sg59
V20
p371
sg92
(lp372
(VFLORES-PEREZ
VU
tp373
asg21
I2008
sg55
VLANT
p374
sbag1
(g2
g3
NtRp375
(dp376
g61
Nsg57
VJ BIOL CHEM
p377
sg59
V268
p378
sg92
(lp379
(VFRANKLIN
VA E
tp380
asg21
I1993
sg55
V22175
p381
sbag1
(g2
g3
NtRp382
(dp383
g61
V10.1104/pp.109.152694
p384
sg57
VPLANT PHYSIOL
p385
sg59
V152
p386
sg92
(lp387
(VFRISO
VG
tp388
asg21
I2010
sg55
VLANT
p389
sbag1
(g2
g3
NtRp390
(dp391
g61
V10.1111/j.1365-313X.2007.03379.x
p392
sg57
VPLANT J
p393
sg59
V53
p394
sg92
(lp395
(VGARCIA
VM
tp396
asg21
I2008
sg55
VLANT
p397
sbag1
(g2
g3
NtRp398
(dp399
g61
V10.1111/j.1365-313X.2009.03905.x
p400
sg57
VPLANT J
p401
sg59
V59
p402
sg92
(lp403
(VGLYNN
VJ M
tp404
asg21
I2009
sg55
VLANT
p405
sbag1
(g2
g3
NtRp406
(dp407
g61
V10.1111/j.1365-2958.2004.04289.x
p408
sg57
VMOL MICROBIOL
p409
sg59
V54
p410
sg92
(lp411
(VGOWRISHANKAR
VJ
tp412
asg21
I2004
sg55
V598
p413
sbag1
(g2
g3
NtRp414
(dp415
g61
V10.1016/S0959-437X(99)00030-1
p416
sg57
VCURR OPIN GENET DEV
p417
sg59
V9
sg92
(lp418
(VGRAY
VM W
tp419
asg21
I1999
sg55
V678
p420
sbag1
(g2
g3
NtRp421
(dp422
g61
V10.1074/jbc.M109.008342
p423
sg57
VJ BIOL CHEM
p424
sg59
V284
p425
sg92
(lp426
(VGUTMAN
VB L
tp427
asg21
I2009
sg55
V17006
p428
sbag1
(g2
g3
NtRp429
(dp430
g61
V10.1021/bi00659a016
p431
sg57
VBIOCHEMISTRY
p432
sg59
V15
p433
sg92
(lp434
(VHALLICK
VR B
tp435
asg21
I1976
sg55
V3039
p436
sbag1
(g2
g3
NtRp437
(dp438
g61
V10.1016/j.cub.2005.11.044
p439
sg57
VCURR BIOL
p440
sg59
V16
p441
sg92
(lp442
(VHASWELL
VE S
tp443
asg21
I2006
sg55
V1
sbag1
(g2
g3
NtRp444
(dp445
g61
V10.1515/BC.2009.135
p446
sg57
VBIOL CHEM
p447
sg59
V390
p448
sg92
(lp449
(VHILBERT
VM
tp450
asg21
I2009
sg55
V1237
p451
sbag1
(g2
g3
NtRp452
(dp453
g61
V10.1104/pp.108.131300
p454
sg57
VPLANT PHYSIOL
p455
sg59
V149
p456
sg92
(lp457
(VHUANG
VS
tp458
asg21
I2009
sg55
VLANT
p459
sbag1
(g2
g3
NtRp460
(dp461
g61
V10.1093/nar/gkg693
p462
sg57
VNUCLEIC ACIDS RES
p463
sg59
V31
p464
sg92
(lp465
(VJEONG
VS Y
tp466
asg21
I2003
sg55
V5175
p467
sbag1
(g2
g3
NtRp468
(dp469
g61
V10.1186/1471-2229-10-57
p470
sg57
VBMC PLANT BIOL
p471
sg59
V10
p472
sg92
(lp473
(VKABEYA
VY
tp474
asg21
I2010
sg55
Nsbag1
(g2
g3
NtRp475
(dp476
g61
V10.1007/s11103-009-9593-8
p477
sg57
VPLANT MOL BIOL
p478
sg59
V72
p479
sg92
(lp480
(VKANG
VY W
tp481
asg21
I2010
sg55
VLANT
p482
sbag1
(g2
g3
NtRp483
(dp484
g61
V10.1093/mp/ssp083
p485
sg57
VMOL PLANT
p486
sg59
V2
sg92
(lp487
(VKARCHER
VD
tp488
asg21
I2009
sg55
V1223
p489
sbag1
(g2
g3
NtRp490
(dp491
g61
V10.1016/S1937-6448(10)80004-8
p492
sg57
VINT REV CEL MOL BIO
p493
sg59
V280
p494
sg92
(lp495
(VKATO
VY
tp496
asg21
I2010
sg55
V185
p497
sbag1
(g2
g3
NtRp498
(dp499
g61
V10.1016/j.febslet.2005.07.061
p500
sg57
VFEBS LETT
p501
sg59
V579
p502
sg92
(lp503
(VKHROUCHTCHOVA
VA
tp504
asg21
I2005
sg55
V4808
p505
sbag1
(g2
g3
NtRp506
(dp507
g61
V10.1105/tpc.002717
p508
sg57
VPLANT CELL
p509
sg59
V14
p510
sg92
(lp511
(VKOBAYASHI
VT
tp512
asg21
I2002
sg55
VLANT
p513
sbag1
(g2
g3
NtRp514
(dp515
g61
V10.1034/j.1399-3054.2000.100211.x
p516
sg57
VPHYSIOL PLANTARUM
p517
sg59
V109
p518
sg92
(lp519
(VKRAUSE
VK
tp520
asg21
I2000
sg55
VHYSIOL
p521
sbag1
(g2
g3
NtRp522
(dp523
g61
V10.1073/pnas.0812503106
p524
sg57
VP NATL ACAD SCI USA
p525
sg59
V106
p526
sg92
(lp527
(VKROEGER
VT S
tp528
asg21
I2009
sg55
V4537
p529
sbag1
(g2
g3
NtRp530
(dp531
g61
V10.1002/jemt.1070270304
p532
sg57
VMICROSC RES TECHNIQ
p533
sg59
V27
p534
sg92
(lp535
(VKUROIWA
VT
tp536
asg21
I1994
sg55
V220
p537
sbag1
(g2
g3
NtRp538
(dp539
g61
V10.1016/S0074-7696(08)60496-9
p540
sg57
VINT REV CYTOL
p541
sg59
V128
p542
sg92
(lp543
(VKUROIWA
VT
tp544
asg21
I1991
sg55
V1
sbag1
(g2
g3
NtRp545
(dp546
g61
V10.1016/0014-4827(73)90079-7
p547
sg57
VEXP CELL RES
p548
sg59
V78
p549
sg92
(lp550
(VKUROIWA
VT
tp551
asg21
I1973
sg55
V351
p552
sbag1
(g2
g3
NtRp553
(dp554
g61
V10.1038/298481a0
p555
sg57
VNATURE
p556
sg59
V298
p557
sg92
(lp558
(VKUROIWA
VT
tp559
asg21
I1982
sg55
V481
p560
sbag1
(g2
g3
NtRp561
(dp562
g61
Nsg57
VJ CELL SCI
p563
sg59
V101
p564
sg92
(lp565
(VKUROIWA
VT
tp566
asg21
I1992
sg55
V483
p567
sbag1
(g2
g3
NtRp568
(dp569
g61
V10.1104/pp.52.3.240
p570
sg57
VPLANT PHYSIOL
p571
sg59
V52
p572
sg92
(lp573
(VLEECH
VR M
tp574
asg21
I1973
sg55
VLANT
p575
sbag1
(g2
g3
NtRp576
(dp577
g61
V10.1074/jbc.M100506200
p578
sg57
VJ BIOL CHEM
p579
sg59
V276
p580
sg92
(lp581
(VLENSCH
VM
tp582
asg21
I2001
sg55
V33645
p583
sbag1
(g2
g3
NtRp584
(dp585
g61
V10.1074/jbc.M803869200
p586
sg57
VJ BIOL CHEM
p587
sg59
V283
p588
sg92
(lp589
(VLEZHNEVA
VL
tp590
asg21
I2008
sg55
V24608
p591
sbag1
(g2
g3
NtRp592
(dp593
g61
V10.1074/jbc.273.28.17539
p594
sg57
VJ BIOL CHEM
p595
sg59
V273
p596
sg92
(lp597
(VLI
VQ S
tp598
asg21
I1998
sg55
V17539
p599
sbag1
(g2
g3
NtRp600
(dp601
g61
V10.1016/j.jplph.2011.01.005
p602
sg57
VJ PLANT PHYSIOL
p603
sg59
V168
p604
sg92
(lp605
(VLIERE
VK
tp606
asg21
I2011
sg55
V1345
p607
sbag1
(g2
g3
NtRp608
(dp609
g61
V10.1093/nar/gkl468
p610
sg57
VNUCLEIC ACIDS RES
p611
sg59
V34
p612
sg92
(lp613
(VLINDER
VP
tp614
asg21
I2006
sg55
V4168
p615
sbag1
(g2
g3
NtRp616
(dp617
g61
V10.1021/ac0498563
p618
sg57
VANAL CHEM
p619
sg59
V76
p620
sg92
(lp621
(VLIU
VH B
tp622
asg21
I2004
sg55
V4193
p623
sbag1
(g2
g3
NtRp624
(dp625
g61
V10.1104/pp.110.164111
p626
sg57
VPLANT PHYSIOL
p627
sg59
V154
p628
sg92
(lp629
(VLIU
VX Y
tp630
asg21
I2010
sg55
VLANT
p631
sbag1
(g2
g3
NtRp632
(dp633
g61
V10.1111/j.1744-7909.2010.00980.x
p634
sg57
VJ INTEGR PLANT BIOL
p635
sg59
V52
p636
sg92
(lp637
(VLIU
VX Y
tp638
asg21
I2010
sg55
V750
p639
sbag1
(g2
g3
NtRp640
(dp641
g61
V10.1016/0092-8674(95)90014-4
p642
sg57
VCELL
p643
sg59
V81
p644
sg92
(lp645
(VLOCKSHON
VD
tp646
asg21
I1995
sg55
V947
p647
sbag1
(g2
g3
NtRp648
(dp649
g61
V10.1146/annurev.cellbio.24.110707.175408
p650
sg57
VANNU REV CELL DEV BI
p651
sg59
V24
p652
sg92
(lp653
(VLONG
VT A
tp654
asg21
I2008
sg55
V81
p655
sbag1
(g2
g3
NtRp656
(dp657
g61
V10.1105/tpc.107.050526
p658
sg57
VPLANT CELL
p659
sg59
V19
p660
sg92
(lp661
(VMA
VJ F
tp662
asg21
I2007
sg55
VLANT
p663
sbag1
(g2
g3
NtRp664
(dp665
g61
V10.1073/pnas.0510693103
p666
sg57
VP NATL ACAD SCI USA
p667
sg59
V103
p668
sg92
(lp669
(VMACHIDA
VM
tp670
asg21
I2006
sg55
V6753
p671
sbag1
(g2
g3
NtRp672
(dp673
g61
V10.1105/tpc.105.035519
p674
sg57
VPLANT CELL
p675
sg59
V17
p676
sg92
(lp677
(VMAJERAN
VW
tp678
asg21
I2005
sg55
VLANT
p679
sbag1
(g2
g3
NtRp680
(dp681
g61
V10.1105/tpc.110.079764
p682
sg57
VPLANT CELL
p683
sg59
V22
p684
sg92
(lp685
(VMAJERAN
VW
tp686
asg21
I2010
sg55
VLANT
p687
sbag1
(g2
g3
NtRp688
(dp689
g61
V10.1074/mcp.M800016-MCP200
p690
sg57
VMOL CELL PROTEOMICS
p691
sg59
V7
sg92
(lp692
(VMAJERAN
VW
tp693
asg21
I2008
sg55
V1609
p694
sbag1
(g2
g3
NtRp695
(dp696
g61
V10.1073/pnas.0800788105
p697
sg57
VP NATL ACAD SCI USA
p698
sg59
V105
p699
sg92
(lp700
(VMANN
VM
tp701
asg21
I2008
sg55
V18132
p702
sbag1
(g2
g3
NtRp703
(dp704
g61
V10.1073/pnas.0901710106
p705
sg57
VP NATL ACAD SCI USA
p706
sg59
V106
p707
sg92
(lp708
(VMARECHAL
VA
tp709
asg21
I2009
sg55
V14693
p710
sbag1
(g2
g3
NtRp711
(dp712
g61
Nsg57
VPLANT CELL
p713
sg59
V8
sg92
(lp714
(VMEIER
VI
tp715
asg21
I1996
sg55
VLANT
p716
sbag1
(g2
g3
NtRp717
(dp718
g61
V10.1007/s00425-010-1183-0
p719
sg57
VPLANTA
p720
sg59
V232
p721
sg92
(lp722
(VMELONEK
VJ
tp723
asg21
I2010
sg55
VLANTA
p724
sbag1
(g2
g3
NtRp725
(dp726
g61
V10.1111/j.1365-313X.2009.03965.x
p727
sg57
VPLANT J
p728
sg59
V60
p729
sg92
(lp730
(VMESKAUSKIENE
VR
tp731
asg21
I2009
sg55
VLANT
p732
sbag1
(g2
g3
NtRp733
(dp734
g61
V10.1073/pnas.221252798
p735
sg57
VP NATL ACAD SCI USA
p736
sg59
V98
p737
sg92
(lp738
(VMESKAUSKIENE
VR
tp739
asg21
I2001
sg55
V12826
p740
sbag1
(g2
g3
NtRp741
(dp742
g61
V10.1007/BF01293188
p743
sg57
VPROTOPLASMA
p744
sg59
V133
p745
sg92
(lp746
(VMIYAMURA
VS
tp747
asg21
I1986
sg55
VROTOPLASMA
p748
sbag1
(g2
g3
NtRp749
(dp750
g61
V10.1016/j.bbrc.2005.06.052
p751
sg57
VBIOCHEM BIOPH RES CO
p752
sg59
V334
p753
sg92
(lp754
(VMORI
VY
tp755
asg21
I2005
sg55
V43
p756
sbag1
(g2
g3
NtRp757
(dp758
g61
V10.1105/tpc.108.061341
p759
sg57
VPLANT CELL
p760
sg59
V20
p761
sg92
(lp762
(VMYOUGA
VF
tp763
asg21
I2008
sg55
VLANT
p764
sbag1
(g2
g3
NtRp765
(dp766
g61
V10.1007/s004250050606
p767
sg57
VPLANTA
p768
sg59
V209
p769
sg92
(lp770
(VNAGATA
VN
tp771
asg21
I1999
sg55
VLANTA
p772
sbag1
(g2
g3
NtRp773
(dp774
g61
V10.2307/2446146
p775
sg57
VAM J BOT
p776
sg59
V84
p777
sg92
(lp778
(VNEROZZI
VA M
tp779
asg21
I1997
sg55
V1028
p780
sbag1
(g2
g3
NtRp781
(dp782
g61
V10.1093/emboj/18.3.733
p783
sg57
VEMBO J
p784
sg59
V18
p785
sg92
(lp786
(VNILSSON
VR
tp787
asg21
I1999
sg55
V733
p788
sbag1
(g2
g3
NtRp789
(dp790
g61
V10.1111/j.1365-313X.2010.04276.x
p791
sg57
VPLANT J
p792
sg59
V63
p793
sg92
(lp794
(VNISHIMURA
VK
tp795
asg21
I2010
sg55
VLANT
p796
sbag1
(g2
g3
NtRp797
(dp798
g61
V10.1074/mcp.500084-MCP200
p799
sg57
VMOL CELL PROTEOMICS
p800
sg59
V4
sg92
(lp801
(VOLD
VW M
tp802
asg21
I2005
sg55
V1487
p803
sbag1
(g2
g3
NtRp804
(dp805
g61
V10.1105/tpc.111.086454
p806
sg57
VPLANT CELL
p807
sg59
V23
p808
sg92
(lp809
(VOLINARES
VP D B
tp810
asg21
I2011
sg55
VLANT
p811
sbag1
(g2
g3
NtRp812
(dp813
g61
V10.1074/mcp.M000038-MCP201
p814
sg57
VMOL CELL PROTEOMICS
p815
sg59
V9
sg92
(lp816
(VOLINARES
VP D B
tp817
asg21
I2010
sg55
V1594
p818
sbag1
(g2
g3
NtRp819
(dp820
g61
V10.1093/molbev/msn057
p821
sg57
VMOL BIOL EVOL
p822
sg59
V25
p823
sg92
(lp824
(VO'TOOLE
VN
tp825
asg21
I2008
sg55
V1120
p826
sbag1
(g2
g3
NtRp827
(dp828
g61
V10.1104/pp.111.173849
p829
sg57
VPLANT PHYSIOL
p830
sg59
V156
p831
sg92
(lp832
(VPARENT
VJ S
tp833
asg21
I2011
sg55
VLANT
p834
sbag1
(g2
g3
NtRp835
(dp836
g61
V10.1016/j.bbabio.2009.01.018
p837
sg57
VBBA
p838
sg59
V1787
p839
sg92
(lp840
(VPELLEGRINI
VM
tp841
asg21
I2009
sg55
V294
p842
sbag1
(g2
g3
NtRp843
(dp844
g61
V10.1105/tpc.105.037689
p845
sg57
VPLANT CELL
p846
sg59
V18
p847
sg92
(lp848
(VPENG
VL W
tp849
asg21
I2006
sg55
VLANT
p850
sbag1
(g2
g3
NtRp851
(dp852
g61
V10.1105/tpc.105.036392
p853
sg57
VPLANT CELL
p854
sg59
V18
p855
sg92
(lp856
(VPFALZ
VJ
tp857
asg21
I2006
sg55
VLANT
p858
sbag1
(g2
g3
NtRp859
(dp860
g61
V10.1021/pr049791k
p861
sg57
VJ PROTEOME RES
p862
sg59
V4
sg92
(lp863
(VPHINNEY
VB S
tp864
asg21
I2005
sg55
V497
p865
sbag1
(g2
g3
NtRp866
(dp867
g61
V10.1038/msb.2009.93
p868
sg57
VMOL SYST BIOL
p869
sg59
V5
sg92
(lp870
(VPONTEN
VF
tp871
asg21
I2009
sg55
Nsbag1
(g2
g3
NtRp872
(dp873
g61
V10.1093/nar/gkn492
p874
sg57
VNUCLEIC ACIDS RES
p875
sg59
V36
p876
sg92
(lp877
(VPRIKRYL
VJ
tp878
asg21
I2008
sg55
V5152
p879
sbag1
(g2
g3
NtRp880
(dp881
g61
V10.1126/science.1184939
p882
sg57
VSCIENCE
p883
sg59
V328
p884
sg92
(lp885
(VPROSHKIN
VS
tp886
asg21
I2010
sg55
V504
p887
sbag1
(g2
g3
NtRp888
(dp889
g61
V10.1111/j.1365-313X.2011.04726.x
p890
sg57
VPLANT J
p891
sg59
V68
p892
sg92
(lp893
(VQUESADA
VV
tp894
asg21
I2011
sg55
VLANT
p895
sbag1
(g2
g3
NtRp896
(dp897
g61
V10.1074/mcp.M900059-MCP200
p898
sg57
VMOL CELL PROTEOMICS
p899
sg59
V8
sg92
(lp900
(VQUINTANA
VL F
tp901
asg21
I2009
sg55
V1658
p902
sbag1
(g2
g3
NtRp903
(dp904
g61
V10.1016/j.ejcb.2010.06.020
p905
sg57
VEUR J CELL BIOL
p906
sg59
V89
p907
sg92
(lp908
(VRICHTER
VC V
tp909
asg21
I2010
sg55
V965
p910
sbag1
(g2
g3
NtRp911
(dp912
g61
V10.1016/j.bbabio.2009.01.013
p913
sg57
VBBA
p914
sg59
V1787
p915
sg92
(lp916
(VROBERTI
VM
tp917
asg21
I2009
sg55
V303
p918
sbag1
(g2
g3
NtRp919
(dp920
g61
Nsg57
VMICROBIOL REV
p921
sg59
V58
p922
sg92
(lp923
(VROBINOW
VC
tp924
asg21
I1994
sg55
V211
p925
sbag1
(g2
g3
NtRp926
(dp927
g61
V10.1038/nrm1335
p928
sg57
VNAT REV MOL CELL BIO
p929
sg59
V5
sg92
(lp930
(VROCAK
VS
tp931
asg21
I2004
sg55
V232
p932
sbag1
(g2
g3
NtRp933
(dp934
g61
V10.1016/j.bbabio.2010.11.010
p935
sg57
VBBA
p936
sg59
V1807
p937
sg92
(lp938
(VROCHAIX
VJ D
tp939
asg21
I2011
sg55
V375
p940
sbag1
(g2
g3
NtRp941
(dp942
g61
V10.1016/j.jplph.2011.01.012
p943
sg57
VJ PLANT PHYSIOL
p944
sg59
V168
p945
sg92
(lp946
(VRUWE
VH
tp947
asg21
I2011
sg55
V1361
p948
sbag1
(g2
g3
NtRp949
(dp950
g61
Nsg57
VPLANT CELL PHYSIOL
p951
sg59
V32
p952
sg92
(lp953
(VSAKAI
VA
tp954
asg21
I1991
sg55
VLANT
p955
sbag1
(g2
g3
NtRp956
(dp957
g61
V10.1016/S0074-7696(04)38002-2
p958
sg57
VINT REV CYTOL
p959
sg59
V238
p960
sg92
(lp961
(VSAKAI
VA
tp962
asg21
I2004
sg55
V59
p963
sbag1
(g2
g3
NtRp964
(dp965
g61
V10.1016/S0168-9452(98)00207-6
p966
sg57
VPLANT SCI
p967
sg59
V140
p968
sg92
(lp969
(VSAKAI
VA
tp970
asg21
I1999
sg55
VLANT
p971
sbag1
(g2
g3
NtRp972
(dp973
g61
V10.1007/s00425-005-0168-x
p974
sg57
VPLANTA
p975
sg59
V223
p976
sg92
(lp977
(VSAMANIEGO
VR
tp978
asg21
I2006
sg55
VLANTA
p979
sbag1
(g2
g3
NtRp980
(dp981
g61
V10.1021/pr700836q
p982
sg57
VJ PROTEOME RES
p983
sg59
V7
sg92
(lp984
(VSANDHU
VC
tp985
asg21
I2008
sg55
V1529
p986
sbag1
(g2
g3
NtRp987
(dp988
g61
V10.1007/BF01279480
p989
sg57
VPROTOPLASMA
p990
sg59
V203
p991
sg92
(lp992
(VSASAKI
VN
tp993
asg21
I1998
sg55
VROTOPLASMA
p994
sbag1
(g2
g3
NtRp995
(dp996
g61
Nsg57
VPLANT CELL
p997
sg59
V10
p998
sg92
(lp999
(VSATO
VN
tp1000
asg21
I1998
sg55
VLANT
p1001
sbag1
(g2
g3
NtRp1002
(dp1003
g61
V10.1016/S0074-7696(03)32006-6
p1004
sg57
VINT REV CYTOL
p1005
sg59
V232
p1006
sg92
(lp1007
(VSATO
VN
tp1008
asg21
I2003
sg55
V217
p1009
sbag1
(g2
g3
NtRp1010
(dp1011
g61
V10.1016/S0014-5793(00)02342-5
p1012
sg57
VFEBS LETT
p1013
sg59
V487
p1014
sg92
(lp1015
(VSATO
VN
tp1016
asg21
I2001
sg55
V347
p1017
sbag1
(g2
g3
NtRp1018
(dp1019
g61
V10.1016/S0300-9084(99)80119-9
p1020
sg57
VBIOCHIMIE
p1021
sg59
V81
p1022
sg92
(lp1023
(VSATO
VN
tp1024
asg21
I1999
sg55
V619
p1025
sbag1
(g2
g3
NtRp1026
(dp1027
g61
V10.1016/j.tplants.2008.10.001
p1028
sg57
VTRENDS PLANT SCI
p1029
sg59
V13
p1030
sg92
(lp1031
(VSCHMITZ-LINNEWEBER
VC
tp1032
asg21
I2008
sg55
V663
p1033
sbag1
(g2
g3
NtRp1034
(dp1035
g61
V10.1002/pmic.200900678
p1036
sg57
VPROTEOMICS
p1037
sg59
V10
p1038
sg92
(lp1039
(VSCHROTER
VY
tp1040
asg21
I2010
sg55
VROTEOMICS
p1041
sbag1
(g2
g3
NtRp1042
(dp1043
g61
V10.1105/tpc.106.042895
p1044
sg57
VPLANT CELL
p1045
sg59
V19
p1046
sg92
(lp1047
(VSCHULT
VK
tp1048
asg21
I2007
sg55
VLANT
p1049
sbag1
(g2
g3
NtRp1050
(dp1051
g61
V10.1016/j.ejcb.2010.06.016
p1052
sg57
VEUR J CELL BIOL
p1053
sg59
V89
p1054
sg92
(lp1055
(VSCHWEER
VJ
tp1056
asg21
I2010
sg55
V940
p1057
sbag1
(g2
g3
NtRp1058
(dp1059
g61
V10.1111/j.1742-4658.2007.05748.x
p1060
sg57
VFEBS J
p1061
sg59
V274
p1062
sg92
(lp1063
(VSEKINE
VK
tp1064
asg21
I2007
sg55
V2054
p1065
sbag1
(g2
g3
NtRp1066
(dp1067
g61
V10.1104/pp.68.3.731
p1068
sg57
VPLANT PHYSIOL
p1069
sg59
V68
p1070
sg92
(lp1071
(VSELLDEN
VG
tp1072
asg21
I1981
sg55
VLANT
p1073
sbag1
(g2
g3
NtRp1074
(dp1075
g61
V10.1146/annurev-biochem-062608-160432
p1076
sg57
VANNU REV BIOCHEM
p1077
sg59
V80
p1078
sg92
(lp1079
(VSHAJANI
VZ
tp1080
asg21
I2011
sg55
V501
p1081
sbag1
(g2
g3
NtRp1082
(dp1083
g61
V10.1021/ac950914h
p1084
sg57
VANAL CHEM
p1085
sg59
V68
p1086
sg92
(lp1087
(VSHEVCHENKO
VA
tp1088
asg21
I1996
sg55
V850
p1089
sbag1
(g2
g3
NtRp1090
(dp1091
g61
V10.1016/j.jmb.2006.07.066
p1092
sg57
VJ MOL BIOL
p1093
sg59
V362
p1094
sg92
(lp1095
(VSMITH
VC A
tp1096
asg21
I2006
sg55
V640
p1097
sbag1
(g2
g3
NtRp1098
(dp1099
g61
Nsg57
VProtoplasma
p1100
sg59
V160
p1101
sg92
(lp1102
(VSODMERGEN
VS K
tp1103
asg21
I1991
sg55
Vrotoplasma
p1104
sbag1
(g2
g3
NtRp1105
(dp1106
g61
V10.1007/s00294-002-0309-8
p1107
sg57
VCURR GENET
p1108
sg59
V41
p1109
sg92
(lp1110
(VSOKOLENKO
VA
tp1111
asg21
I2002
sg55
V291
p1112
sbag1
(g2
g3
NtRp1113
(dp1114
g61
V10.1093/mp/ssp007
p1115
sg57
VMOL PLANT
p1116
sg59
V2
sg92
(lp1117
(VSTEINER
VS
tp1118
asg21
I2009
sg55
V416
p1119
sbag1
(g2
g3
NtRp1120
(dp1121
g61
V10.1104/pp.111.184515
p1122
sg57
VPLANT PHYSIOL
p1123
sg59
V157
p1124
sg92
(lp1125
(VSTEINER
VS
tp1126
asg21
I2011
sg55
VLANT
p1127
sbag1
(g2
g3
NtRp1128
(dp1129
g61
V10.1146/annurev-arplant-042809-112242
p1130
sg57
VANNU REV PLANT BIOL
p1131
sg59
V61
p1132
sg92
(lp1133
(VSTERN
VD B
tp1134
asg21
I2010
sg55
V125
p1135
sbag1
(g2
g3
NtRp1136
(dp1137
g61
V10.1016/j.tplants.2004.04.001
p1138
sg57
VTRENDS PLANT SCI
p1139
sg59
V9
sg92
(lp1140
(VSTERN
VD B
tp1141
asg21
I2004
sg55
V293
p1142
sbag1
(g2
g3
NtRp1143
(dp1144
g61
V10.1093/nar/gkn654
p1145
sg57
VNUCLEIC ACIDS RES
p1146
sg59
V37
p1147
sg92
(lp1148
(VSUN
VQ
tp1149
asg21
I2009
sg55
VD969
p1150
sbag1
(g2
g3
NtRp1151
(dp1152
g61
V10.1111/j.1365-313X.2004.02195.x
p1153
sg57
VPLANT J
p1154
sg59
V40
p1155
sg92
(lp1156
(VSUZUKI
VJ Y
tp1157
asg21
I2004
sg55
VLANT
p1158
sbag1
(g2
g3
NtRp1159
(dp1160
g61
Nsg57
VJ CELL SCI
p1161
sg59
V103
p1162
sg92
(lp1163
(VSUZUKI
VT
tp1164
asg21
I1992
sg55
V831
p1165
sbag1
(g2
g3
NtRp1166
(dp1167
g61
V10.1016/j.bbagen.2009.07.020
p1168
sg57
VBBA
p1169
sg59
V1800
p1170
sg92
(lp1171
(VTAKANO
VH
tp1172
asg21
I2010
sg55
V144
p1173
sbag1
(g2
g3
NtRp1174
(dp1175
g61
V10.1007/s10265-005-0200-z
p1176
sg57
VJ PLANT RES
p1177
sg59
V118
p1178
sg92
(lp1179
(VTERASAWA
VK
tp1180
asg21
I2005
sg55
V111
p1181
sbag1
(g2
g3
NtRp1182
(dp1183
g61
V10.1093/pcp/pci070
p1184
sg57
VPLANT CELL PHYSIOL
p1185
sg59
V46
p1186
sg92
(lp1187
(VTERASAWA
VK
tp1188
asg21
I2005
sg55
VLANT
p1189
sbag1
(g2
g3
NtRp1190
(dp1191
g61
V10.1111/j.1365-313X.2004.02016.x
p1192
sg57
VPLANT J
p1193
sg59
V37
p1194
sg92
(lp1195
(VTHIMM
VO
tp1196
asg21
I2004
sg55
VLANT
p1197
sbag1
(g2
g3
NtRp1198
(dp1199
g61
Nsg57
VBIOCH BIOPH IN PRESS
p1200
sg59
Nsg92
(lp1201
(VTIKKANEN
VM
tp1202
asg21
I2011
sg55
Nsbag1
(g2
g3
NtRp1203
(dp1204
g61
V10.1017/S1355838201010445
p1205
sg57
VRNA
p1206
sg59
V7
sg92
(lp1207
(VTILL
VB
tp1208
asg21
I2001
sg55
V1227
p1209
sbag1
(g2
g3
NtRp1210
(dp1211
g61
V10.1073/pnas.0808529106
p1212
sg57
VP NATL ACAD SCI USA
p1213
sg59
V106
p1214
sg92
(lp1215
(VTILLICH
VM
tp1216
asg21
I2009
sg55
V6002
p1217
sbag1
(g2
g3
NtRp1218
(dp1219
g61
V10.1104/pp.104.045179
p1220
sg57
VPLANT PHYSIOL
p1221
sg59
V135
p1222
sg92
(lp1223
(VTZAFRIR
VI
tp1224
asg21
I2004
sg55
VLANT
p1225
sbag1
(g2
g3
NtRp1226
(dp1227
g61
V10.1111/j.1742-4658.2008.06335.x
p1228
sg57
VFEBS J
p1229
sg59
V275
p1230
sg92
(lp1231
(VVAINONEN
VJ P
tp1232
asg21
I2008
sg55
V1767
p1233
sbag1
(g2
g3
NtRp1234
(dp1235
g61
V10.1104/pp.111.172932
p1236
sg57
VPLANT PHYSIOL
p1237
sg59
V155
p1238
sg92
(lp1239
(VVAN
VWIJK K J
tp1240
asg21
I2011
sg55
VLANT
p1241
sbag1
(g2
g3
NtRp1242
(dp1243
g61
V10.1105/tpc.12.11.2129
p1244
sg57
VPLANT CELL
p1245
sg59
V12
p1246
sg92
(lp1247
(VWANG
VY C
tp1248
asg21
I2000
sg55
VLANT
p1249
sbag1
(g2
g3
NtRp1250
(dp1251
g61
V10.1105/tpc.111.084335
p1252
sg57
VPLANT CELL
p1253
sg59
V23
p1254
sg92
(lp1255
(VWATKINS
VK P
tp1256
asg21
I2011
sg55
VLANT
p1257
sbag1
(g2
g3
NtRp1258
(dp1259
g61
V10.1105/tpc.107.053736
p1260
sg57
VPLANT CELL
p1261
sg59
V19
p1262
sg92
(lp1263
(VWATKINS
VK P
tp1264
asg21
I2007
sg55
VLANT
p1265
sbag1
(g2
g3
NtRp1266
(dp1267
g61
V10.1016/j.jmb.2005.12.079
p1268
sg57
VJ MOL BIOL
p1269
sg59
V357
p1270
sg92
(lp1271
(VWEBER
VP
tp1272
asg21
I2006
sg55
V535
p1273
sbag1
(g2
g3
NtRp1274
(dp1275
g61
V10.1093/jxb/erp051
p1276
sg57
VJ EXP BOT
p1277
sg59
V60
p1278
sg92
(lp1279
(VWETZEL
VC M
tp1280
asg21
I2009
sg55
V1715
p1281
sbag1
(g2
g3
NtRp1282
(dp1283
g61
V10.1105/tpc.111.088112
p1284
sg57
VPLANT CELL
p1285
sg59
V23
p1286
sg92
(lp1287
(VWILSON
VM E
tp1288
asg21
I2011
sg55
VLANT
p1289
sbag1
(g2
g3
NtRp1290
(dp1291
g61
V10.1105/tpc.111.089136
p1292
sg57
VPLANT CELL
p1293
sg59
V23
p1294
sg92
(lp1295
(VXU
VY Z
tp1296
asg21
I2011
sg55
VLANT
p1297
sbag1
(g2
g3
NtRp1298
(dp1299
g61
V10.1016/j.cell.2010.05.018
p1300
sg57
VCELL
p1301
sg59
V141
p1302
sg92
(lp1303
(VYAKUBOVSKAYA
VE
tp1304
asg21
I2010
sg55
V982
p1305
sbag1
(g2
g3
NtRp1306
(dp1307
g61
V10.1046/j.1432-1033.2003.03359.x
p1308
sg57
VEUR J BIOCHEM
p1309
sg59
V270
p1310
sg92
(lp1311
(VYAMAGUCHI
VK
tp1312
asg21
I2003
sg55
V190
p1313
sbag1
(g2
g3
NtRp1314
(dp1315
g61
Nsg57
VPLANT CELL
p1316
sg59
V8
sg92
(lp1317
(VYANG
VJ J
tp1318
asg21
I1996
sg55
VLANT
p1319
sbag1
(g2
g3
NtRp1320
(dp1321
g61
V10.1105/tpc.107.054965
p1322
sg57
VPLANT CELL
p1323
sg59
V20
p1324
sg92
(lp1325
(VYU
VF
tp1326
asg21
I2008
sg55
VLANT
p1327
sbag1
(g2
g3
NtRp1328
(dp1329
g61
V10.1128/MCB.01989-06
p1330
sg57
VMOL CELL BIOL
p1331
sg59
V27
p1332
sg92
(lp1333
(VZHU
VJ H
tp1334
asg21
I2007
sg55
V5214
p1335
sbag1
(g2
g3
NtRp1336
(dp1337
g61
V10.1371/journal.pone.0001994
p1338
sg57
VPLOS ONE
p1339
sg59
V3
sg92
(lp1340
(VZYBAILOV
VB
tp1341
asg21
I2008
sg55
VLOS
p1342
sbag1
(g2
g3
NtRp1343
(dp1344
g61
V10.1021/ac050846r
p1345
sg57
VANAL CHEM
p1346
sg59
V77
p1347
sg92
(lp1348
(VZYBAILOV
VB
tp1349
asg21
I2005
sg55
V6218
p1350
sbasb.