ccopy_reg
_reconstructor
p1
(ctethne.classes.paper
Paper
p2
c__builtin__
object
p3
NtRp4
(dp5
S'publisherCity'
p6
VROCKVILLE
p7
sS'reprintAddress'
p8
VGalis, I (reprint author), Okayama Univ, Inst Plant Sci & Resources, 2-20-1 Kurashiki, Okayama 7100046, Japan.
p9
sS'WC'
p10
VPlant Sciences
p11
sS'GA'
p12
V194KY
p13
sS'FX'
p14
(lp15
VThis work was supported by the Max Planck Society and European Research
p16
aVCouncil advanced grant ClockworkGreen (grant no. 293926 to I.T.B.) and
p17
aVby the Vietnam Ministry of Agricultural and Rural Development and
p18
aVDeutscher Akademischer Austauschdienst (to S.T.D.).
p19
asS'abstract'
p20
VNicotiana attenuata plants can distinguish the damage caused by herbivore feeding from other types of damage by perceiving herbivore-associated elicitors, such as the fatty acid-amino acid conjugates (FACs) in oral secretions (OS) of Manduca sexta larvae, which are introduced into wounds during feeding. However, the transduction of FAC signals into downstream plant defense responses is still not well established. We identified a novel FAC-regulated protein in N. attenuata (NaHER1; for herbivore elicitor regulated) and show that it is an indispensable part of the OS signal transduction pathway. N. attenuata plants silenced in the expression of NaHER1 by RNA interference (irHER1) were unable to amplify their defenses beyond basal, wound-induced levels in response to OS elicitation. M. sexta larvae performed 2-fold better when reared on irHER1 plants, which released less volatile organic compounds (indirect defense) and had strongly reduced levels of several direct defense metabolites, including trypsin proteinase inhibitors, 17-hydroxygeranyllinallool diterpene glycosides, and caffeoylputrescine, after real and/or simulated herbivore attack. In parallel to impaired jasmonate signaling and metabolism, irHER1 plants were more drought sensitive and showed reduced levels of abscisic acid (ABA) in the leaves, suggesting that silencing of NaHER1 interfered with ABA metabolism. Because treatment of irHER1 plants with ABA results in both the accumulation of significantly more ABA catabolites and the complete restoration of normal wild-type levels of OS-induced defense metabolites, we conclude that NaHER1 acts as a natural suppressor of ABA catabolism after herbivore attack, which, in turn, activates the full defense profile and resistance against herbivores.
p21
sS'pageEnd'
p22
I2124
sS'date'
p23
I2013
sS'documentType'
p24
VArticle
p25
sS'subject'
p26
VPlant Sciences
p27
sS'isoSource'
p28
VPlant Physiol.
p29
sS'timesCited'
p30
(lp31
I1
aVZ9 1
p32
asS'funding'
p33
(lp34
(VMax Planck Society
Ntp35
a(VEuropean Research Council advanced grant ClockworkGreen
V293926
tp36
a(VVietnam Ministry of Agricultural and Rural Development
Ntp37
a(VDeutscher Akademischer Austauschdienst
Ntp38
asS'PT'
p39
VJ
sS'title'
p40
VThe Herbivore Elicitor-Regulated1 Gene Enhances Abscisic Acid Levels And Defenses Against Herbivores In Nicotiana Attenuata Plants
p41
sS'ISSN'
p42
(lp43
V0032-0889
p44
aVJ9 PLANT PHYSIOL
p45
asS'authors_full'
p46
(lp47
(VSON
VTRUONG
tp48
a(VBALDWIN
VIAN T
tp49
a(VGALIS
VIVAN
tp50
asS'PG'
p51
I19
sS'PD'
p52
VAUG
p53
sS'pageStart'
p54
I2106
sS'issue'
p55
I4
sS'RI'
p56
VBaldwin, Ian /K-1809-2013
p57
sS'journal'
p58
VPLANT PHYSIOLOGY
p59
sS'volume'
p60
V162
p61
sS'doi'
p62
V10.1104/pp.113.221150
p63
sS'emailAddress'
p64
Vbaldwin@ice.mpg.de; igalis@ice.mpg.de
p65
sS'authorAddress'
p66
V[Son Truong Dinh; Baldwin, Ian T.; Galis, Ivan] Max Planck Inst Chem Ecol, Dept Mol Ecol, D-07745 Jena, Germany.
p67
sS'publisherAddress'
p68
V15501 MONONA DRIVE, ROCKVILLE, MD 20855 USA
p69
sS'ER'
p70
V
sS'publisher'
p71
VAMER SOC PLANT BIOLOGISTS
p72
sS'authorKeywords'
p73
(lp74
VMANDUCA-SEXTA LEPIDOPTERA
p75
aV17-HYDROXYGERANYLLINALOOL DITERPENE GLYCOSIDES
p76
aVTRYPSIN PROTEINASE-INHIBITORS
p77
aVFEEDING SPODOPTERA-LITTORALIS
p78
aVGENERALIST INSECT HERBIVORES
p79
aVINDUCED ETHYLENE BURST
p80
aVLIMA-BEAN LEAVES
p81
aVJASMONIC ACID
p82
aVORAL SECRETIONS
p83
aVMOLECULAR-INTERACTIONS
p84
asS'language'
p85
VEnglish
p86
sS'wosid'
p87
VWOS:000322633400029
p88
sS'citationCount'
p89
I167
sS'authors_init'
p90
(lp91
(VDINH
VS T
tp92
a(VBALDWIN
VI T
tp93
a(VGALIS
VI
tp94
asS'citedReferences'
p95
(lp96
g1
(g2
g3
NtRp97
(dp98
g62
V10.1105/tpc.006130
p99
sg58
VPLANT CELL
p100
sg60
V15
p101
sg90
(lp102
(VABE
VH
tp103
asg23
I2003
sg54
VLANT
p104
sbag1
(g2
g3
NtRp105
(dp106
g62
V10.1105/tpc.106.048041
p107
sg58
VPLANT CELL
p108
sg60
V19
p109
sg90
(lp110
(VADIE
VB A T
tp111
asg23
I2007
sg54
VLANT
p112
sbag1
(g2
g3
NtRp113
(dp114
g62
V10.1126/science.1225977
p115
sg58
VSCIENCE
p116
sg60
V338
p117
sg90
(lp118
(VAGRAWAL
VA A
tp119
asg23
I2012
sg54
V113
p120
sbag1
(g2
g3
NtRp121
(dp122
g62
V10.1126/science.276.5314.945
p123
sg58
VSCIENCE
p124
sg60
V276
p125
sg90
(lp126
(VALBORN
VH T
tp127
asg23
I1997
sg54
V945
p128
sbag1
(g2
g3
NtRp129
(dp130
g62
V10.1016/j.tplants.2012.02.006
p131
sg58
VTRENDS PLANT SCI
p132
sg60
V17
p133
sg90
(lp134
(VALI
VJ G
tp135
asg23
I2012
sg54
V293
p136
sbag1
(g2
g3
NtRp137
(dp138
g62
V10.1126/science.1191634
p139
sg58
VSCIENCE
p140
sg60
V329
p141
sg90
(lp142
(VALLMANN
VS
tp143
asg23
I2010
sg54
V1075
p144
sbag1
(g2
g3
NtRp145
(dp146
g62
V10.1105/tpc.104.025833
p147
sg58
VPLANT CELL
p148
sg60
V16
p149
sg90
(lp150
(VANDERSON
VJ P
tp151
asg23
I2004
sg54
VLANT
p152
sbag1
(g2
g3
NtRp153
(dp154
g62
V10.1104/pp.109.144956
p155
sg58
VPLANT PHYSIOL
p156
sg60
V151
p157
sg90
(lp158
(VAREND
VM
tp159
asg23
I2009
sg54
VLANT
p160
sbag1
(g2
g3
NtRp161
(dp162
g62
V10.1093/jxb/ers100
p163
sg58
VJ EXP BOT
p164
sg60
V63
p165
sg90
(lp166
(VATKINSON
VN J
tp167
asg23
I2012
sg54
V3523
p168
sbag1
(g2
g3
NtRp169
(dp170
g62
V10.1073/pnas.95.14.8113
p171
sg58
VP NATL ACAD SCI USA
p172
sg60
V95
p173
sg90
(lp174
(VBALDWIN
VI T
tp175
asg23
I1998
sg54
V8113
p176
sbag1
(g2
g3
NtRp177
(dp178
g62
V10.1007/BF02040200
p179
sg58
VJ CHEM ECOL
p180
sg60
V22
p181
sg90
(lp182
(VBALDWIN
VI T
tp183
asg23
I1996
sg54
V61
p184
sbag1
(g2
g3
NtRp185
(dp186
g62
V10.1055/s-2005-872705
p187
sg58
VPLANT BIOLOGY
p188
sg60
V8
sg90
(lp189
(VBECKERS
VG J M
tp190
asg23
I2006
sg54
VLANT
p191
sbag1
(g2
g3
NtRp192
(dp193
g62
V10.1007/s00442-011-2015-z
p194
sg58
VOECOLOGIA
p195
sg60
V167
p196
sg90
(lp197
(VBIDART-BOUZAT
VM G
tp198
asg23
I2011
sg54
V677
p199
sbag1
(g2
g3
NtRp200
(dp201
g62
V10.1094/MPMI-20-11-1406
p202
sg58
VMOL PLANT MICROBE IN
p203
sg60
V20
p204
sg90
(lp205
(VBODENHAUSEN
VN
tp206
asg23
I2007
sg54
V1406
p207
sbag1
(g2
g3
NtRp208
(dp209
g62
V10.1111/j.1438-8677.2012.00650.x
p210
sg58
VPLANT BIOLOGY
p211
sg60
V14
p212
sg90
(lp213
(VBONAVENTURE
VG
tp214
asg23
I2012
sg54
VLANT
p215
sbag1
(g2
g3
NtRp216
(dp217
g62
V10.1006/abio.1976.9999
p218
sg58
VANAL BIOCHEM
p219
sg60
V72
p220
sg90
(lp221
(VBRADFORD
VM M
tp222
asg23
I1976
sg54
V248
p223
sbag1
(g2
g3
NtRp224
(dp225
g62
Nsg58
VELIFE
p226
sg60
V2
sg90
(lp227
(VCHANG
VK N
tp228
asg23
I2013
sg54
Nsbag1
(g2
g3
NtRp229
(dp230
g62
V10.1105/tpc.006494
p231
sg58
VPLANT CELL
p232
sg60
V14
p233
sg90
(lp234
(VCHENG
VW H
tp235
asg23
I2002
sg54
VLANT
p236
sbag1
(g2
g3
NtRp237
(dp238
g62
V10.1038/nature06006
p239
sg58
VNATURE
p240
sg60
V448
p241
sg90
(lp242
(VCHINI
VA
tp243
asg23
I2007
sg54
V666
p244
sbag1
(g2
g3
NtRp245
(dp246
g62
V10.1016/j.tplants.2012.05.012
p247
sg58
VTRENDS PLANT SCI
p248
sg60
V17
p249
sg90
(lp250
(VCHOUDHARY
VS P
tp251
asg23
I2012
sg54
V594
p252
sbag1
(g2
g3
NtRp253
(dp254
g62
V10.1007/s10886-011-9937-0
p255
sg58
VJ CHEM ECOL
p256
sg60
V37
p257
sg90
(lp258
(VCHUNG
VS H
tp259
asg23
I2011
sg54
V378
p260
sbag1
(g2
g3
NtRp261
(dp262
g62
V10.1093/jxb/err308
p263
sg58
VJ EXP BOT
p264
sg60
V63
p265
sg90
(lp266
(VCONSALES
VF
tp267
asg23
I2012
sg54
V727
p268
sbag1
(g2
g3
NtRp269
(dp270
g62
V10.1016/S1360-1385(99)01497-1
p271
sg58
VTRENDS PLANT SCI
p272
sg60
V4
sg90
(lp273
(VCUTLER
VA J
tp274
asg23
I1999
sg54
V472
p275
sbag1
(g2
g3
NtRp276
(dp277
g62
V10.1146/annurev-arplant-042809-112122
p278
sg58
VANNU REV PLANT BIOL
p279
sg60
V61
p280
sg90
(lp281
(VCUTLER
VS R
tp282
asg23
I2010
sg54
V651
p283
sbag1
(g2
g3
NtRp284
(dp285
g62
V10.1104/pp.109.139550
p286
sg58
VPLANT PHYSIOL
p287
sg60
V150
p288
sg90
(lp289
(VDIEZEL
VC
tp290
asg23
I2009
sg54
VLANT
p291
sbag1
(g2
g3
NtRp292
(dp293
g62
V10.1111/j.1365-3040.2012.02598.x
p294
sg58
VPLANT CELL ENVIRON
p295
sg60
V36
p296
sg90
(lp297
(VDINH
VS T
tp298
asg23
I2013
sg54
VLANT
p299
sbag1
(g2
g3
NtRp300
(dp301
g62
V10.1016/j.plantsci.2011.05.015
p302
sg58
VPLANT SCI
p303
sg60
V181
p304
sg90
(lp305
(VDOLFERUS
VR
tp306
asg23
I2011
sg54
VLANT
p307
sbag1
(g2
g3
NtRp308
(dp309
g62
V10.1105/tpc.106.048017
p310
sg58
VPLANT CELL
p311
sg60
V19
p312
sg90
(lp313
(VDOMBRECHT
VB
tp314
asg23
I2007
sg54
VLANT
p315
sbag1
(g2
g3
NtRp316
(dp317
g62
V10.2307/2406212
p318
sg58
VEVOLUTION
p319
sg60
V18
p320
sg90
(lp321
(VEHRLICH
VP R
tp322
asg23
I1964
sg54
V586
p323
sbag1
(g2
g3
NtRp324
(dp325
g62
V10.1038/nature02291
p326
sg58
VNATURE
p327
sg60
V427
p328
sg90
(lp329
(VENGEL
VM S
tp330
asg23
I2004
sg54
V627
p331
sbag1
(g2
g3
NtRp332
(dp333
g62
V10.1016/j.tplants.2012.01.003
p334
sg58
VTRENDS PLANT SCI
p335
sg60
V17
p336
sg90
(lp337
(VERB
VM
tp338
asg23
I2012
sg54
V250
p339
sbag1
(g2
g3
NtRp340
(dp341
g62
V10.1111/j.1469-8137.2010.03450.x
p342
sg58
VNEW PHYTOL
p343
sg60
V189
p344
sg90
(lp345
(VERB
VM
tp346
asg23
I2011
sg54
V308
p347
sbag1
(g2
g3
NtRp348
(dp349
g62
V10.1104/pp.109.137943
p350
sg58
VPLANT PHYSIOL
p351
sg60
V150
p352
sg90
(lp353
(VFAN
VJ
tp354
asg23
I2009
sg54
VLANT
p355
sbag1
(g2
g3
NtRp356
(dp357
g62
V10.1146/annurev.pp.33.060182.001533
p358
sg58
VANNU REV PLANT PHYS
p359
sg60
V33
p360
sg90
(lp361
(VFARQUHAR
VG D
tp362
asg23
I1982
sg54
V317
p363
sbag1
(g2
g3
NtRp364
(dp365
g62
V10.1105/tpc.110.080788
p366
sg58
VPLANT CELL
p367
sg60
V23
p368
sg90
(lp369
(VFERNANDEZ-CALVO
VP
tp370
asg23
I2011
sg54
VLANT
p371
sbag1
(g2
g3
NtRp372
(dp373
g62
Nsg58
VPLANT CELL
p374
sg60
V6
sg90
(lp375
(VFEYS
VB J F
tp376
asg23
I1994
sg54
VLANT
p377
sbag1
(g2
g3
NtRp378
(dp379
g62
V10.1038/nchembio.161
p380
sg58
VNAT CHEM BIOL
p381
sg60
V5
sg90
(lp382
(VFONSECA
VS
tp383
asg23
I2009
sg54
V344
p384
sbag1
(g2
g3
NtRp385
(dp386
g62
V10.1007/978-1-62703-278-0_9
p387
sg58
VMethods Mol Biol
p388
sg60
V975
p389
sg90
(lp390
(VGALIS
VIVAN
tp391
asg23
I2013
sg54
V109
p392
sbag1
(g2
g3
NtRp393
(dp394
g62
V10.1104/pp.108.130799
p395
sg58
VPLANT PHYSIOL
p396
sg60
V149
p397
sg90
(lp398
(VGAQUEREL
VE
tp399
asg23
I2009
sg54
VLANT
p400
sbag1
(g2
g3
NtRp401
(dp402
g62
V10.1111/j.1755-0998.2011.03017.x
p403
sg58
VMOL ECOL RESOUR
p404
sg60
V11
p405
sg90
(lp406
(VGASE
VK
tp407
asg23
I2011
sg54
V890
p408
sbag1
(g2
g3
NtRp409
(dp410
g62
V10.1016/S1360-1385(99)01498-3
p411
sg58
VTRENDS PLANT SCI
p412
sg60
V4
sg90
(lp413
(VGENOUD
VT
tp414
asg23
I1999
sg54
V503
p415
sbag1
(g2
g3
NtRp416
(dp417
g62
V10.1186/1471-2229-10-66
p418
sg58
VBMC PLANT BIOL
p419
sg60
V10
p420
sg90
(lp421
(VGILARDONI
VP A
tp422
asg23
I2010
sg54
Nsbag1
(g2
g3
NtRp423
(dp424
g62
V10.1105/tpc.111.088229
p425
sg58
VPLANT CELL
p426
sg60
V23
p427
sg90
(lp428
(VGILARDONI
VP A
tp429
asg23
I2011
sg54
VLANT
p430
sbag1
(g2
g3
NtRp431
(dp432
g62
V10.1104/pp.106.088781
p433
sg58
VPLANT PHYSIOL
p434
sg60
V142
p435
sg90
(lp436
(VGIRI
VA P
tp437
asg23
I2006
sg54
VLANT
p438
sbag1
(g2
g3
NtRp439
(dp440
g62
V10.1105/tpc002477
p441
sg58
VPLANT CELL
p442
sg60
V14
p443
sg90
(lp444
(VGONZALEZ-GUZMAN
VM
tp445
asg23
I2002
sg54
VLANT
p446
sbag1
(g2
g3
NtRp447
(dp448
g62
V10.1105/tpc.112.098574
p449
sg58
VPLANT CELL
p450
sg60
V24
p451
sg90
(lp452
(VGONZALEZ-GUZMAN
VM
tp453
asg23
I2012
sg54
VLANT
p454
sbag1
(g2
g3
NtRp455
(dp456
g62
V10.1016/j.tplants.2011.12.005
p457
sg58
VTRENDS PLANT SCI
p458
sg60
V17
p459
sg90
(lp460
(VHA
VS
tp461
asg23
I2012
sg54
V172
p462
sbag1
(g2
g3
NtRp463
(dp464
g62
V10.1007/s004420000389
p465
sg58
VOECOLOGIA
p466
sg60
V124
p467
sg90
(lp468
(VHALITSCHKE
VR
tp469
asg23
I2000
sg54
V408
p470
sbag1
(g2
g3
NtRp471
(dp472
g62
V10.1104/pp.102.018184
p473
sg58
VPLANT PHYSIOL
p474
sg60
V131
p475
sg90
(lp476
(VHALITSCHKE
VR
tp477
asg23
I2003
sg54
VLANT
p478
sbag1
(g2
g3
NtRp479
(dp480
g62
V10.1104/pp.125.2.711
p481
sg58
VPLANT PHYSIOL
p482
sg60
V125
p483
sg90
(lp484
(VHALITSCHKE
VR
tp485
asg23
I2001
sg54
VLANT
p486
sbag1
(g2
g3
NtRp487
(dp488
g62
V10.1046/j.1365-313X.2003.01921.x
p489
sg58
VPLANT J
p490
sg60
V36
p491
sg90
(lp492
(VHALITSCHKE
VR
tp493
asg23
I2003
sg54
VLANT
p494
sbag1
(g2
g3
NtRp495
(dp496
g62
V10.1016/j.plantsci.2011.03.017
p497
sg58
VPLANT SCI
p498
sg60
V181
p499
sg90
(lp500
(VHANCOCK
VJ T
tp501
asg23
I2011
sg54
VLANT
p502
sbag1
(g2
g3
NtRp503
(dp504
g62
V10.1086/416841
p505
sg58
VQ REV BIOL
p506
sg60
V65
p507
sg90
(lp508
(VHARVELL
VC D
tp509
asg23
I1990
sg54
V323
p510
sbag1
(g2
g3
NtRp511
(dp512
g62
V10.1111/j.1365-3040.2004.01228.x
p513
sg58
VPLANT CELL ENVIRON
p514
sg60
V27
p515
sg90
(lp516
(VHEIDEL
VA J
tp517
asg23
I2004
sg54
VLANT
p518
sbag1
(g2
g3
NtRp519
(dp520
g62
V10.1105/tpc.109.071449
p521
sg58
VPLANT CELL
p522
sg60
V22
p523
sg90
(lp524
(VHEILING
VS
tp525
asg23
I2010
sg54
VLANT
p526
sbag1
(g2
g3
NtRp527
(dp528
g62
V10.1111/tpj.12058
p529
sg58
VPLANT J
p530
sg60
V73
p531
sg90
(lp532
(VHEINRICH
VM
tp533
asg23
I2013
sg54
VLANT
p534
sbag1
(g2
g3
NtRp535
(dp536
g62
V10.1111/j.1365-313X.2011.04651.x
p537
sg58
VPLANT J
p538
sg60
V67
p539
sg90
(lp540
(VHIRUMA
VK
tp541
asg23
I2011
sg54
VLANT
p542
sbag1
(g2
g3
NtRp543
(dp544
g62
V10.1146/annurev.arplant.59.032607.092825
p545
sg58
VANNU REV PLANT BIOL
p546
sg60
V59
p547
sg90
(lp548
(VHOWE
VG A
tp549
asg23
I2008
sg54
V41
p550
sbag1
(g2
g3
NtRp551
(dp552
g62
V10.1111/j.1469-8137.2011.04001.x
p553
sg58
VNEW PHYTOL
p554
sg60
V193
p555
sg90
(lp556
(VHUANG
VM
tp557
asg23
I2012
sg54
V997
p558
sbag1
(g2
g3
NtRp559
(dp560
g62
V10.1094/MPMI-23-6-0791
p561
sg58
VMOL PLANT MICROBE IN
p562
sg60
V23
p563
sg90
(lp564
(VJIANG
VC J
tp565
asg23
I2010
sg54
V791
p566
sbag1
(g2
g3
NtRp567
(dp568
g62
V10.1093/jxb/erm127
p569
sg58
VJ EXP BOT
p570
sg60
V59
p571
sg90
(lp572
(VJIANG
VF
tp573
asg23
I2008
sg54
V37
p574
sbag1
(g2
g3
NtRp575
(dp576
g62
Nsg58
VPLANTA
p577
sg60
V195
p578
sg90
(lp579
(VJONGSMA
VM A
tp580
asg23
I1994
sg54
VLANTA
p581
sbag1
(g2
g3
NtRp582
(dp583
g62
V10.1073/pnas.1200363109
p584
sg58
VP NATL ACAD SCI USA
p585
sg60
V109
p586
sg90
(lp587
(VKALLENBACH
VM
tp588
asg23
I2012
sg54
VE1548
p589
sbag1
(g2
g3
NtRp590
(dp591
g62
V10.1104/pp.109.149013
p592
sg58
VPLANT PHYSIOL
p593
sg60
V152
p594
sg90
(lp595
(VKALLENBACH
VM
tp596
asg23
I2010
sg54
VLANT
p597
sbag1
(g2
g3
NtRp598
(dp599
g62
V10.1073/pnas.0909222107
p600
sg58
VP NATL ACAD SCI USA
p601
sg60
V107
p602
sg90
(lp603
(VKANG
VJ
tp604
asg23
I2010
sg54
V2355
p605
sbag1
(g2
g3
NtRp606
(dp607
g62
V10.1105/tpc.106.041103
p608
sg58
VPLANT CELL
p609
sg60
V18
p610
sg90
(lp611
(VKANG
VJ H
tp612
asg23
I2006
sg54
VLANT
p613
sbag1
(g2
g3
NtRp614
(dp615
g62
V10.1104/pp.109.151738
p616
sg58
VPLANT PHYSIOL
p617
sg60
V152
p618
sg90
(lp619
(VKAUR
VH
tp620
asg23
I2010
sg54
VLANT
p621
sbag1
(g2
g3
NtRp622
(dp623
g62
V10.1007/s11829-011-9174-z
p624
sg58
VARTHROPOD
p625
sg60
V6
sg90
(lp626
(VKAWAZU
VK
tp627
asg23
I2012
sg54
V221
p628
sbag1
(g2
g3
NtRp629
(dp630
g62
V10.1016/j.tplants.2011.10.006
p631
sg58
VTRENDS PLANT SCI
p632
sg60
V17
p633
sg90
(lp634
(VKAZAN
VK
tp635
asg23
I2012
sg54
V22
p636
sbag1
(g2
g3
NtRp637
(dp638
g62
V10.1104/pp.107.115717
p639
sg58
VPLANT PHYSIOL
p640
sg60
V146
p641
sg90
(lp642
(VKAZAN
VK
tp643
asg23
I2008
sg54
VLANT
p644
sbag1
(g2
g3
NtRp645
(dp646
g62
V10.1093/mp/sss128
p647
sg58
VMOL PLANT
p648
sg60
V6
sg90
(lp649
(VKAZAN
VK
tp650
asg23
I2013
sg54
V686
p651
sbag1
(g2
g3
NtRp652
(dp653
g62
V10.1126/science.1096931
p654
sg58
VSCIENCE
p655
sg60
V305
p656
sg90
(lp657
(VKESSLER
VA
tp658
asg23
I2004
sg54
V665
p659
sbag1
(g2
g3
NtRp660
(dp661
g62
V10.1126/science.291.5511.2141
p662
sg58
VSCIENCE
p663
sg60
V291
p664
sg90
(lp665
(VKESSLER
VA
tp666
asg23
I2001
sg54
V2141
p667
sbag1
(g2
g3
NtRp668
(dp669
g62
V10.1111/j.1365-313X.2012.05008.x
p670
sg58
VPLANT J
p671
sg60
V71
p672
sg90
(lp673
(VKESSLER
VD
tp674
asg23
I2012
sg54
VLANT
p675
sbag1
(g2
g3
NtRp676
(dp677
g62
V10.1371/journal.pone.0026214
p678
sg58
VPLOS ONE
p679
sg60
V6
sg90
(lp680
(VKIM
VS G
tp681
asg23
I2011
sg54
VLOS
p682
sbag1
(g2
g3
NtRp683
(dp684
g62
Nsg58
VJ Chem Ecol
p685
sg60
V34
p686
sg90
(lp687
(VKOST
VCHRISTIAN
tp688
asg23
I2008
sg54
V1
sbag1
(g2
g3
NtRp689
(dp690
g62
V10.1111/j.1365-2745.2006.01120.x
p691
sg58
VJ ECOL
p692
sg60
V94
p693
sg90
(lp694
(VKOST
VC
tp695
asg23
I2006
sg54
V619
p696
sbag1
(g2
g3
NtRp697
(dp698
g62
V10.1104/pp.118.3.849
p699
sg58
VPLANT PHYSIOL
p700
sg60
V118
p701
sg90
(lp702
(VKROCHKO
VJ E
tp703
asg23
I1998
sg54
VLANT
p704
sbag1
(g2
g3
NtRp705
(dp706
g62
V10.1007/PL00012666
p707
sg58
VCHEMOECOLOGY
p708
sg60
V12
p709
sg90
(lp710
(VKRUGEL
VT
tp711
asg23
I2002
sg54
V177
p712
sbag1
(g2
g3
NtRp713
(dp714
g62
V10.1111/j.1469-8137.2004.01091.x
p715
sg58
VNEW PHYTOL
p716
sg60
V163
p717
sg90
(lp718
(VKRUGER
VA
tp719
asg23
I2004
sg54
V149
p720
sbag1
(g2
g3
NtRp721
(dp722
g62
V10.1038/sj.emboj.7600121
p723
sg58
VEMBO J
p724
sg60
V23
p725
sg90
(lp726
(VKUSHIRO
VT
tp727
asg23
I2004
sg54
V1647
p728
sbag1
(g2
g3
NtRp729
(dp730
g62
V10.1093/jxb/ers216
p731
sg58
VJ EXP BOT
p732
sg60
V63
p733
sg90
(lp734
(VKUSUMI
VK
tp735
asg23
I2012
sg54
V5635
p736
sbag1
(g2
g3
NtRp737
(dp738
g62
V10.1073/pnas.1103010108
p739
sg58
VP NATL ACAD SCI USA
p740
sg60
V108
p741
sg90
(lp742
(VLACKMAN
VP
tp743
asg23
I2011
sg54
V5891
p744
sbag1
(g2
g3
NtRp745
(dp746
g62
V10.1105/tpc.017954
p747
sg58
VPLANT CELL
p748
sg60
V16
p749
sg90
(lp750
(VLI
VL
tp751
asg23
I2004
sg54
VLANT
p752
sbag1
(g2
g3
NtRp753
(dp754
g62
V10.1105/tpc.022319
p755
sg58
VPLANT CELL
p756
sg60
V16
p757
sg90
(lp758
(VLORENZO
VO
tp759
asg23
I2004
sg54
VLANT
p760
sbag1
(g2
g3
NtRp761
(dp762
g62
V10.1073/pnas.91.25.11836
p763
sg58
VP NATL ACAD SCI USA
p764
sg60
V91
p765
sg90
(lp766
(VLOUGHRIN
VJ H
tp767
asg23
I1994
sg54
V11836
p768
sbag1
(g2
g3
NtRp769
(dp770
g62
V10.1104/pp.103.034165
p771
sg58
VPLANT PHYSIOL
p772
sg60
V134
p773
sg90
(lp774
(VMAFFEI
VM
tp775
asg23
I2004
sg54
VLANT
p776
sbag1
(g2
g3
NtRp777
(dp778
g62
Nsg58
VEMBO J
p779
sg60
V15
p780
sg90
(lp781
(VMARIN
VE
tp782
asg23
I1996
sg54
V2331
p783
sbag1
(g2
g3
NtRp784
(dp785
g62
V10.1038/cr.2009.135
p786
sg58
VCELL RES
p787
sg60
V19
p788
sg90
(lp789
(VMAUCH-MANI
VB
tp790
asg23
I2009
sg54
V1322
p791
sbag1
(g2
g3
NtRp792
(dp793
g62
V10.1016/j.pbi.2005.05.015
p794
sg58
VCURR OPIN PLANT BIOL
p795
sg60
V8
sg90
(lp796
(VMAUCH-MANI
VB
tp797
asg23
I2005
sg54
V409
p798
sbag1
(g2
g3
NtRp799
(dp800
g62
V10.1111/j.1469-8137.2008.02645.x
p801
sg58
VNEW PHYTOL
p802
sg60
V181
p803
sg90
(lp804
(VMELDAU
VS
tp805
asg23
I2009
sg54
V161
p806
sbag1
(g2
g3
NtRp807
(dp808
g62
V10.1104/pp.104.054460
p809
sg58
VPLANT PHYSIOL
p810
sg60
V137
p811
sg90
(lp812
(VMITHOFER
VA
tp813
asg23
I2005
sg54
VLANT
p814
sbag1
(g2
g3
NtRp815
(dp816
g62
V10.1016/j.tplants.2009.06.010
p817
sg58
VTRENDS PLANT SCI
p818
sg60
V14
p819
sg90
(lp820
(VMOUBAYIDIN
VL
tp821
asg23
I2009
sg54
V557
p822
sbag1
(g2
g3
NtRp823
(dp824
g62
Nsg58
VPLANT PHYSIOL
p825
sg60
V140
p826
sg90
(lp827
(VMUR
VL A J
tp828
asg23
I2006
sg54
VLANT
p829
sbag1
(g2
g3
NtRp830
(dp831
g62
V10.1111/j.1469-8137.2012.04310.x
p832
sg58
VNEW PHYTOL
p833
sg60
V196
p834
sg90
(lp835
(VNAHAR
VK
tp836
asg23
I2012
sg54
V901
p837
sbag1
(g2
g3
NtRp838
(dp839
g62
V10.1146/annurev.arplant.56.032604.144046
p840
sg58
VANNU REV PLANT BIOL
p841
sg60
V56
p842
sg90
(lp843
(VNAMBARA
VE
tp844
asg23
I2005
sg54
V165
p845
sbag1
(g2
g3
NtRp846
(dp847
g62
V10.1104/pp.112.193771
p848
sg58
VPLANT PHYSIOL
p849
sg60
V159
p850
sg90
(lp851
(VOH
VY
tp852
asg23
I2012
sg54
VLANT
p853
sbag1
(g2
g3
NtRp854
(dp855
g62
V10.1104/pp.108.130823
p856
sg58
VPLANT PHYSIOL
p857
sg60
V149
p858
sg90
(lp859
(VOKAMOTO
VM
tp860
asg23
I2009
sg54
VLANT
p861
sbag1
(g2
g3
NtRp862
(dp863
g62
V10.1104/pp.110.156232
p864
sg58
VPLANT PHYSIOL
p865
sg60
V153
p866
sg90
(lp867
(VONKOKESUNG
VN
tp868
asg23
I2010
sg54
VLANT
p869
sbag1
(g2
g3
NtRp870
(dp871
g62
V10.1104/pp.111.187229
p872
sg58
VPLANT PHYSIOL
p873
sg60
V158
p874
sg90
(lp875
(VONKOKESUNG
VN
tp876
asg23
I2012
sg54
VLANT
p877
sbag1
(g2
g3
NtRp878
(dp879
g62
V10.1039/b109859b
p880
sg58
VNAT PROD REP
p881
sg60
V20
p882
sg90
(lp883
(VORITANI
VT
tp884
asg23
I2003
sg54
V414
p885
sbag1
(g2
g3
NtRp886
(dp887
g62
Nsg58
VAM J ENOL VITICULT
p888
sg60
V60
p889
sg90
(lp890
(VOWEN
VS J
tp891
asg23
I2009
sg54
V277
p892
sbag1
(g2
g3
NtRp893
(dp894
g62
V10.1104/pp.121.2.325
p895
sg58
VPLANT PHYSIOL
p896
sg60
V121
p897
sg90
(lp898
(VPARE
VP W
tp899
asg23
I1999
sg54
VLANT
p900
sbag1
(g2
g3
NtRp901
(dp902
g62
V10.1111/j.1365-313X.2007.03119.x
p903
sg58
VPLANT J
p904
sg60
V51
p905
sg90
(lp906
(VPASCHOLD
VA
tp907
asg23
I2007
sg54
VLANT
p908
sbag1
(g2
g3
NtRp909
(dp910
g62
V10.1126/science.282.5387.287
p911
sg58
VSCIENCE
p912
sg60
V282
p913
sg90
(lp914
(VPEI
VZ M
tp915
asg23
I1998
sg54
V287
p916
sbag1
(g2
g3
NtRp917
(dp918
g62
V10.1016/j.pbi.2011.02.001
p919
sg58
VCURR OPIN PLANT BIOL
p920
sg60
V14
p921
sg90
(lp922
(VPELEG
VZ
tp923
asg23
I2011
sg54
V290
p924
sbag1
(g2
g3
NtRp925
(dp926
g62
Nsg58
VPLANTA
p927
sg60
V191
p928
sg90
(lp929
(VPENACORTES
VH
tp930
asg23
I1993
sg54
VLANTA
p931
sbag1
(g2
g3
NtRp932
(dp933
g62
V10.1073/pnas.86.24.9851
p934
sg58
VP NATL ACAD SCI USA
p935
sg60
V86
p936
sg90
(lp937
(VPENACORTES
VH
tp938
asg23
I1989
sg54
V9851
p939
sbag1
(g2
g3
NtRp940
(dp941
g62
V10.1073/pnas.92.10.4106
p942
sg58
VP NATL ACAD SCI USA
p943
sg60
V92
p944
sg90
(lp945
(VPENACORTES
VH
tp946
asg23
I1995
sg54
V4106
p947
sbag1
(g2
g3
NtRp948
(dp949
g62
V10.1016/S0739-7240(01)00128-X
p950
sg58
VDOMEST ANIM ENDOCRIN
p951
sg60
V22
p952
sg90
(lp953
(VPFAFFL
VM W
tp954
asg23
I2002
sg54
V91
p955
sbag1
(g2
g3
NtRp956
(dp957
g62
V10.1146/annurev-cellbio-092910-154055
p958
sg58
VANNU REV CELL DEV BI
p959
sg60
V28
p960
sg90
(lp961
(VPIETERSE
VC M J
tp962
asg23
I2012
sg54
V489
p963
sbag1
(g2
g3
NtRp964
(dp965
g62
V10.1111/j.1365-313X.2006.02701.x
p966
sg58
VPLANT J
p967
sg60
V46
p968
sg90
(lp969
(VPRIEST
VD M
tp970
asg23
I2006
sg54
VLANT
p971
sbag1
(g2
g3
NtRp972
(dp973
g62
V10.1007/s00425-008-0749-6
p974
sg58
VPLANTA
p975
sg60
V228
p976
sg90
(lp977
(VRADHIKA
VV
tp978
asg23
I2008
sg54
VLANTA
p979
sbag1
(g2
g3
NtRp980
(dp981
g62
V10.1111/j.1365-313X.2007.03267.x
p982
sg58
VPLANT J
p983
sg60
V52
p984
sg90
(lp985
(VRAYAPURAM
VC
tp986
asg23
I2007
sg54
VLANT
p987
sbag1
(g2
g3
NtRp988
(dp989
g62
V10.1105/tpc.12.5.707
p990
sg58
VPLANT CELL
p991
sg60
V12
p992
sg90
(lp993
(VREYMOND
VP
tp994
asg23
I2000
sg54
VLANT
p995
sbag1
(g2
g3
NtRp996
(dp997
g62
V10.1146/annurev-phyto-073009-114447
p998
sg58
VANNU REV PHYTOPATHOL
p999
sg60
V49
p1000
sg90
(lp1001
(VROBERT-SEILANIANTZ
VA
tp1002
asg23
I2011
sg54
V317
p1003
sbag1
(g2
g3
NtRp1004
(dp1005
g62
V10.1007/s10886-010-9854-7
p1006
sg58
VJ CHEM ECOL
p1007
sg60
V36
p1008
sg90
(lp1009
(VRODRIGUEZ-SAONA
VC R
tp1010
asg23
I2010
sg54
V1043
p1011
sbag1
(g2
g3
NtRp1012
(dp1013
g62
V10.3732/ajb.90.6.954
p1014
sg58
VAM J BOT
p1015
sg60
V90
p1016
sg90
(lp1017
(VSANDERSON
VM J
tp1018
asg23
I2003
sg54
V954
p1019
sbag1
(g2
g3
NtRp1020
(dp1021
g62
V10.1371/journal.ppat.1001011
p1022
sg58
VPLOS PATHOG
p1023
sg60
V6
sg90
(lp1024
(VSATO
VM
tp1025
asg23
I2010
sg54
VLOS
p1026
sbag1
(g2
g3
NtRp1027
(dp1028
g62
V10.1104/pp.111.173567
p1029
sg58
VPLANT PHYSIOL
p1030
sg60
V156
p1031
sg90
(lp1032
(VSCHAFER
VM
tp1033
asg23
I2011
sg54
VLANT
p1034
sbag1
(g2
g3
NtRp1035
(dp1036
g62
V10.1073/pnas.0811861106
p1037
sg58
VP NATL ACAD SCI USA
p1038
sg60
V106
p1039
sg90
(lp1040
(VSCHMELZ
VE A
tp1041
asg23
I2009
sg54
V653
p1042
sbag1
(g2
g3
NtRp1043
(dp1044
g62
V10.1146/annurev.arplant.52.1.627
p1045
sg58
VANNU REV PLANT PHYS
p1046
sg60
V52
p1047
sg90
(lp1048
(VSCHROEDER
VJ I
tp1049
asg23
I2001
sg54
V627
p1050
sbag1
(g2
g3
NtRp1051
(dp1052
g62
Nsg58
VELIFE
p1053
sg60
V0001
p1054
sg90
(lp1055
(VSCHUMAN
VM C
tp1056
asg23
I2012
sg54
Nsbag1
(g2
g3
NtRp1057
(dp1058
g62
V10.1111/j.1469-8137.2009.02894.x
p1059
sg58
VNEW PHYTOL
p1060
sg60
V183
p1061
sg90
(lp1062
(VSCHUMAN
VM C
tp1063
asg23
I2009
sg54
V1134
p1064
sbag1
(g2
g3
NtRp1065
(dp1066
g62
V10.1104/pp.107.112490
p1067
sg58
VPLANT PHYSIOL
p1068
sg60
V146
p1069
sg90
(lp1070
(VSCHWACHTJE
VJ
tp1071
asg23
I2008
sg54
VLANT
p1072
sbag1
(g2
g3
NtRp1073
(dp1074
g62
V10.1073/pnas.0602316103
p1075
sg58
VP NATL ACAD SCI USA
p1076
sg60
V103
p1077
sg90
(lp1078
(VSCHWACHTJE
VJ
tp1079
asg23
I2006
sg54
V12935
p1080
sbag1
(g2
g3
NtRp1081
(dp1082
g62
V10.1093/jxb/erq446
p1083
sg58
VJ EXP BOT
p1084
sg60
V62
p1085
sg90
(lp1086
(VSEILER
VC
tp1087
asg23
I2011
sg54
V2615
p1088
sbag1
(g2
g3
NtRp1089
(dp1090
g62
V10.1111/j.1365-313X.2006.02881.x
p1091
sg58
VPLANT J
p1092
sg60
V48
p1093
sg90
(lp1094
(VSEO
VM
tp1095
asg23
I2006
sg54
VLANT
p1096
sbag1
(g2
g3
NtRp1097
(dp1098
g62
V10.1016/S1360-1385(01)02187-2
p1099
sg58
VTRENDS PLANT SCI
p1100
sg60
V7
sg90
(lp1101
(VSEO
VM
tp1102
asg23
I2002
sg54
V41
p1103
sbag1
(g2
g3
NtRp1104
(dp1105
g62
V10.1038/nature09430
p1106
sg58
VNATURE
p1107
sg60
V468
p1108
sg90
(lp1109
(VSHEARD
VL B
tp1110
asg23
I2010
sg54
V400
p1111
sbag1
(g2
g3
NtRp1112
(dp1113
g62
V10.1105/tpc.108.058594
p1114
sg58
VPLANT CELL
p1115
sg60
V20
p1116
sg90
(lp1117
(VSKIBBE
VM
tp1118
asg23
I2008
sg54
VLANT
p1119
sbag1
(g2
g3
NtRp1120
(dp1121
g62
V10.1105/tpc.009159
p1122
sg58
VPLANT CELL
p1123
sg60
V15
p1124
sg90
(lp1125
(VSPOEL
VS H
tp1126
asg23
I2003
sg54
VLANT
p1127
sbag1
(g2
g3
NtRp1128
(dp1129
g62
V10.1093/jxb/erq147
p1130
sg58
VJ EXP BOT
p1131
sg60
V61
p1132
sg90
(lp1133
(VSTAMM
VP
tp1134
asg23
I2010
sg54
V2889
p1135
sbag1
(g2
g3
NtRp1136
(dp1137
g62
V10.1111/j.1461-0248.2007.01045.x
p1138
sg58
VECOL LETT
p1139
sg60
V10
p1140
sg90
(lp1141
(VSTEPPUHN
VA
tp1142
asg23
I2007
sg54
V499
p1143
sbag1
(g2
g3
NtRp1144
(dp1145
g62
V10.1371/journal.pbio.0020217
p1146
sg58
VPLOS BIOL
p1147
sg60
V2
sg90
(lp1148
(VSTEPPUHN
VA
tp1149
asg23
I2004
sg54
VLOS
p1150
sbag1
(g2
g3
NtRp1151
(dp1152
g62
V10.1371/journal.pone.0004697
p1153
sg58
VPLOS ONE
p1154
sg60
V4
sg90
(lp1155
(VSTORK
VW
tp1156
asg23
I2009
sg54
VLOS
p1157
sbag1
(g2
g3
NtRp1158
(dp1159
g62
V10.1093/pcp/pch085
p1160
sg58
VPLANT CELL PHYSIOL
p1161
sg60
V45
p1162
sg90
(lp1163
(VTAKAHASHI
VH
tp1164
asg23
I2004
sg54
VLANT
p1165
sbag1
(g2
g3
NtRp1166
(dp1167
g62
V10.1890/02-0710
p1168
sg58
VECOLOGY
p1169
sg60
V85
p1170
sg90
(lp1171
(VTHALER
VJ S
tp1172
asg23
I2004
sg54
V48
p1173
sbag1
(g2
g3
NtRp1174
(dp1175
g62
V10.1038/nature05960
p1176
sg58
VNATURE
p1177
sg60
V448
p1178
sg90
(lp1179
(VTHINES
VB
tp1180
asg23
I2007
sg54
V661
p1181
sbag1
(g2
g3
NtRp1182
(dp1183
g62
V10.1016/j.tplants.2009.03.006
p1184
sg58
VTRENDS PLANT SCI
p1185
sg60
V14
p1186
sg90
(lp1187
(VTON
VJ
tp1188
asg23
I2009
sg54
V310
p1189
sbag1
(g2
g3
NtRp1190
(dp1191
g62
V10.1105/tpc.017723
p1192
sg58
VPLANT CELL
p1193
sg60
V16
p1194
sg90
(lp1195
(VTRUITT
VC L
tp1196
asg23
I2004
sg54
VLANT
p1197
sbag1
(g2
g3
NtRp1198
(dp1199
g62
V10.1016/j.talanta.2009.06.027
p1200
sg58
VTALANTA
p1201
sg60
V80
p1202
sg90
(lp1203
(VTURECKOVA
VV
tp1204
asg23
I2009
sg54
V390
p1205
sbag1
(g2
g3
NtRp1206
(dp1207
g62
V10.1093/pcp/pcq156
p1208
sg58
VPLANT CELL PHYSIOL
p1209
sg60
V51
p1210
sg90
(lp1211
(VUMEZAWA
VT
tp1212
asg23
I2010
sg54
VLANT
p1213
sbag1
(g2
g3
NtRp1214
(dp1215
g62
V10.1111/j.1365-313X.2006.02683.X
p1216
sg58
VPLANT J
p1217
sg60
V46
p1218
sg90
(lp1219
(VUMEZAWA
VT
tp1220
asg23
I2006
sg54
VLANT
p1221
sbag1
(g2
g3
NtRp1222
(dp1223
g62
V10.1023/A:1010341022761
p1224
sg58
VJ CHEM ECOL
p1225
sg60
V27
p1226
sg90
(lp1227
(VVAN
VD A M N M
tp1228
asg23
I2001
sg54
V547
p1229
sbag1
(g2
g3
NtRp1230
(dp1231
g62
V10.1186/1471-2229-10-164
p1232
sg58
VBMC PLANT BIOL
p1233
sg60
V10
p1234
sg90
(lp1235
(VVANDOORN
VA
tp1236
asg23
I2010
sg54
Nsbag1
(g2
g3
NtRp1237
(dp1238
g62
V10.1104/pp.75.2.458
p1239
sg58
VPLANT PHYSIOL
p1240
sg60
V75
p1241
sg90
(lp1242
(VVICK
VB A
tp1243
asg23
I1984
sg54
VLANT
p1244
sbag1
(g2
g3
NtRp1245
(dp1246
g62
V10.1007/s004420000581
p1247
sg58
VOECOLOGIA
p1248
sg60
V127
p1249
sg90
(lp1250
(VVOELCKEL
VC
tp1251
asg23
I2001
sg54
V274
p1252
sbag1
(g2
g3
NtRp1253
(dp1254
g62
V10.1111/j.1461-0248.2004.00633.x
p1255
sg58
VECOL LETT
p1256
sg60
V7
sg90
(lp1257
(VVOELCKEL
VC
tp1258
asg23
I2004
sg54
V770
p1259
sbag1
(g2
g3
NtRp1260
(dp1261
g62
V10.1111/j.1365-313X.2007.03142.x
p1262
sg58
VPLANT J
p1263
sg60
V51
p1264
sg90
(lp1265
(VVON
VDAHL C C
tp1266
asg23
I2007
sg54
VLANT
p1267
sbag1
(g2
g3
NtRp1268
(dp1269
g62
V10.1007/s00425-007-0477-3
p1270
sg58
VPLANTA
p1271
sg60
V226
p1272
sg90
(lp1273
(VWANG
VL
tp1274
asg23
I2007
sg54
VLANTA
p1275
sbag1
(g2
g3
NtRp1276
(dp1277
g62
V10.1104/pp.107.109264
p1278
sg58
VPLANT PHYSIOL
p1279
sg60
V146
p1280
sg90
(lp1281
(VWANG
VL
tp1282
asg23
I2008
sg54
VLANT
p1283
sbag1
(g2
g3
NtRp1284
(dp1285
g62
V10.1105/tpc.110.081943
p1286
sg58
VPLANT CELL
p1287
sg60
V23
p1288
sg90
(lp1289
(VWANG
VZ Y
tp1290
asg23
I2011
sg54
VLANT
p1291
sbag1
(g2
g3
NtRp1292
(dp1293
g62
V10.1038/291317a0
p1294
sg58
VNATURE
p1295
sg60
V291
p1296
sg90
(lp1297
(VWHALLEY
VP
tp1298
asg23
I1981
sg54
V317
p1299
sbag1
(g2
g3
NtRp1300
(dp1301
g62
V10.1186/1471-2229-13-73
p1302
sg58
VBMC PLANT BIOL
p1303
sg60
V13
p1304
sg90
(lp1305
(VWOLDEMARIAM
VM G
tp1306
asg23
I2013
sg54
Nsbag1
(g2
g3
NtRp1307
(dp1308
g62
V10.1111/j.1365-313X.2012.05117.x
p1309
sg58
VPLANT J
p1310
sg60
V72
p1311
sg90
(lp1312
(VWOLDEMARIAM
VM G
tp1313
asg23
I2012
sg54
VLANT
p1314
sbag1
(g2
g3
NtRp1315
(dp1316
g62
V10.1146/annurev-genet-102209-163500
p1317
sg58
VANNU REV GENET
p1318
sg60
V44
p1319
sg90
(lp1320
(VWU
VJ Q
tp1321
asg23
I2010
sg54
V1
sbag1
(g2
g3
NtRp1322
(dp1323
g62
V10.1105/tpc.106.049353
p1324
sg58
VPLANT CELL
p1325
sg60
V19
p1326
sg90
(lp1327
(VWU
VJ Q
tp1328
asg23
I2007
sg54
VLANT
p1329
sbag1
(g2
g3
NtRp1330
(dp1331
g62
V10.1104/pp.107.114785
p1332
sg58
VPLANT PHYSIOL
p1333
sg60
V146
p1334
sg90
(lp1335
(VWU
VJ Q
tp1336
asg23
I2008
sg54
VLANT
p1337
sbag1
(g2
g3
NtRp1338
(dp1339
g62
V10.1007/s00425-008-0690-8
p1340
sg58
VPLANTA
p1341
sg60
V227
p1342
sg90
(lp1343
(VWU
VJ S
tp1344
asg23
I2008
sg54
VLANTA
p1345
sbag1
(g2
g3
NtRp1346
(dp1347
g62
V10.1105/tpc.6.8.1077
p1348
sg58
VPLANT CELL
p1349
sg60
V6
sg90
(lp1350
(VXU
VY
tp1351
asg23
I1994
sg54
VLANT
p1352
sbag1
(g2
g3
NtRp1353
(dp1354
g62
V10.1104/pp.001784
p1355
sg58
VPLANT PHYSIOL
p1356
sg60
V129
p1357
sg90
(lp1358
(VXU
VZ J
tp1359
asg23
I2002
sg54
VLANT
p1360
sbag1
(g2
g3
NtRp1361
(dp1362
g62
V10.1105/tpc.105.032060
p1363
sg58
VPLANT CELL
p1364
sg60
V17
p1365
sg90
(lp1366
(VYADAV
VV
tp1367
asg23
I2005
sg54
VLANT
p1368
sbag1
(g2
g3
NtRp1369
(dp1370
g62
V10.1093/jxb/erq298
p1371
sg58
VJ EXP BOT
p1372
sg60
V62
p1373
sg90
(lp1374
(VYANG
VD H
tp1375
asg23
I2011
sg54
V641
p1376
sbag1
(g2
g3
NtRp1377
(dp1378
g62
V10.1073/pnas.0809623105
p1379
sg58
VP NATL ACAD SCI USA
p1380
sg60
V105
p1381
sg90
(lp1382
(VYOSHINAGA
VN
tp1383
asg23
I2008
sg54
V18058
p1384
sbag1
(g2
g3
NtRp1385
(dp1386
g62
V10.1111/j.1365-313X.2009.03875.x
p1387
sg58
VPLANT J
p1388
sg60
V59
p1389
sg90
(lp1390
(VZABALA
VM D
tp1391
asg23
I2009
sg54
VLANT
p1392
sbag1
(g2
g3
NtRp1393
(dp1394
g62
V10.1073/pnas.0305096101
p1395
sg58
VP NATL ACAD SCI USA
p1396
sg60
V101
p1397
sg90
(lp1398
(VZAVALA
VJ A
tp1399
asg23
I2004
sg54
V1607
p1400
sbasb.