ccopy_reg
_reconstructor
p1
(ctethne.classes.paper
Paper
p2
c__builtin__
object
p3
NtRp4
(dp5
S'publisherCity'
p6
VROCKVILLE
p7
sS'reprintAddress'
p8
VSmeekens, S (reprint author), Univ Utrecht, Dept Bot Ecol & Evolutionary Biol, Padualaan 8, NL-3584 CH Utrecht, Netherlands.
p9
sS'WC'
p10
VPlant Sciences
p11
sS'GA'
p12
V207KR
p13
sS'pageEnd'
p14
I359
sS'publisherAddress'
p15
V15501 MONONA DRIVE, ROCKVILLE, MD 20855 USA
p16
sS'documentType'
p17
VArticle
p18
sS'subject'
p19
VPlant Sciences
p20
sS'isoSource'
p21
VPlant Physiol.
p22
sS'timesCited'
p23
(lp24
I215
aVZ9 228
p25
asS'PT'
p26
VJ
sS'title'
p27
VFructan: More Than A Reserve Carbohydrate?
p28
sS'ISSN'
p29
(lp30
V0032-0889
p31
aVJ9 PLANT PHYSIOL
p32
asS'authors_full'
p33
(lp34
(VVIJN
VI
tp35
a(VSMEEKENS
VS
tp36
asS'PG'
p37
I9
sS'PD'
p38
VJUN
p39
sS'pageStart'
p40
I351
sS'issue'
p41
I2
sS'RI'
p42
VSmeekens, Sjef/B-6683-2011
p43
sS'journal'
p44
VPLANT PHYSIOLOGY
p45
sS'volume'
p46
V120
p47
sS'doi'
p48
V10.1104/pp.120.2.351
p49
sS'authorAddress'
p50
VUniv Utrecht, Dept Bot Ecol & Evolutionary Biol, NL-3584 CH Utrecht, Netherlands.
p51
sS'date'
p52
I1999
sS'ER'
p53
V
sS'publisher'
p54
VAMER SOC PLANT PHYSIOLOGISTS
p55
sS'authorKeywords'
p56
(lp57
VSUCROSE-SUCROSE 1-FRUCTOSYLTRANSFERASE
p58
aVCICHORIUM-INTYBUS L
p59
aVHELIANTHUS-TUBEROSUS
p60
aVIN-VITRO
p61
aVJERUSALEM-ARTICHOKE
p62
aVBETA-FRUCTOSIDASE
p63
aVCYNARA-SCOLYMUS
p64
aVKEY ENZYME
p65
aVINULIN
p66
aVPURIFICATION
p67
asS'OI'
p68
VSmeekens, Sjef/0000-0001-6631-9426
p69
sS'language'
p70
VEnglish
p71
sS'wosid'
p72
VWOS:000080936500002
p73
sS'citationCount'
p74
I43
sS'authors_init'
p75
(lp76
(VVIJN
VI
tp77
a(VSMEEKENS
VS
tp78
asS'citedReferences'
p79
(lp80
g1
(g2
g3
NtRp81
(dp82
g48
V10.1046/j.1469-8137.1997.00721.x
p83
sg44
VNEW PHYTOL
p84
sg46
V136
p85
sg75
(lp86
(VBONNETT
VG D
tp87
asg52
I1997
sg40
V11
p88
sbag1
(g2
g3
NtRp89
(dp90
g48
V10.1111/j.1469-8137.1994.tb04277.x
p91
sg44
VNEW PHYTOL
p92
sg46
V127
p93
sg75
(lp94
(VBONNETT
VG D
tp95
asg52
I1994
sg40
V261
p96
sbag1
(g2
g3
NtRp97
(dp98
g48
Nsg44
VJ PLANT PHYSIOL
p99
sg46
V134
p100
sg75
(lp101
(VCARPITA
VN C
tp102
asg52
I1989
sg40
V162
p103
sbag1
(g2
g3
NtRp104
(dp105
g48
Nsg44
VBIOCHEM J
p106
sg46
V279
p107
sg75
(lp108
(VCHAMBERT
VR
tp109
asg52
I1991
sg40
V35
p110
sbag1
(g2
g3
NtRp111
(dp112
g48
Nsg44
VSCI TECHNOLOGY FRUCT
p113
sg46
Nsg75
(lp114
(VCOTE
VG L
tp115
asg52
I1993
sg40
V141
p116
sbag1
(g2
g3
NtRp117
(dp118
g48
Nsg44
VPlant Physiology 
p119
sg46
V113
p120
sg75
(lp121
(VDE
VHALLEUX SONIA
tp122
asg52
I1997
sg40
Vlant
p123
sbag1
(g2
g3
NtRp124
(dp125
g48
Nsg44
VMETHOD ENZYMOL
p126
sg46
V8
sg75
(lp127
(VDEDONDER
VR
tp128
asg52
I1966
sg40
V500
p129
sbag1
(g2
g3
NtRp130
(dp131
g48
Nsg44
VPLANT PHYSIOL
p132
sg46
V107
p133
sg75
(lp134
(VDUCHATEAU
VN
tp135
asg52
I1995
sg40
VLANT
p136
sbag1
(g2
g3
NtRp137
(dp138
g48
V10.1111/j.1469-8137.1968.tb05480.x
p139
sg44
VNEW PHYTOL
p140
sg46
V67
p141
sg75
(lp142
(VEDELMAN
VJ
tp143
asg52
I1968
sg40
V517
p144
sbag1
(g2
g3
NtRp145
(dp146
g48
V10.1111/j.1469-8137.1996.tb04509.x
p147
sg44
VNEW PHYTOL
p148
sg46
V132
p149
sg75
(lp150
(VERNST
VM
tp151
asg52
I1996
sg40
V63
p152
sbag1
(g2
g3
NtRp153
(dp154
g48
Nsg44
VSTUDIES PLANT SCI
p155
sg46
Nsg75
(lp156
(VFUCHS
VA
tp157
asg52
I1993
sg40
Nsbag1
(g2
g3
NtRp158
(dp159
g48
V10.1016/0016-5085(95)90192-2
p160
sg44
VGASTROENTEROLOGY
p161
sg46
V108
p162
sg75
(lp163
(VGIBSON
VG R
tp164
asg52
I1995
sg40
V975
p165
sbag1
(g2
g3
NtRp166
(dp167
g48
V10.1046/j.1365-313X.1997.12051057.x
p168
sg44
VPLANT J
p169
sg46
V12
p170
sg75
(lp171
(VHELLWEGE
VE M
tp172
asg52
I1997
sg40
VLANT
p173
sbag1
(g2
g3
NtRp174
(dp175
g48
V10.1016/S0014-5793(98)00386-X
p176
sg44
VFEBS LETT
p177
sg46
V427
p178
sg75
(lp179
(VHELLWEGE
VE M
tp180
asg52
I1998
sg40
V25
p181
sbag1
(g2
g3
NtRp182
(dp183
g48
Nsg44
VSCI TECHNOLOGY FRUCT
p184
sg46
Nsg75
(lp185
(VHENDRY
VG A F
tp186
asg52
I1993
sg40
V119
p187
sbag1
(g2
g3
NtRp188
(dp189
g48
V10.1104/pp.110.2.639
p190
sg44
VPLANT PHYSIOL
p191
sg46
V110
p192
sg75
(lp193
(VHENSON
VC A
tp194
asg52
I1996
sg40
VLANT
p195
sbag1
(g2
g3
NtRp196
(dp197
g48
V10.1016/S0014-5793(98)01487-2
p198
sg44
VFEBS LETT
p199
sg46
V440
p200
sg75
(lp201
(VHOCHSTRASSER
VU
tp202
asg52
I1998
sg40
V356
p203
sbag1
(g2
g3
NtRp204
(dp205
g48
Nsg44
VPLANT PHYSIOL
p206
sg46
V110
p207
sg75
(lp208
(VKOOPS
VA J
tp209
asg52
I1996
sg40
VLANT
p210
sbag1
(g2
g3
NtRp211
(dp212
g48
V10.1111/j.1469-8137.1993.tb03783.x
p213
sg44
VNEW PHYTOL
p214
sg46
V123
p215
sg75
(lp216
(VLIVINGSTON
VD P
tp217
asg52
I1993
sg40
V725
p218
sbag1
(g2
g3
NtRp219
(dp220
g48
V10.1016/0014-5793(96)00343-2
p221
sg44
VFEBS LETT
p222
sg46
V385
p223
sg75
(lp224
(VLUSCHER
VM
tp225
asg52
I1996
sg40
V39
p226
sbag1
(g2
g3
NtRp227
(dp228
g48
V10.1046/j.1469-8137.1997.00642.x
p229
sg44
VNEW PHYTOL
p230
sg46
V135
p231
sg75
(lp232
(VMARX
VS P
tp233
asg52
I1997
sg40
V279
p234
sbag1
(g2
g3
NtRp235
(dp236
g48
V10.1046/j.1469-8137.1997.00641.x
p237
sg44
VNEW PHYTOL
p238
sg46
V135
p239
sg75
(lp240
(VMARX
VS P
tp241
asg52
I1997
sg40
V267
p242
sbag1
(g2
g3
NtRp243
(dp244
g48
Nsg44
VPLANT PHYSIOL
p245
sg46
V89
p246
sg75
(lp247
(VOBENLAND
VD M
tp248
asg52
I1993
sg40
VLANT
p249
sbag1
(g2
g3
NtRp250
(dp251
g48
Nsg44
VPLANT PHYSIOL
p252
sg46
V107
p253
sg75
(lp254
(VPILONSMITS
VE A H
tp255
asg52
I1995
sg40
VLANT
p256
sbag1
(g2
g3
NtRp257
(dp258
g48
V10.1111/j.1469-8137.1986.tb00629.x
p259
sg44
VNEW PHYTOL
p260
sg46
V104
p261
sg75
(lp262
(VPOLLOCK
VC J
tp263
asg52
I1986
sg40
V1
sbag1
(g2
g3
NtRp264
(dp265
g48
V10.1146/annurev.pp.42.060191.000453
p266
sg44
VANNU REV PLANT PHYS
p267
sg46
V42
p268
sg75
(lp269
(VPOLLOCK
VC J
tp270
asg52
I1991
sg40
V77
p271
sbag1
(g2
g3
NtRp272
(dp273
g48
V10.1016/S0021-9673(01)92452-5
p274
sg44
VJ CHROMATOGR
p275
sg46
V348
p276
sg75
(lp277
(VPRAZNIK
VW
tp278
asg52
I1985
sg40
V187
p279
sbag1
(g2
g3
NtRp280
(dp281
g48
V10.1046/j.1469-8137.1997.00728.x
p282
sg44
VNEW PHYTOL
p283
sg46
V136
p284
sg75
(lp285
(VPUEBLA
VA F
tp286
asg52
I1997
sg40
V123
p287
sbag1
(g2
g3
NtRp288
(dp289
g48
V10.1074/jbc.271.24.13953
p290
sg44
VJ BIOL CHEM
p291
sg46
V271
p292
sg75
(lp293
(VREDDY
VA
tp294
asg52
I1996
sg40
V13953
p295
sbag1
(g2
g3
NtRp296
(dp297
g48
Nsg44
VCRIT REV FOOD SCI
p298
sg46
V33
p299
sg75
(lp300
(VROBERFROID
VM
tp301
asg52
I1993
sg40
V103
p302
sbag1
(g2
g3
NtRp303
(dp304
g48
V10.1038/nbt0998-843
p305
sg44
VNAT BIOTECHNOL
p306
sg46
V16
p307
sg75
(lp308
(VSEVENIER
VR
tp309
asg52
I1998
sg40
V843
p310
sbag1
(g2
g3
NtRp311
(dp312
g48
V10.1172/JCI100690
p313
sg44
VJ CLIN INVEST
p314
sg46
V14
p315
sg75
(lp316
(VSHANNON
VJ A
tp317
asg52
I1935
sg40
V393
p318
sbag1
(g2
g3
NtRp319
(dp320
g48
Nsg44
VJ PLANT PHYSIOL
p321
sg46
V134
p322
sg75
(lp323
(VSHIOMI
VN
tp324
asg52
I1989
sg40
V151
p325
sbag1
(g2
g3
NtRp326
(dp327
g48
V10.1016/S0014-5793(96)01418-4
p328
sg44
VFEBS LETT
p329
sg46
V400
p330
sg75
(lp331
(VSPRENGER
VN
tp332
asg52
I1997
sg40
V355
p333
sbag1
(g2
g3
NtRp334
(dp335
g48
V10.1073/pnas.92.25.11652
p336
sg44
VP NATL ACAD SCI USA
p337
sg46
V92
p338
sg75
(lp339
(VSPRENGER
VN
tp340
asg52
I1995
sg40
V11652
p341
sbag1
(g2
g3
NtRp342
(dp343
g48
Nsg44
VSCI TECHNOLOGY FRUCT
p344
sg46
Nsg75
(lp345
(VUCHIYAMA
VT
tp346
asg52
I1993
sg40
V169
p347
sbag1
(g2
g3
NtRp348
(dp349
g48
Nsg44
VPLANTA
p350
sg46
V200
p351
sg75
(lp352
(VVANDENENDE
VW
tp353
asg52
I1996
sg40
VLANTA
p354
sbag1
(g2
g3
NtRp355
(dp356
g48
V10.1034/j.1399-3054.1996.970219.x
p357
sg44
VPHYSIOL PLANTARUM
p358
sg46
V97
p359
sg75
(lp360
(VVANDENENDE
VW
tp361
asg52
I1996
sg40
VHYSIOL
p362
sbag1
(g2
g3
NtRp363
(dp364
g48
V10.1046/j.1365-313X.1998.00230.x
p365
sg44
VPLANT J
p366
sg46
V15
p367
sg75
(lp368
(VVAN
VD E R MEER I M
tp369
asg52
I1998
sg40
VLANT
p370
sbag1
(g2
g3
NtRp371
(dp372
g48
V10.1046/j.1365-313X.1997.11030387.x
p373
sg44
VPLANT J
p374
sg46
V11
p375
sg75
(lp376
(VVIJN
VI
tp377
asg52
I1997
sg40
VLANT
p378
sbag1
(g2
g3
NtRp379
(dp380
g48
V10.1104/pp.117.4.1507
p381
sg44
VPLANT PHYSIOL
p382
sg46
V117
p383
sg75
(lp384
(VVIJN
VI
tp385
asg52
I1998
sg40
VLANT
p386
sbag1
(g2
g3
NtRp387
(dp388
g48
Nsg44
VZ PFLANZENPHYSIOL
p389
sg46
V112
p390
sg75
(lp391
(VWAGNER
VW
tp392
asg52
I1983
sg40
V359
p393
sbag1
(g2
g3
NtRp394
(dp395
g48
Nsg44
VSUCROSE METABOLISM B
p396
sg46
Nsg75
(lp397
(VWIEMKEN
VA
tp398
asg52
I1995
sg40
V178
p399
sbasb.