ccopy_reg
_reconstructor
p1
(ctethne.classes.paper
Paper
p2
c__builtin__
object
p3
NtRp4
(dp5
S'publisherCity'
p6
VROCKVILLE
p7
sS'reprintAddress'
p8
VButtner, M (reprint author), Univ Erlangen Nurnberg, Stuaudtstr 5, D-91058 Erlangen, Germany.
p9
sS'WC'
p10
VPlant Sciences
p11
sS'GA'
p12
V723JR
p13
sS'abstract'
p14
VA genomic clone and the corresporiding cDNA of a new Arabidopsis monosaccharide transporter AtSTP9 were isolated. Transport analysis of the expressed protein in yeast showed that AtSTP9 is an energy-dependent, uncoupler-sensitive, high-affinity monosaccharide transporter with a K-m for glucose in the micromolar range. In contrast to all previously characterized monosaccharide transporters, AtSTP9 shows an unusual specificity for glucose. Reverse transcriptase-polymerase chain reaction analyses revealed that AtSTP9 is exclusively expressed in flowers, and a more detailed approach using AtSTP9 promoter/reporter plants clearly showed that AtSTP9 expression is restricted to the male gametophyte. AtSTP9 expression is not found in other floral organs or vegetative tissues. Further localization on the cellular level using a specific antibody revealed that in contrast to the early accumulation of AtSTP9 transcripts in young pollen, the AtSTP9 protein is only found weakly in mature pollen but is most prominent in germinating pollen tubes. This preloading of pollen with mRNAs has been described for genes that are essential for pollen germination and/or pollen tube growth. The pollen-specific expression found for AtSTP9 is also observed for other sugar transporters and indicates that pollen development and germination require a highly regulated supply of sugars.
p15
sS'pageEnd'
p16
I190
sS'publisherAddress'
p17
V15501 MONONA DRIVE, ROCKVILLE, MD 20855 USA
p18
sS'documentType'
p19
VArticle
p20
sS'subject'
p21
VPlant Sciences
p22
sS'isoSource'
p23
VPlant Physiol.
p24
sS'timesCited'
p25
(lp26
I51
aVZ9 55
p27
asS'PT'
p28
VJ
sS'title'
p29
VFunctional Characterization And Expression Analyses Of The Glucose-Specific Atstp9 Monosaccharide Transporter In Pollen Of Arabidopsis
p30
sS'ISSN'
p31
(lp32
V0032-0889
p33
aVJ9 PLANT PHYSIOL
p34
asS'authors_full'
p35
(lp36
(VSCHNEIDEREIT
VA
tp37
a(VSCHOLZSTARKE
VJ
tp38
a(VBUTTNER
VM
tp39
asS'PG'
p40
I9
sS'PD'
p41
VSEP
p42
sS'pageStart'
p43
I182
sS'issue'
p44
I1
sS'journal'
p45
VPLANT PHYSIOLOGY
p46
sS'volume'
p47
V133
p48
sS'doi'
p49
V10.1104/pp.103.026674
p50
sS'authorAddress'
p51
VUniv Erlangen Nurnberg, D-91058 Erlangen, Germany.
p52
sS'date'
p53
I2003
sS'ER'
p54
V
sS'publisher'
p55
VAMER SOC PLANT BIOLOGISTS
p56
sS'authorKeywords'
p57
(lp58
VSUCROSE CARRIER
p59
aVHETEROLOGOUS EXPRESSION
p60
aVMALE GAMETOPHYTE
p61
aVCOMPANION CELLS
p62
aVXENOPUS-OOCYTES
p63
aVH+ SYMPORTER
p64
aVT-DNA
p65
aVTHALIANA
p66
aVGENE
p67
aVTRANSFORMATION
p68
asS'language'
p69
VEnglish
p70
sS'wosid'
p71
VWOS:000185429700020
p72
sS'citationCount'
p73
I39
sS'authors_init'
p74
(lp75
(VSCHNEIDEREIT
VA
tp76
a(VSCHOLZSTARKE
VJ
tp77
a(VBUTTNER
VM
tp78
asS'citedReferences'
p79
(lp80
g1
(g2
g3
NtRp81
(dp82
g49
V10.1007/BF00028908
p83
sg45
VPLANT MOL BIOL
p84
sg47
V20
p85
sg74
(lp86
(VBECKER
VD
tp87
asg53
I1992
sg43
VLANT
p88
sbag1
(g2
g3
NtRp89
(dp90
g49
Nsg45
VBIOCHEM SOC T
p91
sg47
V8
sg74
(lp92
(VBEYREUTHER
VK
tp93
asg53
I1980
sg43
V675
p94
sbag1
(g2
g3
NtRp95
(dp96
g49
Nsg45
VJ BIOL CHEM
p97
sg47
V269
p98
sg74
(lp99
(VBOORER
VK J
tp100
asg53
I1994
sg43
V20417
p101
sbag1
(g2
g3
NtRp102
(dp103
g49
V10.1016/0014-5793(92)80431-F
p104
sg45
VFEBS LETT
p105
sg47
V302
p106
sg74
(lp107
(VBOORER
VK J
tp108
asg53
I1992
sg43
V166
p109
sbag1
(g2
g3
NtRp110
(dp111
g49
Nsg45
VARABIDOPSIS ATLAS MO
p112
sg47
Nsg74
(lp113
(VBOWMAN
VJ
tp114
asg53
I1994
sg43
Nsbag1
(g2
g3
NtRp115
(dp116
g49
V10.1046/j.1365-3040.2000.00538.x
p117
sg45
VPLANT CELL ENVIRON
p118
sg47
V23
p119
sg74
(lp120
(VBUTTNER
VM
tp121
asg53
I2000
sg43
VLANT
p122
sbag1
(g2
g3
NtRp123
(dp124
g49
V10.1016/S0005-2736(00)00143-7
p125
sg45
VBBA
p126
sg47
V1465
p127
sg74
(lp128
(VBUTTNER
VM
tp129
asg53
I2000
sg43
V263
p130
sbag1
(g2
g3
NtRp131
(dp132
g49
V10.1046/j.1365-313x.1998.00343.x
p133
sg45
VPLANT J
p134
sg47
V16
p135
sg74
(lp136
(VCLOUGH
VS J
tp137
asg53
I1998
sg43
VLANT
p138
sbag1
(g2
g3
NtRp139
(dp140
g49
V10.1073/pnas.91.19.8837
p141
sg45
VP NATL ACAD SCI USA
p142
sg47
V91
p143
sg74
(lp144
(VESTRUCH
VJ J
tp145
asg53
I1994
sg43
V8837
p146
sbag1
(g2
g3
NtRp147
(dp148
g49
V10.1093/nar/20.6.1425
p149
sg45
VNUCLEIC ACIDS RES
p150
sg47
V20
p151
sg74
(lp152
(VGIETZ
VD
tp153
asg53
I1992
sg43
V1425
p154
sbag1
(g2
g3
NtRp155
(dp156
g49
V10.1073/pnas.091097998
p157
sg45
VP NATL ACAD SCI USA
p158
sg47
V98
p159
sg74
(lp160
(VGOETZ
VM
tp161
asg53
I2001
sg43
V6522
p162
sbag1
(g2
g3
NtRp163
(dp164
g49
V10.1016/S0022-2836(83)80284-8
p165
sg45
VJ MOL BIOL
p166
sg47
V166
p167
sg74
(lp168
(VHANAHAN
VD
tp169
asg53
I1983
sg43
V557
p170
sbag1
(g2
g3
NtRp171
(dp172
g49
V10.1016/0147-619X(80)90110-9
p173
sg45
VPLASMID
p174
sg47
V3
sg74
(lp175
(VHOLSTERS
VM
tp176
asg53
I1980
sg43
VLASMID
p177
sbag1
(g2
g3
NtRp178
(dp179
g49
Nsg45
VPLANT CELL
p180
sg47
V11
p181
sg74
(lp182
(VIMLAU
VA
tp183
asg53
I1999
sg43
VLANT
p184
sbag1
(g2
g3
NtRp185
(dp186
g49
V10.1105/tpc.11.12.2283
p187
sg45
VPLANT CELL
p188
sg47
V11
p189
sg74
(lp190
(VKRYSAN
VP J
tp191
asg53
I1999
sg43
VLANT
p192
sbag1
(g2
g3
NtRp193
(dp194
g49
V10.1073/pnas.93.15.8145
p195
sg45
VP NATL ACAD SCI USA
p196
sg47
V93
p197
sg74
(lp198
(VKRYSAN
VP J
tp199
asg53
I1996
sg43
V8145
p200
sbag1
(g2
g3
NtRp201
(dp202
g49
V10.1126/science.275.5304.1298
p203
sg45
VSCIENCE
p204
sg47
V275
p205
sg74
(lp206
(VKUHN
VC
tp207
asg53
I1997
sg43
V1298
p208
sbag1
(g2
g3
NtRp209
(dp210
g49
V10.1016/S0014-5793(99)00843-1
p211
sg45
VFEBS LETT
p212
sg47
V454
p213
sg74
(lp214
(VLEMOINE
VR
tp215
asg53
I1999
sg43
V325
p216
sbag1
(g2
g3
NtRp217
(dp218
g49
V10.1023/A:1006389013179
p219
sg45
VPLANT MOL BIOL
p220
sg47
V41
p221
sg74
(lp222
(VMADDISON
VA L
tp223
asg53
I1999
sg43
VLANT
p224
sbag1
(g2
g3
NtRp225
(dp226
g49
Nsg45
VPLANT CELL
p227
sg47
V1
sg74
(lp228
(VMASCARENHAS
VJ P
tp229
asg53
I1989
sg43
VLANT
p230
sbag1
(g2
g3
NtRp231
(dp232
g49
V10.1046/j.1365-313x.2000.00934.x
p233
sg45
VPLANT J
p234
sg47
V24
p235
sg74
(lp236
(VMEYER
VS
tp237
asg53
I2000
sg43
VLANT
p238
sbag1
(g2
g3
NtRp239
(dp240
g49
Nsg45
VEMBO J
p241
sg47
V11
p242
sg74
(lp243
(VRIESMEIER
VJ W
tp244
asg53
I1992
sg43
V4705
p245
sbag1
(g2
g3
NtRp246
(dp247
g49
Nsg45
VZ PFLANZENPHYSIOL
p248
sg47
V114
p249
sg74
(lp250
(VSAUER
VN
tp251
asg53
I1984
sg43
V367
p252
sbag1
(g2
g3
NtRp253
(dp254
g49
Nsg45
VEMBO J
p255
sg47
V9
sg74
(lp256
(VSAUER
VN
tp257
asg53
I1990
sg43
V3045
p258
sbag1
(g2
g3
NtRp259
(dp260
g49
V10.1046/j.1365-313X.1993.04040601.x
p261
sg45
VPLANT J
p262
sg47
V4
sg74
(lp263
(VSAUER
VN
tp264
asg53
I1993
sg43
VLANT
p265
sbag1
(g2
g3
NtRp266
(dp267
g49
V10.1104/pp.012666
p268
sg45
VPLANT PHYSIOL
p269
sg47
V131
p270
sg74
(lp271
(VSCHOLZ-STARKE
VJ
tp272
asg53
I2003
sg43
VLANT
p273
sbag1
(g2
g3
NtRp274
(dp275
g49
V10.1046/j.1365-313x.2000.00935.x
p276
sg45
VPLANT J
p277
sg47
V24
p278
sg74
(lp279
(VSHERSON
VS M
tp280
asg53
I2000
sg43
VLANT
p281
sbag1
(g2
g3
NtRp282
(dp283
g49
V10.1046/j.1365-313X.1999.00527.x
p284
sg45
VPLANT J
p285
sg47
V19
p286
sg74
(lp287
(VSTADLER
VR
tp288
asg53
I1999
sg43
VLANT
p289
sbag1
(g2
g3
NtRp290
(dp291
g49
Nsg45
VPLANT CELL
p292
sg47
V7
sg74
(lp293
(VSTADLER
VR
tp294
asg53
I1995
sg43
VLANT
p295
sbag1
(g2
g3
NtRp296
(dp297
g49
Nsg45
VIN PRESS PLANT PHYSL
p298
sg47
Nsg74
(lp299
(VSTADLER
VR
tp300
asg53
I2003
sg43
Nsbag1
(g2
g3
NtRp301
(dp302
g49
Nsg45
VBOT ACTA
p303
sg47
V109
p304
sg74
(lp305
(VSTADLER
VR
tp306
asg53
I1996
sg43
V299
p307
sbag1
(g2
g3
NtRp308
(dp309
g49
V10.1046/j.1365-313X.1999.00372.x
p310
sg45
VPLANT J
p311
sg47
V17
p312
sg74
(lp313
(VTRUERNIT
VE
tp314
asg53
I1999
sg43
VLANT
p315
sbag1
(g2
g3
NtRp316
(dp317
g49
Nsg45
VPLANTA
p318
sg47
V196
p319
sg74
(lp320
(VTRUERNIT
VE
tp321
asg53
I1995
sg43
VLANTA
p322
sbag1
(g2
g3
NtRp323
(dp324
g49
V10.1105/tpc.8.12.2169
p325
sg45
VPLANT CELL
p326
sg47
V8
sg74
(lp327
(VTRUERNIT
VE
tp328
asg53
I1996
sg43
VLANT
p329
sbag1
(g2
g3
NtRp330
(dp331
g49
V10.1105/tpc.12.5.787
p332
sg45
VPLANT CELL
p333
sg47
V12
p334
sg74
(lp335
(VWEBER
VA
tp336
asg53
I2000
sg43
VLANT
p337
sbag1
(g2
g3
NtRp338
(dp339
g49
V10.1105/tpc.9.6.895
p340
sg45
VPLANT CELL
p341
sg47
V9
sg74
(lp342
(VWEBER
VH
tp343
asg53
I1997
sg43
VLANT
p344
sbag1
(g2
g3
NtRp345
(dp346
g49
V10.1016/S0014-5793(99)01698-1
p347
sg45
VFEBS LETT
p348
sg47
V464
p349
sg74
(lp350
(VWIECZORKE
VR
tp351
asg53
I1999
sg43
V123
p352
sbag1
(g2
g3
NtRp353
(dp354
g49
V10.1104/pp.118.1.297
p355
sg45
VPLANT PHYSIOL
p356
sg47
V118
p357
sg74
(lp358
(VYLSTRA
VB
tp359
asg53
I1998
sg43
VLANT
p360
sbag1
(g2
g3
NtRp361
(dp362
g49
V10.1016/S1360-1385(00)01654-X
p363
sg45
VTRENDS PLANT SCI
p364
sg47
V5
sg74
(lp365
(VZHENG
VZ L
tp366
asg53
I2000
sg43
V298
p367
sbasb.