ccopy_reg
_reconstructor
p1
(ctethne.classes.paper
Paper
p2
c__builtin__
object
p3
NtRp4
(dp5
S'publisherCity'
p6
VROCKVILLE
p7
sS'reprintAddress'
p8
VScholthof, KBG (reprint author), Texas A&M Univ, Dept Plant Pathol & Microbiol, 2132 TAMU, College Stn, TX 77843 USA.
p9
sS'WC'
p10
VPlant Sciences
p11
sS'GA'
p12
V030QC
p13
sS'FX'
p14
(lp15
VThis work was supported by the Texas Advanced Research Program (grant
p16
aVno. 000517-0002-2009 to K.-B.G.S.).
p17
asS'abstract'
p18
VPanicum mosaic virus (PMV) and its satellite virus (SPMV) together infect several small grain crops, biofuel, and forage and turf grasses. Here, we establish the emerging monocot model Brachypodium (Brachypodium distachyon) as an alternate host to study PMV- and SPMV-host interactions and viral synergism. Infection of Brachypodium with PMV+SPMV induced chlorosis and necrosis of leaves, reduced seed set, caused stunting, and lowered biomass, more than PMV alone. Toward gaining a molecular understanding of PMV- and SPMV-affected host processes, we used a custom-designed microarray and analyzed global changes in gene expression of PMV- and PMV+SPMV-infected plants. PMV infection by itself modulated expression of putative genes functioning in carbon metabolism, photosynthesis, metabolite transport, protein modification, cell wall remodeling, and cell death. Many of these genes were additively altered in a coinfection with PMV+SPMV and correlated to the exacerbated symptoms of PMV+SPMV coinfected plants. PMV+SPMV coinfection also uniquely altered expression of certain genes, including transcription and splicing factors. Among the host defenses commonly affected in PMV and PMV+SPMV coinfections, expression of an antiviral RNA silencing component, SILENCING DEFECTIVE3, was suppressed. Several salicylic acid signaling components, such as pathogenesis-related genes and WRKY transcription factors, were up-regulated. By contrast, several genes in jasmonic acid and ethylene responses were down-regulated. Strikingly, numerous protein kinases, including several classes of receptor-like kinases, were misexpressed. Taken together, our results identified distinctly altered immune responses in monocot antiviral defenses and provide insights into monocot viral synergism.
p19
sS'pageEnd'
p20
I1452
sS'date'
p21
I2012
sS'documentType'
p22
VArticle
p23
sS'subject'
p24
VPlant Sciences
p25
sS'isoSource'
p26
VPlant Physiol.
p27
sS'timesCited'
p28
(lp29
I2
aVZ9 2
p30
asS'funding'
p31
(lp32
(VTexas Advanced Research Program
V000517-0002-2009
tp33
asS'PT'
p34
VJ
sS'title'
p35
VCharacterization Of A Viral Synergism In The Monocot Brachypodium Distachyon Reveals Distinctly Altered Host Molecular Processes Associated With Disease
p36
sS'ISSN'
p37
(lp38
V0032-0889
p39
aVJ9 PLANT PHYSIOL
p40
asS'authors_full'
p41
(lp42
(VMANDADI
VKRANTHI K
tp43
a(VSCHOLTHOF
VKARENBETH G
tp44
asS'PG'
p45
I21
sS'PD'
p46
VNOV
p47
sS'pageStart'
p48
I1432
sS'issue'
p49
I3
sS'journal'
p50
VPLANT PHYSIOLOGY
p51
sS'volume'
p52
V160
p53
sS'doi'
p54
V10.1104/pp.112.204362
p55
sS'emailAddress'
p56
Vkbgs@tamu.edu
p57
sS'authorAddress'
p58
V[Mandadi, Kranthi K.; Scholthof, Karen-Beth G.] Texas A&M Univ, Dept Plant Pathol & Microbiol, College Stn, TX 77843 USA.
p59
sS'publisherAddress'
p60
V15501 MONONA DRIVE, ROCKVILLE, MD 20855 USA
p61
sS'ER'
p62
V
sS'publisher'
p63
VAMER SOC PLANT BIOLOGISTS
p64
sS'authorKeywords'
p65
(lp66
VPANICUM-MOSAIC-VIRUS
p67
aVAGROBACTERIUM-MEDIATED TRANSFORMATION
p68
aVDEPENDENT RNA-POLYMERASE
p69
aVPLANT SATELLITE VIRUSES
p70
aVSALICYLIC-ACID
p71
aVGENE-EXPRESSION
p72
aVCAPSID PROTEIN
p73
aVSIGNAL-TRANSDUCTION
p74
aVRESISTANCE GENE
p75
aVINNATE IMMUNITY
p76
asS'language'
p77
VEnglish
p78
sS'wosid'
p79
VWOS:000310584200022
p80
sS'citationCount'
p81
I137
sS'authors_init'
p82
(lp83
(VMANDADI
VK K
tp84
a(VSCHOLTHOF
VK B G
tp85
asS'citedReferences'
p86
(lp87
g1
(g2
g3
NtRp88
(dp89
g54
V10.1094/MPMI-21-5-0507
p90
sg50
VMOL PLANT MICROBE IN
p91
sg52
V21
p92
sg82
(lp93
(VAFZAL
VA J
tp94
asg21
I2008
sg48
V507
p95
sbag1
(g2
g3
NtRp96
(dp97
g54
V10.1111/j.1365-313X.2006.02861.x
p98
sg50
VPLANT J
p99
sg52
V48
p100
sg82
(lp101
(VALAMILLO
VJ M
tp102
asg21
I2006
sg48
VLANT
p103
sbag1
(g2
g3
NtRp104
(dp105
g54
V10.1016/j.semcdb.2009.06.001
p106
sg50
VSEMIN CELL DEV BIOL
p107
sg52
V20
p108
sg82
(lp109
(VALVARADO
VV
tp110
asg21
I2009
sg48
V1032
p111
sbag1
(g2
g3
NtRp112
(dp113
g54
V10.3389/fpls.2011.00112
p114
sg50
VFront Plant Sci
p115
sg52
V2
sg82
(lp116
(VALVARADO
VVERIA Y
tp117
asg21
I2011
sg48
V112
p118
sbag1
(g2
g3
NtRp119
(dp120
g54
V10.1111/j.1744-7909.2011.01043.x
p121
sg50
VJ INTEGR PLANT BIOL
p122
sg52
V53
p123
sg82
(lp124
(VAN
VC F
tp125
asg21
I2011
sg48
V412
p126
sbag1
(g2
g3
NtRp127
(dp128
g54
V10.1186/1471-2105-9-465
p129
sg50
VBMC BIOINFORMATICS
p130
sg52
V9
sg82
(lp131
(VARVIDSSON
VS
tp132
asg21
I2008
sg48
Nsbag1
(g2
g3
NtRp133
(dp134
g54
V10.1104/pp.108.121038
p135
sg50
VPLANT PHYSIOL
p136
sg52
V148
p137
sg82
(lp138
(VASCENCIO-IBANEZ
VJ T
tp139
asg21
I2008
sg48
VLANT
p140
sbag1
(g2
g3
NtRp141
(dp142
g54
V10.1094/MPMI.2004.17.8.853
p143
sg50
VMOL PLANT MICROBE IN
p144
sg52
V17
p145
sg82
(lp146
(VAYLIFFE
VM A
tp147
asg21
I2004
sg48
V853
p148
sbag1
(g2
g3
NtRp149
(dp150
g54
V10.1371/journal.pone.0029009
p151
sg50
VPLOS ONE
p152
sg52
V6
sg82
(lp153
(VBAEBLER
VS
tp154
asg21
I2011
sg48
VLOS
p155
sbag1
(g2
g3
NtRp156
(dp157
g54
V10.1006/viro.1995.0068
p158
sg50
VVIROLOGY
p159
sg52
VIROLOGY
p160
sg82
(lp161
(VBAN
VN
tp162
asg21
I1995
sg48
V571
p163
sbag1
(g2
g3
NtRp164
(dp165
g54
V10.1038/nsb1095-882
p166
sg50
VNAT STRUCT BIOL
p167
sg52
V2
sg82
(lp168
(VBAN
VN
tp169
asg21
I1995
sg48
V882
p170
sbag1
(g2
g3
NtRp171
(dp172
g54
V10.1186/17430422X-3-12
p173
sg50
VVIROL J
p174
sg52
VIROL
p175
sg82
(lp176
(VBATTEN
VJ S
tp177
asg21
I2006
sg48
Nsbag1
(g2
g3
NtRp178
(dp179
g54
V10.1016/j.febslet.2006.04.006
p180
sg50
VFEBS LETT
p181
sg52
V580
p182
sg82
(lp183
(VBATTEN
VJ S
tp184
asg21
I2006
sg48
V2591
p185
sbag1
(g2
g3
NtRp186
(dp187
g54
V10.1893/0005-3155(2004)75<65:COTASP>2.0.CO;2
p188
sg50
VBIOS 
p189
sg52
V75
p190
sg82
(lp191
(VBEDELL
VVICTORIA
tp192
asg21
I2004
sg48
V65
p193
sbag1
(g2
g3
NtRp194
(dp195
g54
V10.1073/pnas.92.19.8675
p196
sg50
VP NATL ACAD SCI USA
p197
sg52
V92
p198
sg82
(lp199
(VBELL
VE
tp200
asg21
I1995
sg48
V8675
p201
sbag1
(g2
g3
NtRp202
(dp203
g54
Nsg50
VPLANT CELL
p204
sg52
V11
p205
sg82
(lp206
(VBENDAHMANE
VA
tp207
asg21
I1999
sg48
VLANT
p208
sbag1
(g2
g3
NtRp209
(dp210
g54
Nsg50
VJ ROY STAT SOC B MET
p211
sg52
V57
p212
sg82
(lp213
(VBENJAMINI
VY
tp214
asg21
I1995
sg48
V289
p215
sbag1
(g2
g3
NtRp216
(dp217
g54
V10.1016/j.copbio.2010.03.006
p218
sg50
VCURR OPIN BIOTECH
p219
sg52
V21
p220
sg82
(lp221
(VBEVAN
VM W
tp222
asg21
I2010
sg48
V211
p223
sbag1
(g2
g3
NtRp224
(dp225
g54
V10.1146/annurev.cellbio.16.1.1
p226
sg50
VANNU REV CELL DEV BI
p227
sg52
V16
p228
sg82
(lp229
(VBLEECKER
VA B
tp230
asg21
I2000
sg48
V1
sbag1
(g2
g3
NtRp231
(dp232
g54
V10.1104/pp.111.179531
p233
sg50
VPLANT PHYSIOL
p234
sg52
V157
p235
sg82
(lp236
(VBRKLJACIC
VJ
tp237
asg21
I2011
sg48
VLANT
p238
sbag1
(g2
g3
NtRp239
(dp240
g54
V10.1073/pnas.1000675107
p241
sg50
VP NATL ACAD SCI USA
p242
sg52
V107
p243
sg82
(lp244
(VBRUTUS
VA
tp245
asg21
I2010
sg48
V9452
p246
sbag1
(g2
g3
NtRp247
(dp248
g54
Nsg50
VPHYTOPATHOLOGY
p249
sg52
V74
p250
sg82
(lp251
(VBUZEN
VF G
tp252
asg21
I1984
sg48
VHYTOPATHOLOGY
p253
sbag1
(g2
g3
NtRp254
(dp255
g54
V10.1094/PDIS.1999.83.10.902
p256
sg50
VPLANT DIS
p257
sg52
V83
p258
sg82
(lp259
(VCABRERA
VO
tp260
asg21
I1999
sg48
VLANT
p261
sbag1
(g2
g3
NtRp262
(dp263
g54
V10.1186/1472-6750-11-53
p264
sg50
VBMC BIOTECHNOL
p265
sg52
V11
p266
sg82
(lp267
(VCAO
VS H
tp268
asg21
I2011
sg48
Nsbag1
(g2
g3
NtRp269
(dp270
g54
V10.1016/S0065-3527(10)76003-6
p271
sg50
VADV VIRUS RES
p272
sg52
V76
p273
sg82
(lp274
(VCARR
VJ P
tp275
asg21
I2010
sg48
V57
p276
sbag1
(g2
g3
NtRp277
(dp278
g54
V10.1007/s00239-003-2564-9
p279
sg50
VJ MOL EVOL
p280
sg52
V58
p281
sg82
(lp282
(VCHAW
VS M
tp283
asg21
I2004
sg48
V424
p284
sbag1
(g2
g3
NtRp285
(dp286
g54
V10.1074/jbc.M109.093427
p287
sg50
VJ BIOL CHEM
p288
sg52
V285
p289
sg82
(lp290
(VCHEN
VX W
tp291
asg21
I2010
sg48
V10454
p292
sbag1
(g2
g3
NtRp293
(dp294
g54
V10.1038/ng1034
p295
sg50
VNAT GENET
p296
sg52
V32
p297
sg82
(lp298
(VCHUAQUI
VR F
tp299
asg21
I2002
sg48
V509
p300
sbag1
(g2
g3
NtRp301
(dp302
g54
V10.1371/journal.pone.0038333
p303
sg50
VPLOS ONE
p304
sg52
V7
sg82
(lp305
(VCUI
VY
tp306
asg21
I2012
sg48
VLOS
p307
sbag1
(g2
g3
NtRp308
(dp309
g54
V10.1093/emboj/20.8.2069
p310
sg50
VEMBO J
p311
sg52
V20
p312
sg82
(lp313
(VDALMAY
VT
tp314
asg21
I2001
sg48
V2069
p315
sbag1
(g2
g3
NtRp316
(dp317
g54
V10.1016/0042-6822(67)90174-2
p318
sg50
VVIROLOGY
p319
sg52
VIROLOGY
p320
sg82
(lp321
(VDAMIRDAGIS
S''
tp322
asg21
I1967
sg48
V296
p323
sbag1
(g2
g3
NtRp324
(dp325
g54
V10.1371/journal.ppat.0020002
p326
sg50
VPLOS PATHOG
p327
sg52
V2
sg82
(lp328
(VDARDICK
VC
tp329
asg21
I2006
sg48
VLOS
p330
sbag1
(g2
g3
NtRp331
(dp332
g54
V10.1016/S0014-5793(00)02177-3
p333
sg50
VFEBS LETT
p334
sg52
V485
p335
sg82
(lp336
(VDESVOYES
VB
tp337
asg21
I2000
sg48
V25
p338
sbag1
(g2
g3
NtRp339
(dp340
g54
V10.1073/pnas.020367497
p341
sg50
VP NATL ACAD SCI USA
p342
sg52
V97
p343
sg82
(lp344
(VDINESH-KUMAR
VS P
tp345
asg21
I2000
sg48
V1908
p346
sbag1
(g2
g3
NtRp347
(dp348
g54
V10.1038/nrg2812
p349
sg50
VNAT REV GENET
p350
sg52
V11
p351
sg82
(lp352
(VDODDS
VP N
tp353
asg21
I2010
sg48
V539
p354
sbag1
(g2
g3
NtRp355
(dp356
g54
V10.1073/pnas.89.20.9789
p357
sg50
VP NATL ACAD SCI USA
p358
sg52
V89
p359
sg82
(lp360
(VDONG
VJ G
tp361
asg21
I1992
sg48
V9789
p362
sbag1
(g2
g3
NtRp363
(dp364
g54
V10.1104/pp.127.4.1539
p365
sg50
VPLANT PHYSIOL
p366
sg52
V127
p367
sg82
(lp368
(VDRAPER
VJ
tp369
asg21
I2001
sg48
VLANT
p370
sbag1
(g2
g3
NtRp371
(dp372
g54
V10.1093/nar/gkq310
p373
sg50
VNUCLEIC ACIDS RES
p374
sg52
V38
p375
sg82
(lp376
(VDU
VZ
tp377
asg21
I2010
sg48
VW64
p378
sbag1
(g2
g3
NtRp379
(dp380
g54
V10.1016/j.pbi.2005.05.012
p381
sg50
VCURR OPIN PLANT BIOL
p382
sg52
V8
sg82
(lp383
(VDUNOYER
VP
tp384
asg21
I2005
sg48
V415
p385
sbag1
(g2
g3
NtRp386
(dp387
g54
V10.1016/j.pbi.2011.03.013
p388
sg50
VCURR OPIN PLANT BIOL
p389
sg52
V14
p390
sg82
(lp391
(VELENA
VS F
tp392
asg21
I2011
sg48
V372
p393
sbag1
(g2
g3
NtRp394
(dp395
g54
V10.1016/j.virol.2009.10.006
p396
sg50
VVIROLOGY
p397
sg52
VIROLOGY
p398
sg82
(lp399
(VEVERETT
VA L
tp400
asg21
I2010
sg48
V37
p401
sbag1
(g2
g3
NtRp402
(dp403
g54
V10.1371/journal.pone.0018880
p404
sg50
VPLOS ONE
p405
sg52
V6
sg82
(lp406
(VFERNANDEZ-CALVINO
VL
tp407
asg21
I2011
sg48
VLOS
p408
sbag1
(g2
g3
NtRp409
(dp410
g54
Nsg50
VPLANT AN GEN 18 C JA
p411
sg52
Nsg82
(lp412
(VFOX
VS E
tp413
asg21
I2010
sg48
VLANT
p414
sbag1
(g2
g3
NtRp415
(dp416
g54
V10.1094/MPMI-22-11-1431
p417
sg50
VMOL PLANT MICROBE IN
p418
sg52
V22
p419
sg82
(lp420
(VGARCIA-MARCOS
VA
tp421
asg21
I2009
sg48
V1431
p422
sbag1
(g2
g3
NtRp423
(dp424
g54
V[10.1139/g09-079, 10.1139/G09-079]
p425
sg50
VGENOME
p426
sg52
V53
p427
sg82
(lp428
(VGARVIN
VD F
tp429
asg21
I2010
sg48
V1
sbag1
(g2
g3
NtRp430
(dp431
g54
V10.1094/Phyto-77-162
p432
sg50
VPHYTOPATHOLOGY
p433
sg52
V77
p434
sg82
(lp435
(VGOLDBERG
VK B
tp436
asg21
I1987
sg48
VHYTOPATHOLOGY
p437
sbag1
(g2
g3
NtRp438
(dp439
g54
V10.1016/S1360-1385(02)02261-6
p440
sg50
VTRENDS PLANT SCI
p441
sg52
V7
sg82
(lp442
(VGOMEZ-GOMEZ
VL
tp443
asg21
I2002
sg48
V251
p444
sbag1
(g2
g3
NtRp445
(dp446
g54
V[10.1111/j.1364-3703.2004.00202.x, 10.1046/J.1364-3703.2004.00202.X]
p447
sg50
VMOL PLANT PATHOL
p448
sg52
V5
sg82
(lp449
(VGONZALEZ-JARA
VP
tp450
asg21
I2004
sg48
V29
p451
sbag1
(g2
g3
NtRp452
(dp453
g54
V10.1016/0042-6822(74)90137-8
p454
sg50
VVIROLOGY
p455
sg52
VIROLOGY
p456
sg82
(lp457
(VGOODMAN
VR M
tp458
asg21
I1974
sg48
V16
p459
sbag1
(g2
g3
NtRp460
(dp461
g54
V10.1093/nar/gkr944
p462
sg50
VNUCLEIC ACIDS RES
p463
sg52
V40
p464
sg82
(lp465
(VGOODSTEIN
VD M
tp466
asg21
I2012
sg48
VD1178
p467
sbag1
(g2
g3
NtRp468
(dp469
g54
V10.1186/1471-2105-10-356
p470
sg50
VBMC BIOINFORMATICS
p471
sg52
V10
p472
sg82
(lp473
(VHAN
VM V
tp474
asg21
I2009
sg48
Nsbag1
(g2
g3
NtRp475
(dp476
g54
V10.1104/pp.111.173906
p477
sg50
VPLANT PHYSIOL
p478
sg52
V156
p479
sg82
(lp480
(VHANSSEN
VI M
tp481
asg21
I2011
sg48
VLANT
p482
sbag1
(g2
g3
NtRp483
(dp484
g54
V10.1016/j.tplants.2008.03.005
p485
sg50
VTRENDS PLANT SCI
p486
sg52
V13
p487
sg82
(lp488
(VHEIL
VM
tp489
asg21
I2008
sg48
V264
p490
sbag1
(g2
g3
NtRp491
(dp492
g54
V10.1073/pnas.0402887101
p493
sg50
VP NATL ACAD SCI USA
p494
sg52
V101
p495
sg82
(lp496
(VHIGUCHI
VM
tp497
asg21
I2004
sg48
V8821
p498
sbag1
(g2
g3
NtRp499
(dp500
g54
V10.1186/1471-2229-8-112
p501
sg50
VBMC PLANT BIOL
p502
sg52
V8
sg82
(lp503
(VHONG
VS Y
tp504
asg21
I2008
sg48
Nsbag1
(g2
g3
NtRp505
(dp506
g54
V10.3390/v1031325
p507
sg50
VVIRUSES
p508
sg52
VIRUSES
p509
sg82
(lp510
(VHU
VC C
tp511
asg21
I2009
sg48
V1325
p512
sbag1
(g2
g3
NtRp513
(dp514
g54
V10.1104/pp.104.056028
p515
sg50
VPLANT PHYSIOL
p516
sg52
V137
p517
sg82
(lp518
(VHUANG
VZ L
tp519
asg21
I2005
sg48
VLANT
p520
sbag1
(g2
g3
NtRp521
(dp522
g54
V10.1139/G06-087
p523
sg50
VGENOME
p524
sg52
V49
p525
sg82
(lp526
(VHUO
VN X
tp527
asg21
I2006
sg48
V1099
p528
sbag1
(g2
g3
NtRp529
(dp530
g54
V10.1073/pnas.0703203104
p531
sg50
VP NATL ACAD SCI USA
p532
sg52
V104
p533
sg82
(lp534
(VISHIBASHI
VK
tp535
asg21
I2007
sg48
V13833
p536
sbag1
(g2
g3
NtRp537
(dp538
g54
V10.1111/j.1365-313X.2011.04765.x
p539
sg50
VPLANT J
p540
sg52
V69
p541
sg82
(lp542
(VJAKUBIEC
VA
tp543
asg21
I2012
sg48
VLANT
p544
sbag1
(g2
g3
NtRp545
(dp546
g54
V10.1046/j.0960-7412.2001.01241.x
p547
sg50
VPLANT J
p548
sg52
V29
p549
sg82
(lp550
(VJENSEN
VA B
tp551
asg21
I2002
sg48
VLANT
p552
sbag1
(g2
g3
NtRp553
(dp554
g54
V10.1111/j.1364-3703.2011.00743.x
p555
sg50
VMOL PLANT PATHOL
p556
sg52
V13
p557
sg82
(lp558
(VJIA
VM A
tp559
asg21
I2012
sg48
V251
p560
sbag1
(g2
g3
NtRp561
(dp562
g54
V10.1007/s00709-010-0251-4
p563
sg50
VPROTOPLASMA
p564
sg52
V248
p565
sg82
(lp566
(VJO
VY
tp567
asg21
I2011
sg48
VROTOPLASMA
p568
sbag1
(g2
g3
NtRp569
(dp570
g54
V10.1016/S1360-1385(02)02311-7
p571
sg50
VTRENDS PLANT SCI
p572
sg52
V7
sg82
(lp573
(VJORDAN
VT
tp574
asg21
I2002
sg48
V392
p575
sbag1
(g2
g3
NtRp576
(dp577
g54
V10.1016/S0065-3527(06)66004-1
p578
sg50
VADV VIRUS RES
p579
sg52
V66
p580
sg82
(lp581
(VKACHROO
VP
tp582
asg21
I2006
sg48
V161
p583
sbag1
(g2
g3
NtRp584
(dp585
g54
V10.1105/tpc.12.5.677
p586
sg50
VPLANT CELL
p587
sg52
V12
p588
sg82
(lp589
(VKACHROO
VP
tp590
asg21
I2000
sg48
VLANT
p591
sbag1
(g2
g3
NtRp592
(dp593
g54
V10.1038/sj.emboj.7601674
p594
sg50
VEMBO J
p595
sg52
V26
p596
sg82
(lp597
(VKIM
VS H
tp598
asg21
I2007
sg48
V2169
p599
sbag1
(g2
g3
NtRp600
(dp601
g54
Nsg50
VPLANT CELL
p602
sg52
V5
sg82
(lp603
(VKOHM
VB A
tp604
asg21
I1993
sg48
VLANT
p605
sbag1
(g2
g3
NtRp606
(dp607
g54
V10.1093/bioinformatics/btm404
p608
sg50
VBIOINFORMATICS
p609
sg52
V23
p610
sg82
(lp611
(VLARKIN
VM A
tp612
asg21
I2007
sg48
V2947
p613
sbag1
(g2
g3
NtRp614
(dp615
g54
V[10.1111/j.1364-3703.2007.00441.x, 10.1111/J.1364-3703.2007.00441.X]
p616
sg50
VMOL PLANT PATHOL
p617
sg52
V9
sg82
(lp618
(VLATHAM
VJ R
tp619
asg21
I2008
sg48
V85
p620
sbag1
(g2
g3
NtRp621
(dp622
g54
Nsg50
VPLANT PHYSIOL
p623
sg52
V115
p624
sg82
(lp625
(VLENNON
VA M
tp626
asg21
I1997
sg48
VLANT
p627
sbag1
(g2
g3
NtRp628
(dp629
g54
V10.1016/S0092-8674(00)80357-8
p630
sg50
VCELL
p631
sg52
V90
p632
sg82
(lp633
(VLI
VJ M
tp634
asg21
I1997
sg48
V929
p635
sbag1
(g2
g3
NtRp636
(dp637
g54
VDOI 10.1042/BST0110591
p638
sg50
VBIOCHEM SOC T
p639
sg52
V603
p640
sg82
(lp641
(VLICHTENTHALER
VH K
tp642
asg21
I1983
sg48
V591
p643
sbag1
(g2
g3
NtRp644
(dp645
g54
V10.1146/annurev.arplant.57.032905.105316
p646
sg50
VANNU REV PLANT BIOL
p647
sg52
V58
p648
sg82
(lp649
(VLIM
VP O
tp650
asg21
I2007
sg48
V115
p651
sbag1
(g2
g3
NtRp652
(dp653
g54
V10.1006/meth.2001.1262
p654
sg50
VMETHODS
p655
sg52
V25
p656
sg82
(lp657
(VLIVAK
VK J
tp658
asg21
I2001
sg48
V402
p659
sbag1
(g2
g3
NtRp660
(dp661
g54
V10.1105/tpc.007468
p662
sg50
VPLANT CELL
p663
sg52
V15
p664
sg82
(lp665
(VLORENZO
VO
tp666
asg21
I2003
sg48
VLANT
p667
sbag1
(g2
g3
NtRp668
(dp669
g54
V10.1104/pp.109.139220
p670
sg50
VPLANT PHYSIOL
p671
sg52
V150
p672
sg82
(lp673
(VMANDADI
VK K
tp674
asg21
I2009
sg48
VLANT
p675
sbag1
(g2
g3
NtRp676
(dp677
g54
V10.1046/j.1365-313x.1999.00579.x
p678
sg50
VPLANT J
p679
sg52
V20
p680
sg82
(lp681
(VMARTINEZ-GARCIA
VJ F
tp682
asg21
I1999
sg48
VLANT
p683
sbag1
(g2
g3
NtRp684
(dp685
g54
V10.1016/0042-6822(87)90471-5
p686
sg50
VVIROLOGY
p687
sg52
VIROLOGY
p688
sg82
(lp689
(VMASUTA
VC
tp690
asg21
I1987
sg48
V329
p691
sbag1
(g2
g3
NtRp692
(dp693
g54
V10.1105/tpc.111.087346
p694
sg50
VPLANT CELL
p695
sg52
V23
p696
sg82
(lp697
(VMOORE
VJ W
tp698
asg21
I2011
sg48
VLANT
p699
sbag1
(g2
g3
NtRp700
(dp701
g54
Nsg50
VPLANT PHYSIOL
p702
sg52
V140
p703
sg82
(lp704
(VMUR
VL A J
tp705
asg21
I2006
sg48
VLANT
p706
sbag1
(g2
g3
NtRp707
(dp708
g54
V10.1016/S1360-1385(99)01390-4
p709
sg50
VTRENDS PLANT SCI
p710
sg52
V4
sg82
(lp711
(VMURPHY
VA M
tp712
asg21
I1999
sg48
V155
p713
sbag1
(g2
g3
NtRp714
(dp715
g54
V10.1186/1743-422X-9-101
p716
sg50
VVIROL J
p717
sg52
VIROL
p718
sg82
(lp719
(VPOSTNIKOVA
VO A
tp720
asg21
I2012
sg48
Nsbag1
(g2
g3
NtRp721
(dp722
g54
Nsg50
VPHYTOPATHOLOGY
p723
sg52
V65
p724
sg82
(lp725
(VNIBLETT
VC L
tp726
asg21
I1975
sg48
VHYTOPATHOLOGY
p727
sbag1
(g2
g3
NtRp728
(dp729
g54
V10.1128/JVI.79.15.9756-9764.2005
p730
sg50
VJ VIROL
p731
sg52
V79
p732
sg82
(lp733
(VOMAROV
VR T
tp734
asg21
I2005
sg48
V9756
p735
sbag1
(g2
g3
NtRp736
(dp737
g54
V10.1016/j.virusres.2012.02.012
p738
sg50
VVIRUS RES
p739
sg52
VIRUS
p740
sg82
(lp741
(VPACHECO
VR
tp742
asg21
I2012
sg48
V231
p743
sbag1
(g2
g3
NtRp744
(dp745
g54
V10.1094/MPMI-05-10-0113
p746
sg50
VMOL PLANT MICROBE IN
p747
sg52
V23
p748
sg82
(lp749
(VPADMANABHAN
VM S
tp750
asg21
I2010
sg48
V1368
p751
sbag1
(g2
g3
NtRp752
(dp753
g54
V10.1099/vir.0.034603-0
p754
sg50
VJ GEN VIROL
p755
sg52
V92
p756
sg82
(lp757
(VPALLAS
VV
tp758
asg21
I2011
sg48
V2691
p759
sbag1
(g2
g3
NtRp760
(dp761
g54
V10.1093/nar/gkq1040
p762
sg50
VNUCLEIC ACIDS RES
p763
sg52
V39
p764
sg82
(lp765
(VPARKINSON
VH
tp766
asg21
I2011
sg48
VD1002
p767
sbag1
(g2
g3
NtRp768
(dp769
g54
V10.1016/0888-7543(91)90071-L
p770
sg50
VGENOMICS
p771
sg52
V11
p772
sg82
(lp773
(VPEARSON
VW R
tp774
asg21
I1991
sg48
V635
p775
sbag1
(g2
g3
NtRp776
(dp777
g54
V10.1016/0300-9084(96)84768-7
p778
sg50
VBIOCHIMIE
p779
sg52
V78
p780
sg82
(lp781
(VPERRIERE
VG
tp782
asg21
I1996
sg48
V364
p783
sbag1
(g2
g3
NtRp784
(dp785
g54
Nsg50
VPLANT DIS REPORTER
p786
sg52
V41
p787
sg82
(lp788
(VSILL
VW H
tp789
asg21
I1957
sg48
VLANT
p790
sbag1
(g2
g3
NtRp791
(dp792
g54
V10.1038/nchembio.164
p793
sg50
VNAT CHEM BIOL
p794
sg52
V5
sg82
(lp795
(VPIETERSE
VC M J
tp796
asg21
I2009
sg48
V308
p797
sbag1
(g2
g3
NtRp798
(dp799
g54
V10.1371/journal.pone.0011313
p800
sg50
VPLOS ONE
p801
sg52
V5
sg82
(lp802
(VPIRON
VF
tp803
asg21
I2010
sg48
VLOS
p804
sbag1
(g2
g3
NtRp805
(dp806
g54
Nsg50
VGRASSES TRANS PECOS
p807
sg52
Nsg82
(lp808
(VPOWELL
VA M
tp809
asg21
I1994
sg48
Nsbag1
(g2
g3
NtRp810
(dp811
g54
V10.1105/tpc.9.6.859
p812
sg50
VPLANT CELL
p813
sg52
V9
sg82
(lp814
(VPRUSS
VG
tp815
asg21
I1997
sg48
VLANT
p816
sbag1
(g2
g3
NtRp817
(dp818
g54
V10.1016/j.virol.2003.11.027
p819
sg50
VVIROLOGY
p820
sg52
VIROLOGY
p821
sg82
(lp822
(VPRUSS
VG J
tp823
asg21
I2004
sg48
V107
p824
sbag1
(g2
g3
NtRp825
(dp826
g54
V10.1093/nar/gkr1065
p827
sg50
VNUCLEIC ACIDS RES
p828
sg52
V40
p829
sg82
(lp830
(VPUNTA
VM
tp831
asg21
I2012
sg48
VD290
p832
sbag1
(g2
g3
NtRp833
(dp834
g54
V10.1016/j.virol.2008.03.013
p835
sg50
VVIROLOGY
p836
sg52
VIROLOGY
p837
sg82
(lp838
(VQI
VD
tp839
asg21
I2008
sg48
V154
p840
sbag1
(g2
g3
NtRp841
(dp842
g54
V10.1094/MPMI.2001.14.1.21
p843
sg50
VMOL PLANT MICROBE IN
p844
sg52
V14
p845
sg82
(lp846
(VQIU
VW P
tp847
asg21
I2001
sg48
V21
p848
sbag1
(g2
g3
NtRp849
(dp850
g54
V10.1094/MPMI.2004.17.3.263
p851
sg50
VMOL PLANT MICROBE IN
p852
sg52
V17
p853
sg82
(lp854
(VQIU
VW P
tp855
asg21
I2004
sg48
V263
p856
sbag1
(g2
g3
NtRp857
(dp858
g54
V10.1094/MPMI-22-10-1312
p859
sg50
VMOL PLANT MICROBE IN
p860
sg52
V22
p861
sg82
(lp862
(VRAKHSHANDEHROO
VF
tp863
asg21
I2009
sg48
V1312
p864
sbag1
(g2
g3
NtRp865
(dp866
g54
V10.1146/annurev.arplant.58.032806.103754
p867
sg50
VANNU REV PLANT BIOL
p868
sg52
V58
p869
sg82
(lp870
(VREDDY
VA S N
tp871
asg21
I2007
sg48
V267
p872
sbag1
(g2
g3
NtRp873
(dp874
g54
V10.1016/j.tplants.2005.11.004
p875
sg50
VTRENDS PLANT SCI
p876
sg52
V11
p877
sg82
(lp878
(VROBAGLIA
VC
tp879
asg21
I2006
sg48
V40
p880
sbag1
(g2
g3
NtRp881
(dp882
g54
V10.1016/0042-6822(55)90003-9
p883
sg50
VVIROLOGY
p884
sg52
VIROLOGY
p885
sg82
(lp886
(VROCHOW
VW F
tp887
asg21
I1955
sg48
V10
p888
sbag1
(g2
g3
NtRp889
(dp890
g54
V10.1016/0042-6822(55)90004-0
p891
sg50
VVIROLOGY
p892
sg52
VIROLOGY
p893
sg82
(lp894
(VROCHOW
VW F
tp895
asg21
I1955
sg48
V28
p896
sbag1
(g2
g3
NtRp897
(dp898
g54
V10.1016/j.tplants.2010.02.006
p899
sg50
VTRENDS PLANT SCI
p900
sg52
V15
p901
sg82
(lp902
(VRUSHTON
VP J
tp903
asg21
I2010
sg48
V247
p904
sbag1
(g2
g3
NtRp905
(dp906
g54
Nsg50
VBIOTECHNIQUES
p907
sg52
V34
p908
sg82
(lp909
(VSAEED
VA I
tp910
asg21
I2003
sg48
V374
p911
sbag1
(g2
g3
NtRp912
(dp913
g54
V10.1099/vir.0.015990-0
p914
sg50
VJ GEN VIROL
p915
sg52
V91
p916
sg82
(lp917
(VSATOH
VK
tp918
asg21
I2010
sg48
V294
p919
sbag1
(g2
g3
NtRp920
(dp921
g54
Nsg50
VCURR TOP MICROBIOL
p922
sg52
V239
p923
sg82
(lp924
(VSCHOLTHOF
VK B G
tp925
asg21
I1999
sg48
V123
p926
sbag1
(g2
g3
NtRp927
(dp928
g54
V10.1094/MPMI.1999.12.2.163
p929
sg50
VMOL PLANT MICROBE IN
p930
sg52
V12
p931
sg82
(lp932
(VSCHOLTHOF
VK B G
tp933
asg21
I1999
sg48
V163
p934
sbag1
(g2
g3
NtRp935
(dp936
g54
V10.1094/MPMI-20-3-0247
p937
sg50
VMOL PLANT MICROBE IN
p938
sg52
V20
p939
sg82
(lp940
(VSHIMIZU
VT
tp941
asg21
I2007
sg48
V247
p942
sbag1
(g2
g3
NtRp943
(dp944
g54
V10.1105/tpc.020834
p945
sg50
VPLANT CELL
p946
sg52
V16
p947
sg82
(lp948
(VSHIU
VS H
tp949
asg21
I2004
sg48
VLANT
p950
sbag1
(g2
g3
NtRp951
(dp952
g54
V10.1006/geno.1996.0614
p953
sg50
VGENOMICS
p954
sg52
V38
p955
sg82
(lp956
(VSHPAER
VE G
tp957
asg21
I1996
sg48
V179
p958
sbag1
(g2
g3
NtRp959
(dp960
g54
V10.1016/0022-2836(81)90087-5
p961
sg50
VJ MOL BIOL
p962
sg52
V147
p963
sg82
(lp964
(VSMITH
VT F
tp965
asg21
I1981
sg48
V195
p966
sbag1
(g2
g3
NtRp967
(dp968
g54
V10.1111/j.1364-3703.2011.00734.x
p969
sg50
VMOL PLANT PATHOL
p970
sg52
V13
p971
sg82
(lp972
(VSYLLER
VJ
tp973
asg21
I2012
sg48
V204
p974
sbag1
(g2
g3
NtRp975
(dp976
g54
V10.1126/science.1156970
p977
sg50
VSCIENCE
p978
sg52
V321
p979
sg82
(lp980
(VTADA
VY
tp981
asg21
I2008
sg48
V952
p982
sbag1
(g2
g3
NtRp983
(dp984
g54
V10.1093/nar/gkg115
p985
sg50
VNUCLEIC ACIDS RES
p986
sg52
V31
p987
sg82
(lp988
(VTHOMAS
VP D
tp989
asg21
I2003
sg48
V334
p990
sbag1
(g2
g3
NtRp991
(dp992
g54
V10.1006/viro.1999.0069
p993
sg50
VVIROLOGY
p994
sg52
VIROLOGY
p995
sg82
(lp996
(VTURINA
VM
tp997
asg21
I2000
sg48
V120
p998
sbag1
(g2
g3
NtRp999
(dp1000
g54
V10.1006/viro.1997.8939
p1001
sg50
VVIROLOGY
p1002
sg52
VIROLOGY
p1003
sg82
(lp1004
(VTURINA
VM
tp1005
asg21
I1998
sg48
V141
p1006
sbag1
(g2
g3
NtRp1007
(dp1008
g54
VDOI 10.1017/CBO9781139173179
p1009
sg50
VEVOL THEORY
p1010
sg52
V1
sg82
(lp1011
(VVAN
VVALEN L
tp1012
asg21
I1973
sg48
V1
sbag1
(g2
g3
NtRp1013
(dp1014
g54
Nsg50
VVIROLOGY
p1015
sg52
VIROLOGY
p1016
sg82
(lp1017
(VVANCE
VV B
tp1018
asg21
I1991
sg48
V486
p1019
sbag1
(g2
g3
NtRp1020
(dp1021
g54
V10.1046/j.1365-313x.2001.00932.x
p1022
sg50
VPLANT J
p1023
sg52
V25
p1024
sg82
(lp1025
(VVAN
VD E R FITS L
tp1026
asg21
I2001
sg48
VLANT
p1027
sbag1
(g2
g3
NtRp1028
(dp1029
g54
V10.1104/pp.106.079293
p1030
sg50
VPLANT PHYSIOL
p1031
sg52
V141
p1032
sg82
(lp1033
(VVAN
VD E R GRAAFF E
tp1034
asg21
I2006
sg48
VLANT
p1035
sbag1
(g2
g3
NtRp1036
(dp1037
g54
V10.1104/pp.110.161570
p1038
sg50
VPLANT PHYSIOL
p1039
sg52
V154
p1040
sg82
(lp1041
(VVERHAGE
VA
tp1042
asg21
I2010
sg48
VLANT
p1043
sbag1
(g2
g3
NtRp1044
(dp1045
g54
V10.1146/annurev.phyto.050908.135202
p1046
sg50
VANNU REV PHYTOPATHOL
p1047
sg52
V47
p1048
sg82
(lp1049
(VVLOT
VA C
tp1050
asg21
I2009
sg48
V177
p1051
sbag1
(g2
g3
NtRp1052
(dp1053
g54
V10.1007/s00299-007-0472-y
p1054
sg50
VPLANT CELL REP
p1055
sg52
V27
p1056
sg82
(lp1057
(VVOGEL
VJ
tp1058
asg21
I2008
sg48
VLANT
p1059
sbag1
(g2
g3
NtRp1060
(dp1061
g54
V10.1038/nature08747
p1062
sg50
VNATURE
p1063
sg52
V463
p1064
sg82
(lp1065
(VVOGEL
VJ P
tp1066
asg21
I2010
sg48
V763
p1067
sbag1
(g2
g3
NtRp1068
(dp1069
g54
V10.1007/s11240-005-9023-9
p1070
sg50
VPLANT CELL TISS ORG
p1071
sg52
V84
p1072
sg82
(lp1073
(VVOGEL
VJ P
tp1074
asg21
I2006
sg48
VLANT
p1075
sbag1
(g2
g3
NtRp1076
(dp1077
g54
V10.1371/journal.ppat.0020123
p1078
sg50
VPLOS PATHOG
p1079
sg52
V2
sg82
(lp1080
(VWANG
VD
tp1081
asg21
I2006
sg48
VLOS
p1082
sbag1
(g2
g3
NtRp1083
(dp1084
g54
V10.1093/aob/mcm079
p1085
sg50
VANN BOT
p1086
sg52
V100
p1087
sg82
(lp1088
(VWASTERNACK
VC
tp1089
asg21
I2007
sg48
V681
p1090
sbag1
(g2
g3
NtRp1091
(dp1092
g54
V10.1046/j.1365-313X.2003.01625.x
p1093
sg50
VPLANT J
p1094
sg52
V33
p1095
sg82
(lp1096
(VWHITHAM
VS A
tp1097
asg21
I2003
sg48
VLANT
p1098
sbag1
(g2
g3
NtRp1099
(dp1100
g54
V10.1094/MPMI-19-1207
p1101
sg50
VMOL PLANT MICROBE IN
p1102
sg52
V19
p1103
sg82
(lp1104
(VWHITHAM
VS A
tp1105
asg21
I2006
sg48
V1207
p1106
sbag1
(g2
g3
NtRp1107
(dp1108
g54
V10.1073/pnas.111440998
p1109
sg50
VP NATL ACAD SCI USA
p1110
sg52
V98
p1111
sg82
(lp1112
(VXIE
VZ X
tp1113
asg21
I2001
sg48
V6516
p1114
sbag1
(g2
g3
NtRp1115
(dp1116
g54
V10.1105/tpc.13.7.1527
p1117
sg50
VPLANT CELL
p1118
sg52
V13
p1119
sg82
(lp1120
(VYU
VD Q
tp1121
asg21
I2001
sg48
VLANT
p1122
sbag1
(g2
g3
NtRp1123
(dp1124
g54
V10.1105/tpc.013474
p1125
sg50
VPLANT CELL
p1126
sg52
V15
p1127
sg82
(lp1128
(VZHANG
VX C
tp1129
asg21
I2003
sg48
VLANT
p1130
sbag1
(g2
g3
NtRp1131
(dp1132
g54
Nsg50
VPLANT CELL
p1133
sg52
V10
p1134
sg82
(lp1135
(VZHOU
VN
tp1136
asg21
I1998
sg48
VLANT
p1137
sbasb.