ccopy_reg
_reconstructor
p1
(ctethne.classes.paper
Paper
p2
c__builtin__
object
p3
NtRp4
(dp5
S'publisherCity'
p6
VROCKVILLE
p7
sS'reprintAddress'
p8
VSchaffer, AA (reprint author), Agr Res Org, Volcani Ctr, Dept Vegetable Res, IL-50250 Bet Dagan, Israel.
p9
sS'WC'
p10
VPlant Sciences
p11
sS'GA'
p12
V081QF
p13
sS'abstract'
p14
VThe Cucurbitaceae translocate a significant portion of their photosynthate as raffinose and stachyose, which are galactosyl derivatives of sucrose. These are initially hydrolyzed by alpha-galactosidase to yield free galactose (Gal) and, accordingly, Gal metabolism is an important pathway in Cucurbitaceae sink tissue. We report here on a novel plant-specific enzyme responsible for the nucleotide activation of phosphorylated Gal and the subsequent entry of Gal into sink metabolism. The enzyme was antibody purified, sequenced, and the gene cloned and functionally expressed in Escherichia coli. The heterologous protein showed the characteristics of a dual substrate UDP-hexose pyrophosphorylase (PPase) with activity toward both Gal-1-P and glucose (Glc)-1-P in the uridinylation direction and their respective UDP-sugars in the reverse direction. The two other enzymes involved in Glc-P and Gal-P uridinylation are UDP-Glc PPase and uridyltransferase, and these were also cloned, heterologously expressed, and characterized. The gene expression and enzyme activities of all three enzymes in melon (Cucumis melo) fruit were measured. The UDP-Glc PPase was expressed in melon fruit to a similar extent as the novel enzyme, but the expressed protein was specific for Glc-1-P in the UDP-Glc synthesis direction and did not catalyze the nucleotide activation of Gal-1-P. The uridyltransferase gene was only weakly expressed in melon fruit, and activity was not observed in crude extracts. The results indicate that this novel enzyme carries out both the synthesis of UDP-Gal from Gal-1-P as well as the subsequent synthesis of Glc-1-P from the epimerase product, UDP-Glc, and thus plays a key role in melon fruit sink metabolism.
p15
sS'pageEnd'
p16
I304
sS'publisherAddress'
p17
V15501 MONONA DRIVE, ROCKVILLE, MD 20855 USA
p18
sS'documentType'
p19
VArticle
p20
sS'subject'
p21
VPlant Sciences
p22
sS'isoSource'
p23
VPlant Physiol.
p24
sS'timesCited'
p25
(lp26
I19
aVZ9 23
p27
asS'PT'
p28
VJ
sS'title'
p29
VCloning And Expression Analysis Of A Udp-Galactose/Glucose Pyrophosphorylase From Melon Fruit Provides Evidence For The Major Metabolic Pathway Of Galactose Metabolism In Raffinose Oligosaccharide Metabolizing Plants
p30
sS'ISSN'
p31
(lp32
V0032-0889
p33
aVJ9 PLANT PHYSIOL
p34
asS'authors_full'
p35
(lp36
(VDAI
VNIR
tp37
a(VPETREIKOV
VMARINA
tp38
a(VPORTNOY
VVITALY
tp39
a(VKATZIR
VNURIT
tp40
a(VPHARR
VDAVID M
tp41
a(VSCHAFFER
VARTHUR A
tp42
asS'PG'
p43
I11
sS'PD'
p44
VSEP
p45
sS'pageStart'
p46
I294
sS'issue'
p47
I1
sS'journal'
p48
VPLANT PHYSIOLOGY
p49
sS'volume'
p50
V142
p51
sS'doi'
p52
V10.1104/pp.106.083634
p53
sS'emailAddress'
p54
Vvcaris@volcani.agri.gov.il
p55
sS'authorAddress'
p56
VAgr Res Org, Volcani Ctr, Dept Vegetable Res, IL-50250 Bet Dagan, Israel.
p57
sS'date'
p58
I2006
sS'ER'
p59
V
sS'publisher'
p60
VAMER SOC PLANT BIOLOGISTS
p61
sS'authorKeywords'
p62
(lp63
VURIDINEDIPHOSPHATE-GLUCOSE PYROPHOSPHORYLASE
p64
aVALKALINE ALPHA-GALACTOSIDASE
p65
aVCUCUMIS-MELO
p66
aVARABIDOPSIS-THALIANA
p67
aVSUCROSE METABOLISM
p68
aVANTISENSE RNA
p69
aVTOMATO FRUIT
p70
aVGALACTOSE-1-PHOSPHATE
p71
aVACCUMULATION
p72
aVPURIFICATION
p73
asS'language'
p74
VEnglish
p75
sS'wosid'
p76
VWOS:000240331400027
p77
sS'citationCount'
p78
I38
sS'authors_init'
p79
(lp80
(VDAI
VN
tp81
a(VPETREIKOV
VM
tp82
a(VPORTNOY
VV
tp83
a(VKATZIR
VN
tp84
a(VPHARR
VD M
tp85
a(VSCHAFFER
VA A
tp86
asS'citedReferences'
p87
(lp88
g1
(g2
g3
NtRp89
(dp90
g52
Nsg48
VANAL BIOCHEM
p91
sg50
V72
p92
sg79
(lp93
(VBRADFORD
VM M
tp94
asg58
I1976
sg46
V254
p95
sbag1
(g2
g3
NtRp96
(dp97
g52
Nsg48
VRECENT ADV PHLOEM TR
p98
sg50
Nsg79
(lp99
(VBURGER
VY
tp100
asg58
I1991
sg46
V244
p101
sbag1
(g2
g3
NtRp102
(dp103
g52
V10.1046/j.1365-313X.2003.01609.x
p104
sg48
VPLANT J
p105
sg50
V33
p106
sg79
(lp107
(VCARMI
VN
tp108
asg58
I2003
sg46
VLANT
p109
sbag1
(g2
g3
NtRp110
(dp111
g52
V10.1111/j.1432-1033.1996.t01-1-00723.x
p112
sg48
VEUR J BIOCHEM
p113
sg50
V236
p114
sg79
(lp115
(VCHANG
VH Y
tp116
asg58
I1996
sg46
V723
p117
sbag1
(g2
g3
NtRp118
(dp119
g52
V10.1016/0022-2836(91)90856-2
p120
sg48
VJ MOL BIOL
p121
sg50
V219
p122
sg79
(lp123
(VDUBENDORFF
VJ W
tp124
asg58
I1991
sg46
V45
p125
sbag1
(g2
g3
NtRp126
(dp127
g52
V10.1016/0031-9422(96)00089-1
p128
sg48
VPHYTOCHEMISTRY
p129
sg50
V42
p130
sg79
(lp131
(VELLING
VL
tp132
asg58
I1996
sg46
VHYTOCHEMISTRY
p133
sbag1
(g2
g3
NtRp134
(dp135
g52
Nsg48
VJ BIOL CHEM
p136
sg50
V271
p137
sg79
(lp138
(VELSEVIER
VJ P
tp139
asg58
I1996
sg46
V32002
p140
sbag1
(g2
g3
NtRp141
(dp142
g52
Nsg48
VBIOCH PLANTS
p143
sg50
V3
sg79
(lp144
(VFEINGOD
VD S
tp145
asg58
I1980
sg46
V101
p146
sbag1
(g2
g3
NtRp147
(dp148
g52
V10.1034/j.1399-3054.1999.106102.x
p149
sg48
VPHYSIOL PLANTARUM
p150
sg50
V106
p151
sg79
(lp152
(VFEUSI
VM E S
tp153
asg58
I1999
sg46
VHYSIOL
p154
sbag1
(g2
g3
NtRp155
(dp156
g52
V10.1104/pp.119.3.979
p157
sg48
VPLANT PHYSIOL
p158
sg50
V119
p159
sg79
(lp160
(VGAO
VZ F
tp161
asg58
I1999
sg46
VLANT
p162
sbag1
(g2
g3
NtRp163
(dp164
g52
V10.1034/j.1399-3054.1999.106101.x
p165
sg48
VPHYSIOL PLANTARUM
p166
sg50
V106
p167
sg79
(lp168
(VGAO
VZ F
tp169
asg58
I1999
sg46
VHYSIOL
p170
sbag1
(g2
g3
NtRp171
(dp172
g52
V10.1007/s11103-004-4953-x
p173
sg48
VPLANT MOL BIOL
p174
sg50
V56
p175
sg79
(lp176
(VGEISLER
VM
tp177
asg58
I2004
sg46
VLANT
p178
sbag1
(g2
g3
NtRp179
(dp180
g52
Nsg48
VJ BIOL CHEM
p181
sg50
V232
p182
sg79
(lp183
(VGINSBURG
VV
tp184
asg58
I1958
sg46
V55
p185
sbag1
(g2
g3
NtRp186
(dp187
g52
V10.1104/pp.69.1.117
p188
sg48
VPLANT PHYSIOL
p189
sg50
V69
p190
sg79
(lp191
(VGROSS
VK C
tp192
asg58
I1982
sg46
VLANT
p193
sbag1
(g2
g3
NtRp194
(dp195
g52
Nsg48
VMETHOD ENZYMOL
p196
sg50
V38
p197
sg79
(lp198
(VHANSEN
VR G
tp199
asg58
I1966
sg46
V248
p200
sbag1
(g2
g3
NtRp201
(dp202
g52
V10.1007/s004250000268
p203
sg48
VPLANTA
p204
sg50
V211
p205
sg79
(lp206
(VHARITATOS
VE
tp207
asg58
I2000
sg46
VLANTA
p208
sbag1
(g2
g3
NtRp209
(dp210
g52
V10.1104/pp.91.4.1527
p211
sg48
VPLANT PHYSIOL
p212
sg50
V91
p213
sg79
(lp214
(VHUBBARD
VN L
tp215
asg58
I1989
sg46
VLANT
p216
sbag1
(g2
g3
NtRp217
(dp218
g52
Nsg48
VENCY PLANT PHYSL A
p219
sg50
V13a
p220
sg79
(lp221
(VKANDLER
VO
tp222
asg58
I1982
sg46
V348
p223
sbag1
(g2
g3
NtRp224
(dp225
g52
Nsg48
VPHOTOASSIMILATE DIST
p226
sg50
Nsg79
(lp227
(VKELLER
VF
tp228
asg58
I1996
sg46
VHOTOASSIMILATE
p229
sbag1
(g2
g3
NtRp230
(dp231
g52
V10.1016/S0031-9422(00)89568-0
p232
sg48
VPHYTOCHEMISTRY
p233
sg50
V37
p234
sg79
(lp235
(VKLECZKOWSKI
VL A
tp236
asg58
I1994
sg46
VHYTOCHEMISTRY
p237
sbag1
(g2
g3
NtRp238
(dp239
g52
V10.1074/jbc.M408716200
p240
sg48
VJ BIOL CHEM
p241
sg50
V279
p242
sg79
(lp243
(VKOTAKE
VT
tp244
asg58
I2004
sg46
V45728
p245
sbag1
(g2
g3
NtRp246
(dp247
g52
V10.1021/jf00079a008
p248
sg48
VJ AGR FOOD CHEM
p249
sg50
V36
p250
sg79
(lp251
(VKUO
VT M
tp252
asg58
I1988
sg46
V32
p253
sbag1
(g2
g3
NtRp254
(dp255
g52
V10.1023/A:1007486419576
p256
sg48
VPLANT MOL BIOL REP
p257
sg50
V15
p258
sg79
(lp259
(VLACLAIRE
VJ W
tp260
asg58
I1997
sg46
VLANT
p261
sbag1
(g2
g3
NtRp262
(dp263
g52
V10.1111/j.1399-3054.1983.tb04219.x
p264
sg48
VPHYSIOL PLANTARUM
p265
sg50
V59
p266
sg79
(lp267
(VMAIN
VE L
tp268
asg58
I1983
sg46
VHYSIOL
p269
sbag1
(g2
g3
NtRp270
(dp271
g52
Nsg48
VPLANT J
p272
sg50
V2
sg79
(lp273
(VMINET
VM
tp274
asg58
I1992
sg46
VLANT
p275
sbag1
(g2
g3
NtRp276
(dp277
g52
V10.1104/pp.99.3.959
p278
sg48
VPLANT PHYSIOL
p279
sg50
V99
p280
sg79
(lp281
(VMITCHELL
VD E
tp282
asg58
I1992
sg46
VLANT
p283
sbag1
(g2
g3
NtRp284
(dp285
g52
Nsg48
VJ BIOCHEM
p286
sg50
V106
p287
sg79
(lp288
(VNAKANO
VK
tp289
asg58
I1989
sg46
V528
p290
sbag1
(g2
g3
NtRp291
(dp292
g52
Nsg48
VAGR BIOL CHEM TOKYO
p293
sg50
V37
p294
sg79
(lp295
(VOTOZAI
VK
tp296
asg58
I1973
sg46
V531
p297
sbag1
(g2
g3
NtRp298
(dp299
g52
V10.1093/emboj/20.22.6191
p300
sg48
VEMBO J
p301
sg50
V20
p302
sg79
(lp303
(VPENEFF
VC
tp304
asg58
I2001
sg46
V6191
p305
sbag1
(g2
g3
NtRp306
(dp307
g52
V10.1016/S0031-9422(01)00331-4
p308
sg48
VPHYTOCHEMISTRY
p309
sg50
V58
p310
sg79
(lp311
(VPETREIKOV
VM
tp312
asg58
I2001
sg46
VHYTOCHEMISTRY
p313
sbag1
(g2
g3
NtRp314
(dp315
g52
Nsg48
VENCY AGR SCI
p316
sg50
Nsg79
(lp317
(VPHARR
VD M
tp318
asg58
I1994
sg46
V1912
p319
sbag1
(g2
g3
NtRp320
(dp321
g52
Nsg48
VHILGARDIA
p322
sg50
V3
sg79
(lp323
(VROSA
VJ T
tp324
asg58
I1928
sg46
V421
p325
sbag1
(g2
g3
NtRp326
(dp327
g52
Nsg48
VPLANT PHYSIOL
p328
sg50
V113
p329
sg79
(lp330
(VSCHAFFER
VA A
tp331
asg58
I1997
sg46
VLANT
p332
sbag1
(g2
g3
NtRp333
(dp334
g52
Nsg48
VPHOTOASSIMILATE DIST
p335
sg50
Nsg79
(lp336
(VSCHAFFER
VA A
tp337
asg58
I1996
sg46
VHOTOASSIMILATE
p338
sbag1
(g2
g3
NtRp339
(dp340
g52
V10.1016/S0031-9422(00)81721-5
p341
sg48
VPHYTOCHEMISTRY
p342
sg50
V26
p343
sg79
(lp344
(VSCHAFFER
VA A
tp345
asg58
I1987
sg46
VHYTOCHEMISTRY
p346
sbag1
(g2
g3
NtRp347
(dp348
g52
V10.1007/BF00384256
p349
sg48
VPLANTA
p350
sg50
V153
p351
sg79
(lp352
(VSMART
VE L
tp353
asg58
I1981
sg46
VLANTA
p354
sbag1
(g2
g3
NtRp355
(dp356
g52
Nsg48
VJ PLANT PHYSIOL
p357
sg50
V144
p358
sg79
(lp359
(VSPYCHALLA
VJ P
tp360
asg58
I1994
sg46
V444
p361
sbag1
(g2
g3
NtRp362
(dp363
g52
Nsg48
VPLANTA
p364
sg50
V190
p365
sg79
(lp366
(VZRENNER
VR
tp367
asg58
I1993
sg46
VLANTA
p368
sbasb.