ccopy_reg
_reconstructor
p1
(ctethne.classes.paper
Paper
p2
c__builtin__
object
p3
NtRp4
(dp5
S'publisherCity'
p6
VROCKVILLE
p7
sS'reprintAddress'
p8
VCasal, JJ (reprint author), Univ Buenos Aires, Fac Agron, IFEVA, Avenida San Martin 4453, RA-1417 Buenos Aires, DF, Argentina.
p9
sS'WC'
p10
VPlant Sciences
p11
sS'GA'
p12
V757BJ
p13
sS'abstract'
p14
VThe possibility that reduced photomorphogenic responses could increase field crop yield has been suggested often, but experimental support is still lacking. Here, we report that ectopic expression of the Arabidopsis PHYB (phytochrome B) gene, a photoreceptor involved in detecting red to far-red light ratio associated with plant density, can increase tuber yield in field-grown transgenic potato (Solanum tuberosum) crops. Surprisingly, this effect was larger at very high densities, despite the intense reduction in the red to far-red light ratios and the concomitant narrowed differences in active phytochrome B levels between wild type and transgenics at these densities. Increased PHYB expression not only altered the ability of plants to respond to light signals, but they also modified the light environment itself. This combination resulted in larger effects of enhanced PHYB expression on tuber number and crop photosynthesis at high planting densities. The PHYB transgenics showed higher maximum photosynthesis in leaves of all strata of the canopy, and this effect was largely due to increased leaf stomatal conductance. We propose that enhanced PHYB expression could be used in breeding programs to shift optimum planting densities to higher levels.
p15
sS'pageEnd'
p16
I1546
sS'publisherAddress'
p17
V15501 MONONA DRIVE, ROCKVILLE, MD 20855 USA
p18
sS'documentType'
p19
VArticle
p20
sS'subject'
p21
VPlant Sciences
p22
sS'isoSource'
p23
VPlant Physiol.
p24
sS'timesCited'
p25
(lp26
I23
aVZ9 30
p27
asS'PT'
p28
VJ
sS'title'
p29
VIncreased Phytochrome B Alleviates Density Effects On Tuber Yield Of Field Potato Crops
p30
sS'ISSN'
p31
(lp32
V0032-0889
p33
aVJ9 PLANT PHYSIOL
p34
asS'authors_full'
p35
(lp36
(VBOCCALANDRO
VHE
tp37
a(VPLOSCHUK
VEL
tp38
a(VYANOVSKY
VMJ
tp39
a(VSANCHEZ
VRA
tp40
a(VGATZ
VC
tp41
a(VCASAL
VJJ
tp42
asS'PG'
p43
I8
sS'PD'
p44
VDEC
p45
sS'pageStart'
p46
I1539
sS'issue'
p47
I4
sS'journal'
p48
VPLANT PHYSIOLOGY
p49
sS'volume'
p50
V133
p51
sS'doi'
p52
V10.1104/pp.103.029579
p53
sS'authorAddress'
p54
(lp55
VUniv Buenos Aires, Fac Agron, IFEVA, RA-1417 Buenos Aires, DF, Argentina.
p56
aVAlbrecht V Haller Inst Pflanzenwissensch Allgemei, D-37073 Gottingen, Germany.
p57
asS'date'
p58
I2003
sS'ER'
p59
V
sS'publisher'
p60
VAMER SOC PLANT BIOLOGISTS
p61
sS'authorKeywords'
p62
(lp63
VFAR-RED RADIATION
p64
aVLIGHT-QUALITY
p65
aVPLANT-DENSITY
p66
aVARABIDOPSIS
p67
aVPHOTOSYNTHESIS
p68
aVCANOPIES
p69
aVLEAVES
p70
aVIMPROVEMENT
p71
aVPERCEPTION
p72
aVMAIZE
p73
asS'language'
p74
VEnglish
p75
sS'wosid'
p76
VWOS:000187528700015
p77
sS'citationCount'
p78
I39
sS'authors_init'
p79
(lp80
(VBOCCALANDRO
VH E
tp81
a(VPLOSCHUK
VE L
tp82
a(VYANOVSKY
VM J
tp83
a(VSANCHEZ
VR A
tp84
a(VGATZ
VC
tp85
a(VCASAL
VJ J
tp86
asS'citedReferences'
p87
(lp88
g1
(g2
g3
NtRp89
(dp90
g52
V10.1111/j.1365-3040.1987.tb01835.x
p91
sg48
VPLANT CELL ENVIRON
p92
sg50
V10
p93
sg79
(lp94
(VBALLARE
VC L
tp95
asg58
I1987
sg46
VLANT
p96
sbag1
(g2
g3
NtRp97
(dp98
g52
V10.1046/j.1365-3040.1997.d01-112.x
p99
sg48
VPLANT CELL ENVIRON
p100
sg50
V20
p101
sg79
(lp102
(VBALLARE
VC L
tp103
asg58
I1997
sg46
VLANT
p104
sbag1
(g2
g3
NtRp105
(dp106
g52
V10.1104/pp.89.4.1324
p107
sg48
VPLANT PHYSIOL
p108
sg50
V89
p109
sg79
(lp110
(VBALLARE
VC L
tp111
asg58
I1989
sg46
VLANT
p112
sbag1
(g2
g3
NtRp113
(dp114
g52
V10.1126/science.247.4940.329
p115
sg48
VSCIENCE
p116
sg50
V247
p117
sg79
(lp118
(VBALLARE
VC L
tp119
asg58
I1990
sg46
V329
p120
sbag1
(g2
g3
NtRp121
(dp122
g52
Nsg48
VHORTSCIENCE
p123
sg50
V30
p124
sg79
(lp125
(VBALLARE
VC L
tp126
asg58
I1995
sg46
V1172
p127
sbag1
(g2
g3
NtRp128
(dp129
g52
V10.1104/pp.126.2.780
p130
sg48
VPLANT PHYSIOL
p131
sg50
V126
p132
sg79
(lp133
(VBOCCALANDRO
VH E
tp134
asg58
I2001
sg46
VLANT
p135
sbag1
(g2
g3
NtRp136
(dp137
g52
V10.1016/0098-8472(86)90024-9
p138
sg48
VENVIRON EXP BOT
p139
sg50
V26
p140
sg79
(lp141
(VCASAL
VJ J
tp142
asg58
I1986
sg46
V365
p143
sbag1
(g2
g3
NtRp144
(dp145
g52
V10.1038/nature01636
p146
sg48
VNATURE
p147
sg50
V423
p148
sg79
(lp149
(VCERDAN
VP D
tp150
asg58
I2003
sg46
V881
p151
sbag1
(g2
g3
NtRp152
(dp153
g52
Nsg48
VAUST J PLANT PHYSIOL
p154
sg50
V7
sg79
(lp155
(VCONSTABLE
VG A
tp156
asg58
I1980
sg46
V89
p157
sbag1
(g2
g3
NtRp158
(dp159
g52
V10.1104/pp.72.3.900
p160
sg48
VPLANT PHYSIOL
p161
sg50
V72
p162
sg79
(lp163
(VDEREGIBUS
VV A
tp164
asg58
I1983
sg46
VLANT
p165
sbag1
(g2
g3
NtRp166
(dp167
g52
V10.1093/jexbot/51.suppl_1.487
p168
sg48
VJ EXP BOT
p169
sg50
V51
p170
sg79
(lp171
(VDUNWELL
VJ M
tp172
asg58
I2000
sg46
V487
p173
sbag1
(g2
g3
NtRp174
(dp175
g52
Nsg48
VGENETICS
p176
sg50
V149
p177
sg79
(lp178
(VHIRSCHFELD
VM
tp179
asg58
I1998
sg46
V523
p180
sbag1
(g2
g3
NtRp181
(dp182
g52
V10.1111/j.1751-1097.1977.tb09124.x
p183
sg48
VPHOTOCHEM PHOTOBIOL
p184
sg50
V25
p185
sg79
(lp186
(VHOLMES
VM G
tp187
asg58
I1977
sg46
VHOTOCHEM
p188
sbag1
(g2
g3
NtRp189
(dp190
g52
V10.1007/BF00392271
p191
sg48
VPLANTA
p192
sg50
V168
p193
sg79
(lp194
(VHOLMES
VM G
tp195
asg58
I1986
sg46
VLANTA
p196
sbag1
(g2
g3
NtRp197
(dp198
g52
V10.1093/jexbot/51.suppl_1.475
p199
sg48
VJ EXP BOT
p200
sg50
V51
p201
sg79
(lp202
(VHORTON
VP
tp203
asg58
I2000
sg46
V475
p204
sbag1
(g2
g3
NtRp205
(dp206
g52
V10.1104/pp.77.2.483
p207
sg48
VPLANT PHYSIOL
p208
sg50
V77
p209
sg79
(lp210
(VINSKEEP
VW P
tp211
asg58
I1985
sg46
VLANT
p212
sbag1
(g2
g3
NtRp213
(dp214
g52
V10.1104/pp.119.1.1
p215
sg48
VPLANT PHYSIOL
p216
sg50
V119
p217
sg79
(lp218
(VJACKSON
VS D
tp219
asg58
I1999
sg46
VLANT
p220
sbag1
(g2
g3
NtRp221
(dp222
g52
V10.1046/j.1365-313X.1996.09020159.x
p223
sg48
VPLANT J
p224
sg50
V9
sg79
(lp225
(VJACKSON
VS D
tp226
asg58
I1996
sg46
VLANT
p227
sbag1
(g2
g3
NtRp228
(dp229
g52
V10.1038/35093585
p230
sg48
VNAT REV GENET
p231
sg50
V2
sg79
(lp232
(VKHUSH
VG S
tp233
asg58
I2001
sg46
V815
p234
sbag1
(g2
g3
NtRp235
(dp236
g52
Nsg48
VCROP SCI
p237
sg50
V42
p238
sg79
(lp239
(VLIBENSON
VS
tp240
asg58
I2002
sg46
V1180
p241
sbag1
(g2
g3
NtRp242
(dp243
g52
V10.1104/pp.009738
p244
sg48
VPLANT PHYSIOL
p245
sg50
V130
p246
sg79
(lp247
(VMADDONNI
VG A
tp248
asg58
I2002
sg46
VLANT
p249
sbag1
(g2
g3
NtRp250
(dp251
g52
V10.1126/science.283.5400.310
p252
sg48
VSCIENCE
p253
sg50
V283
p254
sg79
(lp255
(VMANN
VC C
tp256
asg58
I1999
sg46
V310
p257
sbag1
(g2
g3
NtRp258
(dp259
g52
V10.1046/j.1365-313x.1999.00579.x
p260
sg48
VPLANT J
p261
sg50
V20
p262
sg79
(lp263
(VMARTINEZ-GARCIA
VJ F
tp264
asg58
I1999
sg46
VLANT
p265
sbag1
(g2
g3
NtRp266
(dp267
g52
V10.1046/j.1365-313X.1993.04010019.x
p268
sg48
VPLANT J
p269
sg50
V4
sg79
(lp270
(VMCCORMAC
VA C
tp271
asg58
I1993
sg46
VLANT
p272
sbag1
(g2
g3
NtRp273
(dp274
g52
V10.1126/science.290.5490.253
p275
sg48
VSCIENCE
p276
sg50
V290
p277
sg79
(lp278
(VMOFFAT
VA S
tp279
asg58
I2000
sg46
V253
p280
sbag1
(g2
g3
NtRp281
(dp282
g52
V10.1038/262210a0
p283
sg48
VNATURE
p284
sg50
V262
p285
sg79
(lp286
(VMORGAN
VD C
tp287
asg58
I1976
sg46
V210
p288
sbag1
(g2
g3
NtRp289
(dp290
g52
V10.1093/jexbot/52.360.1383
p291
sg48
VJ EXP BOT
p292
sg50
V52
p293
sg79
(lp294
(VPAUL
VM J
tp295
asg58
I2001
sg46
V1383
p296
sbag1
(g2
g3
NtRp297
(dp298
g52
V10.1038/nbt0896-995
p299
sg48
VNAT BIOTECHNOL
p300
sg50
V14
p301
sg79
(lp302
(VROBSON
VP R H
tp303
asg58
I1996
sg46
V995
p304
sbag1
(g2
g3
NtRp305
(dp306
g52
Nsg48
VCROP SCI
p307
sg50
V39
p308
sg79
(lp309
(VROUSSEAUX
VM C
tp310
asg58
I1999
sg46
V1093
p311
sbag1
(g2
g3
NtRp312
(dp313
g52
V10.1016/S0378-4290(02)00124-7
p314
sg48
VFIELD CROP RES
p315
sg50
V79
p316
sg79
(lp317
(VSANGOI
VL
tp318
asg58
I2002
sg46
V39
p319
sbag1
(g2
g3
NtRp320
(dp321
g52
V10.1046/j.1365-3040.1997.d01-96.x
p322
sg48
VPLANT CELL ENVIRON
p323
sg50
V20
p324
sg79
(lp325
(VSCHMITT
VJ
tp326
asg58
I1997
sg46
VLANT
p327
sbag1
(g2
g3
NtRp328
(dp329
g52
V10.1104/pp.65.5.884
p330
sg48
VPLANT PHYSIOL
p331
sg50
V65
p332
sg79
(lp333
(VSETTER
VT L
tp334
asg58
I1980
sg46
VLANT
p335
sbag1
(g2
g3
NtRp336
(dp337
g52
Nsg48
VINT CROP SCI
p338
sg50
V1
sg79
(lp339
(VSINCLAIR
VT R
tp340
asg58
I1993
sg46
V707
p341
sbag1
(g2
g3
NtRp342
(dp343
g52
V10.1146/annurev.pp.33.060182.002405
p344
sg48
VANNU REV PLANT PHYS
p345
sg50
V33
p346
sg79
(lp347
(VSMITH
VH
tp348
asg58
I1982
sg46
V481
p349
sbag1
(g2
g3
NtRp350
(dp351
g52
V10.1111/j.1751-1097.1992.tb02238.x
p352
sg48
VPHOTOCHEM PHOTOBIOL
p353
sg50
V56
p354
sg79
(lp355
(VSMITH
VH
tp356
asg58
I1992
sg46
VHOTOCHEM
p357
sbag1
(g2
g3
NtRp358
(dp359
g52
V10.1038/35036500
p360
sg48
VNATURE
p361
sg50
V407
p362
sg79
(lp363
(VSMITH
VH
tp364
asg58
I2000
sg46
V585
p365
sbag1
(g2
g3
NtRp366
(dp367
g52
V10.1023/A:1015234401080
p368
sg48
VMOL BREEDING
p369
sg50
V8
sg79
(lp370
(VTAYLOR
VD C
tp371
asg58
I2002
sg46
V317
p372
sbag1
(g2
g3
NtRp373
(dp374
g52
Nsg48
VAGRON J
p375
sg50
V80
p376
sg79
(lp377
(VTETIOKAGHO
VF
tp378
asg58
I1988
sg46
V935
p379
sbag1
(g2
g3
NtRp380
(dp381
g52
V10.1104/pp.120.1.73
p382
sg48
VPLANT PHYSIOL
p383
sg50
V120
p384
sg79
(lp385
(VTHIELE
VA
tp386
asg58
I1999
sg46
VLANT
p387
sbasb.