ccopy_reg
_reconstructor
p1
(ctethne.classes.paper
Paper
p2
c__builtin__
object
p3
NtRp4
(dp5
S'publisherCity'
p6
VROCKVILLE
p7
sS'reprintAddress'
p8
VYang, CH (reprint author), Natl Chung Hsing Univ, Grad Inst Biotechnol, Taichung 40227, Taiwan.
p9
sS'WC'
p10
VPlant Sciences
p11
sS'GA'
p12
V551XL
p13
sS'FX'
p14
(lp15
VThis work was supported by the National Science Council of Taiwan (grant
p16
aVnos. NSC95-2317-B-005-006 and NSC96-2317-B005-019 to C.-H.Y.) and by the
p17
aVMinistry of Education (5Y/50B grant).
p18
asS'abstract'
p19
VTo investigate sepal/petal/lip formation in Oncidium Gower Ramsey, three paleoAPETALA3 genes, O. Gower Ramsey MADS box gene5 (OMADS5; clade 1), OMADS3 (clade 2), and OMADS9 (clade 3), and one PISTILLATA gene, OMADS8, were characterized. The OMADS8 and OMADS3 mRNAs were expressed in all four floral organs as well as in vegetative leaves. The OMADS9 mRNA was only strongly detected in petals and lips. The mRNA for OMADS5 was only strongly detected in sepals and petals and was significantly down-regulated in lip-like petals and lip-like sepals of peloric mutant flowers. This result revealed a possible negative role for OMADS5 in regulating lip formation. Yeast two-hybrid analysis indicated that OMADS5 formed homodimers and heterodimers with OMADS3 and OMADS9. OMADS8 only formed heterodimers with OMADS3, whereas OMADS3 and OMADS9 formed homodimers and heterodimers with each other. We proposed that sepal/petal/lip formation needs the presence of OMADS3/8 and/or OMADS9. The determination of the final organ identity for the sepal/petal/lip likely depended on the presence or absence of OMADS5. The presence of OMADS5 caused short sepal/petal formation. When OMADS5 was absent, cells could proliferate, resulting in the possible formation of large lips and the conversion of the sepal/petal into lips in peloric mutants. Further analysis indicated that only ectopic expression of OMADS8 but not OMADS5/9 caused the conversion of the sepal into an expanded petal-like structure in transgenic Arabidopsis (Arabidopsis thaliana) plants.
p20
sS'pageEnd'
p21
I853
sS'date'
p22
I2010
sS'documentType'
p23
VArticle
p24
sS'subject'
p25
VPlant Sciences
p26
sS'isoSource'
p27
VPlant Physiol.
p28
sS'timesCited'
p29
(lp30
I21
aVZ9 27
p31
asS'funding'
p32
(lp33
(VNational Science Council of Taiwan
VNSC95-2317-B-005-006, NSC96-2317-B005-019
tp34
a(VMinistry of Education
V5Y/50B
tp35
asS'PT'
p36
VJ
sS'title'
p37
VCharacterization Of The Possible Roles For B Class Mads Box Genes In Regulation Of Perianth Formation In Orchid
p38
sS'ISSN'
p39
(lp40
V0032-0889
p41
aVJ9 PLANT PHYSIOL
p42
asS'authors_full'
p43
(lp44
(VCHANG
VYUYUN
tp45
a(VKAO
VNAIHSUAN
tp46
a(VLI
VJENYING
tp47
a(VHSU
VWEIHAN
tp48
a(VLIANG
VYULING
tp49
a(VWU
VJIAWEI
tp50
a(VYANG
VCHANGHSIEN
tp51
asS'PG'
p52
I17
sS'PD'
p53
VFEB
p54
sS'pageStart'
p55
I837
sS'issue'
p56
I2
sS'journal'
p57
VPLANT PHYSIOLOGY
p58
sS'volume'
p59
V152
p60
sS'doi'
p61
V10.1104/pp.109.147116
p62
sS'emailAddress'
p63
Vchyang@dragon.nchu.edu.tw
p64
sS'authorAddress'
p65
V[Chang, Yu-Yun; Kao, Nai-Hsuan; Li, Jen-Ying; Hsu, Wei-Han; Liang, Yu-Ling; Wu, Jia-Wei; Yang, Chang-Hsien] Natl Chung Hsing Univ, Grad Inst Biotechnol, Taichung 40227, Taiwan.
p66
sS'publisherAddress'
p67
V15501 MONONA DRIVE, ROCKVILLE, MD 20855 USA
p68
sS'ER'
p69
V
sS'publisher'
p70
VAMER SOC PLANT BIOLOGISTS
p71
sS'authorKeywords'
p72
(lp73
VFLORAL HOMEOTIC GENES
p74
aVORGAN IDENTITY GENES
p75
aVFLOWER DEVELOPMENT
p76
aVARABIDOPSIS-THALIANA
p77
aVCONTROLLING PETAL
p78
aVDEVELOPMENTAL GENETICS
p79
aVTRANSCRIPTION FACTORS
p80
aVPHALDENOPSIS ORCHID
p81
aVMOLECULAR EVOLUTION
p82
aVPISTILLATA LINEAGES
p83
asS'language'
p84
VEnglish
p85
sS'wosid'
p86
VWOS:000274246600038
p87
sS'citationCount'
p88
I90
sS'authors_init'
p89
(lp90
(VCHANG
VY Y
tp91
a(VKAO
VN H
tp92
a(VLI
VJ Y
tp93
a(VHSU
VW H
tp94
a(VLIANG
VY L
tp95
a(VWU
VJ W
tp96
a(VYANG
VC H
tp97
asS'citedReferences'
p98
(lp99
g1
(g2
g3
NtRp100
(dp101
g61
V10.1093/bioinformatics/bti263
p102
sg57
VBIOINFORMATICS
p103
sg59
V21
p104
sg89
(lp105
(VABASCAL
VF
tp106
asg22
I2005
sg55
V2104
p107
sbag1
(g2
g3
NtRp108
(dp109
g61
V10.1093/jxb/erl263
p110
sg57
VJ EXP BOT
p111
sg59
V58
p112
sg89
(lp113
(VADAM
VH
tp114
asg22
I2007
sg55
V1245
p115
sbag1
(g2
g3
NtRp116
(dp117
g61
V10.1016/S1097-2765(00)80450-5
p118
sg57
VMOL CELL
p119
sg59
V5
sg89
(lp120
(VAMBROSE
VB A
tp121
asg22
I2000
sg55
V569
p122
sbag1
(g2
g3
NtRp123
(dp124
g61
V10.1046/j.1365-313X.1993.04010101.x
p125
sg57
VPLANT J
p126
sg59
V4
sg89
(lp127
(VANGENENT
VG C
tp128
asg22
I1993
sg55
VLANT
p129
sbag1
(g2
g3
NtRp130
(dp131
g61
V10.1105/tpc.1.1.37
p132
sg57
VPLANT CELL
p133
sg59
V1
sg89
(lp134
(VBOWMAN
VJ L
tp135
asg22
I1989
sg55
VLANT
p136
sbag1
(g2
g3
NtRp137
(dp138
g61
V10.1111/j.1365-313X.2005.02476.x
p139
sg57
VPLANT J
p140
sg59
V43
p141
sg89
(lp142
(VCASTILLEJO
VC
tp143
asg22
I2005
sg55
VLANT
p144
sbag1
(g2
g3
NtRp145
(dp146
g61
V10.1093/pcp/pcp087
p147
sg57
VPLANT CELL PHYSIOL
p148
sg59
V50
p149
sg89
(lp150
(VCHANG
VY Y
tp151
asg22
I2009
sg55
VLANT
p152
sbag1
(g2
g3
NtRp153
(dp154
g61
V10.1046/j.1365-313X.2002.01310.x
p155
sg57
VPLANT J
p156
sg59
V30
p157
sg89
(lp158
(VCLARK
VJ I
tp159
asg22
I2002
sg55
VLANT
p160
sbag1
(g2
g3
NtRp161
(dp162
g61
V10.1046/j.1365-313x.1998.00343.x
p163
sg57
VPLANT J
p164
sg59
V16
p165
sg89
(lp166
(VCLOUGH
VS J
tp167
asg22
I1998
sg55
VLANT
p168
sbag1
(g2
g3
NtRp169
(dp170
g61
V10.1038/353031a0
p171
sg57
VNATURE
p172
sg59
V353
p173
sg89
(lp174
(VCOEN
VE S
tp175
asg22
I1991
sg55
V31
p176
sbag1
(g2
g3
NtRp177
(dp178
g61
V10.1105/tpc.106.042978
p179
sg57
VPLANT CELL
p180
sg59
V18
p181
sg89
(lp182
(VDE
VMARTINO G
tp183
asg22
I2006
sg55
VLANT
p184
sbag1
(g2
g3
NtRp185
(dp186
g61
V10.1111/j.1365-313X.2005.02336.x
p187
sg57
VPLANT J
p188
sg59
V41
p189
sg89
(lp190
(VDI
VSTILIO V S
tp191
asg22
I2005
sg55
VLANT
p192
sbag1
(g2
g3
NtRp193
(dp194
g61
V10.1016/j.cub.2004.10.028
p195
sg57
VCURR BIOL
p196
sg59
V14
p197
sg89
(lp198
(VDITTA
VG
tp199
asg22
I2004
sg55
V1935
p200
sbag1
(g2
g3
NtRp201
(dp202
g61
V10.2307/2413671
p203
sg57
VSYST BIOL
p204
sg59
V43
p205
sg89
(lp206
(VDOYLE
VJ J
tp207
asg22
I1994
sg55
V307
p208
sbag1
(g2
g3
NtRp209
(dp210
g61
V10.1242/dev.013136
p211
sg57
VDEVELOPMENT
p212
sg59
V134
p213
sg89
(lp214
(VDREA
VS
tp215
asg22
I2007
sg55
V4157
p216
sbag1
(g2
g3
NtRp217
(dp218
g61
Nsg57
VBEST ORCHIDS INDOORS
p219
sg59
Nsg89
(lp220
(VFITCH
VC M
tp221
asg22
I2004
sg55
V62
p222
sbag1
(g2
g3
NtRp223
(dp224
g61
V10.1093/nar/20.6.1425
p225
sg57
VNUCLEIC ACIDS RES
p226
sg59
V20
p227
sg89
(lp228
(VGIETZ
VD
tp229
asg22
I1992
sg55
V1425
p230
sbag1
(g2
g3
NtRp231
(dp232
g61
V10.1101/gad.8.13.1548
p233
sg57
VGENE DEV
p234
sg59
V8
sg89
(lp235
(VGOTO
VK
tp236
asg22
I1994
sg55
V1548
p237
sbag1
(g2
g3
NtRp238
(dp239
g61
Nsg57
VJ BIOCHEM MOL BIOL
p240
sg59
V40
p241
sg89
(lp242
(VGUO
VB
tp243
asg22
I2007
sg55
V845
p244
sbag1
(g2
g3
NtRp245
(dp246
g61
Nsg57
VMOL BIOL EVOL
p247
sg59
V24
p248
sg89
(lp249
(VHERNANDEZ-HERNANDEZ
VT
tp250
asg22
I2007
sg55
V465
p251
sbag1
(g2
g3
NtRp252
(dp253
g61
V10.1038/35054083
p254
sg57
VNATURE
p255
sg59
V409
p256
sg89
(lp257
(VHONMA
VT
tp258
asg22
I2001
sg55
V525
p259
sbag1
(g2
g3
NtRp260
(dp261
g61
V10.1093/pcp/pcg099
p262
sg57
VPLANT CELL PHYSIOL
p263
sg59
V44
p264
sg89
(lp265
(VHSU
VH F
tp266
asg22
I2003
sg55
VLANT
p267
sbag1
(g2
g3
NtRp268
(dp269
g61
V10.1093/pcp/pcf143
p270
sg57
VPLANT CELL PHYSIOL
p271
sg59
V43
p272
sg89
(lp273
(VHSU
VH F
tp274
asg22
I2002
sg55
VLANT
p275
sbag1
(g2
g3
NtRp276
(dp277
g61
V10.1093/bioinformatics/17.8.754
p278
sg57
VBIOINFORMATICS
p279
sg59
V17
p280
sg89
(lp281
(VHUELSENBECK
VJ P
tp282
asg22
I2001
sg55
V754
p283
sbag1
(g2
g3
NtRp284
(dp285
g61
V10.1093/jxb/erp159
p286
sg57
VJ EXP BOT
p287
sg59
V60
p288
sg89
(lp289
(VIRISH
VV F
tp290
asg22
I2009
sg55
V2517
p291
sbag1
(g2
g3
NtRp292
(dp293
g61
V10.1105/tpc.017038
p294
sg57
VPLANT CELL
p295
sg59
V16
p296
sg89
(lp297
(VJACK
VT
tp298
asg22
I2004
sg55
VLANT
p299
sbag1
(g2
g3
NtRp300
(dp301
g61
V10.1016/0092-8674(92)90144-2
p302
sg57
VCELL
p303
sg59
V68
p304
sg89
(lp305
(VJACK
VT
tp306
asg22
I1992
sg55
V683
p307
sbag1
(g2
g3
NtRp308
(dp309
g61
V10.2307/3869820
p310
sg57
VPLANT CELL
p311
sg59
V6
sg89
(lp312
(VJOFUKU
VK D
tp313
asg22
I1994
sg55
VLANT
p314
sbag1
(g2
g3
NtRp315
(dp316
g61
Nsg57
VTHESCIENTIFICWORLDJO
p317
sg59
V19
p318
sg89
(lp319
(VKANNO
VA
tp320
asg22
I2007
sg55
V268
p321
sbag1
(g2
g3
NtRp322
(dp323
g61
V10.1023/A:1025070827979
p324
sg57
VPLANT MOL BIOL
p325
sg59
V52
p326
sg89
(lp327
(VKANNO
VA
tp328
asg22
I2003
sg55
VLANT
p329
sbag1
(g2
g3
NtRp330
(dp331
g61
V10.3732/ajb.91.12.2102
p332
sg57
VAM J BOT
p333
sg59
V91
p334
sg89
(lp335
(VKIM
VS T
tp336
asg22
I2004
sg55
V2102
p337
sbag1
(g2
g3
NtRp338
(dp339
g61
V10.1016/j.plantsci.2006.09.009
p340
sg57
VPLANT SCI
p341
sg59
V172
p342
sg89
(lp343
(VKIM
VS Y
tp344
asg22
I2007
sg55
VLANT
p345
sbag1
(g2
g3
NtRp346
(dp347
g61
Nsg57
VGENETICS
p348
sg59
V149
p349
sg89
(lp350
(VKRAMER
VE M
tp351
asg22
I1998
sg55
V765
p352
sbag1
(g2
g3
NtRp353
(dp354
g61
V10.1038/20172
p355
sg57
VNATURE
p356
sg59
V399
p357
sg89
(lp358
(VKRAMER
VE M
tp359
asg22
I1999
sg55
V144
p360
sbag1
(g2
g3
NtRp361
(dp362
g61
V10.1086/344694
p363
sg57
VINT J PLANT SCI
p364
sg59
V164
p365
sg89
(lp366
(VKRAMER
VE M
tp367
asg22
I2003
sg55
V1
sbag1
(g2
g3
NtRp368
(dp369
g61
V10.1146/annurev.arplant.043008.092051
p370
sg57
VANNU REV PLANT BIOL
p371
sg59
V60
p372
sg89
(lp373
(VKRAMER
VE M
tp374
asg22
I2009
sg55
V261
p375
sbag1
(g2
g3
NtRp376
(dp377
g61
V10.1105/tpc.107.050385
p378
sg57
VPLANT CELL
p379
sg59
V19
p380
sg89
(lp381
(VKRAMER
VE M
tp382
asg22
I2007
sg55
VLANT
p383
sbag1
(g2
g3
NtRp384
(dp385
g61
Nsg57
VDEVELOPMENT
p386
sg59
V122
p387
sg89
(lp388
(VKRIZEK
VB A
tp389
asg22
I1996
sg55
V11
p390
sbag1
(g2
g3
NtRp391
(dp392
g61
V10.1073/pnas.0631708100
p393
sg57
VP NATL ACAD SCI USA
p394
sg59
V100
p395
sg89
(lp396
(VLAMB
VR S
tp397
asg22
I2003
sg55
V6558
p398
sbag1
(g2
g3
NtRp399
(dp400
g61
V10.1023/B:PLAN.0000040899.53378.83
p401
sg57
VPLANT MOL BIOL
p402
sg59
V54
p403
sg89
(lp404
(VLIU
VY
tp405
asg22
I2004
sg55
VLANT
p406
sbag1
(g2
g3
NtRp407
(dp408
g61
V10.1104/pp.106.092742
p409
sg57
VPLANT PHYSIOL
p410
sg59
V143
p411
sg89
(lp412
(VLU
VH C
tp413
asg22
I2007
sg55
VLANT
p414
sbag1
(g2
g3
NtRp415
(dp416
g61
V10.1007/BF00021545
p417
sg57
VPLANT MOL BIOL
p418
sg59
V23
p419
sg89
(lp420
(VLU
VZ X
tp421
asg22
I1993
sg55
VLANT
p422
sbag1
(g2
g3
NtRp423
(dp424
g61
Nsg57
VNATURE
p425
sg59
V360
p426
sg89
(lp427
(VMANDEL
VM A
tp428
asg22
I1992
sg55
V273
p429
sbag1
(g2
g3
NtRp430
(dp431
g61
Nsg57
VSHORT COURSE BACTERI
p432
sg59
Nsg89
(lp433
(VMILLER
VJ H
tp434
asg22
I1992
sg55
Nsbag1
(g2
g3
NtRp435
(dp436
g61
V10.1093/aob/mcn258
p437
sg57
VANN BOT
p438
sg59
V104
p439
sg89
(lp440
(VMONDRAGON-PALOMINO
VM
tp441
asg22
I2009
sg55
V583
p442
sbag1
(g2
g3
NtRp443
(dp444
g61
V10.1016/j.tplants.2007.11.007
p445
sg57
VTRENDS PLANT SCI
p446
sg59
V13
p447
sg89
(lp448
(VMONDRAGON-PALOMINO
VM
tp449
asg22
I2008
sg55
V51
p450
sbag1
(g2
g3
NtRp451
(dp452
g61
V10.1186/1471-2148-9-81
p453
sg57
VBMC EVOL BIOL
p454
sg59
V9
sg89
(lp455
(VMONDRAGON-PALOMINO
VM
tp456
asg22
I2009
sg55
Nsbag1
(g2
g3
NtRp457
(dp458
g61
V10.1023/A:1026429922616
p459
sg57
VPLANT MOL BIOL
p460
sg59
V40
p461
sg89
(lp462
(VMOON
VY H
tp463
asg22
I1999
sg55
VLANT
p464
sbag1
(g2
g3
NtRp465
(dp466
g61
V10.1016/S0378-1119(00)00556-4
p467
sg57
VGENE
p468
sg59
V262
p469
sg89
(lp470
(VMUNSTER
VT
tp471
asg22
I2001
sg55
V1
sbag1
(g2
g3
NtRp472
(dp473
g61
Nsg57
VPHYSIOL PLANTARUM
p474
sg59
V15
p475
sg89
(lp476
(VMURASHIGE
VT
tp477
asg22
I1962
sg55
VHYSIOL
p478
sbag1
(g2
g3
NtRp479
(dp480
g61
V10.1242/dev.00294
p481
sg57
VDEVELOPMENT
p482
sg59
V130
p483
sg89
(lp484
(VNAGASAWA
VN
tp485
asg22
I2003
sg55
V705
p486
sbag1
(g2
g3
NtRp487
(dp488
g61
V10.1038/35012103
p489
sg57
VNATURE
p490
sg59
V405
p491
sg89
(lp492
(VPELAZ
VS
tp493
asg22
I2000
sg55
V200
p494
sbag1
(g2
g3
NtRp495
(dp496
g61
V10.1016/S0960-9822(01)00024-0
p497
sg57
VCURR BIOL
p498
sg59
V11
p499
sg89
(lp500
(VPELAZ
VS
tp501
asg22
I2001
sg55
V182
p502
sbag1
(g2
g3
NtRp503
(dp504
g61
V10.1038/nature01741
p505
sg57
VNATURE
p506
sg59
V424
p507
sg89
(lp508
(VPINYOPICH
VA
tp509
asg22
I2003
sg55
V85
p510
sbag1
(g2
g3
NtRp511
(dp512
g61
Nsg57
VGENETICS
p513
sg59
V165
p514
sg89
(lp515
(VPRASAD
VK
tp516
asg22
I2003
sg55
V2301
p517
sbag1
(g2
g3
NtRp518
(dp519
g61
V10.1016/j.tplants.2008.12.005
p520
sg57
VTRENDS PLANT SCI
p521
sg59
V14
p522
sg89
(lp523
(VPRESTON
VJ C
tp524
asg22
I2009
sg55
V147
p525
sbag1
(g2
g3
NtRp526
(dp527
g61
Nsg57
VGENETICS
p528
sg59
V140
p529
sg89
(lp530
(VPURUGGANAN
VM D
tp531
asg22
I1995
sg55
V345
p532
sbag1
(g2
g3
NtRp533
(dp534
g61
V10.1007/PL00006244
p535
sg57
VJ MOL EVOL
p536
sg59
V45
p537
sg89
(lp538
(VPURUGGANAN
VM D
tp539
asg22
I1997
sg55
V392
p540
sbag1
(g2
g3
NtRp541
(dp542
g61
V10.1073/pnas.93.10.4793
p543
sg57
VP NATL ACAD SCI USA
p544
sg59
V93
p545
sg89
(lp546
(VRIECHMANN
VJ L
tp547
asg22
I1996
sg55
V4793
p548
sbag1
(g2
g3
NtRp549
(dp550
g61
V10.1105/tpc.7.8.1259
p551
sg57
VPLANT CELL
p552
sg59
V7
sg89
(lp553
(VROUNSLEY
VS D
tp554
asg22
I1995
sg55
VLANT
p555
sbag1
(g2
g3
NtRp556
(dp557
g61
Nsg57
VRHS ORCH 98
p558
sg59
Nsg89
(lp559
(VROYAL HORT SOC
S''
tp560
asg22
I1998
sg55
Nsbag1
(g2
g3
NtRp561
(dp562
g61
Nsg57
VEMBO J
p563
sg59
V11
p564
sg89
(lp565
(VSCHWARZSOMMER
VZ
tp566
asg22
I1992
sg55
V251
p567
sbag1
(g2
g3
NtRp568
(dp569
g61
V10.1007/s00427-006-0107-2
p570
sg57
VDEV GENES EVOL
p571
sg59
V216
p572
sg89
(lp573
(VSHAN
VH Y
tp574
asg22
I2006
sg55
V785
p575
sbag1
(g2
g3
NtRp576
(dp577
g61
Nsg57
VEMBO J
p578
sg59
V9
sg89
(lp579
(VSOMMER
VH
tp580
asg22
I1990
sg55
V605
p581
sbag1
(g2
g3
NtRp582
(dp583
g61
V[10.1093/molbev.msh044, 10.1093/molbev/msh044]
p584
sg57
VMOL BIOL EVOL
p585
sg59
V21
p586
sg89
(lp587
(VSTELLARI
VG M
tp588
asg22
I2004
sg55
V506
p589
sbag1
(g2
g3
NtRp590
(dp591
g61
V10.1023/A:1006332105728
p592
sg57
VPLANT MOL BIOL
p593
sg59
V42
p594
sg89
(lp595
(VTHEISSEN
VG
tp596
asg22
I2000
sg55
VLANT
p597
sbag1
(g2
g3
NtRp598
(dp599
g61
V10.1016/S1369-5266(00)00139-4
p600
sg57
VCURR OPIN PLANT BIOL
p601
sg59
V4
sg89
(lp602
(VTHEISSEN
VG
tp603
asg22
I2001
sg55
V75
p604
sbag1
(g2
g3
NtRp605
(dp606
g61
V10.1016/0959-437X(95)80032-8
p607
sg57
VCURR OPIN GENET DEV
p608
sg59
V5
sg89
(lp609
(VTHEISSEN
VG
tp610
asg22
I1995
sg55
V628
p611
sbag1
(g2
g3
NtRp612
(dp613
g61
V10.1007/PL00006110
p614
sg57
VJ MOL EVOL
p615
sg59
V43
p616
sg89
(lp617
(VTHEISSEN
VG
tp618
asg22
I1996
sg55
V484
p619
sbag1
(g2
g3
NtRp620
(dp621
g61
V10.1038/35054172
p622
sg57
VNATURE
p623
sg59
V409
p624
sg89
(lp625
(VTHEISSEN
VG
tp626
asg22
I2001
sg55
V469
p627
sbag1
(g2
g3
NtRp628
(dp629
g61
Nsg57
VEMBO J
p630
sg59
V11
p631
sg89
(lp632
(VTROBNER
VW
tp633
asg22
I1992
sg55
V4693
p634
sbag1
(g2
g3
NtRp635
(dp636
g61
V10.1093/pcp/pcn059
p637
sg57
VPLANT CELL PHYSIOL
p638
sg59
V49
p639
sg89
(lp640
(VTSAI
VW C
tp641
asg22
I2008
sg55
VLANT
p642
sbag1
(g2
g3
NtRp643
(dp644
g61
V10.1093/pcp/pch095
p645
sg57
VPLANT CELL PHYSIOL
p646
sg59
V45
p647
sg89
(lp648
(VTSAI
VW C
tp649
asg22
I2004
sg55
VLANT
p650
sbag1
(g2
g3
NtRp651
(dp652
g61
V10.1093/pcp/pci125
p653
sg57
VPLANT CELL PHYSIOL
p654
sg59
V46
p655
sg89
(lp656
(VTSAI
VW C
tp657
asg22
I2005
sg55
VLANT
p658
sbag1
(g2
g3
NtRp659
(dp660
g61
V10.1074/jbc.M311646200
p661
sg57
VJ BIOL CHEM
p662
sg59
V279
p663
sg89
(lp664
(VTZENG
VT Y
tp665
asg22
I2004
sg55
V10747
p666
sbag1
(g2
g3
NtRp667
(dp668
g61
V10.1093/pcp/pce151
p669
sg57
VPLANT CELL PHYSIOL
p670
sg59
V42
p671
sg89
(lp672
(VTZENG
VT Y
tp673
asg22
I2001
sg55
VLANT
p674
sbag1
(g2
g3
NtRp675
(dp676
g61
V10.1105/tpc.019166
p677
sg57
VPLANT CELL
p678
sg59
V16
p679
sg89
(lp680
(VVANDENBUSSCHE
VM
tp681
asg22
I2004
sg55
VLANT
p682
sbag1
(g2
g3
NtRp683
(dp684
g61
Nsg57
VEATING DISORDERS
p685
sg59
V1
sg89
(lp686
(VVANDEREYCKEN
VW
tp687
asg22
I1993
sg55
V7
sbag1
(g2
g3
NtRp688
(dp689
g61
V10.1016/0092-8674(94)90291-7
p690
sg57
VCELL
p691
sg59
V78
p692
sg89
(lp693
(VWEIGEL
VD
tp694
asg22
I1994
sg55
V203
p695
sbag1
(g2
g3
NtRp696
(dp697
g61
V10.1073/pnas.0606434104
p698
sg57
VP NATL ACAD SCI USA
p699
sg59
V104
p700
sg89
(lp701
(VWHIPPLE
VC J
tp702
asg22
I2007
sg55
V1081
p703
sbag1
(g2
g3
NtRp704
(dp705
g61
Nsg57
VMOL BIOL EVOL
p706
sg59
V19
p707
sg89
(lp708
(VWINTER
VK U
tp709
asg22
I2002
sg55
V587
p710
sbag1
(g2
g3
NtRp711
(dp712
g61
V10.1073/pnas.96.13.7342
p713
sg57
VP NATL ACAD SCI USA
p714
sg59
V96
p715
sg89
(lp716
(VWINTER
VK U
tp717
asg22
I1999
sg55
V7342
p718
sbag1
(g2
g3
NtRp719
(dp720
g61
V10.1111/j.1365-313X.2006.02669.x
p721
sg57
VPLANT J
p722
sg59
V46
p723
sg89
(lp724
(VXU
VY F
tp725
asg22
I2006
sg55
VLANT
p726
sbag1
(g2
g3
NtRp727
(dp728
g61
V10.1534/genetics.107.071746
p729
sg57
VGENETICS
p730
sg59
V176
p731
sg89
(lp732
(VYADAV
VS R
tp733
asg22
I2007
sg55
V283
p734
sbag1
(g2
g3
NtRp735
(dp736
g61
V10.1038/346035a0
p737
sg57
VNATURE
p738
sg59
V346
p739
sg89
(lp740
(VYANOFSKY
VM F
tp741
asg22
I1990
sg55
V35
p742
sbag1
(g2
g3
NtRp743
(dp744
g61
V10.1093/pcp/pcn050
p745
sg57
VPLANT CELL PHYSIOL
p746
sg59
V49
p747
sg89
(lp748
(VYAO
VS G
tp749
asg22
I2008
sg55
VLANT
p750
sbag1
(g2
g3
NtRp751
(dp752
g61
V10.1046/j.1365-313X.1999.00351.x
p753
sg57
VPLANT J
p754
sg59
V17
p755
sg89
(lp756
(VYU
VD Y
tp757
asg22
I1999
sg55
VLANT
p758
sbag1
(g2
g3
NtRp759
(dp760
g61
V10.1104/pp.123.4.1325
p761
sg57
VPLANT PHYSIOL
p762
sg59
V123
p763
sg89
(lp764
(VYU
VH
tp765
asg22
I2000
sg55
VLANT
p766
sbag1
(g2
g3
NtRp767
(dp768
g61
V10.1023/A:1014958118852
p769
sg57
VPLANT MOL BIOL
p770
sg59
V49
p771
sg89
(lp772
(VYU
VH
tp773
asg22
I2002
sg55
VLANT
p774
sbag1
(g2
g3
NtRp775
(dp776
g61
V10.1093/jhered/esi033
p777
sg57
VJ HERED
p778
sg59
V96
p779
sg89
(lp780
(VZAHN
VL M
tp781
asg22
I2005
sg55
V225
p782
sbasb.