ccopy_reg
_reconstructor
p1
(ctethne.classes.paper
Paper
p2
c__builtin__
object
p3
NtRp4
(dp5
S'publisherCity'
p6
VROCKVILLE
p7
sS'reprintAddress'
p8
VHeinlein, M (reprint author), Univ Strasbourg, CNRS, Inst Biol Mol Plantes, Unite Propre Rech 2357, F-67000 Strasbourg, France.
p9
sS'WC'
p10
VPlant Sciences
p11
sS'GA'
p12
V049QJ
p13
sS'FX'
p14
(lp15
VThis work was supported by grants from the Human Frontier Science
p16
aVProgram Organization (RGP0022/2006) and the Swiss National Science
p17
aVFoundation (3100A0-111916 and 31003A-124940) and by a postdoctoral
p18
aVfellowship of the German Academic Exchange Service to K.B.
p19
asS'abstract'
p20
VLike many other viruses, Tobacco mosaic virus replicates in association with the endoplasmic reticulum (ER) and exploits this membrane network for intercellular spread through plasmodesmata (PD), a process depending on virus-encoded movement protein (MP). The movement process involves interactions of MP with the ER and the cytoskeleton as well as its targeting to PD. Later in the infection cycle, the MP further accumulates and localizes to ER-associated inclusions, the viral factories, and along microtubules before it is finally degraded. Although these patterns of MP accumulation have been described in great detail, the underlying mechanisms that control MP fate and function during infection are not known. Here, we identify CELL-DIVISION-CYCLE protein48 (CDC48), a conserved chaperone controlling protein fate in yeast (Saccharomyces cerevisiae) and animal cells by extracting protein substrates from membranes or complexes, as a cellular factor regulating MP accumulation patterns in plant cells. We demonstrate that Arabidopsis (Arabidopsis thaliana) CDC48 is induced upon infection, interacts with MP in ER inclusions dependent on the MP N terminus, and promotes degradation of the protein. We further provide evidence that CDC48 extracts MP from ER inclusions to the cytosol, where it subsequently accumulates on and stabilizes microtubules. We show that virus movement is impaired upon overexpression of CDC48, suggesting that CDC48 further functions in controlling virus movement by removal of MP from the ER transport pathway and by promoting interference of MP with microtubule dynamics. CDC48 acts also in response to other proteins expressed in the ER, thus suggesting a general role of CDC48 in ER membrane maintenance upon ER stress.
p21
sS'pageEnd'
p22
I2108
sS'date'
p23
I2012
sS'documentType'
p24
VArticle
p25
sS'subject'
p26
VPlant Sciences
p27
sS'isoSource'
p28
VPlant Physiol.
p29
sS'timesCited'
p30
(lp31
I3
aVZ9 3
p32
asS'funding'
p33
(lp34
(VHuman Frontier Science Program Organization
VRGP0022/2006
tp35
a(VSwiss National Science Foundation
V3100A0-111916, 31003A-124940
tp36
a(VGerman Academic Exchange Service
Ntp37
asS'PT'
p38
VJ
sS'title'
p39
VControl Of Tobacco Mosaic Virus Movement Protein Fate By Cell-Division-Cycle Protein48
p40
sS'ISSN'
p41
(lp42
V0032-0889
p43
aVJ9 PLANT PHYSIOL
p44
asS'authors_full'
p45
(lp46
(VNIEHL
VANNETTE
tp47
a(VAMARI
VKHALID
tp48
a(VGEREIGE
VDALYA
tp49
a(VBRANDNER
VKATRIN
tp50
a(VMELY
VYVES
tp51
a(VHEINLEIN
VMANFRED
tp52
asS'PG'
p53
I16
sS'PD'
p54
VDEC
p55
sS'pageStart'
p56
I2093
sS'issue'
p57
I4
sS'journal'
p58
VPLANT PHYSIOLOGY
p59
sS'volume'
p60
V160
p61
sS'doi'
p62
V10.1104/pp.112.207399
p63
sS'emailAddress'
p64
Vmanfred.heinlein@ibmp-cnrs.unistra.fr
p65
sS'authorAddress'
p66
(lp67
V[Niehl, Annette; Amari, Khalid; Gereige, Dalya; Brandner, Katrin; Heinlein, Manfred] Univ Strasbourg, CNRS, Inst Biol Mol Plantes, Unite Propre Rech 2357, F-67000 Strasbourg, France.
p68
aV[Niehl, Annette; Amari, Khalid; Heinlein, Manfred] Univ Basel, Inst Bot, CH-4056 Basel, Switzerland.
p69
aV[Mely, Yves] Univ Strasbourg, Fac Pharm, CNRS, Lab Biophoton & Pharmacol,Unite Mixte Rech 7213, F-67401 Illkirch Graffenstaden, France.
p70
asS'publisherAddress'
p71
V15501 MONONA DRIVE, ROCKVILLE, MD 20855 USA
p72
sS'ER'
p73
V
sS'publisher'
p74
VAMER SOC PLANT BIOLOGISTS
p75
sS'authorKeywords'
p76
(lp77
VRETICULUM-ASSOCIATED DEGRADATION
p78
aVGREEN FLUORESCENT PROTEIN
p79
aVRECEPTOR-LIKE KINASES
p80
aVAAA ATPASE CDC48/P97
p81
aVENDOPLASMIC-RETICULUM
p82
aVARABIDOPSIS-THALIANA
p83
aVQUALITY-CONTROL
p84
aVPLANT-CELLS
p85
aVIN-VIVO
p86
aVRETRO-TRANSLOCATION
p87
asS'language'
p88
VEnglish
p89
sS'wosid'
p90
VWOS:000311998200034
p91
sS'citationCount'
p92
I85
sS'authors_init'
p93
(lp94
(VNIEHL
VA
tp95
a(VAMARI
VK
tp96
a(VGEREIGE
VD
tp97
a(VBRANDNER
VK
tp98
a(VMELY
VY
tp99
a(VHEINLEIN
VM
tp100
asS'citedReferences'
p101
(lp102
g1
(g2
g3
NtRp103
(dp104
g62
V10.1007/BF00017814
p105
sg58
VPLANT MOL BIOL
p106
sg60
V30
p107
sg93
(lp108
(VAGUILAR
VI
tp109
asg23
I1996
sg56
VLANT
p110
sbag1
(g2
g3
NtRp111
(dp112
g62
V10.1016/j.jsb.2006.03.004
p113
sg58
VJ STRUCT BIOL
p114
sg60
V156
p115
sg93
(lp116
(VAKER
VJ
tp117
asg23
I2006
sg56
V62
p118
sbag1
(g2
g3
NtRp119
(dp120
g62
V10.1104/pp.107.103986
p121
sg58
VPLANT PHYSIOL
p122
sg60
V145
p123
sg93
(lp124
(VAKER
VJ
tp125
asg23
I2007
sg56
VLANT
p126
sbag1
(g2
g3
NtRp127
(dp128
g62
V10.1104/pp.108.120501
p129
sg58
VPLANT PHYSIOL
p130
sg60
V147
p131
sg93
(lp132
(VAKER
VJ
tp133
asg23
I2008
sg56
VLANT
p134
sbag1
(g2
g3
NtRp135
(dp136
g62
V10.1104/pp.108.123216
p137
sg58
VPLANT PHYSIOL
p138
sg60
V148
p139
sg93
(lp140
(VALBRECHT
VC
tp141
asg23
I2008
sg56
VLANT
p142
sbag1
(g2
g3
NtRp143
(dp144
g62
V10.1042/BST0360062
p145
sg58
VBIOCHEM SOC T
p146
sg60
V36
p147
sg93
(lp148
(VYEUNG
VH O
tp149
asg23
I2008
sg56
V62
p150
sbag1
(g2
g3
NtRp151
(dp152
g62
V10.1128/JVI.00540-06
p153
sg58
VJ VIROL
p154
sg60
V80
p155
sg93
(lp156
(VASHBY
VJ
tp157
asg23
I2006
sg56
V8329
p158
sbag1
(g2
g3
NtRp159
(dp160
g62
V10.1111/j.1744-7348.1939.tb06959.x
p161
sg58
VANN APPL BIOL
p162
sg60
V26
p163
sg93
(lp164
(VBAWDEN
VF C
tp165
asg23
I1939
sg56
V102
p166
sbag1
(g2
g3
NtRp167
(dp168
g62
V10.1111/j.1365-313X.2010.04126.x
p169
sg58
VPLANT J
p170
sg60
V62
p171
sg93
(lp172
(VBOUTANT
VE
tp173
asg23
I2010
sg56
VLANT
p174
sbag1
(g2
g3
NtRp175
(dp176
g62
V10.1038/35041072
p177
sg58
VNAT CELL BIOL
p178
sg60
V2
sg93
(lp179
(VBOYKO
VV
tp180
asg23
I2000
sg56
V826
p181
sbag1
(g2
g3
NtRp182
(dp183
g62
V10.1128/JVI.74.23.11339-11346.2000
p184
sg58
VJ VIROL
p185
sg60
V74
p186
sg93
(lp187
(VBOYKO
VV
tp188
asg23
I2000
sg56
V11339
p189
sbag1
(g2
g3
NtRp190
(dp191
g62
V10.1046/j.1365-313x.2000.00740.x
p192
sg58
VPLANT J
p193
sg60
V22
p194
sg93
(lp195
(VBOYKO
VV
tp196
asg23
I2000
sg56
VLANT
p197
sbag1
(g2
g3
NtRp198
(dp199
g62
V10.1128/JVI.76.8.3974-3980.2002
p200
sg58
VJ VIROL
p201
sg60
V76
p202
sg93
(lp203
(VBOYKO
VV
tp204
asg23
I2002
sg56
V3974
p205
sbag1
(g2
g3
NtRp206
(dp207
g62
V10.1111/j.1365-313X.2007.03163.x
p208
sg58
VPLANT J
p209
sg60
V51
p210
sg93
(lp211
(VBOYKO
VV
tp212
asg23
I2007
sg56
VLANT
p213
sbag1
(g2
g3
NtRp214
(dp215
g62
V10.1104/pp.108.117481
p216
sg58
VPLANT PHYSIOL
p217
sg60
V147
p218
sg93
(lp219
(VBRANDNER
VK
tp220
asg23
I2008
sg56
VLANT
p221
sbag1
(g2
g3
NtRp222
(dp223
g62
V10.1073/pnas.130187897
p224
sg58
VP NATL ACAD SCI USA
p225
sg60
V97
p226
sg93
(lp227
(VBRILL
VL M
tp228
asg23
I2000
sg56
V7112
p229
sbag1
(g2
g3
NtRp230
(dp231
g62
V10.1128/JVI.78.7.3372-3377.2004
p232
sg58
VJ VIROL
p233
sg60
V78
p234
sg93
(lp235
(VBRILL
VL M
tp236
asg23
I2004
sg56
V3372
p237
sbag1
(g2
g3
NtRp238
(dp239
g62
V10.1016/j.molcel.2010.10.001
p240
sg58
VMOL CELL
p241
sg60
V40
p242
sg93
(lp243
(VBUCHBERGER
VA
tp244
asg23
I2010
sg56
V238
p245
sbag1
(g2
g3
NtRp246
(dp247
g62
V10.1016/0092-8674(90)90667-4
p248
sg58
VCELL
p249
sg60
V60
p250
sg93
(lp251
(VCITOVSKY
VV
tp252
asg23
I1990
sg56
V637
p253
sbag1
(g2
g3
NtRp254
(dp255
g62
V10.1016/S0042-6822(95)80046-8
p256
sg58
VVIROLOGY
p257
sg60
VIROLOGY
p258
sg93
(lp259
(VCOOPER
VB
tp260
asg23
I1995
sg56
V307
p261
sbag1
(g2
g3
NtRp262
(dp263
g62
V10.1016/j.cell.2006.09.051
p264
sg58
VCELL
p265
sg60
V127
p266
sg93
(lp267
(VCROSAS
VB
tp268
asg23
I2006
sg56
V1401
p269
sbag1
(g2
g3
NtRp270
(dp271
g62
V10.1105/tpc.111.093062
p272
sg58
VPLANT CELL
p273
sg60
V24
p274
sg93
(lp275
(VCUI
VF
tp276
asg23
I2012
sg56
VLANT
p277
sbag1
(g2
g3
NtRp278
(dp279
g62
V10.1104/pp.106.091488
p280
sg58
VPLANT PHYSIOL
p281
sg60
V143
p282
sg93
(lp283
(VCURIN
VM
tp284
asg23
I2007
sg56
VLANT
p285
sbag1
(g2
g3
NtRp286
(dp287
g62
V10.1104/pp.105.063743
p288
sg58
VPLANT PHYSIOL
p289
sg60
V139
p290
sg93
(lp291
(VCZECHOWSKI
VT
tp292
asg23
I2005
sg56
VLANT
p293
sbag1
(g2
g3
NtRp294
(dp295
g62
V10.1126/science.237.4813.389
p296
sg58
VSCIENCE
p297
sg60
V237
p298
sg93
(lp299
(VDEOM
VC M
tp300
asg23
I1987
sg56
V389
p301
sbag1
(g2
g3
NtRp302
(dp303
g62
V10.1073/pnas.251386098
p304
sg58
VP NATL ACAD SCI USA
p305
sg60
V98
p306
sg93
(lp307
(VDI
VCOLA A
tp308
asg23
I2001
sg56
V14726
p309
sbag1
(g2
g3
NtRp310
(dp311
g62
V10.1105/tpc.4.8.915
p312
sg58
VPLANT CELL
p313
sg60
V4
sg93
(lp314
(VDING
VB
tp315
asg23
I1992
sg56
VLANT
p316
sbag1
(g2
g3
NtRp317
(dp318
g62
V10.1007/978-1-4419-6676-6_11
p319
sg58
VSUBCELL BIOCHEM
p320
sg60
V54
p321
sg93
(lp322
(VEISELE
VF
tp323
asg23
I2010
sg56
V136
p324
sbag1
(g2
g3
NtRp325
(dp326
g62
V10.1371/journal.pbio.1000605
p327
sg58
VPLOS BIOL
p328
sg60
V9
sg93
(lp329
(VERNST
VR
tp330
asg23
I2011
sg56
VLOS
p331
sbag1
(g2
g3
NtRp332
(dp333
g62
V10.1083/jcb.33.3.665
p334
sg58
VJ CELL BIOL
p335
sg60
V33
p336
sg93
(lp337
(VESAU
VK
tp338
asg23
I1967
sg56
V665
p339
sbag1
(g2
g3
NtRp340
(dp341
g62
Nsg58
VEMBO J
p342
sg60
V14
p343
sg93
(lp344
(VFEILER
VH S
tp345
asg23
I1995
sg56
V5626
p346
sbag1
(g2
g3
NtRp347
(dp348
g62
V10.1099/vir.0.81936-0
p349
sg58
VJ GEN VIROL
p350
sg60
V87
p351
sg93
(lp352
(VFUJIKI
VM
tp353
asg23
I2006
sg56
V2699
p354
sbag1
(g2
g3
NtRp355
(dp356
g62
V10.1016/0042-6822(92)90452-U
p357
sg58
VVIROLOGY
p358
sg60
VIROLOGY
p359
sg93
(lp360
(VGAFNY
VR
tp361
asg23
I1992
sg56
V499
p362
sbag1
(g2
g3
NtRp363
(dp364
g62
V10.1105/tpc.002303
p365
sg58
VPLANT CELL
p366
sg60
V14
p367
sg93
(lp368
(VGILLESPIE
VT
tp369
asg23
I2002
sg56
VLANT
p370
sbag1
(g2
g3
NtRp371
(dp372
g62
V10.1016/j.virol.2010.12.021
p373
sg58
VVIROLOGY
p374
sg60
VIROLOGY
p375
sg93
(lp376
(VHARRIES
VP
tp377
asg23
I2011
sg56
V237
p378
sbag1
(g2
g3
NtRp379
(dp380
g62
V10.1038/sj.cdd.4401833
p381
sg58
VCELL DEATH DIFFER
p382
sg60
V13
p383
sg93
(lp384
(VHE
VB
tp385
asg23
I2006
sg56
V393
p386
sbag1
(g2
g3
NtRp387
(dp388
g62
V10.1126/science.270.5244.1983
p389
sg58
VSCIENCE
p390
sg60
V270
p391
sg93
(lp392
(VHEINLEIN
VM
tp393
asg23
I1995
sg56
V1983
p394
sbag1
(g2
g3
NtRp395
(dp396
g62
Nsg58
VPLANT CELL
p397
sg60
V10
p398
sg93
(lp399
(VHEINLEIN
VM
tp400
asg23
I1998
sg56
VLANT
p401
sbag1
(g2
g3
NtRp402
(dp403
g62
V10.1016/0042-6822(87)90143-7
p404
sg58
VVIROLOGY
p405
sg60
VIROLOGY
p406
sg93
(lp407
(VHILLS
VG J
tp408
asg23
I1987
sg56
V488
p409
sbag1
(g2
g3
NtRp410
(dp411
g62
V10.1104/pp.108.133827
p412
sg58
VPLANT PHYSIOL
p413
sg60
V149
p414
sg93
(lp415
(VHOFMANN
VC
tp416
asg23
I2009
sg56
VLANT
p417
sbag1
(g2
g3
NtRp418
(dp419
g62
V10.1105/tpc.108.061879
p420
sg58
VPLANT CELL
p421
sg60
V20
p422
sg93
(lp423
(VHONG
VZ
tp424
asg23
I2008
sg56
VLANT
p425
sbag1
(g2
g3
NtRp426
(dp427
g62
V10.1046/j.1365-313X.1998.00172.x
p428
sg58
VPLANT J
p429
sg60
V15
p430
sg93
(lp431
(VKAHN
VT W
tp432
asg23
I1998
sg56
VLANT
p433
sbag1
(g2
g3
NtRp434
(dp435
g62
V10.1016/S1360-1385(02)02251-3
p436
sg58
VTRENDS PLANT SCI
p437
sg60
V7
sg93
(lp438
(VKARIMI
VM
tp439
asg23
I2002
sg56
V193
p440
sbag1
(g2
g3
NtRp441
(dp442
g62
V10.1094/MPMI.2001.14.7.895
p443
sg58
VMOL PLANT MICROBE IN
p444
sg60
V14
p445
sg93
(lp446
(VKOTLIZKY
VG
tp447
asg23
I2001
sg56
V895
p448
sbag1
(g2
g3
NtRp449
(dp450
g62
V10.1104/pp.103.022269
p451
sg58
VPLANT PHYSIOL
p452
sg60
V132
p453
sg93
(lp454
(VKRAGLER
VF
tp455
asg23
I2003
sg56
VLANT
p456
sbag1
(g2
g3
NtRp457
(dp458
g62
V10.1146/annurev-phyto-073009-114239
p459
sg58
VANNU REV PHYTOPATHOL
p460
sg60
V48
p461
sg93
(lp462
(VLALIBERTE
VJ F
tp463
asg23
I2010
sg56
V69
p464
sbag1
(g2
g3
NtRp465
(dp466
g62
V10.1046/j.1365-313X.1993.04060959.x
p467
sg58
VPLANT J
p468
sg60
V4
sg93
(lp469
(VLAPIDOT
VM
tp470
asg23
I1993
sg56
VLANT
p471
sbag1
(g2
g3
NtRp472
(dp473
g62
V10.1105/tpc.110.078154
p474
sg58
VPLANT CELL
p475
sg60
V22
p476
sg93
(lp477
(VLIU
VJ X
tp478
asg23
I2010
sg56
VLANT
p479
sbag1
(g2
g3
NtRp480
(dp481
g62
V10.1038/cr.2010.181
p482
sg58
VCELL RES
p483
sg60
V21
p484
sg93
(lp485
(VLIU
VL J
tp486
asg23
I2011
sg56
V957
p487
sbag1
(g2
g3
NtRp488
(dp489
g62
V10.1016/j.virol.2005.09.026
p490
sg58
VVIROLOGY
p491
sg60
VIROLOGY
p492
sg93
(lp493
(VLUCAS
VW J
tp494
asg23
I2006
sg56
V169
p495
sbag1
(g2
g3
NtRp496
(dp497
g62
V10.1111/j.1364-3703.2008.00506.x
p498
sg58
VMOL PLANT PATHOL
p499
sg60
V10
p500
sg93
(lp501
(VMANSILLA
VC
tp502
asg23
I2009
sg56
V59
p503
sbag1
(g2
g3
NtRp504
(dp505
g62
V10.1074/jbc.M709316200
p506
sg58
VJ BIOL CHEM
p507
sg60
V283
p508
sg93
(lp509
(VMARSHALL
VR S
tp510
asg23
I2008
sg56
V15869
p511
sbag1
(g2
g3
NtRp512
(dp513
g62
V10.1083/jcb.147.5.945
p514
sg58
VJ CELL BIOL
p515
sg60
V147
p516
sg93
(lp517
(VMAS
VP
tp518
asg23
I1999
sg56
V945
p519
sbag1
(g2
g3
NtRp520
(dp521
g62
V10.1038/ncb0805-766
p522
sg58
VNAT CELL BIOL
p523
sg60
V7
sg93
(lp524
(VMEUSSER
VB
tp525
asg23
I2005
sg56
V766
p526
sbag1
(g2
g3
NtRp527
(dp528
g62
V10.1038/ncb2407
p529
sg58
VNAT CELL BIOL
p530
sg60
V14
p531
sg93
(lp532
(VMEYER
VH
tp533
asg23
I2012
sg56
V117
p534
sbag1
(g2
g3
NtRp535
(dp536
g62
V10.1105/tpc.104.026625
p537
sg58
VPLANT CELL
p538
sg60
V17
p539
sg93
(lp540
(VMULLER
VJ
tp541
asg23
I2005
sg56
VLANT
p542
sbag1
(g2
g3
NtRp543
(dp544
g62
V10.1007/s00709-010-0246-1
p545
sg58
VPROTOPLASMA
p546
sg60
V248
p547
sg93
(lp548
(VNIEHL
VA
tp549
asg23
I2011
sg56
VROTOPLASMA
p550
sbag1
(g2
g3
NtRp551
(dp552
g62
V10.1111/j.1365-313X.2010.04195.x
p553
sg58
VPLANT J
p554
sg60
V62
p555
sg93
(lp556
(VOUKO
VM O
tp557
asg23
I2010
sg56
VLANT
p558
sbag1
(g2
g3
NtRp559
(dp560
g62
V10.1046/j.1365-313X.1996.10061079.x
p561
sg58
VPLANT J
p562
sg60
V10
p563
sg93
(lp564
(VPADGETT
VH S
tp565
asg23
I1996
sg56
VLANT
p566
sbag1
(g2
g3
NtRp567
(dp568
g62
V10.1002/bies.201100086
p569
sg58
VBIOESSAYS
p570
sg60
V34
p571
sg93
(lp572
(VPADILLA-PARRA
VS
tp573
asg23
I2012
sg56
V369
p574
sbag1
(g2
g3
NtRp575
(dp576
g62
V10.3389/fpls.2012.00193
p577
sg58
VFront Plant Sci
p578
sg60
V3
sg93
(lp579
(VPEN\u0303A
VEDUARDO J
tp580
asg23
I2012
sg56
V193
p581
sbag1
(g2
g3
NtRp582
(dp583
g62
V10.1371/journal.pone.0019549
p584
sg58
VPLOS ONE
p585
sg60
V6
sg93
(lp586
(VHU
VQ A
tp587
asg23
I2011
sg56
VLOS
p588
sbag1
(g2
g3
NtRp589
(dp590
g62
V10.1104/pp.011742
p591
sg58
VPLANT PHYSIOL
p592
sg60
V130
p593
sg93
(lp594
(VRANCOUR
VD M
tp595
asg23
I2002
sg56
VLANT
p596
sbag1
(g2
g3
NtRp597
(dp598
g62
V10.1128/JVI.74.7.3330-3337.2000
p599
sg58
VJ VIROL
p600
sg60
V74
p601
sg93
(lp602
(VREICHEL
VC
tp603
asg23
I2000
sg56
V3330
p604
sbag1
(g2
g3
NtRp605
(dp606
g62
V10.1073/pnas.95.19.11169
p607
sg58
VP NATL ACAD SCI USA
p608
sg60
V95
p609
sg93
(lp610
(VREICHEL
VC
tp611
asg23
I1998
sg56
V11169
p612
sbag1
(g2
g3
NtRp613
(dp614
g62
V10.1146/annurev.cellbio.21.012704.133250
p615
sg58
VANNU REV CELL DEV BI
p616
sg60
V21
p617
sg93
(lp618
(VROMISCH
VK
tp619
asg23
I2005
sg56
V435
p620
sbag1
(g2
g3
NtRp621
(dp622
g62
Nsg58
VPLANT CELL
p623
sg60
V10
p624
sg93
(lp625
(VRUIZ
VM T
tp626
asg23
I1998
sg56
VLANT
p627
sbag1
(g2
g3
NtRp628
(dp629
g62
V10.1016/j.molcel.2005.12.014
p630
sg58
VMOL CELL
p631
sg60
V21
p632
sg93
(lp633
(VRUMPF
VS
tp634
asg23
I2006
sg56
V261
p635
sbag1
(g2
g3
NtRp636
(dp637
g62
V10.1111/j.1600-0854.2008.00824.x
p638
sg58
VTRAFFIC
p639
sg60
V9
sg93
(lp640
(VSAMBADE
VA
tp641
asg23
I2008
sg56
V2073
p642
sbag1
(g2
g3
NtRp643
(dp644
g62
V10.1038/nchembio.250
p645
sg58
VNAT CHEM BIOL
p646
sg60
V5
sg93
(lp647
(VSCHRADER
VE K
tp648
asg23
I2009
sg56
V815
p649
sbag1
(g2
g3
NtRp650
(dp651
g62
V10.1007/s00018-008-8072-8
p652
sg58
VCELL MOL LIFE SCI
p653
sg60
V65
p654
sg93
(lp655
(VSCHUBERTH
VC
tp656
asg23
I2008
sg56
V2360
p657
sbag1
(g2
g3
NtRp658
(dp659
g62
V10.1016/j.tibs.2011.06.001
p660
sg58
VTRENDS BIOCHEM SCI
p661
sg60
V36
p662
sg93
(lp663
(VSTOLZ
VA
tp664
asg23
I2011
sg56
V515
p665
sbag1
(g2
g3
NtRp666
(dp667
g62
V10.1073/pnas.1013251108
p668
sg58
VP NATL ACAD SCI USA
p669
sg60
V108
p670
sg93
(lp671
(VSU
VW
tp672
asg23
I2011
sg56
V870
p673
sbag1
(g2
g3
NtRp674
(dp675
g62
V10.1093/mp/sss042
p676
sg58
VMOL PLANT
p677
sg60
V5
sg93
(lp678
(VSU
VW
tp679
asg23
I2012
sg56
V929
p680
sbag1
(g2
g3
NtRp681
(dp682
g62
V10.1104/pp.111.189605
p683
sg58
VPLANT PHYSIOL
p684
sg60
V158
p685
sg93
(lp686
(VTILSNER
VJ
tp687
asg23
I2012
sg56
VLANT
p688
sbag1
(g2
g3
NtRp689
(dp690
g62
V10.1046/j.1365-313X.2002.01308.x
p691
sg58
VPLANT J
p692
sg60
V30
p693
sg93
(lp694
(VTOTH
VR L
tp695
asg23
I2002
sg56
VLANT
p696
sbag1
(g2
g3
NtRp697
(dp698
g62
V10.1038/nrm780
p699
sg58
VNAT REV MOL CELL BIO
p700
sg60
V3
sg93
(lp701
(VTSAI
VB
tp702
asg23
I2002
sg56
V246
p703
sbag1
(g2
g3
NtRp704
(dp705
g62
V10.1371/journal.pbio.1001038
p706
sg58
VPLOS BIOL
p707
sg60
V9
sg93
(lp708
(VTSAI
VY C
tp709
asg23
I2011
sg56
VLOS
p710
sbag1
(g2
g3
NtRp711
(dp712
g62
V10.1007/7089_2006_100
p713
sg58
VVIRAL TRANSPORT PLAN
p714
sg60
VIRAL
p715
sg93
(lp716
(VWAIGMANN
VE
tp717
asg23
I2007
sg56
V29
p718
sbag1
(g2
g3
NtRp719
(dp720
g62
V10.1126/science.246.4928.377
p721
sg58
VSCIENCE
p722
sg60
V246
p723
sg93
(lp724
(VWOLF
VS
tp725
asg23
I1989
sg56
V377
p726
sbag1
(g2
g3
NtRp727
(dp728
g62
V10.1111/j.1600-0854.2006.00510.x
p729
sg58
VTRAFFIC
p730
sg60
V8
sg93
(lp731
(VWRIGHT
VK M
tp732
asg23
I2007
sg56
V21
p733
sbag1
(g2
g3
NtRp734
(dp735
g62
V10.1016/j.bbamcr.2011.07.001
p736
sg58
VBBA
p737
sg60
V1823
p738
sg93
(lp739
(VYAMANAKA
VK
tp740
asg23
I2012
sg56
V130
p741
sbag1
(g2
g3
NtRp742
(dp743
g62
V10.1104/pp.111.174110
p744
sg58
VPLANT PHYSIOL
p745
sg60
V156
p746
sg93
(lp747
(VYE
VC M
tp748
asg23
I2011
sg56
VLANT
p749
sbag1
(g2
g3
NtRp750
(dp751
g62
V10.1038/414652a
p752
sg58
VNATURE
p753
sg60
V414
p754
sg93
(lp755
(VYE
VY H
tp756
asg23
I2001
sg56
V652
p757
sbag1
(g2
g3
NtRp758
(dp759
g62
V10.1083/jcb.200302169
p760
sg58
VJ CELL BIOL
p761
sg60
V162
p762
sg93
(lp763
(VYE
VY H
tp764
asg23
I2003
sg56
V71
p765
sbasb.