ccopy_reg
_reconstructor
p1
(ctethne.classes.paper
Paper
p2
c__builtin__
object
p3
NtRp4
(dp5
S'publisherCity'
p6
VROCKVILLE
p7
sS'reprintAddress'
p8
VFleming, AJ (reprint author), Swiss Fed Inst Technol, Inst Plant Sci, Zurich, Switzerland.
p9
sS'WC'
p10
VPlant Sciences
p11
sS'GA'
p12
V071XI
p13
sS'abstract'
p14
VThe shoot apical meristem contains cells that undergo continual growth and division to generate the building blocks for the aerial portion of the plant. As cells leave the meristem, they undergo differentiation to form specific cell types. Most notably, heterotrophic cells of the meristem rapidly gain autotrophic capability by synthesis and assembly of components of the chloroplast. At the same time, cells undergo enlargement via vacuolation. Despite significant advances in the characterization of transcriptional networks involved in meristem maintenance and leaf determination, our understanding of the actual mechanism of meristem cell differentiation remains very limited. Using a microinduction technique, we show that local, transient overexpression of a retinoblastoma-related (RBR) protein in the shoot apical meristem is sufficient to trigger cells in the meristem to undergo the initial stages of differentiation. Taken together with recent data showing that RBR protein plays a key role in restricting stem cell differentiation in the root apical meristem, our data contribute to an emerging picture of RBR proteins as a central part of the mechanism controlling meristem cell differentiation.
p15
sS'pageEnd'
p16
I1348
sS'publisherAddress'
p17
V15501 MONONA DRIVE, ROCKVILLE, MD 20855 USA
p18
sS'documentType'
p19
VArticle
p20
sS'subject'
p21
VPlant Sciences
p22
sS'isoSource'
p23
VPlant Physiol.
p24
sS'timesCited'
p25
(lp26
I31
aVZ9 35
p27
asS'PT'
p28
VJ
sS'title'
p29
VInduction Of Differentiation In The Shoot Apical Meristem By Transient Overexpression Of A Retinoblastoma-Related Protein
p30
sS'ISSN'
p31
(lp32
V0032-0889
p33
aVJ9 PLANT PHYSIOL
p34
asS'authors_full'
p35
(lp36
(VWYRZYKOWSKA
VJOANNA
tp37
a(VSCHORDERET
VMARTINE
tp38
a(VPIEN
VSTEPHANE
tp39
a(VGRUISSEM
VWILHELM
tp40
a(VFLEMING
VANDREW J
tp41
asS'PG'
p42
I11
sS'PD'
p43
VAUG
p44
sS'pageStart'
p45
I1338
sS'issue'
p46
I4
sS'journal'
p47
VPLANT PHYSIOLOGY
p48
sS'volume'
p49
V141
p50
sS'doi'
p51
V10.1104/pp.106.083022
p52
sS'emailAddress'
p53
Va.fleming@sheffield.ac.uk
p54
sS'authorAddress'
p55
(lp56
VSwiss Fed Inst Technol, Inst Plant Sci, Zurich, Switzerland.
p57
aVUniv Fribourg, Dept Biol Plant Biol, CH-1700 Fribourg, Switzerland.
p58
aVUniv Sheffield, Dept Anim & Plant Sci, Western Bank, Sheffield S10 2TN, S Yorkshire, England.
p59
asS'date'
p60
I2006
sS'ER'
p61
V
sS'publisher'
p62
VAMER SOC PLANT BIOLOGISTS
p63
sS'authorKeywords'
p64
(lp65
VD-TYPE CYCLIN
p66
aVCELL-CYCLE
p67
aVLEAF DEVELOPMENT
p68
aVGENE-EXPRESSION
p69
aVSTEM-CELLS
p70
aVARABIDOPSIS
p71
aVPLANT
p72
aVMAIZE
p73
aVTOBACCO
p74
aVDIVISION
p75
asS'language'
p76
VEnglish
p77
sS'wosid'
p78
VWOS:000239636800019
p79
sS'citationCount'
p80
I49
sS'authors_init'
p81
(lp82
(VWYRZYKOWSKA
VJ
tp83
a(VSCHORDERET
VM
tp84
a(VPIEN
VS
tp85
a(VGRUISSEM
VW
tp86
a(VFLEMING
VA J
tp87
asS'citedReferences'
p88
(lp89
g1
(g2
g3
NtRp90
(dp91
g51
Nsg47
VMOL CELL BIOL
p92
sg49
V17
p93
sg81
(lp94
(VACH
VR A
tp95
asg60
I1997
sg45
V5077
p96
sbag1
(g2
g3
NtRp97
(dp98
g51
V10.1016/j.pbi.2004.11.009
p99
sg47
VCURR OPIN PLANT BIOL
p100
sg49
V8
sg81
(lp101
(VBYRNE
VM E
tp102
asg60
I2005
sg45
V59
p103
sbag1
(g2
g3
NtRp104
(dp105
g51
V10.1105/tpc.004838
p106
sg47
VPLANT CELL
p107
sg49
V15
p108
sg81
(lp109
(VDEWITTE
VW
tp110
asg60
I2003
sg45
VLANT
p111
sbag1
(g2
g3
NtRp112
(dp113
g51
V10.1101/gad.1116703
p114
sg47
VGENE DEV
p115
sg49
V17
p116
sg81
(lp117
(VDIMOVA
VD K
tp118
asg60
I2003
sg45
V2308
p119
sbag1
(g2
g3
NtRp120
(dp121
g51
V10.1006/dbio.1999.9443
p122
sg47
VDEV BIOL
p123
sg49
V215
p124
sg81
(lp125
(VDONNELLY
VP M
tp126
asg60
I1999
sg45
V407
p127
sbag1
(g2
g3
NtRp128
(dp129
g51
V10.1023/A:1006426808185
p130
sg47
VPLANT MOL BIOL
p131
sg49
V43
p132
sg81
(lp133
(VDURFEE
VT
tp134
asg60
I2000
sg45
VLANT
p135
sbag1
(g2
g3
NtRp136
(dp137
g51
V10.1038/nature02637
p138
sg47
VNATURE
p139
sg49
V429
p140
sg81
(lp141
(VEBEL
VC
tp142
asg60
I2004
sg45
V776
p143
sbag1
(g2
g3
NtRp144
(dp145
g51
V10.1046/j.1365-313X.1996.10040745.x
p146
sg47
VPLANT J
p147
sg49
V10
p148
sg81
(lp149
(VFLEMING
VA J
tp150
asg60
I1996
sg45
VLANT
p151
sbag1
(g2
g3
NtRp152
(dp153
g51
V10.1016/j.pbi.2004.11.013
p154
sg47
VCURR OPIN PLANT BIOL
p155
sg49
V8
sg81
(lp156
(VFLEMING
VA J
tp157
asg60
I2005
sg45
V53
p158
sbag1
(g2
g3
NtRp159
(dp160
g51
V10.1093/jxb/eri268
p161
sg47
VJ EXP BOT
p162
sg49
V57
p163
sg81
(lp164
(VFLEMING
VA J
tp165
asg60
I2006
sg45
V25
p166
sbag1
(g2
g3
NtRp167
(dp168
g51
V10.1046/j.1365-313X.1992.t01-37-00999.x
p169
sg47
VPLANT J
p170
sg49
V2
sg81
(lp171
(VGATZ
VC
tp172
asg60
I1992
sg45
VLANT
p173
sbag1
(g2
g3
NtRp174
(dp175
g51
V10.1073/pnas.142409899
p176
sg47
VP NATL ACAD SCI USA
p177
sg49
V99
p178
sg81
(lp179
(VGORDON-KAMM
VW
tp180
asg60
I2002
sg45
V11975
p181
sbag1
(g2
g3
NtRp182
(dp183
g51
Nsg47
VNATURE CELL BIOL
p184
sg49
V4
sg81
(lp185
(VHARBOUR
VJ W
tp186
asg60
I2000
sg45
V65
p187
sbag1
(g2
g3
NtRp188
(dp189
g51
V10.1038/427201a
p190
sg47
VNATURE
p191
sg49
V427
p192
sg81
(lp193
(VHARRIS
VH
tp194
asg60
I2004
sg45
V201
p195
sbag1
(g2
g3
NtRp196
(dp197
g51
V10.1104/pp.102.017434
p198
sg47
VPLANT PHYSIOL
p199
sg49
V131
p200
sg81
(lp201
(VHAY
VA
tp202
asg60
I2003
sg45
VLANT
p203
sbag1
(g2
g3
NtRp204
(dp205
g51
V10.1242/dev.00470
p206
sg47
VDEVELOPMENT
p207
sg49
V130
p208
sg81
(lp209
(VHENNIG
VL
tp210
asg60
I2003
sg45
V2555
p211
sbag1
(g2
g3
NtRp212
(dp213
g51
V10.1023/A:1005902226256
p214
sg47
VPLANT MOL BIOL
p215
sg49
V37
p216
sg81
(lp217
(VHUNTLEY
VR
tp218
asg60
I1998
sg45
VLANT
p219
sbag1
(g2
g3
NtRp220
(dp221
g51
V10.1038/sj.emboj.7600561
p222
sg47
VEMBO J
p223
sg49
V24
p224
sg81
(lp225
(VINZE
VD
tp226
asg60
I2005
sg45
V657
p227
sbag1
(g2
g3
NtRp228
(dp229
g51
Nsg47
VDEVELOPMENT
p230
sg49
V120
p231
sg81
(lp232
(VJACKSON
VD
tp233
asg60
I1994
sg45
V405
p234
sbag1
(g2
g3
NtRp235
(dp236
g51
V10.1038/nature02363
p237
sg47
VNATURE
p238
sg49
V428
p239
sg81
(lp240
(VJUAREZ
VM T
tp241
asg60
I2004
sg45
V84
p242
sbag1
(g2
g3
NtRp243
(dp244
g51
V10.1073/pnas.87.17.6922
p245
sg47
VP NATL ACAD SCI USA
p246
sg49
V87
p247
sg81
(lp248
(VKAYE
VF J
tp249
asg60
I1990
sg45
V6922
p250
sbag1
(g2
g3
NtRp251
(dp252
g51
V10.1038/nature02366
p253
sg47
VNATURE
p254
sg49
V428
p255
sg81
(lp256
(VKIDNER
VC A
tp257
asg60
I2004
sg45
V81
p258
sbag1
(g2
g3
NtRp259
(dp260
g51
V10.1073/pnas.052484099
p261
sg47
VP NATL ACAD SCI USA
p262
sg49
V99
p263
sg81
(lp264
(VKIM
VJ Y
tp265
asg60
I2002
sg45
V4103
p266
sbag1
(g2
g3
NtRp267
(dp268
g51
V10.1016/j.cell.2006.02.043
p269
sg47
VCELL
p270
sg49
V125
p271
sg81
(lp272
(VLEE
VT I
tp273
asg60
I2006
sg45
V301
p274
sbag1
(g2
g3
NtRp275
(dp276
g51
V10.1038/379066a0
p277
sg47
VNATURE
p278
sg49
V379
p279
sg81
(lp280
(VLONG
VJ A
tp281
asg60
I1996
sg45
V66
p282
sbag1
(g2
g3
NtRp283
(dp284
g51
V10.1007/BF00014972
p285
sg47
VPLANT MOL BIOL
p286
sg49
V29
p287
sg81
(lp288
(VMANDEL
VT
tp289
asg60
I1995
sg45
VLANT
p290
sbag1
(g2
g3
NtRp291
(dp292
g51
V10.1101/gad.1120003
p293
sg47
VGENE DEV
p294
sg49
V17
p295
sg81
(lp296
(VMELE
VG
tp297
asg60
I2003
sg45
V2088
p298
sbag1
(g2
g3
NtRp299
(dp300
g51
V10.1105/tpc.002550
p301
sg47
VPLANT CELL
p302
sg49
V14
p303
sg81
(lp304
(VNAKAGAMI
VH
tp305
asg60
I2002
sg45
VLANT
p306
sbag1
(g2
g3
NtRp307
(dp308
g51
V10.1016/S0092-8674(03)00401-X
p309
sg47
VCELL
p310
sg49
V113
p311
sg81
(lp312
(VNARITA
VM
tp313
asg60
I2003
sg45
V703
p314
sbag1
(g2
g3
NtRp315
(dp316
g51
V10.1111/j.1365-313X.2005.02361.x
p317
sg47
VPLANT J
p318
sg49
V42
p319
sg81
(lp320
(VPARK
VJ A
tp321
asg60
I2005
sg45
VLANT
p322
sbag1
(g2
g3
NtRp323
(dp324
g51
V10.1093/nar/30.9.e36
p325
sg47
VNUCLEIC ACIDS RES
p326
sg49
V30
p327
sg81
(lp328
(VPFAFFL
VM W
tp329
asg60
I2002
sg45
Nsbag1
(g2
g3
NtRp330
(dp331
g51
V10.1073/pnas.191380498
p332
sg47
VP NATL ACAD SCI USA
p333
sg49
V98
p334
sg81
(lp335
(VPIEN
VS
tp336
asg60
I2001
sg45
V11812
p337
sbag1
(g2
g3
NtRp338
(dp339
g51
Nsg47
VJ CELL BIOL
p340
sg49
V25
p341
sg81
(lp342
(VREYNOLDS
VE S T
tp343
asg60
I1963
sg45
V208
p344
sbag1
(g2
g3
NtRp345
(dp346
g51
V10.1073/pnas.0506160102
p347
sg47
VP NATL ACAD SCI USA
p348
sg49
V102
p349
sg81
(lp350
(VSABELLI
VP A
tp351
asg60
I2005
sg45
V13005
p352
sbag1
(g2
g3
NtRp353
(dp354
g51
V10.1016/j.tcb.2004.09.011
p355
sg47
VTRENDS CELL BIOL
p356
sg49
V14
p357
sg81
(lp358
(VSABLOWSKI
VR
tp359
asg60
I2004
sg45
V605
p360
sbag1
(g2
g3
NtRp361
(dp362
g51
V10.1101/gad.867901
p363
sg47
VGENE DEV
p364
sg49
V15
p365
sg81
(lp366
(VSAKAMOTO
VT
tp367
asg60
I2001
sg45
V581
p368
sbag1
(g2
g3
NtRp369
(dp370
g51
Nsg47
VMOL CLONING LAB MANU
p371
sg49
Nsg81
(lp372
(VSAMBROOK
VJ
tp373
asg60
I1992
sg45
Nsbag1
(g2
g3
NtRp374
(dp375
g51
V10.1016/j.ppi.2004.09.004
p376
sg47
VCURR OPIN PLANT BIOL
p377
sg49
V7
sg81
(lp378
(VSTRAND
VA
tp379
asg60
I2004
sg45
V621
p380
sbag1
(g2
g3
NtRp381
(dp382
g51
V10.1038/nrg1002
p383
sg47
VNAT REV GENET
p384
sg49
V4
sg81
(lp385
(VTSIANTIS
VM
tp386
asg60
I2003
sg45
V169
p387
sbag1
(g2
g3
NtRp388
(dp389
g51
V10.1007/s11103-004-6601-x
p390
sg47
VPLANT MOL BIOL
p391
sg49
V57
p392
sg81
(lp393
(VUEMUKAI
VK
tp394
asg60
I2005
sg45
VLANT
p395
sbag1
(g2
g3
NtRp396
(dp397
g51
Nsg47
VSTRATEGY GENES DISCU
p398
sg49
Nsg81
(lp399
(VWADDINGTON
VC H
tp400
asg60
I1957
sg45
Nsbag1
(g2
g3
NtRp401
(dp402
g51
Nsg47
VDEVELOPMENT
p403
sg49
V121
p404
sg81
(lp405
(VWAITES
VR
tp406
asg60
I1995
sg45
V2143
p407
sbag1
(g2
g3
NtRp408
(dp409
g51
V10.1016/0092-8674(95)90385-2
p410
sg47
VCELL
p411
sg49
V81
p412
sg81
(lp413
(VWEINBERG
VR A
tp414
asg60
I1995
sg45
V323
p415
sbag1
(g2
g3
NtRp416
(dp417
g51
V10.1242/dev.01232
p418
sg47
VDEVELOPMENT
p419
sg49
V131
p420
sg81
(lp421
(VWIKENHEISER-BROKAMP
VK A
tp422
asg60
I2004
sg45
V4299
p423
sbag1
(g2
g3
NtRp424
(dp425
g51
V10.1016/j.cell.2005.09.042
p426
sg47
VCELL
p427
sg49
V123
p428
sg81
(lp429
(VWILDWATER
VM
tp430
asg60
I2005
sg45
V1337
p431
sbag1
(g2
g3
NtRp432
(dp433
g51
Nsg47
VDEVELOPMENT
p434
sg49
V129
p435
sg81
(lp436
(VWYRZYKOWSKA
VJ
tp437
asg60
I2002
sg45
V957
p438
sbag1
(g2
g3
NtRp439
(dp440
g51
V10.1073/pnas.0930352100
p441
sg47
VP NATL ACAD SCI USA
p442
sg49
V100
p443
sg81
(lp444
(VWYRZYKOWSKA
VJ
tp445
asg60
I2003
sg45
V5561
p446
sbag1
(g2
g3
NtRp447
(dp448
g51
Nsg47
VEMBO J
p449
sg49
V15
p450
sg81
(lp451
(VXIE
VQ
tp452
asg60
I1996
sg45
V4900
p453
sbag1
(g2
g3
NtRp454
(dp455
g51
V10.1105/tpc.015990
p456
sg47
VPLANT CELL
p457
sg49
V15
p458
sg81
(lp459
(VYU
VY
tp460
asg60
I2003
sg45
VLANT
p461
sbasb.