ccopy_reg
_reconstructor
p1
(ctethne.classes.paper
Paper
p2
c__builtin__
object
p3
NtRp4
(dp5
S'publisherCity'
p6
VROCKVILLE
p7
sS'reprintAddress'
p8
VSundaresan, V (reprint author), Univ Calif Davis, Plant Biol Sect, Davis, CA 95616 USA.
p9
sS'WC'
p10
VPlant Sciences
p11
sS'GA'
p12
V247PZ
p13
sS'abstract'
p14
VTransposon insertional mutagenesis is an effective alternative to T-DNA mutagenesis when transformation through tissue culture is inefficient as is the case for many crop species. When used as activation tags, transposons can be exploited to generate novel gain-of-function phenotypes without transformation and are of particular value in the study of polyploid plants where gene knockouts will not have phenotypes. We have developed an in cis-activation-tagging Ac-Ds transposon system in which a T-DNA vector carries a Dissociation (Ds) element containing 43 cauliflower mosaic virus enhancers along with the Activator (Ac) transposase gene. Stable Ds insertions were selected using green fluorescent protein and red fluorescent protein genes driven by promoters that are functional in maize (Zea mays) and rice (Oryza sativa). The system has been tested in rice, where 638 stable Ds insertions were selected from an initial set of 26 primary transformants. By analysis of 311 flanking sequences mapped to the rice genome, we could demonstrate the wide distribution of the elements over the rice chromosomes. Enhanced expression of rice genes adjacent to Ds insertions was detected in the insertion lines using semiquantitative reverse transcription-PCR method. The in cis- two- element vector system requires minimal number of primary transformants and eliminates the need for crossing, while the use of fluorescent markers instead of antibiotic or herbicide resistance increases the applicability to other plants and eliminates problems with escapes. Because Ac-Ds has been shown to transpose widely in the plant kingdom, the activation vector system developed in this study should be of utility more generally to other monocots.
p15
sS'pageEnd'
p16
I199
sS'publisherAddress'
p17
V15501 MONONA DRIVE, ROCKVILLE, MD 20855 USA
p18
sS'documentType'
p19
VArticle
p20
sS'subject'
p21
VPlant Sciences
p22
sS'isoSource'
p23
VPlant Physiol.
p24
sS'timesCited'
p25
(lp26
I26
aVZ9 33
p27
asS'PT'
p28
VJ
sS'title'
p29
VA Versatile Transposon-Based Activation Tag Vector System For Functional Genomics In Cereals And Other Monocot Plants
p30
sS'ISSN'
p31
(lp32
V0032-0889
p33
aVJ9 PLANT PHYSIOL
p34
asS'authors_full'
p35
(lp36
(VQU
VSHAOHONG
tp37
a(VDESAI
VAPARNA
tp38
a(VWING
VROD
tp39
a(VSUNDARESAN
VVENKATESAN
tp40
asS'PG'
p41
I11
sS'PD'
p42
VJAN
p43
sS'pageStart'
p44
I189
sS'issue'
p45
I1
sS'journal'
p46
VPLANT PHYSIOLOGY
p47
sS'volume'
p48
V146
p49
sS'doi'
p50
V10.1104/pp.107.111427
p51
sS'emailAddress'
p52
Vsundar@ucdavis.edu
p53
sS'authorAddress'
p54
(lp55
V[Qu, Shaohong; Desai, Aparna; Sundaresan, Venkatesan] Univ Calif Davis, Plant Biol Sect, Davis, CA 95616 USA.
p56
aV[Sundaresan, Venkatesan] Univ Calif Davis, Dept Plant Sci, Davis, CA 95616 USA.
p57
aV[Wing, Rod] Univ Arizona, Arizona Genom Inst, Tucson, AZ 85721 USA.
p58
asS'date'
p59
I2008
sS'ER'
p60
V
sS'publisher'
p61
VAMER SOC PLANT BIOLOGISTS
p62
sS'authorKeywords'
p63
(lp64
VDNA INSERTIONAL MUTAGENESIS
p65
aVARABIDOPSIS-THALIANA
p66
aVFLANKING SEQUENCES
p67
aVTAGGING SYSTEM
p68
aVRICE
p69
aVELEMENTS
p70
aVBARLEY
p71
aVLINES
p72
aVRESOURCE
p73
aVTOOL
p74
asS'language'
p75
VEnglish
p76
sS'wosid'
p77
VWOS:000252093100017
p78
sS'citationCount'
p79
I35
sS'authors_init'
p80
(lp81
(VQU
VS
tp82
a(VDESAI
VA
tp83
a(VWING
VR
tp84
a(VSUNDARESAN
VV
tp85
asS'citedReferences'
p86
(lp87
g1
(g2
g3
NtRp88
(dp89
g50
V10.1126/science.1086391
p90
sg46
VSCIENCE
p91
sg48
V301
p92
sg80
(lp93
(VALONSO
VJ M
tp94
asg59
I2003
sg44
V653
p95
sbag1
(g2
g3
NtRp96
(dp97
g50
V10.1007/s11103-007-9157-8
p98
sg46
VPLANT MOL BIOL
p99
sg48
V64
p100
sg80
(lp101
(VAYLIFFE
VM A
tp102
asg59
I2007
sg44
VLANT
p103
sbag1
(g2
g3
NtRp104
(dp105
g50
V10.1073/pnas.97.22.11984
p106
sg46
VP NATL ACAD SCI USA
p107
sg48
V97
p108
sg80
(lp109
(VBAIRD
VG S
tp110
asg59
I2000
sg44
V11984
p111
sbag1
(g2
g3
NtRp112
(dp113
g50
V10.1105/tpc.12.12.2383
p114
sg46
VPLANT CELL
p115
sg48
V12
p116
sg80
(lp117
(VBOREVITZ
VJ O
tp118
asg59
I2000
sg44
VLANT
p119
sbag1
(g2
g3
NtRp120
(dp121
g50
V10.1007/BF01969712
p122
sg46
VTRANSGENIC RES
p123
sg48
V5
sg80
(lp124
(VCHRISTENSEN
VA H
tp125
asg59
I1996
sg44
V213
p126
sbag1
(g2
g3
NtRp127
(dp128
g50
V10.1007/s00438-004-1035-3
p129
sg46
VMOL GENET GENOMICS
p130
sg48
V272
p131
sg80
(lp132
(VCOOPER
VL D
tp133
asg59
I2004
sg44
V181
p134
sbag1
(g2
g3
NtRp135
(dp136
g50
V10.1105/tpc.010468
p137
sg46
VPLANT CELL
p138
sg48
V14
p139
sg80
(lp140
(VCOWPERTHWAITE
VM
tp141
asg59
I2002
sg44
VLANT
p142
sbag1
(g2
g3
NtRp143
(dp144
g50
V10.1534/genetics.106.061184
p145
sg46
VGENETICS
p146
sg48
V174
p147
sg80
(lp148
(VEMELYANOV
VA
tp149
asg59
I2006
sg44
V1095
p150
sbag1
(g2
g3
NtRp151
(dp152
g50
V10.1046/j.1365-313X.1999.00549.x
p153
sg46
VPLANT J
p154
sg48
V19
p155
sg80
(lp156
(VENOKI
VH
tp157
asg59
I1999
sg44
VLANT
p158
sbag1
(g2
g3
NtRp159
(dp160
g50
V10.1007/s11103-006-9093-z
p161
sg46
VPLANT MOL BIOL
p162
sg48
V63
p163
sg80
(lp164
(VHSING
VY I
tp165
asg59
I2007
sg44
VLANT
p166
sbag1
(g2
g3
NtRp167
(dp168
g50
V10.1104/pp.002774
p169
sg46
VPLANT PHYSIOL
p170
sg48
V129
p171
sg80
(lp172
(VITO
VT
tp173
asg59
I2002
sg44
VLANT
p174
sbag1
(g2
g3
NtRp175
(dp176
g50
V10.1093/pcp/pci112
p177
sg46
VPLANT CELL PHYSIOL
p178
sg48
V46
p179
sg80
(lp180
(VITO
VT
tp181
asg59
I2005
sg44
VLANT
p182
sbag1
(g2
g3
NtRp183
(dp184
g50
V10.1046/j.1365-313x.2000.00767.x
p185
sg46
VPLANT J
p186
sg48
V22
p187
sg80
(lp188
(VJEON
VJ S
tp189
asg59
I2000
sg44
VLANT
p190
sbag1
(g2
g3
NtRp191
(dp192
g50
V10.1104/pp.014357
p193
sg46
VPLANT PHYSIOL
p194
sg48
V130
p195
sg80
(lp196
(VJEONG
VD H
tp197
asg59
I2002
sg44
VLANT
p198
sbag1
(g2
g3
NtRp199
(dp200
g50
V10.1111/j.1365-313X.2005.02610.x
p201
sg46
VPLANT J
p202
sg48
V45
p203
sg80
(lp204
(VJEONG
VD H
tp205
asg59
I2006
sg44
VLANT
p206
sbag1
(g2
g3
NtRp207
(dp208
g50
V10.1126/science.286.5446.1962
p209
sg46
VSCIENCE
p210
sg48
V286
p211
sg80
(lp212
(VKARDAILSKY
VI
tp213
asg59
I1999
sg44
V1962
p214
sbag1
(g2
g3
NtRp215
(dp216
g50
V10.1046/j.1365-313X.2003.01948.x
p217
sg46
VPLANT J
p218
sg48
V37
p219
sg80
(lp220
(VKOLESNIK
VT
tp221
asg59
I2004
sg44
VLANT
p222
sbag1
(g2
g3
NtRp223
(dp224
g50
V10.1046/j.1365-313x.2000.00865.x
p225
sg46
VPLANT J
p226
sg48
V24
p227
sg80
(lp228
(VKOPREK
VT
tp229
asg59
I2000
sg44
VLANT
p230
sbag1
(g2
g3
NtRp231
(dp232
g50
V10.1111/j.1365-313X.2005.02570.x
p233
sg46
VPLANT J
p234
sg48
V44
p235
sg80
(lp236
(VKUMAR
VC S
tp237
asg59
I2005
sg44
VLANT
p238
sbag1
(g2
g3
NtRp239
(dp240
g50
Nsg46
VPLANT CELL REP
p241
sg48
V12
p242
sg80
(lp243
(VLI
VL C
tp244
asg59
I1993
sg44
VLANT
p245
sbag1
(g2
g3
NtRp246
(dp247
g50
V10.1104/pp.003327
p248
sg46
VPLANT PHYSIOL
p249
sg48
V129
p250
sg80
(lp251
(VMARSCH-MARTINEZ
VN
tp252
asg59
I2002
sg44
VLANT
p253
sbag1
(g2
g3
NtRp254
(dp255
g50
V10.1105/tpc.012963
p256
sg46
VPLANT CELL
p257
sg48
V15
p258
sg80
(lp259
(VMATHEWS
VH
tp260
asg59
I2003
sg44
VLANT
p261
sbag1
(g2
g3
NtRp262
(dp263
g50
V10.1007/s11103-006-9130-y
p264
sg46
VPLANT MOL BIOL
p265
sg48
V63
p266
sg80
(lp267
(VMORI
VM
tp268
asg59
I2007
sg44
VLANT
p269
sbag1
(g2
g3
NtRp270
(dp271
g50
V10.1105/tpc.11.12.2263
p272
sg46
VPLANT CELL
p273
sg48
V11
p274
sg80
(lp275
(VPARINOV
VS
tp276
asg59
I1999
sg44
VLANT
p277
sbag1
(g2
g3
NtRp278
(dp279
g50
V10.1007/s00122-002-1184-x
p280
sg46
VTHEOR APPL GENET
p281
sg48
V106
p282
sg80
(lp283
(VSALLAUD
VC
tp284
asg59
I2003
sg44
V1396
p285
sbag1
(g2
g3
NtRp286
(dp287
g50
V10.1016/j.febslet.2005.07.030
p288
sg46
VFEBS LETT
p289
sg48
V579
p290
sg80
(lp291
(VSCHNEIDER
VA
tp292
asg59
I2005
sg44
V4622
p293
sbag1
(g2
g3
NtRp294
(dp295
g50
V10.1007/s11103-006-9067-1
p296
sg46
VPLANT MOL BIOL
p297
sg48
V62
p298
sg80
(lp299
(VSINGH
VJ
tp300
asg59
I2006
sg44
VLANT
p301
sbag1
(g2
g3
NtRp302
(dp303
g50
V10.1101/gad.9.14.1797
p304
sg46
VGENE DEV
p305
sg48
V9
sg80
(lp306
(VSUNDARESAN
VV
tp307
asg59
I1995
sg44
V1797
p308
sbag1
(g2
g3
NtRp309
(dp310
g50
V10.1023/A:1006455130098
p311
sg46
VPLANT MOL BIOL
p312
sg48
V45
p313
sg80
(lp314
(VSUZUKI
VY
tp315
asg59
I2001
sg44
VLANT
p316
sbag1
(g2
g3
NtRp317
(dp318
g50
V10.1105/tpc.11.10.1841
p319
sg46
VPLANT CELL
p320
sg48
V11
p321
sg80
(lp322
(VTISSIER
VA F
tp323
asg59
I1999
sg44
VLANT
p324
sbag1
(g2
g3
NtRp325
(dp326
g50
V10.1007/s11103-005-8532-6
p327
sg46
VPLANT MOL BIOL
p328
sg48
V59
p329
sg80
(lp330
(VVAN
VENCKEVORT L J G
tp331
asg59
I2005
sg44
VLANT
p332
sbag1
(g2
g3
NtRp333
(dp334
g50
V10.1104/pp.122.4.1003
p335
sg46
VPLANT PHYSIOL
p336
sg48
V122
p337
sg80
(lp338
(VWEIGEL
VD
tp339
asg59
I2000
sg44
VLANT
p340
sbag1
(g2
g3
NtRp341
(dp342
g50
Nsg46
VNAT GENET
p343
sg48
V26
p344
sg80
(lp345
(VWEIL
VC F
tp346
asg59
I2000
sg44
V187
p347
sbag1
(g2
g3
NtRp348
(dp349
g50
V10.1007/s001220050060
p350
sg46
VTHEOR APPL GENET
p351
sg48
V100
p352
sg80
(lp353
(VYIN
VZ
tp354
asg59
I2000
sg44
V461
p355
sbag1
(g2
g3
NtRp356
(dp357
g50
V10.1111/j.1365-313X.2006.02831.x
p358
sg46
VPLANT J
p359
sg48
V47
p360
sg80
(lp361
(VZHAO
VT
tp362
asg59
I2006
sg44
VLANT
p363
sbasb.