ccopy_reg
_reconstructor
p1
(ctethne.classes.paper
Paper
p2
c__builtin__
object
p3
NtRp4
(dp5
S'publisherCity'
p6
VROCKVILLE
p7
sS'reprintAddress'
p8
VBoss, WF (reprint author), N Carolina State Univ, Dept Bot, Box 7612, Raleigh, NC 27695 USA.
p9
sS'WC'
p10
VPlant Sciences
p11
sS'GA'
p12
V717FT
p13
sS'abstract'
p14
VHere, we compare the regulation and localization of the Arabidopsis type III phosphatidylinositol (PtdIns) 4-kinases, AtPI4Kalpha1 and AtPI4Kbeta1, in Spodoptera frugiperda (Sf9) insect cells. We also explore the role of the pleckstrin homology (PH) domain in regulating AtPI4Kalpha1. Recombinant kinase activity was found to be differentially sensitive to PtdIns-4-phosphate (Ptdlns4P), the product of the reaction. The specific activity of AtPI4Kalpha1 was inhibited 70% by 0.5 mm PtdIns4P. The effect of PtdIns4P was not simply due to charge because AtPI4Kalpha1 activity was stimulated approximately 50% by equal concentrations of the other negatively charged lipids, PtdIns3P, phosphatidic acid, and phosphatidyl-serine. Furthermore, inhibition of AtPI4Kalpha1 by PtdIns4P could be alleviated by adding recombinant AtPI4Kalpha1 PH domain, which selectively binds to PtdIns4P (Stevenson et al., 1998). In contrast, the specific activity of AtPI4Kbeta1, which does not have a PH domain, was stimulated 2-fold by PtdIns4P but not other negatively charged lipids. Visualization of green fluorescent protein fusion proteins in insect cells revealed that AtPI4Kalpha1 was associated primarily with membranes in the perinuclear region, whereas AtPI4Kbeta1 was in the cytosol and associated with small vesicles throughout the cytoplasm. Expression of AtPI4Kalpha1 without the PH domain in the insect cells compromised PtdIns 4-kinase activity and caused mislocalization of the kinase. The green fluorescent protein-PH domain alone was associated with intracellular membranes and the plasma membrane. In vitro, the PH domain appeared to be necessary for association of AtPI4Kalpha1 with fine actin filaments. These studies support the idea that the Arabidopsis type III PtdIns 4-kinases are responsible for distinct phosphoinositide pools.
p15
sS'pageEnd'
p16
I1064
sS'publisherAddress'
p17
V15501 MONONA DRIVE, ROCKVILLE, MD 20855 USA
p18
sS'documentType'
p19
VArticle
p20
sS'subject'
p21
VPlant Sciences
p22
sS'isoSource'
p23
VPlant Physiol.
p24
sS'timesCited'
p25
(lp26
I21
aVZ9 24
p27
asS'PT'
p28
VJ
sS'title'
p29
VDifferential Regulation Of Two Arabidopsis Type Iii Phosphatidylinositol 4-Kinase Isoforms. A Regulatory Role For The Pleckstrin Homology Domain
p30
sS'ISSN'
p31
(lp32
V0032-0889
p33
aVJ9 PLANT PHYSIOL
p34
asS'authors_full'
p35
(lp36
(VSTEVENSONPAULIK
VJ
tp37
a(VLOVE
VJ
tp38
a(VBOSS
VWF
tp39
asS'PG'
p40
I12
sS'PD'
p41
VJUN
p42
sS'pageStart'
p43
I1053
sS'issue'
p44
I2
sS'journal'
p45
VPLANT PHYSIOLOGY
p46
sS'volume'
p47
V132
p48
sS'doi'
p49
V10.1104/pp.103.021758
p50
sS'authorAddress'
p51
VN Carolina State Univ, Dept Bot, Raleigh, NC 27695 USA.
p52
sS'date'
p53
I2003
sS'ER'
p54
V
sS'publisher'
p55
VAMER SOC PLANT BIOLOGISTS
p56
sS'authorKeywords'
p57
(lp58
VSUSPENSION-CULTURE
p59
aVPHOSPHOLIPASE-C
p60
aVPLASMA-MEMBRANES
p61
aVSACCHAROMYCES-CEREVISIAE
p62
aVPHOSPHOINOSITIDE KINASES
p63
aVHYPEROSMOTIC STRESS
p64
aVTRANSFER PROTEINS
p65
aVHIGHER-PLANTS
p66
aVCELLS
p67
aVENZYMES
p68
asS'language'
p69
VEnglish
p70
sS'wosid'
p71
VWOS:000185076600066
p72
sS'citationCount'
p73
I50
sS'authors_init'
p74
(lp75
(VSTEVENSONPAULIK
VJ
tp76
a(VLOVE
VJ
tp77
a(VBOSS
VW F
tp78
asS'citedReferences'
p79
(lp80
g1
(g2
g3
NtRp81
(dp82
g49
Nsg45
VMOL BIOL CELL
p83
sg47
V11
p84
sg74
(lp85
(VAUDHYA
VA
tp86
asg53
I2000
sg43
V2673
p87
sbag1
(g2
g3
NtRp88
(dp89
g49
V10.1016/S1534-5807(02)00168-5
p90
sg45
VDEV CELL
p91
sg47
V2
sg74
(lp92
(VAUDHYA
VA
tp93
asg53
I2002
sg43
V593
p94
sbag1
(g2
g3
NtRp95
(dp96
g49
V10.1074/jbc.M111807200
p97
sg45
VJ BIOL CHEM
p98
sg47
V277
p99
sg74
(lp100
(VBALLA
VA
tp101
asg53
I2002
sg43
V20041
p102
sbag1
(g2
g3
NtRp103
(dp104
g49
V10.1074/jbc.272.29.18358
p105
sg45
VJ BIOL CHEM
p106
sg47
V272
p107
sg74
(lp108
(VBALLA
VT
tp109
asg53
I1997
sg43
V18358
p110
sbag1
(g2
g3
NtRp111
(dp112
g49
V10.1038/341197a0
p113
sg45
VNATURE
p114
sg47
V341
p115
sg74
(lp116
(VBERRIDGE
VM J
tp117
asg53
I1989
sg43
V197
p118
sbag1
(g2
g3
NtRp119
(dp120
g49
V10.1105/tpc.12.9.1679
p121
sg45
VPLANT CELL
p122
sg47
V12
p123
sg74
(lp124
(VBUNNEY
VT D
tp125
asg53
I2000
sg43
VLANT
p126
sbag1
(g2
g3
NtRp127
(dp128
g49
Nsg45
VJ BIOL CHEM
p129
sg47
V270
p130
sg74
(lp131
(VCARMAN
VG M
tp132
asg53
I1995
sg43
V18711
p133
sbag1
(g2
g3
NtRp134
(dp135
g49
V10.1021/bi00503a001
p136
sg45
VBIOCHEMISTRY
p137
sg47
V29
p138
sg74
(lp139
(VCARPENTER
VC L
tp140
asg53
I1990
sg43
V11147
p141
sbag1
(g2
g3
NtRp142
(dp143
g49
Nsg45
VCYTOSKELETON PRACTIC
p144
sg47
Nsg74
(lp145
(VCARRAWAY
VK L
tp146
asg53
I1992
sg43
Nsbag1
(g2
g3
NtRp147
(dp148
g49
V10.1104/pp.103.2.637
p149
sg45
VPLANT PHYSIOL
p150
sg47
V103
p151
sg74
(lp152
(VCHO
VM H
tp153
asg53
I1993
sg43
VLANT
p154
sbag1
(g2
g3
NtRp155
(dp156
g49
V10.1016/S0014-5793(97)00414-6
p157
sg45
VFEBS LETT
p158
sg47
V410
p159
sg74
(lp160
(VCOCKCROFT
VS
tp161
asg53
I1997
sg43
V44
p162
sbag1
(g2
g3
NtRp163
(dp164
g49
V10.1002/(SICI)1521-1878(199805)20:5<423::AID-BIES9>3.3.CO;2-U
p165
sg45
VBIOESSAYS
p166
sg47
V20
p167
sg74
(lp168
(VCOCKCROFT
VS
tp169
asg53
I1998
sg43
V423
p170
sbag1
(g2
g3
NtRp171
(dp172
g49
V10.1074/jbc.272.44.27671
p173
sg45
VJ BIOL CHEM
p174
sg47
V272
p175
sg74
(lp176
(VCUTLER
VN S
tp177
asg53
I1997
sg43
V27671
p178
sbag1
(g2
g3
NtRp179
(dp180
g49
V10.1023/A:1005991617182
p181
sg45
VPLANT MOL BIOL
p182
sg47
V36
p183
sg74
(lp184
(VDAVIS
VS J
tp185
asg53
I1998
sg43
VLANT
p186
sbag1
(g2
g3
NtRp187
(dp188
g49
V10.1016/S0955-0674(02)00357-5
p189
sg45
VCURR OPIN CELL BIOL
p190
sg47
V14
p191
sg74
(lp192
(VDE
VMATTEIS M A
tp193
asg53
I2002
sg43
V434
p194
sbag1
(g2
g3
NtRp195
(dp196
g49
V10.1016/S0074-7696(08)61386-8
p197
sg45
VINT REV CYTOL
p198
sg47
V189
p199
sg74
(lp200
(VDROBAK
VB K
tp201
asg53
I1999
sg43
V95
p202
sbag1
(g2
g3
NtRp203
(dp204
g49
V10.1046/j.1365-313X.1994.06030389.x
p205
sg45
VPLANT J
p206
sg47
V6
sg74
(lp207
(VDROBAK
VB K
tp208
asg53
I1994
sg43
VLANT
p209
sbag1
(g2
g3
NtRp210
(dp211
g49
V10.1046/j.1432-1327.1998.2530357.x
p212
sg45
VEUR J BIOCHEM
p213
sg47
V253
p214
sg74
(lp215
(VGEHRMANN
VT
tp216
asg53
I1998
sg43
V357
p217
sbag1
(g2
g3
NtRp218
(dp219
g49
V10.1016/S1388-1981(00)00106-2
p220
sg45
VBBA
p221
sg47
V1488
p222
sg74
(lp223
(VGELB
VM H
tp224
asg53
I2000
sg43
V20
p225
sbag1
(g2
g3
NtRp226
(dp227
g49
V10.1016/0167-4889(92)90029-B
p228
sg45
VBIOCHIM BIOPHYS ACTA
p229
sg47
V1134
p230
sg74
(lp231
(VGROSS
VW
tp232
asg53
I1992
sg43
V73
p233
sbag1
(g2
g3
NtRp234
(dp235
g49
V10.1046/j.1365-313x.1998.00339.x
p236
sg45
VPLANT J
p237
sg47
V16
p238
sg74
(lp239
(VGUNGABISSOON
VR A
tp240
asg53
I1998
sg43
VLANT
p241
sbag1
(g2
g3
NtRp242
(dp243
g49
V10.1074/jbc.274.48.34294
p244
sg45
VJ BIOL CHEM
p245
sg47
V274
p246
sg74
(lp247
(VHAMA
VH
tp248
asg53
I1999
sg43
V34294
p249
sbag1
(g2
g3
NtRp250
(dp251
g49
V10.1038/12058
p252
sg45
VNAT CELL BIOL
p253
sg47
V1
sg74
(lp254
(VHENDRICKS
VK B
tp255
asg53
I1999
sg43
V234
p256
sbag1
(g2
g3
NtRp257
(dp258
g49
V10.1007/BF01403302
p259
sg45
VPROTOPLASMA
p260
sg47
V151
p261
sg74
(lp262
(VHENDRIX
VK W
tp263
asg53
I1989
sg43
VROTOPLASMA
p264
sbag1
(g2
g3
NtRp265
(dp266
g49
V10.1074/jbc.C901019199
p267
sg45
VJ BIOL CHEM
p268
sg47
V275
p269
sg74
(lp270
(VJONES
VD H
tp271
asg53
I2000
sg43
V13962
p272
sbag1
(g2
g3
NtRp273
(dp274
g49
V10.1105/tpc.004143
p275
sg45
VPLANT CELL
p276
sg47
V14
p277
sg74
(lp278
(VJUNG
VJ Y
tp279
asg53
I2002
sg43
VLANT
p280
sbag1
(g2
g3
NtRp281
(dp282
g49
V10.1104/pp.010450
p283
sg45
VPLANT PHYSIOL
p284
sg47
V127
p285
sg74
(lp286
(VKIM
VY W
tp287
asg53
I2001
sg43
VLANT
p288
sbag1
(g2
g3
NtRp289
(dp290
g49
Nsg45
VBACULOVIRUS EXPRESSI
p291
sg47
Nsg74
(lp292
(VLUCKOW
VV A
tp293
asg53
I1995
sg43
Nsbag1
(g2
g3
NtRp294
(dp295
g49
Nsg45
VJ BIOL CHEM
p296
sg47
V272
p297
sg74
(lp298
(VMEYERS
VR
tp299
asg53
I1997
sg43
V4384
p300
sbag1
(g2
g3
NtRp301
(dp302
g49
V10.1074/jbc.M100982200
p303
sg45
VJ BIOL CHEM
p304
sg47
V276
p305
sg74
(lp306
(VMINOGUE
VS
tp307
asg53
I2001
sg43
V16635
p308
sbag1
(g2
g3
NtRp309
(dp310
g49
V10.1105/tpc.13.5.1205
p311
sg45
VPLANT CELL
p312
sg47
V13
p313
sg74
(lp314
(VMONKS
VD E
tp315
asg53
I2001
sg43
VLANT
p316
sbag1
(g2
g3
NtRp317
(dp318
g49
V10.1104/pp.004770
p319
sg45
VPLANT PHYSIOL
p320
sg47
V130
p321
sg74
(lp322
(VMUELLER-ROEBER
VB
tp323
asg53
I2002
sg43
VLANT
p324
sbag1
(g2
g3
NtRp325
(dp326
g49
V10.1016/S0005-2760(97)00158-6
p327
sg45
VBBA
p328
sg47
V1389
p329
sg74
(lp330
(VMUNNIK
VT
tp331
asg53
I1998
sg43
V222
p332
sbag1
(g2
g3
NtRp333
(dp334
g49
Nsg45
VPLANT PHYSIOL
p335
sg47
V107
p336
sg74
(lp337
(VOKPODU
VC M
tp338
asg53
I1995
sg43
VLANT
p339
sbag1
(g2
g3
NtRp340
(dp341
g49
V10.1104/pp.128.2.341
p342
sg45
VPLANT PHYSIOL
p343
sg47
V128
p344
sg74
(lp345
(VPERSSON
VS
tp346
asg53
I2002
sg43
VLANT
p347
sbag1
(g2
g3
NtRp348
(dp349
g49
V10.1210/er.13.4.692
p350
sg45
VENDOCR REV
p351
sg47
V13
p352
sg74
(lp353
(VPIKE
VL J
tp354
asg53
I1992
sg43
V692
p355
sbag1
(g2
g3
NtRp356
(dp357
g49
V10.1104/pp.126.1.267
p358
sg45
VPLANT PHYSIOL
p359
sg47
V126
p360
sg74
(lp361
(VSHANK
VK J
tp362
asg53
I2001
sg43
VLANT
p363
sbag1
(g2
g3
NtRp364
(dp365
g49
V10.1016/0005-2760(88)90185-3
p366
sg45
VBIOCHIM BIOPHYS ACTA
p367
sg47
V958
p368
sg74
(lp369
(VSOMMARIN
VM
tp370
asg53
I1988
sg43
V268
p371
sbag1
(g2
g3
NtRp372
(dp373
g49
V10.1074/jbc.273.35.22761
p374
sg45
VJ BIOL CHEM
p375
sg47
V273
p376
sg74
(lp377
(VSTEVENSON
VJ M
tp378
asg53
I1998
sg43
V22761
p379
sbag1
(g2
g3
NtRp380
(dp381
g49
V10.1016/S1360-1385(00)01652-6
p382
sg45
VTRENDS PLANT SCI
p383
sg47
V5
sg74
(lp384
(VSTEVENSON
VJ M
tp385
asg53
I2000
sg43
V252
p386
sbag1
(g2
g3
NtRp387
(dp388
g49
V10.1104/pp.100.4.2116
p389
sg45
VPLANT PHYSIOL
p390
sg47
V100
p391
sg74
(lp392
(VTAN
VZ
tp393
asg53
I1992
sg43
VLANT
p394
sbag1
(g2
g3
NtRp395
(dp396
g49
V10.1146/annurev.arplant.52.1.211
p397
sg45
VANNU REV PLANT PHYS
p398
sg47
V52
p399
sg74
(lp400
(VWANG
VX M
tp401
asg53
I2001
sg43
V211
p402
sbag1
(g2
g3
NtRp403
(dp404
g49
V10.1104/pp.121.2.507
p405
sg45
VPLANT PHYSIOL
p406
sg47
V121
p407
sg74
(lp408
(VWESTERGREN
VT
tp409
asg53
I1999
sg43
VLANT
p410
sbag1
(g2
g3
NtRp411
(dp412
g49
V10.1104/pp.85.2.389
p413
sg45
VPLANT PHYSIOL
p414
sg47
V85
p415
sg74
(lp416
(VWHEELER
VJ J
tp417
asg53
I1987
sg43
VLANT
p418
sbag1
(g2
g3
NtRp419
(dp420
g49
V10.1074/jbc.272.20.13236
p421
sg45
VJ BIOL CHEM
p422
sg47
V272
p423
sg74
(lp424
(VWONG
VK
tp425
asg53
I1997
sg43
V13236
p426
sbag1
(g2
g3
NtRp427
(dp428
g49
Nsg45
VPLANT CELL
p429
sg47
V4
sg74
(lp430
(VXU
VP
tp431
asg53
I1992
sg43
VLANT
p432
sbag1
(g2
g3
NtRp433
(dp434
g49
V10.1074/jbc.274.9.5738
p435
sg45
VJ BIOL CHEM
p436
sg47
V274
p437
sg74
(lp438
(VXUE
VH W
tp439
asg53
I1999
sg43
V5738
p440
sbag1
(g2
g3
NtRp441
(dp442
g49
Nsg45
VJ BIOL CHEM
p443
sg47
V269
p444
sg74
(lp445
(VYANG
VW
tp446
asg53
I1994
sg43
V3852
p447
sbag1
(g2
g3
NtRp448
(dp449
g49
V10.1074/jbc.274.28.19752
p450
sg45
VJ BIOL CHEM
p451
sg47
V274
p452
sg74
(lp453
(VYAO
VL B
tp454
asg53
I1999
sg43
V19752
p455
sbag1
(g2
g3
NtRp456
(dp457
g49
V10.1074/jbc.275.19.14642
p458
sg45
VJ BIOL CHEM
p459
sg47
V275
p460
sg74
(lp461
(VZHAO
VX H
tp462
asg53
I2000
sg43
V14642
p463
sbasb.