ccopy_reg
_reconstructor
p1
(ctethne.classes.paper
Paper
p2
c__builtin__
object
p3
NtRp4
(dp5
S'publisherCity'
p6
VROCKVILLE
p7
sS'reprintAddress'
p8
VKleczkowski, LA (reprint author), Umea Univ, Dept Plant Physiol, Umea Plant Sci Ctr, S-90187 Umea, Sweden.
p9
sS'WC'
p10
VPlant Sciences
p11
sS'GA'
p12
V805IQ
p13
sS'pageEnd'
p14
I918
sS'publisherAddress'
p15
V15501 MONONA DRIVE, ROCKVILLE, MD 20855 USA
p16
sS'documentType'
p17
VArticle
p18
sS'subject'
p19
VPlant Sciences
p20
sS'isoSource'
p21
VPlant Physiol.
p22
sS'timesCited'
p23
(lp24
I78
aVZ9 86
p25
asS'PT'
p26
VJ
sS'title'
p27
VUdp-Glucose Pyrophosphorylase. An Old Protein With New Tricks
p28
sS'ISSN'
p29
(lp30
V0032-0889
p31
aVJ9 PLANT PHYSIOL
p32
asS'authors_full'
p33
(lp34
(VKLECZKOWSKI
VLA
tp35
a(VGEISLER
VM
tp36
a(VCIERESZKO
VI
tp37
a(VJOHANSSON
VH
tp38
asS'PG'
p39
I7
sS'PD'
p40
VMAR
p41
sS'pageStart'
p42
I912
sS'issue'
p43
I3
sS'RI'
p44
VGeisler, Matt/A-4156-2008
p45
sS'journal'
p46
VPLANT PHYSIOLOGY
p47
sS'volume'
p48
V134
p49
sS'doi'
p50
V10.1104/pp.103.036053
p51
sS'emailAddress'
p52
VLeszek.Kleczkowski@plantphys.umu.se
p53
sS'authorAddress'
p54
(lp55
VUmea Univ, Dept Plant Physiol, Umea Plant Sci Ctr, S-90187 Umea, Sweden.
p56
aVUniv Bialystok, Inst Biol, PL-15950 Bialystok, Poland.
p57
asS'date'
p58
I2004
sS'ER'
p59
V
sS'publisher'
p60
VAMER SOC PLANT BIOLOGISTS
p61
sS'authorKeywords'
p62
(lp63
VSUCROSE SYNTHASE GENE
p64
aVUDPGLUCOSE PYROPHOSPHORYLASE
p65
aVANTISENSE RNA
p66
aVPOTATO-TUBER
p67
aVEXPRESSION
p68
aVARABIDOPSIS
p69
aVCLONING
p70
aVPLANTS
p71
aVMETABOLISM
p72
aVLIGHT
p73
asS'language'
p74
VEnglish
p75
sS'wosid'
p76
VWOS:000220360400006
p77
sS'citationCount'
p78
I45
sS'authors_init'
p79
(lp80
(VKLECZKOWSKI
VL A
tp81
a(VGEISLER
VM
tp82
a(VCIERESZKO
VI
tp83
a(VJOHANSSON
VH
tp84
asS'citedReferences'
p85
(lp86
g1
(g2
g3
NtRp87
(dp88
g50
V10.1007/s00122-002-0927-z
p89
sg46
VTHEOR APPL GENET
p90
sg48
V105
p91
sg79
(lp92
(VABE
VT
tp93
asg58
I2002
sg42
V216
p94
sbag1
(g2
g3
NtRp95
(dp96
g50
V10.1073/pnas.92.20.9353
p97
sg46
VP NATL ACAD SCI USA
p98
sg48
V92
p99
sg79
(lp100
(VAMOR
VY
tp101
asg58
I1995
sg42
V9353
p102
sbag1
(g2
g3
NtRp103
(dp104
g50
Nsg46
VENV PLANT B
p105
sg48
Nsg79
(lp106
(VAPREES
VT
tp107
asg58
I1992
sg42
V115
p108
sbag1
(g2
g3
NtRp109
(dp110
g50
Nsg46
VJ Int Neuropsychol Soc
p111
sg48
V1
sg79
(lp112
(VBECKER
VJ T
tp113
asg58
I1995
sg42
V3
sbag1
(g2
g3
NtRp114
(dp115
g50
V10.1074/jbc.M204245200
p116
sg46
VJ BIOL CHEM
p117
sg48
V277
p118
sg79
(lp119
(VBISHOP
VJ D
tp120
asg58
I2002
sg42
V32430
p121
sbag1
(g2
g3
NtRp122
(dp123
g50
Nsg46
VJ PLANT PHYSIOL
p124
sg48
V147
p125
sg79
(lp126
(VBOROVKOV
VA Y
tp127
asg58
I1996
sg42
V644
p128
sbag1
(g2
g3
NtRp129
(dp130
g50
V10.1111/j.1432-1033.1996.t01-1-00723.x
p131
sg46
VEUR J BIOCHEM
p132
sg48
V236
p133
sg79
(lp134
(VCHANG
VH Y
tp135
asg58
I1996
sg42
V723
p136
sbag1
(g2
g3
NtRp137
(dp138
g50
V10.1016/S0981-9428(02)01452-3
p139
sg46
VPLANT PHYSIOL BIOCH
p140
sg48
V40
p141
sg79
(lp142
(VCIERESZKO
VI
tp143
asg58
I2002
sg42
VLANT
p144
sbag1
(g2
g3
NtRp145
(dp146
g50
V10.1007/s004250000424
p147
sg46
VPLANTA
p148
sg48
V212
p149
sg79
(lp150
(VCIERESZKO
VI
tp151
asg58
I2001
sg42
VLANTA
p152
sbag1
(g2
g3
NtRp153
(dp154
g50
V10.1042/0264-6021:3540067
p155
sg46
VBIOCHEM J
p156
sg48
V354
p157
sg79
(lp158
(VCIERESZKO
VI
tp159
asg58
I2001
sg42
V67
p160
sbag1
(g2
g3
NtRp161
(dp162
g50
Nsg46
VTREE BIOTECHNOLOGY 2
p163
sg48
Nsg79
(lp164
(VCOLEMAN
VH
tp165
asg58
I2003
sg42
Nsbag1
(g2
g3
NtRp166
(dp167
g50
V10.1111/j.1432-1033.1995.520_2.x
p168
sg46
VEUR J BIOCHEM
p169
sg48
V233
p170
sg79
(lp171
(VDARAN
VJ M
tp172
asg58
I1995
sg42
V520
p173
sbag1
(g2
g3
NtRp174
(dp175
g50
V10.1042/0264-6021:3440503
p176
sg46
VBIOCHEM J
p177
sg48
V344
p178
sg79
(lp179
(VDEJARDIN
VA
tp180
asg58
I1999
sg42
V503
p181
sbag1
(g2
g3
NtRp182
(dp183
g50
V10.1016/0378-1119(95)00873-X
p184
sg46
VGENE
p185
sg48
V170
p186
sg79
(lp187
(VEIMERT
VK
tp188
asg58
I1996
sg42
V227
p189
sbag1
(g2
g3
NtRp190
(dp191
g50
V10.1074/jbc.272.38.23784
p192
sg46
VJ BIOL CHEM
p193
sg48
V272
p194
sg79
(lp195
(VFLORESDIAZ
VM
tp196
asg58
I1997
sg42
V23784
p197
sbag1
(g2
g3
NtRp198
(dp199
g50
V10.1016/S0981-9428(00)00167-4
p200
sg46
VPLANT PHYSIOL BIOCH
p201
sg48
V38
p202
sg79
(lp203
(VGIBEAUT
VD M
tp204
asg58
I2000
sg42
VLANT
p205
sbag1
(g2
g3
NtRp206
(dp207
g50
V10.1104/pp.103.024513
p208
sg46
VPLANT PHYSIOL
p209
sg48
V133
p210
sg79
(lp211
(VHENDRIKS
VJ H M
tp212
asg58
I2003
sg42
VLANT
p213
sbag1
(g2
g3
NtRp214
(dp215
g50
V10.1073/pnas.261293398
p216
sg46
VP NATL ACAD SCI USA
p217
sg48
V98
p218
sg79
(lp219
(VHERTZBERG
VM
tp220
asg58
I2001
sg42
V14732
p221
sbag1
(g2
g3
NtRp222
(dp223
g50
Nsg46
VPLANT CELL PHYSL S
p224
sg48
V41
p225
sg79
(lp226
(VHUBER
VS C
tp227
asg58
I2000
sg42
VLANT
p228
sbag1
(g2
g3
NtRp229
(dp230
g50
V10.1016/S0981-9428(00)01187-6
p231
sg46
VPLANT PHYSIOL BIOCH
p232
sg48
V38
p233
sg79
(lp234
(VIGAMBERDIEV
VA U
tp235
asg58
I2000
sg42
VLANT
p236
sbag1
(g2
g3
NtRp237
(dp238
g50
Nsg46
VTHESIS UMEA U UMEA
p239
sg48
Nsg79
(lp240
(VJOHANSSON
VH
tp241
asg58
I2003
sg42
Nsbag1
(g2
g3
NtRp242
(dp243
g50
Nsg46
VJ BIOCHEM
p244
sg48
V108
p245
sg79
(lp246
(VKATSUBE
VT
tp247
asg58
I1990
sg42
V321
p248
sbag1
(g2
g3
NtRp249
(dp250
g50
V10.1021/bi00099a007
p251
sg46
VBIOCHEMISTRY
p252
sg48
V30
p253
sg79
(lp254
(VKAZUTA
VY
tp255
asg58
I1991
sg42
V8541
p256
sbag1
(g2
g3
NtRp257
(dp258
g50
Nsg46
VPLANT PHYSIOL BIOCH
p259
sg48
V30
p260
sg79
(lp261
(VKIMURA
VS
tp262
asg58
I1992
sg42
VLANT
p263
sbag1
(g2
g3
NtRp264
(dp265
g50
V10.1016/S0031-9422(00)89568-0
p266
sg46
VPHYTOCHEMISTRY
p267
sg48
V37
p268
sg79
(lp269
(VKLECZKOWSKI
VL A
tp270
asg58
I1994
sg42
VHYTOCHEMISTRY
p271
sbag1
(g2
g3
NtRp272
(dp273
g50
Nsg46
VJ BIOCHEM
p274
sg48
V114
p275
sg79
(lp276
(VKONISHI
VY
tp277
asg58
I1993
sg42
V61
p278
sbag1
(g2
g3
NtRp279
(dp280
g50
V10.1006/anbo.2001.1526
p281
sg46
VANN BOT
p282
sg48
V88
p283
sg79
(lp284
(VLORETI
VE
tp285
asg58
I2001
sg42
V803
p286
sbag1
(g2
g3
NtRp287
(dp288
g50
V10.1515/HF.2001.022
p289
sg46
VHOLZFORSCHUNG
p290
sg48
V55
p291
sg79
(lp292
(VMAGEL
VE
tp293
asg58
I2001
sg42
V135
p294
sbag1
(g2
g3
NtRp295
(dp296
g50
V10.1046/j.1365-2958.1996.01531.x
p297
sg46
VMOL MICROBIOL
p298
sg48
V22
p299
sg79
(lp300
(VMAROLDA
VC L
tp301
asg58
I1996
sg42
V827
p302
sbag1
(g2
g3
NtRp303
(dp304
g50
V10.1042/BJ20020772
p305
sg46
VBIOCHEM J
p306
sg48
V367
p307
sg79
(lp308
(VMARTZ
VF
tp309
asg58
I2002
sg42
V295
p310
sbag1
(g2
g3
NtRp311
(dp312
g50
V10.1016/S0168-9452(01)00455-1
p313
sg46
VPLANT SCI
p314
sg48
V161
p315
sg79
(lp316
(VMIKAMI
VS
tp317
asg58
I2001
sg42
VLANT
p318
sbag1
(g2
g3
NtRp319
(dp320
g50
V10.1126/science.1080585
p321
sg46
VSCIENCE
p322
sg48
V300
p323
sg79
(lp324
(VMOORE
VB
tp325
asg58
I2003
sg42
V332
p326
sbag1
(g2
g3
NtRp327
(dp328
g50
V10.1104/pp.117.3.1007
p329
sg46
VPLANT PHYSIOL
p330
sg48
V117
p331
sg79
(lp332
(VNECKELMANN
VG
tp333
asg58
I1998
sg42
VLANT
p334
sbag1
(g2
g3
NtRp335
(dp336
g50
V10.1093/emboj/20.22.6191
p337
sg46
VEMBO J
p338
sg48
V20
p339
sg79
(lp340
(VPENEFF
VC
tp341
asg58
I2001
sg42
V6191
p342
sbag1
(g2
g3
NtRp343
(dp344
g50
V10.1071/PP00016
p345
sg46
VAUST J PLANT PHYSIOL
p346
sg48
V27
p347
sg79
(lp348
(VPUA
VE C
tp349
asg58
I2000
sg42
V1151
p350
sbag1
(g2
g3
NtRp351
(dp352
g50
V10.1046/j.1469-8137.2003.00682.x
p353
sg46
VNEW PHYTOL
p354
sg48
V157
p355
sg79
(lp356
(VREPETTO
VO
tp357
asg58
I2003
sg42
V555
p358
sbag1
(g2
g3
NtRp359
(dp360
g50
V10.1046/j.1365-313X.1998.00205.x
p361
sg46
VPLANT J
p362
sg48
V15
p363
sg79
(lp364
(VROOK
VF
tp365
asg58
I1998
sg42
VLANT
p366
sbag1
(g2
g3
NtRp367
(dp368
g50
V10.1105/tpc.010108
p369
sg46
VPLANT CELL
p370
sg48
V15
p371
sg79
(lp372
(VRUAN
VY L
tp373
asg58
I2003
sg42
VLANT
p374
sbag1
(g2
g3
NtRp375
(dp376
g50
V10.1016/S0092-8674(02)00974-1
p377
sg46
VCELL
p378
sg48
V111
p379
sg79
(lp380
(VRUTTER
VJ
tp381
asg58
I2002
sg42
V17
p382
sbag1
(g2
g3
NtRp383
(dp384
g50
V10.1104/pp.113.2.511
p385
sg46
VPLANT PHYSIOL
p386
sg48
V113
p387
sg79
(lp388
(VSOWOKINOS
VJ R
tp389
asg58
I1997
sg42
VLANT
p390
sbag1
(g2
g3
NtRp391
(dp392
g50
Nsg46
VJ PLANT PHYSIOL
p393
sg48
V144
p394
sg79
(lp395
(VSPYCHALLA
VJ P
tp396
asg58
I1994
sg42
V444
p397
sbag1
(g2
g3
NtRp398
(dp399
g50
V10.1007/BF00330938
p400
sg46
VMOL GEN GENET
p401
sg48
V217
p402
sg79
(lp403
(VVALLA
VS
tp404
asg58
I1989
sg42
V26
p405
sbag1
(g2
g3
NtRp406
(dp407
g50
V10.1016/S0006-291X(03)00175-X
p408
sg46
VBIOCHEM BIOPH RES CO
p409
sg48
V302
p410
sg79
(lp411
(VWELLS
VL
tp412
asg58
I2003
sg42
V435
p413
sbag1
(g2
g3
NtRp414
(dp415
g50
V10.1016/S0735-2689(01)80002-2
p416
sg46
VCRIT REV PLANT SCI
p417
sg48
V19
p418
sg79
(lp419
(VWINTER
VH
tp420
asg58
I2000
sg42
V31
p421
sbag1
(g2
g3
NtRp422
(dp423
g50
Nsg46
VPLANTA
p424
sg48
V190
p425
sg79
(lp426
(VZRENNER
VR
tp427
asg58
I1993
sg42
VLANTA
p428
sbasb.