ccopy_reg
_reconstructor
p1
(ctethne.classes.paper
Paper
p2
c__builtin__
object
p3
NtRp4
(dp5
S'publisherCity'
p6
VROCKVILLE
p7
sS'reprintAddress'
p8
VWada, M (reprint author), Tokyo Metropolitan Univ, Grad Sch, Fac Sci, Dept Biol, Tokyo 1920397, Japan.
p9
sS'WC'
p10
VPlant Sciences
p11
sS'GA'
p12
V838DD
p13
sS'abstract'
p14
VPhototropin is the blue-light receptor that mediates phototropism, chloroplast movement, and stomatal opening in Arabidopsis. Blue and red light induce chloroplast movement in the moss Physcomitrella patens. To study the photoreceptors for chloroplast movement in P. patens, four phototropin genes (PHOTA1, PHOTA2, PHOTB1, and PHOTB2) were isolated by screening cDNA libraries. These genes were classified into two groups (PHOTA and PHOTB) on the basis of their deduced amino acid sequences. Then phototropin disruptants were generated by homologous recombination and used for analysis of chloroplast movement. Data revealed that blue light-induced chloroplast movement was mediated by phototropins in P. patens. Both photA and photB groups were able to mediate chloroplast avoidance, as has been reported for Arabidopsis phot2, although the photA group contributed more to the response. Red light-induced chloroplast movement was also significantly reduced in photA2photB1photB2 triple disruptants. Because the primary photoreceptor for red light-induced chloroplast movement in P. patens is phytochrome, phototropins may be downstream components of phytochromes in the signaling pathway. To our knowledge, this work is the first to show a function for the phototropin blue-tight receptor in a response to wavelengths that it does not absorb.
p15
sS'pageEnd'
p16
I1397
sS'publisherAddress'
p17
V15501 MONONA DRIVE, ROCKVILLE, MD 20855 USA
p18
sS'documentType'
p19
VArticle
p20
sS'subject'
p21
VPlant Sciences
p22
sS'isoSource'
p23
VPlant Physiol.
p24
sS'timesCited'
p25
(lp26
I43
aVZ9 52
p27
asS'PT'
p28
VJ
sS'title'
p29
VPhototropins Mediate Blue And Red Light-Induced Chloroplast Movements In Physcomitrella Patens
p30
sS'ISSN'
p31
(lp32
V0032-0889
p33
aVJ9 PLANT PHYSIOL
p34
asS'authors_full'
p35
(lp36
(VKASAHARA
VM
tp37
a(VKAGAWA
VT
tp38
a(VSATO
VY
tp39
a(VKIYOSUE
VT
tp40
a(VWADA
VM
tp41
asS'PG'
p42
I10
sS'PD'
p43
VJUL
p44
sS'pageStart'
p45
I1388
sS'issue'
p46
I3
sS'journal'
p47
VPLANT PHYSIOLOGY
p48
sS'volume'
p49
V135
p50
sS'doi'
p51
V10.1104/pp.104.042705
p52
sS'emailAddress'
p53
Vwada-masamitsu@c.metro-u.ac.jp
p54
sS'authorAddress'
p55
(lp56
VTokyo Metropolitan Univ, Grad Sch, Fac Sci, Dept Biol, Tokyo 1920397, Japan.
p57
aVNatl Inst Basic Biol, Okazaki, Aichi 4448585, Japan.
p58
aVTokyo Univ Agr & Technol, Ctr Gene Res, Tokyo 1838509, Japan.
p59
aVJapan Sci & Technol Corp, Solut Oriented Res Sci & Technol, Kawaguchi, Saitama 3320012, Japan.
p60
asS'date'
p61
I2004
sS'ER'
p62
V
sS'publisher'
p63
VAMER SOC PLANT BIOLOGISTS
p64
sS'authorKeywords'
p65
(lp66
VARABIDOPSIS-THALIANA
p67
aVFLAVIN MONONUCLEOTIDE
p68
aVSIGNAL-TRANSDUCTION
p69
aVAVOIDANCE MOVEMENT
p70
aVHIGHER-PLANTS
p71
aVPHYTOCHROME
p72
aVRELOCATION
p73
aVNPH1
p74
aVPHOTORECEPTOR
p75
aVRECEPTOR
p76
asS'language'
p77
VEnglish
p78
sS'wosid'
p79
VWOS:000222692700022
p80
sS'citationCount'
p81
I40
sS'authors_init'
p82
(lp83
(VKASAHARA
VM
tp84
a(VKAGAWA
VT
tp85
a(VSATO
VY
tp86
a(VKIYOSUE
VT
tp87
a(VWADA
VM
tp88
asS'citedReferences'
p89
(lp90
g1
(g2
g3
NtRp91
(dp92
g51
V10.1105/tpc.13.5.993
p93
sg47
VPLANT CELL
p94
sg49
V13
p95
sg82
(lp96
(VBRIGGS
VW R
tp97
asg61
I2001
sg45
VLANT
p98
sbag1
(g2
g3
NtRp99
(dp100
g51
V10.1146/annurev.cellbio.15.1.33
p101
sg47
VANNU REV CELL DEV BI
p102
sg49
V15
p103
sg82
(lp104
(VBRIGGS
VW R
tp105
asg61
I1999
sg45
V33
p106
sbag1
(g2
g3
NtRp107
(dp108
g51
V10.1016/S1360-1385(02)02245-8
p109
sg47
VTRENDS PLANT SCI
p110
sg49
V7
sg82
(lp111
(VBRIGGS
VW R
tp112
asg61
I2002
sg45
V204
p113
sbag1
(g2
g3
NtRp114
(dp115
g51
V10.1016/j.cell.2003.08.004
p116
sg47
VCELL
p117
sg49
V114
p118
sg82
(lp119
(VCASHMORE
VA R
tp120
asg61
I2003
sg45
V537
p121
sbag1
(g2
g3
NtRp122
(dp123
g51
V10.1073/pnas.96.15.8779
p124
sg47
VP NATL ACAD SCI USA
p125
sg49
V96
p126
sg82
(lp127
(VCHRISTIE
VJ M
tp128
asg61
I1999
sg45
V8779
p129
sbag1
(g2
g3
NtRp130
(dp131
g51
V10.1074/jbc.R100004200
p132
sg47
VJ BIOL CHEM
p133
sg49
V276
p134
sg82
(lp135
(VCHRISTIE
VJ M
tp136
asg61
I2001
sg45
V11457
p137
sbag1
(g2
g3
NtRp138
(dp139
g51
V10.1104/pp.103.029116
p140
sg47
VPLANT PHYSIOL
p141
sg49
V133
p142
sg82
(lp143
(VDEBLASIO
VS L
tp144
asg61
I2003
sg45
VLANT
p145
sbag1
(g2
g3
NtRp146
(dp147
g51
V10.1016/S1369-5266(03)00082-7
p148
sg47
VCurrent Opinion in Plant Biology
p149
sg49
V6
sg82
(lp150
(VGYULA
VPETER
tp151
asg61
I2003
sg45
V446
p152
sbag1
(g2
g3
NtRp153
(dp154
g51
V10.1111/j.1365-3040.1990.tb01078.x
p155
sg47
VPLANT CELL ENVIRON
p156
sg49
V13
p157
sg82
(lp158
(VHAUPT
VW
tp159
asg61
I1990
sg45
VLANT
p160
sbag1
(g2
g3
NtRp161
(dp162
g51
V10.1126/science.278.5346.2120
p163
sg47
VSCIENCE
p164
sg49
V278
p165
sg82
(lp166
(VHUALA
VE
tp167
asg61
I1997
sg45
V2120
p168
sbag1
(g2
g3
NtRp169
(dp170
g51
V10.1038/nature02090
p171
sg47
VNATURE
p172
sg49
V426
p173
sg82
(lp174
(VIMAIZUMI
VT
tp175
asg61
I2003
sg45
V302
p176
sbag1
(g2
g3
NtRp177
(dp178
g51
V10.1105/tpc.010388
p179
sg47
VPLANT CELL
p180
sg49
V14
p181
sg82
(lp182
(VIMAIZUMI
VT
tp183
asg61
I2002
sg45
VLANT
p184
sbag1
(g2
g3
NtRp185
(dp186
g51
V10.1104/pp.113.3.975
p187
sg47
VPLANT PHYSIOL
p188
sg49
V113
p189
sg82
(lp190
(VJANOUDI
VA K
tp191
asg61
I1997
sg45
VLANT
p192
sbag1
(g2
g3
NtRp193
(dp194
g51
V10.1038/35073622
p195
sg47
VNATURE
p196
sg49
V410
p197
sg82
(lp198
(VJARILLO
VJ A
tp199
asg61
I2001
sg45
V952
p200
sbag1
(g2
g3
NtRp201
(dp202
g51
V10.1007/s004250050700
p203
sg47
VPLANTA
p204
sg49
V210
p205
sg82
(lp206
(VKADOTA
VA
tp207
asg61
I2000
sg45
VLANTA
p208
sbag1
(g2
g3
NtRp209
(dp210
g51
V10.1093/pcp/pch045
p211
sg47
VPLANT CELL PHYSIOL
p212
sg49
V45
p213
sg82
(lp214
(VKAGAWA
VT
tp215
asg61
I2004
sg45
VLANT
p216
sbag1
(g2
g3
NtRp217
(dp218
g51
Nsg47
VPLANT CELL PHYSIOL
p219
sg49
V41
p220
sg82
(lp221
(VKAGAWA
VT
tp222
asg61
I2000
sg45
VLANT
p223
sbag1
(g2
g3
NtRp224
(dp225
g51
V10.1126/science.291.5511.2138
p226
sg47
VSCIENCE
p227
sg49
V291
p228
sg82
(lp229
(VKAGAWA
VT
tp230
asg61
I2001
sg45
V2138
p231
sbag1
(g2
g3
NtRp232
(dp233
g51
V10.1093/pcp/pcf049
p234
sg47
VPLANT CELL PHYSIOL
p235
sg49
V43
p236
sg82
(lp237
(VKAGAWA
VT
tp238
asg61
I2002
sg45
VLANT
p239
sbag1
(g2
g3
NtRp240
(dp241
g51
V10.1104/pp.002410
p242
sg47
VPLANT PHYSIOL
p243
sg49
V129
p244
sg82
(lp245
(VKASAHARA
VM
tp246
asg61
I2002
sg45
VLANT
p247
sbag1
(g2
g3
NtRp248
(dp249
g51
V10.1038/nature01213
p250
sg47
VNATURE
p251
sg49
V420
p252
sg82
(lp253
(VKASAHARA
VM
tp254
asg61
I2002
sg45
V829
p255
sbag1
(g2
g3
NtRp256
(dp257
g51
V10.1038/nature01310
p258
sg47
VNATURE
p259
sg49
V421
p260
sg82
(lp261
(VKAWAI
VH
tp262
asg61
I2003
sg45
V287
p263
sbag1
(g2
g3
NtRp264
(dp265
g51
V10.1038/414656a
p266
sg47
VNATURE
p267
sg49
V414
p268
sg82
(lp269
(VKINOSHITA
VT
tp270
asg61
I2001
sg45
V656
p271
sbag1
(g2
g3
NtRp272
(dp273
g51
V10.1016/0014-5793(93)81689-W
p274
sg47
VFEBS LETT
p275
sg49
V334
p276
sg82
(lp277
(VKOLUKISAOGLU
VH U
tp278
asg61
I1993
sg45
V95
p279
sbag1
(g2
g3
NtRp280
(dp281
g51
V10.1104/pp.120.2.605
p282
sg47
VPLANT PHYSIOL
p283
sg49
V120
p284
sg82
(lp285
(VLASCEVE
VG
tp286
asg61
I1999
sg45
VLANT
p287
sbag1
(g2
g3
NtRp288
(dp289
g51
V10.1146/annurev.arplant.54.110901.160901
p290
sg47
VANNU REV PLANT BIOL
p291
sg49
V54
p292
sg82
(lp293
(VLIN
VC T
tp294
asg61
I2003
sg45
V469
p295
sbag1
(g2
g3
NtRp296
(dp297
g51
V10.1104/pp.103.030601
p298
sg47
VPLANT PHYSIOL
p299
sg49
V133
p300
sg82
(lp301
(VLISCUM
VE
tp302
asg61
I2003
sg45
VLANT
p303
sbag1
(g2
g3
NtRp304
(dp305
g51
Nsg47
VPLANT CELL PHYSIOL
p306
sg49
V37
p307
sg82
(lp308
(VMITSUHARA
VI
tp309
asg61
I1996
sg45
VLANT
p310
sbag1
(g2
g3
NtRp311
(dp312
g51
V10.1093/dnares/7.1.9
p313
sg47
VDNA RES
p314
sg49
V7
sg82
(lp315
(VNISHIYAMA
VT
tp316
asg61
I2000
sg45
V9
sbag1
(g2
g3
NtRp317
(dp318
g51
V10.1073/pnas.0932694100
p319
sg47
VP NATL ACAD SCI USA
p320
sg49
V100
p321
sg82
(lp322
(VNISHIYAMA
VT
tp323
asg61
I2003
sg45
V8007
p324
sbag1
(g2
g3
NtRp325
(dp326
g51
V10.1073/pnas.95.26.15826
p327
sg47
VP NATL ACAD SCI USA
p328
sg49
V95
p329
sg82
(lp330
(VNOZUE
VK
tp331
asg61
I1998
sg45
V15826
p332
sbag1
(g2
g3
NtRp333
(dp334
g51
V10.1073/pnas.0305984101
p335
sg47
VP NATL ACAD SCI USA
p336
sg49
V101
p337
sg82
(lp338
(VOHGISHI
VM
tp339
asg61
I2004
sg45
V2223
p340
sbag1
(g2
g3
NtRp341
(dp342
g51
V10.1073/pnas.101137598
p343
sg47
VP NATL ACAD SCI USA
p344
sg49
V98
p345
sg82
(lp346
(VSAKAI
VT
tp347
asg61
I2001
sg45
V6969
p348
sbag1
(g2
g3
NtRp349
(dp350
g51
Nsg47
VJ CELL SCI
p351
sg49
V114
p352
sg82
(lp353
(VSATO
VY
tp354
asg61
I2001
sg45
V269
p355
sbag1
(g2
g3
NtRp356
(dp357
g51
V10.1016/S1369-5266(00)00150-3
p358
sg47
VCURR OPIN PLANT BIOL
p359
sg49
V4
sg82
(lp360
(VSCHAEFER
VD G
tp361
asg61
I2001
sg45
V143
p362
sbag1
(g2
g3
NtRp363
(dp364
g51
V10.1105/tpc.13.12.2659
p365
sg47
VPLANT CELL
p366
sg49
V13
p367
sg82
(lp368
(VSCHULTZ
VT F
tp369
asg61
I2001
sg45
VLANT
p370
sbag1
(g2
g3
NtRp371
(dp372
g51
Nsg47
VMICROBIOL MOL BIOL R
p373
sg49
V63
p374
sg82
(lp375
(VTAYLOR
VB L
tp376
asg61
I1999
sg45
V479
p377
sbag1
(g2
g3
NtRp378
(dp379
g51
V10.1146/annurev.arplant.54.031902.135023
p380
sg47
VANNU REV PLANT BIOL
p381
sg49
V54
p382
sg82
(lp383
(VWADA
VM
tp384
asg61
I2003
sg45
V455
p385
sbag1
(g2
g3
NtRp386
(dp387
g51
Nsg47
VPHOTOMOVEMENT
p388
sg49
Nsg82
(lp389
(VWADA
VM
tp390
asg61
I2001
sg45
VHOTOMOVEMENT
p391
sbag1
(g2
g3
NtRp392
(dp393
g51
Nsg47
VACTA SOC BOT POLON
p394
sg49
V24
p395
sg82
(lp396
(VZURZYCKI
VJ
tp397
asg61
I1955
sg45
V27
p398
sbasb.