ccopy_reg
_reconstructor
p1
(ctethne.classes.paper
Paper
p2
c__builtin__
object
p3
NtRp4
(dp5
S'publisherCity'
p6
VROCKVILLE
p7
sS'reprintAddress'
p8
VMueller, LA (reprint author), Cornell Univ, Dept Genet & Plant Breeding, Ithaca, NY 14853 USA.
p9
sS'WC'
p10
VPlant Sciences
p11
sS'GA'
p12
V333WR
p13
sS'abstract'
p14
VThe amount of biological data available in the public domain is growing exponentially, and there is an increasing need for infrastructural and human resources to organize, store, and present the data in a proper context. Model organism databases (MODs) invest great efforts to functionally annotate genomes and phenomes by in-house curators. The SOL Genomics Network (SGN; http://www.sgn.cornell.edu) is a clade-oriented database (COD), which provides a more scalable and comparative framework for biological information. SGN has recently spearheaded a new approach by developing community annotation tools to expand its curational capacity. These tools effectively allow some curation to be delegated to qualified researchers, while, at the same time, preserving the in-house curators' full editorial control. Here we describe the background, features, implementation, results, and development road map of SGN's community annotation tools for curating genotypes and phenotypes. Since the inception of this project in late 2006, interest and participation from the Solanaceae research community has been strong and growing continuously to the extent that we plan to expand the framework to accommodate more plant taxa. All data, tools, and code developed at SGN are freely available to download and adapt.
p15
sS'pageEnd'
p16
I1799
sS'date'
p17
I2008
sS'documentType'
p18
VArticle
p19
sS'subject'
p20
VPlant Sciences
p21
sS'isoSource'
p22
VPlant Physiol.
p23
sS'timesCited'
p24
(lp25
I15
aVZ9 15
p26
asS'PT'
p27
VJ
sS'title'
p28
VA Community-Based Annotation Framework For Linking Solanaceae Genomes With Phenomes
p29
sS'ISSN'
p30
(lp31
V0032-0889
p32
aVJ9 PLANT PHYSIOL
p33
asS'authors_full'
p34
(lp35
(VMENDA
VNAAMA
tp36
a(VBUELS
VROBERT M
tp37
a(VTECLE
VISAAK
tp38
a(VMUELLER
VLUKAS A
tp39
asS'PG'
p40
I12
sS'PD'
p41
VAUG
p42
sS'pageStart'
p43
I1788
sS'issue'
p44
I4
sS'RI'
p45
VMueller, Lukas/E-8840-2011; Menda, Naama/G-2915-2012
p46
sS'journal'
p47
VPLANT PHYSIOLOGY
p48
sS'volume'
p49
V147
p50
sS'doi'
p51
V10.1104/pp.108.119560
p52
sS'emailAddress'
p53
Vlam87@cornell.edu
p54
sS'authorAddress'
p55
(lp56
V[Mueller, Lukas A.] Cornell Univ, Dept Genet & Plant Breeding, Ithaca, NY 14853 USA.
p57
aVCornell Univ, Boyce Thompson Inst Plant Res, Ithaca, NY 14853 USA.
p58
asS'publisherAddress'
p59
V15501 MONONA DRIVE, ROCKVILLE, MD 20855 USA
p60
sS'ER'
p61
V
sS'publisher'
p62
VAMER SOC PLANT BIOLOGISTS
p63
sS'authorKeywords'
p64
(lp65
VTOMATO
p66
aVRESOURCE
p67
aVDATABASE
p68
aVINFORMATION
p69
aVSEQUENCE
p70
aVPROJECT
p71
aVBIOLOGY
p72
aVFRUIT
p73
asS'language'
p74
VEnglish
p75
sS'wosid'
p76
VWOS:000258184800030
p77
sS'citationCount'
p78
I24
sS'authors_init'
p79
(lp80
(VMENDA
VN
tp81
a(VBUELS
VR M
tp82
a(VTECLE
VI
tp83
a(VMUELLER
VL A
tp84
asS'citedReferences'
p85
(lp86
g1
(g2
g3
NtRp87
(dp88
g51
V10.1093/nar/gkm908
p89
sg47
VNUCLEIC ACIDS RES
p90
sg49
V36
p91
sg79
(lp92
(VAVRAHAM
VS
tp93
asg17
I2008
sg43
VD449
p94
sbag1
(g2
g3
NtRp95
(dp96
g51
Nsg47
VJ HERED
p97
sg49
V43
p98
sg79
(lp99
(VBUTLER
VL
tp100
asg17
I1952
sg43
V25
p101
sbag1
(g2
g3
NtRp102
(dp103
g51
V10.1093/nar/gkm900
p104
sg47
VNUCLEIC ACIDS RES
p105
sg49
V36
p106
sg79
(lp107
(VCASPI
VR
tp108
asg17
I2008
sg43
VD623
p109
sbag1
(g2
g3
NtRp110
(dp111
g51
V10.1093/nar/gkl827
p112
sg47
VNUCLEIC ACIDS RES
p113
sg49
V35
p114
sg79
(lp115
(VCROSBY
VM A
tp116
asg17
I2007
sg43
VD486
p117
sbag1
(g2
g3
NtRp118
(dp119
g51
V10.1093/nar/gkl940
p120
sg47
VNUCLEIC ACIDS RES
p121
sg49
V35
p122
sg79
(lp123
(VEPPIG
VJ T
tp124
asg17
I2007
sg43
VD630
p125
sbag1
(g2
g3
NtRp126
(dp127
g51
Nsg47
VGENETICS
p128
sg49
V141
p129
sg79
(lp130
(VESHED
VY
tp131
asg17
I1995
sg43
V1147
p132
sbag1
(g2
g3
NtRp133
(dp134
g51
V10.1007/s00122-007-0698-7
p135
sg47
VTHEOR APPL GENET
p136
sg49
V116
p137
sg79
(lp138
(VGONZALO
VM J
tp139
asg17
I2008
sg43
V647
p140
sbag1
(g2
g3
NtRp141
(dp142
g51
V10.1093/nar/gkl1048
p143
sg47
VNUCLEIC ACIDS RES
p144
sg49
V35
p145
sg79
(lp146
(VLAWRENCE
VC J
tp147
asg17
I2007
sg43
VD895
p148
sbag1
(g2
g3
NtRp149
(dp150
g51
V10.1093/nar/gkm968
p151
sg47
VNUCLEIC ACIDS RES
p152
sg49
V36
p153
sg79
(lp154
(VLIANG
VC Z
tp155
asg17
I2008
sg43
VD947
p156
sbag1
(g2
g3
NtRp157
(dp158
g51
V10.1111/j.1365-313X.2004.02088.x
p159
sg47
VPLANT J
p160
sg49
V38
p161
sg79
(lp162
(VMENDA
VN
tp163
asg17
I2004
sg43
VLANT
p164
sbag1
(g2
g3
NtRp165
(dp166
g51
V10.1104/pp.105.060707
p167
sg47
VPLANT PHYSIOL
p168
sg49
V138
p169
sg79
(lp170
(VMUELLER
VL A
tp171
asg17
I2005
sg43
VLANT
p172
sbag1
(g2
g3
NtRp173
(dp174
g51
V10.1093/bioinformatics/btm597
p175
sg47
VBIOINFORMATICS
p176
sg49
V24
p177
sg79
(lp178
(VMUELLER
VL A
tp179
asg17
I2008
sg43
V422
p180
sbag1
(g2
g3
NtRp181
(dp182
g51
V10.1093/bioinformatics/btm189
p183
sg47
VBIOINFORMATICS
p184
sg49
V23
p185
sg79
(lp186
(VMUNGALL
VC J
tp187
asg17
I2007
sg43
VI337
p188
sbag1
(g2
g3
NtRp189
(dp190
g51
V10.1093/nar/gkj094
p191
sg47
VNUCLEIC ACIDS RES
p192
sg49
V34
p193
sg79
(lp194
(VOHYANAGI
VH
tp195
asg17
I2006
sg43
VD741
p196
sbag1
(g2
g3
NtRp197
(dp198
g51
V10.1038/ng2036
p199
sg47
VNAT GENET
p200
sg49
V39
p201
sg79
(lp202
(VORI
VN
tp203
asg17
I2007
sg43
V787
p204
sbag1
(g2
g3
NtRp205
(dp206
g51
V10.1126/science.287.5461.2182
p207
sg47
VSCIENCE
p208
sg49
V287
p209
sg79
(lp210
(VPENNISI
VE
tp211
asg17
I2000
sg43
V2182
p212
sbag1
(g2
g3
NtRp213
(dp214
g51
V10.1093/nar/gkj405
p215
sg47
VNUCLEIC ACIDS RES
p216
sg49
V34
p217
sg79
(lp218
(VRILEY
VM
tp219
asg17
I2006
sg43
V1
sbag1
(g2
g3
NtRp220
(dp221
g51
V10.1101/gr.361602
p222
sg47
VGENOME RES
p223
sg49
V12
p224
sg79
(lp225
(VSTAJICH
VJ E
tp226
asg17
I2002
sg43
V1611
p227
sbag1
(g2
g3
NtRp228
(dp229
g51
V10.1038/35080529
p230
sg47
VNAT REV GENET
p231
sg49
V2
sg79
(lp232
(VSTEIN
VL
tp233
asg17
I2001
sg43
V493
p234
sbag1
(g2
g3
NtRp235
(dp236
g51
V10.1371/journal.pbio.0020309
p237
sg47
VPLOS BIOL
p238
sg49
V2
sg79
(lp239
(VMULLER
VH M
tp240
asg17
I2004
sg43
VLOS
p241
sbag1
(g2
g3
NtRp242
(dp243
g51
V10.1093/nar/gkm965
p244
sg47
VNUCLEIC ACIDS RES
p245
sg49
V36
p246
sg79
(lp247
(VSWARBRECK
VD
tp248
asg17
I2008
sg43
VD1009
p249
sbag1
(g2
g3
NtRp250
(dp251
g51
Nsg47
VNATURE
p252
sg49
V408
p253
sg79
(lp254
(VKAUL
VS
tp255
asg17
I2000
sg43
V796
p256
sbag1
(g2
g3
NtRp257
(dp258
g51
V10.1093/nar/gkm883
p259
sg47
VNUCLEIC ACIDS RES
p260
sg49
V36
p261
sg79
(lp262
(VHARRIS
VM A
tp263
asg17
I2008
sg43
VD440
p264
sbag1
(g2
g3
NtRp265
(dp266
g51
V10.1126/science.1153040
p267
sg47
VSCIENCE
p268
sg49
V319
p269
sg79
(lp270
(VXIAO
VH
tp271
asg17
I2008
sg43
V1527
p272
sbasb.