ccopy_reg
_reconstructor
p1
(ctethne.classes.paper
Paper
p2
c__builtin__
object
p3
NtRp4
(dp5
S'publisherCity'
p6
VROCKVILLE
p7
sS'reprintAddress'
p8
VBrowse, J (reprint author), Washington State Univ, Inst Biol Chem, Pullman, WA 99164 USA.
p9
sS'WC'
p10
VPlant Sciences
p11
sS'GA'
p12
V715JN
p13
sS'FX'
p14
(lp15
VThis work was supported by the U.S. National Science Foundation (grant
p16
aVno. DBI-0701919) and by the Agricultural Research Center at Washington
p17
aVState University.
p18
asS'abstract'
p19
VProducing unusual fatty acids (FAs) in crop plants has been a long-standing goal of green chemistry. However, expression of the enzymes that catalyze the primary synthesis of these unusual FAs in transgenic plants typically results in low levels of the desired FA. For example, seed-specific expression of castor (Ricinus communis) fatty acid hydroxylase (RcFAH) in Arabidopsis (Arabidopsis thaliana) resulted in only 17% hydroxy fatty acids (HFAs) in the seed oil. In order to increase HFA levels, we investigated castor phospholipid: diacylglycerol acyltransferase (PDAT). We cloned cDNAs encoding three putative PDAT enzymes from a castor seed cDNA library and coexpressed them with RcFAH12. One isoform, RcPDAT1A, increased HFA levels to 27%. Analysis of HFA-triacylglycerol molecular species and regiochemistry, along with analysis of the HFA content of phosphatidylcholine, indicates that RcPDAT1A functions as a PDAT in vivo. Expression of RcFAH12 alone leads to a significant decrease in FA content of seeds. Coexpression of RcPDAT1A and RcDGAT2 (for diacylglycerol acyltransferase 2) with RcFAH12 restored FA levels to nearly wild-type levels, and this was accompanied by a major increase in the mass of HFAs accumulating in the seeds. We show the usefulness of RcPDAT1A for engineering plants with high levels of HFAs and alleviating bottlenecks due to the production of unusual FAs in transgenic oilseeds.
p20
sS'pageEnd'
p21
I693
sS'date'
p22
I2011
sS'documentType'
p23
VArticle
p24
sS'subject'
p25
VPlant Sciences
p26
sS'isoSource'
p27
VPlant Physiol.
p28
sS'timesCited'
p29
(lp30
I17
aVZ9 17
p31
asS'funding'
p32
(lp33
(VU.S. National Science Foundation
VDBI-0701919
tp34
a(VAgricultural Research Center at Washington State University
Ntp35
asS'PT'
p36
VJ
sS'title'
p37
VCastor Phospholipid: Diacylglycerol Acyltransferase Facilitates Efficient Metabolism Of Hydroxy Fatty Acids In Transgenic Arabidopsis
p38
sS'ISSN'
p39
(lp40
V0032-0889
p41
aVJ9 PLANT PHYSIOL
p42
asS'authors_full'
p43
(lp44
(VVAN ERP
VHARRIE
tp45
a(VBATES
VPHILIP D
tp46
a(VBURGAL
VJULIE
tp47
a(VSHOCKEY
VJAY
tp48
a(VBROWSE
VJOHN
tp49
asS'PG'
p50
I11
sS'PD'
p51
VFEB
p52
sS'pageStart'
p53
I683
sS'issue'
p54
I2
sS'RI'
p55
VBates, Philip/I-7550-2013
p56
sS'journal'
p57
VPLANT PHYSIOLOGY
p58
sS'volume'
p59
V155
p60
sS'doi'
p61
V10.1104/pp.110.167239
p62
sS'emailAddress'
p63
Vjab@wsu.edu
p64
sS'authorAddress'
p65
V[van Erp, Harrie; Bates, Philip D.; Burgal, Julie; Shockey, Jay; Browse, John] Washington State Univ, Inst Biol Chem, Pullman, WA 99164 USA.
p66
sS'publisherAddress'
p67
V15501 MONONA DRIVE, ROCKVILLE, MD 20855 USA
p68
sS'ER'
p69
V
sS'publisher'
p70
VAMER SOC PLANT BIOLOGISTS
p71
sS'authorKeywords'
p72
(lp73
VAGROBACTERIUM-MEDIATED TRANSFORMATION
p74
aVRICINUS-COMMUNIS
p75
aVENZYMATIC-SYNTHESIS
p76
aVRICINOLEIC ACID
p77
aVMICROSOMAL PREPARATIONS
p78
aVDEVELOPING SEEDS
p79
aVGENE-EXPRESSION
p80
aVTHALIANA
p81
aVTRIACYLGLYCEROL
p82
aVPLANTS
p83
asS'OI'
p84
VBates, Philip/0000-0002-1291-3363
p85
sS'language'
p86
VEnglish
p87
sS'wosid'
p88
VWOS:000286880800006
p89
sS'citationCount'
p90
I51
sS'authors_init'
p91
(lp92
(VVAN ERP
VH
tp93
a(VBATES
VP D
tp94
a(VBURGAL
VJ
tp95
a(VSHOCKEY
VJ
tp96
a(VBROWSE
VJ
tp97
asS'citedReferences'
p98
(lp99
g1
(g2
g3
NtRp100
(dp101
g61
V10.1093/mp/ssq026
p102
sg57
VMOL PLANT
p103
sg59
V3
sg91
(lp104
(VAHMAD
VA
tp105
asg22
I2010
sg53
V719
p106
sbag1
(g2
g3
NtRp107
(dp108
g61
Nsg57
VBIOCHEM J
p109
sg59
V280
p110
sg91
(lp111
(VBAFOR
VM
tp112
asg22
I1991
sg53
V507
p113
sbag1
(g2
g3
NtRp114
(dp115
g61
V10.1074/jbc.M504459200
p116
sg57
VJ BIOL CHEM
p117
sg59
V280
p118
sg91
(lp119
(VBANAS
VA
tp120
asg22
I2005
sg53
V34626
p121
sbag1
(g2
g3
NtRp122
(dp123
g61
V10.1042/0300-5127:0280703
p124
sg57
VBIOCHEM SOC T
p125
sg59
V28
p126
sg91
(lp127
(VBANAS
VA
tp128
asg22
I2000
sg53
V703
p129
sbag1
(g2
g3
NtRp130
(dp131
g61
V10.1104/pp.109.137737
p132
sg57
VPLANT PHYSIOL
p133
sg59
V150
p134
sg91
(lp135
(VBATES
VP D
tp136
asg22
I2009
sg53
VLANT
p137
sbag1
(g2
g3
NtRp138
(dp139
g61
V10.1074/jbc.M705447200
p140
sg57
VJ BIOL CHEM
p141
sg59
V282
p142
sg91
(lp143
(VBATES
VP D
tp144
asg22
I2007
sg53
V31206
p145
sbag1
(g2
g3
NtRp146
(dp147
g61
Nsg57
VCAN J BIOCHEM PHYS
p148
sg59
V37
p149
sg91
(lp150
(VBLIGH
VE G
tp151
asg22
I1959
sg53
V911
p152
sbag1
(g2
g3
NtRp153
(dp154
g61
V10.1104/pp.104.043372
p155
sg57
VPLANT PHYSIOL
p156
sg59
V135
p157
sg91
(lp158
(VBONAVENTURE
VG
tp159
asg22
I2004
sg53
VLANT
p160
sbag1
(g2
g3
NtRp161
(dp162
g61
V10.1126/science.282.5392.1315
p163
sg57
VSCIENCE
p164
sg59
V282
p165
sg91
(lp166
(VBROUN
VP
tp167
asg22
I1998
sg53
V1315
p168
sbag1
(g2
g3
NtRp169
(dp170
g61
V10.1104/pp.113.3.933
p171
sg57
VPLANT PHYSIOL
p172
sg59
V113
p173
sg91
(lp174
(VBROUN
VP
tp175
asg22
I1997
sg53
VLANT
p176
sbag1
(g2
g3
NtRp177
(dp178
g61
V10.1042/BJ20020071
p179
sg57
VBIOCHEM J
p180
sg59
V364
p181
sg91
(lp182
(VBROWN
VA P
tp183
asg22
I2002
sg53
V795
p184
sbag1
(g2
g3
NtRp185
(dp186
g61
V10.1111/j.1467-7652.2008.00361.x
p187
sg57
VPLANT BIOTECHNOL J
p188
sg59
V6
sg91
(lp189
(VBURGAL
VJ
tp190
asg22
I2008
sg53
VLANT
p191
sbag1
(g2
g3
NtRp192
(dp193
g61
V10.1016/j.phytochem.2006.04.013
p194
sg57
VPHYTOCHEMISTRY
p195
sg59
V67
p196
sg91
(lp197
(VCAHOON
VE B
tp198
asg22
I2006
sg53
VHYTOCHEMISTRY
p199
sbag1
(g2
g3
NtRp200
(dp201
g61
V10.1186/1471-2105-4-29
p202
sg57
VBMC BIOINFORMATICS
p203
sg59
V4
sg91
(lp204
(VCAMPANELLA
VJ J
tp205
asg22
I2003
sg53
Nsbag1
(g2
g3
NtRp206
(dp207
g61
Nsg57
VLIPID TECHNOLOGIES A
p208
sg59
Nsg91
(lp209
(VCAUPIN
VH J
tp210
asg22
I1997
sg53
V787
p211
sbag1
(g2
g3
NtRp212
(dp213
g61
V10.1038/nbt.1674
p214
sg57
VNAT BIOTECHNOL
p215
sg59
V28
p216
sg91
(lp217
(VCHAN
VA P
tp218
asg22
I2010
sg53
V951
p219
sbag1
(g2
g3
NtRp220
(dp221
g61
V10.1046/j.1365-313x.1998.00343.x
p222
sg57
VPLANT J
p223
sg59
V16
p224
sg91
(lp225
(VCLOUGH
VS J
tp226
asg22
I1998
sg53
VLANT
p227
sbag1
(g2
g3
NtRp228
(dp229
g61
V10.1073/pnas.120067297
p230
sg57
VP NATL ACAD SCI USA
p231
sg59
V97
p232
sg91
(lp233
(VDAHLQVIST
VA
tp234
asg22
I2000
sg53
V6487
p235
sbag1
(g2
g3
NtRp236
(dp237
g61
V10.1104/pp.108.121681
p238
sg57
VPLANT PHYSIOL
p239
sg59
V147
p240
sg91
(lp241
(VDAMUDE
VH G
tp242
asg22
I2008
sg53
VLANT
p243
sbag1
(g2
g3
NtRp244
(dp245
g61
V10.1111/j.1365-313X.2008.03430.x
p246
sg57
VPLANT J
p247
sg59
V54
p248
sg91
(lp249
(VDYER
VJ M
tp250
asg22
I2008
sg53
VLANT
p251
sbag1
(g2
g3
NtRp252
(dp253
g61
Nsg57
VJ BIOL CHEM
p254
sg59
V241
p255
sg91
(lp256
(VGALLIARD
VT
tp257
asg22
I1966
sg53
V5806
p258
sbag1
(g2
g3
NtRp259
(dp260
g61
V10.1104/pp.108.1.399
p261
sg57
VPLANT PHYSIOL
p262
sg59
V108
p263
sg91
(lp264
(VKATAVIC
VV
tp265
asg22
I1995
sg53
VLANT
p266
sbag1
(g2
g3
NtRp267
(dp268
g61
V10.1104/pp.109.3.999
p269
sg57
VPLANT PHYSIOL
p270
sg59
V109
p271
sg91
(lp272
(VKNUTZON
VD S
tp273
asg22
I1995
sg53
VLANT
p274
sbag1
(g2
g3
NtRp275
(dp276
g61
Nsg57
VPLANT PHYSIOL BIOCH
p277
sg59
V30
p278
sg91
(lp279
(VKUNST
VL
tp280
asg22
I1992
sg53
VLANT
p281
sbag1
(g2
g3
NtRp282
(dp283
g61
V10.1093/bioinformatics/btm404
p284
sg57
VBIOINFORMATICS
p285
sg59
V23
p286
sg91
(lp287
(VLARKIN
VM A
tp288
asg22
I2007
sg53
V2947
p289
sbag1
(g2
g3
NtRp290
(dp291
g61
V10.1104/pp.109.4.1389
p292
sg57
VPLANT PHYSIOL
p293
sg59
V109
p294
sg91
(lp295
(VLASSNER
VM W
tp296
asg22
I1995
sg53
VLANT
p297
sbag1
(g2
g3
NtRp298
(dp299
g61
V10.1016/j.phytochem.2006.02.015
p300
sg57
VPHYTOCHEMISTRY
p301
sg59
V67
p302
sg91
(lp303
(VLI
VY H
tp304
asg22
I2006
sg53
VHYTOCHEMISTRY
p305
sbag1
(g2
g3
NtRp306
(dp307
g61
V10.1007/s00299-007-0454-0
p308
sg57
VPLANT CELL REP
p309
sg59
V27
p310
sg91
(lp311
(VLU
VC F
tp312
asg22
I2008
sg53
VLANT
p313
sbag1
(g2
g3
NtRp314
(dp315
g61
V10.1111/j.1365-313X.2005.02636.x
p316
sg57
VPLANT J
p317
sg59
V45
p318
sg91
(lp319
(VLU
VC F
tp320
asg22
I2006
sg53
VLANT
p321
sbag1
(g2
g3
NtRp322
(dp323
g61
V10.1073/pnas.0908848106
p324
sg57
VP NATL ACAD SCI USA
p325
sg59
V106
p326
sg91
(lp327
(VLU
VC F
tp328
asg22
I2009
sg53
V18837
p329
sbag1
(g2
g3
NtRp330
(dp331
g61
V10.1016/j.plaphy.2005.01.013
p332
sg57
VPLANT PHYSIOL BIOCH
p333
sg59
V43
p334
sg91
(lp335
(VMHASKE
VV
tp336
asg22
I2005
sg53
VLANT
p337
sbag1
(g2
g3
NtRp338
(dp339
g61
Nsg57
VJ BIOL CHEM
p340
sg59
V267
p341
sg91
(lp342
(VMIQUEL
VM
tp343
asg22
I1992
sg53
V1502
p344
sbag1
(g2
g3
NtRp345
(dp346
g61
V10.1104/pp.103.032938
p347
sg57
VPLANT PHYSIOL
p348
sg59
V134
p349
sg91
(lp350
(VMOIRE
VL
tp351
asg22
I2004
sg53
VLANT
p352
sbag1
(g2
g3
NtRp353
(dp354
g61
V10.1104/pp.67.4.672
p355
sg57
VPLANT PHYSIOL
p356
sg59
V67
p357
sg91
(lp358
(VMOREAU
VR A
tp359
asg22
I1981
sg53
VLANT
p360
sbag1
(g2
g3
NtRp361
(dp362
g61
V10.1002/ejlt.200900138
p363
sg57
VEUR J LIPID SCI TECH
p364
sg59
V112
p365
sg91
(lp366
(VMUTLU
VH
tp367
asg22
I2010
sg53
V10
p368
sbag1
(g2
g3
NtRp369
(dp370
g61
V10.1016/j.pbi.2010.01.008
p371
sg57
VCURR OPIN PLANT BIOL
p372
sg59
V13
p373
sg91
(lp374
(VNAPIER
VJ A
tp375
asg22
I2010
sg53
V330
p376
sbag1
(g2
g3
NtRp377
(dp378
g61
V10.1111/j.1432-1033.2004.04317.x
p379
sg57
VEUR J BIOCHEM
p380
sg59
V271
p381
sg91
(lp382
(VNOIRIEL
VA
tp383
asg22
I2004
sg53
V3752
p384
sbag1
(g2
g3
NtRp385
(dp386
g61
V10.1038/ng1543
p387
sg57
VNAT GENET
p388
sg59
V37
p389
sg91
(lp390
(VSCHMID
VM
tp391
asg22
I2005
sg53
V501
p392
sbag1
(g2
g3
NtRp393
(dp394
g61
V10.1046/j.1365-313X.1995.7040577.x
p395
sg57
VPLANT J
p396
sg59
V7
sg91
(lp397
(VSHINTANI
VD K
tp398
asg22
I1995
sg53
VLANT
p399
sbag1
(g2
g3
NtRp400
(dp401
g61
V10.1016/0005-2760(83)90076-0
p402
sg57
VBIOCHIM BIOPHYS ACTA
p403
sg59
V754
p404
sg91
(lp405
(VSLACK
VC R
tp406
asg22
I1983
sg53
V10
p407
sbag1
(g2
g3
NtRp408
(dp409
g61
V10.1073/pnas.80.7.1897
p410
sg57
VP NATL ACAD SCI
p411
sg59
V80
p412
sg91
(lp413
(VSLIGHTOM
VJ L
tp414
asg22
I1983
sg53
V1897
p415
sbag1
(g2
g3
NtRp416
(dp417
g61
V10.1042/0300-5127:0280947
p418
sg57
VBIOCHEM SOC T
p419
sg59
V28
p420
sg91
(lp421
(VSMITH
VM
tp422
asg22
I2000
sg53
V947
p423
sbag1
(g2
g3
NtRp424
(dp425
g61
V10.1007/s00425-003-1015-6
p426
sg57
VPLANTA
p427
sg59
V217
p428
sg91
(lp429
(VSMITH
VM A
tp430
asg22
I2003
sg53
VLANTA
p431
sbag1
(g2
g3
NtRp432
(dp433
g61
V10.1104/pp.104.044354
p434
sg57
VPLANT PHYSIOL
p435
sg59
V135
p436
sg91
(lp437
(VSTAHL
VU
tp438
asg22
I2004
sg53
VLANT
p439
sbag1
(g2
g3
NtRp440
(dp441
g61
V10.1046/j.1467-7652.2003.00028.x
p442
sg57
VPLANT BIOTECHNOL J
p443
sg59
V1
sg91
(lp444
(VSTUITJE
VA R
tp445
asg22
I2003
sg53
VLANT
p446
sbag1
(g2
g3
NtRp447
(dp448
g61
Nsg57
VBIOCHEM J
p449
sg59
V223
p450
sg91
(lp451
(VSTYMNE
VS
tp452
asg22
I1984
sg53
V305
p453
sbag1
(g2
g3
NtRp454
(dp455
g61
V10.1016/S0168-9452(01)00500-3
p456
sg57
VPLANT SCI
p457
sg59
V161
p458
sg91
(lp459
(VTHOMAEUS
VS
tp460
asg22
I2001
sg53
VLANT
p461
sbag1
(g2
g3
NtRp462
(dp463
g61
V10.1073/pnas.92.15.6743
p464
sg57
VP NATL ACAD SCI USA
p465
sg59
V92
p466
sg91
(lp467
(VVANDELOO
VF J
tp468
asg22
I1995
sg53
V6743
p469
sbag1
(g2
g3
NtRp470
(dp471
g61
Nsg57
VJ BIOL CHEM
p472
sg59
V235
p473
sg91
(lp474
(VWEISS
VS B
tp475
asg22
I1960
sg53
V40
p476
sbag1
(g2
g3
NtRp477
(dp478
g61
V10.1371/journal.pone.0000718
p479
sg57
VPLOS ONE
p480
sg59
V2
sg91
(lp481
(VWINTER
VD
tp482
asg22
I2007
sg53
VLOS
p483
sbag1
(g2
g3
NtRp484
(dp485
g61
V10.1105/tpc.109.071795
p486
sg57
VPLANT CELL
p487
sg59
V21
p488
sg91
(lp489
(VZHANG
VM
tp490
asg22
I2009
sg53
VLANT
p491
sbasb.