ccopy_reg
_reconstructor
p1
(ctethne.classes.paper
Paper
p2
c__builtin__
object
p3
NtRp4
(dp5
S'publisherCity'
p6
VROCKVILLE
p7
sS'reprintAddress'
p8
VSakurai, N (reprint author), Hiroshima Univ, Fac Integrated Arts & Sci, Higashihiroshima 7398521, Japan.
p9
sS'WC'
p10
VPlant Sciences
p11
sS'GA'
p12
V717FQ
p13
sS'abstract'
p14
VCultured asparagus (Asparagus officinalis L. cv Y6) cells induced to regenerate into whole plants through somatic embryogenesis secreted a 38-kD protein into cell walls. The full-length cDNA sequence of this protein (Asparagus officinalis peroxidase 1 [AoPOX1]) determined by reverse transcriptase-polymerase chain reaction showed similarity with plant peroxidases. AoPOX1 transcripts were particularly abundant during early somatic embryogenesis. To evaluate the in vivo function of AoPOX1 protein, purified recombinant AoPOX1 protein was reacted with a series of phenolic substrates. The AoPOX1 protein was effective in the metabolism of feruloyl (o-methoxyphenol)-substituted substrates, including coniferyl alcohol. The reaction product of coniferyl alcohol was fractionated and subjected to gas chromatography-mass spectrometry analysis and H-1-nuclear magnetic resonance analysis, indicating that the oxidation product of coniferyl alcohol in the presence of AoPOX1 was dehydrodiconiferyl alcohol. The concentration of dehydrodiconiferyl alcohol in the cultured medium of the somatic embryos was in the range of 10(-8) m. Functions of the AoPOX1 protein in the cell differentiation are discussed.
p15
sS'pageEnd'
p16
I1774
sS'date'
p17
I2003
sS'documentType'
p18
VArticle
p19
sS'subject'
p20
VPlant Sciences
p21
sS'isoSource'
p22
VPlant Physiol.
p23
sS'timesCited'
p24
(lp25
I23
aVZ9 29
p26
asS'PT'
p27
VJ
sS'title'
p28
VExpression And Function Of Cell Wall-Bound Cationic Peroxidase In Asparagus Somatic Embryogenesis
p29
sS'ISSN'
p30
(lp31
V0032-0889
p32
aVJ9 PLANT PHYSIOL
p33
asS'authors_full'
p34
(lp35
(VTAKEDA
VH
tp36
a(VKOTAKE
VT
tp37
a(VNAKAGAWA
VN
tp38
a(VSAKURAI
VN
tp39
a(VNEVINS
VDJ
tp40
asS'PG'
p41
I10
sS'PD'
p42
VAPR
p43
sS'pageStart'
p44
I1765
sS'issue'
p45
I4
sS'RI'
p46
VNakagawa, Naoki/C-9152-2009; Kotake, Toshihisa/F-1117-2011
p47
sS'journal'
p48
VPLANT PHYSIOLOGY
p49
sS'volume'
p50
V131
p51
sS'doi'
p52
V10.1104/pp.102.014654
p53
sS'authorAddress'
p54
(lp55
VHiroshima Univ, Fac Integrated Arts & Sci, Higashihiroshima 7398521, Japan.
p56
aVUniv Calif Davis, Dept Vegetable Crops, Davis, CA 95616 USA.
p57
asS'publisherAddress'
p58
V15501 MONONA DRIVE, ROCKVILLE, MD 20855 USA
p59
sS'ER'
p60
V
sS'publisher'
p61
VAMER SOC PLANT BIOLOGISTS
p62
sS'authorKeywords'
p63
(lp64
VTOBACCO TISSUE-CULTURES
p65
aVPLANT EMBRYOGENESIS
p66
aVDEHYDRODICONIFERYL ALCOHOL
p67
aVANIONIC PEROXIDASE
p68
aVHYDROGEN-PEROXIDE
p69
aVCROSS-LINKING
p70
aVGROWTH
p71
aVACID
p72
aVDIVISION
p73
aVPROTEINS
p74
asS'OI'
p75
(lp76
VNakagawa, Naoki/0000-0002-7125-9680; Kotake,
p77
aVToshihisa/0000-0002-1110-5006
p78
asS'language'
p79
VEnglish
p80
sS'wosid'
p81
VWOS:000185076400026
p82
sS'citationCount'
p83
I33
sS'authors_init'
p84
(lp85
(VTAKEDA
VH
tp86
a(VKOTAKE
VT
tp87
a(VNAKAGAWA
VN
tp88
a(VSAKURAI
VN
tp89
a(VNEVINS
VD J
tp90
asS'citedReferences'
p91
(lp92
g1
(g2
g3
NtRp93
(dp94
g52
V10.1104/pp.121.1.135
p95
sg48
VPLANT PHYSIOL
p96
sg50
V121
p97
sg84
(lp98
(VBERNARDS
VM A
tp99
asg17
I1999
sg44
VLANT
p100
sbag1
(g2
g3
NtRp101
(dp102
g52
V10.1073/pnas.84.4.980
p103
sg48
VP NATL ACAD SCI USA
p104
sg50
V84
p105
sg84
(lp106
(VBINNS
VA N
tp107
asg17
I1987
sg44
V980
p108
sbag1
(g2
g3
NtRp109
(dp110
g52
V10.1007/s004250050058
p111
sg48
VPLANTA
p112
sg50
V210
p113
sg84
(lp114
(VBROWNLEADER
VM D
tp115
asg17
I2000
sg44
VLANTA
p116
sbag1
(g2
g3
NtRp117
(dp118
g52
V10.1104/pp.120.3.799
p119
sg48
VPLANT PHYSIOL
p120
sg50
V120
p121
sg84
(lp122
(VCARPIN
VS
tp123
asg17
I1999
sg44
VLANT
p124
sbag1
(g2
g3
NtRp125
(dp126
g52
Nsg48
VPLANTA
p127
sg50
V184
p128
sg84
(lp129
(VCORDEWENER
VJ
tp130
asg17
I1991
sg44
VLANTA
p131
sbag1
(g2
g3
NtRp132
(dp133
g52
Nsg48
VPLANT PHYSIOL
p134
sg50
V110
p135
sg84
(lp136
(VDEMARCO
VA
tp137
asg17
I1996
sg44
VLANT
p138
sbag1
(g2
g3
NtRp139
(dp140
g52
Nsg48
VBIOCHEM J
p141
sg50
V204
p142
sg84
(lp143
(VFRY
VS C
tp144
asg17
I1982
sg44
V449
p145
sbag1
(g2
g3
NtRp146
(dp147
g52
V10.1146/annurev.pp.37.060186.001121
p148
sg48
VANNU REV PLANT PHYS
p149
sg50
V37
p150
sg84
(lp151
(VFRY
VS C
tp152
asg17
I1986
sg44
V165
p153
sbag1
(g2
g3
NtRp154
(dp155
g52
Nsg48
VBIOCHEM J
p156
sg50
V203
p157
sg84
(lp158
(VFRY
VS C
tp159
asg17
I1982
sg44
V493
p160
sbag1
(g2
g3
NtRp161
(dp162
g52
V10.1126/science.266.5185.605
p163
sg48
VSCIENCE
p164
sg50
V266
p165
sg84
(lp166
(VGOLDBERG
VR B
tp167
asg17
I1994
sg44
V605
p168
sbag1
(g2
g3
NtRp169
(dp170
g52
V10.1002/jsfa.2740650109
p171
sg48
VJ SCI FOOD AGR
p172
sg50
V65
p173
sg84
(lp174
(VHATFIELD
VR D
tp175
asg17
I1994
sg44
V51
p176
sbag1
(g2
g3
NtRp177
(dp178
g52
Nsg48
VBIOSCI BIOTECH BIOCH
p179
sg50
V58
p180
sg84
(lp181
(VHIRAI
VN
tp182
asg17
I1994
sg44
V1679
p183
sbag1
(g2
g3
NtRp184
(dp185
g52
V10.1104/pp.96.2.426
p186
sg48
VPLANT PHYSIOL
p187
sg50
V96
p188
sg84
(lp189
(VINOUHE
VM
tp190
asg17
I1991
sg44
VLANT
p191
sbag1
(g2
g3
NtRp192
(dp193
g52
Nsg48
VJ JPN SOC HORTIC SCI
p194
sg50
V63
p195
sg84
(lp196
(VKOHMURA
VH
tp197
asg17
I1994
sg44
V51
p198
sbag1
(g2
g3
NtRp199
(dp200
g52
Nsg48
VPLANTA
p201
sg50
V189
p202
sg84
(lp203
(VKREUGER
VM
tp204
asg17
I1993
sg44
VLANTA
p205
sbag1
(g2
g3
NtRp206
(dp207
g52
V10.1038/227680a0
p208
sg48
VNATURE
p209
sg50
V227
p210
sg84
(lp211
(VLAEMMLI
VU K
tp212
asg17
I1970
sg44
V680
p213
sbag1
(g2
g3
NtRp214
(dp215
g52
V10.1146/annurev.arplant.48.1.251
p216
sg48
VANNU REV PLANT PHYS
p217
sg50
V48
p218
sg84
(lp219
(VLAMB
VC
tp220
asg17
I1997
sg44
V251
p221
sbag1
(g2
g3
NtRp222
(dp223
g52
V10.1126/science.2983426
p224
sg48
VSCIENCE
p225
sg50
V227
p226
sg84
(lp227
(VLIPMAN
VD J
tp228
asg17
I1985
sg44
V1435
p229
sbag1
(g2
g3
NtRp230
(dp231
g52
V10.1146/annurev.arplant.46.1.369
p232
sg48
VANNU REV PLANT PHYS
p233
sg50
V46
p234
sg84
(lp235
(VMEINKE
VD W
tp236
asg17
I1995
sg44
V369
p237
sbag1
(g2
g3
NtRp238
(dp239
g52
V10.1016/S0168-9452(96)04521-9
p240
sg48
VPLANT SCI
p241
sg50
V122
p242
sg84
(lp243
(VMELO
VN S
tp244
asg17
I1997
sg44
VLANT
p245
sbag1
(g2
g3
NtRp246
(dp247
g52
Nsg48
VPLANT CELL PHYSIOL
p248
sg50
V40
p249
sg84
(lp250
(VMORITA
VS
tp251
asg17
I1999
sg44
VLANT
p252
sbag1
(g2
g3
NtRp253
(dp254
g52
V10.1002/jsfa.2740230405
p255
sg48
VJ SCI FOOD AGR
p256
sg50
V23
p257
sg84
(lp258
(VMORRISON
VI M
tp259
asg17
I1972
sg44
V455
p260
sbag1
(g2
g3
NtRp261
(dp262
g52
V10.1111/j.1399-3054.1962.tb08052.x
p263
sg48
VPHYSIOL PLANTARUM
p264
sg50
V15
p265
sg84
(lp266
(VMURASHIGE
VT
tp267
asg17
I1962
sg44
VHYSIOL
p268
sbag1
(g2
g3
NtRp269
(dp270
g52
V10.1104/pp.98.1.343
p271
sg48
VPLANT PHYSIOL
p272
sg50
V98
p273
sg84
(lp274
(VORR
VJ D
tp275
asg17
I1992
sg44
VLANT
p276
sbag1
(g2
g3
NtRp277
(dp278
g52
V10.1021/bi00012a021
p279
sg48
VBIOCHEMISTRY
p280
sg50
V34
p281
sg84
(lp282
(VRASMUSSEN
VC B
tp283
asg17
I1995
sg44
V4022
p284
sbag1
(g2
g3
NtRp285
(dp286
g52
Nsg48
VPLANT CELL
p287
sg50
V5
sg84
(lp288
(VSHOWALTER
VA M
tp289
asg17
I1993
sg44
VLANT
p290
sbag1
(g2
g3
NtRp291
(dp292
g52
V10.2307/2439507
p293
sg48
VAM J BOT
p294
sg50
V45
p295
sg84
(lp296
(VSTEWARD
VF C
tp297
asg17
I1958
sg44
V693
p298
sbag1
(g2
g3
NtRp299
(dp300
g52
V10.1034/j.1399-3054.1995.930110.x
p301
sg48
VPHYSIOL PLANTARUM
p302
sg50
V93
p303
sg84
(lp304
(VTAKAHAMA
VU
tp305
asg17
I1995
sg44
VHYSIOL
p306
sbag1
(g2
g3
NtRp307
(dp308
g52
V10.1104/pp.97.1.288
p309
sg48
VPLANT PHYSIOL
p310
sg50
V97
p311
sg84
(lp312
(VTEUTONICO
VR A
tp313
asg17
I1991
sg44
VLANT
p314
sbag1
(g2
g3
NtRp315
(dp316
g52
Nsg48
VPLANT CELL
p317
sg50
V5
sg84
(lp318
(VTHOMAS
VT L
tp319
asg17
I1993
sg44
VLANT
p320
sbag1
(g2
g3
NtRp321
(dp322
g52
V10.1016/S0378-1119(02)00465-1
p323
sg48
VGENE
p324
sg50
V288
p325
sg84
(lp326
(VTOGNOLLI
VM
tp327
asg17
I2002
sg44
V129
p328
sbag1
(g2
g3
NtRp329
(dp330
g52
V10.1146/annurev.arplant.49.1.585
p331
sg48
VANNU REV PLANT PHYS
p332
sg50
V49
p333
sg84
(lp334
(VWHETTEN
VR W
tp335
asg17
I1998
sg44
V585
p336
sbag1
(g2
g3
NtRp337
(dp338
g52
V10.2307/3869792
p339
sg48
VPLANT CELL
p340
sg50
V5
sg84
(lp341
(VZIMMERMAN
VJ L
tp342
asg17
I1993
sg44
VLANT
p343
sbasb.