ccopy_reg
_reconstructor
p1
(ctethne.classes.paper
Paper
p2
c__builtin__
object
p3
NtRp4
(dp5
S'publisherCity'
p6
VROCKVILLE
p7
sS'reprintAddress'
p8
VVerbruggen, N (reprint author), Univ Libre Bruxelles, Lab Physiol & Genet Mol Plantes, B-1050 Brussels, Belgium.
p9
sS'WC'
p10
VPlant Sciences
p11
sS'GA'
p12
V176HH
p13
sS'abstract'
p14
VCadmium (Cd) tolerance seems to be a constitutive species-level trait in Arabidopsis halleri sp. halleri. Therefore, an interspecific cross was made between A. halleri and its closest nontolerant interfertile relative, Arabidopsis lyrata sp. petraea, and a first-generation backcross population (BC1) was used to map quantitative trait loci (QTL) for Cd tolerance. Three QTL were identified, which explained 43%, 24%, and 16% of the phenotypic variation in the mapping population. Heavy metal transporting ATPases4 (HMA4), encoding a predicted heavy metal ATPase, colocalized with the peak of the major QTL Cdtol-1 and was consequently further studied. HMA4 transcripts levels were higher in the roots and the shoots of A. halleri than in A. lyrata sp. petraea. Furthermore, HMA4 was also more highly expressed in all BC1 genotypes harboring the HMA4 A. halleri allele at the QTL Cdtol-1, independently of the presence of an A. halleri allele at the two other QTL. Overexpression of AhHMA4 in yeast (Saccharomyces cerevisiae) supported a role of HMA4 in zinc (Zn) and Cd transport by reducing the Cd and Zn contents of the yeast cells. In epidermal tobacco (Nicotiana tabacum) cells, AhHMA4:green fluorescent protein was clearly localized in the plasma membrane. Taken together, all available data point to the elevated expression of HMA4P(1B)-type ATPase as an efficient mechanism for improving Cd/ Zn tolerance in plants under conditions of Cd/ Zn excess by maintaining low cellular Cd(2+) and Zn(2+) concentrations in the cytoplasm.
p15
sS'pageEnd'
p16
I1065
sS'date'
p17
I2007
sS'documentType'
p18
VArticle
p19
sS'subject'
p20
VPlant Sciences
p21
sS'isoSource'
p22
VPlant Physiol.
p23
sS'timesCited'
p24
(lp25
I91
aVZ9 98
p26
asS'PT'
p27
VJ
sS'title'
p28
VA Major Quantitative Trait Locus For Cadmium Tolerance In Arabidopsis Halleri Colocalizes With Hma4, A Gene Encoding A Heavy Metal Atpase
p29
sS'ISSN'
p30
(lp31
V0032-0889
p32
aVJ9 PLANT PHYSIOL
p33
asS'authors_full'
p34
(lp35
(VCOURBOT
VMIKAEL
tp36
a(VWILLEMS
VGLENDA
tp37
a(VMOTTE
VPATRICK
tp38
a(VARVIDSSON
VSAMUEL
tp39
a(VROOSENS
VNANCY
tp40
a(VSAUMITOULAPRADE
VPIERRE
tp41
a(VVERBRUGGEN
VNATHALIE
tp42
asS'PG'
p43
I14
sS'PD'
p44
VJUN
p45
sS'pageStart'
p46
I1052
sS'issue'
p47
I2
sS'RI'
p48
VSaumitou-Laprade, Pierre/A-2499-2009
p49
sS'journal'
p50
VPLANT PHYSIOLOGY
p51
sS'volume'
p52
V144
p53
sS'doi'
p54
V10.1104/pp.106.095133
p55
sS'emailAddress'
p56
Vnverbru@ulb.ac.be
p57
sS'authorAddress'
p58
(lp59
VUniv Libre Bruxelles, Lab Physiol & Genet Mol Plantes, B-1050 Brussels, Belgium.
p60
aVUniv Lille 1, Lab Genet & Evolut Populat Vegetales, UMR 8016, CNRS,FR 1818,Ctr Natl Rech Sci, F-59655 Villeneuve Dascq, France.
p61
aVUniv Liege, Lab Plant Cell & Mol Biol, B-4000 Cointe Ougree, Belgium.
p62
aVUniv Liege, Ctr Assistance Technol Microscopy, B-4000 Cointe Ougree, Belgium.
p63
asS'publisherAddress'
p64
V15501 MONONA DRIVE, ROCKVILLE, MD 20855 USA
p65
sS'ER'
p66
V
sS'publisher'
p67
VAMER SOC PLANT BIOLOGISTS
p68
sS'authorKeywords'
p69
(lp70
VHYPERACCUMULATOR THLASPI-CAERULESCENS
p71
aVZINC TOLERANCE
p72
aVP-1B-TYPE ATPASE
p73
aVLINKAGE MAPS
p74
aVION PUMPS
p75
aVHOMEOSTASIS
p76
aVEXPRESSION
p77
aVATHMA4
p78
aVTRANSPORTER
p79
aVTHALIANA
p80
asS'language'
p81
VEnglish
p82
sS'wosid'
p83
VWOS:000247075000046
p84
sS'citationCount'
p85
I48
sS'authors_init'
p86
(lp87
(VCOURBOT
VM
tp88
a(VWILLEMS
VG
tp89
a(VMOTTE
VP
tp90
a(VARVIDSSON
VS
tp91
a(VROOSENS
VN
tp92
a(VSAUMITOULAPRADE
VP
tp93
a(VVERBRUGGEN
VN
tp94
asS'citedReferences'
p95
(lp96
g1
(g2
g3
NtRp97
(dp98
g54
V10.1104/pp.126.2.696
p99
sg50
VPLANT PHYSIOL
p100
sg52
V126
p101
sg86
(lp102
(VAXELSEN
VK B
tp103
asg17
I2001
sg46
VLANT
p104
sbag1
(g2
g3
NtRp105
(dp106
g54
V10.1104/pp.103.021923
p107
sg50
VPLANT PHYSIOL
p108
sg52
V132
p109
sg86
(lp110
(VBAXTER
VI
tp111
asg17
I2003
sg46
VLANT
p112
sbag1
(g2
g3
NtRp113
(dp114
g54
Nsg50
VCROP SCI
p115
sg52
V34
p116
sg86
(lp117
(VBEAVIS
VW D
tp118
asg17
I1994
sg46
V882
p119
sbag1
(g2
g3
NtRp120
(dp121
g54
V10.1046/j.1365-313X.2003.01959.x
p122
sg50
VPLANT J
p123
sg52
V37
p124
sg86
(lp125
(VBECHER
VM
tp126
asg17
I2004
sg46
VLANT
p127
sbag1
(g2
g3
NtRp128
(dp129
g54
V10.1016/j.febslet.2004.05.036
p130
sg50
VFEBS LETT
p131
sg52
V569
p132
sg86
(lp133
(VBERNARD
VC
tp134
asg17
I2004
sg46
V140
p135
sbag1
(g2
g3
NtRp136
(dp137
g54
V10.1046/j.1469-8137.2002.00432.x
p138
sg50
VNEW PHYTOL
p139
sg52
V155
p140
sg86
(lp141
(VBERT
VV
tp142
asg17
I2002
sg46
V47
p143
sbag1
(g2
g3
NtRp144
(dp145
g54
V10.1023/A:1022580325301
p146
sg50
VPLANT SOIL
p147
sg52
V249
p148
sg86
(lp149
(VBERT
VV
tp150
asg17
I2003
sg46
VLANT
p151
sbag1
(g2
g3
NtRp152
(dp153
g54
V10.1105/tpc.017541
p154
sg50
VPLANT CELL
p155
sg52
V15
p156
sg86
(lp157
(VBLAUDEZ
VD
tp158
asg17
I2003
sg46
VLANT
p159
sbag1
(g2
g3
NtRp160
(dp161
g54
Nsg50
VGENETICS
p162
sg52
V149
p163
sg86
(lp164
(VBRADSHAW
VH D
tp165
asg17
I1998
sg46
V367
p166
sbag1
(g2
g3
NtRp167
(dp168
g54
V10.1074/jbc.M201031200
p169
sg50
VJ BIOL CHEM
p170
sg52
V277
p171
sg86
(lp172
(VCLEMENS
VS
tp173
asg17
I2002
sg46
V18215
p174
sbag1
(g2
g3
NtRp175
(dp176
g54
V10.1016/j.biochi.2006.07.003
p177
sg50
VBIOCHIMIE
p178
sg52
V88
p179
sg86
(lp180
(VCLEMENS
VS
tp181
asg17
I2006
sg46
V1707
p182
sbag1
(g2
g3
NtRp183
(dp184
g54
V10.1093/jxb/erl062
p185
sg50
VJ EXP BOT
p186
sg52
V57
p187
sg86
(lp188
(VCRACIUN
VA R
tp189
asg17
I2006
sg46
V2967
p190
sbag1
(g2
g3
NtRp191
(dp192
g54
V10.1007/s00122-006-0350-y
p193
sg50
VTHEOR APPL GENET
p194
sg52
V113
p195
sg86
(lp196
(VDENIAU
VA X
tp197
asg17
I2006
sg46
V907
p198
sbag1
(g2
g3
NtRp199
(dp200
g54
V10.1111/j.1365-313X.2004.02143.x
p201
sg50
VPLANT J
p202
sg52
V39
p203
sg86
(lp204
(VDRAGER
VD B
tp205
asg17
I2004
sg46
VLANT
p206
sbag1
(g2
g3
NtRp207
(dp208
g54
V10.1104/pp.104.046292
p209
sg50
VPLANT PHYSIOL
p210
sg52
V136
p211
sg86
(lp212
(VEREN
VE
tp213
asg17
I2004
sg46
VLANT
p214
sbag1
(g2
g3
NtRp215
(dp216
g54
V10.1111/j.1365-294X.2006.02981.x
p217
sg50
VMOL ECOL
p218
sg52
V15
p219
sg86
(lp220
(VFILATOV
VV
tp221
asg17
I2006
sg46
V3045
p222
sbag1
(g2
g3
NtRp223
(dp224
g54
Nsg50
VMETHOD ENZYMOL
p225
sg52
V350
p226
sg86
(lp227
(VGIETZ
VR D
tp228
asg17
I2002
sg46
V87
p229
sbag1
(g2
g3
NtRp230
(dp231
g54
V10.1105/tpc.020487
p232
sg50
VPLANT CELL
p233
sg52
V16
p234
sg86
(lp235
(VHUSSAIN
VD
tp236
asg17
I2004
sg46
VLANT
p237
sbag1
(g2
g3
NtRp238
(dp239
g54
V10.1016/j.copbio.2005.02.006
p240
sg50
VCURR OPIN BIOTECH
p241
sg52
V16
p242
sg86
(lp243
(VKRAMER
VU
tp244
asg17
I2005
sg46
V133
p245
sbag1
(g2
g3
NtRp246
(dp247
g54
V10.1534/genetics.103.022343
p248
sg50
VGENETICS
p249
sg52
V168
p250
sg86
(lp251
(VKUITTINEN
VH
tp252
asg17
I2004
sg46
V1575
p253
sbag1
(g2
g3
NtRp254
(dp255
g54
Nsg50
VNATURE
p256
sg52
V227
p257
sg86
(lp258
(VLAEMMLI
VU K
tp259
asg17
I1970
sg46
V681
p260
sbag1
(g2
g3
NtRp261
(dp262
g54
V10.1016/0169-5347(87)90135-2
p263
sg50
VTRENDS ECOL EVOL
p264
sg52
V2
sg86
(lp265
(VMACNAIR
VM R
tp266
asg17
I1987
sg46
V354
p267
sbag1
(g2
g3
NtRp268
(dp269
g54
V10.1098/rspb.1999.0905
p270
sg50
VP ROY SOC B
p271
sg52
V266
p272
sg86
(lp273
(VMACNAIR
VM R
tp274
asg17
I1999
sg46
V2175
p275
sbag1
(g2
g3
NtRp276
(dp277
g54
V10.1016/j.febslet.2004.12.040
p278
sg50
VFEBS LETT
p279
sg52
V579
p280
sg86
(lp281
(VMILLS
VR F
tp282
asg17
I2005
sg46
V783
p283
sbag1
(g2
g3
NtRp284
(dp285
g54
V10.1046/j.1365-313X.2003.01790.x
p286
sg50
VPLANT J
p287
sg52
V35
p288
sg86
(lp289
(VMILLS
VR F
tp290
asg17
I2003
sg46
VLANT
p291
sbag1
(g2
g3
NtRp292
(dp293
g54
V10.1006/geno.1995.1264
p294
sg50
VGENOMICS
p295
sg52
V30
p296
sg86
(lp297
(VOETTING
VW S
tp298
asg17
I1995
sg46
V450
p299
sbag1
(g2
g3
NtRp300
(dp301
g54
Nsg50
VGENETICS
p302
sg52
V149
p303
sg86
(lp304
(VORR
VH A
tp305
asg17
I1998
sg46
V2099
p306
sbag1
(g2
g3
NtRp307
(dp308
g54
V10.1104/pp.104.044503
p309
sg50
VPLANT PHYSIOL
p310
sg52
V136
p311
sg86
(lp312
(VPAPOYAN
VA
tp313
asg17
I2004
sg46
VLANT
p314
sbag1
(g2
g3
NtRp315
(dp316
g54
V10.1111/j.1420-9101.2006.01178.x
p317
sg50
VJ EVOLUTION BIOL
p318
sg52
V19
p319
sg86
(lp320
(VPAUWELS
VM
tp321
asg17
I2006
sg46
V1838
p322
sbag1
(g2
g3
NtRp323
(dp324
g54
V10.1073/pnas.97.9.4956
p325
sg50
VP NATL ACAD SCI USA
p326
sg52
V97
p327
sg86
(lp328
(VPENCE
VN S
tp329
asg17
I2000
sg46
V4956
p330
sbag1
(g2
g3
NtRp331
(dp332
g54
V10.1080/0735-260291044359
p333
sg50
VCRIT REV PLANT SCI
p334
sg52
V21
p335
sg86
(lp336
(VPOLLARD
VA J
tp337
asg17
I2002
sg46
V539
p338
sbag1
(g2
g3
NtRp339
(dp340
g54
Nsg50
VJ BACTERIOL
p341
sg52
V181
p342
sg86
(lp343
(VRENSING
VC
tp344
asg17
I1999
sg46
V5891
p345
sbag1
(g2
g3
NtRp346
(dp347
g54
Nsg50
VMOL CLONING LAB MANU
p348
sg52
Nsg86
(lp349
(VSAMBROOK
VJ
tp350
asg17
I2001
sg46
Nsbag1
(g2
g3
NtRp351
(dp352
g54
Nsg50
VSAS ONL V8
p353
sg52
Nsg86
(lp354
(VSAS
S''
tp355
asg17
I1999
sg46
Nsbag1
(g2
g3
NtRp356
(dp357
g54
V10.1038/hdy.1993.23
p358
sg50
VHEREDITY
p359
sg52
V70
p360
sg86
(lp361
(VSCHAT
VH
tp362
asg17
I1993
sg46
V142
p363
sbag1
(g2
g3
NtRp364
(dp365
g54
V10.1104/pp.105.076232
p366
sg50
VPLANT PHYSIOL
p367
sg52
V142
p368
sg86
(lp369
(VTALKE
VI N
tp370
asg17
I2006
sg46
VLANT
p371
sbag1
(g2
g3
NtRp372
(dp373
g54
V10.1093/nar/22.22.4673
p374
sg50
VNUCLEIC ACIDS RES
p375
sg52
V22
p376
sg86
(lp377
(VTHOMPSON
VJ D
tp378
asg17
I1994
sg46
V4673
p379
sbag1
(g2
g3
NtRp380
(dp381
g54
V10.1111/j.1365-313X.2004.02321.x
p382
sg50
VPLANT J
p383
sg52
V41
p384
sg86
(lp385
(VTILLEMANS
VV
tp386
asg17
I2005
sg46
VLANT
p387
sbag1
(g2
g3
NtRp388
(dp389
g54
Nsg50
VJOINMAP 3 0 SOFTWARE
p390
sg52
Nsg86
(lp391
(VVAN
VOOIJEN J
tp392
asg17
I2001
sg46
Nsbag1
(g2
g3
NtRp393
(dp394
g54
Nsg50
VMAPQTL 4 0 SOFTWARE
p395
sg52
Nsg86
(lp396
(VVAN
VOOIJEN J W
tp397
asg17
I2002
sg46
Nsbag1
(g2
g3
NtRp398
(dp399
g54
V10.1104/pp.106.082073
p400
sg50
VPLANT PHYSIOL
p401
sg52
V142
p402
sg86
(lp403
(VVAN
VD E MORTEL J E
tp404
asg17
I2006
sg46
VLANT
p405
sbag1
(g2
g3
NtRp406
(dp407
g54
V10.1111/j.1365-294X.2004.02314.x
p408
sg50
VMOL ECOL
p409
sg52
V13
p410
sg86
(lp411
(VVAN
VROSSUM F
tp412
asg17
I2004
sg46
V2959
p413
sbag1
(g2
g3
NtRp414
(dp415
g54
V10.1016/j.febslet.2005.01.065
p416
sg50
VFEBS LETT
p417
sg52
V579
p418
sg86
(lp419
(VVERRET
VF
tp420
asg17
I2005
sg46
V1515
p421
sbag1
(g2
g3
NtRp422
(dp423
g54
V10.1016/j.febslet.2004.09.023
p424
sg50
VFEBS LETT
p425
sg52
V576
p426
sg86
(lp427
(VVERRET
VF
tp428
asg17
I2004
sg46
V306
p429
sbag1
(g2
g3
NtRp430
(dp431
g54
V10.1083/jcb.128.5.779
p432
sg50
VJ CELL BIOL
p433
sg52
V128
p434
sg86
(lp435
(VVIDA
VT A
tp436
asg17
I1995
sg46
V779
p437
sbag1
(g2
g3
NtRp438
(dp439
g54
V10.1093/jhered/93.1.77
p440
sg50
VJ HERED
p441
sg52
V93
p442
sg86
(lp443
(VVOORRIPS
VR E
tp444
asg17
I2002
sg46
V77
p445
sbag1
(g2
g3
NtRp446
(dp447
g54
V10.1046/j.1365-313X.2003.01960.x
p448
sg50
VPLANT J
p449
sg52
V37
p450
sg86
(lp451
(VWEBER
VM
tp452
asg17
I2004
sg46
VLANT
p453
sbag1
(g2
g3
NtRp454
(dp455
g54
Nsg50
VGENETICS
p456
sg52
Nsg86
(lp457
(VWILLEMS
VG
tp458
asg17
I2007
sg46
Nsbasb.