ccopy_reg
_reconstructor
p1
(ctethne.classes.paper
Paper
p2
c__builtin__
object
p3
NtRp4
(dp5
S'publisherCity'
p6
VROCKVILLE
p7
sS'reprintAddress'
p8
VFawcett, T (reprint author), Univ Durham, Dept Biol Sci, South Rd, Durham DH1 3LE, England.
p9
sS'WC'
p10
VPlant Sciences
p11
sS'GA'
p12
V554XG
p13
sS'abstract'
p14
VIn plants, fatty acid and complex lipid synthesis requires the correct spatial and temporal activity of many gene products. Quantitative northern analysis showed that mRNA for the biotin carboxylase subunit of heteromeric acetyl-coenzyme A carboxylase, fatty acid synthase components (3-oxoacyl-acvl carrier protein [ACP] reductase, enoyl-ACP reductase, and acyl-ACP thioesferase), and stearoyl-ACP desaturase accumulate in a coordinate manner during Brassica napus embryogenesis The mRNAs were present in a constant molar stoichiometric ratio. Transcript abundance of mRNAs for the catalytic proteins was found to be similar, whereas the number of ACP transcripts was approximately 7-fold higher. The peak of mRNA accumulation of all products was between 20 and 29 d after flowering; by 42 d after flowering, the steady-state levels of all transcripts fell to about 5% of their peak levels, which suggests that the mRNAs have similar stability and kinetics of synthesis. Biotin carboxylase was found to accumulate to a maximum of 59 fmol mg(-1) total RNA in embryos, which is in general agreement with the value of 170 fmol mg(-1) determined for Arabidopsis siliques (J.S. Ke, T.N. Wen, B.J. Nikolau, E.S. Wurtele [2000] Plant Physiol 122: 1057-1071). Embryos accumulated between 3- and 15-fold more transcripts per unit total RNA than young leaf tissue; the lower quantity of leaf 3-oxoacyl-ACP reductase mRNA was confirmed by reverse transcriptase-polymerase chain reaction. This is in conflict with analysis of B. napus transcripts using an Arabidopsis microarray (T. Girke, J. Todd, S. Ruuska, J. White, C. Benning, J. Ohlrogge [2000] Plant Physiol 124: 1570-1581) where similar leaf to seed levels of fatty acid synthase component mRNAs were reported.
p15
sS'pageEnd'
p16
I320
sS'publisherAddress'
p17
V15501 MONONA DRIVE, ROCKVILLE, MD 20855 USA
p18
sS'documentType'
p19
VArticle
p20
sS'subject'
p21
VPlant Sciences
p22
sS'isoSource'
p23
VPlant Physiol.
p24
sS'timesCited'
p25
(lp26
I36
aVZ9 38
p27
asS'PT'
p28
VJ
sS'title'
p29
VFatty Acid And Lipid Biosynthetic Genes Are Expressed At Constant Molar Ratios But Different Absolute Levels During Embryogenesis
p30
sS'ISSN'
p31
(lp32
V0032-0889
p33
aVJ9 PLANT PHYSIOL
p34
asS'authors_full'
p35
(lp36
(VOHARA
VP
tp37
a(VSLABAS
VAR
tp38
a(VFAWCETT
VT
tp39
asS'PG'
p40
I11
sS'PD'
p41
VMAY
p42
sS'pageStart'
p43
I310
sS'issue'
p44
I1
sS'journal'
p45
VPLANT PHYSIOLOGY
p46
sS'volume'
p47
V129
p48
sS'doi'
p49
V10.1104/pp.010956
p50
sS'authorAddress'
p51
VUniv Durham, Dept Biol Sci, Durham DH1 3LE, England.
p52
sS'date'
p53
I2002
sS'ER'
p54
V
sS'publisher'
p55
VAMER SOC PLANT BIOLOGISTS
p56
sS'authorKeywords'
p57
(lp58
VACYL-CARRIER PROTEIN
p59
aVACETYL-COA CARBOXYLASE
p60
aVBRASSICA-NAPUS
p61
aVARABIDOPSIS
p62
aVREDUCTASE
p63
aVSEEDS
p64
aVPLANT
p65
aVSYNTHETASE
p66
aVSEQUENCE
p67
aVISOFORMS
p68
asS'language'
p69
VEnglish
p70
sS'wosid'
p71
VWOS:000175762000032
p72
sS'citationCount'
p73
I27
sS'authors_init'
p74
(lp75
(VOHARA
VP
tp76
a(VSLABAS
VA R
tp77
a(VFAWCETT
VT
tp78
asS'citedReferences'
p79
(lp80
g1
(g2
g3
NtRp81
(dp82
g49
Nsg45
VGENOME RES
p83
sg47
V7
sg74
(lp84
(VAUDIC
VS
tp85
asg53
I1997
sg43
V986
p86
sbag1
(g2
g3
NtRp87
(dp88
g49
V10.1007/BF00019505
p89
sg45
VPLANT MOL BIOL
p90
sg47
V26
p91
sg74
(lp92
(VBAERSON
VS R
tp93
asg53
I1994
sg43
VLANT
p94
sbag1
(g2
g3
NtRp95
(dp96
g49
Nsg45
VEUR J BIOCHEM
p97
sg47
V123
p98
sg74
(lp99
(VCAUGHEY
VI
tp100
asg53
I1982
sg43
V553
p101
sbag1
(g2
g3
NtRp102
(dp103
g49
V10.1016/S0981-9428(98)80172-1
p104
sg45
VPLANT PHYSIOL BIOCH
p105
sg47
V36
p106
sg74
(lp107
(VDE
VBOER G J
tp108
asg53
I1998
sg43
VLANT
p109
sbag1
(g2
g3
NtRp110
(dp111
g49
V10.1023/A:1006129924683
p112
sg45
VPLANT MOL BIOL
p113
sg47
V39
p114
sg74
(lp115
(VDE
VBOER G J
tp116
asg53
I1999
sg43
VLANT
p117
sbag1
(g2
g3
NtRp118
(dp119
g49
Nsg45
VPLANT MOL BIOL
p120
sg47
V14
p121
sg74
(lp122
(VDESILVA
VJ
tp123
asg53
I1990
sg43
VLANT
p124
sbag1
(g2
g3
NtRp125
(dp126
g49
Nsg45
VBIOCHEM J
p127
sg47
V301
p128
sg74
(lp129
(VELBOROUGH
VK M
tp130
asg53
I1994
sg43
V599
p131
sbag1
(g2
g3
NtRp132
(dp133
g49
V10.1007/BF00039528
p134
sg45
VPLANT MOL BIOL
p135
sg47
V26
p136
sg74
(lp137
(VFAWCETT
VT
tp138
asg53
I1994
sg43
VLANT
p139
sbag1
(g2
g3
NtRp140
(dp141
g49
V10.1104/pp.124.4.1570
p142
sg45
VPLANT PHYSIOL
p143
sg47
V124
p144
sg74
(lp145
(VGIRKE
VT
tp146
asg53
I2000
sg43
VLANT
p147
sbag1
(g2
g3
NtRp148
(dp149
g49
V10.1104/pp.98.1.206
p150
sg45
VPLANT PHYSIOL
p151
sg47
V98
p152
sg74
(lp153
(VHLOUSEKRADOJCIC
VA
tp154
asg53
I1992
sg43
VLANT
p155
sbag1
(g2
g3
NtRp156
(dp157
g49
V10.1007/BF02914031
p158
sg45
VCARLSBERG RES COMMUN
p159
sg47
V47
p160
sg74
(lp161
(VHOJ
VP B
tp162
asg53
I1982
sg43
V119
p163
sbag1
(g2
g3
NtRp164
(dp165
g49
V10.1104/pp.122.4.1057
p166
sg45
VPLANT PHYSIOL
p167
sg47
V122
p168
sg74
(lp169
(VKE
VJ S
tp170
asg53
I2000
sg43
VLANT
p171
sbag1
(g2
g3
NtRp172
(dp173
g49
V10.1016/0003-2697(84)90808-X
p174
sg45
VANAL BIOCHEM
p175
sg47
V138
p176
sg74
(lp177
(VMEINKOTH
VJ
tp178
asg53
I1984
sg43
V267
p179
sbag1
(g2
g3
NtRp180
(dp181
g49
V10.1104/pp.122.2.389
p182
sg45
VPLANT PHYSIOL
p183
sg47
V122
p184
sg74
(lp185
(VMEKHEDOV
VS
tp186
asg53
I2000
sg43
VLANT
p187
sbag1
(g2
g3
NtRp188
(dp189
g49
Nsg45
VJ PLANT PHYSIOL
p190
sg47
V135
p191
sg74
(lp192
(VMURPHY
VD J
tp193
asg53
I1989
sg43
V63
p194
sbag1
(g2
g3
NtRp195
(dp196
g49
V10.1016/S0014-5793(00)02406-6
p197
sg45
VFEBS LETT
p198
sg47
V488
p199
sg74
(lp200
(VO'HARA
VP
tp201
asg53
I2001
sg43
V18
p202
sbag1
(g2
g3
NtRp203
(dp204
g49
V10.1016/S1369-5266(00)00068-6
p205
sg45
VCURR OPIN PLANT BIOL
p206
sg47
V3
sg74
(lp207
(VOHLROGGE
VJ
tp208
asg53
I2000
sg43
V224
p209
sbag1
(g2
g3
NtRp210
(dp211
g49
V10.1111/j.1432-1033.1988.tb14096.x
p212
sg45
VEUR J BIOCHEM
p213
sg47
V174
p214
sg74
(lp215
(VSAFFORD
VR
tp216
asg53
I1988
sg43
V287
p217
sbag1
(g2
g3
NtRp218
(dp219
g49
Nsg45
VMOL CLONING LAB MANU
p220
sg47
Nsg74
(lp221
(VSAMBROOK
VJ
tp222
asg53
I1989
sg43
Nsbag1
(g2
g3
NtRp223
(dp224
g49
Nsg45
VPLANT PHYSIOL
p225
sg47
V108
p226
sg74
(lp227
(VSASAKI
VY
tp228
asg53
I1995
sg43
VLANT
p229
sbag1
(g2
g3
NtRp230
(dp231
g49
Nsg45
VJ BIOL CHEM
p232
sg47
V268
p233
sg74
(lp234
(VSASAKI
VY
tp235
asg53
I1993
sg43
V25118
p236
sbag1
(g2
g3
NtRp237
(dp238
g49
V10.1046/j.1365-313X.1999.00478.x
p239
sg45
VPLANT J
p240
sg47
V18
p241
sg74
(lp242
(VSAVAGE
VL J
tp243
asg53
I1999
sg43
VLANT
p244
sbag1
(g2
g3
NtRp245
(dp246
g49
V10.1016/0003-9861(82)90488-X
p247
sg45
VARCH BIOCHEM BIOPHYS
p248
sg47
V217
p249
sg74
(lp250
(VSHIMAKATA
VT
tp251
asg53
I1982
sg43
V144
p252
sbag1
(g2
g3
NtRp253
(dp254
g49
V10.1104/pp.104.4.1167
p255
sg45
VPLANT PHYSIOL
p256
sg47
V104
p257
sg74
(lp258
(VSLOCOMBE
VS P
tp259
asg53
I1994
sg43
VLANT
p260
sbag1
(g2
g3
NtRp261
(dp262
g49
V10.1007/BF00029157
p263
sg45
VPLANT MOL BIOL
p264
sg47
V20
p265
sg74
(lp266
(VSLOCOMBE
VS P
tp267
asg53
I1992
sg43
VLANT
p268
sbag1
(g2
g3
NtRp269
(dp270
g49
V10.1104/pp.125.4.2016
p271
sg45
VPLANT PHYSIOL
p272
sg47
V125
p273
sg74
(lp274
(VTHELEN
VJ J
tp275
asg53
I2001
sg43
VLANT
p276
sbag1
(g2
g3
NtRp277
(dp278
g49
V10.1104/pp.124.4.1582
p279
sg45
VPLANT PHYSIOL
p280
sg47
V124
p281
sg74
(lp282
(VWHITE
VJ A
tp283
asg53
I2000
sg43
VLANT
p284
sbasb.