ccopy_reg
_reconstructor
p1
(ctethne.classes.paper
Paper
p2
c__builtin__
object
p3
NtRp4
(dp5
S'publisherCity'
p6
VROCKVILLE
p7
sS'reprintAddress'
p8
VPark, YI (reprint author), Chungnam Natl Univ, Dept Biol, Taejon 305764, South Korea.
p9
sS'WC'
p10
VPlant Sciences
p11
sS'GA'
p12
V228FK
p13
sS'abstract'
p14
VThe coordinated expression of the genes involved in respiration in the photosynthetic cyanobacterium Synechocystis sp. PCC 6803 during the early period of glucose (Glc) treatment is poorly understood. When photoautotrophically grown cells were supplemented with 10 mM Glc in the light or after a dark adaptation period of 14 h, significant increases in the respiratory activity, as determined by NAD(P) H turnover, respiratory O-2 uptake rate, and cytosolic alkalization, were observed. At the same time, the transcript levels of 18 genes coding for enzymes associated with respiration increased with differential induction kinetics; these genes were classified into three groups based on their half-rising times. Transcript levels of the four genes gpi, zwf, pdhB, and atpB started to increase along with a net increase in NAD(P) H, while the onset of net NAD(P) H consumption coincided with an increase in those of the genes tktA, ppc, pdhD, icd, ndhD2, ndbA, ctaD1, cydA, and atpE. In contrast, the expression of the atpI/G/D/A/C genes coding for ATP synthase subunits was the slowest among respiratory genes and their expression started to accumulate only after the establishment of cytosolic alkalization. These differential effects of Glc on the transcript levels of respiratory genes were not observed by inactivation of the genes encoding the Glc transporter or glucokinase. In addition, several Glc analogs could not mimic the effects of Glc. Our findings suggest that genes encoding some enzymes involved in central carbon metabolism and oxidative phosphorylation are coordinately regulated at the transcriptional level during the switch of nutritional mode.
p15
sS'pageEnd'
p16
I1030
sS'date'
p17
I2007
sS'documentType'
p18
VArticle
p19
sS'subject'
p20
VPlant Sciences
p21
sS'isoSource'
p22
VPlant Physiol.
p23
sS'timesCited'
p24
(lp25
I9
aVZ9 9
p26
asS'PT'
p27
VJ
sS'title'
p28
VTranscriptional Regulation Of The Respiratory Genes In The Cyanobacterium Synechocystis Sp Pcc 6803 During The Early Response To Glucose Feeding
p29
sS'ISSN'
p30
(lp31
V0032-0889
p32
aVJ9 PLANT PHYSIOL
p33
asS'authors_full'
p34
(lp35
(VLEE
VSANGHYEOB
tp36
a(VRYU
VJEEYOUN
tp37
a(VKIM
VSOO YOUN
tp38
a(VJEON
VJAEHEUNG
tp39
a(VSONG
VJI YOUNG
tp40
a(VCHO
VHYUNGTAEG
tp41
a(VCHOI
VSANGBONG
tp42
a(VCHOI
VDOIL
tp43
a(VDE MARSAC
VNICOLE TANDEAU
tp44
a(VPARK
VYOUNIL
tp45
asS'PG'
p46
I13
sS'PD'
p47
VNOV
p48
sS'pageStart'
p49
I1018
sS'issue'
p50
I3
sS'RI'
p51
VChoi, Doil/F-5002-2011
p52
sS'journal'
p53
VPLANT PHYSIOLOGY
p54
sS'volume'
p55
V145
p56
sS'doi'
p57
V10.1104/pp.107.105023
p58
sS'emailAddress'
p59
Vyipark@cnu.ac.kr
p60
sS'authorAddress'
p61
(lp62
VChungnam Natl Univ, Dept Biol, Taejon 305764, South Korea.
p63
aVKorea Res Inst Biosci & Biotechnol, Lab Plant Genom, Taejon 305806, South Korea.
p64
aVMyongji Univ, Dept Biol Sci, Yongin 449728, Kyunggi Do, South Korea.
p65
aVSeoul Natl Univ, Dept Plant Sci, Seoul 151742, South Korea.
p66
aVCNRS, URA 2172, Unite Cyanobacteries, Inst Pasteur, F-75724 Paris 15, France.
p67
asS'publisherAddress'
p68
V15501 MONONA DRIVE, ROCKVILLE, MD 20855 USA
p69
sS'ER'
p70
V
sS'publisher'
p71
VAMER SOC PLANT BIOLOGISTS
p72
sS'authorKeywords'
p73
(lp74
VSP STRAIN PCC-6803
p75
aVCYTOCHROME-C-OXIDASE
p76
aVPCC 6803
p77
aVHISTIDINE KINASE
p78
aVESCHERICHIA-COLI
p79
aVEXPRESSION
p80
aVPHOTOSYNTHESIS
p81
aVDEHYDROGENASE
p82
aVMETABOLISM
p83
aVPATHWAYS
p84
asS'language'
p85
VEnglish
p86
sS'wosid'
p87
VWOS:000250712800038
p88
sS'citationCount'
p89
I46
sS'authors_init'
p90
(lp91
(VLEE
VS
tp92
a(VRYU
VJ Y
tp93
a(VKIM
VS Y
tp94
a(VJEON
VJ H
tp95
a(VSONG
VJ Y
tp96
a(VCHO
VH T
tp97
a(VCHOI
VS B
tp98
a(VCHOI
VD
tp99
a(VDE MARSAC
VN T
tp100
a(VPARK
VY I
tp101
asS'citedReferences'
p102
(lp103
g1
(g2
g3
NtRp104
(dp105
g57
V10.1104/pp.122.2.505
p106
sg53
VPLANT PHYSIOL
p107
sg55
V122
p108
sg90
(lp109
(VALFONSO
VM
tp110
asg17
I2000
sg49
VLANT
p111
sbag1
(g2
g3
NtRp112
(dp113
g57
V10.1080/152165499307215
p114
sg53
VIUBMB LIFE
p115
sg55
V48
p116
sg90
(lp117
(VALGE
VD
tp118
asg17
I1999
sg49
V187
p119
sbag1
(g2
g3
NtRp120
(dp121
g57
V10.1016/S1096-7176(03)00009-0
p122
sg53
VMETAB ENG
p123
sg55
V5
sg90
(lp124
(VBLENCKE
VH M
tp125
asg17
I2003
sg49
V133
p126
sbag1
(g2
g3
NtRp127
(dp128
g57
V10.1093/emboj/cdg453
p129
sg53
VEMBO J
p130
sg55
V22
p131
sg90
(lp132
(VBREKASIS
VD
tp133
asg17
I2003
sg49
V4856
p134
sbag1
(g2
g3
NtRp135
(dp136
g57
Nsg53
VJ BACTERIOL
p137
sg55
V172
p138
sg90
(lp139
(VBROEDEL
VS E
tp140
asg17
I1990
sg49
V4023
p141
sbag1
(g2
g3
NtRp142
(dp143
g57
V10.1128/JB.183.14.4251-4258.2001
p144
sg53
VJ BACTERIOL
p145
sg55
V183
p146
sg90
(lp147
(VCOOLEY
VJ W
tp148
asg17
I2001
sg49
V4251
p149
sbag1
(g2
g3
NtRp150
(dp151
g57
V10.1128/JB.182.3.714-722.2000
p152
sg53
VJ BACTERIOL
p153
sg55
V182
p154
sg90
(lp155
(VCOOLEY
VJ W
tp156
asg17
I2000
sg49
V714
p157
sbag1
(g2
g3
NtRp158
(dp159
g57
V10.1128/JB.184.13.3671-3681.2002
p160
sg53
VJ BACTERIOL
p161
sg55
V184
p162
sg90
(lp163
(VGILL
VR T
tp164
asg17
I2002
sg49
V3671
p165
sbag1
(g2
g3
NtRp166
(dp167
g57
V10.1021/bi981486n
p168
sg53
VBIOCHEMISTRY
p169
sg55
V37
p170
sg90
(lp171
(VHOWITT
VC A
tp172
asg17
I1998
sg49
V17944
p173
sbag1
(g2
g3
NtRp174
(dp175
g57
Nsg53
VJ BACTERIOL
p176
sg55
V181
p177
sg90
(lp178
(VHOWITT
VC A
tp179
asg17
I1999
sg49
V3994
p180
sbag1
(g2
g3
NtRp181
(dp182
g57
V10.1016/S0092-8674(00)80832-6
p183
sg53
VCELL
p184
sg55
V101
p185
sg90
(lp186
(VIWASAKI
VH
tp187
asg17
I2000
sg49
V223
p188
sbag1
(g2
g3
NtRp189
(dp190
g57
V10.1016/S0014-5793(99)00229-X
p191
sg53
VFEBS LETT
p192
sg55
V447
p193
sg90
(lp194
(VKADENBACH
VB
tp195
asg17
I1999
sg49
V131
p196
sbag1
(g2
g3
NtRp197
(dp198
g57
V10.1099/mic.0.28510-0
p199
sg53
VMICROBIOL
p200
sg55
V152
p201
sg90
(lp202
(VKAHLON
VS
tp203
asg17
I2006
sg49
V647
p204
sbag1
(g2
g3
NtRp205
(dp206
g57
V10.1074/jbc.M008878200
p207
sg53
VJ BIOL CHEM
p208
sg55
V276
p209
sg90
(lp210
(VKNOWLES
VV L
tp211
asg17
I2001
sg49
V20966
p212
sbag1
(g2
g3
NtRp213
(dp214
g57
V10.1093/pcp/pcg086
p215
sg53
VPLANT CELL PHYSIOL
p216
sg55
V44
p217
sg90
(lp218
(VKNOWLES
VV L
tp219
asg17
I2003
sg49
VLANT
p220
sbag1
(g2
g3
NtRp221
(dp222
g57
V10.1023/A:1005925732743
p223
sg53
VPLANT MOL BIOL
p224
sg55
V36
p225
sg90
(lp226
(VKOKSHAROVA
VO
tp227
asg17
I1998
sg49
VLANT
p228
sbag1
(g2
g3
NtRp229
(dp230
g57
V10.1128/JB.187.6.2190-2199.2005
p231
sg53
VJ BACTERIOL
p232
sg55
V187
p233
sg90
(lp234
(VKUCHO
VK
tp235
asg17
I2005
sg49
V2190
p236
sbag1
(g2
g3
NtRp237
(dp238
g57
V10.1104/pp.124.2.703
p239
sg53
VPLANT PHYSIOL
p240
sg55
V124
p241
sg90
(lp242
(VKUJAT
VS L
tp243
asg17
I2000
sg49
VLANT
p244
sbag1
(g2
g3
NtRp245
(dp246
g57
V10.1002/pmic.200500413
p247
sg53
VPROTEOMICS
p248
sg55
V6
sg90
(lp249
(VKURIAN
VD
tp250
asg17
I2006
sg49
VROTEOMICS
p251
sbag1
(g2
g3
NtRp252
(dp253
g57
Nsg53
VMOL CELLS
p254
sg55
V19
p255
sg90
(lp256
(VLEE
VJ M
tp257
asg17
I2005
sg49
V256
p258
sbag1
(g2
g3
NtRp259
(dp260
g57
V10.1128/JB.182.15.4268-4277.2000
p261
sg53
VJ BACTERIOL
p262
sg55
V182
p263
sg90
(lp264
(VLI
VH
tp265
asg17
I2000
sg49
V4268
p266
sbag1
(g2
g3
NtRp267
(dp268
g57
V10.1007/BF00037050
p269
sg53
VPLANT MOL BIOL
p270
sg55
V17
p271
sg90
(lp272
(VLILL
VH
tp273
asg17
I1991
sg49
VLANT
p274
sbag1
(g2
g3
NtRp275
(dp276
g57
V10.1007/BF00245230
p277
sg53
VARCH MICROBIOL
p278
sg55
V154
p279
sg90
(lp280
(VLUINENBURG
VI
tp281
asg17
I1990
sg49
V471
p282
sbag1
(g2
g3
NtRp283
(dp284
g57
Nsg53
VPLANT CELL PHYSIOL
p285
sg55
V33
p286
sg90
(lp287
(VMI
VH L
tp288
asg17
I1992
sg49
VLANT
p289
sbag1
(g2
g3
NtRp290
(dp291
g57
V10.1104/pp.66.6.1144
p292
sg53
VPLANT PHYSIOL
p293
sg55
V66
p294
sg90
(lp295
(VMYERS
VJ
tp296
asg17
I1980
sg49
VLANT
p297
sbag1
(g2
g3
NtRp298
(dp299
g57
V10.1093/pcp/pcg044
p300
sg53
VPLANT CELL PHYSIOL
p301
sg55
V44
p302
sg90
(lp303
(VNAKAHARA
VK
tp304
asg17
I2003
sg49
VLANT
p305
sbag1
(g2
g3
NtRp306
(dp307
g57
V10.1039/b616219n
p308
sg53
VPHOTOCH PHOTOBIO SCI
p309
sg55
V6
sg90
(lp310
(VOSANAI
VT
tp311
asg17
I2007
sg49
VHOTOCH
p312
sbag1
(g2
g3
NtRp313
(dp314
g57
V10.1074/jbc.M505043200
p315
sg53
VJ BIOL CHEM
p316
sg55
V280
p317
sg90
(lp318
(VOSANAI
VT
tp319
asg17
I2005
sg49
V30653
p320
sbag1
(g2
g3
NtRp321
(dp322
g57
Nsg53
VJ BACTERIOL
p323
sg55
V128
p324
sg90
(lp325
(VPELROY
VR A
tp326
asg17
I1976
sg49
V633
p327
sbag1
(g2
g3
NtRp328
(dp329
g57
V10.1080/07352680600563876
p330
sg53
VCRIT REV PLANT SCI
p331
sg55
V25
p332
sg90
(lp333
(VPLAXTON
VW C
tp334
asg17
I2006
sg49
V159
p335
sbag1
(g2
g3
NtRp336
(dp337
g57
Nsg53
VPLANT CELL
p338
sg55
V14
p339
sg90
(lp340
(VROLLAND
VF
tp341
asg17
I2002
sg49
VLANT
p342
sbag1
(g2
g3
NtRp343
(dp344
g57
Nsg53
VMOL CELLS
p345
sg55
V16
p346
sg90
(lp347
(VRYU
VJ Y
tp348
asg17
I2003
sg49
V74
p349
sbag1
(g2
g3
NtRp350
(dp351
g57
V10.1074/jbc.M402541200
p352
sg53
VJ BIOL CHEM
p353
sg55
V279
p354
sg90
(lp355
(VRYU
VJ Y
tp356
asg17
I2004
sg49
V25320
p357
sbag1
(g2
g3
NtRp358
(dp359
g57
V10.1104/pp.105.074765
p360
sg53
VPLANT PHYSIOL
p361
sg55
V141
p362
sg90
(lp363
(VSAKURAGI
VY
tp364
asg17
I2006
sg49
VLANT
p365
sbag1
(g2
g3
NtRp366
(dp367
g57
Nsg53
VJ BACTERIOL
p368
sg55
V177
p369
sg90
(lp370
(VSCANLAN
VD J
tp371
asg17
I1995
sg49
V2550
p372
sbag1
(g2
g3
NtRp373
(dp374
g57
Nsg53
VMOL BIOL CYANOBACTER
p375
sg55
Nsg90
(lp376
(VSCHMETTERER
VG R
tp377
asg17
I1994
sg49
V409
p378
sbag1
(g2
g3
NtRp379
(dp380
g57
V10.1128/JB.187.7.2368-2376.2005
p381
sg53
VJ BACTERIOL
p382
sg55
V187
p383
sg90
(lp384
(VSINGH
VA K
tp385
asg17
I2005
sg49
V2368
p386
sbag1
(g2
g3
NtRp387
(dp388
g57
V10.1111/j.1574-6976.1997.tb00350.x
p389
sg53
VFEMS MICROBIOL REV
p390
sg55
V21
p391
sg90
(lp392
(VSTAL
VL J
tp393
asg17
I1997
sg49
V179
p394
sbag1
(g2
g3
NtRp395
(dp396
g57
V10.1104/pp.104059097
p397
sg53
VPLANT PHYSIOL
p398
sg55
V138
p399
sg90
(lp400
(VSUZUKI
VI
tp401
asg17
I2005
sg49
VLANT
p402
sbag1
(g2
g3
NtRp403
(dp404
g57
V10.1016/j.bbrc.2007.02.065
p405
sg53
VBIOCHEM BIOPH RES CO
p406
sg55
V355
p407
sg90
(lp408
(VTABEI
VY
tp409
asg17
I2007
sg49
V1045
p410
sbag1
(g2
g3
NtRp411
(dp412
g57
V10.1016/S0005-2728(01)00178-5
p413
sg53
VBBA
p414
sg55
V1506
p415
sg90
(lp416
(VTEUBER
VM
tp417
asg17
I2001
sg49
V31
p418
sbag1
(g2
g3
NtRp419
(dp420
g57
V10.1128/JB.186.12.3889-3902.2004
p421
sg53
VJ BACTERIOL
p422
sg55
V186
p423
sg90
(lp424
(VTU
VC J
tp425
asg17
I2004
sg49
V3889
p426
sbag1
(g2
g3
NtRp427
(dp428
g57
Nsg53
VNATL CANCER I MONOGR
p429
sg55
V6
sg90
(lp430
(VVARNES
VM E
tp431
asg17
I1988
sg49
V199
p432
sbag1
(g2
g3
NtRp433
(dp434
g57
V10.1128/AEM.72.5.3653-3661.2006
p435
sg53
VAPPL ENVIRON MICROB
p436
sg55
V72
p437
sg90
(lp438
(VVEMURI
VG N
tp439
asg17
I2006
sg49
V3653
p440
sbag1
(g2
g3
NtRp441
(dp442
g57
V10.1074/jbc.M203977200
p443
sg53
VJ BIOL CHEM
p444
sg55
V277
p445
sg90
(lp446
(VWOODMANSEE
VA N
tp447
asg17
I2002
sg49
V34055
p448
sbag1
(g2
g3
NtRp449
(dp450
g57
V10.1007/s00253-002-0949-0
p451
sg53
VAPPL MICROBIOL BIOT
p452
sg55
V58
p453
sg90
(lp454
(VYANG
VC
tp455
asg17
I2002
sg49
V813
p456
sbasb.