ccopy_reg
_reconstructor
p1
(ctethne.classes.paper
Paper
p2
c__builtin__
object
p3
NtRp4
(dp5
S'publisherCity'
p6
VROCKVILLE
p7
sS'reprintAddress'
p8
VRuelland, E (reprint author), Univ Paris 06, CNRS, Format Rech Evolut 2846, Lab Physiol Cellulaire & Mol Plantes, F-94200 Ivry, France.
p9
sS'WC'
p10
VPlant Sciences
p11
sS'GA'
p12
V983OB
p13
sS'abstract'
p14
VIn plants, a temperature downshift represents a major stress that will lead to the induction or repression of many genes. Therefore, the cold signal has to be perceived and transmitted to the nucleus. In response to a cold exposure, we have shown that the phospholipase D (PLD) and the phospholipase C (PLC)/diacylglycerol kinase pathways are simultaneously activated. The role of these pathways in the cold response has been investigated by analyzing the transcriptome of cold-treated Arabidopsis (Arabidopsis thaliana) suspension cells in the presence of U73122 or ethanol, inhibitors of the PLC/diacylglycerol kinase pathway and of the phosphatidic acid produced by PLD, respectively. This approach showed that the expression of many genes was modified by the cold response in the presence of such agents. The cold responses of most of the genes were repressed, thus correlating with the inhibitory effect of U73122 or ethanol. We were thus able to identify 58 genes that were regulated by temperature downshift via PLC activity and 87 genes regulated by temperature downshift via PLD-produced phosphatidic acid. Interestingly, each inhibitor appeared to affect different cold response genes. These results support the idea that both the PLC and PLD pathways are upstream of two different signaling pathways that lead to the activation of the cold response. The connection of these pathways with the CBF pathway, currently the most understood genetic system playing a role in cold acclimation, is discussed.
p15
sS'pageEnd'
p16
I1233
sS'date'
p17
I2005
sS'documentType'
p18
VArticle
p19
sS'subject'
p20
VPlant Sciences
p21
sS'isoSource'
p22
VPlant Physiol.
p23
sS'timesCited'
p24
(lp25
I57
aVZ9 62
p26
asS'PT'
p27
VJ
sS'title'
p28
VThe Cold-Induced Early Activation Of Phospholipase C And D Pathways Determines The Response Of Two Distinct Clusters Of Genes In Arabidopsis Cell Suspensions
p29
sS'ISSN'
p30
(lp31
V0032-0889
p32
aVJ9 PLANT PHYSIOL
p33
asS'authors_full'
p34
(lp35
(VVERGNOLLE
VC
tp36
a(VVAULTIER
VMN
tp37
a(VTACONNAT
VL
tp38
a(VRENOU
VJP
tp39
a(VKADER
VJC
tp40
a(VZACHOWSKI
VA
tp41
a(VRUELLAND
VE
tp42
asS'PG'
p43
I17
sS'PD'
p44
VNOV
p45
sS'pageStart'
p46
I1217
sS'issue'
p47
I3
sS'RI'
p48
VRuelland, Eric/D-4863-2012
p49
sS'journal'
p50
VPLANT PHYSIOLOGY
p51
sS'volume'
p52
V139
p53
sS'doi'
p54
V10.1104/pp.105.068171
p55
sS'emailAddress'
p56
Veric.ruelland@snv.jussieu.fr
p57
sS'authorAddress'
p58
(lp59
VUniv Paris 06, CNRS, Format Rech Evolut 2846, Lab Physiol Cellulaire & Mol Plantes, F-94200 Ivry, France.
p60
aVCNRS, UMR 1165, INSERM, Unite Rech Genom Vegetale, F-91057 Evry, France.
p61
asS'publisherAddress'
p62
V15501 MONONA DRIVE, ROCKVILLE, MD 20855 USA
p63
sS'ER'
p64
V
sS'publisher'
p65
VAMER SOC PLANT BIOLOGISTS
p66
sS'authorKeywords'
p67
(lp68
VLENGTH CDNA MICROARRAY
p69
aVFREEZING TOLERANCE
p70
aVLOW-TEMPERATURE
p71
aVPHOSPHATIDIC-ACID
p72
aVTRANSCRIPTION FACTOR
p73
aVSEQUENCE TAGS
p74
aVEXPRESSION
p75
aVSTRESS
p76
aVTHALIANA
p77
aVDROUGHT
p78
asS'language'
p79
VEnglish
p80
sS'wosid'
p81
VWOS:000233240900011
p82
sS'citationCount'
p83
I43
sS'authors_init'
p84
(lp85
(VVERGNOLLE
VC
tp86
a(VVAULTIER
VM N
tp87
a(VTACONNAT
VL
tp88
a(VRENOU
VJ P
tp89
a(VKADER
VJ C
tp90
a(VZACHOWSKI
VA
tp91
a(VRUELLAND
VE
tp92
asS'citedReferences'
p93
(lp94
g1
(g2
g3
NtRp95
(dp96
g54
V10.1038/sj.emboj.7600068
p97
sg50
VEMBO J
p98
sg52
V23
p99
sg84
(lp100
(VANTHONY
VR G
tp101
asg17
I2004
sg46
V572
p102
sbag1
(g2
g3
NtRp103
(dp104
g54
V10.1007/BF00029852
p105
sg50
VPLANT MOL BIOL
p106
sg52
V24
p107
sg84
(lp108
(VBAKER
VS S
tp109
asg17
I1994
sg46
VLANT
p110
sbag1
(g2
g3
NtRp111
(dp112
g54
V10.1105/tpc.010410
p113
sg50
VPLANT CELL
p114
sg52
V14
p115
sg84
(lp116
(VCHEN
VW Q
tp117
asg17
I2002
sg46
VLANT
p118
sbag1
(g2
g3
NtRp119
(dp120
g54
V10.1101/gad.1077503
p121
sg50
VGENE DEV
p122
sg52
V17
p123
sg84
(lp124
(VCHINNUSAMY
VV
tp125
asg17
I2003
sg46
V1043
p126
sbag1
(g2
g3
NtRp127
(dp128
g54
V10.1073/pnas.0406069101
p129
sg50
VP NATL ACAD SCI USA
p130
sg52
V101
p131
sg84
(lp132
(VCOOK
VD
tp133
asg17
I2004
sg46
V15243
p134
sbag1
(g2
g3
NtRp135
(dp136
g54
Nsg50
VNUCLEIC ACIDS RES
p137
sg52
V31
p138
sg84
(lp139
(VCROWE
VM L L
tp140
asg17
I2003
sg46
V56
p141
sbag1
(g2
g3
NtRp142
(dp143
g54
V10.1186/1471-2164-3-2
p144
sg50
VBMC GENOMICS
p145
sg52
V3
sg84
(lp146
(VELIAS
VM
tp147
asg17
I2002
sg46
Nsbag1
(g2
g3
NtRp148
(dp149
g54
V10.1105/tpc.003483
p150
sg50
VPLANT CELL
p151
sg52
V14
p152
sg84
(lp153
(VFOWLER
VS
tp154
asg17
I2002
sg46
VLANT
p155
sbag1
(g2
g3
NtRp156
(dp157
g54
V10.1046/j.1365-313x.1998.00310.x
p158
sg50
VPLANT J
p159
sg52
V16
p160
sg84
(lp161
(VGILMOUR
VS J
tp162
asg17
I1998
sg46
VLANT
p163
sbag1
(g2
g3
NtRp164
(dp165
g54
V10.1074/jbc.M312187200
p166
sg50
VJ BIOL CHEM
p167
sg52
V279
p168
sg84
(lp169
(VGOMEZ-MERINO
VF C
tp170
asg17
I2004
sg46
V8230
p171
sbag1
(g2
g3
NtRp172
(dp173
g54
Nsg50
VPLANTA
p174
sg52
V21
p175
sg84
(lp176
(VHARVAUX
VM
tp177
asg17
I2001
sg46
VLANTA
p178
sbag1
(g2
g3
NtRp179
(dp180
g54
V10.1093/pcp/pcf021
p181
sg50
VPLANT CELL PHYSIOL
p182
sg52
V43
p183
sg84
(lp184
(VHE
VL X
tp185
asg17
I2002
sg46
VLANT
p186
sbag1
(g2
g3
NtRp187
(dp188
g54
V10.1101/gr.2544504
p189
sg50
VGENOME RES
p190
sg52
V14
p191
sg84
(lp192
(VHILSON
VP
tp193
asg17
I2004
sg46
V2176
p194
sbag1
(g2
g3
NtRp195
(dp196
g54
V10.1104/pp.104.052142
p197
sg50
VPLANT PHYSIOL
p198
sg52
V136
p199
sg84
(lp200
(VKAPLAN
VF
tp201
asg17
I2004
sg46
VLANT
p202
sbag1
(g2
g3
NtRp203
(dp204
g54
V10.1038/7036
p205
sg50
VNAT BIOTECHNOL
p206
sg52
V17
p207
sg84
(lp208
(VKASUGA
VM
tp209
asg17
I1999
sg46
V287
p210
sbag1
(g2
g3
NtRp211
(dp212
g54
V10.1016/0014-5793(89)81782-X
p213
sg50
VFEBS LETT
p214
sg52
V257
p215
sg84
(lp216
(VKISS
VZ
tp217
asg17
I1989
sg46
V45
p218
sbag1
(g2
g3
NtRp219
(dp220
g54
V10.1111/j.1365-3040.2004.01242.x
p221
sg50
VPLANT CELL ENVIRON
p222
sg52
V27
p223
sg84
(lp224
(VKLOTKE
VJ
tp225
asg17
I2004
sg46
VLANT
p226
sbag1
(g2
g3
NtRp227
(dp228
g54
V10.1104/pp.008532
p229
sg50
VPLANT PHYSIOL
p230
sg52
V130
p231
sg84
(lp232
(VKREPS
VJ A
tp233
asg17
I2002
sg46
VLANT
p234
sbag1
(g2
g3
NtRp235
(dp236
g54
V10.1038/nbt949
p237
sg50
VNAT BIOTECHNOL
p238
sg52
V22
p239
sg84
(lp240
(VLI
VW Q
tp241
asg17
I2004
sg46
V427
p242
sbag1
(g2
g3
NtRp243
(dp244
g54
Nsg50
VPLANT CELL
p245
sg52
V101
p246
sg84
(lp247
(VLIU
VX
tp248
asg17
I1998
sg46
VLANT
p249
sbag1
(g2
g3
NtRp250
(dp251
g54
V10.1105/tpc.104.022236
p252
sg50
VPLANT CELL
p253
sg52
V16
p254
sg84
(lp255
(VLURIN
VC
tp256
asg17
I2004
sg46
VLANT
p257
sbag1
(g2
g3
NtRp258
(dp259
g54
V10.1111/j.1365-313X.2004.02100.x
p260
sg50
VPLANT J
p261
sg52
V38
p262
sg84
(lp263
(VMARUYAMA
VK
tp264
asg17
I2004
sg46
VLANT
p265
sbag1
(g2
g3
NtRp266
(dp267
g54
V10.1104/pp.004770
p268
sg50
VPLANT PHYSIOL
p269
sg52
V130
p270
sg84
(lp271
(VMUELLER-ROEBER
VB
tp272
asg17
I2002
sg46
VLANT
p273
sbag1
(g2
g3
NtRp274
(dp275
g54
V10.1105/tpc.7.12.2197
p276
sg50
VPLANT CELL
p277
sg52
V7
sg84
(lp278
(VMUNNIK
VT
tp279
asg17
I1995
sg46
VLANT
p280
sbag1
(g2
g3
NtRp281
(dp282
g54
V10.1186/1471-2105-4-26
p283
sg50
VBMC BIOINFORMATICS
p284
sg52
V4
sg84
(lp285
(VPENG
VX J
tp286
asg17
I2003
sg46
Nsbag1
(g2
g3
NtRp287
(dp288
g54
V10.1023/B:PLAN.0000040903.66496.a4
p289
sg50
VPLANT MOL BIOL
p290
sg52
V54
p291
sg84
(lp292
(VPUHAKAINEN
VT
tp293
asg17
I2004
sg46
VLANT
p294
sbag1
(g2
g3
NtRp295
(dp296
g54
V10.1104/pp.010928
p297
sg50
VPLANT PHYSIOL
p298
sg52
V128
p299
sg84
(lp300
(VQIN
VC B
tp301
asg17
I2002
sg46
VLANT
p302
sbag1
(g2
g3
NtRp303
(dp304
g54
V10.1016/S1360-1385(97)01018-2
p305
sg50
VTRENDS PLANT SCI
p306
sg52
V2
sg84
(lp307
(VRICEEVANS
VC A
tp308
asg17
I1997
sg46
V152
p309
sbag1
(g2
g3
NtRp310
(dp311
g54
V10.1104/pp.006080
p312
sg50
VPLANT PHYSIOL
p313
sg52
V130
p314
sg84
(lp315
(VRUELLAND
VE
tp316
asg17
I2002
sg46
VLANT
p317
sbag1
(g2
g3
NtRp318
(dp319
g54
V10.1093/nar/gkh068
p320
sg50
VNUCLEIC ACIDS RES
p321
sg52
V32
p322
sg84
(lp323
(VSCHOOF
VH
tp324
asg17
I2004
sg46
VD373
p325
sbag1
(g2
g3
NtRp326
(dp327
g54
V10.1046/j.1365-313X.2002.01359.x
p328
sg50
VPLANT J
p329
sg52
V31
p330
sg84
(lp331
(VSEKI
VM
tp332
asg17
I2002
sg46
VLANT
p333
sbag1
(g2
g3
NtRp334
(dp335
g54
V10.1105/tpc.13.1.61
p336
sg50
VPLANT CELL
p337
sg52
V13
p338
sg84
(lp339
(VSEKI
VM
tp340
asg17
I2001
sg46
VLANT
p341
sbag1
(g2
g3
NtRp342
(dp343
g54
V10.1073/pnas.95.24.14570
p344
sg50
VP NATL ACAD SCI USA
p345
sg52
V95
p346
sg84
(lp347
(VSTEPONKUS
VP L
tp348
asg17
I1998
sg46
V14570
p349
sbag1
(g2
g3
NtRp350
(dp351
g54
V10.1111/j.1365-313X.2004.02152.x
p352
sg50
VPLANT J
p353
sg52
V39
p354
sg84
(lp355
(VTESTERINK
VC
tp356
asg17
I2004
sg46
VLANT
p357
sbag1
(g2
g3
NtRp358
(dp359
g54
V10.1016/j.tplants.2005.06.002
p360
sg50
VTRENDS PLANT SCI
p361
sg52
V10
p362
sg84
(lp363
(VTESTERINK
VC
tp364
asg17
I2005
sg46
V368
p365
sbag1
(g2
g3
NtRp366
(dp367
g54
V10.1093/bioinformatics/btg286
p368
sg50
VBIOINFORMATICS
p369
sg52
V19
p370
sg84
(lp371
(VTHAREAU
VV
tp372
asg17
I2003
sg46
V2191
p373
sbag1
(g2
g3
NtRp374
(dp375
g54
V10.1104/pp.102.013227
p376
sg50
VPLANT PHYSIOL
p377
sg52
V131
p378
sg84
(lp379
(VUEMURA
VM
tp380
asg17
I2003
sg46
VLANT
p381
sbag1
(g2
g3
NtRp382
(dp383
g54
V10.1093/nar/17.6.2362
p384
sg50
VNUCLEIC ACIDS RES
p385
sg52
V17
p386
sg84
(lp387
(VVERWOERD
VT C
tp388
asg17
I1989
sg46
V2362
p389
sbag1
(g2
g3
NtRp390
(dp391
g54
Nsg50
VPLANT J
p392
sg52
V41
p393
sg84
(lp394
(VVOGEL
VJ T
tp395
asg17
I2004
sg46
VLANT
p396
sbag1
(g2
g3
NtRp397
(dp398
g54
V10.1074/jbc.M205375200
p399
sg50
VJ BIOL CHEM
p400
sg52
V277
p401
sg84
(lp402
(VWELTI
VR
tp403
asg17
I2002
sg46
V31994
p404
sbag1
(g2
g3
NtRp405
(dp406
g54
V10.1105/tpc.6.2.251
p407
sg50
VPLANT CELL
p408
sg52
V6
sg84
(lp409
(VYAMAGUCHISHINOZAKI
VK
tp410
asg17
I1994
sg46
VLANT
p411
sbag1
(g2
g3
NtRp412
(dp413
g54
V10.1104/pp.103.027169
p414
sg50
VPLANT PHYSIOL
p415
sg52
V133
p416
sg84
(lp417
(VZARKA
VD G
tp418
asg17
I2003
sg46
VLANT
p419
sbag1
(g2
g3
NtRp420
(dp421
g54
V10.1073/pnas.0402112101
p422
sg50
VP NATL ACAD SCI USA
p423
sg52
V101
p424
sg84
(lp425
(VZHANG
VW H
tp426
asg17
I2004
sg46
V9508
p427
sbasb.