ccopy_reg
_reconstructor
p1
(ctethne.classes.paper
Paper
p2
c__builtin__
object
p3
NtRp4
(dp5
S'publisherCity'
p6
VROCKVILLE
p7
sS'reprintAddress'
p8
VJamieson, MA (reprint author), Univ Wisconsin, Dept Entomol, Madison, WI 53706 USA.
p9
sS'WC'
p10
VPlant Sciences
p11
sS'GA'
p12
V049QJ
p13
sS'FX'
p14
(lp15
VThis work was supported by the U.S. Department of Agriculture
p16
aVAgriculture and Food Research Initiative Foundational Grants Program
p17
aV(award no. 2011-67013-30147 to R.L.L., K.F.R., and Peter B. Reich).
p18
aVR.L.L. and K.F.R. acknowledge support from the National Science
p19
aVFoundation and the U.S. Department of Energy, which contributed to the
p20
aVbody of literature reviewed here.
p21
asS'pageEnd'
p22
I1727
sS'date'
p23
I2012
sS'documentType'
p24
VArticle
p25
sS'subject'
p26
VPlant Sciences
p27
sS'isoSource'
p28
VPlant Physiol.
p29
sS'timesCited'
p30
(lp31
I4
aVZ9 5
p32
asS'funding'
p33
(lp34
(VU.S. Department of Agriculture Agriculture and Food Research Initiative Foundational Grants Program
V2011-67013-30147
tp35
a(VNational Science Foundation
Ntp36
a(VU.S. Department of Energy
Ntp37
asS'PT'
p38
VJ
sS'title'
p39
VConsequences Of Climate Warming And Altered Precipitation Patterns For Plant-Insect And Multitrophic Interactions
p40
sS'ISSN'
p41
(lp42
V0032-0889
p43
aVJ9 PLANT PHYSIOL
p44
asS'authors_full'
p45
(lp46
(VJAMIESON
VMARY A
tp47
a(VTROWBRIDGE
VAMY M
tp48
a(VRAFFA
VKENNETH F
tp49
a(VLINDROTH
VRICHARD L
tp50
asS'PG'
p51
I9
sS'PD'
p52
VDEC
p53
sS'pageStart'
p54
I1719
sS'issue'
p55
I4
sS'journal'
p56
VPLANT PHYSIOLOGY
p57
sS'volume'
p58
V160
p59
sS'doi'
p60
V10.1104/pp.112.206524
p61
sS'emailAddress'
p62
Vmaryajamieson@gmail.com
p63
sS'authorAddress'
p64
(lp65
V[Jamieson, Mary A.; Raffa, Kenneth F.; Lindroth, Richard L.] Univ Wisconsin, Dept Entomol, Madison, WI 53706 USA.
p66
aV[Trowbridge, Amy M.] Yellowstone Ecol Res Ctr, Bozeman, MT 59718 USA.
p67
asS'publisherAddress'
p68
V15501 MONONA DRIVE, ROCKVILLE, MD 20855 USA
p69
sS'ER'
p70
V
sS'publisher'
p71
VAMER SOC PLANT BIOLOGISTS
p72
sS'authorKeywords'
p73
(lp74
VMOUNTAIN PINE-BEETLE
p75
aVCHANGE-TYPE DROUGHT
p76
aVELEVATED CO2
p77
aVHERBIVOROUS INSECTS
p78
aVCHANGING CLIMATE
p79
aVATMOSPHERIC CO2
p80
aVSPRUCE BUDWORM
p81
aVTREE MORTALITY
p82
aVCARBON-DIOXIDE
p83
aVWOODY-PLANTS
p84
asS'language'
p85
VEnglish
p86
sS'wosid'
p87
VWOS:000311998200006
p88
sS'citationCount'
p89
I66
sS'authors_init'
p90
(lp91
(VJAMIESON
VM A
tp92
a(VTROWBRIDGE
VA M
tp93
a(VRAFFA
VK F
tp94
a(VLINDROTH
VR L
tp95
asS'citedReferences'
p96
(lp97
g1
(g2
g3
NtRp98
(dp99
g60
V10.1073/pnas.0901438106
p100
sg56
VP NATL ACAD SCI USA
p101
sg58
V106
p102
sg90
(lp103
(VADAMS
VH D
tp104
asg23
I2009
sg54
V7063
p105
sbag1
(g2
g3
NtRp106
(dp107
g60
V10.1146/annurev.ento.47.091201.145300
p108
sg56
VANNU REV ENTOMOL
p109
sg58
V47
p110
sg90
(lp111
(VAWMACK
VC S
tp112
asg23
I2002
sg54
V817
p113
sbag1
(g2
g3
NtRp114
(dp115
g60
V10.1046/j.1365-2486.2002.00451.x
p116
sg56
VGLOBAL CHANGE BIOL
p117
sg58
V8
sg90
(lp118
(VBALE
VJ S
tp119
asg23
I2002
sg54
V1
sbag1
(g2
g3
NtRp120
(dp121
g60
V10.1890/09-2278.1
p122
sg56
VECOLOGY
p123
sg58
V91
p124
sg90
(lp125
(VBARTON
VB T
tp126
asg23
I2010
sg54
V2811
p127
sbag1
(g2
g3
NtRp128
(dp129
g60
V10.1016/j.foreco.2006.02.038
p130
sg56
VFOREST ECOL MANAG
p131
sg58
V227
p132
sg90
(lp133
(VBERG
VE E
tp134
asg23
I2006
sg54
V219
p135
sbag1
(g2
g3
NtRp136
(dp137
g60
V10.1111/j.1600-0706.2009.17558.x
p138
sg56
VOIKOS
p139
sg58
V118
p140
sg90
(lp141
(VBERGGREN
VA
tp142
asg23
I2009
sg54
V1121
p143
sbag1
(g2
g3
NtRp144
(dp145
g60
V10.1016/0169-5347(96)81066-4
p146
sg56
VTRENDS ECOL EVOL
p147
sg58
V11
p148
sg90
(lp149
(VBERRYMAN
VA A
tp150
asg23
I1996
sg54
V28
p151
sbag1
(g2
g3
NtRp152
(dp153
g60
V10.1111/j.1744-7909.2008.00751.x
p154
sg56
VJ INTEGR PLANT BIOL
p155
sg58
V50
p156
sg90
(lp157
(VBIDART-BOUZAT
VM G
tp158
asg23
I2008
sg54
V1339
p159
sbag1
(g2
g3
NtRp160
(dp161
g60
V10.1023/B:JOEC.0000006431.34359.c2
p162
sg56
VJ CHEM ECOL
p163
sg58
V23
p164
sg90
(lp165
(VCAMARA
VM D
tp166
asg23
I1997
sg54
V2093
p167
sbag1
(g2
g3
NtRp168
(dp169
g60
V10.1073/pnas.1010070108
p170
sg56
VP NATL ACAD SCI USA
p171
sg58
V108
p172
sg90
(lp173
(VCARNICER
VJ
tp174
asg23
I2011
sg54
V1474
p175
sbag1
(g2
g3
NtRp176
(dp177
g60
V10.1007/s004420050098
p178
sg56
VOECOLOGIA
p179
sg58
V109
p180
sg90
(lp181
(VCOBB
VN S
tp182
asg23
I1997
sg54
V389
p183
sbag1
(g2
g3
NtRp184
(dp185
g60
V10.1890/06-0064
p186
sg56
VECOLOGY
p187
sg58
V88
p188
sg90
(lp189
(VDONALDSON
VJ R
tp190
asg23
I2007
sg54
V729
p191
sbag1
(g2
g3
NtRp192
(dp193
g60
V10.1111/j.1600-0706.2011.19558.x
p194
sg56
VOIKOS
p195
sg58
V120
p196
sg90
(lp197
(VGUTBRODT
VB
tp198
asg23
I2011
sg54
V1732
p199
sbag1
(g2
g3
NtRp200
(dp201
g60
V10.1146/annurev.ento.52.110405.091333
p202
sg56
VANNU REV ENTOMOL
p203
sg58
V52
p204
sg90
(lp205
(VHANCE
VT
tp206
asg23
I2007
sg54
V107
p207
sbag1
(g2
g3
NtRp208
(dp209
g60
V10.1111/j.1365-2486.2005.00991.x
p210
sg56
VGLOBAL CHANGE BIOL
p211
sg58
V11
p212
sg90
(lp213
(VHANSON
VP J
tp214
asg23
I2005
sg54
V1402
p215
sbag1
(g2
g3
NtRp216
(dp217
g60
V10.1111/j.1461-0248.2008.01269.x
p218
sg56
VECOL LETT
p219
sg58
V12
p220
sg90
(lp221
(VHEGLAND
VS J
tp222
asg23
I2009
sg54
V184
p223
sbag1
(g2
g3
NtRp224
(dp225
g60
V10.1525/bio.2012.62.2.8
p226
sg56
VBIOSCIENCE
p227
sg58
V62
p228
sg90
(lp229
(VHENNON
VP E
tp230
asg23
I2012
sg54
V147
p231
sbag1
(g2
g3
NtRp232
(dp233
g60
V10.1086/417659
p234
sg56
VQ REV BIOL
p235
sg58
V67
p236
sg90
(lp237
(VHERMS
VD A
tp238
asg23
I1992
sg54
V283
p239
sbag1
(g2
g3
NtRp240
(dp241
g60
V10.1029/2005JG000101
p242
sg56
VJ GEOPHYS RES
p243
sg58
V111
p244
sg90
(lp245
(VHICKE
VJ A
tp246
asg23
I2006
sg54
Nsbag1
(g2
g3
NtRp247
(dp248
g60
V10.1016/j.tplants.2010.01.006
p249
sg56
VTRENDS PLANT SCI
p250
sg58
V15
p251
sg90
(lp252
(VHOLOPAINEN
VJ K
tp253
asg23
I2010
sg54
V176
p254
sbag1
(g2
g3
NtRp255
(dp256
g60
V10.1890/03-0352
p257
sg56
VECOLOGY
p258
sg58
V85
p259
sg90
(lp260
(VHUBERTY
VA F
tp261
asg23
I2004
sg54
V1383
p262
sbag1
(g2
g3
NtRp263
(dp264
g60
Nsg56
VOECOLOGIA
p265
sg58
V89
p266
sg90
(lp267
(VHUNTER
VA F
tp268
asg23
I1992
sg54
V316
p269
sbag1
(g2
g3
NtRp270
(dp271
g60
V10.1016/j.envexpbot.2006.10.010
p272
sg56
VENVIRON EXP BOT
p273
sg58
V60
p274
sg90
(lp275
(VHUTTUNEN
VL
tp276
asg23
I2007
sg54
V227
p277
sbag1
(g2
g3
NtRp278
(dp279
g60
V10.1111/j.1365-2311.2012.01366.x
p280
sg56
VECOL ENTOMOL
p281
sg58
V37
p282
sg90
(lp283
(VJAMIESON
VM A
tp284
asg23
I2012
sg54
V300
p285
sbag1
(g2
g3
NtRp286
(dp287
g60
V10.1139/Z06-025
p288
sg56
VCAN J ZOOL
p289
sg58
V84
p290
sg90
(lp291
(VJONES
VB C
tp292
asg23
I2006
sg54
V628
p293
sbag1
(g2
g3
NtRp294
(dp295
g60
V10.1890/05-0362
p296
sg56
VECOLOGY
p297
sg58
V87
p298
sg90
(lp299
(VKAPARI
VL
tp300
asg23
I2006
sg54
V291
p301
sbag1
(g2
g3
NtRp302
(dp303
g60
Nsg56
VIMPACT PARASITOIDS P
p304
sg58
Nsg90
(lp305
(VKIDD
VN A C
tp306
asg23
I1997
sg54
Nsbag1
(g2
g3
NtRp307
(dp308
g60
Nsg56
VTREE PHYSIOL
p309
sg58
V20
p310
sg90
(lp311
(VKIRSCHBAUM
VM U F
tp312
asg23
I2000
sg54
V309
p313
sbag1
(g2
g3
NtRp314
(dp315
g60
V10.1146/annurev.ento.43.1.195
p316
sg56
VANNU REV ENTOMOL
p317
sg58
V43
p318
sg90
(lp319
(VKORICHEVA
VJ
tp320
asg23
I1998
sg54
V195
p321
sbag1
(g2
g3
NtRp322
(dp323
g60
V10.2307/3546833
p324
sg56
VOIKOS
p325
sg58
V83
p326
sg90
(lp327
(VKORICHEVA
VJ
tp328
asg23
I1998
sg54
V212
p329
sbag1
(g2
g3
NtRp330
(dp331
g60
V10.1007/s004680100108
p332
sg56
VTREES
p333
sg58
V15
p334
sg90
(lp335
(VKUOKKANEN
VK
tp336
asg23
I2001
sg54
V378
p337
sbag1
(g2
g3
NtRp338
(dp339
g60
V10.1038/nature06777
p340
sg56
VNATURE
p341
sg58
V452
p342
sg90
(lp343
(VKURZ
VW A
tp344
asg23
I2008
sg54
V987
p345
sbag1
(g2
g3
NtRp346
(dp347
g60
V10.1007/s10886-009-9731-4
p348
sg56
VJ CHEM ECOL
p349
sg58
V36
p350
sg90
(lp351
(VLINDROTH
VR L
tp352
asg23
I2010
sg54
V2
sbag1
(g2
g3
NtRp353
(dp354
g60
Nsg56
VCAN J BOT
p355
sg58
V76
p356
sg90
(lp357
(VLLUSIA
VJ
tp358
asg23
I1998
sg54
V1366
p359
sbag1
(g2
g3
NtRp360
(dp361
g60
V10.2307/3867985
p362
sg56
VFRONT ECOL ENVIRON
p363
sg58
V1
sg90
(lp364
(VLOGAN
VJ A
tp365
asg23
I2003
sg54
V130
p366
sbag1
(g2
g3
NtRp367
(dp368
g60
V10.2307/1310365
p369
sg56
VBIOSCIENCE
p370
sg58
V37
p371
sg90
(lp372
(VMATTSON
VW J
tp373
asg23
I1987
sg54
V110
p374
sbag1
(g2
g3
NtRp375
(dp376
g60
V10.1016/j.tree.2011.06.003
p377
sg56
VTRENDS ECOL EVOL
p378
sg58
V26
p379
sg90
(lp380
(VMCDOWELL
VN G
tp381
asg23
I2011
sg54
V523
p382
sbag1
(g2
g3
NtRp383
(dp384
g60
Nsg56
VADV SCI CLIM CHANG
p385
sg58
Nsg90
(lp386
(VNATIONAL
VRESEARCH COUNCIL
tp387
asg23
I2010
sg54
Nsbag1
(g2
g3
NtRp388
(dp389
g60
V10.1007/s10886-005-3538-8
p390
sg56
VJ CHEM ECOL
p391
sg58
V31
p392
sg90
(lp393
(VNEALIS
VV G
tp394
asg23
I2005
sg54
V683
p395
sbag1
(g2
g3
NtRp396
(dp397
g60
V10.1016/j.tplants.2004.02.006
p398
sg56
VTRENDS PLANT SCI
p399
sg58
V9
sg90
(lp400
(VNIINEMETS
VU
tp401
asg23
I2004
sg54
V180
p402
sbag1
(g2
g3
NtRp403
(dp404
g60
V10.1146/annurev.ento.47.091201.145121
p405
sg56
VANNU REV ENTOMOL
p406
sg58
V47
p407
sg90
(lp408
(VNISHIDA
VR
tp409
asg23
I2002
sg54
V57
p410
sbag1
(g2
g3
NtRp411
(dp412
g60
V10.1111/j.1469-8137.2004.01047.x
p413
sg56
VNEW PHYTOL
p414
sg58
V162
p415
sg90
(lp416
(VNORBY
VR J
tp417
asg23
I2004
sg54
V281
p418
sbag1
(g2
g3
NtRp419
(dp420
g60
V10.1890/08-0034.1
p421
sg56
VECOLOGY
p422
sg58
V90
p423
sg90
(lp424
(VO'CONNOR
VM I
tp425
asg23
I2009
sg54
V388
p426
sbag1
(g2
g3
NtRp427
(dp428
g60
V10.1146/annurev.ento.51.110104.151110
p429
sg56
VANNU REV ENTOMOL
p430
sg58
V51
p431
sg90
(lp432
(VODE
VP J
tp433
asg23
I2006
sg54
V163
p434
sbag1
(g2
g3
NtRp435
(dp436
g60
V10.1038/nature01286
p437
sg56
VNATURE
p438
sg58
V421
p439
sg90
(lp440
(VPARMESAN
VC
tp441
asg23
I2003
sg54
V37
p442
sbag1
(g2
g3
NtRp443
(dp444
g60
Nsg56
VENVIRON ENTOMOL
p445
sg58
V27
p446
sg90
(lp447
(VPARRY
VD
tp448
asg23
I1998
sg54
V1368
p449
sbag1
(g2
g3
NtRp450
(dp451
g60
V10.1016/j.tpb.2004.10.001
p452
sg56
VTHEOR POPUL BIOL
p453
sg58
V67
p454
sg90
(lp455
(VPOWELL
VJ A
tp456
asg23
I2005
sg54
V161
p457
sbag1
(g2
g3
NtRp458
(dp459
g60
V10.1007/s10980-009-9340-1
p460
sg56
VLANDSCAPE ECOL
p461
sg58
V24
p462
sg90
(lp463
(VPOWELL
VJ A
tp464
asg23
I2009
sg54
V657
p465
sbag1
(g2
g3
NtRp466
(dp467
g60
V10.1641/B580607
p468
sg56
VBIOSCIENCE
p469
sg58
V58
p470
sg90
(lp471
(VRAFFA
VK F
tp472
asg23
I2008
sg54
V501
p473
sbag1
(g2
g3
NtRp474
(dp475
g60
V10.1055/s-2006-924084
p476
sg56
VPLANT BIOLOGY
p477
sg58
V8
sg90
(lp478
(VRENNENBERG
VH
tp479
asg23
I2006
sg54
VLANT
p480
sbag1
(g2
g3
NtRp481
(dp482
g60
V10.1111/j.1469-8137.2012.04074.x
p483
sg56
VNEW PHYTOL
p484
sg58
V194
p485
sg90
(lp486
(VROBINSON
VE A
tp487
asg23
I2012
sg54
V321
p488
sbag1
(g2
g3
NtRp489
(dp490
g60
V10.1890/03-0182
p491
sg56
VECOLOGY
p492
sg58
V85
p493
sg90
(lp494
(VROY
VB A
tp495
asg23
I2004
sg54
V2570
p496
sbag1
(g2
g3
NtRp497
(dp498
g60
V10.1007/s004420000544
p499
sg56
VOECOLOGIA
p500
sg58
V126
p501
sg90
(lp502
(VRUSTAD
VL E
tp503
asg23
I2001
sg54
V543
p504
sbag1
(g2
g3
NtRp505
(dp506
g60
Nsg56
VTREE PHYSIOL
p507
sg58
V23
p508
sg90
(lp509
(VSALLAS
VL
tp510
asg23
I2003
sg54
V97
p511
sbag1
(g2
g3
NtRp512
(dp513
g60
Nsg56
VINSECT PLANT BIOL
p514
sg58
Nsg90
(lp515
(VSCHOONHOVEN
VL M
tp516
asg23
I2005
sg54
Nsbag1
(g2
g3
NtRp517
(dp518
g60
V10.1139/X09-117
p519
sg56
VCAN J FOREST RES
p520
sg58
V39
p521
sg90
(lp522
(VSIEGERT
VN W
tp523
asg23
I2009
sg54
V1958
p524
sbag1
(g2
g3
NtRp525
(dp526
g60
V10.1007/s00248-006-9178-x
p527
sg56
VMICROB ECOL
p528
sg58
V54
p529
sg90
(lp530
(VSIX
VD L
tp531
asg23
I2007
sg54
V112
p532
sbag1
(g2
g3
NtRp533
(dp534
g60
V10.1890/08-1906.1
p535
sg56
VECOLOGY
p536
sg58
V90
p537
sg90
(lp538
(VSMILANICH
VA M
tp539
asg23
I2009
sg54
V1434
p540
sbag1
(g2
g3
NtRp541
(dp542
g60
V10.1007/s10682-006-9154-4
p543
sg56
VEVOL ECOL
p544
sg58
V21
p545
sg90
(lp546
(VSTEVENS
VM T
tp547
asg23
I2007
sg54
V829
p548
sbag1
(g2
g3
NtRp549
(dp550
g60
Nsg56
VFOREST CHRON
p551
sg58
V85
p552
sg90
(lp553
(VTHOMSON
VA J
tp554
asg23
I2009
sg54
V625
p555
sbag1
(g2
g3
NtRp556
(dp557
g60
V10.1046/j.1365-2486.1999.00257.x
p558
sg56
VGLOB CHANGE BIOL
p559
sg58
V5
sg90
(lp560
(VTJOELKER
VM G
tp561
asg23
I1999
sg54
V679
p562
sbag1
(g2
g3
NtRp563
(dp564
g60
V10.1146/annurev.ento.52.110405.091418
p565
sg56
VANNU REV ENTOMOL
p566
sg58
V52
p567
sg90
(lp568
(VVAN
VASCH M
tp569
asg23
I2007
sg54
V37
p570
sbag1
(g2
g3
NtRp571
(dp572
g60
V10.1007/s00442-011-2172-0
p573
sg56
VOECOLOGIA
p574
sg58
V169
p575
sg90
(lp576
(VWANG
VD
tp577
asg23
I2012
sg54
V1
sbag1
(g2
g3
NtRp578
(dp579
g60
V10.1038/nature11014
p580
sg56
VNATURE
p581
sg58
V485
p582
sg90
(lp583
(VWOLKOVICH
VE M
tp584
asg23
I2012
sg54
V494
p585
sbag1
(g2
g3
NtRp586
(dp587
g60
V10.1016/j.tree.2009.01.012
p588
sg56
VTRENDS ECOL EVOL
p589
sg58
V24
p590
sg90
(lp591
(VYUAN
VJ S
tp592
asg23
I2009
sg54
V323
p593
sbag1
(g2
g3
NtRp594
(dp595
g60
V10.1111/j.1365-2486.2005.01086.x
p596
sg56
VGLOBAL CHANGE BIOL
p597
sg58
V12
p598
sg90
(lp599
(VZVEREVA
VE L
tp600
asg23
I2006
sg54
V27
p601
sbasb.