ccopy_reg
_reconstructor
p1
(ctethne.classes.paper
Paper
p2
c__builtin__
object
p3
NtRp4
(dp5
S'publisherCity'
p6
VROCKVILLE
p7
sS'reprintAddress'
p8
VLink, G (reprint author), Univ Bochum, D-44780 Bochum, Germany.
p9
sS'WC'
p10
VPlant Sciences
p11
sS'GA'
p12
V093IL
p13
sS'abstract'
p14
VPlants contain nuclear-coded sigma factors for initiation of chloroplast transcription. The in vivo function of individual members of the sigma gene family has become increasingly accessible by knockout and complementation strategies. Here we have investigated plastid gene expression in an Arabidopsis (Arabidopsis thaliana) mutant with a defective gene for sigma factor 6. RNA gel-blot hybridization and real-time reverse transcription polymerase chain reaction together indicate that this factor has a dual developmental role, with both early and persistent (long-term) activities. The early role is evident from the sharp decrease of certain plastid transcripts only in young mutant seedlings. The second (persistent) role is reflected by the up- and down-regulation of other transcripts at the time of primary leaf formation and subsequent vegetative development. We conclude that sigma 6 does not represent a general factor, but seems to have specialized roles in developmental stage- and gene-specific plastid transcription. The possibility that plastid DNA copy number might be responsible for the altered transcript patterns in mutant versus wild type was excluded by the results of DNA gel-blot hybridization. Retransformation of the knockout line with the full-length sigma 6 cDNA further established a causal relationship between the functional sigma gene and the resulting phenotype.
p15
sS'pageEnd'
p16
I650
sS'publisherAddress'
p17
V15501 MONONA DRIVE, ROCKVILLE, MD 20855 USA
p18
sS'documentType'
p19
VArticle
p20
sS'subject'
p21
VPlant Sciences
p22
sS'isoSource'
p23
VPlant Physiol.
p24
sS'timesCited'
p25
(lp26
I35
aVZ9 37
p27
asS'PT'
p28
VJ
sS'title'
p29
VDual Temporal Role Of Plastid Sigma Factor 6 In Arabidopsis Development
p30
sS'ISSN'
p31
(lp32
V0032-0889
p33
aVJ9 PLANT PHYSIOL
p34
asS'authors_full'
p35
(lp36
(VLOSCHELDER
VHEIKE
tp37
a(VSCHWEER
VJENNIFER
tp38
a(VLINK
VBRIGITTE
tp39
a(VLINK
VGERHARD
tp40
asS'PG'
p41
I9
sS'PD'
p42
VOCT
p43
sS'pageStart'
p44
I642
sS'issue'
p45
I2
sS'journal'
p46
VPLANT PHYSIOLOGY
p47
sS'volume'
p48
V142
p49
sS'doi'
p50
V10.1104/pp.106.085787
p51
sS'emailAddress'
p52
Vgerhard.link@ruhr-uni-bochum.de
p53
sS'authorAddress'
p54
VUniv Bochum, D-44780 Bochum, Germany.
p55
sS'date'
p56
I2006
sS'ER'
p57
V
sS'publisher'
p58
VAMER SOC PLANT BIOLOGISTS
p59
sS'authorKeywords'
p60
(lp61
VMUSTARD SINAPIS-ALBA
p62
aVCHLOROPLAST RNA-POLYMERASE
p63
aVENCODED SIGMA-FACTOR
p64
aVHIGHER-PLANTS
p65
aVGENE-EXPRESSION
p66
aVTRANSCRIPTION FACTORS
p67
aVPROTEIN-KINASE
p68
aVTHALIANA
p69
aVNUCLEAR
p70
aVDISTINCT
p71
asS'language'
p72
VEnglish
p73
sS'wosid'
p74
VWOS:000241161900022
p75
sS'citationCount'
p76
I49
sS'authors_init'
p77
(lp78
(VLOSCHELDER
VH
tp79
a(VSCHWEER
VJ
tp80
a(VLINK
VB
tp81
a(VLINK
VG
tp82
asS'citedReferences'
p83
(lp84
g1
(g2
g3
NtRp85
(dp86
g50
Nsg46
VEMBO J
p87
sg48
V15
p88
sg77
(lp89
(VALLISON
VL A
tp90
asg56
I1996
sg44
V2802
p91
sbag1
(g2
g3
NtRp92
(dp93
g50
V10.1016/S0300-9084(00)00611-8
p94
sg46
VBIOCHIMIE
p95
sg48
V82
p96
sg77
(lp97
(VALLISON
VL A
tp98
asg56
I2000
sg44
V537
p99
sbag1
(g2
g3
NtRp100
(dp101
g50
V10.1023/A:1005802909902
p102
sg46
VPLANT MOL BIOL
p103
sg48
V34
p104
sg77
(lp105
(VBAGINSKY
VS
tp106
asg56
I1997
sg44
VLANT
p107
sbag1
(g2
g3
NtRp108
(dp109
g50
V10.1023/A:1006177807844
p110
sg46
VPLANT MOL BIOL
p111
sg48
V39
p112
sg77
(lp113
(VBAGINSKY
VS
tp114
asg56
I1999
sg44
VLANT
p115
sbag1
(g2
g3
NtRp116
(dp117
g50
Nsg46
VPHOTOPROTECTION PHOT
p118
sg48
Nsg77
(lp119
(VBAGINSKY
VS
tp120
asg56
I2005
sg44
VHOTOPROTECTION
p121
sbag1
(g2
g3
NtRp122
(dp123
g50
V10.1016/S1369-5274(03)00036-5
p124
sg46
VCURR OPIN MICROBIOL
p125
sg48
V6
sg77
(lp126
(VBORUKHOV
VS
tp127
asg56
I2003
sg44
V93
p128
sbag1
(g2
g3
NtRp129
(dp130
g50
V10.1016/S1360-1385(00)01858-6
p131
sg46
VTRENDS PLANT SCI
p132
sg48
V6
sg77
(lp133
(VCAHOON
VA B
tp134
asg56
I2001
sg44
V45
p135
sbag1
(g2
g3
NtRp136
(dp137
g50
Nsg46
VANAL BIOCHEM
p138
sg48
V162
p139
sg77
(lp140
(VCHOMCZYNSKI
VP
tp141
asg56
I1987
sg44
V156
p142
sbag1
(g2
g3
NtRp143
(dp144
g50
V10.1046/j.1365-313x.1998.00343.x
p145
sg46
VPLANT J
p146
sg48
V16
p147
sg77
(lp148
(VCLOUGH
VS J
tp149
asg56
I1998
sg44
VLANT
p150
sbag1
(g2
g3
NtRp151
(dp152
g50
Nsg46
VPHYTOCHEMISTRY B
p153
sg48
V19
p154
sg77
(lp155
(VDOYLE
VJ J
tp156
asg56
I1987
sg44
VHYTOCHEMISTRY
p157
sbag1
(g2
g3
NtRp158
(dp159
g50
V10.1093/nar/gki908
p160
sg46
VNUCLEIC ACIDS RES
p161
sg48
V33
p162
sg77
(lp163
(VFAVORY
VJ J
tp164
asg56
I2005
sg44
V5991
p165
sbag1
(g2
g3
NtRp166
(dp167
g50
V10.1016/S0014-5793(00)01965-7
p168
sg46
VFEBS LETT
p169
sg48
V481
p170
sg77
(lp171
(VFUJIWARA
VM
tp172
asg56
I2000
sg44
V47
p173
sbag1
(g2
g3
NtRp174
(dp175
g50
V10.1146/annurev.micro.57.030502.090913
p176
sg46
VANNU REV MICROBIOL
p177
sg48
V57
p178
sg77
(lp179
(VGRUBER
VT M
tp180
asg56
I2003
sg44
V441
p181
sbag1
(g2
g3
NtRp182
(dp183
g50
V10.1093/emboj/16.13.4041
p184
sg46
VEMBO J
p185
sg48
V16
p186
sg77
(lp187
(VHAJDUKIEWICZ
VP T J
tp188
asg56
I1997
sg44
V4041
p189
sbag1
(g2
g3
NtRp190
(dp191
g50
V10.1074/jbc.275.13.9215
p192
sg46
VJ BIOL CHEM
p193
sg48
V275
p194
sg77
(lp195
(VHAKIMI
VM A
tp196
asg56
I2000
sg44
V9215
p197
sbag1
(g2
g3
NtRp198
(dp199
g50
V10.1093/nar/gkg935
p200
sg46
VNUCLEIC ACIDS RES
p201
sg48
V31
p202
sg77
(lp203
(VHANAOKA
VM
tp204
asg56
I2003
sg44
V7090
p205
sbag1
(g2
g3
NtRp206
(dp207
g50
V10.1126/science.277.5327.809
p208
sg46
VSCIENCE
p209
sg48
V277
p210
sg77
(lp211
(VHEDTKE
VB
tp212
asg56
I1997
sg44
V809
p213
sbag1
(g2
g3
NtRp214
(dp215
g50
V10.1016/0168-9452(90)90207-5
p216
sg46
VPLANT SCI
p217
sg48
V66
p218
sg77
(lp219
(VHOFGEN
VR
tp220
asg56
I1990
sg44
VLANT
p221
sbag1
(g2
g3
NtRp222
(dp223
g50
V10.1046/j.1432-1033.2003.03494.x
p224
sg46
VEUR J BIOCHEM
p225
sg48
V270
p226
sg77
(lp227
(VHOMANN
VA
tp228
asg56
I2003
sg44
V1288
p229
sbag1
(g2
g3
NtRp230
(dp231
g50
V10.1111/j.1365-313X.2005.02362.x
p232
sg46
VPLANT J
p233
sg48
V42
p234
sg77
(lp235
(VISHIZAKI
VY
tp236
asg56
I2005
sg44
VLANT
p237
sbag1
(g2
g3
NtRp238
(dp239
g50
V10.1073/pnas.94.26.14948
p240
sg46
VP NATL ACAD SCI USA
p241
sg48
V94
p242
sg77
(lp243
(VISONO
VK
tp244
asg56
I1997
sg44
V14948
p245
sbag1
(g2
g3
NtRp246
(dp247
g50
V10.1093/pcp/pce155
p248
sg46
VPLANT CELL PHYSIOL
p249
sg48
V42
p250
sg77
(lp251
(VKANAMARU
VK
tp252
asg56
I2001
sg44
VLANT
p253
sbag1
(g2
g3
NtRp254
(dp255
g50
V10.1271/bbb.68.2215
p256
sg46
VBIOSCI BIOTECH BIOCH
p257
sg48
V68
p258
sg77
(lp259
(VKANAMARU
VK
tp260
asg56
I2004
sg44
V2215
p261
sbag1
(g2
g3
NtRp262
(dp263
g50
V10.1046/j.1365-313X.2002.01349.x
p264
sg46
VPLANT J
p265
sg48
V31
p266
sg77
(lp267
(VLEGEN
VJ
tp268
asg56
I2002
sg44
VLANT
p269
sbag1
(g2
g3
NtRp270
(dp271
g50
Nsg46
VVVolume 11
p272
sg48
VVolume
p273
sg77
(lp274
(VLIERE
VKARSTEN
tp275
asg56
I2001
sg44
V29
p276
sbag1
(g2
g3
NtRp277
(dp278
g50
V10.1016/j.phytochem.2004.04.034
p279
sg46
VPHYTOCHEMISTRY
p280
sg48
V65
p281
sg77
(lp282
(VLOSCHELDER
VH
tp283
asg56
I2004
sg44
VHYTOCHEMISTRY
p284
sbag1
(g2
g3
NtRp285
(dp286
g50
V10.1016/S1360-1385(97)87981-2
p287
sg46
VTRENDS PLANT SCI
p288
sg48
V3
sg77
(lp289
(VMALIGA
VP
tp290
asg56
I1998
sg44
V4
sbag1
(g2
g3
NtRp291
(dp292
g50
V10.1016/j.tplants.2005.03.007
p293
sg46
VTRENDS PLANT SCI
p294
sg48
V10
p295
sg77
(lp296
(VMARTIN
VW
tp297
asg56
I2005
sg44
V203
p298
sbag1
(g2
g3
NtRp299
(dp300
g50
V10.1016/S0014-5793(02)02388-8
p301
sg46
VFEBS LETT
p302
sg48
V514
p303
sg77
(lp304
(VMORIKAWA
VK
tp305
asg56
I2002
sg44
V300
p306
sbag1
(g2
g3
NtRp307
(dp308
g50
V10.1093/pcp/pch050
p309
sg46
VPLANT CELL PHYSIOL
p310
sg48
V45
p311
sg77
(lp312
(VNAGASHIMA
VA
tp313
asg56
I2004
sg44
VLANT
p314
sbag1
(g2
g3
NtRp315
(dp316
g50
V10.1046/j.1432-1033.2002.03017.x
p317
sg46
VEUR J BIOCHEM
p318
sg48
V269
p319
sg77
(lp320
(VOGRZEWALLA
VK
tp321
asg56
I2002
sg44
V3329
p322
sbag1
(g2
g3
NtRp323
(dp324
g50
V10.1093/nar/29.9.e45
p325
sg46
VNUCLEIC ACIDS RES
p326
sg48
V29
p327
sg77
(lp328
(VPFAFFL
VM W
tp329
asg56
I2001
sg44
Nsbag1
(g2
g3
NtRp330
(dp331
g50
V10.1105/tpc.105.036392
p332
sg46
VPLANT CELL
p333
sg48
V18
p334
sg77
(lp335
(VPFALZ
VJ
tp336
asg56
I2006
sg44
VLANT
p337
sbag1
(g2
g3
NtRp338
(dp339
g50
V10.1046/j.1432-1327.2000.00991.x
p340
sg46
VEUR J BIOCHEM
p341
sg48
V267
p342
sg77
(lp343
(VPFANNSCHMIDT
VT
tp344
asg56
I2000
sg44
V253
p345
sbag1
(g2
g3
NtRp346
(dp347
g50
V10.1007/BF00024199
p348
sg46
VPLANT MOL BIOL
p349
sg48
V25
p350
sg77
(lp351
(VPFANNSCHMIDT
VT
tp352
asg56
I1994
sg44
VLANT
p353
sbag1
(g2
g3
NtRp354
(dp355
g50
V10.1023/A:1022095017355
p356
sg46
VPLANT MOL BIOL
p357
sg48
V51
p358
sg77
(lp359
(VPRIVAT
VI
tp360
asg56
I2003
sg44
VLANT
p361
sbag1
(g2
g3
NtRp362
(dp363
g50
V10.1016/S0304-3940(02)01423-4
p364
sg46
VNEUROSCI LETT
p365
sg48
V339
p366
sg77
(lp367
(VRAMAKERS
VC
tp368
asg56
I2003
sg44
V62
p369
sbag1
(g2
g3
NtRp370
(dp371
g50
V10.1023/B:PLAN.0000009297.37235.4a
p372
sg46
VPLANT MOL BIOL
p373
sg48
V53
p374
sg77
(lp375
(VROSSO
VM G
tp376
asg56
I2003
sg44
VLANT
p377
sbag1
(g2
g3
NtRp378
(dp379
g50
V10.1093/dnares/6.5.283
p380
sg46
VDNA Res
p381
sg48
V6
sg77
(lp382
(VSATO
VS
tp383
asg56
I1999
sg44
V283
p384
sbag1
(g2
g3
NtRp385
(dp386
g50
V10.1016/S0074-7696(05)44001-2
p387
sg46
VINT REV CYTOL
p388
sg48
V244
p389
sg77
(lp390
(VSHIINA
VT
tp391
asg56
I2005
sg44
V1
sbag1
(g2
g3
NtRp392
(dp393
g50
V10.1007/BF00039388
p394
sg46
VPLANT MOL BIOL
p395
sg48
V32
p396
sg77
(lp397
(VSUGITA
VM
tp398
asg56
I1996
sg44
VLANT
p399
sbag1
(g2
g3
NtRp400
(dp401
g50
V10.1111/j.1365-313X.2004.02195.x
p402
sg46
VPLANT J
p403
sg48
V40
p404
sg77
(lp405
(VSUZUKI
VJ Y
tp406
asg56
I2004
sg44
VLANT
p407
sbag1
(g2
g3
NtRp408
(dp409
g50
V10.1016/S0014-5793(97)00906-X
p410
sg46
VFEBS LETT
p411
sg48
V413
p412
sg77
(lp413
(VTANAKA
VK
tp414
asg56
I1997
sg44
V309
p415
sbag1
(g2
g3
NtRp416
(dp417
g50
Nsg46
VNATURE
p418
sg48
V408
p419
sg77
(lp420
(VKAUL
VS
tp421
asg56
I2000
sg44
V796
p422
sbag1
(g2
g3
NtRp423
(dp424
g50
V10.1007/BF00028807
p425
sg46
VPLANT MOL BIOL
p426
sg48
V21
p427
sg77
(lp428
(VTILLER
VK
tp429
asg56
I1993
sg44
VLANT
p430
sbag1
(g2
g3
NtRp431
(dp432
g50
Nsg46
VEMBO J
p433
sg48
V12
p434
sg77
(lp435
(VTILLER
VK
tp436
asg56
I1993
sg44
V1745
p437
sbag1
(g2
g3
NtRp438
(dp439
g50
V10.1080/07352680590910438
p440
sg46
VCRIT REV PLANT SCI
p441
sg48
V24
p442
sg77
(lp443
(VTOYOSHIMA
VY
tp444
asg56
I2005
sg44
V59
p445
sbag1
(g2
g3
NtRp446
(dp447
g50
V10.1073/pnas.0308362101
p448
sg46
VP NATL ACAD SCI USA
p449
sg48
V101
p450
sg77
(lp451
(VTSUNOYAMA
VY
tp452
asg56
I2004
sg44
V3304
p453
sbag1
(g2
g3
NtRp454
(dp455
g50
V10.1104/pp.102.017913
p456
sg46
VPLANT PHYSIOL
p457
sg48
V132
p458
sg77
(lp459
(VYAO
VJ L
tp460
asg56
I2003
sg44
VLANT
p461
sbasb.