ccopy_reg
_reconstructor
p1
(ctethne.classes.paper
Paper
p2
c__builtin__
object
p3
NtRp4
(dp5
S'publisherCity'
p6
VROCKVILLE
p7
sS'reprintAddress'
p8
VCassab, GI (reprint author), Univ Nacl Autonoma Mexico, Inst Biotechnol, Dept Biol Mol & Plantas, Apartado Postal 510-3, Cuernavaca 62250, Morelos, Mexico.
p9
sS'WC'
p10
VPlant Sciences
p11
sS'GA'
p12
V645XD
p13
sS'abstract'
p14
VFor most plants survival depends upon the capacity of root tips to sense and move towards water and other nutrients in the soil. Because land plants cannot escape environmental stress they use developmental solutions to remodel themselves in order to better adapt to the new conditions. The primary site for perception of underground signals is the root cap (RC). Plant roots have positive hydrotropic response and modify their growth direction in search of water. Using a screening system with a water potential gradient, we isolated a no hydrotropic response (nhr) semi-dominant mutant of Arabidopsis that continued to grow downwardly into the medium with the lowest water potential contrary to the positive hydrotropic and negative gravitropic response seen in wild type-roots. The lack of hydrotropic response of nhr1 roots was confirmed in a system with a gradient in air moisture. The root gravitropic response of nhr1 seedlings was significantly faster in comparison with those of wild type. The frequency of the waving pattern in nhr1 roots was increased compared to those of wild type. nhr1 seedlings had abnormal root cap morphogenesis and reduced root growth sensitivity to abscisic acid (ABA) and the polar auxin transport inhibitor N-(1-naphtyl)phtalamic acid (NPA). These results showed that hydrotropism is amenable to genetic analysis and that an ABA signaling pathway participates in sensing water potential gradients through the root cap.
p15
sS'pageEnd'
p16
I546
sS'date'
p17
I2003
sS'documentType'
p18
VArticle
p19
sS'subject'
p20
VPlant Sciences
p21
sS'isoSource'
p22
VPlant Physiol.
p23
sS'timesCited'
p24
(lp25
I47
aVZ9 49
p26
asS'PT'
p27
VJ
sS'title'
p28
VA No Hydrotropic Response Root Mutant That Responds Positively To Gravitropism In Arabidopsis
p29
sS'ISSN'
p30
(lp31
V0032-0889
p32
aVJ9 PLANT PHYSIOL
p33
asS'authors_full'
p34
(lp35
(VEAPEN
VD
tp36
a(VBARROSO
VML
tp37
a(VCAMPOS
VME
tp38
a(VPONCE
VG
tp39
a(VCORKIDI
VG
tp40
a(VDUBROVSKY
VJG
tp41
a(VCASSAB
VGI
tp42
asS'PG'
p43
I11
sS'PD'
p44
VFEB
p45
sS'pageStart'
p46
I536
sS'issue'
p47
I2
sS'RI'
p48
VDubrovsky, Joseph/B-9479-2008
p49
sS'journal'
p50
VPLANT PHYSIOLOGY
p51
sS'volume'
p52
V131
p53
sS'doi'
p54
V10.1104/pp.011841
p55
sS'emailAddress'
p56
Vgladys@ibt.unam.mx
p57
sS'authorAddress'
p58
(lp59
VUniv Nacl Autonoma Mexico, Inst Biotechnol, Dept Biol Mol & Plantas, Cuernavaca 62250, Morelos, Mexico.
p60
aVUniv Nacl Autonoma Mexico, Ctr Ciencias Aplicada & Desarrollo Tecnol, Lab Imagenes & Vis, Mexico City 04510, DF, Mexico.
p61
asS'publisherAddress'
p62
V15501 MONONA DRIVE, ROCKVILLE, MD 20855 USA
p63
sS'ER'
p64
V
sS'publisher'
p65
VAMER SOC PLANT BIOLOGISTS
p66
sS'authorKeywords'
p67
(lp68
VAUXIN-TRANSPORT
p69
aVGENE ENCODES
p70
aVHOBBIT GENE
p71
aVPEA MUTANT
p72
aVTHALIANA
p73
aVCIRCUMNUTATION
p74
aVORGANIZATION
p75
aVDEFINES
p76
aVPLANTS
p77
aVCELLS
p78
asS'language'
p79
VEnglish
p80
sS'wosid'
p81
VWOS:000181005000016
p82
sS'citationCount'
p83
I39
sS'authors_init'
p84
(lp85
(VEAPEN
VD
tp86
a(VBARROSO
VM L
tp87
a(VCAMPOS
VM E
tp88
a(VPONCE
VG
tp89
a(VCORKIDI
VG
tp90
a(VDUBROVSKY
VJ G
tp91
a(VCASSAB
VG I
tp92
asS'citedReferences'
p93
(lp94
g1
(g2
g3
NtRp95
(dp96
g54
Nsg50
VETHYLENE PLANT BIOL
p97
sg52
Nsg84
(lp98
(VABELES
VF B
tp99
asg17
I1992
sg46
Nsbag1
(g2
g3
NtRp100
(dp101
g54
Nsg50
VPLANT PHYSIOL
p102
sg52
V112
p103
sg84
(lp104
(VBALUSKA
VF
tp105
asg17
I1996
sg46
VLANT
p106
sbag1
(g2
g3
NtRp107
(dp108
g54
V10.1007/BF01273890
p109
sg50
VPROTOPLASMA
p110
sg52
V192
p111
sg84
(lp112
(VBAUM
VS F
tp113
asg17
I1996
sg46
VROTOPLASMA
p114
sbag1
(g2
g3
NtRp115
(dp116
g54
V10.1101/gad.237302
p117
sg50
VGENE DEV
p118
sg52
V16
p119
sg84
(lp120
(VBLILOU
VI
tp121
asg17
I2002
sg46
V2566
p122
sbag1
(g2
g3
NtRp123
(dp124
g54
V10.1016/S1360-1385(98)01241-2
p125
sg50
VTRENDS PLANT SCI
p126
sg52
V3
sg84
(lp127
(VBONETTA
VD
tp128
asg17
I1998
sg46
V231
p129
sbag1
(g2
g3
NtRp130
(dp131
g54
V10.1146/annurev.arplant.53.100301.135158
p132
sg50
VANNU REV PLANT BIOL
p133
sg52
V53
p134
sg84
(lp135
(VBOONSIRICHAI
VK
tp136
asg17
I2002
sg46
V421
p137
sbag1
(g2
g3
NtRp138
(dp139
g54
V10.1073/pnas.95.25.15112
p140
sg50
VP NATL ACAD SCI USA
p141
sg52
V95
p142
sg84
(lp143
(VCHEN
VR J
tp144
asg17
I1998
sg46
V15112
p145
sbag1
(g2
g3
NtRp146
(dp147
g54
Nsg50
VPOWER MOVEMENT PLANT
p148
sg52
Nsg84
(lp149
(VDARWIN
VC
tp150
asg17
I1881
sg46
VOWER
p151
sbag1
(g2
g3
NtRp152
(dp153
g54
Nsg50
VNATURE
p154
sg52
V415
p155
sg84
(lp156
(VFRIML
VJ
tp157
asg17
I2002
sg46
V806
p158
sbag1
(g2
g3
NtRp159
(dp160
g54
V10.1016/S0092-8674(02)00656-6
p161
sg50
VCELL
p162
sg52
V108
p163
sg84
(lp164
(VFRIML
VJ
tp165
asg17
I2002
sg46
V661
p166
sbag1
(g2
g3
NtRp167
(dp168
g54
Nsg50
VPLANT TROPISMS GROWT
p169
sg52
Nsg84
(lp170
(VHART
VJ W
tp171
asg17
I1990
sg46
VLANT
p172
sbag1
(g2
g3
NtRp173
(dp174
g54
Nsg50
VJ PLANT GROWTH REGUL
p175
sg52
V21
p176
sg84
(lp177
(VHAWES
VM C
tp178
asg17
I2003
sg46
V352
p179
sbag1
(g2
g3
NtRp180
(dp181
g54
V10.1016/S1360-1385(00)01556-9
p182
sg50
VTRENDS PLANT SCI
p183
sg52
V5
sg84
(lp184
(VHAWES
VM C
tp185
asg17
I2000
sg46
V128
p186
sbag1
(g2
g3
NtRp187
(dp188
g54
V10.1126/science.230.4724.445
p189
sg50
VSCIENCE
p190
sg52
V230
p191
sg84
(lp192
(VJAFFE
VM J
tp193
asg17
I1985
sg46
V445
p194
sbag1
(g2
g3
NtRp195
(dp196
g54
V10.1104/pp.60.6.826
p197
sg50
VPLANT PHYSIOL
p198
sg52
V60
p199
sg84
(lp200
(VKATEKAR
VG F
tp201
asg17
I1977
sg46
VLANT
p202
sbag1
(g2
g3
NtRp203
(dp204
g54
Nsg50
VTHEOR APPL GENET
p205
sg52
V61
p206
sg84
(lp207
(VKOORNNEEF
VM
tp208
asg17
I1982
sg46
V385
p209
sbag1
(g2
g3
NtRp210
(dp211
g54
V10.1111/j.1399-3054.1984.tb06343.x
p212
sg50
VPHYSIOL PLANTARUM
p213
sg52
V61
p214
sg84
(lp215
(VKOORNNEEF
VM
tp216
asg17
I1984
sg46
VHYSIOL
p217
sbag1
(g2
g3
NtRp218
(dp219
g54
V10.1104/pp.123.3.795
p220
sg50
VPLANT PHYSIOL
p221
sg52
V123
p222
sg84
(lp223
(VLUKOWITZ
VW
tp224
asg17
I2000
sg46
VLANT
p225
sbag1
(g2
g3
NtRp226
(dp227
g54
V10.1101/gad.12.14.2175
p228
sg50
VGENE DEV
p229
sg52
V12
p230
sg84
(lp231
(VLUSCHNIG
VC
tp232
asg17
I1998
sg46
V2175
p233
sbag1
(g2
g3
NtRp234
(dp235
g54
V10.1093/emboj/18.8.2066
p236
sg50
VEMBO J
p237
sg52
V18
p238
sg84
(lp239
(VMARCHANT
VA
tp240
asg17
I1999
sg46
V2066
p241
sbag1
(g2
g3
NtRp242
(dp243
g54
V10.1016/S1360-1385(01)02152-5
p244
sg50
VTRENDS PLANT SCI
p245
sg52
V6
sg84
(lp246
(VMIGLIACCIO
VF
tp247
asg17
I2001
sg46
V561
p248
sbag1
(g2
g3
NtRp249
(dp250
g54
V10.1104/pp.118.4.1139
p251
sg50
VPLANT PHYSIOL
p252
sg52
V118
p253
sg84
(lp254
(VMULLEN
VJ L
tp255
asg17
I1998
sg46
VLANT
p256
sbag1
(g2
g3
NtRp257
(dp258
g54
V10.1093/emboj/17.23.6903
p259
sg50
VEMBO J
p260
sg52
V17
p261
sg84
(lp262
(VMULLER
VA
tp263
asg17
I1998
sg46
V6903
p264
sbag1
(g2
g3
NtRp265
(dp266
g54
V10.1126/science.250.4978.274
p267
sg50
VSCIENCE
p268
sg52
V250
p269
sg84
(lp270
(VOKADA
VK
tp271
asg17
I1990
sg46
V274
p272
sbag1
(g2
g3
NtRp273
(dp274
g54
V10.1104/pp.111.4.987
p275
sg50
VPLANT PHYSIOL
p276
sg52
V111
p277
sg84
(lp278
(VRUTHERFORD
VR
tp279
asg17
I1996
sg46
VLANT
p280
sbag1
(g2
g3
NtRp281
(dp282
g54
V10.1016/S0092-8674(00)81535-4
p283
sg50
VCELL
p284
sg52
V99
p285
sg84
(lp286
(VSABATINI
VS
tp287
asg17
I1999
sg46
V463
p288
sbag1
(g2
g3
NtRp289
(dp290
g54
Nsg50
VDEVELOPMENT
p291
sg52
V121
p292
sg84
(lp293
(VSCHERES
VB
tp294
asg17
I1995
sg46
V53
p295
sbag1
(g2
g3
NtRp296
(dp297
g54
V10.1093/jxb/46.1.143
p298
sg50
VJ EXP BOT
p299
sg52
V46
p300
sg84
(lp301
(VSIMMONS
VC
tp302
asg17
I1995
sg46
V143
p303
sbag1
(g2
g3
NtRp304
(dp305
g54
Nsg50
VHORTSCIENCE
p306
sg52
V27
p307
sg84
(lp308
(VTAKAHASHI
VH
tp309
asg17
I1992
sg46
V430
p310
sbag1
(g2
g3
NtRp311
(dp312
g54
V10.1104/pp.98.1.246
p313
sg50
VPLANT PHYSIOL
p314
sg52
V98
p315
sg84
(lp316
(VTAKAHASHI
VH
tp317
asg17
I1992
sg46
VLANT
p318
sbag1
(g2
g3
NtRp319
(dp320
g54
V10.1007/BF02509304
p321
sg50
VJ PLANT RES
p322
sg52
V110
p323
sg84
(lp324
(VTAKAHASHI
VH
tp325
asg17
I1997
sg46
V163
p326
sbag1
(g2
g3
NtRp327
(dp328
g54
V10.1007/BF02344481
p329
sg50
VJ PLANT RES
p330
sg52
V109
p331
sg84
(lp332
(VTAKAHASHI
VH
tp333
asg17
I1996
sg46
V335
p334
sbag1
(g2
g3
NtRp335
(dp336
g54
V10.1104/pp.96.2.558
p337
sg50
VPLANT PHYSIOL
p338
sg52
V96
p339
sg84
(lp340
(VTAKAHASHI
VH
tp341
asg17
I1991
sg46
VLANT
p342
sbag1
(g2
g3
NtRp343
(dp344
g54
Nsg50
VPHYSIOL PLANTARUM
p345
sg52
V82
p346
sg84
(lp347
(VTAKAHASHI
VH
tp348
asg17
I1991
sg46
VHYSIOL
p349
sbag1
(g2
g3
NtRp350
(dp351
g54
Nsg50
VDEVELOPMENT
p352
sg52
V126
p353
sg84
(lp354
(VTIAN
VQ
tp355
asg17
I1999
sg46
V711
p356
sbag1
(g2
g3
NtRp357
(dp358
g54
V10.1073/pnas.96.22.12941
p359
sg50
VP NATL ACAD SCI USA
p360
sg52
V96
p361
sg84
(lp362
(VTSUGEKI
VR
tp363
asg17
I1999
sg46
V12941
p364
sbag1
(g2
g3
NtRp365
(dp366
g54
V10.1105/tpc.12.1.97
p367
sg50
VPLANT CELL
p368
sg52
V12
p369
sg84
(lp370
(VVERNOUX
VT
tp371
asg17
I2000
sg46
VLANT
p372
sbag1
(g2
g3
NtRp373
(dp374
g54
Nsg50
VDEVELOPMENT
p375
sg52
V125
p376
sg84
(lp377
(VWILLEMSEN
VV
tp378
asg17
I1998
sg46
V521
p379
sbag1
(g2
g3
NtRp380
(dp381
g54
V10.1080/713608147
p382
sg50
VCRIT REV PLANT SCI
p383
sg52
V16
p384
sg84
(lp385
(VZHU
VJ K
tp386
asg17
I1997
sg46
V253
p387
sbasb.