ccopy_reg
_reconstructor
p1
(ctethne.classes.paper
Paper
p2
c__builtin__
object
p3
NtRp4
(dp5
S'publisherCity'
p6
VROCKVILLE
p7
sS'reprintAddress'
p8
VVogel, JP (reprint author), ARS, Genom & Gene Discovery Res Unit, USDA, Western Reg Res Ctr, Albany, CA 94710 USA.
p9
sS'WC'
p10
VPlant Sciences
p11
sS'GA'
p12
V814XZ
p13
sS'pageEnd'
p14
I13
sS'date'
p15
I2011
sS'documentType'
p16
VEditorial Material
p17
sS'subject'
p18
VPlant Sciences
p19
sS'isoSource'
p20
VPlant Physiol.
p21
sS'timesCited'
p22
(lp23
I29
aVZ9 31
p24
asS'PT'
p25
VJ
sS'title'
p26
VBrachypodium As A Model For The Grasses: Today And The Future
p27
sS'ISSN'
p28
(lp29
V0032-0889
p30
aVJ9 PLANT PHYSIOL
p31
asS'authors_full'
p32
(lp33
(VBRKLJACIC
VJELENA
tp34
a(VGROTEWOLD
VERICH
tp35
a(VSCHOLL
VRANDY
tp36
a(VMOCKLER
VTODD
tp37
a(VGARVIN
VDAVID F
tp38
a(VVAIN
VPHILIPPE
tp39
a(VBRUTNELL
VTHOMAS
tp40
a(VSIBOUT
VRICHARD
tp41
a(VBEVAN
VMICHAEL
tp42
a(VBUDAK
VHIKMET
tp43
a(VCAICEDO
VANA L
tp44
a(VGAO
VCAIXIA
tp45
a(VGU
VYONG
tp46
a(VHAZEN
VSAMUEL P
tp47
a(VHOLT
VBEN F
tp48
a(VHONG
VSHINYOUNG
tp49
a(VJORDAN
VMARK
tp50
a(VMANZANEDA
VANTONIO J
tp51
a(VMITCHELLOLDS
VTHOMAS
tp52
a(VMOCHIDA
VKEIICHI
tp53
a(VMUR
VLUIS A J
tp54
a(VPARK
VCHUNGMO
tp55
a(VSEDBROOK
VJOHN
tp56
a(VWATT
VMICHELLE
tp57
a(VZHENG
VSHAO JIAN
tp58
a(VVOGEL
VJOHN P
tp59
asS'PG'
p60
I11
sS'PD'
p61
VSEP
p62
sS'pageStart'
p63
I3
sS'issue'
p64
I1
sS'RI'
p65
(lp66
VZheng, Shao Jian/A-3552-2009; Mochida, Keiichi/H-5326-2012;
p67
aVMitchell-Olds, Thomas/K-8121-2012; Holt, Ben /D-1513-2011; Watt,
p68
aVMichelle/F-8941-2010
p69
asS'journal'
p70
VPLANT PHYSIOLOGY
p71
sS'volume'
p72
V157
p73
sS'doi'
p74
V10.1104/pp.111.179531
p75
sS'emailAddress'
p76
Vjohn.vogel@ars.usda.gov
p77
sS'authorAddress'
p78
(lp79
V[Gu, Yong; Vogel, John P.] ARS, Genom & Gene Discovery Res Unit, USDA, Western Reg Res Ctr, Albany, CA 94710 USA.
p80
aV[Brkljacic, Jelena; Grotewold, Erich; Scholl, Randy] Ohio State Univ, Ctr Plant Biotechnol, Columbus, OH 43210 USA.
p81
aV[Brkljacic, Jelena; Grotewold, Erich; Scholl, Randy] Ohio State Univ, Dept Mol Genet, Columbus, OH 43210 USA.
p82
aV[Mockler, Todd] Oregon State Univ, Dept Bot & Plant Pathol, Corvallis, OR 97331 USA.
p83
aV[Mockler, Todd] Oregon State Univ, Ctr Genome Res & Biocomp, Corvallis, OR 97331 USA.
p84
aV[Garvin, David F.] Univ Minnesota, USDA ARS, Plant Sci Res Unit, St Paul, MN 55108 USA.
p85
aV[Garvin, David F.] Univ Minnesota, Dept Agron & Plant Genet, St Paul, MN 55108 USA.
p86
aV[Vain, Philippe] John Innes Ctr, Crop Genet Dept, Norwich NR4 7UJ, Norfolk, England.
p87
aV[Bevan, Michael] John Innes Ctr, Dept Cell & Dev Biol, Norwich NR4 7UJ, Norfolk, England.
p88
aV[Brutnell, Thomas] Boyce Thompson Inst Plant Res, Ithaca, NY 14853 USA.
p89
aV[Scholl, Randy] Inst Natl Rech Agron AgroParisTech, Inst Jean Pierre Bourgin, UMR1318, F-78026 Versailles, France.
p90
aV[Budak, Hikmet] Sabanci Univ, Fac Engn & Nat Sci, TR-34956 Istanbul, Turkey.
p91
aV[Caicedo, Ana L.; Hazen, Samuel P.] Univ Massachusetts, Dept Biol, Amherst, MA 01003 USA.
p92
aV[Gao, Caixia] Chinese Acad Sci, Inst Genet & Dev Biol, State Lab Plant Cell & Chromosome Engn, Beijing 100101, Peoples R China.
p93
aV[Holt, Ben F., III] Univ Oklahoma, Dept Bot & Microbiol, Norman, OK 73019 USA.
p94
aV[Hong, Shin-Young; Park, Chung-Mo] Seoul Natl Univ, Dept Chem, Seoul 151742, South Korea.
p95
aV[Jordan, Mark] Agr & Agri Food Canada, Cereal Res Ctr, Winnipeg, MB R3T 2M9, Canada.
p96
aV[Manzaneda, Antonio J.] Univ Jaen, Dept Biol Anim Biol Vegetal & Ecol, Jaen 23071, Spain.
p97
aV[Mitchell-Olds, Thomas] Duke Univ, Dept Biol, Inst Genome Sci & Policy, Durham, NC 27708 USA.
p98
aV[Mochida, Keiichi] RIKEN Plant Sci Ctr, RIKEN Biomass Engn Program, Kanagawa 2300045, Japan.
p99
aV[Mur, Luis A. J.] Aberystwyth Univ, Inst Biol Environm & Rural Sci, Aberystwyth SY23 3DA, Dyfed, Wales.
p100
aV[Sedbrook, John] Illinois State Univ, Sch Biol Sci, Normal, IL 61790 USA.
p101
aV[Sedbrook, John] Dept Energy Great Lakes Bioenergy Res Ctr, Normal, IL 61790 USA.
p102
aV[Watt, Michelle] CSIRO Plant Ind, Canberra, ACT 2601, Australia.
p103
aV[Zheng, Shao Jian] Zhejiang Univ, Coll Life Sci, Hangzhou 310058, Zhejiang, Peoples R China.
p104
asS'publisherAddress'
p105
V15501 MONONA DRIVE, ROCKVILLE, MD 20855 USA
p106
sS'ER'
p107
V
sS'publisher'
p108
VAMER SOC PLANT BIOLOGISTS
p109
sS'authorKeywords'
p110
(lp111
VAGROBACTERIUM-MEDIATED TRANSFORMATION
p112
aVGENETIC-LINKAGE MAP
p113
aVFUNCTIONAL GENOMICS
p114
aVDISTACHYON
p115
aVPLANT
p116
aVARABIDOPSIS
p117
aVWHEAT
p118
aVSYSTEM
p119
aVRICE
p120
aVIDENTIFICATION
p121
asS'OI'
p122
VZheng, Shao Jian/0000-0002-3336-8165; 
p123
sS'language'
p124
VEnglish
p125
sS'wosid'
p126
VWOS:000294491800001
p127
sS'citationCount'
p128
I48
sS'authors_init'
p129
(lp130
(VBRKLJACIC
VJ
tp131
a(VGROTEWOLD
VE
tp132
a(VSCHOLL
VR
tp133
a(VMOCKLER
VT
tp134
a(VGARVIN
VD F
tp135
a(VVAIN
VP
tp136
a(VBRUTNELL
VT
tp137
a(VSIBOUT
VR
tp138
a(VBEVAN
VM
tp139
a(VBUDAK
VH
tp140
a(VCAICEDO
VA L
tp141
a(VGAO
VC X
tp142
a(VGU
VY
tp143
a(VHAZEN
VS P
tp144
a(VHOLT
VB F
tp145
a(VHONG
VS Y
tp146
a(VJORDAN
VM
tp147
a(VMANZANEDA
VA J
tp148
a(VMITCHELLOLDS
VT
tp149
a(VMOCHIDA
VK
tp150
a(VMUR
VL A J
tp151
a(VPARK
VC M
tp152
a(VSEDBROOK
VJ
tp153
a(VWATT
VM
tp154
a(VZHENG
VS J
tp155
a(VVOGEL
VJ P
tp156
asS'citedReferences'
p157
(lp158
g1
(g2
g3
NtRp159
(dp160
g74
V10.1104/pp.110.170811
p161
sg70
VPLANT PHYSIOL
p162
sg72
V156
p163
sg129
(lp164
(VBOLON
VY T
tp165
asg15
I2011
sg63
VLANT
p166
sbag1
(g2
g3
NtRp167
(dp168
g74
V10.1105/tpc.110.075309
p169
sg70
VPLANT CELL
p170
sg72
V22
p171
sg129
(lp172
(VBRUTNELL
VT P
tp173
asg15
I2010
sg63
VLANT
p174
sbag1
(g2
g3
NtRp175
(dp176
g74
V10.1186/1472-6750-11-53
p177
sg70
VBMC BIOTECHNOL
p178
sg72
V11
p179
sg129
(lp180
(VCAO
VS H
tp181
asg15
I2011
sg63
Nsbag1
(g2
g3
NtRp182
(dp183
g74
V10.1007/s11240-009-9623-x
p184
sg70
VPLANT CELL TISS ORG
p185
sg72
V100
p186
sg129
(lp187
(VDEMIRCAN
VT
tp188
asg15
I2010
sg63
VLANT
p189
sbag1
(g2
g3
NtRp190
(dp191
g74
V10.1104/pp.108.129627
p192
sg70
VPLANT PHYSIOL
p193
sg72
V149
p194
sg129
(lp195
(VDOUST
VA N
tp196
asg15
I2009
sg63
VLANT
p197
sbag1
(g2
g3
NtRp198
(dp199
g74
V10.1104/pp.127.4.1539
p200
sg70
VPLANT PHYSIOL
p201
sg72
V127
p202
sg129
(lp203
(VDRAPER
VJ
tp204
asg15
I2001
sg63
VLANT
p205
sbag1
(g2
g3
NtRp206
(dp207
g74
V10.1371/journal.pone.0013461
p208
sg70
VPLOS ONE
p209
sg72
V5
sg129
(lp210
(VFEBRER
VM
tp211
asg15
I2010
sg63
VLOS
p212
sbag1
(g2
g3
NtRp213
(dp214
g74
V[10.1139/g09-062, 10.1139/G09-062]
p215
sg70
VGENOME
p216
sg72
V52
p217
sg129
(lp218
(VFILIZ
VE
tp219
asg15
I2009
sg63
V876
p220
sbag1
(g2
g3
NtRp221
(dp222
g74
V10.1007/978-1-59745-427-8_1
p223
sg70
VV513
p224
sg72
V513
p225
sg129
(lp226
(VFLAVELL
VRICHARD
tp227
asg15
I2009
sg63
V1
sbag1
(g2
g3
NtRp228
(dp229
g74
V[10.1139/g09-079, 10.1139/G09-079]
p230
sg70
VGENOME
p231
sg72
V53
p232
sg129
(lp233
(VGARVIN
VD F
tp234
asg15
I2010
sg63
V1
sbag1
(g2
g3
NtRp235
(dp236
g74
Nsg70
VGENETICS
p237
sg72
V164
p238
sg129
(lp239
(VGREENE
VE A
tp240
asg15
I2003
sg63
V731
p241
sbag1
(g2
g3
NtRp242
(dp243
g74
V10.4161/psb.5.12.13621
p244
sg70
VPlant Signal Behav
p245
sg72
V5
sg129
(lp246
(VGU
VYING
tp247
asg15
I2010
sg63
Vlant
p248
sbag1
(g2
g3
NtRp249
(dp250
g74
V10.1093/jxb/erq332
p251
sg70
VJ EXP BOT
p252
sg72
V62
p253
sg129
(lp254
(VGUILLON
VF
tp255
asg15
I2011
sg63
V1001
p256
sbag1
(g2
g3
NtRp257
(dp258
g74
V10.1371/journal.pone.0010065
p259
sg70
VPLOS ONE
p260
sg72
V5
sg129
(lp261
(VHIGGINS
VJ A
tp262
asg15
I2010
sg63
VLOS
p263
sbag1
(g2
g3
NtRp264
(dp265
g74
V10.1007/s11103-009-9456-3
p266
sg70
VPLANT MOL BIOL
p267
sg72
V70
p268
sg129
(lp269
(VHUO
VN X
tp270
asg15
I2009
sg63
VLANT
p271
sbag1
(g2
g3
NtRp272
(dp273
g74
V10.1139/G06-087
p274
sg70
VGENOME
p275
sg72
V49
p276
sg129
(lp277
(VHUO
VN X
tp278
asg15
I2006
sg63
V1099
p279
sbag1
(g2
g3
NtRp280
(dp281
g74
V10.1007/s00122-011-1598-4
p282
sg70
VTHEOR APPL GENET
p283
sg72
V123
p284
sg129
(lp285
(VHUO
VN X
tp286
asg15
I2011
sg63
V455
p287
sbag1
(g2
g3
NtRp288
(dp289
g74
V10.1007/s10142-007-0062-7
p290
sg70
VFUNCT INTEGR GENOMIC
p291
sg72
V8
sg129
(lp292
(VHUO
VN X
tp293
asg15
I2008
sg63
V135
p294
sbag1
(g2
g3
NtRp295
(dp296
g74
Nsg70
VAPPL NOVEL CYTOGENET
p297
sg72
Nsg129
(lp298
(VJENKINS
VG
tp299
asg15
I2003
sg63
V77
p300
sbag1
(g2
g3
NtRp301
(dp302
g74
V10.1038/nrg2286
p303
sg70
VNAT REV GENET
p304
sg72
V9
sg129
(lp305
(VJUNG
VK H
tp306
asg15
I2008
sg63
V91
p307
sbag1
(g2
g3
NtRp308
(dp309
g74
V10.1104/pp.125.3.1198
p310
sg70
VPLANT PHYSIOL
p311
sg72
V125
p312
sg129
(lp313
(VKELLOGG
VE A
tp314
asg15
I2001
sg63
VLANT
p315
sbag1
(g2
g3
NtRp316
(dp317
g74
Nsg70
VARABID INF SERV
p318
sg72
V24
p319
sg129
(lp320
(VKRANZ
VA R
tp321
asg15
I1987
sg63
V1
sbag1
(g2
g3
NtRp322
(dp323
g74
V10.1093/jxb/erq050
p324
sg70
VJ EXP BOT
p325
sg72
V61
p326
sg129
(lp327
(VLARRE
VC
tp328
asg15
I2010
sg63
V1771
p329
sbag1
(g2
g3
NtRp330
(dp331
g74
V10.1073/pnas.0908195106
p332
sg70
VP NATL ACAD SCI USA
p333
sg72
V106
p334
sg129
(lp335
(VLUO
VM C
tp336
asg15
I2009
sg63
V15780
p337
sbag1
(g2
g3
NtRp338
(dp339
g74
V10.1111/j.1399-3054.2010.01413.x
p340
sg70
VPHYSIOL PLANTARUM
p341
sg72
V141
p342
sg129
(lp343
(VLUO
VN
tp344
asg15
I2011
sg63
VHYSIOL
p345
sbag1
(g2
g3
NtRp346
(dp347
g74
V10.1104/pp.123.2.439
p348
sg70
VPLANT PHYSIOL
p349
sg72
V123
p350
sg129
(lp351
(VMCCALLUM
VC M
tp352
asg15
I2000
sg63
VLANT
p353
sbag1
(g2
g3
NtRp354
(dp355
g74
V10.1104/pp.103.024877
p356
sg70
VPLANT PHYSIOL
p357
sg72
V133
p358
sg129
(lp359
(VMEINKE
VD
tp360
asg15
I2003
sg63
VLANT
p361
sbag1
(g2
g3
NtRp362
(dp363
g74
V10.1104/pp.109.145318
p364
sg70
VPLANT PHYSIOL
p365
sg72
V152
p366
sg129
(lp367
(VMUTWIL
VM
tp368
asg15
I2010
sg63
VLANT
p369
sbag1
(g2
g3
NtRp370
(dp371
g74
V10.1016/j.plantsci.2006.01.012
p372
sg70
VPLANT SCI
p373
sg72
V170
p374
sg129
(lp375
(VOLSEN
VP
tp376
asg15
I2006
sg63
VLANT
p377
sbag1
(g2
g3
NtRp378
(dp379
g74
V10.1093/jxb/erq309
p380
sg70
VJ EXP BOT
p381
sg72
V62
p382
sg129
(lp383
(VOPANOWICZ
VM
tp384
asg15
I2011
sg63
V735
p385
sbag1
(g2
g3
NtRp386
(dp387
g74
V10.1016/j.tplants.2008.01.007
p388
sg70
VTRENDS PLANT SCI
p389
sg72
V13
p390
sg129
(lp391
(VOPANOWICZ
VM
tp392
asg15
I2008
sg63
V172
p393
sbag1
(g2
g3
NtRp394
(dp395
g74
V10.1186/1746-4811-6-26
p396
sg70
VPLANT METHODS
p397
sg72
V6
sg129
(lp398
(VPACAK
VA
tp399
asg15
I2010
sg63
VLANT
p400
sbag1
(g2
g3
NtRp401
(dp402
g74
V10.1007/s11248-007-9159-y
p403
sg70
VTRANSGENIC RES
p404
sg72
V17
p405
sg129
(lp406
(VPACURAR
VD I
tp407
asg15
I2008
sg63
V965
p408
sbag1
(g2
g3
NtRp409
(dp410
g74
V10.1186/1471-2229-11-100
p411
sg70
VBMC PLANT BIOL
p412
sg72
V11
p413
sg129
(lp414
(VPERALDI
VA
tp415
asg15
I2011
sg63
Nsbag1
(g2
g3
NtRp416
(dp417
g74
V10.1073/pnas.0503392102
p418
sg70
VP NATL ACAD SCI USA
p419
sg72
V102
p420
sg129
(lp421
(VPERSSON
VS
tp422
asg15
I2005
sg63
V8633
p423
sbag1
(g2
g3
NtRp424
(dp425
g74
V10.1007/s10142-010-0190-3
p426
sg70
VFUNCT INTEGR GENOMIC
p427
sg72
V10
p428
sg129
(lp429
(VQI
VL L
tp430
asg15
I2010
sg63
V477
p431
sbag1
(g2
g3
NtRp432
(dp433
g74
V10.1038/nrg927
p434
sg70
VNAT REV GENET
p435
sg72
V3
sg129
(lp436
(VSOMERVILLE
VC
tp437
asg15
I2002
sg63
V883
p438
sbag1
(g2
g3
NtRp439
(dp440
g74
V10.1007/s00122-007-0582-5
p441
sg70
VTHEOR APPL GENET
p442
sg72
V115
p443
sg129
(lp444
(VSRINIVASACHARY
S''
tp445
asg15
I2007
sg63
V489
p446
sbag1
(g2
g3
NtRp447
(dp448
g74
V10.1111/j.1467-7652.2010.00518.x
p449
sg70
VPLANT BIOTECHNOL J
p450
sg72
V8
sg129
(lp451
(VTHOLE
VV
tp452
asg15
I2010
sg63
VLANT
p453
sbag1
(g2
g3
NtRp454
(dp455
g74
V10.1111/j.1467-7652.2007.00308.x
p456
sg70
VPLANT BIOTECHNOL J
p457
sg72
V6
sg129
(lp458
(VVAIN
VP
tp459
asg15
I2008
sg63
VLANT
p460
sbag1
(g2
g3
NtRp461
(dp462
g74
V10.1111/j.1365-313X.2011.04555.x
p463
sg70
VPLANT J
p464
sg72
V66
p465
sg129
(lp466
(VVAIN
VP
tp467
asg15
I2011
sg63
VLANT
p468
sbag1
(g2
g3
NtRp469
(dp470
g74
V10.1016/j.pbi.2008.03.002
p471
sg70
VCURR OPIN PLANT BIOL
p472
sg72
V11
p473
sg129
(lp474
(VVOGEL
VJ
tp475
asg15
I2008
sg63
V301
p476
sbag1
(g2
g3
NtRp477
(dp478
g74
V10.1007/s00299-007-0472-y
p479
sg70
VPLANT CELL REP
p480
sg72
V27
p481
sg129
(lp482
(VVOGEL
VJ
tp483
asg15
I2008
sg63
VLANT
p484
sbag1
(g2
g3
NtRp485
(dp486
g74
V10.1038/nature08747
p487
sg70
VNATURE
p488
sg72
V463
p489
sg129
(lp490
(VVOGEL
VJ P
tp491
asg15
I2010
sg63
V763
p492
sbag1
(g2
g3
NtRp493
(dp494
g74
Nsg70
VPLANT CELL TISSUE OR
p495
sg72
V85
p496
sg129
(lp497
(VVOGEL
VJ P
tp498
asg15
I2006
sg63
VLANT
p499
sbag1
(g2
g3
NtRp500
(dp501
g74
V10.1186/1471-2229-9-88
p502
sg70
VBMC PLANT BIOL
p503
sg72
V9
sg129
(lp504
(VVOGEL
VJ P
tp505
asg15
I2009
sg63
Nsbag1
(g2
g3
NtRp506
(dp507
g74
Nsg70
VJ CEREAL SCI
p508
sg72
V52
p509
sg129
(lp510
(VWANG
VK
tp511
asg15
I2011
sg63
V177
p512
sbag1
(g2
g3
NtRp513
(dp514
g74
V10.1071/FP09214
p515
sg70
VFUNCT PLANT BIOL
p516
sg72
V36
p517
sg129
(lp518
(VWATT
VM
tp519
asg15
I2009
sg63
V960
p520
sbasb.