ccopy_reg
_reconstructor
p1
(ctethne.classes.paper
Paper
p2
c__builtin__
object
p3
NtRp4
(dp5
S'publisherCity'
p6
VHOBOKEN
p7
sS'reprintAddress'
p8
VLu, Y (reprint author), Chinese Acad Forestry, Res Inst Wood Ind, Beijing 100091, Peoples R China.
p9
sS'WC'
p10
(lp11
VPOLYMER SCIENCE
p12
asS'GA'
p13
VCE2XP
p14
sS'FX'
p15
(lp16
VThis work was financially supported by the National Natural Science
p17
aVFoundation of China (contract grant number 31270590), a project funded
p18
aVby the China Postdoctoral Science Foundation (contract grant number
p19
aV2013M540263), and the Doctoral Candidate Innovation Research Support
p20
aVProgram of Science & Technology Review (contract grant number
p21
aVkjdb2012006).
p22
asS'abstract'
p23
VUltralight aerogels based on nanofibrillated cellulose (NFC) isolated from coconut shell were successfully prepared via a mild fast method, which included chemical pretreatment, ultrasonic isolation, solvent exchange, and tert-butanol freeze drying. The as-prepared NFC aerogels with complex three-dimensional fibrillar networks had a low bulk density of 0.84 mg/cm(3) (specific surface area=9.1 m(2)/g and pore volume=0.025 cm(3)/g), maintained a cellulose I crystal structure, and showed more superior thermal stability than the coconut shell raw materials. After the hydrophobic modification by methyl trichlorosilane (MTCS), the NFC aerogels exhibited high water repellency properties, an ultrastrong oil-adsorption capacity (542 times that of the original dry weight of diesel oil), and superior oil-water separation performance. Moreover, the absorption capabilities of the MTCS-treated NFC aerogels were as high as 296-669 times their own weights for various organic solvents and oil. Thus, this class of high-performance adsorbing materials might be useful for dealing with chemical leaks and oil spills. (c) 2015 Wiley Periodicals, Inc. J. Appl. Polym. Sci. 2015, 132, 42037.
p24
sS'keywordsPlus'
p25
(lp26
Vadsorption; cellulose and other wood products; functionalization of
p27
aVpolymers; nanostructured polymers; surfaces and interfaces
p28
asS'date'
p29
I2015
sS'documentType'
p30
VArticle
p31
sS'subject'
p32
(lp33
VPOLYMER SCIENCE
p34
asS'isoSource'
p35
VJ. Appl. Polym. Sci.
p36
sS'timesCited'
p37
VZ9 0
p38
sS'funding'
p39
(lp40
(VNational Natural Science Foundation of China
V31270590
tp41
a(VChina Postdoctoral Science Foundation
V2013M540263
tp42
a(VDoctoral Candidate Innovation Research Support Program of Science & Technology Review
Vkjdb2012006
tp43
asS'PT'
p44
VJ
sS'title'
p45
VUltralight And Hydrophobic Nanofibrillated Cellulose Aerogels From Coconut Shell With Ultrastrong Adsorption Properties
p46
sS'ISSN'
p47
V0021-8995
p48
sS'authors_full'
p49
(lp50
(VWAN
VCAICHAO
tp51
a(VLU
VYUN
tp52
a(VJIAO
VYUE
tp53
a(VJIN
VCHUNDE
tp54
a(VSUN
VQINGFENG
tp55
a(VLI
VJIAN
tp56
asS'PG'
p57
I7
sS'PD'
p58
VJUN 20
p59
sS'issue'
p60
I24
sS'RI'
p61
Vahmed, Jamila/E-8653-2015
p62
sS'doi'
p63
V10.1002/app.42037
p64
sS'EI'
p65
(lp66
V1097-4628
p67
aVJ9 J APPL POLYM SCI
p68
asS'journal'
p69
VJOURNAL OF APPLIED POLYMER SCIENCE
p70
sS'volume'
p71
V132
p72
sS'AR'
p73
I42037
sS'emailAddress'
p74
Vluyun@criwi.org.cn; qfsun@nefu.edu.cn; nefulijian@163.com
p75
sS'authorAddress'
p76
(lp77
V[Wan, Caichao; Jiao, Yue; Li, Jian] Northeast Forestry Univ, Mat Sci & Engn Coll, Harbin 150040, Peoples R China.
p78
aV[Lu, Yun] Chinese Acad Forestry, Res Inst Wood Ind, Beijing 100091, Peoples R China.
p79
aV[Jin, Chunde; Sun, Qingfeng] Zhejiang Agr & Forestry Univ, Sch Engn, Linan 311300, Peoples R China.
p80
asS'publisherAddress'
p81
V111 RIVER ST, HOBOKEN 07030-5774, NJ USA
p82
sS'publisher'
p83
VWILEY-BLACKWELL
p84
sS'authorKeywords'
p85
(lp86
VCARBON AEROGELS
p87
aVCOMPOSITE-MATERIALS
p88
aVNANOPARTICLES
p89
aVHYDROXIDE
p90
aVADSORBENT
p91
aVHYDROGEL
p92
aVSUPPORT
p93
aVLIQUIDS
p94
aVWOOD
p95
aVCO2
p96
asS'language'
p97
VEnglish
p98
sS'wosid'
p99
VWOS:000351685500001
p100
sS'citationCount'
p101
I46
sS'authors_init'
p102
(lp103
(VWAN
VC C
tp104
a(VLU
VY
tp105
a(VJIAO
VY
tp106
a(VJIN
VC D
tp107
a(VSUN
VQ F
tp108
a(VLI
VJ
tp109
asS'citedReferences'
p110
(lp111
g1
(g2
g3
NtRp112
(dp113
g63
Nsg69
VPOLYM DEGRAD STABIL
p114
sg71
V92
p115
sg102
(lp116
(VASSUNCAO
VR
tp117
asg29
I2007
sS'pageStart'
p118
VOLYM
p119
sbag1
(g2
g3
NtRp120
(dp121
g63
V10.1039/c001939a
p122
sg69
VSOFT MATTER
p123
sg71
V6
sg102
(lp124
(VAULIN
VC
tp125
asg29
I2010
sg118
V3298
p126
sbag1
(g2
g3
NtRp127
(dp128
g63
V10.1002/cssc.200700039
p129
sg69
VCHEMSUSCHEM
p130
sg71
V1
sg102
(lp131
(VCAI
VJ
tp132
asg29
I2008
sg118
V149
p133
sbag1
(g2
g3
NtRp134
(dp135
g63
V10.1039/c2jm33975g
p136
sg69
VJ MATER CHEM
p137
sg71
V22
p138
sg102
(lp139
(VCARLSSON
VD O
tp140
asg29
I2012
sg118
V19014
p141
sbag1
(g2
g3
NtRp142
(dp143
g63
V10.1007/s10570-011-9629-5
p144
sg69
VCELLULOSE
p145
sg71
V19
p146
sg102
(lp147
(VCERVIN
VN T
tp148
asg29
I2012
sg118
V401
p149
sbag1
(g2
g3
NtRp150
(dp151
g63
V10.1016/j.carbpol.2013.03.041
p152
sg69
VCARBOHYD POLYM
p153
sg71
V95
p154
sg102
(lp155
(VDONG
VH
tp156
asg29
I2013
sg118
V760
p157
sbag1
(g2
g3
NtRp158
(dp159
g63
V10.1016/S0032-3861(03)00398-7
p160
sg69
VPOLYMER
p161
sg71
V44
p162
sg102
(lp163
(VDUPONT
VA L
tp164
asg29
I2003
sg118
VOLYMER
p165
sbag1
(g2
g3
NtRp166
(dp167
g63
V10.1007/s10570-010-9480-0
p168
sg69
VCELLULOSE
p169
sg71
V18
p170
sg102
(lp171
(VFAHMA
VF
tp172
asg29
I2011
sg118
V443
p173
sbag1
(g2
g3
NtRp174
(dp175
g63
V10.1021/es202223p
p176
sg69
VENVIRON SCI TECHNOL
p177
sg71
V45
p178
sg102
(lp179
(VGEBALD
VC
tp180
asg29
I2011
sg118
V9101
p181
sbag1
(g2
g3
NtRp182
(dp183
g63
V10.1021/ie0201157
p184
sg69
VIND ENG CHEM RES
p185
sg71
V41
p186
sg102
(lp187
(VGRONLI
VM G
tp188
asg29
I2002
sg118
V4201
p189
sbag1
(g2
g3
NtRp190
(dp191
g63
V10.1016/j.jpowsour.2006.12.084
p192
sg69
VJ POWER SOURCES
p193
sg71
V166
p194
sg102
(lp195
(VGUILMINOT
VE
tp196
asg29
I2007
sg118
V104
p197
sbag1
(g2
g3
NtRp198
(dp199
g63
V10.1295/polymj.30.49
p200
sg69
VPOLYM J
p201
sg71
V30
p202
sg102
(lp203
(VHATTORI
VM
tp204
asg29
I1998
sg118
VOLYM
p205
sbag1
(g2
g3
NtRp206
(dp207
g63
V10.1039/c0gc00035c
p208
sg69
VGREEN CHEM
p209
sg71
V12
p210
sg102
(lp211
(VHEATH
VL
tp212
asg29
I2010
sg118
V1448
p213
sbag1
(g2
g3
NtRp214
(dp215
g63
V10.1016/j.jhazmat.2013.05.024
p216
sg69
VJ HAZARD MATER
p217
sg71
V260
p218
sg102
(lp219
(VISOBE
VN
tp220
asg29
I2013
sg118
V195
p221
sbag1
(g2
g3
NtRp222
(dp223
g63
V10.1038/srep00849
p224
sg69
VSCI REP
p225
sg71
V2
sg102
(lp226
(VJUNG
VS M
tp227
asg29
I2012
sg118
Nsbag1
(g2
g3
NtRp228
(dp229
g63
V10.1016/j.carbpol.2011.05.013
p230
sg69
VCARBOHYD POLYM
p231
sg71
V86
p232
sg102
(lp233
(VLAN
VW
tp234
asg29
I2011
sg118
V672
p235
sbag1
(g2
g3
NtRp236
(dp237
g63
V10.1021/bm200205z
p238
sg69
VBIOMACROMOLECULES
p239
sg71
V12
p240
sg102
(lp241
(VLI
VJ
tp242
asg29
I2011
sg118
V1860
p243
sbag1
(g2
g3
NtRp244
(dp245
g63
Nsg69
VFRONTIERS AGR SCI EN
p246
sg71
V1
sg102
(lp247
(VLI
VJ
tp248
asg29
I2014
sg118
V46
p249
sbag1
(g2
g3
NtRp250
(dp251
g63
V10.1515/HF.2009.002
p252
sg69
VHOLZFORSCHUNG
p253
sg71
V63
p254
sg102
(lp255
(VLIEBNER
VF
tp256
asg29
I2009
sg118
V3
sbag1
(g2
g3
NtRp257
(dp258
g63
V10.1002/polb.1989.090271208
p259
sg69
VJ POLYM SCI POL PHYS
p260
sg71
V27
p261
sg102
(lp262
(VLIU
VC K
tp263
asg29
I1989
sg118
V2493
p264
sbag1
(g2
g3
NtRp265
(dp266
g63
V10.1002/app.32959
p267
sg69
VJ APPL POLYM SCI
p268
sg71
V119
p269
sg102
(lp270
(VMIHRANYAN
VA
tp271
asg29
I2011
sg118
V2449
p272
sbag1
(g2
g3
NtRp273
(dp274
g63
V10.1016/j.carres.2005.08.007
p275
sg69
VCARBOHYD RES
p276
sg71
V340
p277
sg102
(lp278
(VOH
VS Y
tp279
asg29
I2005
sg118
V2376
p280
sbag1
(g2
g3
NtRp281
(dp282
g63
V10.1016/j.bios.2011.01.004
p283
sg69
VBIOSENS BIOELECTRON
p284
sg71
V26
p285
sg102
(lp286
(VOSMAN
VM H
tp287
asg29
I2011
sg118
V3087
p288
sbag1
(g2
g3
NtRp289
(dp290
g63
Nsg69
VJ INORG ORGANOMET
p291
sg71
Nsg102
(lp292
(VPAN
VH
tp293
asg29
I2014
sg118
V1
sbag1
(g2
g3
NtRp294
(dp295
g63
Nsg69
VBIOMACROMOLECULES
p296
sg71
V14
p297
sg102
(lp298
(VSAITO
VT
tp299
asg29
I2012
sg118
V248
p300
sbag1
(g2
g3
NtRp301
(dp302
g63
V10.1126/science.1211649
p303
sg69
VSCIENCE
p304
sg71
V334
p305
sg102
(lp306
(VSCHAEDLER
VT A
tp307
asg29
I2011
sg118
V962
p308
sbag1
(g2
g3
NtRp309
(dp310
g63
VDOI 10.1177/004051755902901003
p311
sg69
VTEXT RES J
p312
sg71
V29
p313
sg102
(lp314
(VSEGAL
VL
tp315
asg29
I1959
sg118
V786
p316
sbag1
(g2
g3
NtRp317
(dp318
g63
V10.1039/b927505c
p319
sg69
VSOFT MATTER
p320
sg71
V6
sg102
(lp321
(VSEHAQUI
VH
tp322
asg29
I2010
sg118
V1824
p323
sbag1
(g2
g3
NtRp324
(dp325
g63
V10.1016/j.carbpol.2010.10.043
p326
sg69
VCARBOHYD POLYM
p327
sg71
V83
p328
sg102
(lp329
(VSESCOUSSE
VR
tp330
asg29
I2011
sg118
V1766
p331
sbag1
(g2
g3
NtRp332
(dp333
g63
V10.1016/j.apsusc.2008.04.109
p334
sg69
VAPPL SURF SCI
p335
sg71
V254
p336
sg102
(lp337
(VSHEWALE
VP M
tp338
asg29
I2008
sg118
V6902
p339
sbag1
(g2
g3
NtRp340
(dp341
g63
V10.1002/app.39615
p342
sg69
VJ APPL POLYM SCI
p343
sg71
V130
p344
sg102
(lp345
(VSHI
VJ J
tp346
asg29
I2013
sg118
V3652
p347
sbag1
(g2
g3
NtRp348
(dp349
g63
V10.1016/j.carbpol.2013.05.082
p350
sg69
VCARBOHYD POLYM
p351
sg71
V98
p352
sg102
(lp353
(VSHI
VJ J
tp354
asg29
I2013
sg118
V282
p355
sbag1
(g2
g3
NtRp356
(dp357
g63
V10.1016/j.jcis.2011.04.031
p358
sg69
VJ COLLOID INTERF SCI
p359
sg71
V359
p360
sg102
(lp361
(VSHIRGHOLAMI
VM A
tp362
asg29
I2011
sg118
V530
p363
sbag1
(g2
g3
NtRp364
(dp365
g63
V10.1002/adma.201204576
p366
sg69
VADV MATER
p367
sg71
V25
p368
sg102
(lp369
(VSUN
VH Y
tp370
asg29
I2013
sg118
V2554
p371
sbag1
(g2
g3
NtRp372
(dp373
g63
V10.1039/c2jm32956e
p374
sg69
VJ MATER CHEM
p375
sg71
V22
p376
sg102
(lp377
(VTINGAUT
VP
tp378
asg29
I2012
sg118
V20105
p379
sbag1
(g2
g3
NtRp380
(dp381
g63
V10.1039/b803869d
p382
sg69
VGREEN CHEM
p383
sg71
V10
p384
sg102
(lp385
(VTSIOPTSIAS
VC
tp386
asg29
I2008
sg118
V965
p387
sbag1
(g2
g3
NtRp388
(dp389
g63
V10.1016/j.ejps.2013.02.023
p390
sg69
VEUR J PHARM SCI
p391
sg71
V50
p392
sg102
(lp393
(VVALO
VH
tp394
asg29
I2013
sg118
V69
p395
sbag1
(g2
g3
NtRp396
(dp397
g63
Nsg69
VCARBOHYD POLYM
p398
sg71
V118
p399
sg102
(lp400
(VWAN
VC
tp401
asg29
I2014
sg118
V115
p402
sbag1
(g2
g3
NtRp403
(dp404
g63
Nsg69
VMAT SCI TEC IN PRESS
p405
sg71
Nsg102
(lp406
(VWAN
VC
tp407
asg29
Nsg118
Nsbag1
(g2
g3
NtRp408
(dp409
g63
Nsg69
VANGEW CHEM
p410
sg71
V125
p411
sg102
(lp412
(VWU
VZ Y
tp413
asg29
I2013
sg118
V2997
p414
sbag1
(g2
g3
NtRp415
(dp416
g63
V10.1039/c3ta13314a
p417
sg69
VJ MATER CHEM A
p418
sg71
V1
sg102
(lp419
(VXIONG
VR
tp420
asg29
I2013
sg118
V14910
p421
sbag1
(g2
g3
NtRp422
(dp423
g63
V10.1016/j.fuel.2006.12.013
p424
sg69
VFUEL
p425
sg71
V86
p426
sg102
(lp427
(VYANG
VH P
tp428
asg29
I2007
sg118
V1781
p429
sbag1
(g2
g3
NtRp430
(dp431
g63
V10.1002/app.26865
p432
sg69
VJ APPL POLYM SCI
p433
sg71
V106
p434
sg102
(lp435
(VYANG
VW J
tp436
asg29
I2007
sg118
V2775
p437
sbag1
(g2
g3
NtRp438
(dp439
g63
V10.1021/nl401308v
p440
sg69
VNANO LETT
p441
sg71
V13
p442
sg102
(lp443
(VYIN
VJ
tp444
asg29
I2013
sg118
V3232
p445
sbag1
(g2
g3
NtRp446
(dp447
g63
V10.1016/j.carbpol.2011.11.054
p448
sg69
VCARBOHYD POLYM
p449
sg71
V88
p450
sg102
(lp451
(VZHANG
VX M
tp452
asg29
I2012
sg118
V26
p453
sbag1
(g2
g3
NtRp454
(dp455
g63
V10.1002/ ange.20 1206554
p456
sg69
VANGEW CHEM
p457
sg71
V124
p458
sg102
(lp459
(VZHAO
VY
tp460
asg29
I2012
sg118
V11533
p461
sbasb.