ccopy_reg
_reconstructor
p1
(ctethne.classes.paper
Paper
p2
c__builtin__
object
p3
NtRp4
(dp5
S'publisherCity'
p6
VPHILADELPHIA
p7
sS'reprintAddress'
p8
VLeschine, TM (reprint author), Univ Washington, Sch Marine & Environm Affairs, 3707 Brooklyn Ave NE,Box 355685, Seattle, WA 98105 USA.
p9
sS'WC'
p10
VBiodiversity Conservation; Environmental Sciences
p11
sS'GA'
p12
VAT4NH
p13
sS'FX'
p14
(lp15
VFunding for this project was provided by the University of New
p16
aVHampshire's Coastal Response Research Center (NOAA Grant Number:
p17
aVNA07NOS4630143, Contract: 13-003).
p18
asS'abstract'
p19
VScenario analysis (SA) is the process of developing plausible futures around the forces affecting an organization in the face of uncertainties over which it has little control. SA is widely used in the private sector and increasingly a tool of environmental planners grappling with problems of great complexity and uncertainty. SA ideally marries expert judgment with the broader perspectives engaged stakeholders bring. While the 1990 Oil Pollution Act (OPA) brought substantive improvement to oil spill contingency planning, many issues remain. Reguatorily prescribed definitions of 'worst case' lead to SA practice that seldom achieves the full promise of the SA approach. Contingency planning overly focused on tactical and operational considerations can leave response managers little prepared to deal with public concerns that emerge in the event of a major spill, concerns increasingly magnified through social media. Politics continues to contribute to poorly conceived contingency planning in which adopted scenarios bear little resemblance to events that subsequently transpire. Risk attenuation and risk amplification both inhibit scenario-based planning around oil spills, evinced by the Deepwater Horizon spill. Improvements in pre-planning in the aftermath of the Exxon Valdez oil spill nevertheless provide a foundation for more effective use of SA.
p20
sS'keywordsPlus'
p21
(lp22
VOIL SPILL
p23
aVSCENARIO ANALYSIS
p24
aVRISK
p25
asS'pageEnd'
p26
I666
sS'date'
p27
I2015
sS'documentType'
p28
VArticle
p29
sS'subject'
p30
VBiodiversity & Conservation; Environmental Sciences & Ecology
p31
sS'isoSource'
p32
VHum. Ecol. Risk Assess.
p33
sS'timesCited'
p34
(lp35
I0
aVZ9 0
p36
asS'funding'
p37
(lp38
(VUniversity of New Hampshire's Coastal Response Research Center (NOAA)
VNA07NOS4630143, 13-003
tp39
asS'PT'
p40
VJ
sS'title'
p41
VWhat-If Scenario Modeling To Support Oil Spill Preparedness And Response Decision-Making
p42
sS'ISSN'
p43
V1080-7039
p44
sS'authors_full'
p45
(lp46
(VLESCHINE
VTHOMAS M
tp47
a(VPAVIA
VROBERT
tp48
a(VWALKER
VANN HAYWARD
tp49
a(VBOSTROM
VANN
tp50
a(VSTARBIRD
VKATE
tp51
asS'PG'
p52
I21
sS'PD'
p53
VAPR 3
p54
sS'pageStart'
p55
I646
sS'issue'
p56
I3
sS'EI'
p57
(lp58
V1549-7860
p59
aVJ9 HUM ECOL RISK ASSESS
p60
asS'journal'
p61
VHUMAN AND ECOLOGICAL RISK ASSESSMENT
p62
sS'volume'
p63
V21
p64
sS'doi'
p65
V10.1080/10807039.2014.947868
p66
sS'emailAddress'
p67
Vtml@uw.edu
p68
sS'authorAddress'
p69
(lp70
V[Leschine, Thomas M.; Pavia, Robert] Univ Washington, Sch Marine & Environm Affairs, Seattle, WA 98105 USA.
p71
aV[Walker, Ann Hayward] SEA Consulting Grp, Cape Charles, VA USA.
p72
aV[Bostrom, Ann] Univ Washington, Daniel J Evans Sch Publ Affairs, Seattle, WA 98105 USA.
p73
aV[Starbird, Kate] Univ Washington, Seattle, WA 98105 USA.
p74
asS'publisherAddress'
p75
V530 WALNUT STREET, STE 850, PHILADELPHIA, PA 19106 USA
p76
sS'ER'
p77
V
sS'publisher'
p78
VTAYLOR & FRANCIS INC
p79
sS'authorKeywords'
p80
(lp81
VFUTURE
p82
aVRISK
p83
aVTOOL
p84
asS'language'
p85
VEnglish
p86
sS'wosid'
p87
VWOS:000344915500005
p88
sS'citationCount'
p89
I54
sS'authors_init'
p90
(lp91
(VLESCHINE
VT M
tp92
a(VPAVIA
VR
tp93
a(VWALKER
VA H
tp94
a(VBOSTROM
VA
tp95
a(VSTARBIRD
VK
tp96
asS'citedReferences'
p97
(lp98
g1
(g2
g3
NtRp99
(dp100
g65
V10.1016/j.futures.2012.10.003
p101
sg61
VFUTURES
p102
sg63
V46
p103
sg90
(lp104
(VAMER
VM
tp105
asg27
I2013
sg55
V23
p106
sbag1
(g2
g3
NtRp107
(dp108
g65
Nsg61
VARCT MAR SHIPP ASS R
p109
sg63
Nsg90
(lp110
(VARCTIC
VCOUNCIL
tp111
asg27
I2009
sg55
Nsbag1
(g2
g3
NtRp112
(dp113
g65
Nsg61
V0202 US COAST GUARD
p114
sg63
Nsg90
(lp115
(VAURAND
VD
tp116
asg27
I2003
sg55
Nsbag1
(g2
g3
NtRp117
(dp118
g65
V10.1016/S1353-2561(96)00005-9
p119
sg61
VSPILL SCI TECHNOL B
p120
sg63
V2
sg90
(lp121
(VAURAND
VD
tp122
asg27
I1995
sg55
V241
p123
sbag1
(g2
g3
NtRp124
(dp125
g65
Nsg61
VDEV CONSENSUS ECOLOG
p126
sg63
Nsg90
(lp127
(VAURAND
VD
tp128
asg27
I2000
sg55
Nsbag1
(g2
g3
NtRp129
(dp130
g65
Nsg61
VP INT OIL SPILL C MI
p131
sg63
Nsg90
(lp132
(VBARKER
VC H
tp133
asg27
I2005
sg55
V253
p134
sbag1
(g2
g3
NtRp135
(dp136
g65
V10.1890/080075
p137
sg61
VFRONT ECOL ENVIRON
p138
sg63
V8
sg90
(lp139
(VBIGGS
VR
tp140
asg27
I2010
sg55
V267
p141
sbag1
(g2
g3
NtRp142
(dp143
g65
V10.2307/3380654
p144
sg61
VPUBLIC PRODUCTIVITY
p145
sg63
V17
p146
sg90
(lp147
(VBLOOM
VM J
tp148
asg27
I1994
sg55
VUBLIC
p149
sbag1
(g2
g3
NtRp150
(dp151
g65
Nsg61
VP581
p152
sg63
V21
p153
sg90
(lp154
(VBOSTROM A HUM ECOL RISK ASSESS V21
S''
tp155
asg27
Nsg55
V581
p156
sbag1
(g2
g3
NtRp157
(dp158
g65
Nsg61
VP631
p159
sg63
V21
p160
sg90
(lp161
(VBOSTROM A HUM ECOL RISK ASSESS V21
S''
tp162
asg27
Nsg55
V631
p163
sbag1
(g2
g3
NtRp164
(dp165
g65
V10.1016/j.futures.2005.01.003
p166
sg61
VFUTURES
p167
sg63
V37
p168
sg90
(lp169
(VBRADFIELD
VR
tp170
asg27
I2005
sg55
V795
p171
sbag1
(g2
g3
NtRp172
(dp173
g65
Nsg61
VP INT OIL SPILL C PO
p174
sg63
Nsg90
(lp175
(VBRIGGS
VW
tp176
asg27
I2011
sg55
Nsbag1
(g2
g3
NtRp177
(dp178
g65
Nsg61
VECOSYSTEMS HUMAN WEL
p179
sg63
V2
sg90
(lp180
(VCARPENTER
VS R
tp181
asg27
I2003
sg55
Nsbag1
(g2
g3
NtRp182
(dp183
g65
Nsg61
VMISSION IMPROBABLE U
p184
sg63
Nsg90
(lp185
(VCLARKE
VL
tp186
asg27
I1999
sg55
Nsbag1
(g2
g3
NtRp187
(dp188
g65
Nsg61
V252 DEP INT
p189
sg63
Nsg90
(lp190
(VDEPARTMENT
VO F T H E INTERIOR
tp191
asg27
I2010
sg55
Nsbag1
(g2
g3
NtRp192
(dp193
g65
V10.1016/j.eiar.2006.11.001
p194
sg61
VENVIRON IMPACT ASSES
p195
sg63
V27
p196
sg90
(lp197
(VDUINKER
VP N
tp198
asg27
I2007
sg55
V206
p199
sbag1
(g2
g3
NtRp200
(dp201
g65
Nsg61
VAN WASH STAT VESS FA
p202
sg63
Nsg90
(lp203
(VERC ENVIRONMENTAL RESEARCH CONSULTING ERC
S''
tp204
asg27
I2001
sg55
Nsbag1
(g2
g3
NtRp205
(dp206
g65
Nsg61
VP INT OIL SPILL C VA
p207
sg63
Nsg90
(lp208
(VETKIN
VD S
tp209
asg27
I2003
sg55
V1317
p210
sbag1
(g2
g3
NtRp211
(dp212
g65
Nsg61
VP INT OIL SPILL C MI
p213
sg63
Nsg90
(lp214
(VETKIN
VD S
tp215
asg27
I2005
sg55
V467
p216
sbag1
(g2
g3
NtRp217
(dp218
g65
Nsg61
VP INT OIL SPILL C VA
p219
sg63
Nsg90
(lp220
(VETKIN
VD S
tp221
asg27
I2003
sg55
V47
p222
sbag1
(g2
g3
NtRp223
(dp224
g65
Nsg61
VSHELL SCEN
p225
sg63
Nsg90
(lp226
(VGLOBAL
VSHELL
tp227
asg27
I2014
sg55
Nsbag1
(g2
g3
NtRp228
(dp229
g65
V10.1111/j.1468-5973.1993.tb00109.x
p230
sg61
VJ CONTINGENCIES CRIS
p231
sg63
V1
sg90
(lp232
(VHARRALD
VJ R
tp233
asg27
I1993
sg55
V189
p234
sbag1
(g2
g3
NtRp235
(dp236
g65
Nsg61
VP INT OIL SPILL C TA
p237
sg63
Nsg90
(lp238
(VHOLT
VW
tp239
asg27
I2001
sg55
V605
p240
sbag1
(g2
g3
NtRp241
(dp242
g65
Nsg61
V40ELR1103340
p243
sg63
Nsg90
(lp244
(VHOUCK
VO A
tp245
asg27
I2010
sg55
Nsbag1
(g2
g3
NtRp246
(dp247
g65
V10.1016/0024-6301(87)90152-X
p248
sg61
VLONG RANGE PLANN
p249
sg63
V20
p250
sg90
(lp251
(VHUSS
VW R
tp252
asg27
I1987
sg55
V21
p253
sbag1
(g2
g3
NtRp254
(dp255
g65
Nsg61
VCLIMATE CHANGE 2007
p256
sg63
Nsg90
(lp257
(VIPCC
S''
tp258
asg27
I2007
sg55
Nsbag1
(g2
g3
NtRp259
(dp260
g65
V10.1007/s007660050002
p261
sg61
VRequirements Engineering
p262
sg63
V3
sg90
(lp263
(VJARKE
VM
tp264
asg27
I1998
sg55
Nsbag1
(g2
g3
NtRp265
(dp266
g65
V10.1016/S0377-2217(99)00217-9
p267
sg61
VEUR J OPER RES
p268
sg63
V121
p269
sg90
(lp270
(VJENKINS
VL
tp271
asg27
I2000
sg55
V275
p272
sbag1
(g2
g3
NtRp273
(dp274
g65
Nsg61
VTHINKING UNTHINKABLE
p275
sg63
Nsg90
(lp276
(VKAHN
VH
tp277
asg27
I1965
sg55
Nsbag1
(g2
g3
NtRp278
(dp279
g65
Nsg61
VP INT OIL SPILL C SE
p280
sg63
Nsg90
(lp281
(VKUCHIN
VJ T
tp282
asg27
I1999
sg55
V685
p283
sbag1
(g2
g3
NtRp284
(dp285
g65
Nsg61
VSHAPING NEXT 100 YEA
p286
sg63
Nsg90
(lp287
(VLEMPERT
VR J
tp288
asg27
I2003
sg55
Nsbag1
(g2
g3
NtRp289
(dp290
g65
V10.1016/S1353-2561(02)00050-6
p291
sg61
VSPILL SCI TECHNOL B
p292
sg63
V7
sg90
(lp293
(VLESCHINE
VT M
tp294
asg27
I2002
sg55
V63
p295
sbag1
(g2
g3
NtRp296
(dp297
g65
Nsg61
VP INT OIL SPILL C VA
p298
sg63
Nsg90
(lp299
(VLIMA
VJ A
tp300
asg27
I2003
sg55
V947
p301
sbag1
(g2
g3
NtRp302
(dp303
g65
Nsg61
VFINANCIAL TIMES
p304
sg63
Nsg90
(lp305
(VLORENZ
VC
tp306
asg27
I1990
sg55
Nsbag1
(g2
g3
NtRp307
(dp308
g65
Nsg61
VFUTURES RES Q
p309
sg63
V17
p310
sg90
(lp311
(VLYNHAM
VS A
tp312
asg27
I2001
sg55
V7
sbag1
(g2
g3
NtRp313
(dp314
g65
V10.1126/science.1195382
p315
sg61
VSCIENCE
p316
sg63
V329
p317
sg90
(lp318
(VMACHLIS
VG E
tp319
asg27
I2010
sg55
V1018
p320
sbag1
(g2
g3
NtRp321
(dp322
g65
Nsg61
VUNDERSTANDING RISK I
p323
sg63
Nsg90
(lp324
(VNRC
S''
tp325
asg27
I1996
sg55
Nsbag1
(g2
g3
NtRp326
(dp327
g65
Nsg61
VP 1997 INT OIL SPILL
p328
sg63
Nsg90
(lp329
(VOTT
VG L
tp330
asg27
I1997
sg55
V3
sbag1
(g2
g3
NtRp331
(dp332
g65
V10.1126/science.1196624
p333
sg61
VSCIENCE
p334
sg63
V330
p335
sg90
(lp336
(VPEREIRA
VH M
tp337
asg27
I2010
sg55
V1496
p338
sbag1
(g2
g3
NtRp339
(dp340
g65
V10.1046/j.1523-1739.2003.01491.x
p341
sg61
VCONSERV BIOL
p342
sg63
V17
p343
sg90
(lp344
(VPETERSON
VG D
tp345
asg27
I2003
sg55
V358
p346
sbag1
(g2
g3
NtRp347
(dp348
g65
Nsg61
VSOCIAL AMPLIFICATION
p349
sg63
Nsg90
(lp350
(VPIGEON
VN
tp351
asg27
I2003
sg55
Nsbag1
(g2
g3
NtRp352
(dp353
g65
V10.1016/j.techfore.2003.11.005
p354
sg61
VTECHNOL FORECAST SOC
p355
sg63
V72
p356
sg90
(lp357
(VPOSTMA
VTJBM
tp358
asg27
I2005
sg55
V161
p359
sbag1
(g2
g3
NtRp360
(dp361
g65
Nsg61
VP INT OIL SPILL C MI
p362
sg63
Nsg90
(lp363
(VREITER
VG
tp364
asg27
I2005
sg55
V969
p365
sbag1
(g2
g3
NtRp366
(dp367
g65
Nsg61
VSCENARIOS BUSINESS
p368
sg63
Nsg90
(lp369
(VRINGLAND
VG
tp370
asg27
I2002
sg55
Nsbag1
(g2
g3
NtRp371
(dp372
g65
Nsg61
VINT REV SOCIOLOGY
p373
sg63
V9
sg90
(lp374
(VRUBIN
VA
tp375
asg27
I1999
sg55
V349
p376
sbag1
(g2
g3
NtRp377
(dp378
g65
Nsg61
VP605
p379
sg63
V21
p380
sg90
(lp381
(VSTARBIRD K HUM ECOL RISK ASSESS V21
S''
tp382
asg27
Nsg55
V605
p383
sbag1
(g2
g3
NtRp384
(dp385
g65
V10.1016/j.jenvman.2007.07.025
p386
sg61
VJ ENVIRON MANAGE
p387
sg63
V88
p388
sg90
(lp389
(VTOMPKINS
VE L
tp390
asg27
I2008
sg55
V1580
p391
sbag1
(g2
g3
NtRp392
(dp393
g65
Nsg61
VCOMP STAKEHOLDERS OB
p394
sg63
Nsg90
(lp395
(VTULER
VS
tp396
asg27
I2008
sg55
Nsbag1
(g2
g3
NtRp397
(dp398
g65
Nsg61
VPIP HAZ MAT IN PRESS
p399
sg63
Nsg90
(lp400
(VUSCG EPA US ENVIRONMENTAL PROTECTION AGENCY
S''
tp401
asg27
I2014
sg55
VIP
p402
sbag1
(g2
g3
NtRp403
(dp404
g65
Nsg61
VNAT PREP RESP EX PRO
p405
sg63
Nsg90
(lp406
(VUSCG U S COAST GUARD
S''
tp407
asg27
I2004
sg55
Nsbag1
(g2
g3
NtRp408
(dp409
g65
Nsg61
VHARVARD BUS REV
p410
sg63
V63
p411
sg90
(lp412
(VWACK
VP
tp413
asg27
I1985
sg55
V73
p414
sbag1
(g2
g3
NtRp415
(dp416
g65
Nsg61
VP667
p417
sg63
V21
p418
sg90
(lp419
(VWALKER AH HUM ECOL RISK ASSESS V21
S''
tp420
asg27
Nsg55
V667
p421
sbag1
(g2
g3
NtRp422
(dp423
g65
V10.1007/s00267-010-9447-9
p424
sg61
VENVIRON MANAGE
p425
sg63
V45
p426
sg90
(lp427
(VWEBLER
VT
tp428
asg27
I2010
sg55
V723
p429
sbag1
(g2
g3
NtRp430
(dp431
g65
V10.1016/j.techfore.2012.09.003
p432
sg61
VTECHNOL FORECAST SOC
p433
sg63
V80
p434
sg90
(lp435
(VWRIGHT
VG
tp436
asg27
I2013
sg55
V631
p437
sbasb.