ccopy_reg
_reconstructor
p1
(ctethne.classes.paper
Paper
p2
c__builtin__
object
p3
NtRp4
(dp5
S'publisherCity'
p6
VROCKVILLE
p7
sS'reprintAddress'
p8
VRoss, JJ (reprint author), Univ Tasmania, Sch Plant Sci, Hobart, Tas 7001, Australia.
p9
sS'WC'
p10
VPlant Sciences
p11
sS'GA'
p12
V308VV
p13
sS'abstract'
p14
VThe theory that bioactive gibberellins (GAs) act as inhibitors of inhibitors of plant growth was based originally on the slender pea (Pisum sativum) mutant (genotype la cry-s), but the molecular nature of this mutant has remained obscure. Here we show that the genes LA and CRY encode DELLA proteins, previously characterized in other species (Arabidopsis [Arabidopsis thaliana] and several grasses) as repressors of growth, which are destabilized by GAs. Mutations la and cry-s encode nonfunctional proteins, accounting for the fact that la cry-s plants are extremely elongated, or slender. We use the la and cry-s mutations to show that in roots, DELLA proteins effectively promote the expression of GA synthesis genes, as well as inhibit elongation. We show also that one of the DELLA regulated genes is a second member of the pea GA 3-oxidase family, and that this gene appears to play a major role in pea roots.
p15
sS'pageEnd'
p16
I205
sS'date'
p17
I2008
sS'documentType'
p18
VArticle
p19
sS'subject'
p20
VPlant Sciences
p21
sS'isoSource'
p22
VPlant Physiol.
p23
sS'timesCited'
p24
(lp25
I22
aVZ9 24
p26
asS'PT'
p27
VJ
sS'title'
p28
VThe Pea Della Proteins La And Cry Are Important Regulators Of Gibberellin Synthesis And Root Growth
p29
sS'ISSN'
p30
(lp31
V0032-0889
p32
aVJ9 PLANT PHYSIOL
p33
asS'authors_full'
p34
(lp35
(VWESTON
VDIANA E
tp36
a(VELLIOTT
VROBERT C
tp37
a(VLESTER
VDIANE R
tp38
a(VRAMEAU
VCATHERINE
tp39
a(VREID
VJAMES B
tp40
a(VMURFET
VIAN C
tp41
a(VROSS
VJOHN J
tp42
asS'PG'
p43
I7
sS'PD'
p44
VMAY
p45
sS'pageStart'
p46
I199
sS'issue'
p47
I1
sS'RI'
p48
VRoss, John/E-3168-2012; Reid, James/C-9269-2013
p49
sS'journal'
p50
VPLANT PHYSIOLOGY
p51
sS'volume'
p52
V147
p53
sS'doi'
p54
V10.1104/pp.108.115808
p55
sS'emailAddress'
p56
Vjohn.ross@utas.edu.au
p57
sS'authorAddress'
p58
(lp59
V[Weston, Diana E.; Elliott, Robert C.; Lester, Diane R.; Reid, James B.; Murfet, Ian C.; Ross, John J.] Univ Tasmania, Sch Plant Sci, Hobart, Tas 7001, Australia.
p60
aV[Rameau, Catherine] INRA, Inst Jean Pierre Bourgin, Genet & Ameliorat Plantes Stn, F-78000 Versailles, France.
p61
asS'publisherAddress'
p62
V15501 MONONA DRIVE, ROCKVILLE, MD 20855 USA
p63
sS'ER'
p64
V
sS'publisher'
p65
VAMER SOC PLANT BIOLOGISTS
p66
sS'authorKeywords'
p67
(lp68
VINTERNODE LENGTH
p69
aVARABIDOPSIS-THALIANA
p70
aVSIGNALING PATHWAY
p71
aVPISUM-SATIVUM
p72
aVGENE
p73
aVLE
p74
aVRGA
p75
aVBIOSYNTHESIS
p76
aVEXPRESSION
p77
aVGAI
p78
asS'language'
p79
VEnglish
p80
sS'wosid'
p81
VWOS:000256419400019
p82
sS'citationCount'
p83
I36
sS'authors_init'
p84
(lp85
(VWESTON
VD E
tp86
a(VELLIOTT
VR C
tp87
a(VLESTER
VD R
tp88
a(VRAMEAU
VC
tp89
a(VREID
VJ B
tp90
a(VMURFET
VI C
tp91
a(VROSS
VJ J
tp92
asS'citedReferences'
p93
(lp94
g1
(g2
g3
NtRp95
(dp96
g54
V10.1111/j.1399-3054.2004.00412.x
p97
sg50
VPHYSIOL PLANTARUM
p98
sg52
V123
p99
sg84
(lp100
(VALVEY
VL
tp101
asg17
I2005
sg46
VHYSIOL
p102
sbag1
(g2
g3
NtRp103
(dp104
g54
Nsg50
VSymp Soc Exp Biol
p105
sg52
V11
p106
sg84
(lp107
(VBRIAN
VP W
tp108
asg17
I1957
sg46
V166
p109
sbag1
(g2
g3
NtRp110
(dp111
g54
V10.1104/pp.010917
p112
sg50
VPLANT PHYSIOL
p113
sg52
V129
p114
sg84
(lp115
(VCHANDLER
VP M
tp116
asg17
I2002
sg46
VLANT
p117
sbag1
(g2
g3
NtRp118
(dp119
g54
Nsg50
VPLANT HORMONES BIOSY
p120
sg52
Nsg84
(lp121
(VDAVIES
VP J
tp122
asg17
I2004
sg46
VLANT
p123
sbag1
(g2
g3
NtRp124
(dp125
g54
Nsg50
VGENETICA
p126
sg52
V9
sg84
(lp127
(VDEHAAN
VH
tp128
asg17
I1927
sg46
V481
p129
sbag1
(g2
g3
NtRp130
(dp131
g54
Nsg50
VGENETICS
p132
sg52
V159
p133
sg84
(lp134
(VDILL
VA
tp135
asg17
I2001
sg46
V777
p136
sbag1
(g2
g3
NtRp137
(dp138
g54
V10.1073/pnas.85.23.8998
p139
sg50
VP NATL ACAD SCI USA
p140
sg52
V85
p141
sg84
(lp142
(VFROHMAN
VM A
tp143
asg17
I1988
sg46
V8998
p144
sbag1
(g2
g3
NtRp145
(dp146
g54
V10.1038/nature01387
p147
sg50
VNATURE
p148
sg52
V421
p149
sg84
(lp150
(VFU
VX D
tp151
asg17
I2003
sg46
V740
p152
sbag1
(g2
g3
NtRp153
(dp154
g54
V10.1104/pp.010918
p155
sg50
VPLANT PHYSIOL
p156
sg52
V129
p157
sg84
(lp158
(VGUBLER
VF
tp159
asg17
I2002
sg46
VLANT
p160
sbag1
(g2
g3
NtRp161
(dp162
g54
V10.1002/(SICI)1521-1878(199812)20:12<1001::AID-BIES6>3.0.CO;2-O
p163
sg50
VBIOESSAYS
p164
sg52
V20
p165
sg84
(lp166
(VHARBERD
VN P
tp167
asg17
I1998
sg46
V1001
p168
sbag1
(g2
g3
NtRp169
(dp170
g54
V10.1105/tpc.13.5.999
p171
sg50
VPLANT CELL
p172
sg52
V13
p173
sg84
(lp174
(VIKEDA
VA
tp175
asg17
I2001
sg46
VLANT
p176
sbag1
(g2
g3
NtRp177
(dp178
g54
V10.1105/tpc.010319
p179
sg50
VPLANT CELL
p180
sg52
V14
p181
sg84
(lp182
(VITOH
VH
tp183
asg17
I2002
sg46
VLANT
p184
sbag1
(g2
g3
NtRp185
(dp186
g54
Nsg50
VGENETICS
p187
sg52
V159
p188
sg84
(lp189
(VKING
VK E
tp190
asg17
I2001
sg46
V767
p191
sbag1
(g2
g3
NtRp192
(dp193
g54
Nsg50
VHEREDITAS
p194
sg52
V23
p195
sg84
(lp196
(VLAMM
VR
tp197
asg17
I1937
sg46
V38
p198
sbag1
(g2
g3
NtRp199
(dp200
g54
Nsg50
VHEREDITAS
p201
sg52
V33
p202
sg84
(lp203
(VLAMM
VR
tp204
asg17
I1947
sg46
V405
p205
sbag1
(g2
g3
NtRp206
(dp207
g54
V10.1007/s001220050971
p208
sg50
VTHEOR APPL GENET
p209
sg52
V97
p210
sg84
(lp211
(VLAUCOU
VV
tp212
asg17
I1998
sg46
V905
p213
sbag1
(g2
g3
NtRp214
(dp215
g54
Nsg50
VPLANT CELL
p216
sg52
V9
sg84
(lp217
(VLESTER
VD R
tp218
asg17
I1997
sg46
VLANT
p219
sbag1
(g2
g3
NtRp220
(dp221
g54
V10.1023/A:1006158701016
p222
sg50
VPLANT GROWTH REGUL
p223
sg52
V27
p224
sg84
(lp225
(VLESTER
VD R
tp226
asg17
I1999
sg46
VLANT
p227
sbag1
(g2
g3
NtRp228
(dp229
g54
V10.1073/pnas.94.16.8907
p230
sg50
VP NATL ACAD SCI USA
p231
sg52
V94
p232
sg84
(lp233
(VMARTIN
VD N
tp234
asg17
I1997
sg46
V8907
p235
sbag1
(g2
g3
NtRp236
(dp237
g54
Nsg50
VPLANTA
p238
sg52
V200
p239
sg84
(lp240
(VMARTIN
VD N
tp241
asg17
I1996
sg46
VLANTA
p242
sbag1
(g2
g3
NtRp243
(dp244
g54
V10.1101/gad.11.23.3194
p245
sg50
VGENE DEV
p246
sg52
V11
p247
sg84
(lp248
(VPENG
VJ R
tp249
asg17
I1997
sg46
V3194
p250
sbag1
(g2
g3
NtRp251
(dp252
g54
V10.1038/22307
p253
sg50
VNATURE
p254
sg52
V400
p255
sg84
(lp256
(VPENG
VJ R
tp257
asg17
I1999
sg46
V256
p258
sbag1
(g2
g3
NtRp259
(dp260
g54
V10.1111/j.1399-3054.1985.tb02310.x
p261
sg50
VPHYSIOL PLANTARUM
p262
sg52
V63
p263
sg84
(lp264
(VPOTTS
VW C
tp265
asg17
I1985
sg46
VHYSIOL
p266
sbag1
(g2
g3
NtRp267
(dp268
g54
V10.1007/s001220050972
p269
sg50
VTHEOR APPL GENET
p270
sg52
V97
p271
sg84
(lp272
(VRAMEAU
VC
tp273
asg17
I1998
sg46
V916
p274
sbag1
(g2
g3
NtRp275
(dp276
g54
Nsg50
VHEREDITAS
p277
sg52
V10
p278
sg84
(lp279
(VRASMUSSON
VJ
tp280
asg17
I1927
sg46
V1
sbag1
(g2
g3
NtRp281
(dp282
g54
V10.1093/jxb/34.3.349
p283
sg50
VJ EXP BOT
p284
sg52
V34
p285
sg84
(lp286
(VREID
VJ B
tp287
asg17
I1983
sg46
V349
p288
sbag1
(g2
g3
NtRp289
(dp290
g54
V10.1111/j.1399-3054.1989.tb05626.x
p291
sg50
VPHYSIOL PLANTARUM
p292
sg52
V76
p293
sg84
(lp294
(VROSS
VJ J
tp295
asg17
I1989
sg46
VHYSIOL
p296
sbag1
(g2
g3
NtRp297
(dp298
g54
V10.1111/j.1399-3054.1989.tb05627.x
p299
sg50
VPHYSIOL PLANTARUM
p300
sg52
V76
p301
sg84
(lp302
(VROSS
VJ J
tp303
asg17
I1989
sg46
VHYSIOL
p304
sbag1
(g2
g3
NtRp305
(dp306
g54
V10.1105/tpc.10.2.155
p307
sg50
VPLANT CELL
p308
sg52
V10
p309
sg84
(lp310
(VSILVERSTONE
VA L
tp311
asg17
I1998
sg46
VLANT
p312
sbag1
(g2
g3
NtRp313
(dp314
g54
V10.1105/tpc.13.7.1555
p315
sg50
VPLANT CELL
p316
sg52
V13
p317
sg84
(lp318
(VSILVERSTONE
VA L
tp319
asg17
I2001
sg46
VLANT
p320
sbag1
(g2
g3
NtRp321
(dp322
g54
V10.1007/BF02982823
p323
sg50
VJ GENET
p324
sg52
V39
p325
sg84
(lp326
(VSTEVENS
VW L
tp327
asg17
I1939
sg46
V171
p328
sbag1
(g2
g3
NtRp329
(dp330
g54
Nsg50
VGIBBERELLINS
p331
sg52
Nsg84
(lp332
(VTANIMOTO
VE
tp333
asg17
I1991
sg46
V229
p334
sbag1
(g2
g3
NtRp335
(dp336
g54
Nsg50
VPLANT HORMONE SIGNAL
p337
sg52
Nsg84
(lp338
(VTHOMAS
VS G
tp339
asg17
I2006
sg46
VLANT
p340
sbag1
(g2
g3
NtRp341
(dp342
g54
V10.1104/pp.103.030460
p343
sg50
VPLANT PHYSIOL
p344
sg52
V134
p345
sg84
(lp346
(VWOLBANG
VC M
tp347
asg17
I2004
sg46
VLANT
p348
sbag1
(g2
g3
NtRp349
(dp350
g54
V10.1104/pp.125.2.627
p351
sg50
VPLANT PHYSIOL
p352
sg52
V125
p353
sg84
(lp354
(VYAXLEY
VJ R
tp355
asg17
I2001
sg46
VLANT
p356
sbag1
(g2
g3
NtRp357
(dp358
g54
V10.1105/tpc.107.054999
p359
sg50
VPLANT CELL
p360
sg52
V19
p361
sg84
(lp362
(VZENTELLA
VR
tp363
asg17
I2007
sg46
VLANT
p364
sbasb.