ccopy_reg
_reconstructor
p1
(ctethne.classes.paper
Paper
p2
c__builtin__
object
p3
NtRp4
(dp5
S'publisherCity'
p6
VROCKVILLE
p7
sS'reprintAddress'
p8
VGaxiola, RA (reprint author), Univ Connecticut, Coll Agr & Nat Resources, Dept Plant Sci, 1390 Storrs Rd, Storrs, CT 06269 USA.
p9
sS'WC'
p10
VPlant Sciences
p11
sS'GA'
p12
V577CW
p13
sS'pageEnd'
p14
I973
sS'publisherAddress'
p15
V15501 MONONA DRIVE, ROCKVILLE, MD 20855 USA
p16
sS'documentType'
p17
VArticle
p18
sS'subject'
p19
VPlant Sciences
p20
sS'isoSource'
p21
VPlant Physiol.
p22
sS'timesCited'
p23
(lp24
I67
aVZ9 69
p25
asS'PT'
p26
VJ
sS'title'
p27
VGenetic Manipulation Of Vacuolar Proton Pumps And Transporters
p28
sS'ISSN'
p29
(lp30
V0032-0889
p31
aVJ9 PLANT PHYSIOL
p32
asS'authors_full'
p33
(lp34
(VGAXIOLA
VRA
tp35
a(VFINK
VGR
tp36
a(VHIRSCHI
VKD
tp37
asS'PG'
p38
I7
sS'PD'
p39
VJUL
p40
sS'pageStart'
p41
I967
sS'issue'
p42
I3
sS'journal'
p43
VPLANT PHYSIOLOGY
p44
sS'volume'
p45
V129
p46
sS'doi'
p47
V10.1104/pp.020009
p48
sS'authorAddress'
p49
(lp50
VUniv Connecticut, Coll Agr & Nat Resources, Dept Plant Sci, Storrs, CT 06269 USA.
p51
aVMIT, Whitehead Inst Biomed Res, Cambridge, MA 02142 USA.
p52
aVBaylor Coll Med, USDA ARS, Childrens Nutr Res Ctr, Dept Pediat, Houston, TX 77030 USA.
p53
aVBaylor Coll Med, USDA ARS, Childrens Nutr Res Ctr, Dept Human & Mol Genet, Houston, TX 77030 USA.
p54
aVTexas A&M Univ, Vegetable & Fruit Improvement Ctr, College Stn, TX 77845 USA.
p55
asS'date'
p56
I2002
sS'ER'
p57
V
sS'publisher'
p58
VAMER SOC PLANT BIOLOGISTS
p59
sS'authorKeywords'
p60
(lp61
VARABIDOPSIS DET3 MUTANT
p62
aVH+-ATPASE
p63
aVSACCHAROMYCES-CEREVISIAE
p64
aVNA+/H+ EXCHANGER
p65
aVPLANT-CELLS
p66
aVYEAST
p67
aVSALT
p68
aVEXPRESSION
p69
aVHOMEOSTASIS
p70
aVTOLERANCE
p71
asS'language'
p72
VEnglish
p73
sS'wosid'
p74
VWOS:000177045000007
p75
sS'citationCount'
p76
I42
sS'authors_init'
p77
(lp78
(VGAXIOLA
VR A
tp79
a(VFINK
VG R
tp80
a(VHIRSCHI
VK D
tp81
asS'citedReferences'
p82
(lp83
g1
(g2
g3
NtRp84
(dp85
g47
V10.1083/jcb.150.1.213
p86
sg43
VJ CELL BIOL
p87
sg45
V150
p88
sg77
(lp89
(VAHARONOVITZ
VO
tp90
asg56
I2000
sg41
V213
p91
sbag1
(g2
g3
NtRp92
(dp93
g47
V10.1126/science.289.5488.2338
p94
sg43
VSCIENCE
p95
sg45
V289
p96
sg77
(lp97
(VALLEN
VG J
tp98
asg56
I2000
sg41
V2338
p99
sbag1
(g2
g3
NtRp100
(dp101
g47
Nsg43
VHDB BIOL PHYS
p102
sg45
V2
sg77
(lp103
(VANRAKU
VY
tp104
asg56
I1996
sg41
V93
p105
sbag1
(g2
g3
NtRp106
(dp107
g47
V10.1126/science.285.5431.1256
p108
sg43
VSCIENCE
p109
sg45
V285
p110
sg77
(lp111
(VAPSE
VM P
tp112
asg56
I1999
sg41
V1256
p113
sbag1
(g2
g3
NtRp114
(dp115
g47
V10.1034/j.1399-3054.1997.990217.x
p116
sg43
VPHYSIOL PLANTARUM
p117
sg45
V99
p118
sg77
(lp119
(VBALLESTEROS
VE
tp120
asg56
I1997
sg41
VHYSIOL
p121
sbag1
(g2
g3
NtRp122
(dp123
g47
V10.1016/S1360-1385(01)02149-5
p124
sg43
VTRENDS PLANT SCI
p125
sg45
V6
sg77
(lp126
(VBARBIER-BRYGOO
VH
tp127
asg56
I2001
sg41
V577
p128
sbag1
(g2
g3
NtRp129
(dp130
g47
Nsg43
VSymp Soc Exp Biol
p131
sg45
V48
p132
sg77
(lp133
(VBARKLA
VB J
tp134
asg56
I1994
sg41
V141
p135
sbag1
(g2
g3
NtRp136
(dp137
g47
V10.1016/S0005-2736(00)00135-8
p138
sg43
VBBA
p139
sg45
V1465
p140
sg77
(lp141
(VBLUMWALD
VE
tp142
asg56
I2000
sg41
V140
p143
sbag1
(g2
g3
NtRp144
(dp145
g47
Nsg43
VADV BOT RES
p146
sg45
V25
p147
sg77
(lp148
(VBLUMWALD
VE
tp149
asg56
I1997
sg41
V401
p150
sbag1
(g2
g3
NtRp151
(dp152
g47
Nsg43
VTRENDS PLANT SCI
p153
sg45
V6
sg77
(lp154
(VDROZDOWICZ
VY M
tp155
asg56
I2001
sg41
V1360
p156
sbag1
(g2
g3
NtRp157
(dp158
g47
Nsg43
VPlant Cell
p159
sg45
V13
p160
sg77
(lp161
(VECKARDT
VN A
tp162
asg56
I2001
sg41
Vlant
p163
sbag1
(g2
g3
NtRp164
(dp165
g47
V10.1073/pnas.95.7.4046
p166
sg43
VP NATL ACAD SCI USA
p167
sg45
V95
p168
sg77
(lp169
(VGAXIOLA
VR A
tp170
asg56
I1998
sg41
V4046
p171
sbag1
(g2
g3
NtRp172
(dp173
g47
V10.1073/pnas.191389398
p174
sg43
VP NATL ACAD SCI USA
p175
sg45
V98
p176
sg77
(lp177
(VGAXIOLA
VR A
tp178
asg56
I2001
sg41
V11444
p179
sbag1
(g2
g3
NtRp180
(dp181
g47
V10.1073/pnas.96.4.1480
p182
sg43
VP NATL ACAD SCI USA
p183
sg45
V96
p184
sg77
(lp185
(VGAXIOLA
VR A
tp186
asg56
I1999
sg41
V1480
p187
sbag1
(g2
g3
NtRp188
(dp189
g47
V10.1046/j.1365-313x.2000.00680.x
p190
sg43
VPLANT J
p191
sg45
V21
p192
sg77
(lp193
(VGEELEN
VD
tp194
asg56
I2000
sg41
VLANT
p195
sbag1
(g2
g3
NtRp196
(dp197
g47
Nsg43
VPLANT CELL
p198
sg45
V4
sg77
(lp199
(VGOGARTEN
VJ P
tp200
asg56
I1992
sg41
VLANT
p201
sbag1
(g2
g3
NtRp202
(dp203
g47
V10.1016/0014-5793(91)81280-L
p204
sg43
VFEBS LETT
p205
sg45
V291
p206
sg77
(lp207
(VHARO
VR
tp208
asg56
I1991
sg41
V189
p209
sbag1
(g2
g3
NtRp210
(dp211
g47
V10.1016/S1360-1385(01)02023-4
p212
sg43
VTRENDS PLANT SCI
p213
sg45
V6
sg77
(lp214
(VHARPER
VJ F
tp215
asg56
I2001
sg41
V395
p216
sbag1
(g2
g3
NtRp217
(dp218
g47
V10.1016/S1360-1385(00)01863-X
p219
sg43
VTRENDS PLANT SCI
p220
sg45
V6
sg77
(lp221
(VHIRSCHI
VK
tp222
asg56
I2001
sg41
V100
p223
sbag1
(g2
g3
NtRp224
(dp225
g47
V10.1104/pp.124.1.125
p226
sg43
VPLANT PHYSIOL
p227
sg45
V124
p228
sg77
(lp229
(VHIRSCHI
VK D
tp230
asg56
I2000
sg41
VLANT
p231
sbag1
(g2
g3
NtRp232
(dp233
g47
V10.1105/tpc.11.11.2113
p234
sg43
VPLANT CELL
p235
sg45
V11
p236
sg77
(lp237
(VHIRSCHI
VK D
tp238
asg56
I1999
sg41
VLANT
p239
sbag1
(g2
g3
NtRp240
(dp241
g47
V10.1073/pnas.91.13.6128
p242
sg43
VP NATL ACAD SCI USA
p243
sg45
V91
p244
sg77
(lp245
(VKIM
VE J
tp246
asg56
I1994
sg41
V6128
p247
sbag1
(g2
g3
NtRp248
(dp249
g47
V10.1104/pp.126.4.1646
p250
sg43
VPLANT PHYSIOL
p251
sg45
V126
p252
sg77
(lp253
(VMASER
VP
tp254
asg56
I2001
sg41
VLANT
p255
sbag1
(g2
g3
NtRp256
(dp257
g47
V10.1074/jbc.273.33.21054
p258
sg43
VJ BIOL CHEM
p259
sg45
V273
p260
sg77
(lp261
(VNASS
VR
tp262
asg56
I1998
sg41
V21054
p263
sbag1
(g2
g3
NtRp264
(dp265
g47
V10.1074/jbc.272.42.26145
p266
sg43
VJ BIOL CHEM
p267
sg45
V272
p268
sg77
(lp269
(VNASS
VR
tp270
asg56
I1997
sg41
V26145
p271
sbag1
(g2
g3
NtRp272
(dp273
g47
Nsg43
VJ EXP BIOL
p274
sg45
V196
p275
sg77
(lp276
(VNELSON
VN
tp277
asg56
I1994
sg41
V7
sbag1
(g2
g3
NtRp278
(dp279
g47
V10.1016/S0014-5793(98)00629-2
p280
sg43
VFEBS LETT
p281
sg45
V430
p282
sg77
(lp283
(VPAULSEN
VI T
tp284
asg56
I1998
sg41
V116
p285
sbag1
(g2
g3
NtRp286
(dp287
g47
V10.1073/pnas.131192798
p288
sg43
VP NATL ACAD SCI USA
p289
sg45
V98
p290
sg77
(lp291
(VSAGERMANN
VM
tp292
asg56
I2001
sg41
V7134
p293
sbag1
(g2
g3
NtRp294
(dp295
g47
V10.1101/gad.13.24.3259
p296
sg43
VGENE DEV
p297
sg45
V13
p298
sg77
(lp299
(VSCHUMACHER
VK
tp300
asg56
I1999
sg41
V3259
p301
sbag1
(g2
g3
NtRp302
(dp303
g47
V10.1016/S0955-0674(00)00227-1
p304
sg43
VCURR OPIN CELL BIOL
p305
sg45
V13
p306
sg77
(lp307
(VSERRANO
VR
tp308
asg56
I2001
sg41
V399
p309
sbag1
(g2
g3
NtRp310
(dp311
g47
V10.1093/emboj/18.14.3973
p312
sg43
VEMBO J
p313
sg45
V18
p314
sg77
(lp315
(VSHAUL
VO
tp316
asg56
I1999
sg41
V3973
p317
sbag1
(g2
g3
NtRp318
(dp319
g47
V10.1126/science.271.5255.1552
p320
sg43
VSCIENCE
p321
sg45
V271
p322
sg77
(lp323
(VSTEARMAN
VR
tp324
asg56
I1996
sg41
V1552
p325
sbag1
(g2
g3
NtRp326
(dp327
g47
Nsg43
VBOT ACTA
p328
sg45
V111
p329
sg77
(lp330
(VSTITT
VM
tp331
asg56
I1998
sg41
V167
p332
sbag1
(g2
g3
NtRp333
(dp334
g47
V10.1016/S1360-1385(02)02240-9
p335
sg43
VTRENDS PLANT SCI
p336
sg45
V7
sg77
(lp337
(VSZE
VH
tp338
asg56
I2002
sg41
V157
p339
sbag1
(g2
g3
NtRp340
(dp341
g47
V10.1146/annurev.arplant.51.1.433
p342
sg43
VANNU REV PLANT PHYS
p343
sg45
V51
p344
sg77
(lp345
(VSZE
VH
tp346
asg56
I2000
sg41
V433
p347
sbag1
(g2
g3
NtRp348
(dp349
g47
V10.1105/tpc.11.4.677
p350
sg43
VPLANT CELL
p351
sg45
V11
p352
sg77
(lp353
(VSZE
VH
tp354
asg56
I1999
sg41
VLANT
p355
sbag1
(g2
g3
NtRp356
(dp357
g47
V10.1146/annurev.arplant.47.1.595
p358
sg43
VANNU REV PLANT PHYS
p359
sg45
V47
p360
sg77
(lp361
(VTANNER
VW
tp362
asg56
I1996
sg41
V595
p363
sbag1
(g2
g3
NtRp364
(dp365
g47
V10.1046/j.1365-313X.1996.9050729.x
p366
sg43
VPLANT J
p367
sg45
V9
sg77
(lp368
(VTSIANTIS
VM S
tp369
asg56
I1996
sg41
VLANT
p370
sbag1
(g2
g3
NtRp371
(dp372
g47
V10.1074/jbc.M105043200
p373
sg43
VJ BIOL CHEM
p374
sg45
V277
p375
sg77
(lp376
(VVENEMA
VK
tp377
asg56
I2002
sg41
V2413
p378
sbag1
(g2
g3
NtRp379
(dp380
g47
V10.1093/bioinformatics/17.6.560
p381
sg43
VBIOINFORMATICS
p382
sg45
V17
p383
sg77
(lp384
(VWARD
VJ M
tp385
asg56
I2001
sg41
V560
p386
sbag1
(g2
g3
NtRp387
(dp388
g47
V10.1038/90824
p389
sg43
VNAT BIOTECHNOL
p390
sg45
V19
p391
sg77
(lp392
(VZHANG
VH X
tp393
asg56
I2001
sg41
V765
p394
sbag1
(g2
g3
NtRp395
(dp396
g47
V10.1073/pnas.231476498
p397
sg43
VP NATL ACAD SCI USA
p398
sg45
V98
p399
sg77
(lp400
(VZHANG
VH X
tp401
asg56
I2001
sg41
V12832
p402
sbasb.