ccopy_reg
_reconstructor
p1
(ctethne.classes.paper
Paper
p2
c__builtin__
object
p3
NtRp4
(dp5
S'publisherCity'
p6
VROCKVILLE
p7
sS'reprintAddress'
p8
VRunning, MP (reprint author), Donald Danforth Plant Sci Ctr, St Louis, MO 63132 USA.
p9
sS'WC'
p10
VPlant Sciences
p11
sS'GA'
p12
V143WS
p13
sS'abstract'
p14
VPosttranslational lipid modifications are important for proper localization of many proteins in eukaryotic cells. However, the functional interrelationships between lipid modification processes in plants remain unclear. Here we demonstrate that the two heterotrimeric G-protein gamma-subunits from Arabidopsis (Arabidopsis thaliana), AGG1 and AGG2, are prenylated, and AGG2 is S-acylated. In wild type, enhanced yellow fluorescent protein-fused AGG1 and AGG2 are associated with plasma membranes, with AGG1 associated with internal membranes as well. Both can be prenylated by either protein geranylgeranyltransferase I (PGGT-I) or protein farnesyltransferase (PFT). Their membrane localization is intact in mutants lacking PFT activity and largely intact in mutants lacking PGGT-I activity but is disrupted in mutants lacking both PFT and PGGT-I activity. Unlike in mammals, Arabidopsis G gamma s do not rely on functional G alpha for membrane targeting. Mutation of the sixth to last cysteine, the putative S-acylation acceptor site, causes a dramatic change in AGG2 but not AGG1 localization pattern, suggesting S-acylation serves as an important additional signal for AGG2 to be targeted to the plasma membrane. Domain-swapping experiments suggest that a short charged sequence at the AGG2 C terminus contributes to AGG2's efficient membrane targeting compared to AGG1. Our data show the large degree to which PFT and PGGT-I can compensate for each other in plants and suggest that differential lipid modification plays an important regulatory role in plant protein localization.
p15
sS'pageEnd'
p16
I1131
sS'publisherAddress'
p17
V15501 MONONA DRIVE, ROCKVILLE, MD 20855 USA
p18
sS'documentType'
p19
VArticle
p20
sS'subject'
p21
VPlant Sciences
p22
sS'isoSource'
p23
VPlant Physiol.
p24
sS'timesCited'
p25
(lp26
I32
aVZ9 35
p27
asS'PT'
p28
VJ
sS'title'
p29
VDual Lipid Modification Of Arabidopsis G Gamma-Subunits Is Required For Efficient Plasma Membrane Targeting
p30
sS'ISSN'
p31
(lp32
V0032-0889
p33
aVJ9 PLANT PHYSIOL
p34
asS'authors_full'
p35
(lp36
(VZENG
VQIN
tp37
a(VWANG
VXUEJUN
tp38
a(VRUNNING
VMARK P
tp39
asS'PG'
p40
I13
sS'PD'
p41
VMAR
p42
sS'pageStart'
p43
I1119
sS'issue'
p44
I3
sS'journal'
p45
VPLANT PHYSIOLOGY
p46
sS'volume'
p47
V143
p48
sS'doi'
p49
V10.1104/pp.106.093583
p50
sS'emailAddress'
p51
Vmrunning@danforthcenter.org
p52
sS'authorAddress'
p53
VDonald Danforth Plant Sci Ctr, St Louis, MO 63132 USA.
p54
sS'date'
p55
I2007
sS'ER'
p56
V
sS'publisher'
p57
VAMER SOC PLANT BIOLOGISTS
p58
sS'authorKeywords'
p59
(lp60
VHETEROTRIMERIC G-PROTEIN
p61
aVGERANYLGERANYLTRANSFERASE TYPE-I
p62
aVPROXIMAL POLYBASIC DOMAIN
p63
aVG-BETA-GAMMA
p64
aVALPHA-SUBUNIT
p65
aVABSCISIC-ACID
p66
aVSACCHAROMYCES-CEREVISIAE
p67
aVSIGNAL-TRANSDUCTION
p68
aVPLANT FARNESYLTRANSFERASE
p69
aVCELL-PROLIFERATION
p70
asS'language'
p71
VEnglish
p72
sS'wosid'
p73
VWOS:000244757700006
p74
sS'citationCount'
p75
I91
sS'authors_init'
p76
(lp77
(VZENG
VQ
tp78
a(VWANG
VX J
tp79
a(VRUNNING
VM P
tp80
asS'citedReferences'
p81
(lp82
g1
(g2
g3
NtRp83
(dp84
g49
V10.1126/science.1086391
p85
sg45
VSCIENCE
p86
sg47
V301
p87
sg76
(lp88
(VALONSO
VJ M
tp89
asg55
I2003
sg43
V653
p90
sbag1
(g2
g3
NtRp91
(dp92
g49
V10.1007/s004250000283
p93
sg45
VPLANTA
p94
sg47
V211
p95
sg76
(lp96
(VBONETTA
VD
tp97
asg55
I2000
sg43
VLANTA
p98
sbag1
(g2
g3
NtRp99
(dp100
g49
V10.1074/jbc.274.3.1423
p101
sg45
VJ BIOL CHEM
p102
sg47
V274
p103
sg76
(lp104
(VBOODEN
VM A
tp105
asg55
I1999
sg43
V1423
p106
sbag1
(g2
g3
NtRp107
(dp108
g49
V10.1074/jbc.M202916200
p109
sg45
VJ BIOL CHEM
p110
sg47
V277
p111
sg76
(lp112
(VBRACHA
VK
tp113
asg55
I2002
sg43
V29856
p114
sbag1
(g2
g3
NtRp115
(dp116
g49
V10.1210/er.2000-0026
p117
sg45
VENDOCR REV
p118
sg47
V24
p119
sg76
(lp120
(VCABRERA-VERA
VT M
tp121
asg55
I2003
sg43
V765
p122
sbag1
(g2
g3
NtRp123
(dp124
g49
V10.1074/jbc.M314329200
p125
sg45
VJ BIOL CHEM
p126
sg47
V279
p127
sg76
(lp128
(VCAHOON
VE B
tp129
asg55
I2004
sg43
V12495
p130
sbag1
(g2
g3
NtRp131
(dp132
g49
V10.1104/pp.126.4.1416
p133
sg45
VPLANT PHYSIOL
p134
sg47
V126
p135
sg76
(lp136
(VCALDELARI
VD
tp137
asg55
I2001
sg43
VLANT
p138
sbag1
(g2
g3
NtRp139
(dp140
g49
V10.1126/science.7716512
p141
sg45
VSCIENCE
p142
sg47
V268
p143
sg76
(lp144
(VCASEY
VP J
tp145
asg55
I1995
sg43
V221
p146
sbag1
(g2
g3
NtRp147
(dp148
g49
V10.1046/j.1365-313X.2002.01463.x
p149
sg45
VPLANT J
p150
sg47
V32
p151
sg76
(lp152
(VCHARY
VS N
tp153
asg55
I2002
sg43
VLANT
p154
sbag1
(g2
g3
NtRp155
(dp156
g49
V10.1104/pp.106.079202
p157
sg45
VPLANT PHYSIOL
p158
sg47
V141
p159
sg76
(lp160
(VCHEN
VJ G
tp161
asg55
I2006
sg43
VLANT
p162
sbag1
(g2
g3
NtRp163
(dp164
g49
V10.1046/j.1365-313x.1998.00343.x
p165
sg45
VPLANT J
p166
sg47
V16
p167
sg76
(lp168
(VCLOUGH
VS J
tp169
asg55
I1998
sg43
VLANT
p170
sbag1
(g2
g3
NtRp171
(dp172
g49
V10.1038/nature01643
p173
sg45
VNATURE
p174
sg47
V423
p175
sg76
(lp176
(VCOURSOL
VS
tp177
asg55
I2003
sg43
V651
p178
sbag1
(g2
g3
NtRp179
(dp180
g49
V10.1023/A:1010671202925
p181
sg45
VPLANT MOL BIOL
p182
sg47
V45
p183
sg76
(lp184
(VCROWELL
VD N
tp185
asg55
I2001
sg43
VLANT
p186
sbag1
(g2
g3
NtRp187
(dp188
g49
V10.1104/pp.103.027979
p189
sg45
VPLANT PHYSIOL
p190
sg47
V133
p191
sg76
(lp192
(VCURTIS
VM D
tp193
asg55
I2003
sg43
VLANT
p194
sbag1
(g2
g3
NtRp195
(dp196
g49
V10.1126/science.273.5279.1239
p197
sg45
VSCIENCE
p198
sg47
V273
p199
sg76
(lp200
(VCUTLER
VS
tp201
asg55
I1996
sg43
V1239
p202
sbag1
(g2
g3
NtRp203
(dp204
g49
V10.1042/BJ20030578
p205
sg45
VBIOCHEM J
p206
sg47
V376
p207
sg76
(lp208
(VDIETRICH
VA
tp209
asg55
I2003
sg43
V449
p210
sbag1
(g2
g3
NtRp211
(dp212
g49
V10.1111/j.1365-313X.2006.02658.x
p213
sg45
VPLANT J
p214
sg47
V45
p215
sg76
(lp216
(VDIXIT
VR
tp217
asg55
I2006
sg43
VLANT
p218
sbag1
(g2
g3
NtRp219
(dp220
g49
V10.1128/MCB.23.18.6574-6584.2003
p221
sg45
VMOL CELL BIOL
p222
sg47
V23
p223
sg76
(lp224
(VDONG
VX W
tp225
asg55
I2003
sg43
V6574
p226
sbag1
(g2
g3
NtRp227
(dp228
g49
V10.1074/jbc.M602283200
p229
sg45
VJ BIOL CHEM
p230
sg47
V281
p231
sg76
(lp232
(VDOWNES
VB P
tp233
asg55
I2006
sg43
V27145
p234
sbag1
(g2
g3
NtRp235
(dp236
g49
V10.1074/jbc.M104275200
p237
sg45
VJ BIOL CHEM
p238
sg47
V276
p239
sg76
(lp240
(VDUNPHY
VJ T
tp241
asg55
I2001
sg43
V43300
p242
sbag1
(g2
g3
NtRp243
(dp244
g49
V10.1016/S1388-1981(00)00060-3
p245
sg45
VBBA
p246
sg47
V1485
p247
sg76
(lp248
(VDUNPHY
VJ T
tp249
asg55
I2000
sg43
V185
p250
sbag1
(g2
g3
NtRp251
(dp252
g49
V10.1023/A:1006367609556
p253
sg45
VPLANT MOL BIOL
p254
sg47
V41
p255
sg76
(lp256
(VDYKEMA
VP E
tp257
asg55
I1999
sg43
VLANT
p258
sbag1
(g2
g3
NtRp259
(dp260
g49
V10.1093/nar/30.1.235
p261
sg45
VNUCLEIC ACIDS RES
p262
sg47
V30
p263
sg76
(lp264
(VFALQUET
VL
tp265
asg55
I2002
sg43
V235
p266
sbag1
(g2
g3
NtRp267
(dp268
g49
V10.1016/j.pbi.2004.07.009
p269
sg45
VCURR OPIN PLANT BIOL
p270
sg47
V7
sg76
(lp271
(VFAN
VL M
tp272
asg55
I2004
sg43
V537
p273
sbag1
(g2
g3
NtRp274
(dp275
g49
V10.1104/pp.106.088344
p276
sg45
VPLANT PHYSIOL
p277
sg47
V142
p278
sg76
(lp279
(VGALICHET
VA
tp280
asg55
I2006
sg43
VLANT
p281
sbag1
(g2
g3
NtRp282
(dp283
g49
V10.1091/mbc.E03-04-0237
p284
sg45
VMOL BIOL CELL
p285
sg47
V14
p286
sg76
(lp287
(VGALY
VV
tp288
asg55
I2003
sg43
V5104
p289
sbag1
(g2
g3
NtRp290
(dp291
g49
Nsg45
VMETHOD ENZYMOL
p292
sg47
V350
p293
sg76
(lp294
(VGIETZ
VR D
tp295
asg55
I2002
sg43
V87
p296
sbag1
(g2
g3
NtRp297
(dp298
g49
V10.1016/0092-8674(89)90054-8
p299
sg45
VCELL
p300
sg47
V57
p301
sg76
(lp302
(VHANCOCK
VJ F
tp303
asg55
I1989
sg43
V1167
p304
sbag1
(g2
g3
NtRp305
(dp306
g49
Nsg45
VEMBO J
p307
sg47
V10
p308
sg76
(lp309
(VHANCOCK
VJ F
tp310
asg55
I1991
sg43
V641
p311
sbag1
(g2
g3
NtRp312
(dp313
g49
V10.1016/0092-8674(90)90294-O
p314
sg45
VCELL
p315
sg47
V63
p316
sg76
(lp317
(VHANCOCK
VJ F
tp318
asg55
I1990
sg43
V133
p319
sbag1
(g2
g3
NtRp320
(dp321
g49
V10.1073/pnas.88.24.11373
p322
sg45
VP NATL ACAD SCI USA
p323
sg47
V88
p324
sg76
(lp325
(VHE
VB
tp326
asg55
I1991
sg43
V11373
p327
sbag1
(g2
g3
NtRp328
(dp329
g49
V10.1105/tpc.105.031237
p330
sg45
VPLANT CELL
p331
sg47
V17
p332
sg76
(lp333
(VHEMSLEY
VP A
tp334
asg55
I2005
sg43
VLANT
p335
sbag1
(g2
g3
NtRp336
(dp337
g49
Nsg45
VMOL CELL BIOL
p338
sg47
V19
p339
sg76
(lp340
(VHIRSCHMAN
VJ E
tp341
asg55
I1999
sg43
V7705
p342
sbag1
(g2
g3
NtRp343
(dp344
g49
Nsg45
VJ BIOL CHEM
p345
sg47
V270
p346
sg76
(lp347
(VJAMES
VG L
tp348
asg55
I1995
sg43
V6221
p349
sbag1
(g2
g3
NtRp350
(dp351
g49
V10.1104/pp.105.065045
p352
sg45
VPLANT PHYSIOL
p353
sg47
V139
p354
sg76
(lp355
(VJOHNSON
VC D
tp356
asg55
I2005
sg43
VLANT
p357
sbag1
(g2
g3
NtRp358
(dp359
g49
V10.1016/S1369-5266(02)00288-1
p360
sg45
VCURR OPIN PLANT BIOL
p361
sg47
V5
sg76
(lp362
(VJONES
VA M
tp363
asg55
I2002
sg43
V402
p364
sbag1
(g2
g3
NtRp365
(dp366
g49
V10.1038/sj.embor.7400174
p367
sg45
VEMBO REP
p368
sg47
V5
sg76
(lp369
(VJONES
VA M
tp370
asg55
I2004
sg43
V572
p371
sbag1
(g2
g3
NtRp372
(dp373
g49
V10.1111/j.1365-313X.2004.02046.x
p374
sg45
VPLANT J
p375
sg47
V38
p376
sg76
(lp377
(VKATO
VC
tp378
asg55
I2004
sg43
VLANT
p379
sbag1
(g2
g3
NtRp380
(dp381
g49
V10.1194/jlr.R600002-JLR200
p382
sg45
VJ LIPID RES
p383
sg47
V47
p384
sg76
(lp385
(VLANE
VK T
tp386
asg55
I2006
sg43
V681
p387
sbag1
(g2
g3
NtRp388
(dp389
g49
V10.1111/j.1365-313X.2006.02749.x
p390
sg45
VPLANT J
p391
sg47
V46
p392
sg76
(lp393
(VLAVY
VM
tp394
asg55
I2006
sg43
VLANT
p395
sbag1
(g2
g3
NtRp396
(dp397
g49
V10.1105/tpc.005561
p398
sg45
VPLANT CELL
p399
sg47
V14
p400
sg76
(lp401
(VLAVY
VM
tp402
asg55
I2002
sg43
VLANT
p403
sbag1
(g2
g3
NtRp404
(dp405
g49
V10.1105/tpc.13.12.2631
p406
sg45
VPLANT CELL
p407
sg47
V13
p408
sg76
(lp409
(VLEASE
VK A
tp410
asg55
I2001
sg43
VLANT
p411
sbag1
(g2
g3
NtRp412
(dp413
g49
V10.1074/JBC.M206573200
p414
sg45
VJ BIOL CHEM
p415
sg47
V277
p416
sg76
(lp417
(VLOBO
VS
tp418
asg55
I2002
sg43
V41268
p419
sbag1
(g2
g3
NtRp420
(dp421
g49
V10.1073/pnas.87.10.3821
p422
sg45
VP NATL ACAD SCI USA
p423
sg47
V87
p424
sg76
(lp425
(VMA
VH
tp426
asg55
I1990
sg43
V3821
p427
sbag1
(g2
g3
NtRp428
(dp429
g49
V10.1042/BJ20031531
p430
sg45
VBiochem J
p431
sg47
V376
p432
sg76
(lp433
(VMAGEE
VANTHONY I
tp434
asg55
I2003
sg43
Ve3
p435
sbag1
(g2
g3
NtRp436
(dp437
g49
V10.1016/S0092-8674(00)80601-7
p438
sg45
VCELL
p439
sg47
V98
p440
sg76
(lp441
(VMAGEE
VT
tp442
asg55
I1999
sg43
V9
sbag1
(g2
g3
NtRp443
(dp444
g49
Nsg45
VMOL BIOL CELL
p445
sg47
V11
p446
sg76
(lp447
(VMANAHAN
VC L
tp448
asg55
I2000
sg43
V957
p449
sbag1
(g2
g3
NtRp450
(dp451
g49
V10.1016/S0167-4781(01)00262-7
p452
sg45
VBBA
p453
sg47
V1520
p454
sg76
(lp455
(VMASON
VM G
tp456
asg55
I2001
sg43
V147
p457
sbag1
(g2
g3
NtRp458
(dp459
g49
V10.1073/pnas.97.26.14784
p460
sg45
VP NATL ACAD SCI USA
p461
sg47
V97
p462
sg76
(lp463
(VMASON
VM G
tp464
asg55
I2000
sg43
V14784
p465
sbag1
(g2
g3
NtRp466
(dp467
g49
V10.1186/gb-2005-6-6-r55
p468
sg45
VGENOME BIOL
p469
sg47
V6
sg76
(lp470
(VMAURER-STROH
VS
tp471
asg55
I2005
sg43
Nsbag1
(g2
g3
NtRp472
(dp473
g49
V10.1083/jcb.152.1.111
p474
sg45
VJ CELL BIOL
p475
sg47
V152
p476
sg76
(lp477
(VMICHAELSON
VD
tp478
asg55
I2001
sg43
V111
p479
sbag1
(g2
g3
NtRp480
(dp481
g49
V10.1091/mbc.E02-02-0095
p482
sg45
VMOL BIOL CELL
p483
sg47
V13
p484
sg76
(lp485
(VMICHAELSON
VD
tp486
asg55
I2002
sg43
V3294
p487
sbag1
(g2
g3
NtRp488
(dp489
g49
V10.1016/S0968-0004(00)89004-0
p490
sg45
VTRENDS BIOCHEM SCI
p491
sg47
V20
p492
sg76
(lp493
(VMILLIGAN
VG
tp494
asg55
I1995
sg43
V181
p495
sbag1
(g2
g3
NtRp496
(dp497
g49
V10.1126/science.1123769
p498
sg45
VSCIENCE
p499
sg47
V312
p500
sg76
(lp501
(VMISHRA
VG
tp502
asg55
I2006
sg43
V264
p503
sbag1
(g2
g3
NtRp504
(dp505
g49
V10.1194/jlr.R600007-JLR200
p506
sg45
VJ LIPID RES
p507
sg47
V47
p508
sg76
(lp509
(VMITCHELL
VD A
tp510
asg55
I2006
sg43
V1118
p511
sbag1
(g2
g3
NtRp512
(dp513
g49
V10.1104/pp.121.4.1127
p514
sg45
VPLANT PHYSIOL
p515
sg47
V121
p516
sg76
(lp517
(VNEBENFUHR
VA
tp518
asg55
I1999
sg43
VLANT
p519
sbag1
(g2
g3
NtRp520
(dp521
g49
V10.1104/pp.106.079038
p522
sg45
VPLANT PHYSIOL
p523
sg47
V141
p524
sg76
(lp525
(VPANDEY
VS
tp526
asg55
I2006
sg43
VLANT
p527
sbag1
(g2
g3
NtRp528
(dp529
g49
V10.1016/j.ppi.2004.09.013
p530
sg45
VCURR OPIN PLANT BIOL
p531
sg47
V7
sg76
(lp532
(VPERFUS-BARBEOCH
VL
tp533
asg55
I2004
sg43
V719
p534
sbag1
(g2
g3
NtRp535
(dp536
g49
V10.1105/tpc.021634
p537
sg45
VPLANT CELL
p538
sg47
V16
p539
sg76
(lp540
(VPREUSS
VM L
tp541
asg55
I2004
sg43
VLANT
p542
sbag1
(g2
g3
NtRp543
(dp544
g49
V10.1016/0014-5793(93)80971-V
p545
sg45
VFEBS LETT
p546
sg47
V328
p547
sg76
(lp548
(VPRONIN
VA N
tp549
asg55
I1993
sg43
V89
p550
sbag1
(g2
g3
NtRp551
(dp552
g49
Nsg45
VPLANT CELL
p553
sg47
V5
sg76
(lp554
(VRANDALL
VS K
tp555
asg55
I1993
sg43
VLANT
p556
sbag1
(g2
g3
NtRp557
(dp558
g49
VDOI 10.1126/STKE.3592006RE14
p559
sg45
VSCI STKE
p560
sg47
Nsg76
(lp561
(VRESH
VM D
tp562
asg55
I2006
sg43
Vre14
p563
sbag1
(g2
g3
NtRp564
(dp565
g49
V10.1016/j.ymeth.2006.04.013
p566
sg45
VMETHODS
p567
sg47
V40
p568
sg76
(lp569
(VRESH
VM D
tp570
asg55
I2006
sg43
V191
p571
sbag1
(g2
g3
NtRp572
(dp573
g49
V10.1046/j.1365-313x.2000.00924.x
p574
sg45
VPLANT J
p575
sg47
V24
p576
sg76
(lp577
(VRODRIGUEZ-CONCEPCION
VM
tp578
asg55
I2000
sg43
VLANT
p579
sbag1
(g2
g3
NtRp580
(dp581
g49
V10.1093/emboj/18.7.1996
p582
sg45
VEMBO J
p583
sg47
V18
p584
sg76
(lp585
(VRODRIGUEZ-CONCEPCION
VM
tp586
asg55
I1999
sg43
V1996
p587
sbag1
(g2
g3
NtRp588
(dp589
g49
V10.1083/jcb.200206120
p590
sg45
VJ CELL BIOL
p591
sg47
V159
p592
sg76
(lp593
(VROTH
VA F
tp594
asg55
I2002
sg43
V23
p595
sbag1
(g2
g3
NtRp596
(dp597
g49
V10.1016/j.cell.2006.03.042
p598
sg45
VCELL
p599
sg47
V125
p600
sg76
(lp601
(VROTH
VA F
tp602
asg55
I2006
sg43
V1003
p603
sbag1
(g2
g3
NtRp604
(dp605
g49
V10.1073/pnas.0402385101
p606
sg45
VP NATL ACAD SCI USA
p607
sg47
V101
p608
sg76
(lp609
(VRUNNING
VM P
tp610
asg55
I2004
sg43
V7815
p611
sbag1
(g2
g3
NtRp612
(dp613
g49
Nsg45
VDEVELOPMENT
p614
sg47
V125
p615
sg76
(lp616
(VRUNNING
VM P
tp617
asg55
I1998
sg43
V2545
p618
sbag1
(g2
g3
NtRp619
(dp620
g49
Nsg45
VJ BIOL CHEM
p621
sg47
V267
p622
sg76
(lp623
(VSEABRA
VM C
tp624
asg55
I1992
sg43
V14497
p625
sbag1
(g2
g3
NtRp626
(dp627
g49
V10.1016/j.cell.2006.04.045
p628
sg45
VCELL
p629
sg47
V126
p630
sg76
(lp631
(VSLESSAREVA
VJ E
tp632
asg55
I2006
sg43
V191
p633
sbag1
(g2
g3
NtRp634
(dp635
g49
V10.1073/pnas.192244099
p636
sg45
VP NATL ACAD SCI USA
p637
sg47
V99
p638
sg76
(lp639
(VSUHARSONO
VU
tp640
asg55
I2002
sg43
V13307
p641
sbag1
(g2
g3
NtRp642
(dp643
g49
V10.1074/jbc.M213239200
p644
sg45
VJ BIOL CHEM
p645
sg47
V278
p646
sg76
(lp647
(VTAKIDA
VS
tp648
asg55
I2003
sg43
V17284
p649
sbag1
(g2
g3
NtRp650
(dp651
g49
Nsg45
VPLANT PHYSIOL
p652
sg47
V140
p653
sg76
(lp654
(VTRUSOV
VY
tp655
asg55
I2006
sg43
VLANT
p656
sbag1
(g2
g3
NtRp657
(dp658
g49
V10.1073/pnas.97.21.11638
p659
sg45
VP NATL ACAD SCI USA
p660
sg47
V97
p661
sg76
(lp662
(VUEGUCHI-TANAKA
VM
tp663
asg55
I2000
sg43
V11638
p664
sbag1
(g2
g3
NtRp665
(dp666
g49
V10.1105/tpc.006148
p667
sg45
VPLANT CELL
p668
sg47
V15
p669
sg76
(lp670
(VULLAH
VH
tp671
asg55
I2003
sg43
VLANT
p672
sbag1
(g2
g3
NtRp673
(dp674
g49
V10.1126/science.1059040
p675
sg45
VSCIENCE
p676
sg47
V292
p677
sg76
(lp678
(VULLAH
VH
tp679
asg55
I2001
sg43
V2066
p680
sbag1
(g2
g3
NtRp681
(dp682
g49
V10.1104/pp.005017
p683
sg45
VPLANT PHYSIOL
p684
sg47
V129
p685
sg76
(lp686
(VULLAH
VH
tp687
asg55
I2002
sg43
VLANT
p688
sbag1
(g2
g3
NtRp689
(dp690
g49
V10.1042/0264-6021:3450145
p691
sg45
VBIOCHEM J
p692
sg47
V345
p693
sg76
(lp694
(VVEIT
VM
tp695
asg55
I2000
sg43
V145
p696
sbag1
(g2
g3
NtRp697
(dp698
g49
V10.1042/BJ20041474
p699
sg45
VBIOCHEM J
p700
sg47
V384
p701
sg76
(lp702
(VVEIT
VM
tp703
asg55
I2004
sg43
V233
p704
sbag1
(g2
g3
NtRp705
(dp706
g49
V10.1016/S0014-5793(03)00232-1
p707
sg45
VFEBS LETT
p708
sg47
V540
p709
sg76
(lp710
(VVEIT
VM
tp711
asg55
I2003
sg43
V101
p712
sbag1
(g2
g3
NtRp713
(dp714
g49
Nsg45
VSCIENCE
p715
sg47
V292
p716
sg76
(lp717
(VWANG
VX Q
tp718
asg55
I2001
sg43
V2022
p719
sbag1
(g2
g3
NtRp720
(dp721
g49
V10.1104/pp.105.071282
p722
sg45
VPLANT PHYSIOL
p723
sg47
V140
p724
sg76
(lp725
(VWARPEHA
VK M
tp726
asg55
I2006
sg43
VLANT
p727
sbag1
(g2
g3
NtRp728
(dp729
g49
Nsg45
VJ BIOL CHEM
p730
sg47
V270
p731
sg76
(lp732
(VWEDEGAERTNER
VP B
tp733
asg55
I1995
sg43
V503
p734
sbag1
(g2
g3
NtRp735
(dp736
g49
V10.1105/tpc.12.8.1267
p737
sg45
VPLANT CELL
p738
sg47
V12
p739
sg76
(lp740
(VYALOVSKY
VS
tp741
asg55
I2000
sg43
VLANT
p742
sbag1
(g2
g3
NtRp743
(dp744
g49
V10.1105/tpc.12.8.1257
p745
sg45
VPLANT CELL
p746
sg47
V12
p747
sg76
(lp748
(VYALOVSKY
VS
tp749
asg55
I2000
sg43
VLANT
p750
sbag1
(g2
g3
NtRp751
(dp752
g49
Nsg45
VMOL CELL BIOL
p753
sg47
V17
p754
sg76
(lp755
(VYALOVSKY
VS
tp756
asg55
I1997
sg43
V1986
p757
sbag1
(g2
g3
NtRp758
(dp759
g49
V10.1016/j.cub.2006.04.029
p760
sg45
VCURR BIOL
p761
sg47
V16
p762
sg76
(lp763
(VYANG
VY D
tp764
asg55
I2006
sg43
V1123
p765
sbag1
(g2
g3
NtRp766
(dp767
g49
V10.1146/annurev.bi.65.070196.001325
p768
sg45
VANNU REV BIOCHEM
p769
sg47
V65
p770
sg76
(lp771
(VZHANG
VF L
tp772
asg55
I1996
sg43
V241
p773
sbag1
(g2
g3
NtRp774
(dp775
g49
Nsg45
VJ BIOL CHEM
p776
sg47
V269
p777
sg76
(lp778
(VZHANG
VF L
tp779
asg55
I1994
sg43
V23465
p780
sbag1
(g2
g3
NtRp781
(dp782
g49
V10.1073/pnas.130189397
p783
sg45
VP NATL ACAD SCI USA
p784
sg47
V97
p785
sg76
(lp786
(VZIEGELHOFFER
VE C
tp787
asg55
I2000
sg43
V7633
p788
sbasb.