ccopy_reg
_reconstructor
p1
(ctethne.classes.paper
Paper
p2
c__builtin__
object
p3
NtRp4
(dp5
S'publisherCity'
p6
VROCKVILLE
p7
sS'reprintAddress'
p8
VFerl, RJ (reprint author), Univ Florida, Dept Hort Sci, Program Plant Mol & Cellular Biol, Gainesville, FL 32611 USA.
p9
sS'WC'
p10
VPlant Sciences
p11
sS'GA'
p12
V010RY
p13
sS'abstract'
p14
VThe 14-3-3 family of proteins functions through protein: phosphoprotein interactions, the nature of which has been elucidated using x-ray crystallography. However, some key structural features in nonconserved regions have yet to be fully resolved, leaving open questions regarding the functional selectivity of 14-3-3 family members for diverse clients. In an effort to study surface accessible structural features in 14-3-3 containing macromolecular complexes and to illuminate important structure/function variations among the 14-3-3 isoforms, we determined the epitopes for three unique monoclonal antibodies (mAbs) developed against the Arabidopsis (Arabidopsis thaliana) G-box DNA: protein complex. The epitopes mapped to different loops in a phylogenetically important subset of the 13 14-3-3 family members. All three epitopes were on a common exposed face of complexed 14-3-3s. Two of the mAbs recognized linear sequences within loops 5 and 6, while the third mAb recognized 14-3-3 residues surrounding the pivotal medial Gly in the divalent cation-binding domain of loop 8, together with distal residue(s) in the putative dynamic 10th helix that has yet to be determined by crystallography. Gly at this loop 8 position is unique to nonepsilon 14-3-3 isoforms of the plant kingdom, suggesting that this region constitutes a plant-specific key functional 14-3-3 feature and highlighting that the loop 8 region is functionally significant. Mutagenesis of the medial amino acid in the loop 8 domain changed the flexibility of the C terminus and altered client peptide-binding selectivity, demonstrating the functional significance of the surface accessible, evolutionarily distinct loop 8 domain.
p15
sS'pageEnd'
p16
I660
sS'publisherAddress'
p17
V15501 MONONA DRIVE, ROCKVILLE, MD 20855 USA
p18
sS'documentType'
p19
VArticle
p20
sS'subject'
p21
VPlant Sciences
p22
sS'isoSource'
p23
VPlant Physiol.
p24
sS'timesCited'
p25
(lp26
I15
aVZ9 17
p27
asS'PT'
p28
VJ
sS'title'
p29
VExposed Loop Domains Of Complexed 14-3-3 Proteins Contribute To Structural Diversity And Functional Specificity
p30
sS'ISSN'
p31
(lp32
V0032-0889
p33
aVJ9 PLANT PHYSIOL
p34
asS'authors_full'
p35
(lp36
(VSEHNKE
VPC
tp37
a(VLAUGHNER
VB
tp38
a(VCARDASIS
VH
tp39
a(VPOWELL
VD
tp40
a(VFERL
VRJ
tp41
asS'PG'
p42
I14
sS'PD'
p43
VFEB
p44
sS'pageStart'
p45
I647
sS'issue'
p46
I2
sS'journal'
p47
VPLANT PHYSIOLOGY
p48
sS'volume'
p49
V140
p50
sS'doi'
p51
V10.1104/pp.105.073916
p52
sS'emailAddress'
p53
Vrobferl@ufl.edu
p54
sS'authorAddress'
p55
(lp56
VUniv Florida, Dept Hort Sci, Program Plant Mol & Cellular Biol, Gainesville, FL 32611 USA.
p57
aVUniv Florida, Dept Chem, Gainesville, FL 32611 USA.
p58
asS'date'
p59
I2006
sS'ER'
p60
V
sS'publisher'
p61
VAMER SOC PLANT BIOLOGISTS
p62
sS'authorKeywords'
p63
(lp64
VPHOSPHORYLATED NITRATE REDUCTASE
p65
aVDNA-BINDING COMPLEX
p66
aVMEMBRANE H+-ATPASE
p67
aVARABIDOPSIS-THALIANA
p68
aVISOFORM SPECIFICITY
p69
aVCRYSTAL-STRUCTURE
p70
aV14-3-3-PROTEINS
p71
aVFAMILY
p72
aVPHOSPHATASE
p73
aVEVOLUTION
p74
asS'language'
p75
VEnglish
p76
sS'wosid'
p77
VWOS:000235215000021
p78
sS'citationCount'
p79
I42
sS'authors_init'
p80
(lp81
(VSEHNKE
VP C
tp82
a(VLAUGHNER
VB
tp83
a(VCARDASIS
VH
tp84
a(VPOWELL
VD
tp85
a(VFERL
VR J
tp86
asS'citedReferences'
p87
(lp88
g1
(g2
g3
NtRp89
(dp90
g51
V10.1002/prot.10071
p91
sg47
VPROTEINS
p92
sg49
V47
p93
sg80
(lp94
(VADAMIAN
VL
tp95
asg59
I2002
sg45
VROTEINS
p96
sbag1
(g2
g3
NtRp97
(dp98
g51
V10.1093/pcp/pch136
p99
sg47
VPLANT CELL PHYSIOL
p100
sg49
V45
p101
sg80
(lp102
(VALSTERFJORD
VM
tp103
asg59
I2004
sg45
VLANT
p104
sbag1
(g2
g3
NtRp105
(dp106
g51
Nsg47
VPLANT CELL PHYSIOL
p107
sg49
V39
p108
sg80
(lp109
(VATHWAL
VG S
tp110
asg59
I1998
sg45
VLANT
p111
sbag1
(g2
g3
NtRp112
(dp113
g51
Nsg47
VPLANT CELL PHYSIOL
p114
sg49
V41
p115
sg80
(lp116
(VATHWAL
VG S
tp117
asg59
I2000
sg45
VLANT
p118
sbag1
(g2
g3
NtRp119
(dp120
g51
V10.1046/j.0960-7412.2001.01200.x
p121
sg47
VPLANT J
p122
sg49
V29
p123
sg80
(lp124
(VATHWAL
VG S
tp125
asg59
I2002
sg45
VLANT
p126
sbag1
(g2
g3
NtRp127
(dp128
g51
Nsg47
VAM J SPORT MED
p129
sg49
V26
p130
sg80
(lp131
(VBACH
VB R
tp132
asg59
I1998
sg45
V30
p133
sbag1
(g2
g3
NtRp134
(dp135
g51
V10.1016/0014-5793(96)00478-4
p136
sg47
VFEBS LETT
p137
sg49
V387
p138
sg80
(lp139
(VBACHMANN
VM
tp140
asg59
I1996
sg45
V127
p141
sbag1
(g2
g3
NtRp142
(dp143
g51
V10.1016/j.jplph.2004.09.006
p144
sg47
VJ PLANT PHYSIOL
p145
sg49
V162
p146
sg80
(lp147
(VBORNKE
VF
tp148
asg59
I2005
sg45
V161
p149
sbag1
(g2
g3
NtRp150
(dp151
g51
V10.1006/jmbi.2001.5353
p152
sg47
VJ MOL BIOL
p153
sg49
V316
p154
sg80
(lp155
(VDAWSON
VJ P
tp156
asg59
I2002
sg45
V799
p157
sbag1
(g2
g3
NtRp158
(dp159
g51
Nsg47
VPLANT CELL
p160
sg49
V2
sg80
(lp161
(VDELISLE
VA J
tp162
asg59
I1990
sg45
VLANT
p163
sbag1
(g2
g3
NtRp164
(dp165
g51
V10.1007/BF00163762
p166
sg47
VGENETICA
p167
sg49
V92
p168
sg80
(lp169
(VFERL
VR J
tp170
asg59
I1994
sg45
V129
p171
sbag1
(g2
g3
NtRp172
(dp173
g51
V10.1055/s-2004-820933
p174
sg47
VPLANT BIOLOGY
p175
sg49
V6
sg80
(lp176
(VGIACOMETTI
VS
tp177
asg59
I2004
sg45
VLANT
p178
sbag1
(g2
g3
NtRp179
(dp180
g51
V10.1038/376191a0
p181
sg47
VNATURE
p182
sg49
V376
p183
sg80
(lp184
(VLIU
VD
tp185
asg59
I1995
sg45
V191
p186
sbag1
(g2
g3
NtRp187
(dp188
g51
V10.1007/BF00029604
p189
sg47
VPLANT MOL BIOL
p190
sg49
V25
p191
sg80
(lp192
(VLU
VG H
tp193
asg59
I1994
sg45
VLANT
p194
sbag1
(g2
g3
NtRp195
(dp196
g51
Nsg47
VPLANT CELL
p197
sg49
V6
sg80
(lp198
(VLU
VG H
tp199
asg59
I1994
sg45
VLANT
p200
sbag1
(g2
g3
NtRp201
(dp202
g51
V10.1073/pnas.89.23.11490
p203
sg47
VP NATL ACAD SCI USA
p204
sg49
V89
p205
sg80
(lp206
(VLU
VG H
tp207
asg59
I1992
sg45
V11490
p208
sbag1
(g2
g3
NtRp209
(dp210
g51
V10.1093/nar/gkh477
p211
sg47
VNUCLEIC ACIDS RES
p212
sg49
V32
p213
sg80
(lp214
(VMAITI
VR
tp215
asg59
I2004
sg45
VW590
p216
sbag1
(g2
g3
NtRp217
(dp218
g51
V10.1016/S0092-8674(01)00316-6
p219
sg47
VCELL
p220
sg49
V105
p221
sg80
(lp222
(VOBSIL
VT
tp223
asg59
I2001
sg45
V257
p224
sbag1
(g2
g3
NtRp225
(dp226
g51
V10.1074/jbc.M306939200
p227
sg47
VJ BIOL CHEM
p228
sg49
V279
p229
sg80
(lp230
(VOBSILOVA
VV
tp231
asg59
I2004
sg45
V4531
p232
sbag1
(g2
g3
NtRp233
(dp234
g51
Nsg47
VPLANT CELL
p235
sg49
V11
p236
sg80
(lp237
(VPAN
VS Q
tp238
asg59
I1999
sg45
VLANT
p239
sbag1
(g2
g3
NtRp240
(dp241
g51
V10.1091/mcb.E04-09-0839
p242
sg47
VMOL BIOL CELL
p243
sg49
V16
p244
sg80
(lp245
(VPAUL
VA L
tp246
asg59
I2005
sg45
V1735
p247
sbag1
(g2
g3
NtRp248
(dp249
g51
V10.1074/jbc.273.26.16305
p250
sg47
VJ BIOL CHEM
p251
sg49
V273
p252
sg80
(lp253
(VPETOSA
VC
tp254
asg59
I1998
sg45
V16305
p255
sbag1
(g2
g3
NtRp256
(dp257
g51
Nsg47
VBIOCHEM SOC T
p258
sg49
V30
p259
sg80
(lp260
(VROBERTS
VM R
tp261
asg59
I2002
sg45
V373
p262
sbag1
(g2
g3
NtRp263
(dp264
g51
V10.1016/S1360-1385(03)00056-6
p265
sg47
VTRENDS PLANT SCI
p266
sg49
V8
sg80
(lp267
(VROBERTS
VM R
tp268
asg59
I2003
sg45
V218
p269
sbag1
(g2
g3
NtRp270
(dp271
g51
V10.1104/pp.127.1.142
p272
sg47
VPLANT PHYSIOL
p273
sg49
V127
p274
sg80
(lp275
(VROSENQUIST
VM
tp276
asg59
I2001
sg45
VLANT
p277
sbag1
(g2
g3
NtRp278
(dp279
g51
Nsg47
VJ MOL EVOL
p280
sg49
V51
p281
sg80
(lp282
(VROSENQUIST
VM
tp283
asg59
I2000
sg45
V446
p284
sbag1
(g2
g3
NtRp285
(dp286
g51
V10.1105/tpc.010430
p287
sg47
VPLANT CELL
p288
sg49
V14
p289
sg80
(lp290
(VSEHNKE
VP C
tp291
asg59
I2002
sg45
VLANT
p292
sbag1
(g2
g3
NtRp293
(dp294
g51
V10.1023/A:1021289127519
p295
sg47
VPLANT MOL BIOL
p296
sg49
V50
p297
sg80
(lp298
(VSEHNKE
VP C
tp299
asg59
I2002
sg45
VLANT
p300
sbag1
(g2
g3
NtRp301
(dp302
g51
V10.1023/A:1021656723964
p303
sg47
VSTRUCT CHEM
p304
sg49
V14
p305
sg80
(lp306
(VSHENOY
VG
tp307
asg59
I2003
sg45
V3
sbag1
(g2
g3
NtRp308
(dp309
g51
V10.1016/j.plantsci.2005.05.013
p310
sg47
VPLANT SCI
p311
sg49
V169
p312
sg80
(lp313
(VSINNIGE
VM P
tp314
asg59
I2005
sg45
VLANT
p315
sbag1
(g2
g3
NtRp316
(dp317
g51
V10.1007/s00425-003-1083-7
p318
sg47
VPLANTA
p319
sg49
V218
p320
sg80
(lp321
(VSORRELL
VD A
tp322
asg59
I2003
sg45
VLANTA
p323
sbag1
(g2
g3
NtRp324
(dp325
g51
V10.1002/prot.10210
p326
sg47
VPROTEINS
p327
sg49
V49
p328
sg80
(lp329
(VTRUONG
VA B
tp330
asg59
I2002
sg45
VROTEINS
p331
sbag1
(g2
g3
NtRp332
(dp333
g51
V10.1016/0014-5793(96)00746-6
p334
sg47
VFEBS LETT
p335
sg49
V391
p336
sg80
(lp337
(VVANHEUSDEN
VG P H
tp338
asg59
I1996
sg45
V252
p339
sbag1
(g2
g3
NtRp340
(dp341
g51
V10.1074/jbc.M500982200
p342
sg47
VJ BIOL CHEM
p343
sg49
V280
p344
sg80
(lp345
(VWILKER
VE W
tp346
asg59
I2005
sg45
V18891
p347
sbag1
(g2
g3
NtRp348
(dp349
g51
V10.1074/jbc.M304689200
p350
sg47
VJ BIOL CHEM
p351
sg49
V278
p352
sg80
(lp353
(VWOODCOCK
VJ M
tp354
asg59
I2003
sg45
V36323
p355
sbag1
(g2
g3
NtRp356
(dp357
g51
V10.1006/abbi.1996.9841
p358
sg47
VARCH BIOCHEM BIOPHYS
p359
sg49
V339
p360
sg80
(lp361
(VWU
VK
tp362
asg59
I1997
sg45
V2
sbag1
(g2
g3
NtRp363
(dp364
g51
V10.1104/pp.114.4.1421
p365
sg47
VPLANT PHYSIOL
p366
sg49
V114
p367
sg80
(lp368
(VWU
VK
tp369
asg59
I1997
sg45
VLANT
p370
sbag1
(g2
g3
NtRp371
(dp372
g51
V10.1093/emboj/cdg104
p373
sg47
VEMBO J
p374
sg49
V22
p375
sg80
(lp376
(VWURTELE
VM
tp377
asg59
I2003
sg45
V987
p378
sbag1
(g2
g3
NtRp379
(dp380
g51
V10.1038/376188a0
p381
sg47
VNATURE
p382
sg49
V376
p383
sg80
(lp384
(VXIAO
VB
tp385
asg59
I1995
sg45
V188
p386
sbag1
(g2
g3
NtRp387
(dp388
g51
V10.1016/S0092-8674(00)80487-0
p389
sg47
VCELL
p390
sg49
V91
p391
sg80
(lp392
(VYAFFE
VM B
tp393
asg59
I1997
sg45
V961
p394
sbag1
(g2
g3
NtRp395
(dp396
g51
Nsg47
VJ BIOL CHEM
p397
sg49
V272
p398
sg80
(lp399
(VYAN
VB X
tp400
asg59
I1997
sg45
V3190
p401
sbag1
(g2
g3
NtRp402
(dp403
g51
V10.1023/A:1024661608722
p404
sg47
VBIOCHEMISTRY
p405
sg49
V68
p406
sg80
(lp407
(VZENG
VW Y
tp408
asg59
I2003
sg45
V634
p409
sbasb.