ccopy_reg
_reconstructor
p1
(ctethne.classes.paper
Paper
p2
c__builtin__
object
p3
NtRp4
(dp5
S'publisherCity'
p6
VROCKVILLE
p7
sS'reprintAddress'
p8
VWeigel, D (reprint author), Max Planck Inst Dev Biol, D-72076 Tubingen, Germany.
p9
sS'WC'
p10
VPlant Sciences
p11
sS'GA'
p12
V870IL
p13
sS'FX'
p14
(lp15
VThis work was supported in part by Framework Programme 7 Collaborative
p16
aVProject AENEAS (contract Knowledge Based BioEconomy-2009-226477), by
p17
aVTRANSNET of the Bundesministerium fur Bildung und Forschung program
p18
aVPLANT-Knowledge Based BioEconomy, by Schwerpunktprogramm 1529
p19
aV"Adaptomics" and Schwerpunktprogramm 1530 "Flowering Time Control" of
p20
aVthe Deutsche Forschungsgemeinschaft, by a Gottfried Wilhelm Leibniz
p21
aVAward of the Deutsche Forschungsgemeinschaft, and by the Max Planck
p22
aVSociety.
p23
asS'pageEnd'
p24
I22
sS'date'
p25
I2012
sS'documentType'
p26
VReview
p27
sS'subject'
p28
VPlant Sciences
p29
sS'isoSource'
p30
VPlant Physiol.
p31
sS'timesCited'
p32
(lp33
I32
aVZ9 32
p34
asS'funding'
p35
(lp36
(VFramework Programme 7 Collaborative Project AENEAS
V2009-226477
tp37
a(VTRANSNET of the Bundesministerium fur Bildung und Forschung
Ntp38
a(VDeutsche Forschungsgemeinschaft
Ntp39
a(VMax Planck Society
Ntp40
asS'PT'
p41
VJ
sS'title'
p42
VNatural Variation In Arabidopsis: From Molecular Genetics To Ecological Genomics
p43
sS'ISSN'
p44
(lp45
V0032-0889
p46
aVJ9 PLANT PHYSIOL
p47
asS'authors_full'
p48
(lp49
(VWEIGEL
VDETLEF
tp50
asS'PG'
p51
I21
sS'PD'
p52
VJAN
p53
sS'pageStart'
p54
I2
sS'issue'
p55
I1
sS'RI'
p56
VWeigel, Detlef/C-1418-2008
p57
sS'journal'
p58
VPLANT PHYSIOLOGY
p59
sS'volume'
p60
V158
p61
sS'doi'
p62
V10.1104/pp.111.189845
p63
sS'emailAddress'
p64
Vweigel@weigelworld.org
p65
sS'authorAddress'
p66
VMax Planck Inst Dev Biol, D-72076 Tubingen, Germany.
p67
sS'publisherAddress'
p68
V15501 MONONA DRIVE, ROCKVILLE, MD 20855 USA
p69
sS'ER'
p70
V
sS'publisher'
p71
VAMER SOC PLANT BIOLOGISTS
p72
sS'authorKeywords'
p73
(lp74
VQUANTITATIVE TRAIT LOCI
p75
aVRECOMBINANT INBRED LINES
p76
aVFLOWERING-TIME-VARIATION
p77
aVPOLYMORPHISM LINKAGE MAP
p78
aVDISEASE RESISTANCE GENE
p79
aVALLELIC VARIATION
p80
aVSEED DORMANCY
p81
aVVERNALIZATION RESPONSE
p82
aVWIDE ASSOCIATION
p83
aVDNA METHYLATION
p84
asS'OI'
p85
VWeigel, Detlef/0000-0002-2114-7963
p86
sS'language'
p87
VEnglish
p88
sS'wosid'
p89
VWOS:000298662500002
p90
sS'citationCount'
p91
I282
sS'authors_init'
p92
(lp93
(VWEIGEL
VD
tp94
asS'citedReferences'
p95
(lp96
g1
(g2
g3
NtRp97
(dp98
g62
V10.1111/j.1365-313X.2009.03962.x
p99
sg58
VPLANT J
p100
sg60
V60
p101
sg92
(lp102
(VADAMS
VS
tp103
asg25
I2009
sg54
VLANT
p104
sbag1
(g2
g3
NtRp105
(dp106
g62
V10.1073/pnas.0811734106
p107
sg58
VP NATL ACAD SCI USA
p108
sg60
V106
p109
sg92
(lp110
(VALCAZAR
VR
tp111
asg25
I2009
sg54
V334
p112
sbag1
(g2
g3
NtRp113
(dp114
g62
V10.1038/ng.704
p115
sg58
VNAT GENET
p116
sg60
V42
p117
sg92
(lp118
(VALCAZAR
VR
tp119
asg25
I2010
sg54
V1135
p120
sbag1
(g2
g3
NtRp121
(dp122
g62
V10.1038/nrg1893
p123
sg58
VNAT REV GENET
p124
sg60
V7
sg92
(lp125
(VALONSO
VJ M
tp126
asg25
I2006
sg54
V524
p127
sbag1
(g2
g3
NtRp128
(dp129
g62
V10.1016/S1360-1385(99)01510-1
p130
sg58
VTRENDS PLANT SCI
p131
sg60
V5
sg92
(lp132
(VALONSO-BLANCO
VC
tp133
asg25
I2000
sg54
V22
p134
sbag1
(g2
g3
NtRp135
(dp136
g62
V10.1046/j.1365-313X.1998.00115.x
p137
sg58
VPLANT J
p138
sg60
V14
p139
sg92
(lp140
(VALONSO-BLANCO
VC
tp141
asg25
I1998
sg54
VLANT
p142
sbag1
(g2
g3
NtRp143
(dp144
g62
VDOI 10.1199/TAB.001
p145
sg58
VARABIDOPSIS BOOK
p146
sg60
V1
sg92
(lp147
(VAL-SHEHBAZ
VI
tp148
asg25
I2002
sg54
V1
sbag1
(g2
g3
NtRp149
(dp150
g62
V10.1111/j.1365-313X.2011.04606.x
p151
sg58
VPLANT J
p152
sg60
V67
p153
sg92
(lp154
(VANASTASIO
VA E
tp155
asg25
I2011
sg54
VLANT
p156
sbag1
(g2
g3
NtRp157
(dp158
g62
V10.1038/ng767
p159
sg58
VNAT GENET
p160
sg60
V29
p161
sg92
(lp162
(VEL-ASSAL
VS E D
tp163
asg25
I2001
sg54
V435
p164
sbag1
(g2
g3
NtRp165
(dp166
g62
V10.1534/genetics.107.083899
p167
sg58
VGENETICS
p168
sg60
V178
p169
sg92
(lp170
(VSIMON
VM
tp171
asg25
I2008
sg54
V2253
p172
sbag1
(g2
g3
NtRp173
(dp174
g62
Nsg58
VGENETICS
p175
sg60
V149
p176
sg92
(lp177
(VALONSO-BLANCO
VC
tp178
asg25
I1998
sg54
V749
p179
sbag1
(g2
g3
NtRp180
(dp181
g62
V10.1534/genetics.110.116392
p182
sg58
VGENETICS
p183
sg60
V186
p184
sg92
(lp185
(VROSLOSKI
VS M
tp186
asg25
I2010
sg54
V263
p187
sbag1
(g2
g3
NtRp188
(dp189
g62
V10.1101/gad.405306
p190
sg58
VGENE DEV
p191
sg60
V20
p192
sg92
(lp193
(VSHINDO
VC
tp194
asg25
I2006
sg54
V3079
p195
sbag1
(g2
g3
NtRp196
(dp197
g62
V10.1371/journal.pone.0019949
p198
sg58
VPLOS ONE
p199
sg60
V6
sg92
(lp200
(VSTRANGE
VA
tp201
asg25
I2011
sg54
VLOS
p202
sbag1
(g2
g3
NtRp203
(dp204
g62
V10.1371/journal.pgen.0010060
p205
sg58
VPLOS GENET
p206
sg60
V1
sg92
(lp207
(VARANZANA
VM J
tp208
asg25
I2005
sg54
VLOS
p209
sbag1
(g2
g3
NtRp210
(dp211
g62
V10.1534/genetics.109.108514
p212
sg58
VGENETICS
p213
sg60
V183
p214
sg92
(lp215
(VARRIETA-MONTIEL
VM P
tp216
asg25
I2009
sg54
V1261
p217
sbag1
(g2
g3
NtRp218
(dp219
g62
V10.1146/annurev-genet-102209-163421
p220
sg58
VANNU REV GENET
p221
sg60
V44
p222
sg92
(lp223
(VASIMIT
VJ
tp224
asg25
I2010
sg54
V293
p225
sbag1
(g2
g3
NtRp226
(dp227
g62
V10.1038/nature08800
p228
sg58
VNATURE
p229
sg60
V465
p230
sg92
(lp231
(VATWELL
VS
tp232
asg25
I2010
sg54
V627
p233
sbag1
(g2
g3
NtRp234
(dp235
g62
Nsg58
VPLANT CELL
p236
sg60
V9
sg92
(lp237
(VAUKERMAN
VM J
tp238
asg25
I1997
sg54
VLANT
p239
sbag1
(g2
g3
NtRp240
(dp241
g62
V10.1097/00007890-197103000-00013
p242
sg58
VTRANSPLANTATION
p243
sg60
V11
p244
sg92
(lp245
(VBAILEY
VD W
tp246
asg25
I1971
sg54
V325
p247
sbag1
(g2
g3
NtRp248
(dp249
g62
V10.1371/journal.pone.0003376
p250
sg58
VPLOS ONE
p251
sg60
V3
sg92
(lp252
(VBAIRD
VN A
tp253
asg25
I2008
sg54
VLOS
p254
sbag1
(g2
g3
NtRp255
(dp256
g62
V10.1111/j.1365-294X.2006.02884.x
p257
sg58
VMOL ECOL
p258
sg60
V15
p259
sg92
(lp260
(VBAKKER
VE G
tp261
asg25
I2006
sg54
V1405
p262
sbag1
(g2
g3
NtRp263
(dp264
g62
V10.1371/journal.pone.0004318
p265
sg58
VPLOS ONE
p266
sg60
V4
sg92
(lp267
(VBALASUBRAMANIAN
VS
tp268
asg25
I2009
sg54
VLOS
p269
sbag1
(g2
g3
NtRp270
(dp271
g62
V10.1038/ng1818
p272
sg58
VNAT GENET
p273
sg60
V38
p274
sg92
(lp275
(VBALASUBRAMANIAN
VS
tp276
asg25
I2006
sg54
V711
p277
sbag1
(g2
g3
NtRp278
(dp279
g62
V10.1371/journal.pgen.1001193
p280
sg58
VPLOS GENET
p281
sg60
V6
sg92
(lp282
(VBAXTER
VI
tp283
asg25
I2010
sg54
VLOS
p284
sbag1
(g2
g3
NtRp285
(dp286
g62
V10.1111/j.1365-294X.2007.03615.x
p287
sg58
VMOL ECOL
p288
sg60
V17
p289
sg92
(lp290
(VBECK
VJ B
tp291
asg25
I2008
sg54
V902
p292
sbag1
(g2
g3
NtRp293
(dp294
g62
V10.1038/nature10555
p295
sg58
VNATURE
p296
sg60
V480
p297
sg92
(lp298
(VBECKER
VC
tp299
asg25
I2011
sg54
V245
p300
sbag1
(g2
g3
NtRp301
(dp302
g62
V10.1073/pnas.0601738103
p303
sg58
VP NATL ACAD SCI USA
p304
sg60
V103
p305
sg92
(lp306
(VBENDEROTH
VM
tp307
asg25
I2006
sg54
V9118
p308
sbag1
(g2
g3
NtRp309
(dp310
g62
V10.1073/pnas.1000410107
p311
sg58
VP NATL ACAD SCI USA
p312
sg60
V107
p313
sg92
(lp314
(VBENTSINK
VL
tp315
asg25
I2010
sg54
V4264
p316
sbag1
(g2
g3
NtRp317
(dp318
g62
V10.1073/pnas.0607877103
p319
sg58
VP NATL ACAD SCI USA
p320
sg60
V103
p321
sg92
(lp322
(VBENTSINK
VL
tp323
asg25
I2006
sg54
V17042
p324
sbag1
(g2
g3
NtRp325
(dp326
g62
V10.1038/nrg2896
p327
sg58
VNAT REV GENET
p328
sg60
V11
p329
sg92
(lp330
(VBERGELSON
VJ
tp331
asg25
I2010
sg54
V867
p332
sbag1
(g2
g3
NtRp333
(dp334
g62
V10.1093/emboj/cdg207
p335
sg58
VEMBO J
p336
sg60
V22
p337
sg92
(lp338
(VBERTHOMIEU
VP
tp339
asg25
I2003
sg54
V2004
p340
sbag1
(g2
g3
NtRp341
(dp342
g62
V10.1126/science.1165917
p343
sg58
VSCIENCE
p344
sg60
V323
p345
sg92
(lp346
(VBIKARD
VD
tp347
asg25
I2009
sg54
V623
p348
sbag1
(g2
g3
NtRp349
(dp350
g62
V10.1126/science.200.4347.1296
p351
sg58
VSCIENCE
p352
sg60
V200
p353
sg92
(lp354
(VBLAU
VP A
tp355
asg25
I1978
sg54
V1296
p356
sbag1
(g2
g3
NtRp357
(dp358
g62
V10.1371/journal.pbio.0050236
p359
sg58
VPLOS BIOL
p360
sg60
V5
sg92
(lp361
(VBOMBLIES
VK
tp362
asg25
I2007
sg54
VLOS
p363
sbag1
(g2
g3
NtRp364
(dp365
g62
V10.1146/annurev-arplant-042809-112146
p366
sg58
VANNU REV PLANT BIOL
p367
sg60
V61
p368
sg92
(lp369
(VBOMBLIES
VK
tp370
asg25
I2010
sg54
V109
p371
sbag1
(g2
g3
NtRp372
(dp373
g62
V10.1371/journal.pgen.1000890
p374
sg58
VPLOS GENET
p375
sg60
V6
sg92
(lp376
(VBOMBLIES
VK
tp377
asg25
I2010
sg54
VLOS
p378
sbag1
(g2
g3
NtRp379
(dp380
g62
V10.1038/nrg2082
p381
sg58
VNAT REV GENET
p382
sg60
V8
sg92
(lp383
(VBOMBLIES
VK
tp384
asg25
I2007
sg54
V382
p385
sbag1
(g2
g3
NtRp386
(dp387
g62
V10.1073/pnas.0705323104
p388
sg58
VP NATL ACAD SCI USA
p389
sg60
V104
p390
sg92
(lp391
(VBOREVITZ
VJ O
tp392
asg25
I2007
sg54
V12057
p393
sbag1
(g2
g3
NtRp394
(dp395
g62
V10.1038/ng1090
p396
sg58
VNAT GENET
p397
sg60
V33
p398
sg92
(lp399
(VBOTSTEIN
VD
tp400
asg25
I2003
sg54
V228
p401
sbag1
(g2
g3
NtRp402
(dp403
g62
Nsg58
VDEVELOPMENT
p404
sg60
V119
p405
sg92
(lp406
(VBOWMAN
VJ L
tp407
asg25
I1993
sg54
V721
p408
sbag1
(g2
g3
NtRp409
(dp410
g62
V10.1371/journal.pgen.1000940
p411
sg58
VPLOS GENET
p412
sg60
V6
sg92
(lp413
(VBRACHI
VB
tp414
asg25
I2010
sg54
VLOS
p415
sbag1
(g2
g3
NtRp416
(dp417
g62
V10.1073/pnas.1104032108
p418
sg58
VP NATL ACAD SCI USA
p419
sg60
V108
p420
sg92
(lp421
(VBRANCA
VA
tp422
asg25
I2011
sg54
VE864
p423
sbag1
(g2
g3
NtRp424
(dp425
g62
V10.1126/science.1174276
p426
sg58
VSCIENCE
p427
sg60
V325
p428
sg92
(lp429
(VBUCKLER
VE S
tp430
asg25
I2009
sg54
V714
p431
sbag1
(g2
g3
NtRp432
(dp433
g62
V10.1073/pnas.0406232101
p434
sg58
VP NATL ACAD SCI USA
p435
sg60
V101
p436
sg92
(lp437
(VCAICEDO
VA L
tp438
asg25
I2004
sg54
V15670
p439
sbag1
(g2
g3
NtRp440
(dp441
g62
V10.1073/pnas.96.1.302
p442
sg58
VP NATL ACAD SCI USA
p443
sg60
V96
p444
sg92
(lp445
(VCAICEDO
VA L
tp446
asg25
I1999
sg54
V302
p447
sbag1
(g2
g3
NtRp448
(dp449
g62
V10.1093/molbev/msn300
p450
sg58
VMOL BIOL EVOL
p451
sg60
V26
p452
sg92
(lp453
(VCAICEDO
VA L
tp454
asg25
I2009
sg54
V699
p455
sbag1
(g2
g3
NtRp456
(dp457
g62
V10.1038/ng.911
p458
sg58
VNAT GENET
p459
sg60
V43
p460
sg92
(lp461
(VCAO
VJ
tp462
asg25
I2011
sg54
V956
p463
sbag1
(g2
g3
NtRp464
(dp465
g62
Nsg58
VFOLIA FAC SCI NAT U
p466
sg60
V18
p467
sg92
(lp468
(VCETL
VI
tp469
asg25
I1968
sg54
V37
p470
sbag1
(g2
g3
NtRp471
(dp472
g62
V10.1371/journal.pbio.1001125
p473
sg58
VPLOS BIOL
p474
sg60
V9
sg92
(lp475
(VCHAN
VE K F
tp476
asg25
I2011
sg54
VLOS
p477
sbag1
(g2
g3
NtRp478
(dp479
g62
V10.1073/pnas.85.18.6856
p480
sg58
VP NATL ACAD SCI USA
p481
sg60
V85
p482
sg92
(lp483
(VCHANG
VC
tp484
asg25
I1988
sg54
V6856
p485
sbag1
(g2
g3
NtRp486
(dp487
g62
V10.1038/nrg2664
p488
sg58
VNAT REV GENET
p489
sg60
V10
p490
sg92
(lp491
(VCHARLESWORTH
VD
tp492
asg25
I2009
sg54
V783
p493
sbag1
(g2
g3
NtRp494
(dp495
g62
V10.1073/pnas.0901367106
p496
sg58
VP NATL ACAD SCI USA
p497
sg60
V106
p498
sg92
(lp499
(VCHIANG
VG C K
tp500
asg25
I2009
sg54
V11661
p501
sbag1
(g2
g3
NtRp502
(dp503
g62
V10.1126/science.1138632
p504
sg58
VSCIENCE
p505
sg60
V317
p506
sg92
(lp507
(VCLARK
VR M
tp508
asg25
I2007
sg54
V338
p509
sbag1
(g2
g3
NtRp510
(dp511
g62
Nsg58
VANNU REV MED
p512
sg60
V40
p513
sg92
(lp514
(VCLARK
VS S
tp515
asg25
I1989
sg54
V113
p516
sbag1
(g2
g3
NtRp517
(dp518
g62
Nsg58
VMOL GEN GENET
p519
sg60
V242
p520
sg92
(lp521
(VCLARKE
VJ H
tp522
asg25
I1994
sg54
V81
p523
sbag1
(g2
g3
NtRp524
(dp525
g62
V10.1007/BF02191594
p526
sg58
VMOL GEN GENET
p527
sg60
V248
p528
sg92
(lp529
(VCLARKE
VJ H
tp530
asg25
I1995
sg54
V278
p531
sbag1
(g2
g3
NtRp532
(dp533
g62
V10.1046/j.1365-313x.1998.00343.x
p534
sg58
VPLANT J
p535
sg60
V16
p536
sg92
(lp537
(VCLOUGH
VS J
tp538
asg25
I1998
sg54
VLANT
p539
sbag1
(g2
g3
NtRp540
(dp541
g62
V10.1038/nrg2579
p542
sg58
VNAT REV GENET
p543
sg60
V10
p544
sg92
(lp545
(VCORDELL
VH J
tp546
asg25
I2009
sg54
V392
p547
sbag1
(g2
g3
NtRp548
(dp549
g62
V10.1038/43657
p550
sg58
VNATURE
p551
sg60
V401
p552
sg92
(lp553
(VCUBAS
VP
tp554
asg25
I1999
sg54
V157
p555
sbag1
(g2
g3
NtRp556
(dp557
g62
Nsg58
VGENETICS
p558
sg60
V141
p559
sg92
(lp560
(VDARVASI
VA
tp561
asg25
I1995
sg54
V1199
p562
sbag1
(g2
g3
NtRp563
(dp564
g62
V10.1186/1741-7007-9-64
p565
sg58
VBMC BIOL
p566
sg60
V9
sg92
(lp567
(VDAVILA
VJ I
tp568
asg25
I2011
sg54
Nsbag1
(g2
g3
NtRp569
(dp570
g62
V10.1186/1471-2229-7-44
p571
sg58
VBMC PLANT BIOL
p572
sg60
V7
sg92
(lp573
(VDAVISON
VJ
tp574
asg25
I2007
sg54
Nsbag1
(g2
g3
NtRp575
(dp576
g62
V10.1073/pnas.1103175108
p577
sg58
VP NATL ACAD SCI USA
p578
sg60
V108
p579
sg92
(lp580
(VDENG
VW W
tp581
asg25
I2011
sg54
V6680
p582
sbag1
(g2
g3
NtRp583
(dp584
g62
Nsg58
VEVOLUTION
p585
sg60
V59
p586
sg92
(lp587
(VDONOHUE
VK
tp588
asg25
I2005
sg54
V740
p589
sbag1
(g2
g3
NtRp590
(dp591
g62
V10.1111/j.1365-313X.2004.02300.x
p592
sg58
VPLANT J
p593
sg60
V41
p594
sg92
(lp595
(VDOYLE
VM R
tp596
asg25
I2005
sg54
VLANT
p597
sbag1
(g2
g3
NtRp598
(dp599
g62
V10.1534/genetics.109.105189
p600
sg58
VGENETICS
p601
sg60
V183
p602
sg92
(lp603
(VEHRENREICH
VI M
tp604
asg25
I2009
sg54
V325
p605
sbag1
(g2
g3
NtRp606
(dp607
g62
V10.1371/journal.pone.0019379
p608
sg58
VPLOS ONE
p609
sg60
V6
sg92
(lp610
(VELSHIRE
VR J
tp611
asg25
I2011
sg54
VLOS
p612
sbag1
(g2
g3
NtRp613
(dp614
g62
Nsg58
VGEOGRAPHIC VARIATION
p615
sg60
Nsg92
(lp616
(VENDLER
VJ A
tp617
asg25
I1977
sg54
Nsbag1
(g2
g3
NtRp618
(dp619
g62
Nsg58
VGENETICS
p620
sg60
V141
p621
sg92
(lp622
(VESHED
VY
tp623
asg25
I1995
sg54
V1147
p624
sbag1
(g2
g3
NtRp625
(dp626
g62
V10.1073/pnas.1010846107
p627
sg58
VP NATL ACAD SCI USA
p628
sg60
V107
p629
sg92
(lp630
(VFAKHERAN
VS
tp631
asg25
I2010
sg54
V19120
p632
sbag1
(g2
g3
NtRp633
(dp634
g62
Nsg58
VINTRO QUANTITIATIVE
p635
sg60
Nsg92
(lp636
(VFALCONER
VD S
tp637
asg25
I1996
sg54
Nsbag1
(g2
g3
NtRp638
(dp639
g62
V10.1073/pnas.0712174105
p640
sg58
VP NATL ACAD SCI USA
p641
sg60
V105
p642
sg92
(lp643
(VFILIAULT
VD L
tp644
asg25
I2008
sg54
V3157
p645
sbag1
(g2
g3
NtRp646
(dp647
g62
V10.1093/molbev/msp161
p648
sg58
VMOL BIOL EVOL
p649
sg60
V26
p650
sg92
(lp651
(VFLOWERS
VJ M
tp652
asg25
I2009
sg54
V2475
p653
sbag1
(g2
g3
NtRp654
(dp655
g62
V10.1093/nar/gki774
p656
sg58
VNUCLEIC ACIDS RES
p657
sg60
V33
p658
sg92
(lp659
(VFORNER
VJ
tp660
asg25
I2005
sg54
V4673
p661
sbag1
(g2
g3
NtRp662
(dp663
g62
V10.1126/science.1209271
p664
sg58
VSCIENCE
p665
sg60
V334
p666
sg92
(lp667
(VFOURNIER-LEVEL
VA
tp668
asg25
I2011
sg54
V86
p669
sbag1
(g2
g3
NtRp670
(dp671
g62
V10.1371/journal.pgen.1000075
p672
sg58
VPLOS GENET
p673
sg60
V4
sg92
(lp674
(VFRANCOIS
VO
tp675
asg25
I2008
sg54
VLOS
p676
sbag1
(g2
g3
NtRp677
(dp678
g62
V10.1016/S0092-8674(00)80672-8
p679
sg58
VCELL
p680
sg60
V100
p681
sg92
(lp682
(VFRANSZ
VP F
tp683
asg25
I2000
sg54
V367
p684
sbag1
(g2
g3
NtRp685
(dp686
g62
V10.1093/pcp/pcn102
p687
sg58
VPLANT CELL PHYSIOL
p688
sg60
V49
p689
sg92
(lp690
(VFUJII
VS
tp691
asg25
I2008
sg54
VLANT
p692
sbag1
(g2
g3
NtRp693
(dp694
g62
V10.1038/nature10414
p695
sg58
VNATURE
p696
sg60
V477
p697
sg92
(lp698
(VGAN
VX C
tp699
asg25
I2011
sg54
V419
p700
sbag1
(g2
g3
NtRp701
(dp702
g62
V10.1104/pp.103.021212
p703
sg58
VPLANT PHYSIOL
p704
sg60
V132
p705
sg92
(lp706
(VGAZZANI
VS
tp707
asg25
I2003
sg54
VLANT
p708
sbag1
(g2
g3
NtRp709
(dp710
g62
V10.1111/j.1365-294X.2011.05193.x
p711
sg58
VMOL ECOL
p712
sg60
V20
p713
sg92
(lp714
(VGOMAA
VN H
tp715
asg25
I2011
sg54
V3540
p716
sbag1
(g2
g3
NtRp717
(dp718
g62
V10.1126/science.1177837
p719
sg58
VSCIENCE
p720
sg60
V326
p721
sg92
(lp722
(VGORE
VM A
tp723
asg25
I2009
sg54
V1115
p724
sbag1
(g2
g3
NtRp725
(dp726
g62
V10.1126/science.7638602
p727
sg58
VSCIENCE
p728
sg60
V269
p729
sg92
(lp730
(VGRANT
VM R
tp731
asg25
I1995
sg54
V843
p732
sbag1
(g2
g3
NtRp733
(dp734
g62
V10.1073/pnas.1019217108
p735
sg58
VP NATL ACAD SCI USA
p736
sg60
V108
p737
sg92
(lp738
(VGROSZMANN
VM
tp739
asg25
I2011
sg54
V2617
p740
sbag1
(g2
g3
NtRp741
(dp742
g62
V10.1126/science.1209244
p743
sg58
VSCIENCE
p744
sg60
V334
p745
sg92
(lp746
(VHANCOCK
VA M
tp747
asg25
I2011
sg54
V83
p748
sbag1
(g2
g3
NtRp749
(dp750
g62
Nsg58
VMOL BIOL EVOL
p751
sg60
V18
p752
sg92
(lp753
(VHAUSER
VM T
tp754
asg25
I2001
sg54
V1754
p755
sbag1
(g2
g3
NtRp756
(dp757
g62
V10.1534/genetics.106.056986
p758
sg58
VGENETICS
p759
sg60
V173
p760
sg92
(lp761
(VHEIDEL
VA J
tp762
asg25
I2006
sg54
V1629
p763
sbag1
(g2
g3
NtRp764
(dp765
g62
V10.1016/j.cub.2009.08.057
p766
sg58
VCurr Biol
p767
sg60
V19
p768
sg92
(lp769
(VHILSCHER
VJULIA
tp770
asg25
I2009
sg54
V1747
p771
sbag1
(g2
g3
NtRp772
(dp773
g62
V10.1016/j.tplants.2007.08.005
p774
sg58
VTRENDS PLANT SCI
p775
sg60
V12
p776
sg92
(lp777
(VHOCHHOLDINGER
VF
tp778
asg25
I2007
sg54
V427
p779
sbag1
(g2
g3
NtRp780
(dp781
g62
V10.1046/j.1365-2699.2002.00647.x
p782
sg58
VJ BIOGEOGR
p783
sg60
V29
p784
sg92
(lp785
(VHOFFMANN
VM H
tp786
asg25
I2002
sg54
V125
p787
sbag1
(g2
g3
NtRp788
(dp789
g62
V10.1016/j.actao.2005.03.010
p790
sg58
VACTA OECOL
p791
sg60
V28
p792
sg92
(lp793
(VHOFFMANN
VM H
tp794
asg25
I2005
sg54
V181
p795
sbag1
(g2
g3
NtRp796
(dp797
g62
Nsg58
VGENETICS
p798
sg60
V154
p799
sg92
(lp800
(VHOLLICK
VJ B
tp801
asg25
I2000
sg54
V1827
p802
sbag1
(g2
g3
NtRp803
(dp804
g62
Nsg58
VNAT GENET IN PRESS
p805
sg60
Nsg92
(lp806
(VHORTON
VM
tp807
asg25
I2012
sg54
Nsbag1
(g2
g3
NtRp808
(dp809
g62
V10.1038/ng.807
p810
sg58
VNAT GENET
p811
sg60
V43
p812
sg92
(lp813
(VHU
VT T
tp814
asg25
I2011
sg54
V476
p815
sbag1
(g2
g3
NtRp816
(dp817
g62
V10.1104/pp.110.154864
p818
sg58
VPLANT PHYSIOL
p819
sg60
V153
p820
sg92
(lp821
(VHUANG
VM S
tp822
asg25
I2010
sg54
VLANT
p823
sbag1
(g2
g3
NtRp824
(dp825
g62
V10.1038/ng.695
p826
sg58
VNAT GENET
p827
sg60
V42
p828
sg92
(lp829
(VHUANG
VX H
tp830
asg25
I2010
sg54
V961
p831
sbag1
(g2
g3
NtRp832
(dp833
g62
V10.1073/pnas.1100465108
p834
sg58
VP NATL ACAD SCI USA
p835
sg60
V108
p836
sg92
(lp837
(VHUANG
VX Q
tp838
asg25
I2011
sg54
V4488
p839
sbag1
(g2
g3
NtRp840
(dp841
g62
V10.1111/j.1365-294X.2010.04557.x
p842
sg58
VMOL ECOL
p843
sg60
V19
p844
sg92
(lp845
(VHUANG
VX Q
tp846
asg25
I2010
sg54
V1335
p847
sbag1
(g2
g3
NtRp848
(dp849
g62
V10.1146/annurev.arplant.59.032607.092949
p850
sg58
VANNU REV PLANT BIOL
p851
sg60
V59
p852
sg92
(lp853
(VISHIDA
VT
tp854
asg25
I2008
sg54
V365
p855
sbag1
(g2
g3
NtRp856
(dp857
g62
V10.1007/s00438-006-0172-2
p858
sg58
VMOL GENET GENOMICS
p859
sg60
V277
p860
sg92
(lp861
(VITO
VH
tp862
asg25
I2007
sg54
V23
p863
sbag1
(g2
g3
NtRp864
(dp865
g62
V10.1126/science.277.5329.1100
p866
sg58
VSCIENCE
p867
sg60
V277
p868
sg92
(lp869
(VJACOBSEN
VS E
tp870
asg25
I1997
sg54
V1100
p871
sbag1
(g2
g3
NtRp872
(dp873
g62
V10.1101/gr.084517.108
p874
sg58
VGENOME RES
p875
sg60
V19
p876
sg92
(lp877
(VJAMES
VS A
tp878
asg25
I2009
sg54
V626
p879
sbag1
(g2
g3
NtRp880
(dp881
g62
V10.1105/tpc.109.070334
p882
sg58
VPLANT CELL
p883
sg60
V21
p884
sg92
(lp885
(VJEUKEN
VM J W
tp886
asg25
I2009
sg54
VLANT
p887
sbag1
(g2
g3
NtRp888
(dp889
g62
V10.1371/journal.pgen.1002295
p890
sg58
VPLOS GENET
p891
sg60
V7
sg92
(lp892
(VJIMENEZ-GOMEZ
VJ M
tp893
asg25
I2011
sg54
VLOS
p894
sbag1
(g2
g3
NtRp895
(dp896
g62
V10.1371/journal.pgen.1001100
p897
sg58
VPLOS GENET
p898
sg60
V6
sg92
(lp899
(VJIMENEZ-GOMEZ
VJ M
tp900
asg25
I2010
sg54
VLOS
p901
sbag1
(g2
g3
NtRp902
(dp903
g62
V10.1534/genetics.111.127118
p904
sg58
VGENETICS
p905
sg60
V188
p906
sg92
(lp907
(VJOHANNES
VF
tp908
asg25
I2011
sg54
V215
p909
sbag1
(g2
g3
NtRp910
(dp911
g62
V10.1126/science.290.5490.344
p912
sg58
VSCIENCE
p913
sg60
V290
p914
sg92
(lp915
(VJOHANSON
VU
tp916
asg25
I2000
sg54
V344
p917
sbag1
(g2
g3
NtRp918
(dp919
g62
V10.1038/hdy.1971.71
p920
sg58
VHEREDITY
p921
sg60
V27
p922
sg92
(lp923
(VJONES
VM E
tp924
asg25
I1971
sg54
V59
p925
sbag1
(g2
g3
NtRp926
(dp927
g62
V10.1101/gr.144500
p928
sg58
VGENOME RES
p929
sg60
V10
p930
sg92
(lp931
(VJORDE
VL B
tp932
asg25
I2000
sg54
V1435
p933
sbag1
(g2
g3
NtRp934
(dp935
g62
V10.1111/j.1365-294X.2008.03960.x
p936
sg58
VMOL ECOL
p937
sg60
V17
p938
sg92
(lp939
(VJORGENSEN
VT H
tp940
asg25
I2008
sg54
V4912
p941
sbag1
(g2
g3
NtRp942
(dp943
g62
Nsg58
VBIOINFORMATICS
p944
sg60
V27
p945
sg92
(lp946
(VKAM-THONG
VT
tp947
asg25
I2011
sg54
Vi214
p948
sbag1
(g2
g3
NtRp949
(dp950
g62
V10.1034/j.1601-5223.2002.1360307.x
p951
sg58
VHEREDITAS
p952
sg60
V136
p953
sg92
(lp954
(VKARKKAINEN
VK
tp955
asg25
I2002
sg54
V219
p956
sbag1
(g2
g3
NtRp957
(dp958
g62
V10.1371/journal.pone.0022184
p959
sg58
VPLOS ONE
p960
sg60
V6
sg92
(lp961
(VKAWAGOE
VT
tp962
asg25
I2011
sg54
VLOS
p963
sbag1
(g2
g3
NtRp964
(dp965
g62
V10.1126/science.7824951
p966
sg58
VSCIENCE
p967
sg60
V267
p968
sg92
(lp969
(VKEMPIN
VS A
tp970
asg25
I1995
sg54
V522
p971
sbag1
(g2
g3
NtRp972
(dp973
g62
V10.1105/tpc.110.082065
p974
sg58
VPLANT CELL
p975
sg60
V23
p976
sg92
(lp977
(VKERWIN
VR E
tp978
asg25
I2011
sg54
VLANT
p979
sbag1
(g2
g3
NtRp980
(dp981
g62
V10.1534/genetics.106.066423
p982
sg58
VGENETICS
p983
sg60
V175
p984
sg92
(lp985
(VKEURENTJES
VJ J B
tp986
asg25
I2007
sg54
V891
p987
sbag1
(g2
g3
NtRp988
(dp989
g62
V10.1038/ng2115
p990
sg58
VNAT GENET
p991
sg60
V39
p992
sg92
(lp993
(VKIM
VS
tp994
asg25
I2007
sg54
V1151
p995
sbag1
(g2
g3
NtRp996
(dp997
g62
V10.1111/j.1365-294X.2007.03109.x
p998
sg58
VMOL ECOL
p999
sg60
V16
p1000
sg92
(lp1001
(VKIVIMAKI
VM
tp1002
asg25
I2007
sg54
V453
p1003
sbag1
(g2
g3
NtRp1004
(dp1005
g62
V10.1016/j.pbi.2005.03.002
p1006
sg58
VCURR OPIN PLANT BIOL
p1007
sg60
V8
sg92
(lp1008
(VKLIEBENSTEIN
VD J
tp1009
asg25
I2005
sg54
V264
p1010
sbag1
(g2
g3
NtRp1011
(dp1012
g62
V10.1105/tpc.13.3.681
p1013
sg58
VPLANT CELL
p1014
sg60
V13
p1015
sg92
(lp1016
(VKLIEBENSTEIN
VD J
tp1017
asg25
I2001
sg54
VLANT
p1018
sbag1
(g2
g3
NtRp1019
(dp1020
g62
V10.1146/annurev.arplant.55.031903.141605
p1021
sg58
VANNU REV PLANT BIOL
p1022
sg60
V55
p1023
sg92
(lp1024
(VKOORNNEEF
VM
tp1025
asg25
I2004
sg54
V141
p1026
sbag1
(g2
g3
NtRp1027
(dp1028
g62
V10.1371/journal.pgen.1000551
p1029
sg58
VPLOS GENET
p1030
sg60
V5
sg92
(lp1031
(VKOVER
VP X
tp1032
asg25
I2009
sg54
VLOS
p1033
sbag1
(g2
g3
NtRp1034
(dp1035
g62
Nsg58
VMOL GEN GENET
p1036
sg60
V245
p1037
sg92
(lp1038
(VKOWALSKI
VS P
tp1039
asg25
I1994
sg54
V548
p1040
sbag1
(g2
g3
NtRp1041
(dp1042
g62
V10.1073/pnas.1734046100
p1043
sg58
VP NATL ACAD SCI USA
p1044
sg60
V100
p1045
sg92
(lp1046
(VKROYMANN
VJ
tp1047
asg25
I2003
sg54
V14587
p1048
sbag1
(g2
g3
NtRp1049
(dp1050
g62
V10.1104/pp.127.3.1077
p1051
sg58
VPLANT PHYSIOL
p1052
sg60
V127
p1053
sg92
(lp1054
(VKROYMANN
VJ
tp1055
asg25
I2001
sg54
VLANT
p1056
sbag1
(g2
g3
NtRp1057
(dp1058
g62
V10.1126/science.1069288
p1059
sg58
VSCIENCE
p1060
sg60
V296
p1061
sg92
(lp1062
(VKRUGER
VJ
tp1063
asg25
I2002
sg54
V744
p1064
sbag1
(g2
g3
NtRp1065
(dp1066
g62
V10.1038/9642
p1067
sg58
VNAT GENET
p1068
sg60
V22
p1069
sg92
(lp1070
(VKRUGLYAK
VL
tp1071
asg25
I1999
sg54
V139
p1072
sbag1
(g2
g3
NtRp1073
(dp1074
g62
V10.1093/molbev/msm257
p1075
sg58
VMOL BIOL EVOL
p1076
sg60
V25
p1077
sg92
(lp1078
(VKUITTINEN
VH
tp1079
asg25
I2008
sg54
V319
p1080
sbag1
(g2
g3
NtRp1081
(dp1082
g62
V10.1534/genetics.105.055202
p1083
sg58
VGENETICS
p1084
sg60
V173
p1085
sg92
(lp1086
(VKUO
VH F
tp1087
asg25
I2006
sg54
V401
p1088
sbag1
(g2
g3
NtRp1089
(dp1090
g62
V10.1534/genetics.107.077628
p1091
sg58
VGENETICS
p1092
sg60
V177
p1093
sg92
(lp1094
(VKUSTERER
VB
tp1095
asg25
I2007
sg54
V1839
p1096
sbag1
(g2
g3
NtRp1097
(dp1098
g62
Nsg58
VBEITR BIOL PFLANZEN
p1099
sg60
V28
p1100
sg92
(lp1101
(VLAIBACH
VF
tp1102
asg25
I1951
sg54
V173
p1103
sbag1
(g2
g3
NtRp1104
(dp1105
g62
Nsg58
VBOT ARCH 
p1106
sg60
V44
p1107
sg92
(lp1108
(VLAIBACH
VF
tp1109
asg25
I1943
sg54
V439
p1110
sbag1
(g2
g3
NtRp1111
(dp1112
g62
V10.1104/pp.110.156448
p1113
sg58
VPLANT PHYSIOL
p1114
sg60
V153
p1115
sg92
(lp1116
(VLAITINEN
VR A E
tp1117
asg25
I2010
sg54
VLANT
p1118
sbag1
(g2
g3
NtRp1119
(dp1120
g62
V10.1105/tpc.13.12.2793
p1121
sg58
VPLANT CELL
p1122
sg60
V13
p1123
sg92
(lp1124
(VLAMBRIX
VV
tp1125
asg25
I2001
sg54
VLANT
p1126
sbag1
(g2
g3
NtRp1127
(dp1128
g62
V10.1126/science.274.5287.536
p1129
sg58
VSCIENCE
p1130
sg60
V274
p1131
sg92
(lp1132
(VLANDER
VE S
tp1133
asg25
I1996
sg54
V536
p1134
sbag1
(g2
g3
NtRp1135
(dp1136
g62
Nsg58
VDEVELOPMENT
p1137
sg60
V122
p1138
sg92
(lp1139
(VLARKIN
VJ C
tp1140
asg25
I1996
sg54
V997
p1141
sbag1
(g2
g3
NtRp1142
(dp1143
g62
Nsg58
VMOL BIOL EVOL
p1144
sg60
V19
p1145
sg92
(lp1146
(VLE
VCORRE V
tp1147
asg25
I2002
sg54
V1261
p1148
sbag1
(g2
g3
NtRp1149
(dp1150
g62
Nsg58
VMOL GEN GENET
p1151
sg60
V237
p1152
sg92
(lp1153
(VLEE
VI
tp1154
asg25
I1993
sg54
V171
p1155
sbag1
(g2
g3
NtRp1156
(dp1157
g62
V10.3732/ajb.0800080
p1158
sg58
VAM J BOT
p1159
sg60
V96
p1160
sg92
(lp1161
(VLEINONEN
VP H
tp1162
asg25
I2009
sg54
V1129
p1163
sbag1
(g2
g3
NtRp1164
(dp1165
g62
V10.1111/j.1558-5646.2010.01119.x
p1166
sg58
VEVOLUTION
p1167
sg60
V65
p1168
sg92
(lp1169
(VLEINONEN
VP H
tp1170
asg25
I2011
sg54
V90
p1171
sbag1
(g2
g3
NtRp1172
(dp1173
g62
V10.1371/journal.pgen.0010006
p1174
sg58
VPLOS GENET
p1175
sg60
V1
sg92
(lp1176
(VLEMPE
VJ
tp1177
asg25
I2005
sg54
VLOS
p1178
sbag1
(g2
g3
NtRp1179
(dp1180
g62
V10.1111/j.1558-5646.2011.01361.x
p1181
sg58
VEVOLUTION
p1182
sg60
V65
p1183
sg92
(lp1184
(VLEPPALA
VJ
tp1185
asg25
I2011
sg54
V2959
p1186
sbag1
(g2
g3
NtRp1187
(dp1188
g62
V10.1111/j.1365-294X.2010.04840.x
p1189
sg58
VMOL ECOL
p1190
sg60
V19
p1191
sg92
(lp1192
(VLEWANDOWSKA-SABAT
VA M
tp1193
asg25
I2010
sg54
V4753
p1194
sbag1
(g2
g3
NtRp1195
(dp1196
g62
V10.1016/j.devcel.2008.05.002
p1197
sg58
VDEV CELL
p1198
sg60
V15
p1199
sg92
(lp1200
(VLI
VD
tp1201
asg25
I2008
sg54
V110
p1202
sbag1
(g2
g3
NtRp1203
(dp1204
g62
V10.1007/s00122-002-1161-4
p1205
sg58
VTHEOR APPL GENET
p1206
sg60
V106
p1207
sg92
(lp1208
(VLI
VG
tp1209
asg25
I2003
sg54
V1116
p1210
sbag1
(g2
g3
NtRp1211
(dp1212
g62
V10.1073/pnas.1007431107
p1213
sg58
VP NATL ACAD SCI USA
p1214
sg60
V107
p1215
sg92
(lp1216
(VLI
VY
tp1217
asg25
I2010
sg54
V21199
p1218
sbag1
(g2
g3
NtRp1219
(dp1220
g62
V10.1371/journal.pone.0000105
p1221
sg58
VPLOS ONE
p1222
sg60
V1
sg92
(lp1223
(VLI
VY
tp1224
asg25
I2006
sg54
VLOS
p1225
sbag1
(g2
g3
NtRp1226
(dp1227
g62
V10.1111/j.1365-313X.2009.03910.x
p1228
sg58
VPLANT J
p1229
sg60
V59
p1230
sg92
(lp1231
(VLISEC
VJ
tp1232
asg25
I2009
sg54
VLANT
p1233
sbag1
(g2
g3
NtRp1234
(dp1235
g62
V10.1111/j.1365-313X.2007.03383.x
p1236
sg58
VPLANT J
p1237
sg60
V53
p1238
sg92
(lp1239
(VLISEC
VJ
tp1240
asg25
I2008
sg54
VLANT
p1241
sbag1
(g2
g3
NtRp1242
(dp1243
g62
V10.1046/j.1365-313X.1993.04040745.x
p1244
sg58
VPLANT J
p1245
sg60
V4
sg92
(lp1246
(VLISTER
VC
tp1247
asg25
I1993
sg54
VLANT
p1248
sbag1
(g2
g3
NtRp1249
(dp1250
g62
Nsg58
VGENETICS
p1251
sg60
V149
p1252
sg92
(lp1253
(VLONG
VA D
tp1254
asg25
I1998
sg54
V999
p1255
sbag1
(g2
g3
NtRp1256
(dp1257
g62
V10.1531/genetics.107.080705
p1258
sg58
VGENETICS
p1259
sg60
V177
p1260
sg92
(lp1261
(VLONG
VY
tp1262
asg25
I2007
sg54
V2433
p1263
sbag1
(g2
g3
NtRp1264
(dp1265
g62
V10.1007/s00122-001-0825-9
p1266
sg58
VTHEOR APPL GENET
p1267
sg60
V104
p1268
sg92
(lp1269
(VLOUDET
VO
tp1270
asg25
I2002
sg54
V1173
p1271
sbag1
(g2
g3
NtRp1272
(dp1273
g62
V10.1073/pnas.0807264105
p1274
sg58
VP NATL ACAD SCI USA
p1275
sg60
V105
p1276
sg92
(lp1277
(VLOUDET
VO
tp1278
asg25
I2008
sg54
V17193
p1279
sbag1
(g2
g3
NtRp1280
(dp1281
g62
V10.1146/annurev.genet.35.102401.090633
p1282
sg58
VANNU REV GENET
p1283
sg60
V35
p1284
sg92
(lp1285
(VMACKAY
VT F C
tp1286
asg25
I2001
sg54
V303
p1287
sbag1
(g2
g3
NtRp1288
(dp1289
g62
V10.1038/ng777
p1290
sg58
VNAT GENET
p1291
sg60
V29
p1292
sg92
(lp1293
(VMALOOF
VJ N
tp1294
asg25
I2001
sg54
V441
p1295
sbag1
(g2
g3
NtRp1296
(dp1297
g62
V10.1038/ng1841
p1298
sg58
VNAT GENET
p1299
sg60
V38
p1300
sg92
(lp1301
(VMANNING
VK
tp1302
asg25
I2006
sg54
V948
p1303
sbag1
(g2
g3
NtRp1304
(dp1305
g62
V10.1038/nature08494
p1306
sg58
VNATURE
p1307
sg60
V461
p1308
sg92
(lp1309
(VMANOLIO
VT A
tp1310
asg25
I2009
sg54
V747
p1311
sbag1
(g2
g3
NtRp1312
(dp1313
g62
V10.1038/ng1537
p1314
sg58
VNAT GENET
p1315
sg60
V37
p1316
sg92
(lp1317
(VMARCHINI
VJ
tp1318
asg25
I2005
sg54
V413
p1319
sbag1
(g2
g3
NtRp1320
(dp1321
g62
V10.1038/nature08498
p1322
sg58
VNATURE
p1323
sg60
V461
p1324
sg92
(lp1325
(VMARTIN
VA
tp1326
asg25
I2009
sg54
V1135
p1327
sbag1
(g2
g3
NtRp1328
(dp1329
g62
V10.1016/S0014-5793(02)03488-9
p1330
sg58
VFEBS LETT
p1331
sg60
V531
p1332
sg92
(lp1333
(VMASER
VP
tp1334
asg25
I2002
sg54
V157
p1335
sbag1
(g2
g3
NtRp1336
(dp1337
g62
V10.1086/286099
p1338
sg58
VAM NAT
p1339
sg60
V151
p1340
sg92
(lp1341
(VMAURICIO
VR
tp1342
asg25
I1998
sg54
V20
p1343
sbag1
(g2
g3
NtRp1344
(dp1345
g62
V10.2307/2411196
p1346
sg58
VEVOLUTION
p1347
sg60
V51
p1348
sg92
(lp1349
(VMAURICIO
VR
tp1350
asg25
I1997
sg54
V1435
p1351
sbag1
(g2
g3
NtRp1352
(dp1353
g62
V10.1038/nrg2344
p1354
sg58
VNAT REV GENET
p1355
sg60
V9
sg92
(lp1356
(VMCCARTHY
VM I
tp1357
asg25
I2008
sg54
V356
p1358
sbag1
(g2
g3
NtRp1359
(dp1360
g62
V10.1126/science.1174320
p1361
sg58
VSCIENCE
p1362
sg60
V325
p1363
sg92
(lp1364
(VMCMULLEN
VM D
tp1365
asg25
I2009
sg54
V737
p1366
sbag1
(g2
g3
NtRp1367
(dp1368
g62
V10.1101/gad.1081603
p1369
sg58
VGENE DEV
p1370
sg60
V17
p1371
sg92
(lp1372
(VMELQUIST
VS
tp1373
asg25
I2003
sg54
V2036
p1374
sbag1
(g2
g3
NtRp1375
(dp1376
g62
V10.1104/pp.111.183426
p1377
sg58
VPLANT PHYSIOL
p1378
sg60
V157
p1379
sg92
(lp1380
(VMENDEZ-VIGO
VB
tp1381
asg25
I2011
sg54
VLANT
p1382
sbag1
(g2
g3
NtRp1383
(dp1384
g62
V10.1038/nrg2626
p1385
sg58
VNAT REV GENET
p1386
sg60
V11
p1387
sg92
(lp1388
(VMETZKER
VM L
tp1389
asg25
I2010
sg54
V31
p1390
sbag1
(g2
g3
NtRp1391
(dp1392
g62
V10.1007/s00122-009-1074-6
p1393
sg58
VTHEOR APPL GENET
p1394
sg60
V120
p1395
sg92
(lp1396
(VMEYER
VR C
tp1397
asg25
I2010
sg54
V227
p1398
sbag1
(g2
g3
NtRp1399
(dp1400
g62
V10.1073/pnas.1531467100
p1401
sg58
VP NATL ACAD SCI USA
p1402
sg60
V100
p1403
sg92
(lp1404
(VMICHAELS
VS D
tp1405
asg25
I2003
sg54
V10102
p1406
sbag1
(g2
g3
NtRp1407
(dp1408
g62
V10.1105/tpc.11.5.949
p1409
sg58
VPLANT CELL
p1410
sg60
V11
p1411
sg92
(lp1412
(VMICHAELS
VS D
tp1413
asg25
I1999
sg54
VLANT
p1414
sbag1
(g2
g3
NtRp1415
(dp1416
g62
V10.1038/nature04878
p1417
sg58
VNATURE
p1418
sg60
V441
p1419
sg92
(lp1420
(VMITCHELL-OLDS
VT
tp1421
asg25
I2006
sg54
V947
p1422
sbag1
(g2
g3
NtRp1423
(dp1424
g62
Nsg58
VGENETICS
p1425
sg60
V140
p1426
sg92
(lp1427
(VMITCHELLOLDS
VT
tp1428
asg25
I1995
sg54
V1105
p1429
sbag1
(g2
g3
NtRp1430
(dp1431
g62
V10.1371/journal.pone.0007213
p1432
sg58
VPLOS ONE
p1433
sg60
V4
sg92
(lp1434
(VMONTESINOS
VA
tp1435
asg25
I2009
sg54
VLOS
p1436
sbag1
(g2
g3
NtRp1437
(dp1438
g62
V10.1105/tpc.109.068437
p1439
sg58
VPLANT CELL
p1440
sg60
V21
p1441
sg92
(lp1442
(VMYLES
VS
tp1443
asg25
I2009
sg54
VLANT
p1444
sbag1
(g2
g3
NtRp1445
(dp1446
g62
Nsg58
VPLANT CELL
p1447
sg60
V1
sg92
(lp1448
(VNAM
VH G
tp1449
asg25
I1989
sg54
VLANT
p1450
sbag1
(g2
g3
NtRp1451
(dp1452
g62
V10.1007/BF01930342
p1453
sg58
VPLANTA
p1454
sg60
V50
p1455
sg92
(lp1456
(VNAPPZINN
VK
tp1457
asg25
I1957
sg54
VLANTA
p1458
sbag1
(g2
g3
NtRp1459
(dp1460
g62
V10.1073/pnas.0913160107
p1461
sg58
VP NATL ACAD SCI USA
p1462
sg60
V107
p1463
sg92
(lp1464
(VNEMRI
VA
tp1465
asg25
I2010
sg54
V10302
p1466
sbag1
(g2
g3
NtRp1467
(dp1468
g62
V10.1146/annurev.genom.7.080505.115630
p1469
sg58
VANNU REV GENOM HUM G
p1470
sg60
V7
sg92
(lp1471
(VNG
VP C
tp1472
asg25
I2006
sg54
V61
p1473
sbag1
(g2
g3
NtRp1474
(dp1475
g62
V10.1038/nature07523
p1476
sg58
VNATURE
p1477
sg60
V457
p1478
sg92
(lp1479
(VNI
VZ F
tp1480
asg25
I2009
sg54
V327
p1481
sbag1
(g2
g3
NtRp1482
(dp1483
g62
V10.1111/j.1365-313X.2010.04131.x
p1484
sg58
VPLANT J
p1485
sg60
V61
p1486
sg92
(lp1487
(VNISHIMURA
VM T
tp1488
asg25
I2010
sg54
VLANT
p1489
sbag1
(g2
g3
NtRp1490
(dp1491
g62
V10.1105/tpc.11.11.2099
p1492
sg58
VPLANT CELL
p1493
sg60
V11
p1494
sg92
(lp1495
(VNOEL
VL
tp1496
asg25
I1999
sg54
VLANT
p1497
sbag1
(g2
g3
NtRp1498
(dp1499
g62
V10.1038/ng813
p1500
sg58
VNAT GENET
p1501
sg60
V30
p1502
sg92
(lp1503
(VNORDBORG
VM
tp1504
asg25
I2002
sg54
V190
p1505
sbag1
(g2
g3
NtRp1506
(dp1507
g62
V10.1371/journal.pbio.0030196
p1508
sg58
VPLoS Biol
p1509
sg60
V3
sg92
(lp1510
(VNORDBORG
VMAGNUS
tp1511
asg25
I2005
sg54
VLoS
p1512
sbag1
(g2
g3
NtRp1513
(dp1514
g62
V10.1038/nature07629
p1515
sg58
VNATURE
p1516
sg60
V456
p1517
sg92
(lp1518
(VNORDBORG
VM
tp1519
asg25
I2008
sg54
V720
p1520
sbag1
(g2
g3
NtRp1521
(dp1522
g62
V10.1534/genetics.103.024950
p1523
sg58
VGENETICS
p1524
sg60
V167
p1525
sg92
(lp1526
(VOLSEN
VK M
tp1527
asg25
I2004
sg54
V1361
p1528
sbag1
(g2
g3
NtRp1529
(dp1530
g62
V10.1126/science.1180677
p1531
sg58
VSCIENCE
p1532
sg60
V327
p1533
sg92
(lp1534
(VOSSOWSKI
VS
tp1535
asg25
I2010
sg54
V92
p1536
sbag1
(g2
g3
NtRp1537
(dp1538
g62
V10.1111/j.1365-313X.2007.03328.x
p1539
sg58
VPLANT J
p1540
sg60
V53
p1541
sg92
(lp1542
(VOSSOWSKI
VS
tp1543
asg25
I2008
sg54
VLANT
p1544
sbag1
(g2
g3
NtRp1545
(dp1546
g62
V10.1101/gr.080200.108
p1547
sg58
VGENOME RES
p1548
sg60
V18
p1549
sg92
(lp1550
(VOSSOWSKI
VS
tp1551
asg25
I2008
sg54
V2024
p1552
sbag1
(g2
g3
NtRp1553
(dp1554
g62
V10.1111/j.1365-294X.2006.02865.x
p1555
sg58
VMOL ECOL
p1556
sg60
V15
p1557
sg92
(lp1558
(VOSTROWSKI
VM F
tp1559
asg25
I2006
sg54
V1507
p1560
sbag1
(g2
g3
NtRp1561
(dp1562
g62
V10.1098/rstb.2010.0062
p1563
sg58
VPHILOS T R SOC B
p1564
sg60
V365
p1565
sg92
(lp1566
(VPAGAN
VI
tp1567
asg25
I2010
sg54
VHILOS
p1568
sbag1
(g2
g3
NtRp1569
(dp1570
g62
V10.1038/nature01958
p1571
sg58
VNATURE
p1572
sg60
V425
p1573
sg92
(lp1574
(VPALATNIK
VJ F
tp1575
asg25
I2003
sg54
V257
p1576
sbag1
(g2
g3
NtRp1577
(dp1578
g62
V10.1534/genetics.108.089581
p1579
sg58
VGENETICS
p1580
sg60
V180
p1581
sg92
(lp1582
(VPICO
VF X
tp1583
asg25
I2008
sg54
V1009
p1584
sbag1
(g2
g3
NtRp1585
(dp1586
g62
V10.1038/msb.2008.79
p1587
sg58
VMOL SYST BIOL
p1588
sg60
V5
sg92
(lp1589
(VPLANTEGENET
VS
tp1590
asg25
I2009
sg54
Nsbag1
(g2
g3
NtRp1591
(dp1592
g62
V10.1371/journal.pgen.1000843
p1593
sg58
VPLOS GENET
p1594
sg60
V6
sg92
(lp1595
(VPLATT
VA
tp1596
asg25
I2010
sg54
VLOS
p1597
sbag1
(g2
g3
NtRp1598
(dp1599
g62
V10.1038/nature08842
p1600
sg58
VNATURE
p1601
sg60
V464
p1602
sg92
(lp1603
(VRAVI
VM
tp1604
asg25
I2010
sg54
V615
p1605
sbag1
(g2
g3
NtRp1606
(dp1607
g62
V10.1007/s00122-007-0657-3
p1608
sg58
VTHEOR APPL GENET
p1609
sg60
V116
p1610
sg92
(lp1611
(VRAZI
VH
tp1612
asg25
I2008
sg54
V179
p1613
sbag1
(g2
g3
NtRp1614
(dp1615
g62
V10.1101/gad.524609
p1616
sg58
VGENE DEV
p1617
sg60
V23
p1618
sg92
(lp1619
(VREINDERS
VJ
tp1620
asg25
I2009
sg54
V939
p1621
sbag1
(g2
g3
NtRp1622
(dp1623
g62
V10.1073/pnas.89.4.1477
p1624
sg58
VP NATL ACAD SCI USA
p1625
sg60
V89
p1626
sg92
(lp1627
(VREITER
VR S
tp1628
asg25
I1992
sg54
V1477
p1629
sbag1
(g2
g3
NtRp1630
(dp1631
g62
V10.1104/pp.91.3.1112
p1632
sg58
VPLANT PHYSIOL
p1633
sg60
V91
p1634
sg92
(lp1635
(VRHODES
VD
tp1636
asg25
I1989
sg54
VLANT
p1637
sbag1
(g2
g3
NtRp1638
(dp1639
g62
V10.1126/science.273.5281.1516
p1640
sg58
VSCIENCE
p1641
sg60
V273
p1642
sg92
(lp1643
(VRISCH
VN
tp1644
asg25
I1996
sg54
V1516
p1645
sbag1
(g2
g3
NtRp1646
(dp1647
g62
V10.1534/genetics.166.3.1517
p1648
sg58
VGENETICS
p1649
sg60
V166
p1650
sg92
(lp1651
(VROSE
VL E
tp1652
asg25
I2004
sg54
V1517
p1653
sbag1
(g2
g3
NtRp1654
(dp1655
g62
V10.1534/genetics.111.128744
p1656
sg58
VGENETICS
p1657
sg60
V188
p1658
sg92
(lp1659
(VROUX
VF
tp1660
asg25
I2011
sg54
V1015
p1661
sbag1
(g2
g3
NtRp1662
(dp1663
g62
V10.1105/tpc.108.058131
p1664
sg58
VPLANT CELL
p1665
sg60
V20
p1666
sg92
(lp1667
(VROWE
VH C
tp1668
asg25
I2008
sg54
VLANT
p1669
sbag1
(g2
g3
NtRp1670
(dp1671
g62
V10.1038/322032a0
p1672
sg58
VNATURE
p1673
sg60
V322
p1674
sg92
(lp1675
(VROYERPOKORA
VB
tp1676
asg25
I1986
sg54
V32
p1677
sbag1
(g2
g3
NtRp1678
(dp1679
g62
V10.1534/genetics.111.126607
p1680
sg58
VGENETICS
p1681
sg60
V188
p1682
sg92
(lp1683
(VSALOME
VP A
tp1684
asg25
I2011
sg54
V421
p1685
sbag1
(g2
g3
NtRp1686
(dp1687
g62
Nsg58
VHEREDITY        1109
p1688
sg60
Nsg92
(lp1689
(VSALOME
VP A
tp1690
asg25
I2011
sg54
Nsbag1
(g2
g3
NtRp1691
(dp1692
g62
Nsg58
VGENETICS
p1693
sg60
V162
p1694
sg92
(lp1695
(VSANCHEZ-MORAN
VE
tp1696
asg25
I2002
sg54
V1415
p1697
sbag1
(g2
g3
NtRp1698
(dp1699
g62
V10.1111/j.1365-294X.2009.04145.x
p1700
sg58
VMOL ECOL
p1701
sg60
V18
p1702
sg92
(lp1703
(VSCARCELLI
VN
tp1704
asg25
I2009
sg54
V2039
p1705
sbag1
(g2
g3
NtRp1706
(dp1707
g62
V10.1038/ng1589
p1708
sg58
VNAT GENET
p1709
sg60
V37
p1710
sg92
(lp1711
(VSCHADT
VE E
tp1712
asg25
I2005
sg54
V710
p1713
sbag1
(g2
g3
NtRp1714
(dp1715
g62
V10.1104/pp.106.085571
p1716
sg58
VPLANT PHYSIOL
p1717
sg60
V142
p1718
sg92
(lp1719
(VSCHLAPPI
VM R
tp1720
asg25
I2006
sg54
VLANT
p1721
sbag1
(g2
g3
NtRp1722
(dp1723
g62
V10.1534/genetics.104.033795
p1724
sg58
VGENETICS
p1725
sg60
V169
p1726
sg92
(lp1727
(VSCHMID
VK J
tp1728
asg25
I2005
sg54
V1601
p1729
sbag1
(g2
g3
NtRp1730
(dp1731
g62
V10.1126/science.1212959
p1732
sg58
VSCIENCE
p1733
sg60
V334
p1734
sg92
(lp1735
(VSCHMITZ
VR J
tp1736
asg25
I2011
sg54
V369
p1737
sbag1
(g2
g3
NtRp1738
(dp1739
g62
V10.1093/aob/mcl012
p1740
sg58
VANN BOT
p1741
sg60
V97
p1742
sg92
(lp1743
(VSCHMUTHS
VH
tp1744
asg25
I2006
sg54
V623
p1745
sbag1
(g2
g3
NtRp1746
(dp1747
g62
V10.1073/pnas.1107739108
p1748
sg58
VP NATL ACAD SCI USA
p1749
sg60
V108
p1750
sg92
(lp1751
(VSCHNEEBERGER
VK
tp1752
asg25
I2011
sg54
V10249
p1753
sbag1
(g2
g3
NtRp1754
(dp1755
g62
V10.1186/gb-2009-10-9-r98
p1756
sg58
VGENOME BIOL
p1757
sg60
V10
p1758
sg92
(lp1759
(VSCHNEEBERGER
VK
tp1760
asg25
I2009
sg54
Nsbag1
(g2
g3
NtRp1761
(dp1762
g62
V10.1534/genetics.109.104984
p1763
sg58
VGENETICS
p1764
sg60
V183
p1765
sg92
(lp1766
(VSCHWARTZ
VC
tp1767
asg25
I2009
sg54
V723
p1768
sbag1
(g2
g3
NtRp1769
(dp1770
g62
V10.1104/pp.48.3.353
p1771
sg58
VPLANT PHYSIOL
p1772
sg60
V48
p1773
sg92
(lp1774
(VSEEVERS
VP M
tp1775
asg25
I1971
sg54
VLANT
p1776
sbag1
(g2
g3
NtRp1777
(dp1778
g62
V10.1046/j.1365-294X.2000.01122.x
p1779
sg58
VMOL ECOL
p1780
sg60
V9
sg92
(lp1781
(VSHARBEL
VT F
tp1782
asg25
I2000
sg54
V2109
p1783
sbag1
(g2
g3
NtRp1784
(dp1785
g62
V10.1104/pp.105.061309
p1786
sg58
VPLANT PHYSIOL
p1787
sg60
V138
p1788
sg92
(lp1789
(VSHINDO
VC
tp1790
asg25
I2005
sg54
VLANT
p1791
sbag1
(g2
g3
NtRp1792
(dp1793
g62
V10.1093/aob/mcl281
p1794
sg58
VANN BOT
p1795
sg60
V99
p1796
sg92
(lp1797
(VSHINDO
VC
tp1798
asg25
I2007
sg54
V1043
p1799
sbag1
(g2
g3
NtRp1800
(dp1801
g62
V10.1016/j.cub.2008.02.070
p1802
sg58
VCURR BIOL
p1803
sg60
V18
p1804
sg92
(lp1805
(VSIBOUT
VR
tp1806
asg25
I2008
sg54
V458
p1807
sbag1
(g2
g3
NtRp1808
(dp1809
g62
Nsg58
VPLANT J         1111
p1810
sg60
Nsg92
(lp1811
(VSIMON
VM
tp1812
asg25
I2011
sg54
VLANT
p1813
sbag1
(g2
g3
NtRp1814
(dp1815
g62
V10.1534/genetics.109.102798
p1816
sg58
VGENETICS
p1817
sg60
V182
p1818
sg92
(lp1819
(VSLATKIN
VM
tp1820
asg25
I2009
sg54
V845
p1821
sbag1
(g2
g3
NtRp1822
(dp1823
g62
V10.1534/genetics.109.103705
p1824
sg58
VGENETICS
p1825
sg60
V183
p1826
sg92
(lp1827
(VSLOTTE
VT
tp1828
asg25
I2009
sg54
V337
p1829
sbag1
(g2
g3
NtRp1830
(dp1831
g62
V10.1371/journal.pgen.1002164
p1832
sg58
VPLOS GENET
p1833
sg60
V7
sg92
(lp1834
(VSMITH
VL M
tp1835
asg25
I2011
sg54
VLOS
p1836
sbag1
(g2
g3
NtRp1837
(dp1838
g62
Nsg58
VTHEOR APPL GENET
p1839
sg60
V80
p1840
sg92
(lp1841
(VSOLLER
VM
tp1842
asg25
I1990
sg54
V205
p1843
sbag1
(g2
g3
NtRp1844
(dp1845
g62
V10.1371/journal.pone.0001322
p1846
sg58
VPLOS ONE
p1847
sg60
V2
sg92
(lp1848
(VSONDERBY
VI E
tp1849
asg25
I2007
sg54
VLOS
p1850
sbag1
(g2
g3
NtRp1851
(dp1852
g62
V10.1016/S1097-2765(00)00078-2
p1853
sg58
VMOL CELL
p1854
sg60
V6
sg92
(lp1855
(VSOPPE
VW J J
tp1856
asg25
I2000
sg54
V791
p1857
sbag1
(g2
g3
NtRp1858
(dp1859
g62
V10.1007/s00018-011-0673-y
p1860
sg58
VCELL MOL LIFE SCI
p1861
sg60
V68
p1862
sg92
(lp1863
(VSRIKANTH
VA
tp1864
asg25
I2011
sg54
V2013
p1865
sbag1
(g2
g3
NtRp1866
(dp1867
g62
V10.1038/23260
p1868
sg58
VNATURE
p1869
sg60
V400
p1870
sg92
(lp1871
(VSTAHL
VE A
tp1872
asg25
I1999
sg54
V667
p1873
sbag1
(g2
g3
NtRp1874
(dp1875
g62
V10.1101/gad.1006702
p1876
sg58
VGENE DEV
p1877
sg60
V16
p1878
sg92
(lp1879
(VSTAM
VM
tp1880
asg25
I2002
sg54
V1906
p1881
sbag1
(g2
g3
NtRp1882
(dp1883
g62
V10.1126/science.7732374
p1884
sg58
VSCIENCE
p1885
sg60
V268
p1886
sg92
(lp1887
(VSTASKAWICZ
VB J
tp1888
asg25
I1995
sg54
V661
p1889
sbag1
(g2
g3
NtRp1890
(dp1891
g62
V10.1111/j.1365-294X.2004.02359.x
p1892
sg58
VMOL ECOL
p1893
sg60
V14
p1894
sg92
(lp1895
(VSTENOIEN
VH K
tp1896
asg25
I2005
sg54
V137
p1897
sbag1
(g2
g3
NtRp1898
(dp1899
g62
V10.1073/pnas.0306401101
p1900
sg58
VP NATL ACAD SCI USA
p1901
sg60
V101
p1902
sg92
(lp1903
(VSTINCHCOMBE
VJ R
tp1904
asg25
I2004
sg54
V4712
p1905
sbag1
(g2
g3
NtRp1906
(dp1907
g62
V10.1111/j.1469-8137.2009.03023.x
p1908
sg58
VNEW PHYTOL
p1909
sg60
V184
p1910
sg92
(lp1911
(VSUGLIANI
VM
tp1912
asg25
I2009
sg54
V898
p1913
sbag1
(g2
g3
NtRp1914
(dp1915
g62
V10.1073/pnas.0903478106
p1916
sg58
VP NATL ACAD SCI USA
p1917
sg60
V106
p1918
sg92
(lp1919
(VSULPICE
VR
tp1920
asg25
I2009
sg54
V10348
p1921
sbag1
(g2
g3
NtRp1922
(dp1923
g62
Nsg58
VPLANT CELL
p1924
sg60
V22
p1925
sg92
(lp1926
(VSULPICE
VR
tp1927
asg25
I2010
sg54
VLANT
p1928
sbag1
(g2
g3
NtRp1929
(dp1930
g62
V10.1038/sj.hdy.6800558
p1931
sg58
VHEREDITY
p1932
sg60
V94
p1933
sg92
(lp1934
(VSYED
VN H
tp1935
asg25
I2005
sg54
V295
p1936
sbag1
(g2
g3
NtRp1937
(dp1938
g62
V10.1371/journal.pgen.1002069
p1939
sg58
VPLOS GENET
p1940
sg60
V7
sg92
(lp1941
(VSYMONDS
VV V
tp1942
asg25
I2011
sg54
VLOS
p1943
sbag1
(g2
g3
NtRp1944
(dp1945
g62
V10.1126/science.1165313
p1946
sg58
VSCIENCE
p1947
sg60
V323
p1948
sg92
(lp1949
(VTEIXEIRA
VF K
tp1950
asg25
I2009
sg54
V1600
p1951
sbag1
(g2
g3
NtRp1952
(dp1953
g62
V10.1093/gbe/evr008
p1954
sg58
VGENOME BIOL EVOL
p1955
sg60
V3
sg92
(lp1956
(VTENAILLON
VM I
tp1957
asg25
I2011
sg54
V219
p1958
sbag1
(g2
g3
NtRp1959
(dp1960
g62
Nsg58
VNATURE
p1961
sg60
V408
p1962
sg92
(lp1963
(VKAUL
VS
tp1964
asg25
I2000
sg54
V796
p1965
sbag1
(g2
g3
NtRp1966
(dp1967
g62
V10.1038/nature01588
p1968
sg58
VNATURE
p1969
sg60
V423
p1970
sg92
(lp1971
(VTIAN
VD
tp1972
asg25
I2003
sg54
V74
p1973
sbag1
(g2
g3
NtRp1974
(dp1975
g62
V10.1038/nature09083
p1976
sg58
VNATURE
p1977
sg60
V465
p1978
sg92
(lp1979
(VTODESCO
VM
tp1980
asg25
I2010
sg54
V632
p1981
sbag1
(g2
g3
NtRp1982
(dp1983
g62
V10.1371/journal.pbio.0040137
p1984
sg58
VPLOS BIOL
p1985
sg60
V4
sg92
(lp1986
(VTOOMAJIAN
VC
tp1987
asg25
I2006
sg54
VLOS
p1988
sbag1
(g2
g3
NtRp1989
(dp1990
g62
V10.1093/jhered/esn014
p1991
sg58
VJ HERED
p1992
sg60
V99
p1993
sg92
(lp1994
(VTORJEK
VO
tp1995
asg25
I2008
sg54
V396
p1996
sbag1
(g2
g3
NtRp1997
(dp1998
g62
V10.1007/s00122-006-0402-3
p1999
sg58
VTHEOR APPL GENET
p2000
sg60
V113
p2001
sg92
(lp2002
(VTORJEK
VO
tp2003
asg25
I2006
sg54
V1551
p2004
sbag1
(g2
g3
NtRp2005
(dp2006
g62
V10.1007/s001220050654
p2007
sg58
VTHEOR APPL GENET
p2008
sg60
V95
p2009
sg92
(lp2010
(VTUINSTRA
VM R
tp2011
asg25
I1997
sg54
V1005
p2012
sbag1
(g2
g3
NtRp2013
(dp2014
g62
Nsg58
VHEREDITAS
p2015
sg60
V3
sg92
(lp2016
(VTURESSON
VG
tp2017
asg25
I1922
sg54
V100
p2018
sbag1
(g2
g3
NtRp2019
(dp2020
g62
Nsg58
VHEREDITAS
p2021
sg60
V3
sg92
(lp2022
(VTURESSON
VG
tp2023
asg25
I1922
sg54
V211
p2024
sbag1
(g2
g3
NtRp2025
(dp2026
g62
Nsg58
VGENETICS
p2027
sg60
V163
p2028
sg92
(lp2029
(VUNGERER
VM C
tp2030
asg25
I2003
sg54
V277
p2031
sbag1
(g2
g3
NtRp2032
(dp2033
g62
Nsg58
VEVOLUTION
p2034
sg60
V57
p2035
sg92
(lp2036
(VUNGERER
VM C
tp2037
asg25
I2003
sg54
V2531
p2038
sbag1
(g2
g3
NtRp2039
(dp2040
g62
V10.1038/hdy.1997.142
p2041
sg58
VHEREDITY
p2042
sg60
V79
p2043
sg92
(lp2044
(VVANDERSCHAAR
VW
tp2045
asg25
I1997
sg54
V190
p2046
sbag1
(g2
g3
NtRp2047
(dp2048
g62
V10.1371/journal.pbio.0050174
p2049
sg58
VPLOS BIOL
p2050
sg60
V5
sg92
(lp2051
(VVAUGHN
VM W
tp2052
asg25
I2007
sg54
VLOS
p2053
sbag1
(g2
g3
NtRp2054
(dp2055
g62
V10.1371/journal.pgen.1000945
p2056
sg58
VPLOS GENET
p2057
sg60
V6
sg92
(lp2058
(VVLAD
VD
tp2059
asg25
I2010
sg54
VLOS
p2060
sbag1
(g2
g3
NtRp2061
(dp2062
g62
V10.1007/s11103-010-9664-x
p2063
sg58
VPLANT MOL BIOL
p2064
sg60
V74
p2065
sg92
(lp2066
(VWANG
VC T
tp2067
asg25
I2010
sg54
VLANT
p2068
sbag1
(g2
g3
NtRp2069
(dp2070
g62
V10.1534/genetics.105.047894
p2071
sg58
VGENETICS
p2072
sg60
V172
p2073
sg92
(lp2074
(VWANG
VJ L
tp2075
asg25
I2006
sg54
V507
p2076
sbag1
(g2
g3
NtRp2077
(dp2078
g62
V10.1093/jxb/err249
p2079
sg58
VJ EXP BOT
p2080
sg60
V62
p2081
sg92
(lp2082
(VWANG
VN A
tp2083
asg25
I2011
sg54
V5641
p2084
sbag1
(g2
g3
NtRp2085
(dp2086
g62
V10.1016/j.cub.2007.07.059
p2087
sg58
VCURR BIOL
p2088
sg60
V17
p2089
sg92
(lp2090
(VWANG
VQ
tp2091
asg25
I2007
sg54
V1513
p2092
sbag1
(g2
g3
NtRp2093
(dp2094
g62
V10.1186/gb-2009-10-5-107
p2095
sg58
VGENOME BIOL
p2096
sg60
V10
p2097
sg92
(lp2098
(VWEIGEL
VD
tp2099
asg25
I2009
sg54
Nsbag1
(g2
g3
NtRp2100
(dp2101
g62
V10.1046/j.1365-294X.2003.01787.x
p2102
sg58
VMOL ECOL
p2103
sg60
V12
p2104
sg92
(lp2105
(VWEINIG
VC
tp2106
asg25
I2003
sg54
V1153
p2107
sbag1
(g2
g3
NtRp2108
(dp2109
g62
Nsg58
VGENETICS
p2110
sg60
V165
p2111
sg92
(lp2112
(VWEINIG
VC
tp2113
asg25
I2003
sg54
V321
p2114
sbag1
(g2
g3
NtRp2115
(dp2116
g62
Nsg58
VGENETICS
p2117
sg60
V162
p2118
sg92
(lp2119
(VWEINIG
VC
tp2120
asg25
I2002
sg54
V1875
p2121
sbag1
(g2
g3
NtRp2122
(dp2123
g62
Nsg58
VNATURE
p2124
sg60
V447
p2125
sg92
(lp2126
(VWELLCOME
S''
tp2127
asg25
I2007
sg54
V661
p2128
sbag1
(g2
g3
NtRp2129
(dp2130
g62
V10.1371/journal.pgen.0030162
p2131
sg58
VPLOS GENET
p2132
sg60
V3
sg92
(lp2133
(VWENTZELL
VA M
tp2134
asg25
I2007
sg54
VLOS
p2135
sbag1
(g2
g3
NtRp2136
(dp2137
g62
V10.1073/pnas.0409474102
p2138
sg58
VP NATL ACAD SCI USA
p2139
sg60
V102
p2140
sg92
(lp2141
(VWERNER
VJ D
tp2142
asg25
I2005
sg54
V2460
p2143
sbag1
(g2
g3
NtRp2144
(dp2145
g62
V10.1038/hdy.1971.50
p2146
sg58
VHEREDITY
p2147
sg60
V26
p2148
sg92
(lp2149
(VWESTERMAJM
S''
tp2150
asg25
I1971
sg54
V383
p2151
sbag1
(g2
g3
NtRp2152
(dp2153
g62
V10.1126/science.1165826
p2154
sg58
VSCIENCE
p2155
sg60
V323
p2156
sg92
(lp2157
(VWILCZEK
VA M
tp2158
asg25
I2009
sg54
V930
p2159
sbag1
(g2
g3
NtRp2160
(dp2161
g62
V10.1098/rstb.2010.0128
p2162
sg58
VPHILOS T R SOC B
p2163
sg60
V365
p2164
sg92
(lp2165
(VWILCZEK
VA M
tp2166
asg25
I2010
sg54
VHILOS
p2167
sbag1
(g2
g3
NtRp2168
(dp2169
g62
V10.1186/1471-2229-8-92
p2170
sg58
VBMC PLANT BIOL
p2171
sg60
V8
sg92
(lp2172
(VWOO
VH R
tp2173
asg25
I2008
sg54
Nsbag1
(g2
g3
NtRp2174
(dp2175
g62
V10.1534/genetics.104.033746
p2176
sg58
VGENETICS
p2177
sg60
V170
p2178
sg92
(lp2179
(VXU
VZ L
tp2180
asg25
I2005
sg54
V401
p2181
sbag1
(g2
g3
NtRp2182
(dp2183
g62
V10.1007/s00438-010-0514-y
p2184
sg58
VMOL GENET GENOMICS
p2185
sg60
V283
p2186
sg92
(lp2187
(VYAMAMOTO
VE
tp2188
asg25
I2010
sg54
V305
p2189
sbag1
(g2
g3
NtRp2190
(dp2191
g62
V10.1534/genetics.107.074245
p2192
sg58
VGENETICS
p2193
sg60
V178
p2194
sg92
(lp2195
(VYU
VJ M
tp2196
asg25
I2008
sg54
V539
p2197
sbag1
(g2
g3
NtRp2198
(dp2199
g62
V10.1101/gr.070169.107
p2200
sg58
VGENOME RES
p2201
sg60
V18
p2202
sg92
(lp2203
(VZELLER
VG
tp2204
asg25
I2008
sg54
V918
p2205
sbag1
(g2
g3
NtRp2206
(dp2207
g62
V10.1101/gr.115337.110
p2208
sg58
VGENOME RES
p2209
sg60
V21
p2210
sg92
(lp2211
(VZHANG
VX
tp2212
asg25
I2011
sg54
V725
p2213
sbag1
(g2
g3
NtRp2214
(dp2215
g62
V10.1371/journal.pgen.1000032
p2216
sg58
VPLOS GENET
p2217
sg60
V4
sg92
(lp2218
(VZHANG
VX
tp2219
asg25
I2008
sg54
VLOS
p2220
sbag1
(g2
g3
NtRp2221
(dp2222
g62
V10.1534/genetics.109.103499
p2223
sg58
VGENETICS
p2224
sg60
V182
p2225
sg92
(lp2226
(VZHANG
VX
tp2227
asg25
I2009
sg54
V943
p2228
sbag1
(g2
g3
NtRp2229
(dp2230
g62
V10.1105/tpc.105.039602
p2231
sg58
VPLANT CELL
p2232
sg60
V18
p2233
sg92
(lp2234
(VZHANG
VZ Y
tp2235
asg25
I2006
sg54
VLANT
p2236
sbag1
(g2
g3
NtRp2237
(dp2238
g62
V10.1093/jxb/erq048
p2239
sg58
VJ EXP BOT
p2240
sg60
V61
p2241
sg92
(lp2242
(VZHAO
VJ J
tp2243
asg25
I2010
sg54
V1817
p2244
sbag1
(g2
g3
NtRp2245
(dp2246
g62
V10.1371/journal.pgen.0030004
p2247
sg58
VPLOS GENET
p2248
sg60
V3
sg92
(lp2249
(VZHAO
VK Y
tp2250
asg25
I2007
sg54
VLOS
p2251
sbasb.