ccopy_reg
_reconstructor
p1
(ctethne.classes.paper
Paper
p2
c__builtin__
object
p3
NtRp4
(dp5
S'publisherCity'
p6
VROCKVILLE
p7
sS'reprintAddress'
p8
VWhitelam, GC (reprint author), Univ Leicester, Dept Biol, Leicester LE1 7RH, Leics, England.
p9
sS'WC'
p10
VPlant Sciences
p11
sS'GA'
p12
V175PA
p13
sS'abstract'
p14
VShade avoidance in higher plants is regulated by the action of multiple phytochrome (phy) species that detect changes in the red/far-red ratio (R/FR) of incident light and initiate a redirection of growth and an acceleration of flowering. The phyB mutant of Arabidopsis is constitutively elongated and early flowering and displays attenuated responses to both reduced R/FR and end-of-day far-red light, conditions that induce strong shade-avoidance reactions in wild-type plants. This indicates that phyB plays an important role in the control of shade avoidance. In Arabidopsis phyB and phyD are the products of a recently duplicated gene and share approximately 80% identity. We investigated the role played by phyD in shade avoidance by analyzing the responses of phyD-deficient mutants. Compared with the monogenic phyB mutant, the phyB-phyD double mutant flowers early and has a smaller leaf area, phenotypes that are characteristic of shade avoidance. Furthermore, compared with the monogenic phyB mutant, the phyB-phyD double mutant shows a more attenuated response to a reduced R/FR for these responses. Compared with the phyA-phyB double mutant, the phyA-phyB-phyD triple mutant has elongated petioles and displays an enhanced elongation of internodes in response to end-of-day far-red light. These characteristics indicate that phyD acts in the shade-avoidance syndrome by controlling flowering time and leaf area and that phyC and/or phyE also play a role.
p15
sS'pageEnd'
p16
I915
sS'publisherAddress'
p17
V15501 MONONA DRIVE, ROCKVILLE, MD 20855 USA
p18
sS'documentType'
p19
VArticle
p20
sS'subject'
p21
VPlant Sciences
p22
sS'isoSource'
p23
VPlant Physiol.
p24
sS'timesCited'
p25
(lp26
I146
aVZ9 156
p27
asS'PT'
p28
VJ
sS'title'
p29
VPhytochrome D Acts In The Shade-Avoidance Syndrome In Arabidopsis By Controlling Elongation Growth And Flowering Time
p30
sS'ISSN'
p31
(lp32
V0032-0889
p33
aVJ9 PLANT PHYSIOL
p34
asS'authors_full'
p35
(lp36
(VDEVLIN
VPF
tp37
a(VROBSON
VPRH
tp38
a(VPATEL
VSR
tp39
a(VGOOSEY
VL
tp40
a(VSHARROCK
VRA
tp41
a(VWHITELAM
VGC
tp42
asS'PG'
p43
I7
sS'PD'
p44
VMAR
p45
sS'pageStart'
p46
I909
sS'issue'
p47
I3
sS'journal'
p48
VPLANT PHYSIOLOGY
p49
sS'volume'
p50
V119
p51
sS'doi'
p52
V10.1104/pp.119.3.909
p53
sS'authorAddress'
p54
(lp55
VUniv Leicester, Dept Biol, Leicester LE1 7RH, Leics, England.
p56
aVMontana State Univ, Dept Plant Sci, Bozeman, MT 59717 USA.
p57
asS'date'
p58
I1999
sS'ER'
p59
V
sS'publisher'
p60
VAMER SOC PLANT PHYSIOLOGISTS
p61
sS'authorKeywords'
p62
(lp63
VTHALIANA L
p64
aVLIGHT
p65
aVDEFICIENT
p66
aVMUTANTS
p67
aVGENE
p68
aVEXPRESSION
p69
aVRESPONSES
p70
aVPHYD
p71
aVDEFINES
p72
asS'language'
p73
VEnglish
p74
sS'wosid'
p75
VWOS:000079102000010
p76
sS'citationCount'
p77
I25
sS'authors_init'
p78
(lp79
(VDEVLIN
VP F
tp80
a(VROBSON
VP R H
tp81
a(VPATEL
VS R
tp82
a(VGOOSEY
VL
tp83
a(VSHARROCK
VR A
tp84
a(VWHITELAM
VG C
tp85
asS'citedReferences'
p86
(lp87
g1
(g2
g3
NtRp88
(dp89
g52
Nsg48
VPLANT CELL
p90
sg50
V9
sg78
(lp91
(VAUKERMAN
VM J
tp92
asg58
I1997
sg46
VLANT
p93
sbag1
(g2
g3
NtRp94
(dp95
g52
V10.1046/j.1365-313X.1996.10061155.x
p96
sg48
VPLANT J
p97
sg50
V10
p98
sg78
(lp99
(VBARNES
VS A
tp100
asg58
I1996
sg46
VLANT
p101
sbag1
(g2
g3
NtRp102
(dp103
g52
V10.1007/BF00043870
p104
sg48
VPLANT MOL BIOL
p105
sg50
V25
p106
sg78
(lp107
(VCLACK
VT
tp108
asg58
I1994
sg46
VLANT
p109
sbag1
(g2
g3
NtRp110
(dp111
g52
Nsg48
VPLANT CELL
p112
sg50
V10
p113
sg78
(lp114
(VDEVLIN
VP F
tp115
asg58
I1998
sg46
VLANT
p116
sbag1
(g2
g3
NtRp117
(dp118
g52
V10.1046/j.1365-313X.1996.10061127.x
p119
sg48
VPLANT J
p120
sg50
V10
p121
sg78
(lp122
(VDEVLIN
VP F
tp123
asg58
I1996
sg46
VLANT
p124
sbag1
(g2
g3
NtRp125
(dp126
g52
Nsg48
VPHOTOMORPHOGENESIS P
p127
sg50
Nsg78
(lp128
(VFURUYA
VM
tp129
asg58
I1993
sg46
VHOTOMORPHOGENESIS
p130
sbag1
(g2
g3
NtRp131
(dp132
g52
V10.1104/pp.115.3.959
p133
sg48
VPLANT PHYSIOL
p134
sg50
V115
p135
sg78
(lp136
(VGOOSEY
VL
tp137
asg58
I1997
sg46
VLANT
p138
sbag1
(g2
g3
NtRp139
(dp140
g52
Nsg48
VPLANT PHYSIOL
p141
sg50
V104
p142
sg78
(lp143
(VHALLIDAY
VK J
tp144
asg58
I1994
sg46
VLANT
p145
sbag1
(g2
g3
NtRp146
(dp147
g52
Nsg48
VGENETICS
p148
sg50
V149
p149
sg78
(lp150
(VHIRSCHFELD
VM
tp151
asg58
I1998
sg46
V523
p152
sbag1
(g2
g3
NtRp153
(dp154
g52
Nsg48
VPLANT PHYSIOL
p155
sg50
V105
p156
sg78
(lp157
(VJOHNSON
VE
tp158
asg58
I1994
sg46
VLANT
p159
sbag1
(g2
g3
NtRp160
(dp161
g52
V10.1016/0168-9452(89)90097-6
p162
sg48
VPLANT SCI
p163
sg50
V63
p164
sg78
(lp165
(VKEILLER
VD
tp166
asg58
I1989
sg46
VLANT
p167
sbag1
(g2
g3
NtRp168
(dp169
g52
Nsg48
VZ PFLANZENPHYSIOL
p170
sg50
V100
p171
sg78
(lp172
(VKOORNNEEF
VM
tp173
asg58
I1980
sg46
V147
p174
sbag1
(g2
g3
NtRp175
(dp176
g52
V10.1046/j.1365-3040.1997.d01-117.x
p177
sg48
VPLANT CELL ENVIRON
p178
sg50
V20
p179
sg78
(lp180
(VMATHEWS
VS
tp181
asg58
I1997
sg46
VLANT
p182
sbag1
(g2
g3
NtRp183
(dp184
g52
Nsg48
VPLANT CELL PHYSIOL
p185
sg50
V32
p186
sg78
(lp187
(VNAGATANI
VA
tp188
asg58
I1991
sg46
VLANT
p189
sbag1
(g2
g3
NtRp190
(dp191
g52
Nsg48
VPLANT PHYSIOL
p192
sg50
V102
p193
sg78
(lp194
(VNAGATANI
VA
tp195
asg58
I1993
sg46
VLANT
p196
sbag1
(g2
g3
NtRp197
(dp198
g52
Nsg48
VPLANT CELL
p199
sg50
V5
sg78
(lp200
(VPARKS
VB M
tp201
asg58
I1993
sg46
VLANT
p202
sbag1
(g2
g3
NtRp203
(dp204
g52
Nsg48
VP71
p205
sg50
Nsg78
(lp206
(VQUAIL
VPETER H
tp207
asg58
I1994
sg46
V71
p208
sbag1
(g2
g3
NtRp209
(dp210
g52
Nsg48
VPLANT PHYSIOL
p211
sg50
V104
p212
sg78
(lp213
(VREED
VJ W
tp214
asg58
I1994
sg46
VLANT
p215
sbag1
(g2
g3
NtRp216
(dp217
g52
V10.1105/tpc.5.2.147
p218
sg48
VPLANT CELL
p219
sg50
V5
sg78
(lp220
(VREED
VJ W
tp221
asg58
I1993
sg46
VLANT
p222
sbag1
(g2
g3
NtRp223
(dp224
g52
Nsg48
VPLANT PHYSIOL
p225
sg50
V102
p226
sg78
(lp227
(VROBSON
VP R H
tp228
asg58
I1993
sg46
VLANT
p229
sbag1
(g2
g3
NtRp230
(dp231
g52
V10.1046/j.1365-3040.1997.d01-104.x
p232
sg48
VPLANT CELL ENVIRON
p233
sg50
V20
p234
sg78
(lp235
(VSMITH
VH
tp236
asg58
I1997
sg46
VLANT
p237
sbag1
(g2
g3
NtRp238
(dp239
g52
Nsg48
VPLANT CELL
p240
sg50
V3
sg78
(lp241
(VSOMERS
VD E
tp242
asg58
I1991
sg46
VLANT
p243
sbag1
(g2
g3
NtRp244
(dp245
g52
V10.1105/tpc.5.7.757
p246
sg48
VPLANT CELL
p247
sg50
V5
sg78
(lp248
(VWHITELAM
VG C
tp249
asg58
I1993
sg46
VLANT
p250
sbag1
(g2
g3
NtRp251
(dp252
g52
V10.1046/j.1365-3040.1997.d01-100.x
p253
sg48
VPLANT CELL ENVIRON
p254
sg50
V20
p255
sg78
(lp256
(VWHITELAM
VG C
tp257
asg58
I1997
sg46
VLANT
p258
sbag1
(g2
g3
NtRp259
(dp260
g52
Nsg48
VJ PLANT PHYSIOL
p261
sg50
V139
p262
sg78
(lp263
(VWHITELAM
VG C
tp264
asg58
I1991
sg46
V119
p265
sbasb.