ccopy_reg
_reconstructor
p1
(ctethne.classes.paper
Paper
p2
c__builtin__
object
p3
NtRp4
(dp5
S'publisherCity'
p6
VROCKVILLE
p7
sS'reprintAddress'
p8
VRouze, P (reprint author), Univ Ghent, Inst Natl Rech Agron France, Lab Associe, KL Ledeganckstr 35, B-9000 Ghent, Belgium.
p9
sS'WC'
p10
VPlant Sciences
p11
sS'GA'
p12
V717FU
p13
sS'abstract'
p14
VThe identification of promoters and their regulatory elements is one of the major challenges in bioinformatics and integrates comparative, structural, and functional genomics. Many different approaches have been developed to detect conserved motifs in a set of genes that are either coregulated or orthologous. However, although recent approaches seem promising, in general, unambiguous identification of regulatory elements is not straightforward. The delineation of promoters is even harder, due to its complex nature, and in silico promoter prediction is still in its infancy. Here, we review the different approaches that have been developed for identifying promoters and their regulatory elements. We discuss the detection of cis-acting regulatory elements using word-counting or probabilistic methods (so-called "search by signal" methods) and the delineation of promoters by considering both sequence content and structural features ("search by content" methods). As an example of search by content, we explored in greater detail the association of promoters with CpG islands. However, due to differences in sequence content, the parameters used to detect CpG islands in humans and other vertebrates cannot be used for plants. Therefore, a preliminary attempt was made to define parameters that could possibly define CpG and CpNpG islands in Arabidopsis, by exploring the compositional landscape around the transcriptional start site. To this end, a data set of more than 5,000 gene sequences was built, including the promoter region, the 5'-untranslated region, and the first introns and coding exons. Preliminary analysis shows that promoter location based on the detection of potential CpG/CpNpG islands in the Arabidopsis genome is not straightforward. Nevertheless, because the landscape of CpG/ CpNpG islands differs considerably between promoters and introns on the one side and exons (whether coding or not) on the other, more sophisticated approaches can probably be developed for the successful detection of "putative" CpG and CpNpG islands in plants.
p15
sS'pageEnd'
p16
I1176
sS'date'
p17
I2003
sS'documentType'
p18
VReview
p19
sS'subject'
p20
VPlant Sciences
p21
sS'isoSource'
p22
VPlant Physiol.
p23
sS'timesCited'
p24
(lp25
I82
aVZ9 87
p26
asS'PT'
p27
VJ
sS'title'
p28
VComputational Approaches To Identify Promoters And Cis-Regulatory Elements In Plant Genomes
p29
sS'ISSN'
p30
(lp31
V0032-0889
p32
aVJ9 PLANT PHYSIOL
p33
asS'authors_full'
p34
(lp35
(VROMBAUTS
VS
tp36
a(VFLORQUIN
VK
tp37
a(VLESCOT
VM
tp38
a(VMARCHAL
VK
tp39
a(VROUZE
VP
tp40
a(VVAN DE PEER
VY
tp41
asS'PG'
p42
I15
sS'PD'
p43
VJUL
p44
sS'pageStart'
p45
I1162
sS'issue'
p46
I3
sS'RI'
p47
VVan de Peer, Yves/D-4388-2009; Marchal, Kathleen/B-5001-2013
p48
sS'journal'
p49
VPLANT PHYSIOLOGY
p50
sS'volume'
p51
V132
p52
sS'doi'
p53
V10.1104/pp.102.017715
p54
sS'emailAddress'
p55
Vpierre.rouze@gengenp.rug.ac.be
p56
sS'authorAddress'
p57
(lp58
VUniv Ghent, Inst Natl Rech Agron France, Lab Associe, B-9000 Ghent, Belgium.
p59
aVState Univ Ghent VIB, Dept Plant Syst Biol, B-9000 Ghent, Belgium.
p60
aVCNRS, Equipe Bioinformat, Lab Genet & Physiol Dev, F-13288 Marseille 9, France.
p61
aVKatholieke Univ Leuven, Dept Elect Engn Elect Syst Automatisat & Technol, B-3001 Heverlee, Belgium.
p62
asS'publisherAddress'
p63
V15501 MONONA DRIVE, ROCKVILLE, MD 20855 USA
p64
sS'ER'
p65
V
sS'publisher'
p66
VAMER SOC PLANT BIOLOGISTS
p67
sS'authorKeywords'
p68
(lp69
VPOLYMERASE-II TRANSCRIPTION
p70
aVFACTOR-BINDING SITES
p71
aVUNALIGNED DNA FRAGMENTS
p72
aVGENE-EXPRESSION
p73
aVCPG-ISLANDS
p74
aVNONCODING SEQUENCES
p75
aVIN-VITRO
p76
aVFUNCTIONAL ELEMENTS
p77
aVCHROMATIN-STRUCTURE
p78
aVMARKOV-CHAINS
p79
asS'OI'
p80
(lp81
VVan de Peer, Yves/0000-0003-4327-3730; Marchal,
p82
aVKathleen/0000-0002-2169-4588
p83
asS'language'
p84
VEnglish
p85
sS'wosid'
p86
VWOS:000185076800009
p87
sS'citationCount'
p88
I197
sS'authors_init'
p89
(lp90
(VROMBAUTS
VS
tp91
a(VFLORQUIN
VK
tp92
a(VLESCOT
VM
tp93
a(VMARCHAL
VK
tp94
a(VROUZE
VP
tp95
a(VVAN DE PEER
VY
tp96
asS'citedReferences'
p97
(lp98
g1
(g2
g3
NtRp99
(dp100
g53
Nsg49
VGENETICS
p101
sg51
V161
p102
sg89
(lp103
(VALTSCHMIED
VJ
tp104
asg17
I2002
sg45
V259
p105
sbag1
(g2
g3
NtRp106
(dp107
g53
Nsg49
VCURR BIOL
p108
sg51
V9
sg89
(lp109
(VANTEQUERA
VF
tp110
asg17
I1999
sg45
V661
p111
sbag1
(g2
g3
NtRp112
(dp113
g53
V10.1126/science.1072104
p114
sg49
VSCIENCE
p115
sg51
V297
p116
sg89
(lp117
(VAPARICIO
VS
tp118
asg17
I2002
sg45
V1301
p119
sbag1
(g2
g3
NtRp120
(dp121
g53
V10.1046/j.1365-313x.2001.01062.x
p122
sg49
VPLANT J
p123
sg51
V26
p124
sg89
(lp125
(VASHIKAWA
VI
tp126
asg17
I2001
sg45
VLANT
p127
sbag1
(g2
g3
NtRp128
(dp129
g53
V10.1093/nar/28.13.2541
p130
sg49
VNUCLEIC ACIDS RES
p131
sg51
V28
p132
sg89
(lp133
(VBAGGA
VR
tp134
asg17
I2000
sg45
V2541
p135
sbag1
(g2
g3
NtRp136
(dp137
g53
Nsg49
VISMB
p138
sg51
V3
sg89
(lp139
(VBAILEY
VT L
tp140
asg17
I1995
sg45
V21
p141
sbag1
(g2
g3
NtRp142
(dp143
g53
V10.1093/bioinformatics/18.1.198
p144
sg49
VBIOINFORMATICS
p145
sg51
V18
p146
sg89
(lp147
(VBAJIC
VV B
tp148
asg17
I2002
sg45
V198
p149
sbag1
(g2
g3
NtRp150
(dp151
g53
Nsg49
VProc Int Conf Intell Syst Mol Biol
p152
sg51
V6
sg89
(lp153
(VBALDI
VP
tp154
asg17
I1998
sg45
Vroc
p155
sbag1
(g2
g3
NtRp156
(dp157
g53
V10.1073/pnas.94.14.7257
p158
sg49
VP NATL ACAD SCI USA
p159
sg51
V94
p160
sg89
(lp161
(VBARTON
VM C
tp162
asg17
I1997
sg45
V7257
p163
sbag1
(g2
g3
NtRp164
(dp165
g53
V10.1093/nar/25.18.3559
p166
sg49
VNUCLEIC ACIDS RES
p167
sg51
V25
p168
sg89
(lp169
(VBEATO
VM
tp170
asg17
I1997
sg45
V3559
p171
sbag1
(g2
g3
NtRp172
(dp173
g53
V10.1016/S0092-8674(01)00441-X
p174
sg49
VCELL
p175
sg51
V106
p176
sg89
(lp177
(VBENDER
VJ
tp178
asg17
I2001
sg45
V129
p179
sbag1
(g2
g3
NtRp180
(dp181
g53
V10.1093/nar/30.3.803
p182
sg49
VNUCLEIC ACIDS RES
p183
sg51
V30
p184
sg89
(lp185
(VBENTIN
VT
tp186
asg17
I2002
sg45
V803
p187
sbag1
(g2
g3
NtRp188
(dp189
g53
V10.1016/S0955-0674(99)80045-3
p190
sg49
VCURR OPIN CELL BIOL
p191
sg51
V11
p192
sg89
(lp193
(VBERK
VA J
tp194
asg17
I1999
sg45
V330
p195
sbag1
(g2
g3
NtRp196
(dp197
g53
V10.1101/gr.6902
p198
sg49
VGENOME RES
p199
sg51
V12
p200
sg89
(lp201
(VBLANCHETTE
VM
tp202
asg17
I2002
sg45
V739
p203
sbag1
(g2
g3
NtRp204
(dp205
g53
V10.1089/10665270252935421
p206
sg49
VJ COMPUT BIOL
p207
sg51
V9
sg89
(lp208
(VBLANCHETTE
VM
tp209
asg17
I2002
sg45
V211
p210
sbag1
(g2
g3
NtRp211
(dp212
g53
Nsg49
VBIOINFORMATICS
p213
sg51
V17
p214
sg89
(lp215
(VBLANCHETTE
VM
tp216
asg17
I2001
sg45
V30
p217
sbag1
(g2
g3
NtRp218
(dp219
g53
V10.1073/pnas.88.6.2312
p220
sg49
VP NATL ACAD SCI USA
p221
sg51
V88
p222
sg89
(lp223
(VBOLSHOY
VA
tp224
asg17
I1991
sg45
V2312
p225
sbag1
(g2
g3
NtRp226
(dp227
g53
Nsg49
VGENOME RES
p228
sg51
V8
sg89
(lp229
(VBRAZMA
VA
tp230
asg17
I1998
sg45
V1202
p231
sbag1
(g2
g3
NtRp232
(dp233
g53
V10.1073/pnas.83.11.3746
p234
sg49
VP NATL ACAD SCI USA
p235
sg51
V83
p236
sg89
(lp237
(VBRESLAUER
VK J
tp238
asg17
I1986
sg45
V3746
p239
sbag1
(g2
g3
NtRp240
(dp241
g53
V10.1073/pnas.222561199
p242
sg49
VP NATL ACAD SCI USA
p243
sg51
V99
p244
sg89
(lp245
(VBREYNE
VP
tp246
asg17
I2002
sg45
V14825
p247
sbag1
(g2
g3
NtRp248
(dp249
g53
V10.1073/pnas.022638399
p250
sg49
VP NATL ACAD SCI USA
p251
sg51
V99
p252
sg89
(lp253
(VBROWER-TOLAND
VB D
tp254
asg17
I2002
sg45
V1960
p255
sbag1
(g2
g3
NtRp256
(dp257
g53
V10.1038/4462
p258
sg49
VNAT GENET
p259
sg51
V21
p260
sg89
(lp261
(VBROWN
VP O
tp262
asg17
I1999
sg45
V33
p263
sbag1
(g2
g3
NtRp264
(dp265
g53
Nsg49
VJ BIOMOL STRUCT DYN
p266
sg51
V13
p267
sg89
(lp268
(VBRUKNER
VI
tp269
asg17
I1995
sg45
V309
p270
sbag1
(g2
g3
NtRp271
(dp272
g53
Nsg49
VEMBO J
p273
sg51
V14
p274
sg89
(lp275
(VBRUKNER
VI
tp276
asg17
I1995
sg45
V1812
p277
sbag1
(g2
g3
NtRp278
(dp279
g53
V10.1016/S0955-0674(00)00095-8
p280
sg49
VCURR OPIN CELL BIOL
p281
sg51
V12
p282
sg89
(lp283
(VBURATOWSKI
VS
tp284
asg17
I2000
sg45
V320
p285
sbag1
(g2
g3
NtRp286
(dp287
g53
Nsg49
VProc Int Conf Intell Syst Mol Biol
p288
sg51
V8
sg89
(lp289
(VBUSSEMAKER
VH J
tp290
asg17
I2000
sg45
Vroc
p291
sbag1
(g2
g3
NtRp292
(dp293
g53
V10.1073/pnas.180265397
p294
sg49
VP NATL ACAD SCI USA
p295
sg51
V97
p296
sg89
(lp297
(VBUSSEMAKER
VH J
tp298
asg17
I2000
sg45
V10096
p299
sbag1
(g2
g3
NtRp300
(dp301
g53
V10.1073/pnas.162371599
p302
sg49
VP NATL ACAD SCI USA
p303
sg51
V99
p304
sg89
(lp305
(VCAO
VX F
tp306
asg17
I2002
sg45
V16491
p307
sbag1
(g2
g3
NtRp308
(dp309
g53
V10.1073/pnas.97.9.4979
p310
sg49
VP NATL ACAD SCI USA
p311
sg51
V97
p312
sg89
(lp313
(VCAO
VX F
tp314
asg17
I2000
sg45
V4979
p315
sbag1
(g2
g3
NtRp316
(dp317
g53
V10.1016/0022-2836(92)90723-W
p318
sg49
VJ MOL BIOL
p319
sg51
V223
p320
sg89
(lp321
(VCARDON
VL R
tp322
asg17
I1992
sg45
V159
p323
sbag1
(g2
g3
NtRp324
(dp325
g53
V10.1104/pp.002501
p326
sg49
VPLANT PHYSIOL
p327
sg51
V129
p328
sg89
(lp329
(VCOLINAS
VJ
tp330
asg17
I2002
sg45
VLANT
p331
sbag1
(g2
g3
NtRp332
(dp333
g53
V10.1093/bioinformatics/15.12.1058
p334
sg49
VBIOINFORMATICS
p335
sg51
V15
p336
sg89
(lp337
(VCOWARD
VE
tp338
asg17
I1999
sg45
V1058
p339
sbag1
(g2
g3
NtRp340
(dp341
g53
V10.1073/pnas.95.26.15163
p342
sg49
VP NATL ACAD SCI USA
p343
sg51
V95
p344
sg89
(lp345
(VCROTHERS
VD M
tp346
asg17
I1998
sg45
V15163
p347
sbag1
(g2
g3
NtRp348
(dp349
g53
V10.1038/ng780
p350
sg49
VNAT GENET
p351
sg51
V29
p352
sg89
(lp353
(VDAVULURI
VR V
tp354
asg17
I2001
sg45
V412
p355
sbag1
(g2
g3
NtRp356
(dp357
g53
V10.1023/A:1006129924683
p358
sg49
VPLANT MOL BIOL
p359
sg51
V39
p360
sg89
(lp361
(VDE
VBOER G J
tp362
asg17
I1999
sg45
VLANT
p363
sbag1
(g2
g3
NtRp364
(dp365
g53
Nsg49
VMOL BIOL EVOL
p366
sg51
V19
p367
sg89
(lp368
(VDERMITZAKIS
VE T
tp369
asg17
I2002
sg45
V1114
p370
sbag1
(g2
g3
NtRp371
(dp372
g53
V10.1093/bioinformatics/18.5.735
p373
sg49
VBIOINFORMATICS
p374
sg51
V18
p375
sg89
(lp376
(VDE
VSMET F
tp377
asg17
I2002
sg45
V735
p378
sbag1
(g2
g3
NtRp379
(dp380
g53
V10.1016/S0959-437X(99)00002-7
p381
sg49
VCURR OPIN GENET DEV
p382
sg51
V9
sg89
(lp383
(VDORSETT
VD
tp384
asg17
I1999
sg45
V505
p385
sbag1
(g2
g3
NtRp386
(dp387
g53
V10.1101/gr.216102
p388
sg49
VGENOME RES
p389
sg51
V12
p390
sg89
(lp391
(VDOWN
VT A
tp392
asg17
I2002
sg45
V458
p393
sbag1
(g2
g3
NtRp394
(dp395
g53
Nsg49
VMOL BIOL EVOL
p396
sg51
V17
p397
sg89
(lp398
(VDURET
VL
tp399
asg17
I2000
sg45
V1620
p400
sbag1
(g2
g3
NtRp401
(dp402
g53
V10.1016/S0959-440X(97)80058-9
p403
sg49
VCURR OPIN STRUC BIOL
p404
sg51
V7
sg89
(lp405
(VDURET
VL
tp406
asg17
I1997
sg45
V399
p407
sbag1
(g2
g3
NtRp408
(dp409
g53
V10.1016/0092-8674(89)90393-0
p410
sg49
VCELL
p411
sg51
V58
p412
sg89
(lp413
(VDYNAN
VW S
tp414
asg17
I1989
sg45
V1
sbag1
(g2
g3
NtRp415
(dp416
g53
V10.1006/jmbi.1996.0304
p417
sg49
VJ MOL BIOL
p418
sg51
V259
p419
sg89
(lp420
(VELHASSAN
VM A
tp421
asg17
I1996
sg45
V95
p422
sbag1
(g2
g3
NtRp423
(dp424
g53
V10.1093/bioinformatics/btg085
p425
sg49
VBIOINFORMATICS
p426
sg51
V19
p427
sg89
(lp428
(VENGELEN
VK
tp429
asg17
I2003
sg45
V893
p430
sbag1
(g2
g3
NtRp431
(dp432
g53
V10.1016/S0959-437X(02)00280-0
p433
sg49
VCURR OPIN GENET DEV
p434
sg51
V12
p435
sg89
(lp436
(VFEATHERSTONE
VM
tp437
asg17
I2002
sg45
V149
p438
sbag1
(g2
g3
NtRp439
(dp440
g53
V10.1016/S0168-9525(02)02591-X
p441
sg49
VTRENDS GENET
p442
sg51
V18
p443
sg89
(lp444
(VFESSELE
VS
tp445
asg17
I2002
sg45
V60
p446
sbag1
(g2
g3
NtRp447
(dp448
g53
Nsg49
VGENOME RES
p449
sg51
V7
sg89
(lp450
(VFICKETT
VJ W
tp451
asg17
I1997
sg45
V861
p452
sbag1
(g2
g3
NtRp453
(dp454
g53
V10.1016/S0958-1669(99)00049-X
p455
sg49
VCURR OPIN BIOTECH
p456
sg51
V11
p457
sg89
(lp458
(VFICKETT
VJ W
tp459
asg17
I2000
sg45
V19
p460
sbag1
(g2
g3
NtRp461
(dp462
g53
V10.1016/S0959-437X(00)00061-7
p463
sg49
VCURR OPIN GENET DEV
p464
sg51
V10
p465
sg89
(lp466
(VFINNEGAN
VE J
tp467
asg17
I2000
sg45
V217
p468
sbag1
(g2
g3
NtRp469
(dp470
g53
V10.1146/annurev.arplant.49.1.223
p471
sg49
VANNU REV PLANT PHYS
p472
sg51
V49
p473
sg89
(lp474
(VFINNEGAN
VE J
tp475
asg17
I1998
sg45
V223
p476
sbag1
(g2
g3
NtRp477
(dp478
g53
V10.1073/pnas.95.10.5824
p479
sg49
VP NATL ACAD SCI USA
p480
sg51
V95
p481
sg89
(lp482
(VFINNEGAN
VE J
tp483
asg17
I1998
sg45
V5824
p484
sbag1
(g2
g3
NtRp485
(dp486
g53
V10.1023/A:1006427226972
p487
sg49
VPLANT MOL BIOL
p488
sg51
V43
p489
sg89
(lp490
(VFINNEGAN
VE J
tp491
asg17
I2000
sg45
VLANT
p492
sbag1
(g2
g3
NtRp493
(dp494
g53
Nsg49
VGENETICS
p495
sg51
V151
p496
sg89
(lp497
(VFORCE
VA
tp498
asg17
I1999
sg45
V1531
p499
sbag1
(g2
g3
NtRp500
(dp501
g53
V10.1016/0022-2836(87)90689-9
p502
sg49
VJ MOL BIOL
p503
sg51
V196
p504
sg89
(lp505
(VGARDINERGARDEN
VM
tp506
asg17
I1987
sg45
V261
p507
sbag1
(g2
g3
NtRp508
(dp509
g53
V10.1093/nar/28.1.308
p510
sg49
VNUCLEIC ACIDS RES
p511
sg51
V28
p512
sg89
(lp513
(VGHOSH
VD
tp514
asg17
I2000
sg45
V308
p515
sbag1
(g2
g3
NtRp516
(dp517
g53
V10.1016/0378-1119(95)00837-3
p518
sg49
VGENE
p519
sg51
V170
p520
sg89
(lp521
(VGIDEKEL
VM
tp522
asg17
I1996
sg45
V201
p523
sbag1
(g2
g3
NtRp524
(dp525
g53
V10.1093/nar/22.24.5497
p526
sg49
VNUCLEIC ACIDS RES
p527
sg51
V22
p528
sg89
(lp529
(VGOODSELL
VD S
tp530
asg17
I1994
sg45
V5497
p531
sbag1
(g2
g3
NtRp532
(dp533
g53
V10.1006/jmbi.1994.0120
p534
sg49
VJ MOL BIOL
p535
sg51
V247
p536
sg89
(lp537
(VGORIN
VA A
tp538
asg17
I1995
sg45
V34
p539
sbag1
(g2
g3
NtRp540
(dp541
g53
Nsg49
VIn Silico Biology
p542
sg51
V2
sg89
(lp543
(VGRABE
VNIELS
tp544
asg17
I2002
sg45
VS1
p545
sbag1
(g2
g3
NtRp546
(dp547
g53
V10.1093/bioinformatics/17.7.608
p548
sg49
VBIOINFORMATICS
p549
sg51
V17
p550
sg89
(lp551
(VGUHATHAKURTA
VD
tp552
asg17
I2001
sg45
V608
p553
sbag1
(g2
g3
NtRp554
(dp555
g53
V10.1093/bioinformatics/18.4.513
p556
sg49
VBIOINFORMATICS
p557
sg51
V18
p558
sg89
(lp559
(VHAMPSON
VS
tp560
asg17
I2002
sg45
V513
p561
sbag1
(g2
g3
NtRp562
(dp563
g53
Nsg49
VBioinformatics
p564
sg51
V17
p565
sg89
(lp566
(VHANNENHALLI
VS
tp567
asg17
I2001
sg45
VS90
p568
sbag1
(g2
g3
NtRp569
(dp570
g53
V10.1016/S0168-9525(00)02081-3
p571
sg49
VTRENDS GENET
p572
sg51
V16
p573
sg89
(lp574
(VHARDISON
VR C
tp575
asg17
I2000
sg45
V369
p576
sbag1
(g2
g3
NtRp577
(dp578
g53
V10.1016/0378-1119(90)90386-6
p579
sg49
VGENE
p580
sg51
V94
p581
sg89
(lp582
(VHERSHKOVITZ
VM
tp583
asg17
I1990
sg45
V189
p584
sbag1
(g2
g3
NtRp585
(dp586
g53
V10.1093/bioinformatics/15.7.563
p587
sg49
VBIOINFORMATICS
p588
sg51
V15
p589
sg89
(lp590
(VHERTZ
VG Z
tp591
asg17
I1999
sg45
V563
p592
sbag1
(g2
g3
NtRp593
(dp594
g53
Nsg49
VCOMPUT APPL BIOSCI
p595
sg51
V6
sg89
(lp596
(VHERTZ
VG Z
tp597
asg17
I1990
sg45
V81
p598
sbag1
(g2
g3
NtRp599
(dp600
g53
Nsg49
VMETHOD ENZYMOL
p601
sg51
V273
p602
sg89
(lp603
(VHERTZ
VG Z
tp604
asg17
I1996
sg45
V30
p605
sbag1
(g2
g3
NtRp606
(dp607
g53
V10.1101/gr.9.11.1106
p608
sg49
VGENOME RES
p609
sg51
V9
sg89
(lp610
(VHEYER
VL J
tp611
asg17
I1999
sg45
V1106
p612
sbag1
(g2
g3
NtRp613
(dp614
g53
V10.1093/nar/27.1.297
p615
sg49
VNUCLEIC ACIDS RES
p616
sg51
V27
p617
sg89
(lp618
(VHIGO
VK
tp619
asg17
I1999
sg45
V297
p620
sbag1
(g2
g3
NtRp621
(dp622
g53
Nsg49
VEMBO J
p623
sg51
V5
sg89
(lp624
(VHO
VP S
tp625
asg17
I1986
sg45
V2737
p626
sbag1
(g2
g3
NtRp627
(dp628
g53
V10.1098/rspb.1994.0058
p629
sg49
VP ROY SOC B
p630
sg51
V256
p631
sg89
(lp632
(VHUGHES
VA L
tp633
asg17
I1994
sg45
V119
p634
sbag1
(g2
g3
NtRp635
(dp636
g53
V10.1006/jmbi.2000.3519
p637
sg49
VJ MOL BIOL
p638
sg51
V296
p639
sg89
(lp640
(VHUGHES
VJ D
tp641
asg17
I2000
sg45
V1205
p642
sbag1
(g2
g3
NtRp643
(dp644
g53
Nsg49
VCOMPUT APPL BIOSCI
p645
sg51
V12
p646
sg89
(lp647
(VHUTCHINSON
VG B
tp648
asg17
I1996
sg45
V391
p649
sbag1
(g2
g3
NtRp650
(dp651
g53
V10.1007/BF00036811
p652
sg49
VPLANT MOL BIOL
p653
sg51
V17
p654
sg89
(lp655
(VINAMDAR
VN M
tp656
asg17
I1991
sg45
VLANT
p657
sbag1
(g2
g3
NtRp658
(dp659
g53
V10.1073/pnas.96.6.2891
p660
sg49
VP NATL ACAD SCI USA
p661
sg51
V96
p662
sg89
(lp663
(VIOSHIKHES
VI
tp664
asg17
I1999
sg45
V2891
p665
sbag1
(g2
g3
NtRp666
(dp667
g53
Nsg49
VNAT GENET
p668
sg51
V26
p669
sg89
(lp670
(VIOSHIKHES
VI P
tp671
asg17
I2000
sg45
V61
p672
sbag1
(g2
g3
NtRp673
(dp674
g53
Nsg49
VMICROBIOL
p675
sg51
V147
p676
sg89
(lp677
(VJARMER
VH
tp678
asg17
I2001
sg45
V2417
p679
sbag1
(g2
g3
NtRp680
(dp681
g53
V10.1101/gad.12.11.1714
p682
sg49
VGENE DEV
p683
sg51
V12
p684
sg89
(lp685
(VJEDDELOH
VJ A
tp686
asg17
I1998
sg45
V1714
p687
sbag1
(g2
g3
NtRp688
(dp689
g53
V10.1101/gr.255002
p690
sg49
VGENOME RES
p691
sg51
V12
p692
sg89
(lp693
(VJEGGA
VA G
tp694
asg17
I2002
sg45
V1408
p695
sbag1
(g2
g3
NtRp696
(dp697
g53
Nsg49
VBIOINFORMATICS
p698
sg51
V16
p699
sg89
(lp700
(VJENSEN
VL J
tp701
asg17
I2000
sg45
V326
p702
sbag1
(g2
g3
NtRp703
(dp704
g53
V10.1146/annurev.biochem.58.1.799
p705
sg49
VANNU REV BIOCHEM
p706
sg51
V58
p707
sg89
(lp708
(VJOHNSON
VP F
tp709
asg17
I1989
sg45
V799
p710
sbag1
(g2
g3
NtRp711
(dp712
g53
V10.1016/S0168-9525(98)01636-9
p713
sg49
VTRENDS GENET
p714
sg51
V15
p715
sg89
(lp716
(VJONES
VP A
tp717
asg17
I1999
sg45
V34
p718
sbag1
(g2
g3
NtRp719
(dp720
g53
V10.1006/jmbi.1996.0456
p721
sg49
VJ MOL BIOL
p722
sg51
V261
p723
sg89
(lp724
(VJUO
VZ S
tp725
asg17
I1996
sg45
V239
p726
sbag1
(g2
g3
NtRp727
(dp728
g53
V10.1016/S0960-9822(97)70086-1
p729
sg49
VCURR BIOL
p730
sg51
V7
sg89
(lp731
(VKASS
VS U
tp732
asg17
I1997
sg45
V157
p733
sbag1
(g2
g3
NtRp734
(dp735
g53
Nsg49
VCOMPUT APPL BIOSCI
p736
sg51
V8
sg89
(lp737
(VKLEFFE
VJ
tp738
asg17
I1992
sg45
V433
p739
sbag1
(g2
g3
NtRp740
(dp741
g53
Nsg49
VIn Silico Biology
p742
sg51
V2
sg89
(lp743
(VKLINGENHOFF
VA
tp744
asg17
I2002
sg45
VS17
p745
sbag1
(g2
g3
NtRp746
(dp747
g53
Nsg49
VMOL BIOL EVOL
p748
sg51
V18
p749
sg89
(lp750
(VKOCH
VM A
tp751
asg17
I2001
sg45
V1882
p752
sbag1
(g2
g3
NtRp753
(dp754
g53
Nsg49
VMOL BIOL EVOL
p755
sg51
V17
p756
sg89
(lp757
(VKOCH
VM A
tp758
asg17
I2000
sg45
V1483
p759
sbag1
(g2
g3
NtRp760
(dp761
g53
V10.1093/nar/28.1.298
p762
sg49
VNUCLEIC ACIDS RES
p763
sg51
V28
p764
sg89
(lp765
(VKOLCHANOV
VN A
tp766
asg17
I2000
sg45
V298
p767
sbag1
(g2
g3
NtRp768
(dp769
g53
Nsg49
VCOMPUT APPL BIOSCI
p770
sg51
V11
p771
sg89
(lp772
(VKONDRAKHIN
VY V
tp773
asg17
I1995
sg45
V477
p774
sbag1
(g2
g3
NtRp775
(dp776
g53
V10.1016/S0168-9525(00)89108-8
p777
sg49
VTRENDS GENET
p778
sg51
V11
p779
sg89
(lp780
(VKOOP
VB F
tp781
asg17
I1995
sg45
V367
p782
sbag1
(g2
g3
NtRp783
(dp784
g53
V10.1016/S1360-1385(99)01467-3
p785
sg49
VTRENDS PLANT SCI
p786
sg51
V4
sg89
(lp787
(VKOOTER
VJ M
tp788
asg17
I1999
sg45
V340
p789
sbag1
(g2
g3
NtRp790
(dp791
g53
V10.1016/S0959-437X(02)00293-9
p792
sg49
VCURR OPIN GENET DEV
p793
sg51
V12
p794
sg89
(lp795
(VKORNBERG
VR D
tp796
asg17
I2002
sg45
V249
p797
sbag1
(g2
g3
NtRp798
(dp799
g53
V10.1101/gr.180601
p800
sg49
VGENOME RES
p801
sg51
V11
p802
sg89
(lp803
(VKRIVAN
VW
tp804
asg17
I2001
sg45
V1559
p805
sbag1
(g2
g3
NtRp806
(dp807
g53
V10.1038/35057062
p808
sg49
VNATURE
p809
sg51
V409
p810
sg89
(lp811
(VLANDER
VE S
tp812
asg17
I2001
sg45
V860
p813
sbag1
(g2
g3
NtRp814
(dp815
g53
Nsg49
VJ CELL SCI
p816
sg51
V114
p817
sg89
(lp818
(VLANGST
VG
tp819
asg17
I2001
sg45
V2561
p820
sbag1
(g2
g3
NtRp821
(dp822
g53
Nsg49
VPLANT CELL
p823
sg51
V5
sg89
(lp824
(VLARKIN
VJ C
tp825
asg17
I1993
sg45
VLANT
p826
sbag1
(g2
g3
NtRp827
(dp828
g53
V10.1126/science.8211139
p829
sg49
VSCIENCE
p830
sg51
V262
p831
sg89
(lp832
(VLAWRENCE
VC E
tp833
asg17
I1993
sg45
V208
p834
sbag1
(g2
g3
NtRp835
(dp836
g53
V10.1002/prot.340070105
p837
sg49
VPROTEINS
p838
sg51
V7
sg89
(lp839
(VLAWRENCE
VC E
tp840
asg17
I1990
sg45
VROTEINS
p841
sbag1
(g2
g3
NtRp842
(dp843
g53
V10.1093/nar/30.1.325
p844
sg49
VNUCLEIC ACIDS RES
p845
sg51
V30
p846
sg89
(lp847
(VLESCOT
VM
tp848
asg17
I2002
sg45
V325
p849
sbag1
(g2
g3
NtRp850
(dp851
g53
V10.1023/A:1010693703421
p852
sg49
VPLANT MOL BIOL
p853
sg51
V46
p854
sg89
(lp855
(VLI
VG F
tp856
asg17
I2001
sg45
VLANT
p857
sbag1
(g2
g3
NtRp858
(dp859
g53
V10.1126/science.1059745
p860
sg49
VSCIENCE
p861
sg51
V292
p862
sg89
(lp863
(VLINDROTH
VA M
tp864
asg17
I2001
sg45
V2077
p865
sbag1
(g2
g3
NtRp866
(dp867
g53
V10.1038/4447
p868
sg49
VNAT GENET
p869
sg51
V21
p870
sg89
(lp871
(VLIPSHUTZ
VR J
tp872
asg17
I1999
sg45
V20
p873
sbag1
(g2
g3
NtRp874
(dp875
g53
Nsg49
VPac Symp Biocomput
p876
sg51
Nsg89
(lp877
(VLIU
VX
tp878
asg17
I2001
sg45
Vac
p879
sbag1
(g2
g3
NtRp880
(dp881
g53
V10.1038/nbt717
p882
sg49
VNAT BIOTECHNOL
p883
sg51
V20
p884
sg89
(lp885
(VLIU
VX S
tp886
asg17
I2002
sg45
V835
p887
sbag1
(g2
g3
NtRp888
(dp889
g53
V10.1093/nar/24.12.2204
p890
sg49
VNUCLEIC ACIDS RES
p891
sg51
V24
p892
sg89
(lp893
(VMARILLEY
VM
tp894
asg17
I1996
sg45
V2204
p895
sbag1
(g2
g3
NtRp896
(dp897
g53
V10.1089/106652700750050826
p898
sg49
VJ COMPUT BIOL
p899
sg51
V7
sg89
(lp900
(VMARSAN
VL
tp901
asg17
I2000
sg45
V345
p902
sbag1
(g2
g3
NtRp903
(dp904
g53
V10.1093/nar/gkf543
p905
sg49
VNUCLEIC ACIDS RES
p906
sg51
V30
p907
sg89
(lp908
(VMATHE
VC
tp909
asg17
I2002
sg45
V4103
p910
sbag1
(g2
g3
NtRp911
(dp912
g53
V10.1023/A:1006483428789
p913
sg49
VPLANT MOL BIOL
p914
sg51
V43
p915
sg89
(lp916
(VMEYER
VP
tp917
asg17
I2000
sg45
VLANT
p918
sbag1
(g2
g3
NtRp919
(dp920
g53
Nsg49
VEMBO J
p921
sg51
V13
p922
sg89
(lp923
(VMEYER
VP
tp924
asg17
I1994
sg45
V2084
p925
sbag1
(g2
g3
NtRp926
(dp927
g53
V10.1023/A:1015244400941
p928
sg49
VTRANSGENIC RES
p929
sg51
V11
p930
sg89
(lp931
(VMEZA
VT J
tp932
asg17
I2002
sg45
V133
p933
sbag1
(g2
g3
NtRp934
(dp935
g53
V10.1016/S0169-5347(01)02206-6
p936
sg49
VTRENDS ECOL EVOL
p937
sg51
V16
p938
sg89
(lp939
(VMINDELL
VD P
tp940
asg17
I2001
sg45
V434
p941
sbag1
(g2
g3
NtRp942
(dp943
g53
Nsg49
VIEEE P
p944
sg51
V30
p945
sg89
(lp946
(VMOREAU
VY
tp947
asg17
I2002
sg45
V1722
p948
sbag1
(g2
g3
NtRp949
(dp950
g53
Nsg49
VPROTEIN SCI
p951
sg51
V4
sg89
(lp952
(VNEUWALD
VA F
tp953
asg17
I1995
sg45
VROTEIN
p954
sbag1
(g2
g3
NtRp955
(dp956
g53
V10.1016/S0959-437X(99)80024-0
p957
sg49
VCURR OPIN GENET DEV
p958
sg51
V9
sg89
(lp959
(VNG
VH H
tp960
asg17
I1999
sg45
V158
p961
sbag1
(g2
g3
NtRp962
(dp963
g53
V10.1073/pnas.93.10.4862
p964
sg49
VP NATL ACAD SCI USA
p965
sg51
V93
p966
sg89
(lp967
(VNIKOLOV
VD B
tp968
asg17
I1996
sg45
V4862
p969
sbag1
(g2
g3
NtRp970
(dp971
g53
V10.1073/pnas.94.1.15
p972
sg49
VP NATL ACAD SCI USA
p973
sg51
V94
p974
sg89
(lp975
(VNIKOLOV
VD B
tp976
asg17
I1997
sg45
V15
p977
sbag1
(g2
g3
NtRp978
(dp979
g53
Nsg49
VBioinformatics
p980
sg51
V17
p981
sg89
(lp982
(VOHLER
VU
tp983
asg17
I2001
sg45
VS199
p984
sbag1
(g2
g3
NtRp985
(dp986
g53
Nsg49
VGENOME BIOL
p987
sg51
V3
sg89
(lp988
(VOHLER
VU
tp989
asg17
I2000
sg45
Nsbag1
(g2
g3
NtRp990
(dp991
g53
V10.1101/gr.10.4.539
p992
sg49
VGENOME RES
p993
sg51
V10
p994
sg89
(lp995
(VOHLER
VU
tp996
asg17
I2000
sg45
V539
p997
sbag1
(g2
g3
NtRp998
(dp999
g53
V10.1016/S0168-9525(00)02174-0
p1000
sg49
VTRENDS GENET
p1001
sg51
V17
p1002
sg89
(lp1003
(VOHLER
VU
tp1004
asg17
I2001
sg45
V56
p1005
sbag1
(g2
g3
NtRp1006
(dp1007
g53
V10.1093/bioinformatics/15.5.362
p1008
sg49
VBIOINFORMATICS
p1009
sg51
V15
p1010
sg89
(lp1011
(VOHLER
VU
tp1012
asg17
I1999
sg45
V362
p1013
sbag1
(g2
g3
NtRp1014
(dp1015
g53
V10.1016/S0955-0674(02)00327-7
p1016
sg49
VCURR OPIN CELL BIOL
p1017
sg51
V14
p1018
sg89
(lp1019
(VOKI
VM
tp1020
asg17
I2002
sg45
V299
p1021
sbag1
(g2
g3
NtRp1022
(dp1023
g53
V10.1073/pnas.95.19.11163
p1024
sg49
VP NATL ACAD SCI USA
p1025
sg51
V95
p1026
sg89
(lp1027
(VOLSON
VW K
tp1028
asg17
I1998
sg45
V11163
p1029
sbag1
(g2
g3
NtRp1030
(dp1031
g53
V10.1093/nar/26.4.1056
p1032
sg49
VNUCLEIC ACIDS RES
p1033
sg51
V26
p1034
sg89
(lp1035
(VPANSTRUGA
VR
tp1036
asg17
I1998
sg45
V1056
p1037
sbag1
(g2
g3
NtRp1038
(dp1039
g53
V10.1016/S0097-8485(99)00015-7
p1040
sg49
VCOMPUT CHEM
p1041
sg51
V23
p1042
sg89
(lp1043
(VPEDERSEN
VA G
tp1044
asg17
I1999
sg45
V191
p1045
sbag1
(g2
g3
NtRp1046
(dp1047
g53
V10.1006/jmbi.1998.1972
p1048
sg49
VJ MOL BIOL
p1049
sg51
V281
p1050
sg89
(lp1051
(VPEDERSEN
VA G
tp1052
asg17
I1998
sg45
V663
p1053
sbag1
(g2
g3
NtRp1054
(dp1055
g53
V10.1093/bioinformatics/16.5.439
p1056
sg49
VBIOINFORMATICS
p1057
sg51
V16
p1058
sg89
(lp1059
(VPESOLE
VG
tp1060
asg17
I2000
sg45
V439
p1061
sbag1
(g2
g3
NtRp1062
(dp1063
g53
V10.1023/A:1026590323386
p1064
sg49
VPLANT MOL BIOL
p1065
sg51
V44
p1066
sg89
(lp1067
(VPITTO
VL
tp1068
asg17
I2000
sg45
VLANT
p1069
sbag1
(g2
g3
NtRp1070
(dp1071
g53
V10.1093/bioinformatics/18.4.631
p1072
sg49
VBIOINFORMATICS
p1073
sg51
V18
p1074
sg89
(lp1075
(VPONGER
VL
tp1076
asg17
I2002
sg45
V631
p1077
sbag1
(g2
g3
NtRp1078
(dp1079
g53
V10.1042/0264-6021:3410473
p1080
sg49
VBIOCHEM J
p1081
sg51
V341
p1082
sg89
(lp1083
(VPRADHAN
VS
tp1084
asg17
I1999
sg45
V473
p1085
sbag1
(g2
g3
NtRp1086
(dp1087
g53
V10.1093/nar/30.1.322
p1088
sg49
VNUCLEIC ACIDS RES
p1089
sg51
V30
p1090
sg89
(lp1091
(VPRAZ
VV
tp1092
asg17
I2002
sg45
V322
p1093
sbag1
(g2
g3
NtRp1094
(dp1095
g53
Nsg49
VCOMPUT APPL BIOSCI
p1096
sg51
V7
sg89
(lp1097
(VPRESTRIDGE
VD S
tp1098
asg17
I1991
sg45
V203
p1099
sbag1
(g2
g3
NtRp1100
(dp1101
g53
V10.1006/jmbi.1995.0349
p1102
sg49
VJ MOL BIOL
p1103
sg51
V249
p1104
sg89
(lp1105
(VPRESTRIDGE
VD S
tp1106
asg17
I1995
sg45
V923
p1107
sbag1
(g2
g3
NtRp1108
(dp1109
g53
V10.1038/nrg928
p1110
sg49
VNAT REV GENET
p1111
sg51
V3
sg89
(lp1112
(VPRINCE
VV E
tp1113
asg17
I2002
sg45
V827
p1114
sbag1
(g2
g3
NtRp1115
(dp1116
g53
Nsg49
VGENETICS
p1117
sg51
V157
p1118
sg89
(lp1119
(VQUIROS
VC F
tp1120
asg17
I2001
sg45
V1321
p1121
sbag1
(g2
g3
NtRp1122
(dp1123
g53
V10.1093/emboj/17.17.4905
p1124
sg49
VEMBO J
p1125
sg51
V17
p1126
sg89
(lp1127
(VRAZIN
VA
tp1128
asg17
I1998
sg45
V4905
p1129
sbag1
(g2
g3
NtRp1130
(dp1131
g53
V10.1101/gr.10.4.483
p1132
sg49
VGENOME RES
p1133
sg51
V10
p1134
sg89
(lp1135
(VREESE
VM G
tp1136
asg17
I2000
sg45
V483
p1137
sbag1
(g2
g3
NtRp1138
(dp1139
g53
V10.1105/tpc.12.5.707
p1140
sg49
VPLANT CELL
p1141
sg51
V12
p1142
sg89
(lp1143
(VREYMOND
VP
tp1144
asg17
I2000
sg45
VLANT
p1145
sbag1
(g2
g3
NtRp1146
(dp1147
g53
V10.1016/S0092-8674(02)00644-X
p1148
sg49
VCELL
p1149
sg51
V108
p1150
sg89
(lp1151
(VRICHARDS
VE J
tp1152
asg17
I2002
sg45
V489
p1153
sbag1
(g2
g3
NtRp1154
(dp1155
g53
V10.1126/science.290.5499.2105
p1156
sg49
VSCIENCE
p1157
sg51
V290
p1158
sg89
(lp1159
(VRIECHMANN
VJ L
tp1160
asg17
I2000
sg45
V2105
p1161
sbag1
(g2
g3
NtRp1162
(dp1163
g53
V10.1038/sj.onc.1205609
p1164
sg49
VONCOGENE
p1165
sg51
V21
p1166
sg89
(lp1167
(VROBERTSON
VK D
tp1168
asg17
I2002
sg45
V5361
p1169
sbag1
(g2
g3
NtRp1170
(dp1171
g53
V10.1089/106652701752236179
p1172
sg49
VJ COMPUT BIOL
p1173
sg51
V8
sg89
(lp1174
(VROBIN
VS
tp1175
asg17
I2001
sg45
V349
p1176
sbag1
(g2
g3
NtRp1177
(dp1178
g53
Nsg49
VMOL CELL BIOL
p1179
sg51
V15
p1180
sg89
(lp1181
(VROONEY
VJ W
tp1182
asg17
I1995
sg45
V6299
p1183
sbag1
(g2
g3
NtRp1184
(dp1185
g53
V10.1074/jbc.272.21.13758
p1186
sg49
VJ BIOL CHEM
p1187
sg51
V272
p1188
sg89
(lp1189
(VROSSI
VV
tp1190
asg17
I1997
sg45
V13758
p1191
sbag1
(g2
g3
NtRp1192
(dp1193
g53
V10.1038/nbt1098-939
p1194
sg49
VNAT BIOTECHNOL
p1195
sg51
V16
p1196
sg89
(lp1197
(VROTH
VF P
tp1198
asg17
I1998
sg45
V939
p1199
sbag1
(g2
g3
NtRp1200
(dp1201
g53
V10.1089/cmb.1998.5.539
p1202
sg49
VJ COMPUT BIOL
p1203
sg51
V5
sg89
(lp1204
(VSAGOT
VM F
tp1205
asg17
I1998
sg45
V539
p1206
sbag1
(g2
g3
NtRp1207
(dp1208
g53
V10.1093/nar/29.1.72
p1209
sg49
VNUCLEIC ACIDS RES
p1210
sg51
V29
p1211
sg89
(lp1212
(VSALGADO
VH
tp1213
asg17
I2001
sg45
V72
p1214
sbag1
(g2
g3
NtRp1215
(dp1216
g53
V10.1089/cmb.1997.4.189
p1217
sg49
VJ COMPUT BIOL
p1218
sg51
V4
sg89
(lp1219
(VSCHBATH
VS
tp1220
asg17
I1997
sg45
V189
p1221
sbag1
(g2
g3
NtRp1222
(dp1223
g53
V10.1089/10665270050081469
p1224
sg49
VJ COMPUT BIOL
p1225
sg51
V7
sg89
(lp1226
(VSCHBATH
VS
tp1227
asg17
I2000
sg45
V193
p1228
sbag1
(g2
g3
NtRp1229
(dp1230
g53
V10.1089/cmb.1995.2.417
p1231
sg49
VJ Comput Biol
p1232
sg51
V2
sg89
(lp1233
(VSCHBATH
VS
tp1234
asg17
I1995
sg45
V417
p1235
sbag1
(g2
g3
NtRp1236
(dp1237
g53
V10.1006/jmbi.2000.3589
p1238
sg49
VJ MOL BIOL
p1239
sg51
V297
p1240
sg89
(lp1241
(VSCHERF
VM
tp1242
asg17
I2000
sg45
V599
p1243
sbag1
(g2
g3
NtRp1244
(dp1245
g53
V10.1126/science.1071006
p1246
sg49
VSCIENCE
p1247
sg51
V296
p1248
sg89
(lp1249
(VSEKI
VM
tp1250
asg17
I2002
sg45
V141
p1251
sbag1
(g2
g3
NtRp1252
(dp1253
g53
V10.1093/nar/gkf669
p1254
sg49
VNUCLEIC ACIDS RES
p1255
sg51
V30
p1256
sg89
(lp1257
(VSINHA
VS
tp1258
asg17
I2002
sg45
V5549
p1259
sbag1
(g2
g3
NtRp1260
(dp1261
g53
Nsg49
VProc Int Conf Intell Syst Mol Biol
p1262
sg51
V8
sg89
(lp1263
(VSINHA
VS
tp1264
asg17
I2000
sg45
Vroc
p1265
sbag1
(g2
g3
NtRp1266
(dp1267
g53
V10.1006/jmbi.1994.0190
p1268
sg49
VJ MOL BIOL
p1269
sg51
V247
p1270
sg89
(lp1271
(VSIVOLOB
VA V
tp1272
asg17
I1995
sg45
V918
p1273
sbag1
(g2
g3
NtRp1274
(dp1275
g53
V10.1007/s004380050129
p1276
sg49
VMOL GEN GENET
p1277
sg51
V250
p1278
sg89
(lp1279
(VSORENSEN
VM B
tp1280
asg17
I1996
sg45
V750
p1281
sbag1
(g2
g3
NtRp1282
(dp1283
g53
Nsg49
VMethods Mol Biol
p1284
sg51
V170
p1285
sg89
(lp1286
(VSOUTHERN
VE M
tp1287
asg17
I2001
sg45
V1
sbag1
(g2
g3
NtRp1288
(dp1289
g53
V10.1016/0076-6879(90)83015-2
p1290
sg49
VMETHOD ENZYMOL
p1291
sg51
V183
p1292
sg89
(lp1293
(VSTORMO
VG D
tp1294
asg17
I1990
sg45
V211
p1295
sbag1
(g2
g3
NtRp1296
(dp1297
g53
Nsg49
VANNU REV BIOPHYS BIO
p1298
sg51
V17
p1299
sg89
(lp1300
(VSTORMO
VG D
tp1301
asg17
I1988
sg45
V241
p1302
sbag1
(g2
g3
NtRp1303
(dp1304
g53
V10.1073/pnas.86.4.1183
p1305
sg49
VP NATL ACAD SCI USA
p1306
sg51
V86
p1307
sg89
(lp1308
(VSTORMO
VG D
tp1309
asg17
I1989
sg45
V1183
p1310
sbag1
(g2
g3
NtRp1311
(dp1312
g53
V10.1126/science.1064050
p1313
sg49
VSCIENCE
p1314
sg51
V293
p1315
sg89
(lp1316
(VSTRUHL
VK
tp1317
asg17
I2001
sg45
V1054
p1318
sbag1
(g2
g3
NtRp1319
(dp1320
g53
V10.1016/S0092-8674(00)80599-1
p1321
sg49
VCELL
p1322
sg51
V98
p1323
sg89
(lp1324
(VSTRUHL
VK
tp1325
asg17
I1999
sg45
V1
sbag1
(g2
g3
NtRp1326
(dp1327
g53
V10.1023/A:1010686721797
p1328
sg49
VPLANT MOL BIOL
p1329
sg51
V46
p1330
sg89
(lp1331
(VSTURARO
VM
tp1332
asg17
I2001
sg45
VLANT
p1333
sbag1
(g2
g3
NtRp1334
(dp1335
g53
V10.1093/nar/24.22.4501
p1336
sg49
VNUCLEIC ACIDS RES
p1337
sg51
V24
p1338
sg89
(lp1339
(VSUGIMOTO
VN
tp1340
asg17
I1996
sg45
V4501
p1341
sbag1
(g2
g3
NtRp1342
(dp1343
g53
V10.1073/pnas.87.12.4692
p1344
sg49
VP NATL ACAD SCI USA
p1345
sg51
V87
p1346
sg89
(lp1347
(VSVED
VJ
tp1348
asg17
I1990
sg45
V4692
p1349
sbag1
(g2
g3
NtRp1350
(dp1351
g53
V10.1073/pnas.052410099
p1352
sg49
VP NATL ACAD SCI USA
p1353
sg51
V99
p1354
sg89
(lp1355
(VTAKAI
VD
tp1356
asg17
I2002
sg45
V3740
p1357
sbag1
(g2
g3
NtRp1358
(dp1359
g53
Nsg49
VNATURE
p1360
sg51
V408
p1361
sg89
(lp1362
(VKAUL
VS
tp1363
asg17
I2000
sg45
V796
p1364
sbag1
(g2
g3
NtRp1365
(dp1366
g53
V10.1089/10665270252935566
p1367
sg49
VJ COMPUT BIOL
p1368
sg51
V9
sg89
(lp1369
(VTHIJS
VG
tp1370
asg17
I2002
sg45
V447
p1371
sbag1
(g2
g3
NtRp1372
(dp1373
g53
V10.1093/bioinformatics/18.2.331
p1374
sg49
VBIOINFORMATICS
p1375
sg51
V18
p1376
sg89
(lp1377
(VTHIJS
VG
tp1378
asg17
I2002
sg45
V331
p1379
sbag1
(g2
g3
NtRp1380
(dp1381
g53
V10.1093/bioinformatics/17.12.1113
p1382
sg49
VBIOINFORMATICS
p1383
sg51
V17
p1384
sg89
(lp1385
(VTHIJS
VG
tp1386
asg17
I2001
sg45
V1113
p1387
sbag1
(g2
g3
NtRp1388
(dp1389
g53
V10.1093/nar/22.22.4673
p1390
sg49
VNUCLEIC ACIDS RES
p1391
sg51
V22
p1392
sg89
(lp1393
(VTHOMPSON
VJ D
tp1394
asg17
I1994
sg45
V4673
p1395
sbag1
(g2
g3
NtRp1396
(dp1397
g53
V10.1016/0092-8674(94)90227-5
p1398
sg49
VCELL
p1399
sg51
V77
p1400
sg89
(lp1401
(VTJIAN
VR
tp1402
asg17
I1994
sg45
V5
sbag1
(g2
g3
NtRp1403
(dp1404
g53
V10.1101/gr.197101
p1405
sg49
VGENOME RES
p1406
sg51
V11
p1407
sg89
(lp1408
(VTOMPA
VM
tp1409
asg17
I2001
sg45
V1143
p1410
sbag1
(g2
g3
NtRp1411
(dp1412
g53
V10.1002/(SICI)1097-0282(1997)44:4<423::AID-BIP6>3.0.CO;2-M
p1413
sg49
VBIOPOLYMERS
p1414
sg51
V44
p1415
sg89
(lp1416
(VTRAVERS
VA
tp1417
asg17
I1997
sg45
V423
p1418
sbag1
(g2
g3
NtRp1419
(dp1420
g53
V10.1093/bioinformatics/15.7.622
p1421
sg49
VBIOINFORMATICS
p1422
sg51
V15
p1423
sg89
(lp1424
(VTSUNODA
VT
tp1425
asg17
I1999
sg45
V622
p1426
sbag1
(g2
g3
NtRp1427
(dp1428
g53
V10.1016/S0923-2508(99)00115-1
p1429
sg49
VRES MICROBIOL
p1430
sg51
V150
p1431
sg89
(lp1432
(VVANET
VA
tp1433
asg17
I1999
sg45
V779
p1434
sbag1
(g2
g3
NtRp1435
(dp1436
g53
V10.1006/jmbi.2000.3576
p1437
sg49
VJ MOL BIOL
p1438
sg51
V297
p1439
sg89
(lp1440
(VVANET
VA
tp1441
asg17
I2000
sg45
V335
p1442
sbag1
(g2
g3
NtRp1443
(dp1444
g53
V10.1093/nar/28.8.1808
p1445
sg49
VNUCLEIC ACIDS RES
p1446
sg51
V28
p1447
sg89
(lp1448
(VVAN
VHELDEN J
tp1449
asg17
I2000
sg45
V1808
p1450
sbag1
(g2
g3
NtRp1451
(dp1452
g53
V10.1006/jmbi.1998.1947
p1453
sg49
VJ MOL BIOL
p1454
sg51
V281
p1455
sg89
(lp1456
(VVAN
VHELDEN J
tp1457
asg17
I1998
sg45
V827
p1458
sbag1
(g2
g3
NtRp1459
(dp1460
g53
Nsg49
VNUCLEIC ACIDS RES
p1461
sg51
V28
p1462
sg89
(lp1463
(VVAN
VHELDEN J
tp1464
asg17
I2000
sg45
V1000
p1465
sbag1
(g2
g3
NtRp1466
(dp1467
g53
V10.1016/S0168-9525(00)02166-1
p1468
sg49
VTRENDS GENET
p1469
sg51
V17
p1470
sg89
(lp1471
(VVAUCHERET
VH
tp1472
asg17
I2001
sg45
V29
p1473
sbag1
(g2
g3
NtRp1474
(dp1475
g53
V10.1126/science.1058040
p1476
sg49
VSCIENCE
p1477
sg51
V291
p1478
sg89
(lp1479
(VVENTER
VJ C
tp1480
asg17
I2001
sg45
V1304
p1481
sbag1
(g2
g3
NtRp1482
(dp1483
g53
V10.1093/nar/23.21.4407
p1484
sg49
VNUCLEIC ACIDS RES
p1485
sg51
V23
p1486
sg89
(lp1487
(VVOS
VP
tp1488
asg17
I1995
sg45
V4407
p1489
sbag1
(g2
g3
NtRp1490
(dp1491
g53
V10.1109/29.21701
p1492
sg49
VIEEE T ACOUST SPEECH
p1493
sg51
V37
p1494
sg89
(lp1495
(VWAIBEL
VA
tp1496
asg17
I1989
sg45
V328
p1497
sbag1
(g2
g3
NtRp1498
(dp1499
g53
Nsg49
VNAT GENET
p1500
sg51
V26
p1501
sg89
(lp1502
(VWASSERMAN
VW W
tp1503
asg17
I2000
sg45
V225
p1504
sbag1
(g2
g3
NtRp1505
(dp1506
g53
Nsg49
VEMBO J
p1507
sg51
V9
sg89
(lp1508
(VWEBER
VH
tp1509
asg17
I1990
sg45
V4409
p1510
sbag1
(g2
g3
NtRp1511
(dp1512
g53
Nsg49
VMethods Mol Biol
p1513
sg51
V132
p1514
sg89
(lp1515
(VWERNER
VT
tp1516
asg17
I2000
sg45
V337
p1517
sbag1
(g2
g3
NtRp1518
(dp1519
g53
V10.1093/nar/28.1.316
p1520
sg49
VNUCLEIC ACIDS RES
p1521
sg51
V28
p1522
sg89
(lp1523
(VWINGENDER
VE
tp1524
asg17
I2000
sg45
V316
p1525
sbag1
(g2
g3
NtRp1526
(dp1527
g53
V10.1093/nar/24.1.238
p1528
sg49
VNUCLEIC ACIDS RES
p1529
sg51
V24
p1530
sg89
(lp1531
(VWINGENDER
VE
tp1532
asg17
I1996
sg45
V238
p1533
sbag1
(g2
g3
NtRp1534
(dp1535
g53
Nsg49
VCOMPUT APPL BIOSCI
p1536
sg51
V12
p1537
sg89
(lp1538
(VWOLFERTSTETTER
VF
tp1539
asg17
I1996
sg45
V71
p1540
sbag1
(g2
g3
NtRp1541
(dp1542
g53
V10.1126/science.286.5439.481
p1543
sg49
VSCIENCE
p1544
sg51
V286
p1545
sg89
(lp1546
(VWOLFFE
VA P
tp1547
asg17
I1999
sg45
V481
p1548
sbag1
(g2
g3
NtRp1549
(dp1550
g53
Nsg49
VPac Symp Biocomput
p1551
sg51
Nsg89
(lp1552
(VWORKMAN
VC T
tp1553
asg17
I2000
sg45
Vac
p1554
sbag1
(g2
g3
NtRp1555
(dp1556
g53
Nsg49
VGENOME RES
p1557
sg51
V8
sg89
(lp1558
(VZHANG
VM Q
tp1559
asg17
I1998
sg45
V319
p1560
sbag1
(g2
g3
NtRp1561
(dp1562
g53
Nsg49
VJ BIOL CHEM
p1563
sg51
V269
p1564
sg89
(lp1565
(VZHANG
VS H
tp1566
asg17
I1994
sg45
V17586
p1567
sbag1
(g2
g3
NtRp1568
(dp1569
g53
V10.1093/bioinformatics/14.1.25
p1570
sg49
VBIOINFORMATICS
p1571
sg51
V14
p1572
sg89
(lp1573
(VZHU
VJ
tp1574
asg17
I1998
sg45
V25
p1575
sbag1
(g2
g3
NtRp1576
(dp1577
g53
V10.1093/bioinformatics/15.7.607
p1578
sg49
VBIOINFORMATICS
p1579
sg51
V15
p1580
sg89
(lp1581
(VZHU
VJ
tp1582
asg17
I1999
sg45
V607
p1583
sbasb.