ccopy_reg
_reconstructor
p1
(ctethne.classes.paper
Paper
p2
c__builtin__
object
p3
NtRp4
(dp5
S'publisherCity'
p6
VROCKVILLE
p7
sS'reprintAddress'
p8
VCroy, RRD (reprint author), Univ Durham, Sch Biol & Biomed Sci, Crop Protect Grp, South Rd, Durham DH1 3LE, England.
p9
sS'WC'
p10
VPlant Sciences
p11
sS'GA'
p12
V717FM
p13
sS'abstract'
p14
VPotato (Solanum tuberosum) cultivars differ quantitatively in their responses to mechanical stress including the ability to synthesize melanin pigments in tuber tissues. Investigations into the cellular events induced by mechanical stress on tuber tissues have shown that an early cellular response is a significant and rapid synthesis of superoxide radicals. This burst of radical production distinctively displays a reproducible biphasic pattern over time with peaks of generation at 2 and 5 h. A concomitant consequence of the generation of these free radicals is elevated levels of oxidatively modified tuber proteins. Both radical generation and protein modification vary between cultivars but both are directly proportional to the amount of melanin pigments produced. Cell-free extracts of mechanically stressed tissues, pectic fragments, and scission products generated from cell walls are able to induce superoxide generation in non-stressed tissues, indicating the participation of a biologically active factor that induces a further a phase of radical synthesis.
p15
sS'pageEnd'
p16
I1449
sS'publisherAddress'
p17
V15501 MONONA DRIVE, ROCKVILLE, MD 20855 USA
p18
sS'documentType'
p19
VArticle
p20
sS'subject'
p21
VPlant Sciences
p22
sS'isoSource'
p23
VPlant Physiol.
p24
sS'timesCited'
p25
(lp26
I37
aVZ9 39
p27
asS'PT'
p28
VJ
sS'title'
p29
VBiphasic Superoxide Generation In Potato Tubers. A Self-Amplifying Response To Stress
p30
sS'ISSN'
p31
(lp32
V0032-0889
p33
aVJ9 PLANT PHYSIOL
p34
asS'authors_full'
p35
(lp36
(VJOHNSON
VSM
tp37
a(VDOHERTY
VSJ
tp38
a(VCROY
VRRD
tp39
asS'PG'
p40
I10
sS'PD'
p41
VMAR
p42
sS'pageStart'
p43
I1440
sS'issue'
p44
I3
sS'journal'
p45
VPLANT PHYSIOLOGY
p46
sS'volume'
p47
V131
p48
sS'doi'
p49
V10.1104/pp.013300
p50
sS'authorAddress'
p51
VUniv Durham, Sch Biol & Biomed Sci, Crop Protect Grp, Durham DH1 3LE, England.
p52
sS'date'
p53
I2003
sS'ER'
p54
V
sS'publisher'
p55
VAMER SOC PLANT BIOLOGISTS
p56
sS'authorKeywords'
p57
(lp58
VPLANT-DISEASE RESISTANCE
p59
aVTOBACCO CELL-SUSPENSIONS
p60
aVINDUCED OXIDATIVE BURST
p61
aVEXTA EXTENSIN GENE
p62
aVPOLYPHENOL OXIDASE
p63
aVHYDROXYL RADICALS
p64
aVMECHANICAL PERTURBATION
p65
aVHYPOOSMOTIC STRESS
p66
aVBLACKSPOT PIGMENTS
p67
aVTHIGMOMORPHOGENESIS
p68
asS'language'
p69
VEnglish
p70
sS'wosid'
p71
VWOS:000185076100059
p72
sS'citationCount'
p73
I48
sS'authors_init'
p74
(lp75
(VJOHNSON
VS M
tp76
a(VDOHERTY
VS J
tp77
a(VCROY
VR R D
tp78
asS'citedReferences'
p79
(lp80
g1
(g2
g3
NtRp81
(dp82
g49
V10.1104/pp.117.2.491
p83
sg45
VPLANT PHYSIOL
p84
sg47
V117
p85
sg74
(lp86
(VABLE
VA J
tp87
asg53
I1998
sg43
VLANT
p88
sbag1
(g2
g3
NtRp89
(dp90
g49
V10.1038/nbt1194-1101
p91
sg45
VBIO
p92
sg47
V12
p93
sg74
(lp94
(VBACHEM
VC W B
tp95
asg53
I1994
sg43
V1101
p96
sbag1
(g2
g3
NtRp97
(dp98
g49
V10.1146/annurev.py.33.090195.001503
p99
sg45
VANNU REV PHYTOPATHOL
p100
sg47
V33
p101
sg74
(lp102
(VBAKER
VC J
tp103
asg53
I1995
sg43
V299
p104
sbag1
(g2
g3
NtRp105
(dp106
g49
V10.3109/10715769509065273
p107
sg45
VFREE RADICAL RES
p108
sg47
V23
p109
sg74
(lp110
(VBOLWELL
VG P
tp111
asg53
I1995
sg43
V517
p112
sbag1
(g2
g3
NtRp113
(dp114
g49
V10.1006/pmpp.1997.0129
p115
sg45
VPHYSIOL MOL PLANT P
p116
sg47
V51
p117
sg74
(lp118
(VBOLWELL
VG P
tp119
asg53
I1997
sg43
VHYSIOL
p120
sbag1
(g2
g3
NtRp121
(dp122
g49
V10.1016/0092-8674(90)90587-5
p123
sg45
VCELL
p124
sg47
V60
p125
sg74
(lp126
(VBRAAM
VJ
tp127
asg53
I1990
sg43
V357
p128
sbag1
(g2
g3
NtRp129
(dp130
g49
Nsg45
VPLANT CELL
p131
sg47
V6
sg74
(lp132
(VBRISSON
VL F
tp133
asg53
I1994
sg43
VLANT
p134
sbag1
(g2
g3
NtRp135
(dp136
g49
Nsg45
VBRIT NAT FORM
p137
sg47
Nsg74
(lp138
(VBRIT MED ASS
S''
tp139
asg53
I2000
sg43
V172
p140
sbag1
(g2
g3
NtRp141
(dp142
g49
V10.1104/pp.116.2.659
p143
sg45
VPLANT PHYSIOL
p144
sg47
V116
p145
sg74
(lp146
(VCAZALE
VA C
tp147
asg53
I1998
sg43
VLANT
p148
sbag1
(g2
g3
NtRp149
(dp150
g49
V10.1046/j.1365-313X.1999.00528.x
p151
sg45
VPLANT J
p152
sg47
V19
p153
sg74
(lp154
(VCAZALE
VA C
tp155
asg53
I1999
sg43
VLANT
p156
sbag1
(g2
g3
NtRp157
(dp158
g49
V10.1021/jf001217f
p159
sg45
VJ AGR FOOD CHEM
p160
sg47
V49
p161
sg74
(lp162
(VCOETZER
VC
tp163
asg53
I2001
sg43
V652
p164
sbag1
(g2
g3
NtRp165
(dp166
g49
V10.1007/BF02852293
p167
sg45
VAM POTATO J
p168
sg47
V69
p169
sg74
(lp170
(VCORSINI
VD L
tp171
asg53
I1992
sg43
V423
p172
sbag1
(g2
g3
NtRp173
(dp174
g49
Nsg45
VAspects of Applied Biology
p175
sg47
V52
p176
sg74
(lp177
(VCROY
VR R D
tp178
asg53
I1998
sg43
V207
p179
sbag1
(g2
g3
NtRp180
(dp181
g49
Nsg45
VPOTATO VARIETIES
p182
sg47
Nsg74
(lp183
(VDIXON
VT J
tp184
asg53
I1992
sg43
VOTATO
p185
sbag1
(g2
g3
NtRp186
(dp187
g49
V10.1016/0048-4059(85)90044-X
p188
sg45
VPHYSIOL PLANT PATHOL
p189
sg47
V27
p190
sg74
(lp191
(VDOKE
VN
tp192
asg53
I1985
sg43
VHYSIOL
p193
sbag1
(g2
g3
NtRp194
(dp195
g49
V10.1023/A:1005918816630
p196
sg45
VPLANT MOL BIOL
p197
sg47
V37
p198
sg74
(lp199
(VELLIOTT
VK A
tp200
asg53
I1998
sg43
VLANT
p201
sbag1
(g2
g3
NtRp202
(dp203
g49
V10.1021/jf960900s
p204
sg45
VJ AGR FOOD CHEM
p205
sg47
V45
p206
sg74
(lp207
(VFRIEDMAN
VM
tp208
asg53
I1997
sg43
V1523
p209
sbag1
(g2
g3
NtRp210
(dp211
g49
Nsg45
VBIOCHEM J
p212
sg47
V332
p213
sg74
(lp214
(VFRY
VS C
tp215
asg53
I1998
sg43
V443
p216
sbag1
(g2
g3
NtRp217
(dp218
g49
V10.1042/0264-6021:3570729
p219
sg45
VBIOCHEM J
p220
sg47
V357
p221
sg74
(lp222
(VFRY
VS C
tp223
asg53
I2001
sg43
V729
p224
sbag1
(g2
g3
NtRp225
(dp226
g49
V10.1007/BF02852100
p227
sg45
VAM POTATO J
p228
sg47
V52
p229
sg74
(lp230
(VHUDSON
VD E
tp231
asg53
I1975
sg43
V9
sbag1
(g2
g3
NtRp232
(dp233
g49
V10.1111/j.1399-3054.1985.tb02348.x
p234
sg45
VPHYSIOL PLANTARUM
p235
sg47
V64
p236
sg74
(lp237
(VJAFFE
VM J
tp238
asg53
I1985
sg43
VHYSIOL
p239
sbag1
(g2
g3
NtRp240
(dp241
g49
V10.1007/BF00027213
p242
sg45
VPLANT GROWTH REGUL
p243
sg47
V12
p244
sg74
(lp245
(VJAFFE
VM J
tp246
asg53
I1993
sg43
VLANT
p247
sbag1
(g2
g3
NtRp248
(dp249
g49
V10.1007/BF00387472
p250
sg45
VPLANTA
p251
sg47
V114
p252
sg74
(lp253
(VJAFFE
VM J
tp254
asg53
I1973
sg43
VLANTA
p255
sbag1
(g2
g3
NtRp256
(dp257
g49
Nsg45
VB U IDAHO COOPERATIV
p258
sg47
V725
p259
sg74
(lp260
(VKLEINSCHMIDT
VG
tp261
asg53
I1991
sg43
Nsbag1
(g2
g3
NtRp262
(dp263
g49
Nsg45
VASP APPL BIOL
p264
sg47
V52
p265
sg74
(lp266
(VKROHN
VB M
tp267
asg53
I1998
sg43
V239
p268
sbag1
(g2
g3
NtRp269
(dp270
g49
V10.1002/1097-0010(200007)80:9<1332::AID-JSFA645>3.0.CO;2-T
p271
sg45
VJ SCI FOOD AGR
p272
sg47
V80
p273
sg74
(lp274
(VLAERKE
VP E
tp275
asg53
I2000
sg43
V1332
p276
sbag1
(g2
g3
NtRp277
(dp278
g49
V10.1146/annurev.arplant.48.1.251
p279
sg45
VANNU REV PLANT PHYS
p280
sg47
V48
p281
sg74
(lp282
(VLAMB
VC
tp283
asg53
I1997
sg43
V251
p284
sbag1
(g2
g3
NtRp285
(dp286
g49
Nsg45
VPLANT PHYSIOL
p287
sg47
V102
p288
sg74
(lp289
(VLEGENDRE
VL
tp290
asg53
I1993
sg43
VLANT
p291
sbag1
(g2
g3
NtRp292
(dp293
g49
Nsg45
VMETHOD ENZYMOL
p294
sg47
V233
p295
sg74
(lp296
(VLEVINE
VR L
tp297
asg53
I1994
sg43
V346
p298
sbag1
(g2
g3
NtRp299
(dp300
g49
V10.1111/j.1399-3054.1996.tb00469.x
p301
sg45
VPHYSIOL PLANTARUM
p302
sg47
V96
p303
sg74
(lp304
(VLOW
VP S
tp305
asg53
I1996
sg43
VHYSIOL
p306
sbag1
(g2
g3
NtRp307
(dp308
g49
V10.1034/j.1399-3054.1996.980219.x
p309
sg45
VPHYSIOL PLANTARUM
p310
sg47
V98
p311
sg74
(lp312
(VMEHDY
VM C
tp313
asg53
I1996
sg43
VHYSIOL
p314
sbag1
(g2
g3
NtRp315
(dp316
g49
V10.1016/S0008-6215(01)00110-0
p317
sg45
VCARBOHYD RES
p318
sg47
V332
p319
sg74
(lp320
(VMILLER
VJ G
tp321
asg53
I2001
sg43
V389
p322
sbag1
(g2
g3
NtRp323
(dp324
g49
V10.1007/BF02862011
p325
sg45
VAM POTATO J
p326
sg47
V46
p327
sg74
(lp328
(VOLEARY
VA G
tp329
asg53
I1969
sg43
V352
p330
sbag1
(g2
g3
NtRp331
(dp332
g49
V10.1007/s004250050504
p333
sg45
VPLANTA
p334
sg47
V207
p335
sg74
(lp336
(VPARTINGTON
VJ C
tp337
asg53
I1999
sg43
VLANTA
p338
sbag1
(g2
g3
NtRp339
(dp340
g49
Nsg45
V1 POT MARK BOARD
p341
sg47
Nsg74
(lp342
(VPOT MARK BOARD
S''
tp343
asg53
I1994
sg43
Nsbag1
(g2
g3
NtRp344
(dp345
g49
V10.1562/0031-8655(2000)071<0307:HAAFPF>2.0.CO;2
p346
sg45
VPHOTOCHEM PHOTOBIOL
p347
sg47
V71
p348
sg74
(lp349
(VQU
VX H
tp350
asg53
I2000
sg43
VHOTOCHEM
p351
sbag1
(g2
g3
NtRp352
(dp353
g49
Nsg45
VSTORAGE POTATOES POS
p354
sg47
Nsg74
(lp355
(VRASTOVSKI
VA
tp356
asg53
I1987
sg43
V163
p357
sbag1
(g2
g3
NtRp358
(dp359
g49
Nsg45
VPLANTA
p360
sg47
V199
p361
sg74
(lp362
(VSHIRSAT
VA H
tp363
asg53
I1996
sg43
VLANTA
p364
sbag1
(g2
g3
NtRp365
(dp366
g49
Nsg45
VCOMMERCIAL POTATO PR
p367
sg47
Nsg74
(lp368
(VSIECZKA
VJ B
tp369
asg53
I1993
sg43
Nsbag1
(g2
g3
NtRp370
(dp371
g49
V10.1007/BF02853186
p372
sg45
VAM POTATO J
p373
sg47
V66
p374
sg74
(lp375
(VSKROBACKI
VA
tp376
asg53
I1989
sg43
V401
p377
sbag1
(g2
g3
NtRp378
(dp379
g49
V10.1146/annurev.bi.62.070193.004053
p380
sg45
VANNU REV BIOCHEM
p381
sg47
V62
p382
sg74
(lp383
(VSTADTMAN
VE R
tp384
asg53
I1993
sg43
V797
p385
sbag1
(g2
g3
NtRp386
(dp387
g49
V10.1016/0031-9422(96)00088-X
p388
sg45
VPHYTOCHEMISTRY
p389
sg47
V42
p390
sg74
(lp391
(VSTEVENS
VL H
tp392
asg53
I1996
sg43
VHYTOCHEMISTRY
p393
sbag1
(g2
g3
NtRp394
(dp395
g49
V10.1021/jf9608837
p396
sg45
VJ AGR FOOD CHEM
p397
sg47
V45
p398
sg74
(lp399
(VSTEVENS
VL H
tp400
asg53
I1997
sg43
V4221
p401
sbag1
(g2
g3
NtRp402
(dp403
g49
V10.3109/10715769709065766
p404
sg45
VFREE RADICAL RES
p405
sg47
V27
p406
sg74
(lp407
(VSUTHERLAND
VM W
tp408
asg53
I1997
sg43
V283
p409
sbag1
(g2
g3
NtRp410
(dp411
g49
V10.1073/pnas.92.10.4158
p412
sg45
VP NATL ACAD SCI USA
p413
sg47
V92
p414
sg74
(lp415
(VTENHAKEN
VR
tp416
asg53
I1995
sg43
V4158
p417
sbag1
(g2
g3
NtRp418
(dp419
g49
V10.1111/j.1600-0749.1996.tb00093.x
p420
sg45
VPIGM CELL RES
p421
sg47
V9
sg74
(lp422
(VVALVERDE
VP
tp423
asg53
I1996
sg43
VIGM
p424
sbag1
(g2
g3
NtRp425
(dp426
g49
Nsg45
VBIOCHEM J
p427
sg47
V322
p428
sg74
(lp429
(VWOJTASZEK
VP
tp430
asg53
I1997
sg43
V681
p431
sbag1
(g2
g3
NtRp432
(dp433
g49
Nsg45
VPLANT PHYSIOL
p434
sg47
V109
p435
sg74
(lp436
(VYAHRAUS
VT
tp437
asg53
I1995
sg43
VLANT
p438
sbasb.