ccopy_reg
_reconstructor
p1
(ctethne.classes.paper
Paper
p2
c__builtin__
object
p3
NtRp4
(dp5
S'publisherCity'
p6
VROCKVILLE
p7
sS'reprintAddress'
p8
VLynch, JP (reprint author), Penn State Univ, Dept Hort, University Pk, PA 16802 USA.
p9
sS'WC'
p10
VPlant Sciences
p11
sS'GA'
p12
V786HH
p13
sS'FX'
p14
(lp15
VThis work was supported by the National Science Foundation/Basic
p16
aVResearch to Enhance Agricultural Development (grant no.
p17
aV4184-UM-NSF-5380).
p18
asS'abstract'
p19
VRoot cortical aerenchyma (RCA) is induced by hypoxia, drought, and several nutrient deficiencies. Previous research showed that RCA formation reduces the respiration and nutrient content of root tissue. We used SimRoot, a functional-structural model, to provide quantitative support for the hypothesis that RCA formation is a useful adaptation to suboptimal availability of phosphorus, nitrogen, and potassium by reducing the metabolic costs of soil exploration in maize (Zea mays). RCA increased the growth of simulated 40-d-old maize plants up to 55%, 54%, or 72% on low nitrogen, phosphorus, or potassium soil, respectively, and reduced critical fertility levels by 13%, 12%, or 7%, respectively. The greater utility of RCA on low-potassium soils is associated with the fact that root growth in potassium-deficient plants was more carbon limited than in phosphorus- and nitrogen-deficient plants. In contrast to potassium-deficient plants, phosphorus- and nitrogen-deficient plants allocate more carbon to the root system as the deficiency develops. The utility of RCA also depended on other root phenes and environmental factors. On low-phosphorus soils (7.5 mu M), the utility of RCA was 2.9 times greater in plants with increased lateral branching density than in plants with normal branching. On low-nitrate soils, the utility of RCA formation was 56% greater in coarser soils with high nitrate leaching. Large genetic variation in RCA formation and the utility of RCA for a range of stresses position RCA as an interesting crop-breeding target for enhanced soil resource acquisition.
p20
sS'pageEnd'
p21
I1201
sS'date'
p22
I2011
sS'documentType'
p23
VArticle
p24
sS'subject'
p25
VPlant Sciences
p26
sS'isoSource'
p27
VPlant Physiol.
p28
sS'timesCited'
p29
(lp30
I21
aVZ9 24
p31
asS'funding'
p32
(lp33
(VNational Science Foundation/Basic Research to Enhance Agricultural Development
V4184-UM-NSF-5380
tp34
asS'PT'
p35
VJ
sS'title'
p36
VRoot Cortical Aerenchyma Enhances The Growth Of Maize On Soils With Suboptimal Availability Of Nitrogen, Phosphorus, And Potassium
p37
sS'ISSN'
p38
(lp39
V0032-0889
p40
aVJ9 PLANT PHYSIOL
p41
asS'authors_full'
p42
(lp43
(VPOSTMA
VJOHANNES AUKE
tp44
a(VLYNCH
VJONATHAN PAUL
tp45
asS'PG'
p46
I12
sS'PD'
p47
VJUL
p48
sS'pageStart'
p49
I1190
sS'issue'
p50
I3
sS'journal'
p51
VPLANT PHYSIOLOGY
p52
sS'volume'
p53
V156
p54
sS'doi'
p55
V10.1104/pp.111.175489
p56
sS'emailAddress'
p57
Vjpl4@psu.edu
p58
sS'authorAddress'
p59
V[Postma, Johannes Auke; Lynch, Jonathan Paul] Penn State Univ, Dept Hort, University Pk, PA 16802 USA.
p60
sS'publisherAddress'
p61
V15501 MONONA DRIVE, ROCKVILLE, MD 20855 USA
p62
sS'ER'
p63
V
sS'publisher'
p64
VAMER SOC PLANT BIOLOGISTS
p65
sS'authorKeywords'
p66
(lp67
VZEA-MAYS L.
p68
aVADVENTITIOUS ROOTS
p69
aVARCHITECTURAL TRADEOFFS
p70
aVDROUGHT TOLERANCE
p71
aVSOLUTE TRANSPORT
p72
aVNUTRIENT-UPTAKE
p73
aVCEREAL ROOTS
p74
aVCROP GROWTH
p75
aVDRY-MATTER
p76
aVCELL-DEATH
p77
asS'language'
p78
VEnglish
p79
sS'wosid'
p80
VWOS:000292294100020
p81
sS'citationCount'
p82
I66
sS'authors_init'
p83
(lp84
(VPOSTMA
VJ A
tp85
a(VLYNCH
VJ P
tp86
asS'citedReferences'
p87
(lp88
g1
(g2
g3
NtRp89
(dp90
g55
V10.1046/j.1365-3040.1999.00405.x
p91
sg51
VPLANT CELL ENVIRON
p92
sg53
V22
p93
sg83
(lp94
(VBORCH
VK
tp95
asg22
I1999
sg49
VLANT
p96
sbag1
(g2
g3
NtRp97
(dp98
g55
V10.1093/aob/mcl024
p99
sg51
VANN BOT
p100
sg53
V97
p101
sg83
(lp102
(VBOURANIS
VD L
tp103
asg22
I2006
sg49
V695
p104
sbag1
(g2
g3
NtRp105
(dp106
g55
V10.1007/s00425-003-1007-6
p107
sg51
VPLANTA
p108
sg53
V217
p109
sg83
(lp110
(VBOURANIS
VD L
tp111
asg22
I2003
sg49
VLANTA
p112
sbag1
(g2
g3
NtRp113
(dp114
g55
Nsg51
VACTA HORTIC
p115
sg53
V618
p116
sg83
(lp117
(VBROWN
VK M
tp118
asg22
I2003
sg49
V193
p119
sbag1
(g2
g3
NtRp120
(dp121
g55
Nsg51
VTHESIS PENNSYLVANIA
p122
sg53
Nsg83
(lp123
(VBURTON
VA
tp124
asg22
I2010
sg49
Nsbag1
(g2
g3
NtRp125
(dp126
g55
V10.1093/jxb/45.9.1245
p127
sg51
VJ EXP BOT
p128
sg53
V45
p129
sg83
(lp130
(VCAKMAK
VI
tp131
asg22
I1994
sg49
V1245
p132
sbag1
(g2
g3
NtRp133
(dp134
g55
V10.1104/pp.54.4.564
p135
sg51
VPLANT PHYSIOL
p136
sg53
V54
p137
sg83
(lp138
(VCLAASSEN
VN
tp139
asg22
I1974
sg49
VLANT
p140
sbag1
(g2
g3
NtRp141
(dp142
g55
Nsg51
VADV AGR SYSTEMS MODE
p143
sg53
V2
sg83
(lp144
(VDATHE
VA
tp145
asg22
I2011
sg49
Nsbag1
(g2
g3
NtRp146
(dp147
g55
Nsg51
VANN BOT
p148
sg53
V58
p149
sg83
(lp150
(VDEACON
VJ W
tp151
asg22
I1986
sg49
V719
p152
sbag1
(g2
g3
NtRp153
(dp154
g55
V10.1023/A:1021471531188
p155
sg51
VNUTR CYCL AGROECOSYS
p156
sg53
V64
p157
sg83
(lp158
(VDI
VH J
tp159
asg22
I2002
sg49
V237
p160
sbag1
(g2
g3
NtRp161
(dp162
g55
V10.1016/S1360-1385(00)01570-3
p163
sg51
VTRENDS PLANT SCI
p164
sg53
V5
sg83
(lp165
(VDREW
VM C
tp166
asg22
I2000
sg49
V123
p167
sbag1
(g2
g3
NtRp168
(dp169
g55
V10.1104/pp.91.1.266
p170
sg51
VPLANT PHYSIOL
p171
sg53
V91
p172
sg83
(lp173
(VDREW
VM C
tp174
asg22
I1989
sg49
VLANT
p175
sbag1
(g2
g3
NtRp176
(dp177
g55
VDOI 10.1046/J.1469-8137.2003.00907.X
p178
sg51
VNEW PHYTOL
p179
sg53
V161
p180
sg83
(lp181
(VEVANS
VD E
tp182
asg22
I2003
sg49
V35
p183
sbag1
(g2
g3
NtRp184
(dp185
g55
V10.1071/FP03046
p186
sg51
VFUNCT PLANT BIOL
p187
sg53
V30
p188
sg83
(lp189
(VFAN
VM S
tp190
asg22
I2003
sg49
V493
p191
sbag1
(g2
g3
NtRp192
(dp193
g55
V10.1006/anbo.2001.1506
p194
sg51
VANN BOT
p195
sg53
V88
p196
sg83
(lp197
(VGIBBERD
VM R
tp198
asg22
I2001
sg49
V579
p199
sbag1
(g2
g3
NtRp200
(dp201
g55
V10.2136/vzj2006.0156
p202
sg51
VVADOSE ZONE J
p203
sg53
VADOSE
p204
sg83
(lp205
(VHARDELAUF
VH
tp206
asg22
I2007
sg49
V255
p207
sbag1
(g2
g3
NtRp208
(dp209
g55
V10.1104/pp.98.1.137
p210
sg51
VPLANT PHYSIOL
p211
sg53
V98
p212
sg83
(lp213
(VHE
VC J
tp214
asg22
I1992
sg49
VLANT
p215
sbag1
(g2
g3
NtRp216
(dp217
g55
V10.1071/FP05043
p218
sg51
VFUNCT PLANT BIOL
p219
sg53
V32
p220
sg83
(lp221
(VHO
VM D
tp222
asg22
I2005
sg49
V737
p223
sbag1
(g2
g3
NtRp224
(dp225
g55
V10.1111/j.1469-8137.2004.01015.x
p226
sg51
VNEW PHYTOL
p227
sg53
V162
p228
sg83
(lp229
(VHODGE
VA
tp230
asg22
I2004
sg49
V9
sbag1
(g2
g3
NtRp231
(dp232
g55
Nsg51
VSWMS 3D CODE SIMULAT
p233
sg53
Nsg83
(lp234
(VHUANG
VK
tp235
asg22
I1995
sg49
Nsbag1
(g2
g3
NtRp236
(dp237
g55
V10.1007/BF02374895
p238
sg51
VPLANT SOIL
p239
sg53
V70
p240
sg83
(lp241
(VITOH
VS
tp242
asg22
I1983
sg49
VLANT
p243
sbag1
(g2
g3
NtRp244
(dp245
g55
V10.1055/s-2007-978516
p246
sg51
VPLANT BIOLOGY
p247
sg53
V1
sg83
(lp248
(VJACKSON
VM B
tp249
asg22
I1999
sg49
VLANT
p250
sbag1
(g2
g3
NtRp251
(dp252
g55
Nsg51
VTHESIS PENNSYLVANIA
p253
sg53
Nsg83
(lp254
(VJARAMILLO-VELASTEGUI
VR
tp255
asg22
I2011
sg49
Nsbag1
(g2
g3
NtRp256
(dp257
g55
V10.1105/tpc.108.063099
p258
sg51
VPLANT CELL
p259
sg53
V21
p260
sg83
(lp261
(VJUNG
VJ Y
tp262
asg22
I2009
sg49
VLANT
p263
sbag1
(g2
g3
NtRp264
(dp265
g55
Nsg51
VCROP SCI
p266
sg53
V40
p267
sg83
(lp268
(VKAEPPLER
VS M
tp269
asg22
I2000
sg49
V358
p270
sbag1
(g2
g3
NtRp271
(dp272
g55
V10.1111/j.1399-3054.1980.tb02661.x
p273
sg51
VPHYSIOL PLANTARUM
p274
sg53
V49
p275
sg83
(lp276
(VKONINGS
VH
tp277
asg22
I1980
sg49
VHYSIOL
p278
sbag1
(g2
g3
NtRp279
(dp280
g55
V10.2307/2260979
p281
sg51
VJ ECOL
p282
sg53
V77
p283
sg83
(lp284
(VLAAN
VP
tp285
asg22
I1989
sg49
V693
p286
sbag1
(g2
g3
NtRp287
(dp288
g55
V10.1007/s10535-009-0049-4
p289
sg51
VBIOL PLANTARUM
p290
sg53
V53
p291
sg83
(lp292
(VLENOCHOVA
VZ
tp293
asg22
I2009
sg49
V263
p294
sbag1
(g2
g3
NtRp295
(dp296
g55
V10.1034/j.1399-3054.2001.1110314.x
p297
sg51
VPHYSIOL PLANTARUM
p298
sg53
V111
p299
sg83
(lp300
(VLILJEROTH
VE
tp301
asg22
I2001
sg49
VHYSIOL
p302
sbag1
(g2
g3
NtRp303
(dp304
g55
Nsg51
VCROP SCI
p305
sg53
V31
p306
sg83
(lp307
(VLYNCH
VJ
tp308
asg22
I1991
sg49
V380
p309
sbag1
(g2
g3
NtRp310
(dp311
g55
V10.1016/j.fcr.2004.07.008
p312
sg51
VFIELD CROP RES
p313
sg53
V90
p314
sg83
(lp315
(VLYNCH
VJ P
tp316
asg22
I2004
sg49
V101
p317
sbag1
(g2
g3
NtRp318
(dp319
g55
V10.1023/A:1013324727040
p320
sg51
VPLANT SOIL
p321
sg53
V237
p322
sg83
(lp323
(VLYNCH
VJ P
tp324
asg22
I2001
sg49
VLANT
p325
sbag1
(g2
g3
NtRp326
(dp327
g55
V10.1071/BT06118
p328
sg51
VAUST J BOT
p329
sg53
V55
p330
sg83
(lp331
(VLYNCH
VJ P
tp332
asg22
I2007
sg49
V493
p333
sbag1
(g2
g3
NtRp334
(dp335
g55
V10.1023/A:1004276724310
p336
sg51
VPLANT SOIL
p337
sg53
V188
p338
sg83
(lp339
(VLYNCH
VJ P
tp340
asg22
I1997
sg49
VLANT
p341
sbag1
(g2
g3
NtRp342
(dp343
g55
Nsg51
VV7
p344
sg53
V7
sg83
(lp345
(VLYNCH
VJONATHAN P
tp346
asg22
I2008
sg49
V83
p347
sbag1
(g2
g3
NtRp348
(dp349
g55
Nsg51
VPHOSPHORUS PLANT BIO
p350
sg53
Nsg83
(lp351
(VLYNCH
VJ P
tp352
asg22
I1998
sg49
VHOSPHORUS
p353
sbag1
(g2
g3
NtRp354
(dp355
g55
V10.1007/s11104-004-1096-4
p356
sg51
VPLANT SOIL
p357
sg53
V269
p358
sg83
(lp359
(VLYNCH
VJ P
tp360
asg22
I2005
sg49
VLANT
p361
sbag1
(g2
g3
NtRp362
(dp363
g55
V10.1023/A:1012728819326
p364
sg51
VPLANT SOIL
p365
sg53
V236
p366
sg83
(lp367
(VMA
VZ
tp368
asg22
I2001
sg49
VLANT
p369
sbag1
(g2
g3
NtRp370
(dp371
g55
V10.1007/s11104-005-4268-y
p372
sg51
VPLANT SOIL
p373
sg53
V281
p374
sg83
(lp375
(VMANO
VY
tp376
asg22
I2006
sg49
VLANT
p377
sbag1
(g2
g3
NtRp378
(dp379
g55
V10.1111/j.1475-2743.1995.tb00507.x
p380
sg51
VSOIL USE MANAGE
p381
sg53
V11
p382
sg83
(lp383
(VMCGRATH
VS P
tp384
asg22
I1995
sg49
V110
p385
sbag1
(g2
g3
NtRp386
(dp387
g55
Nsg51
VMAYDICA
p388
sg53
V50
p389
sg83
(lp390
(VMICKELSON
VS M
tp391
asg22
I2005
sg49
V137
p392
sbag1
(g2
g3
NtRp393
(dp394
g55
Nsg51
VTHESIS PENNSYLVANIA
p395
sg53
Nsg83
(lp396
(VMIGUEL
VM A
tp397
asg22
I2011
sg49
Nsbag1
(g2
g3
NtRp398
(dp399
g55
V10.1093/jexbot/52.355.329
p400
sg51
VJ EXP BOT
p401
sg53
V52
p402
sg83
(lp403
(VNIELSEN
VK L
tp404
asg22
I2001
sg49
V329
p405
sbag1
(g2
g3
NtRp406
(dp407
g55
V10.1111/j.1574-6941.2006.00151.x
p408
sg51
VFEMS MICROBIOL ECOL
p409
sg53
V58
p410
sg83
(lp411
(VPICARD
VC
tp412
asg22
I2006
sg49
V193
p413
sbag1
(g2
g3
NtRp414
(dp415
g55
Nsg51
VMAYDICA
p416
sg53
V52
p417
sg83
(lp418
(VPLETSCH-RIVERA
VL A
tp419
asg22
I2007
sg49
V151
p420
sbag1
(g2
g3
NtRp421
(dp422
g55
Nsg51
VANN BOT
p423
sg53
V107
p424
sg83
(lp425
(VPOSTMA
VJ A
tp426
asg22
I2010
sg49
V829
p427
sbag1
(g2
g3
NtRp428
(dp429
g55
Nsg51
VADV AGR SYSTEMS MODE
p430
sg53
Nsg83
(lp431
(VPOSTMA
VJ A
tp432
asg22
I2008
sg49
V251
p433
sbag1
(g2
g3
NtRp434
(dp435
g55
V10.1063/1.1745010
p436
sg51
VPHYSICS
p437
sg53
V1
sg83
(lp438
(VRICHARDS
VL A
tp439
asg22
I1931
sg49
VHYSICS
p440
sbag1
(g2
g3
NtRp441
(dp442
g55
V10.1016/S0022-5193(05)80130-4
p443
sg51
VJ THEOR BIOL
p444
sg53
V145
p445
sg83
(lp446
(VROBINSON
VD
tp447
asg22
I1990
sg49
V257
p448
sbag1
(g2
g3
NtRp449
(dp450
g55
V10.3732/ajb.90.1.143
p451
sg51
VAM J BOT
p452
sg53
V90
p453
sg83
(lp454
(VRUBIO
VG
tp455
asg22
I2003
sg49
V143
p456
sbag1
(g2
g3
NtRp457
(dp458
g55
V10.1016/j.tplants.2008.04.003
p459
sg51
VTRENDS PLANT SCI
p460
sg53
V13
p461
sg83
(lp462
(VSCHACHTMAN
VD P
tp463
asg22
I2008
sg49
V281
p464
sbag1
(g2
g3
NtRp465
(dp466
g55
V10.1007/BF00012011
p467
sg51
VPlant and Soil
p468
sg53
V146
p469
sg83
(lp470
(VSILVA
VALVARO ELEUTERIO D A
tp471
asg22
I1992
sg49
Vlant
p472
sbag1
(g2
g3
NtRp473
(dp474
g55
Nsg51
VCROP SCI
p475
sg53
V29
p476
sg83
(lp477
(VSINCLAIR
VT R
tp478
asg22
I1989
sg49
V90
p479
sbag1
(g2
g3
NtRp480
(dp481
g55
V10.1023/A:1004378602378
p482
sg51
VPLANT SOIL
p483
sg53
V202
p484
sg83
(lp485
(VSOMMA
VF
tp486
asg22
I1998
sg49
VLANT
p487
sbag1
(g2
g3
NtRp488
(dp489
g55
V10.1007/BF00011268
p490
sg51
VPLANT SOIL
p491
sg53
V123
p492
sg83
(lp493
(VSPITTERS
VC J T
tp494
asg22
I1990
sg49
VLANT
p495
sbag1
(g2
g3
NtRp496
(dp497
g55
V10.1093/jxb/31.2.371
p498
sg51
VJ EXP BOT
p499
sg53
V31
p500
sg83
(lp501
(VSTAMP
VP
tp502
asg22
I1980
sg49
V371
p503
sbag1
(g2
g3
NtRp504
(dp505
g55
V10.1104/pp.51.4.783
p506
sg51
VPLANT PHYSIOL
p507
sg53
V51
p508
sg83
(lp509
(VTERRY
VN
tp510
asg22
I1973
sg49
VLANT
p511
sbag1
(g2
g3
NtRp512
(dp513
g55
V10.1093/aob/mci272
p514
sg51
VANN BOT
p515
sg53
V96
p516
sg83
(lp517
(VTHOMAS
VA L
tp518
asg22
I2005
sg49
V1191
p519
sbag1
(g2
g3
NtRp520
(dp521
g55
Nsg51
VPLANT SOIL
p522
sg53
V341
p523
sg83
(lp524
(VTRACHSEL
VS
tp525
asg22
I2010
sg49
VLANT
p526
sbag1
(g2
g3
NtRp527
(dp528
g55
Nsg51
VCROP SCI
p529
sg53
V35
p530
sg83
(lp531
(VUHART
VS A
tp532
asg22
I1995
sg49
V1376
p533
sbag1
(g2
g3
NtRp534
(dp535
g55
V10.1093/jxb/erp345
p536
sg51
VJ EXP BOT
p537
sg53
V61
p538
sg83
(lp539
(VVOS
VJ
tp540
asg22
I2010
sg49
V2101
p541
sbag1
(g2
g3
NtRp542
(dp543
g55
V10.1007/s11104-005-0389-6
p544
sg51
VPLANT SOIL
p545
sg53
V279
p546
sg83
(lp547
(VWALK
VT C
tp548
asg22
I2006
sg49
VLANT
p549
sbag1
(g2
g3
NtRp550
(dp551
g55
V10.1046/j.1365-2389.2000.00319.x
p552
sg51
VEUR J SOIL SCI
p553
sg53
V51
p554
sg83
(lp555
(VYANG
VH S
tp556
asg22
I2000
sg49
V517
p557
sbag1
(g2
g3
NtRp558
(dp559
g55
V10.1023/A:1012404204910
p560
sg51
VPHOTOSYNTHETICA
p561
sg53
V39
p562
sg83
(lp563
(VZHAO
VD L
tp564
asg22
I2001
sg49
VHOTOSYNTHETICA
p565
sbag1
(g2
g3
NtRp566
(dp567
g55
V10.1111/j.1365-3040.2009.02099.x
p568
sg51
VPLANT CELL ENVIRON
p569
sg53
V33
p570
sg83
(lp571
(VZHU
VJ M
tp572
asg22
I2010
sg49
VLANT
p573
sbag1
(g2
g3
NtRp574
(dp575
g55
V10.1071/FP05005
p576
sg51
VFUNCT PLANT BIOL
p577
sg53
V32
p578
sg83
(lp579
(VZHU
VJ M
tp580
asg22
I2005
sg49
V749
p581
sbasb.