ccopy_reg
_reconstructor
p1
(ctethne.classes.paper
Paper
p2
c__builtin__
object
p3
NtRp4
(dp5
S'publisherCity'
p6
VROCKVILLE
p7
sS'reprintAddress'
p8
VWeber, N (reprint author), Pioneer HiBred Int Inc, Wilmington, DE 19880 USA.
p9
sS'WC'
p10
VPlant Sciences
p11
sS'GA'
p12
V049QJ
p13
sS'pageEnd'
p14
I1853
sS'publisherAddress'
p15
V15501 MONONA DRIVE, ROCKVILLE, MD 20855 USA
p16
sS'documentType'
p17
VArticle
p18
sS'subject'
p19
VPlant Sciences
p20
sS'isoSource'
p21
VPlant Physiol.
p22
sS'timesCited'
p23
(lp24
I1
aVZ9 1
p25
asS'PT'
p26
VJ
sS'title'
p27
VEditor'S Choice: Crop Genome Plasticity And Its Relevance To Food And Feed Safety Of Genetically Engineered Breeding Stacks
p28
sS'ISSN'
p29
(lp30
V0032-0889
p31
aVJ9 PLANT PHYSIOL
p32
asS'authors_full'
p33
(lp34
(VWEBER
VNATALIE
tp35
a(VHALPIN
VCLAIRE
tp36
a(VHANNAH
VL CURTIS
tp37
a(VJEZ
VJOSEPH M
tp38
a(VKOUGH
VJOHN
tp39
a(VPARROTT
VWAYNE
tp40
asS'PG'
p41
I12
sS'PD'
p42
VDEC
p43
sS'pageStart'
p44
I1842
sS'issue'
p45
I4
sS'journal'
p46
VPLANT PHYSIOLOGY
p47
sS'volume'
p48
V160
p49
sS'doi'
p50
V10.1104/pp.112.204271
p51
sS'authorAddress'
p52
(lp53
V[Weber, Natalie] Pioneer HiBred Int Inc, Wilmington, DE 19880 USA.
p54
aV[Halpin, Claire] Univ Dundee, Div Plant Sci, James Hutton Inst, Dundee DD2 5DA, Scotland.
p55
aV[Hannah, L. Curtis] Univ Florida, Dept Hort Sci, Gainesville, FL 32611 USA.
p56
aV[Jez, Joseph M.] Washington Univ, Dept Biol, St Louis, MO 63130 USA.
p57
aV[Kough, John] US EPA, Washington, DC 20460 USA.
p58
aV[Parrott, Wayne] Univ Georgia, Ctr Appl Genet Technol, Athens, GA 30602 USA.
p59
asS'date'
p60
I2012
sS'ER'
p61
V
sS'publisher'
p62
VAMER SOC PLANT BIOLOGISTS
p63
sS'authorKeywords'
p64
(lp65
VSINGLE-NUCLEOTIDE POLYMORPHISMS
p66
aVSTRAND BREAK REPAIR
p67
aVTRANSPOSABLE ELEMENTS
p68
aVGENE DUPLICATION
p69
aVTISSUE-CULTURE
p70
aVPLANT GENOMES
p71
aVGLYCINE-MAX
p72
aVARABIDOPSIS-THALIANA
p73
aVMICROSATELLITE LOCI
p74
aVDIRECTED EVOLUTION
p75
asS'language'
p76
VEnglish
p77
sS'wosid'
p78
VWOS:000311998200015
p79
sS'citationCount'
p80
I146
sS'authors_init'
p81
(lp82
(VWEBER
VN
tp83
a(VHALPIN
VC
tp84
a(VHANNAH
VL C
tp85
a(VJEZ
VJ M
tp86
a(VKOUGH
VJ
tp87
a(VPARROTT
VW
tp88
asS'citedReferences'
p89
(lp90
g1
(g2
g3
NtRp91
(dp92
g50
Nsg46
VPRINCIPLES PLANT GEN
p93
sg48
Nsg81
(lp94
(VACQUAAH
VG
tp95
asg60
I2007
sg44
VRINCIPLES
p96
sbag1
(g2
g3
NtRp97
(dp98
g50
V10.1023/B:EUPH.0000014914.85465.4f
p99
sg46
VEUPHYTICA
p100
sg48
V135
p101
sg81
(lp102
(VAHLOOWALIA
VB S
tp103
asg60
I2004
sg44
V187
p104
sbag1
(g2
g3
NtRp105
(dp106
g50
V10.1073/pnas.34.8.387
p107
sg46
VP NATL ACAD SCI USA
p108
sg48
V34
p109
sg81
(lp110
(VANDERSON
VE G
tp111
asg60
I1948
sg44
V387
p112
sbag1
(g2
g3
NtRp113
(dp114
g50
Nsg46
VENCY AM
p115
sg48
V25
p116
sg81
(lp117
(V[ANONYMOUS]
S''
tp118
asg60
I1920
sg44
V443
p119
sbag1
(g2
g3
NtRp120
(dp121
g50
V10.1038/ng.736
p122
sg46
VNAT GENET
p123
sg48
V43
p124
sg81
(lp125
(VARGOUT
VX
tp126
asg60
I2011
sg44
V101
p127
sbag1
(g2
g3
NtRp128
(dp129
g50
Nsg46
VFASEB J
p130
sg48
V7
sg81
(lp131
(VARNOLD
VF H
tp132
asg60
I1993
sg44
V744
p133
sbag1
(g2
g3
NtRp134
(dp135
g50
V10.1016/j.plantsci.2008.12.015
p136
sg46
VPLANT SCI
p137
sg48
V176
p138
sg81
(lp139
(VAZUMA
VA
tp140
asg60
I2009
sg44
VLANT
p141
sbag1
(g2
g3
NtRp142
(dp143
g50
V10.1534/genetics.111.136176
p144
sg46
VGENETICS
p145
sg48
V190
p146
sg81
(lp147
(VBARBAGLIA
VA M
tp148
asg60
I2012
sg44
V965
p149
sbag1
(g2
g3
NtRp150
(dp151
g50
V10.1139/G06-109
p152
sg46
VGENOME
p153
sg48
V49
p154
sg81
(lp155
(VBARRET
VP
tp156
asg60
I2006
sg44
V1399
p157
sbag1
(g2
g3
NtRp158
(dp159
g50
V10.1016/j.jaci.2004.01.079
p160
sg46
VJ ALLERGY CLIN IMMUN
p161
sg48
V113
p162
sg81
(lp163
(VBREITENEDER
VH
tp164
asg60
I2004
sg44
V821
p165
sbag1
(g2
g3
NtRp166
(dp167
g50
V10.1086/403016
p168
sg46
VQ REV BIOL
p169
sg48
V35
p170
sg81
(lp171
(VBRINK
VR A
tp172
asg60
I1960
sg44
V120
p173
sbag1
(g2
g3
NtRp174
(dp175
g50
Nsg46
VDISCUSSIONS CYTOGENE
p176
sg48
Nsg81
(lp177
(VBURNHAM
VC R
tp178
asg60
I1962
sg44
Nsbag1
(g2
g3
NtRp179
(dp180
g50
V10.1016/j.fct.2004.02.003
p181
sg46
VFOOD CHEM TOXICOL
p182
sg48
V42
p183
sg81
(lp184
(VCELLINI
VF
tp185
asg60
I2004
sg44
V1089
p186
sbag1
(g2
g3
NtRp187
(dp188
g50
V10.1105/tpc.9.8.1289
p189
sg46
VPLANT CELL
p190
sg48
V9
sg81
(lp191
(VCHEN
VJ J
tp192
asg60
I1997
sg44
VLANT
p193
sbag1
(g2
g3
NtRp194
(dp195
g50
V10.1105/tpc.108.060376
p196
sg46
VPLANT CELL
p197
sg48
V21
p198
sg81
(lp199
(VCHEUNG
VF
tp200
asg60
I2009
sg44
VLANT
p201
sbag1
(g2
g3
NtRp202
(dp203
g50
Nsg46
VIN VITRO CELL DEV
p204
sg48
V37
p205
sg81
(lp206
(VCHOFFNES
VD S
tp207
asg60
I2001
sg44
V756
p208
sbag1
(g2
g3
NtRp209
(dp210
g50
V10.1042/BJ20090122
p211
sg46
VBIOCHEM J
p212
sg48
V419
p213
sg81
(lp214
(VCHOTHIA
VC
tp215
asg60
I2009
sg44
V15
p216
sbag1
(g2
g3
NtRp217
(dp218
g50
V10.1111/j.1365-313X.2005.02492.x
p219
sg46
VPLANT J
p220
sg48
V43
p221
sg81
(lp222
(VCIGAN
VA M
tp223
asg60
I2005
sg44
VLANT
p224
sbag1
(g2
g3
NtRp225
(dp226
g50
V10.1111/j.1365-313X.2007.03394.x
p227
sg46
VPLANT J
p228
sg48
V53
p229
sg81
(lp230
(VCOHEN
VS
tp231
asg60
I2008
sg44
VLANT
p232
sbag1
(g2
g3
NtRp233
(dp234
g50
V10.1016/S1383-5742(99)00020-4
p235
sg46
VMUTAT RES
p236
sg48
V443
p237
sg81
(lp238
(VCONNER
VA J
tp239
asg60
I1999
sg44
V223
p240
sbag1
(g2
g3
NtRp241
(dp242
g50
Nsg46
VPROTEINS
p243
sg48
Nsg81
(lp244
(VCREIGHTON
VT E
tp245
asg60
I1992
sg44
VROTEINS
p246
sbag1
(g2
g3
NtRp247
(dp248
g50
V10.1093/aob/mci013
p249
sg46
VANN BOT
p250
sg48
V95
p251
sg81
(lp252
(VCULLIS
VC A
tp253
asg60
I2005
sg44
V201
p254
sbag1
(g2
g3
NtRp255
(dp256
g50
V10.1104/pp.110.157420
p257
sg46
VPLANT PHYSIOL
p258
sg48
V153
p259
sg81
(lp260
(VELROUBY
VN
tp261
asg60
I2010
sg44
VLANT
p262
sbag1
(g2
g3
NtRp263
(dp264
g50
Nsg46
VCAN J GENET CYTOL
p265
sg48
V18
p266
sg81
(lp267
(VEVANS
VD A
tp268
asg60
I1976
sg44
V57
p269
sbag1
(g2
g3
NtRp270
(dp271
g50
V10.1038/nrg2337
p272
sg46
VNAT REV GENET
p273
sg48
V9
sg81
(lp274
(VFESCHOTTE
VC
tp275
asg60
I2008
sg44
V397
p276
sbag1
(g2
g3
NtRp277
(dp278
g50
V10.1038/nrg793
p279
sg46
VNAT REV GENET
p280
sg48
V3
sg81
(lp281
(VFESCHOTTE
VC
tp282
asg60
I2002
sg44
V329
p283
sbag1
(g2
g3
NtRp284
(dp285
g50
Nsg46
VGENETIC FLUX PLANTS
p286
sg48
Nsg81
(lp287
(VFLAVELL
VR B
tp288
asg60
I1985
sg44
V139
p289
sbag1
(g2
g3
NtRp290
(dp291
g50
Nsg46
VEV ALL GEN MOD FOODS
p292
sg48
Nsg81
(lp293
(VFOOD AND AGRICULTURE ORGANIZATION OF THE UNITED NATIONSWORLD HEALTH ORGANIZATION
S''
tp294
asg60
I2001
sg44
Nsbag1
(g2
g3
NtRp295
(dp296
g50
V10.1038/nrg1970
p297
sg46
VNAT REV GENET
p298
sg48
V8
sg81
(lp299
(VGAUT
VB S
tp300
asg60
I2007
sg44
V77
p301
sbag1
(g2
g3
NtRp302
(dp303
g50
V10.1146/annurev.biochem.70.1.209
p304
sg46
VANNU REV BIOCHEM
p305
sg48
V70
p306
sg81
(lp307
(VGERLT
VJ A
tp308
asg60
I2001
sg44
V209
p309
sbag1
(g2
g3
NtRp310
(dp311
g50
V10.1016/j.cbpa.2009.01.014
p312
sg46
VCURR OPIN CHEM BIOL
p313
sg48
V13
p314
sg81
(lp315
(VGERLT
VJ A
tp316
asg60
I2009
sg44
V10
p317
sbag1
(g2
g3
NtRp318
(dp319
g50
V10.1038/nrg1614
p320
sg46
VNAT REV GENET
p321
sg48
V6
sg81
(lp322
(VGERTON
VJ L
tp323
asg60
I2005
sg44
V477
p324
sbag1
(g2
g3
NtRp325
(dp326
g50
V10.1073/pnas.91.25.12150
p327
sg46
VP NATL ACAD SCI USA
p328
sg48
V91
p329
sg81
(lp330
(VGIROUX
VM J
tp331
asg60
I1994
sg44
V12150
p332
sbag1
(g2
g3
NtRp333
(dp334
g50
V10.1073/pnas.93.12.5824
p335
sg46
VP NATL ACAD SCI USA
p336
sg48
V93
p337
sg81
(lp338
(VGIROUX
VM J
tp339
asg60
I1996
sg44
V5824
p340
sbag1
(g2
g3
NtRp341
(dp342
g50
V10.1093/nar/25.22.4650
p343
sg46
VNUCLEIC ACIDS RES
p344
sg48
V25
p345
sg81
(lp346
(VGORBUNOVA
VV
tp347
asg60
I1997
sg44
V4650
p348
sbag1
(g2
g3
NtRp349
(dp350
g50
V10.1016/S1360-1385(99)01430-2
p351
sg46
VTRENDS PLANT SCI
p352
sg48
V4
sg81
(lp353
(VGORBUNOVA
VV
tp354
asg60
I1999
sg44
V263
p355
sbag1
(g2
g3
NtRp356
(dp357
g50
V10.1007/s00606-010-0373-3
p358
sg46
VPLANT SYST EVOL
p359
sg48
V291
p360
sg81
(lp361
(VGOWDA
VM V C
tp362
asg60
I2011
sg44
VLANT
p363
sbag1
(g2
g3
NtRp364
(dp365
g50
V10.1007/s11103-004-6636-z
p366
sg46
VPLANT MOL BIOL
p367
sg48
V57
p368
sg81
(lp369
(VGUPTA
VS
tp370
asg60
I2005
sg44
VLANT
p371
sbag1
(g2
g3
NtRp372
(dp373
g50
Nsg46
VGENETICS
p374
sg48
V149
p375
sg81
(lp376
(VGUTIERREZ-NAVA
VM D
tp377
asg60
I1998
sg44
V329
p378
sbag1
(g2
g3
NtRp379
(dp380
g50
V10.1007/s10681-007-9363-0
p381
sg46
VEUPHYTICA
p382
sg48
V156
p383
sg81
(lp384
(VHAJJAR
VR
tp385
asg60
I2007
sg44
V1
sbag1
(g2
g3
NtRp386
(dp387
g50
V10.1371/journal.pbio.0050275
p388
sg46
VPLoS Biol
p389
sg48
V5
sg81
(lp390
(VHALE
VCHRISTOPHER J
tp391
asg60
I2007
sg44
VLoS
p392
sbag1
(g2
g3
NtRp393
(dp394
g50
V10.1146/annurev.arplant.57.032905.105255
p395
sg46
VANNU REV PLANT BIOL
p396
sg48
V57
p397
sg81
(lp398
(VHAMANT
VO
tp399
asg60
I2006
sg44
V267
p400
sbag1
(g2
g3
NtRp401
(dp402
g50
V10.1105/tpc.108.063206
p403
sg46
VPLANT CELL
p404
sg48
V21
p405
sg81
(lp406
(VHANADA
VK
tp407
asg60
I2009
sg44
VLANT
p408
sbag1
(g2
g3
NtRp409
(dp410
g50
Nsg46
VCROP SCI
p411
sg48
V45
p412
sg81
(lp413
(VHECK
VG R
tp414
asg60
I2005
sg44
V329
p415
sbag1
(g2
g3
NtRp416
(dp417
g50
V10.1073/pnas.93.15.7783
p418
sg46
VP NATL ACAD SCI USA
p419
sg48
V93
p420
sg81
(lp421
(VHIROCHIKA
VH
tp422
asg60
I1996
sg44
V7783
p423
sbag1
(g2
g3
NtRp424
(dp425
g50
V10.1080/089106000750051864
p426
sg46
VMicrobial Ecology in Health and Disease
p427
sg48
V12
p428
sg81
(lp429
(VHO
VMAEWAN
tp430
asg60
I2000
sg44
V189
p431
sbag1
(g2
g3
NtRp432
(dp433
g50
Nsg46
VANN REP 1980
p434
sg48
Nsg81
(lp435
(VINTERNATIONAL
VRICE RESEARCH INSTITUTE
tp436
asg60
I1981
sg44
Nsbag1
(g2
g3
NtRp437
(dp438
g50
Nsg46
VAGRON J
p439
sg48
V57
p440
sg81
(lp441
(VJENSEN
VN F
tp442
asg60
I1965
sg44
V153
p443
sbag1
(g2
g3
NtRp444
(dp445
g50
Nsg46
VBIOCHEM J
p446
sg48
V326
p447
sg81
(lp448
(VJEZ
VJ M
tp449
asg60
I1997
sg44
V625
p450
sbag1
(g2
g3
NtRp451
(dp452
g50
V10.1038/nature02953
p453
sg46
VNATURE
p454
sg48
V431
p455
sg81
(lp456
(VJIANG
VN
tp457
asg60
I2004
sg44
V569
p458
sbag1
(g2
g3
NtRp459
(dp460
g50
V10.1038/nature01214
p461
sg46
VNATURE
p462
sg48
V421
p463
sg81
(lp464
(VJIANG
VN
tp465
asg60
I2003
sg44
V163
p466
sbag1
(g2
g3
NtRp467
(dp468
g50
Nsg46
VANNU REV PHYTOPATHOL
p469
sg48
V33
p470
sg81
(lp471
(VJONES
VS S
tp472
asg60
I1995
sg44
V429
p473
sbag1
(g2
g3
NtRp474
(dp475
g50
Nsg46
VBIOCHEMISTRY
p476
sg48
V34
p477
sg81
(lp478
(VJORNVALL
VH
tp479
asg60
I1995
sg44
V6003
p480
sbag1
(g2
g3
NtRp481
(dp482
g50
V10.1126/science.1615315
p483
sg46
VSCIENCE
p484
sg48
V256
p485
sg81
(lp486
(VKESSLER
VD A
tp487
asg60
I1992
sg44
V1747
p488
sbag1
(g2
g3
NtRp489
(dp490
g50
V10.1016/j.cbpa.2006.08.011
p491
sg46
VCURR OPIN CHEM BIOL
p492
sg48
V10
p493
sg81
(lp494
(VKHERSONSKY
VO
tp495
asg60
I2006
sg44
V498
p496
sbag1
(g2
g3
NtRp497
(dp498
g50
V10.1093/emboj/19.20.5562
p499
sg46
VEMBO J
p500
sg48
V19
p501
sg81
(lp502
(VKIRIK
VA
tp503
asg60
I2000
sg44
V5562
p504
sbag1
(g2
g3
NtRp505
(dp506
g50
V10.1046/j.1365-313X.1999.00399.x
p507
sg46
VPLANT J
p508
sg48
V17
p509
sg81
(lp510
(VKOHLI
VA
tp511
asg60
I1999
sg44
VLANT
p512
sbag1
(g2
g3
NtRp513
(dp514
g50
V10.1038/nbt0608-653
p515
sg46
VNAT BIOTECHNOL
p516
sg48
V26
p517
sg81
(lp518
(VKOHLI
VA
tp519
asg60
I2008
sg44
V653
p520
sbag1
(g2
g3
NtRp521
(dp522
g50
V10.1105/tpc.104.025502
p523
sg46
VPLANT CELL
p524
sg48
V16
p525
sg81
(lp526
(VKUANG
VH
tp527
asg60
I2004
sg44
VLANT
p528
sbag1
(g2
g3
NtRp529
(dp530
g50
V10.1080/152165499306874
p531
sg46
VIUBMB LIFE
p532
sg48
V48
p533
sg81
(lp534
(VKUMPATLA
VS P
tp535
asg60
I1999
sg44
V459
p536
sbag1
(g2
g3
NtRp537
(dp538
g50
V10.1105/tpc.011452
p539
sg46
VPLANT CELL
p540
sg48
V15
p541
sg81
(lp542
(VKUSABA
VM
tp543
asg60
I2003
sg44
VLANT
p544
sbag1
(g2
g3
NtRp545
(dp546
g50
V10.1016/j.plantsci.2008.11.004
p547
sg46
VPLANT SCI
p548
sg48
V176
p549
sg81
(lp550
(VLAL
VS
tp551
asg60
I2009
sg44
VLANT
p552
sbag1
(g2
g3
NtRp553
(dp554
g50
V10.1105/tpc.008375
p555
sg46
VPLANT CELL
p556
sg48
V15
p557
sg81
(lp558
(VLAL
VS K
tp559
asg60
I2003
sg44
VLANT
p560
sbag1
(g2
g3
NtRp561
(dp562
g50
V10.1007/s11103-010-9696-2
p563
sg46
VPLANT MOL BIOL
p564
sg48
V74
p565
sg81
(lp566
(VLA
VP A Z J L
tp567
asg60
I2010
sg44
VLANT
p568
sbag1
(g2
g3
NtRp569
(dp570
g50
V10.1155/JBB/2006/25376
p571
sg46
VJ BIOMED BIOTECHNOL
p572
sg48
Nsg81
(lp573
(VLATHAM
VJ R
tp574
asg60
I2006
sg44
Nsbag1
(g2
g3
NtRp575
(dp576
g50
V10.2174/138920210790217918
p577
sg46
VCURR GENOMICS
p578
sg48
V11
p579
sg81
(lp580
(VLELANDAIS-BRIERE
VC
tp581
asg60
I2010
sg44
V14
p582
sbag1
(g2
g3
NtRp583
(dp584
g50
V10.1093/jxb/erj203
p585
sg46
VJ EXP BOT
p586
sg48
V57
p587
sg81
(lp588
(VLIN
VX Y
tp589
asg60
I2006
sg44
V2313
p590
sbag1
(g2
g3
NtRp591
(dp592
g50
V10.1139/gen-43-5-874
p593
sg46
VGENOME
p594
sg48
V43
p595
sg81
(lp596
(VLIU
VB
tp597
asg60
I2000
sg44
V874
p598
sbag1
(g2
g3
NtRp599
(dp600
g50
Nsg46
VEMBO J
p601
sg48
V8
sg81
(lp602
(VMATZKE
VM A
tp603
asg60
I1989
sg44
V643
p604
sbag1
(g2
g3
NtRp605
(dp606
g50
V10.1126/science.15739260
p607
sg46
VSCIENCE
p608
sg48
V226
p609
sg81
(lp610
(VMCCLINTOCK
VB
tp611
asg60
I1984
sg44
V792
p612
sbag1
(g2
g3
NtRp613
(dp614
g50
Nsg46
VCARNEGIE I WASH
p615
sg48
V47
p616
sg81
(lp617
(VMCCLINTOCK
VB
tp618
asg60
I1948
sg44
V155
p619
sbag1
(g2
g3
NtRp620
(dp621
g50
V10.1073/pnas.36.6.344
p622
sg46
VP NATL ACAD SCI USA
p623
sg48
V36
p624
sg81
(lp625
(VMCCLINTOCK
VB
tp626
asg60
I1950
sg44
V344
p627
sbag1
(g2
g3
NtRp628
(dp629
g50
Nsg46
VCOST TIME INVOLVED D
p630
sg48
Nsg81
(lp631
(VMCDOUGALL
VP
tp632
asg60
I2011
sg44
Nsbag1
(g2
g3
NtRp633
(dp634
g50
V10.1080/10408690490489224
p635
sg46
VCRIT REV FOOD SCI
p636
sg48
V44
p637
sg81
(lp638
(VMILLS
VE N C
tp639
asg60
I2004
sg44
V379
p640
sbag1
(g2
g3
NtRp641
(dp642
g50
V10.1016/j.pbi.2004.12.001
p643
sg46
VCURR OPIN PLANT BIOL
p644
sg48
V8
sg81
(lp645
(VMOORE
VR C
tp646
asg60
I2005
sg44
V122
p647
sbag1
(g2
g3
NtRp648
(dp649
g50
V10.1038/ng1615
p650
sg46
VNAT GENET
p651
sg48
V37
p652
sg81
(lp653
(VMORGANTE
VM
tp654
asg60
I2005
sg44
V997
p655
sbag1
(g2
g3
NtRp656
(dp657
g50
V10.1016/j.pbi.2007.02.001
p658
sg46
VCURR OPIN PLANT BIOL
p659
sg48
V10
p660
sg81
(lp661
(VMORGANTE
VM
tp662
asg60
I2007
sg44
V149
p663
sbag1
(g2
g3
NtRp664
(dp665
g50
V10.1266/ggs.82.321
p666
sg46
VGENES GENET SYST
p667
sg48
V82
p668
sg81
(lp669
(VMORITA
VR
tp670
asg60
I2007
sg44
V321
p671
sbag1
(g2
g3
NtRp672
(dp673
g50
Nsg46
VCROP SCI
p674
sg48
V41
p675
sg81
(lp676
(VMUMM
VR H
tp677
asg60
I2001
sg44
V1381
p678
sbag1
(g2
g3
NtRp679
(dp680
g50
V10.1073/pnas.0605421103
p681
sg46
VP NATL ACAD SCI USA
p682
sg48
V103
p683
sg81
(lp684
(VNAITO
VK
tp685
asg60
I2006
sg44
V17620
p686
sbag1
(g2
g3
NtRp687
(dp688
g50
V10.1038/nature01219
p689
sg46
VNATURE
p690
sg48
V421
p691
sg81
(lp692
(VNAKAZAKI
VT
tp693
asg60
I2003
sg44
V170
p694
sbag1
(g2
g3
NtRp695
(dp696
g50
V10.1186/1471-2229-8-90
p697
sg46
VBMC PLANT BIOL
p698
sg48
V8
sg81
(lp699
(VNAVRATILOVA
VA
tp700
asg60
I2008
sg44
Nsbag1
(g2
g3
NtRp701
(dp702
g50
V10.1079/9780851999043.0287
p703
sg46
VPlant diversity and evolution
p704
sg48
Nsg81
(lp705
(VNEVO
VE
tp706
asg60
I2005
sg44
Vlant
p707
sbag1
(g2
g3
NtRp708
(dp709
g50
V10.1007/s00438-005-0053-0
p710
sg46
VMOL GENET GENOMICS
p711
sg48
V274
p712
sg81
(lp713
(VOHTSU
VK
tp714
asg60
I2005
sg44
V606
p715
sbag1
(g2
g3
NtRp716
(dp717
g50
V10.1126/science.1180677
p718
sg46
VSCIENCE
p719
sg48
V327
p720
sg81
(lp721
(VOSSOWSKI
VS
tp722
asg60
I2010
sg44
V92
p723
sbag1
(g2
g3
NtRp724
(dp725
g50
Nsg46
VCROP SCI
p726
sg48
V35
p727
sg81
(lp728
(VPADGETTE
VS R
tp729
asg60
I1995
sg44
V1451
p730
sbag1
(g2
g3
NtRp731
(dp732
g50
V10.1105/tpc.012526
p733
sg46
VPLANT CELL
p734
sg48
V15
p735
sg81
(lp736
(VPALAISA
VK A
tp737
asg60
I2003
sg44
VLANT
p738
sbag1
(g2
g3
NtRp739
(dp740
g50
V10.1007/s00299-007-0495-4
p741
sg46
VPLANT CELL REP
p742
sg48
V27
p743
sg81
(lp744
(VPAPAZOVA
VN
tp745
asg60
I2008
sg44
VLANT
p746
sbag1
(g2
g3
NtRp747
(dp748
g50
V10.1007/s00299-006-0192-8
p749
sg46
VPLANT CELL REP
p750
sg48
V25
p751
sg81
(lp752
(VPAPAZOVA
VN
tp753
asg60
I2006
sg44
VLANT
p754
sbag1
(g2
g3
NtRp755
(dp756
g50
V10.1016/j.fct.2010.04.017
p757
sg46
VFOOD CHEM TOXICOL
p758
sg48
V48
p759
sg81
(lp760
(VPARROTT
VW
tp761
asg60
I2010
sg44
V1773
p762
sbag1
(g2
g3
NtRp763
(dp764
g50
V10.1016/S0959-440X(94)90108-2
p765
sg46
VCURR OPIN STRUC BIOL
p766
sg48
V4
sg81
(lp767
(VPATTHY
VL
tp768
asg60
I1994
sg44
V383
p769
sbag1
(g2
g3
NtRp770
(dp771
g50
V10.1021/cr000049n
p772
sg46
VCHEM REV
p773
sg48
V101
p774
sg81
(lp775
(VPENNING
VT M
tp776
asg60
I2001
sg44
V3027
p777
sbag1
(g2
g3
NtRp778
(dp779
g50
V10.1038/185416a0
p780
sg46
VNATURE
p781
sg48
V185
p782
sg81
(lp783
(VPERUTZ
VM F
tp784
asg60
I1960
sg44
V416
p785
sbag1
(g2
g3
NtRp786
(dp787
g50
V10.1126/science.238.4828.804
p788
sg46
VSCIENCE
p789
sg48
V238
p790
sg81
(lp791
(VPESCHKE
VV M
tp792
asg60
I1987
sg44
V804
p793
sbag1
(g2
g3
NtRp794
(dp795
g50
V10.1371/journal.pgen.0020164
p796
sg46
VPLOS GENET
p797
sg48
V2
sg81
(lp798
(VZHANG
VJ B
tp799
asg60
I2006
sg44
VLOS
p800
sbag1
(g2
g3
NtRp801
(dp802
g50
Nsg46
VGENETICS
p803
sg48
V152
p804
sg81
(lp805
(VPUCHTA
VH
tp806
asg60
I1999
sg44
V1173
p807
sbag1
(g2
g3
NtRp808
(dp809
g50
V10.1093/jxb/eri025
p810
sg46
VJ EXP BOT
p811
sg48
V56
p812
sg81
(lp813
(VPUCHTA
VH
tp814
asg60
I2005
sg44
V1
sbag1
(g2
g3
NtRp815
(dp816
g50
V10.1016/S1369-5266(02)00240-6
p817
sg46
VCURR OPIN PLANT BIOL
p818
sg48
V5
sg81
(lp819
(VRAFALSKI
VA
tp820
asg60
I2002
sg44
V94
p821
sbag1
(g2
g3
NtRp822
(dp823
g50
V10.1016/j.sbi.2008.05.007
p824
sg46
VCURR OPIN STRUC BIOL
p825
sg48
V18
p826
sg81
(lp827
(VREDFERN
VO C
tp828
asg60
I2008
sg44
V394
p829
sbag1
(g2
g3
NtRp830
(dp831
g50
V10.1104/pp.110.167577
p832
sg46
VPLANT PHYSIOL
p833
sg48
V156
p834
sg81
(lp835
(VRODRIGUEZ
VG R
tp836
asg60
I2011
sg44
VLANT
p837
sbag1
(g2
g3
NtRp838
(dp839
g50
V10.1016/j.sbi.2005.01.001
p840
sg46
VCURR OPIN STRUC BIOL
p841
sg48
V15
p842
sg81
(lp843
(VROODVELDT
VC
tp844
asg60
I2005
sg44
V50
p845
sbag1
(g2
g3
NtRp846
(dp847
g50
V10.1038/250194a0
p848
sg46
VNATURE
p849
sg48
V250
p850
sg81
(lp851
(VROSSMANN
VM G
tp852
asg60
I1974
sg44
V194
p853
sbag1
(g2
g3
NtRp854
(dp855
g50
V10.1126/science.1178534
p856
sg46
VSCIENCE
p857
sg48
V326
p858
sg81
(lp859
(VSCHNABLE
VP S
tp860
asg60
I2009
sg44
V1112
p861
sbag1
(g2
g3
NtRp862
(dp863
g50
Nsg46
VGENETICS
p864
sg48
V146
p865
sg81
(lp866
(VSHALEV
VG
tp867
asg60
I1997
sg44
V1143
p868
sbag1
(g2
g3
NtRp869
(dp870
g50
Nsg46
VJ HERED
p871
sg48
V27
p872
sg81
(lp873
(VSHAMEL
VA D
tp874
asg60
I1936
sg44
V487
p875
sbag1
(g2
g3
NtRp876
(dp877
g50
V10.1101/gr.10.7.908
p878
sg46
VGENOME RES
p879
sg48
V10
p880
sg81
(lp881
(VSHIRASU
VK
tp882
asg60
I2000
sg44
V908
p883
sbag1
(g2
g3
NtRp884
(dp885
g50
Nsg46
VPLANT CYTOGENETICS
p886
sg48
Nsg81
(lp887
(VSINGH
VR J
tp888
asg60
I2003
sg44
VLANT
p889
sbag1
(g2
g3
NtRp890
(dp891
g50
Nsg46
VBREEDING FIELD CROPS
p892
sg48
Nsg81
(lp893
(VSLEPER
VD A
tp894
asg60
I2006
sg44
V73
p895
sbag1
(g2
g3
NtRp896
(dp897
g50
V10.3389/fpls.2012.00006
p898
sg46
VFront Plant Sci
p899
sg48
V3
sg81
(lp900
(VSMITH
VALAN M
tp901
asg60
I2012
sg44
V6
sbag1
(g2
g3
NtRp902
(dp903
g50
V10.1139/G03-027
p904
sg46
VGENOME
p905
sg48
V46
p906
sg81
(lp907
(VSOMERS
VD J
tp908
asg60
I2003
sg44
V431
p909
sbag1
(g2
g3
NtRp910
(dp911
g50
V10.1105/tpc.104.026963
p912
sg46
VPLANT CELL
p913
sg48
V17
p914
sg81
(lp915
(VSONNEVELD
VT
tp916
asg60
I2005
sg44
VLANT
p917
sbag1
(g2
g3
NtRp918
(dp919
g50
V10.1038/365274a0
p920
sg46
VNATURE
p921
sg48
V365
p922
sg81
(lp923
(VSTRAND
VM
tp924
asg60
I1993
sg44
V274
p925
sbag1
(g2
g3
NtRp926
(dp927
g50
Nsg46
VEMBO J
p928
sg48
V13
p929
sg81
(lp930
(VSWOBODA
VP
tp931
asg60
I1994
sg44
V484
p932
sbag1
(g2
g3
NtRp933
(dp934
g50
V10.1038/271618a0
p935
sg46
VNATURE
p936
sg48
V271
p937
sg81
(lp938
(VTANG
VJ
tp939
asg60
I1978
sg44
V618
p940
sbag1
(g2
g3
NtRp941
(dp942
g50
V10.1067/mai.2001.114241
p943
sg46
VJ ALLERGY CLIN IMMUN
p944
sg48
V107
p945
sg81
(lp946
(VTAYLOR
VS L
tp947
asg60
I2001
sg44
V765
p948
sbag1
(g2
g3
NtRp949
(dp950
g50
V10.1073/pnas.151244298
p951
sg46
VP NATL ACAD SCI USA
p952
sg48
V98
p953
sg81
(lp954
(VTENAILLON
VM I
tp955
asg60
I2001
sg44
V9161
p956
sbag1
(g2
g3
NtRp957
(dp958
g50
Nsg46
VMOL BIOL EVOL
p959
sg48
V19
p960
sg81
(lp961
(VTHUILLET
VA C
tp962
asg60
I2002
sg44
V122
p963
sbag1
(g2
g3
NtRp964
(dp965
g50
V10.1016/S1367-5931(99)00007-1
p966
sg46
VCURR OPIN CHEM BIOL
p967
sg48
V3
sg81
(lp968
(VTODD
VA E
tp969
asg60
I1999
sg44
V548
p970
sbag1
(g2
g3
NtRp971
(dp972
g50
V10.1016/j.cbpa.2009.01.017
p973
sg46
VCURR OPIN CHEM BIOL
p974
sg48
V13
p975
sg81
(lp976
(VTRACEWELL
VC A
tp977
asg60
I2009
sg44
V3
sbag1
(g2
g3
NtRp978
(dp979
g50
V10.1038/nchembio.203
p980
sg46
VNAT CHEM BIOL
p981
sg48
V5
sg81
(lp982
(VTURNER
VN J
tp983
asg60
I2009
sg44
V568
p984
sbag1
(g2
g3
NtRp985
(dp986
g50
V10.1105/tpc.021352
p987
sg46
VPLANT CELL
p988
sg48
V16
p989
sg81
(lp990
(VTUTEJA
VJ H
tp991
asg60
I2004
sg44
VLANT
p992
sbag1
(g2
g3
NtRp993
(dp994
g50
V10.1093/jhered/esi069
p995
sg46
VJ HERED
p996
sg48
V96
p997
sg81
(lp998
(VVAN
VK
tp999
asg60
I2005
sg44
V529
p1000
sbag1
(g2
g3
NtRp1001
(dp1002
g50
Nsg46
VMOL BIOL EVOL
p1003
sg48
V19
p1004
sg81
(lp1005
(VVIGOUROUX
VY
tp1006
asg60
I2002
sg44
V1251
p1007
sbag1
(g2
g3
NtRp1008
(dp1009
g50
V10.1104/pp.106.083865
p1010
sg46
VPLANT PHYSIOL
p1011
sg48
V142
p1012
sg81
(lp1013
(VVILANOVA
VS
tp1014
asg60
I2006
sg44
VLANT
p1015
sbag1
(g2
g3
NtRp1016
(dp1017
g50
Nsg46
VBODENKULTUR
p1018
sg48
V48
p1019
sg81
(lp1020
(VVOLLMANN
VJ
tp1021
asg60
I1997
sg44
V53
p1022
sbag1
(g2
g3
NtRp1023
(dp1024
g50
V10.1007/BF02897717
p1025
sg46
VBIOL PLANTARUM
p1026
sg48
V33
p1027
sg81
(lp1028
(VVYSKOT
VB
tp1029
asg60
I1991
sg44
V448
p1030
sbag1
(g2
g3
NtRp1031
(dp1032
g50
V10.1016/S1360-1385(96)80020-3
p1033
sg46
VTRENDS PLANT SCI
p1034
sg48
V1
sg81
(lp1035
(VWALBOT
VV
tp1036
asg60
I1996
sg44
V27
p1037
sbag1
(g2
g3
NtRp1038
(dp1039
g50
V10.1186/1471-2229-10-190
p1040
sg46
VBMC PLANT BIOL
p1041
sg48
V10
p1042
sg81
(lp1043
(VWANG
VN N
tp1044
asg60
I2010
sg44
Nsbag1
(g2
g3
NtRp1045
(dp1046
g50
V10.1105/tpc.106.041905
p1047
sg46
VPLANT CELL
p1048
sg48
V18
p1049
sg81
(lp1050
(VWANG
VW
tp1051
asg60
I2006
sg44
VLANT
p1052
sbag1
(g2
g3
NtRp1053
(dp1054
g50
V10.1073/pnas.87.22.8731
p1055
sg46
VP NATL ACAD SCI USA
p1056
sg48
V87
p1057
sg81
(lp1058
(VWESSLER
VS
tp1059
asg60
I1990
sg44
V8731
p1060
sbag1
(g2
g3
NtRp1061
(dp1062
g50
V10.1073/pnas.0607612103
p1063
sg46
VP NATL ACAD SCI USA
p1064
sg48
V103
p1065
sg81
(lp1066
(VWESSLER
VS R
tp1067
asg60
I2006
sg44
V17600
p1068
sbag1
(g2
g3
NtRp1069
(dp1070
g50
V10.1105/tpc.111.086629
p1071
sg46
VPLANT CELL
p1072
sg48
V23
p1073
sg81
(lp1074
(VWICKER
VT
tp1075
asg60
I2011
sg44
VLANT
p1076
sbag1
(g2
g3
NtRp1077
(dp1078
g50
V10.1101/gr.107284.110
p1079
sg46
VGENOME RES
p1080
sg48
V20
p1081
sg81
(lp1082
(VWICKER
VT
tp1083
asg60
I2010
sg44
V1229
p1084
sbag1
(g2
g3
NtRp1085
(dp1086
g50
V10.1146/annurev.bi.46.070177.003041
p1087
sg46
VANNU REV BIOCHEM
p1088
sg48
V46
p1089
sg81
(lp1090
(VWILSON
VA C
tp1091
asg60
I1977
sg44
V573
p1092
sbag1
(g2
g3
NtRp1093
(dp1094
g50
V10.1016/0168-9525(87)90257-5
p1095
sg46
VTRENDS GENET
p1096
sg48
V3
sg81
(lp1097
(VWILSON
VA C
tp1098
asg60
I1987
sg44
V241
p1099
sbag1
(g2
g3
NtRp1100
(dp1101
g50
Nsg46
VBiotechnol Genet Eng Rev
p1102
sg48
V23
p1103
sg81
(lp1104
(VWILSON
VALLISON K
tp1105
asg60
I2006
sg44
V209
p1106
sbag1
(g2
g3
NtRp1107
(dp1108
g50
V10.1663/0013-0001(2002)056[0049:WBCPOB]2.0.CO;2
p1109
sg46
VECON BOT
p1110
sg48
V56
p1111
sg81
(lp1112
(VWILSON
VW M
tp1113
asg60
I2002
sg44
V49
p1114
sbag1
(g2
g3
NtRp1115
(dp1116
g50
V10.1007/s00299-009-0704-4
p1117
sg46
VPLANT CELL REP
p1118
sg48
V28
p1119
sg81
(lp1120
(VWU
VR
tp1121
asg60
I2009
sg44
VLANT
p1122
sbag1
(g2
g3
NtRp1123
(dp1124
g50
V10.1126/science.1153040
p1125
sg46
VSCIENCE
p1126
sg48
V319
p1127
sg81
(lp1128
(VXIAO
VH
tp1129
asg60
I2008
sg44
V1527
p1130
sbag1
(g2
g3
NtRp1131
(dp1132
g50
V10.1534/genetics.105.052712
p1133
sg46
VGENETICS
p1134
sg48
V173
p1135
sg81
(lp1136
(VYANDEAU-NELSON
VM D
tp1137
asg60
I2006
sg44
V2211
p1138
sbag1
(g2
g3
NtRp1139
(dp1140
g50
V10.1007/BF00305828
p1141
sg46
VTHEOR APPL GENET
p1142
sg48
V77
p1143
sg81
(lp1144
(VYOUNG
VN D
tp1145
asg60
I1989
sg44
V353
p1146
sbag1
(g2
g3
NtRp1147
(dp1148
g50
V10.1105/tpc.105.033506
p1149
sg46
VPLANT CELL
p1150
sg48
V17
p1151
sg81
(lp1152
(VZABALA
VG
tp1153
asg60
I2005
sg44
VLANT
p1154
sbag1
(g2
g3
NtRp1155
(dp1156
g50
V10.1186/1471-2229-7-38
p1157
sg46
VBMC PLANT BIOL
p1158
sg48
V7
sg81
(lp1159
(VZABALA
VG
tp1160
asg60
I2007
sg44
Nsbag1
(g2
g3
NtRp1161
(dp1162
g50
V10.1093/mp/ssn022
p1163
sg46
VMOL PLANT
p1164
sg48
V1
sg81
(lp1165
(VZHANG
VH Y
tp1166
asg60
I2008
sg44
V720
p1167
sbag1
(g2
g3
NtRp1168
(dp1169
g50
Nsg46
VGENETICS
p1170
sg48
V153
p1171
sg81
(lp1172
(VZHANG
VJ
tp1173
asg60
I1999
sg44
V1403
p1174
sbag1
(g2
g3
NtRp1175
(dp1176
g50
V10.1111/j.1365-313X.2011.04679.x
p1177
sg46
VPLANT J
p1178
sg48
V68
p1179
sg81
(lp1180
(VZOU
VJ
tp1181
asg60
I2011
sg44
VLANT
p1182
sbasb.