ccopy_reg
_reconstructor
p1
(ctethne.classes.paper
Paper
p2
c__builtin__
object
p3
NtRp4
(dp5
S'publisherCity'
p6
VROCKVILLE
p7
sS'reprintAddress'
p8
VMoreau, P (reprint author), Univ Bordeaux 2, Lab Biogenese Membranaire, UMR 5544 CNRS, 146 Rue Leo Saignat, F-33076 Bordeaux, France.
p9
sS'WC'
p10
VPlant Sciences
p11
sS'GA'
p12
V196VR
p13
sS'abstract'
p14
VLeek (Allium porrum) plasma membrane is enriched in phosphatidylserine (PS) by the vesicular pathway, in a way similar to that already observed in animal cells (B. Sturbois-Balcerzak, D.J. Morre, O. Loreau, J.P. Noel, P. Moreau, C. Cassagne [1995] Plant Physiol Biochem 33: 625-637). In this paper we document the formation of PS-rich small vesicles from reek endoplasmic reticulum (ER) membranes upon addition of ATP and other factors. The omission of ATP or its replacement by ATP gamma-S prevents vesicle formation. These vesicles correspond to small structures (70-80 nm) and their phospholipid composition, characterized by a PS enrichment, is compatible with a role in PS transport. Moreover, the PS enrichment over phosphatidylinositol in the ER-derived vesicles is the first example, to our knowledge, of phospholipid sorting from the ER to ER-derived vesicles in plant cells.
p15
sS'pageEnd'
p16
I256
sS'publisherAddress'
p17
V15501 MONONA DRIVE, ROCKVILLE, MD 20855 USA
p18
sS'documentType'
p19
VArticle
p20
sS'subject'
p21
VPlant Sciences
p22
sS'isoSource'
p23
VPlant Physiol.
p24
sS'timesCited'
p25
(lp26
I20
aVZ9 20
p27
asS'PT'
p28
VJ
sS'title'
p29
VAtp-Dependent Formation Of Phosphatidylserine-Rich Vesicles From The Endoplasmic Reticulum Of Leek Cells
p30
sS'ISSN'
p31
(lp32
V0032-0889
p33
aVJ9 PLANT PHYSIOL
p34
asS'authors_full'
p35
(lp36
(VSTURBOISBALCERZAK
VB
tp37
a(VVINCENT
VP
tp38
a(VMANETAPEYRET
VL
tp39
a(VDUVERT
VM
tp40
a(VSATIATJEUNEMAITRE
VB
tp41
a(VCASSAGNE
VC
tp42
a(VMOREAU
VP
tp43
asS'PG'
p44
I12
sS'PD'
p45
VMAY
p46
sS'pageStart'
p47
I245
sS'issue'
p48
I1
sS'journal'
p49
VPLANT PHYSIOLOGY
p50
sS'volume'
p51
V120
p52
sS'doi'
p53
V10.1104/pp.120.1.245
p54
sS'authorAddress'
p55
(lp56
VUniv Bordeaux 2, Lab Biogenese Membranaire, UMR 5544 CNRS, F-33076 Bordeaux, France.
p57
aVUniv Bordeaux 2, Ctr Microscopie Elect, F-33076 Bordeaux, France.
p58
aVUniv Bordeaux 2, Ecole Super Technol Biomol, F-33076 Bordeaux, France.
p59
aVInst Sci Vegetales, UPR 40 CNRS, F-91198 Gif Sur Yvette, France.
p60
asS'date'
p61
I1999
sS'ER'
p62
V
sS'publisher'
p63
VAMER SOC PLANT PHYSIOLOGISTS
p64
sS'authorKeywords'
p65
(lp66
VPHOSPHATIDYLINOSITOL TRANSFER PROTEIN
p67
aVGOLGI-APPARATUS
p68
aVPLANT-CELLS
p69
aVPLASMA-MEMBRANE
p70
aVBREFELDIN-A
p71
aVINTRACELLULAR-TRANSPORT
p72
aVVESICULAR INTERMEDIATE
p73
aVLIPID-TRANSFER
p74
aVFATTY-ACIDS
p75
aVRAT-LIVER
p76
asS'language'
p77
VEnglish
p78
sS'wosid'
p79
VWOS:000080329200026
p80
sS'citationCount'
p81
I61
sS'authors_init'
p82
(lp83
(VSTURBOISBALCERZAK
VB
tp84
a(VVINCENT
VP
tp85
a(VMANETAPEYRET
VL
tp86
a(VDUVERT
VM
tp87
a(VSATIATJEUNEMAITRE
VB
tp88
a(VCASSAGNE
VC
tp89
a(VMOREAU
VP
tp90
asS'citedReferences'
p91
(lp92
g1
(g2
g3
NtRp93
(dp94
g53
V10.1016/S0955-0674(96)80032-9
p95
sg49
VCURR OPIN CELL BIOL
p96
sg51
V8
sg82
(lp97
(VALB
VJ G
tp98
asg61
I1996
sg47
V534
p99
sbag1
(g2
g3
NtRp100
(dp101
g53
V10.1007/BF00039384
p102
sg49
VPLANT MOL BIOL
p103
sg51
V32
p104
sg82
(lp105
(VBARPELED
VM
tp106
asg61
I1996
sg47
VLANT
p107
sbag1
(g2
g3
NtRp108
(dp109
g53
V10.1104/pp.114.1.315
p110
sg49
VPLANT PHYSIOL
p111
sg51
V114
p112
sg82
(lp113
(VBARPELED
VM
tp114
asg61
I1997
sg47
VLANT
p115
sbag1
(g2
g3
NtRp116
(dp117
g53
V10.1093/jxb/48.6.1209
p118
sg49
VJ EXP BOT
p119
sg51
V48
p120
sg82
(lp121
(VBAYDOUN
VE A H
tp122
asg61
I1997
sg47
V1209
p123
sbag1
(g2
g3
NtRp124
(dp125
g53
V10.1016/0092-8674(95)90144-2
p126
sg49
VCELL
p127
sg51
V83
p128
sg82
(lp129
(VBEDNAREK
VS Y
tp130
asg61
I1995
sg47
V1183
p131
sbag1
(g2
g3
NtRp132
(dp133
g53
V10.1016/0005-2736(91)90154-Z
p134
sg49
VBIOCHIM BIOPHYS ACTA
p135
sg51
V1070
p136
sg82
(lp137
(VBERTHO
VP
tp138
asg61
I1991
sg47
V127
p139
sbag1
(g2
g3
NtRp140
(dp141
g53
V10.1006/abio.1976.9999
p142
sg49
VANAL BIOCHEM
p143
sg51
V72
p144
sg82
(lp145
(VBRADFORD
VM M
tp146
asg61
I1976
sg47
V248
p147
sbag1
(g2
g3
NtRp148
(dp149
g53
Nsg49
VPLANT CELL
p150
sg51
V10
p151
sg82
(lp152
(VCARROLL
VA D
tp153
asg61
I1998
sg47
VLANT
p154
sbag1
(g2
g3
NtRp155
(dp156
g53
Nsg49
VBBA
p157
sg51
V1197
p158
sg82
(lp159
(VMOREAU
VP
tp160
asg61
I1994
sg47
V257
p161
sbag1
(g2
g3
NtRp162
(dp163
g53
V10.1104/pp.109.4.1133
p164
sg49
VPLANT PHYSIOL
p165
sg51
V109
p166
sg82
(lp167
(VCLARK
VG B
tp168
asg61
I1995
sg47
VLANT
p169
sbag1
(g2
g3
NtRp170
(dp171
g53
V10.1126/science.271.5255.1533
p172
sg49
VSCIENCE
p173
sg51
V271
p174
sg82
(lp175
(VDECAMILLI
VP
tp176
asg61
I1996
sg47
V1533
p177
sbag1
(g2
g3
NtRp178
(dp179
g53
Nsg49
VANNU REV CELL BIOL
p180
sg51
V6
sg82
(lp181
(VDOUCE
VR
tp182
asg61
I1990
sg47
V173
p183
sbag1
(g2
g3
NtRp184
(dp185
g53
Nsg49
VAM SOC PLANT PHYSL M
p186
sg51
Nsg82
(lp187
(VDOUCE
VR
tp188
asg61
I1985
sg47
Nsbag1
(g2
g3
NtRp189
(dp190
g53
V10.1016/S0021-9673(00)99173-8
p191
sg49
VJ CHROMATOGR
p192
sg51
V43
p193
sg82
(lp194
(VFEWSTER
VM E
tp195
asg61
I1969
sg47
V120
p196
sbag1
(g2
g3
NtRp197
(dp198
g53
V10.1021/bi00076a009
p199
sg49
VBIOCHEMISTRY
p200
sg51
V32
p201
sg82
(lp202
(VFIEDLER
VK
tp203
asg61
I1993
sg47
V6365
p204
sbag1
(g2
g3
NtRp205
(dp206
g53
V10.1007/BF01275775
p207
sg49
VPROTOPLASMA
p208
sg51
V78
p209
sg82
(lp210
(VGOFF
VC W
tp211
asg61
I1973
sg47
VROTOPLASMA
p212
sbag1
(g2
g3
NtRp213
(dp214
g53
Nsg49
VPLANT PHYSIOL BIOCH
p215
sg51
V34
p216
sg82
(lp217
(VGOMORD
VV
tp218
asg61
I1996
sg47
VLANT
p219
sbag1
(g2
g3
NtRp220
(dp221
g53
V10.1016/S0031-9422(96)00491-8
p222
sg49
VPHYTOCHEMISTRY
p223
sg51
V44
p224
sg82
(lp225
(VGUILLOTSALOMON
VT
tp226
asg61
I1997
sg47
VHYTOCHEMISTRY
p227
sbag1
(g2
g3
NtRp228
(dp229
g53
V10.1016/S1360-1385(96)80315-3
p230
sg49
VTRENDS PLANT SCI
p231
sg51
V1
sg82
(lp232
(VHAWES
VC
tp233
asg61
I1996
sg47
V395
p234
sbag1
(g2
g3
NtRp235
(dp236
g53
V10.1016/S0021-9673(01)97702-7
p237
sg49
VJ CHROMATOGR
p238
sg51
V322
p239
sg82
(lp240
(VHEAPE
VA M
tp241
asg61
I1985
sg47
V391
p242
sbag1
(g2
g3
NtRp243
(dp244
g53
Nsg49
VJ EXP BOT
p245
sg51
V44
p246
sg82
(lp247
(VHELLGREN
VL
tp248
asg61
I1993
sg47
V197
p249
sbag1
(g2
g3
NtRp250
(dp251
g53
V10.1093/jxb/45.10.1347
p252
sg49
VJ EXP BOT
p253
sg51
V45
p254
sg82
(lp255
(VHENDERSON
VJ
tp256
asg61
I1994
sg47
V1347
p257
sbag1
(g2
g3
NtRp258
(dp259
g53
Nsg49
VBIOCHEM J
p260
sg51
V277
p261
sg82
(lp262
(VHOBBS
VM C
tp263
asg61
I1991
sg47
V653
p264
sbag1
(g2
g3
NtRp265
(dp266
g53
Nsg49
VJ EXP BOT
p267
sg51
V44
p268
sg82
(lp269
(VHORSLEY
VD
tp270
asg61
I1993
sg47
V223
p271
sbag1
(g2
g3
NtRp272
(dp273
g53
Nsg49
VTHESIS U PARIS 6 PAR
p274
sg51
Nsg82
(lp275
(VJOUANNIC
VN
tp276
asg61
I1998
sg47
Nsbag1
(g2
g3
NtRp277
(dp278
g53
V10.1146/annurev.arplant.47.1.627
p279
sg49
VANNU REV PLANT PHYS
p280
sg51
V47
p281
sg82
(lp282
(VKADER
VJ C
tp283
asg61
I1996
sg47
V627
p284
sbag1
(g2
g3
NtRp285
(dp286
g53
V10.1016/S0955-0674(98)80062-8
p287
sg49
VCURR OPIN CELL BIOL
p288
sg51
V10
p289
sg82
(lp290
(VKAISER
VC
tp291
asg61
I1998
sg47
V477
p292
sbag1
(g2
g3
NtRp293
(dp294
g53
V10.1016/S0962-8924(98)01281-1
p295
sg49
VTRENDS CELL BIOL
p296
sg51
V8
sg82
(lp297
(VKEARNS
VB G
tp298
asg61
I1998
sg47
V276
p299
sbag1
(g2
g3
NtRp300
(dp301
g53
Nsg49
VJ LIPID RES
p302
sg51
V24
p303
sg82
(lp304
(VMACALA
VL J
tp305
asg61
I1983
sg47
V1243
p306
sbag1
(g2
g3
NtRp307
(dp308
g53
Nsg49
VPHYSIOL PLANTARUM
p309
sg51
V100
p310
sg82
(lp311
(VMARECHAL
VE
tp312
asg61
I1997
sg47
VHYSIOL
p313
sbag1
(g2
g3
NtRp314
(dp315
g53
Nsg49
VMETHODS PLANT BIOCH
p316
sg51
V3
sg82
(lp317
(VMOORE
VJ R T S
tp318
asg61
I1990
sg47
V229
p319
sbag1
(g2
g3
NtRp320
(dp321
g53
V10.1104/pp.117.3.931
p322
sg49
VPLANT PHYSIOL
p323
sg51
V117
p324
sg82
(lp325
(VMOREAU
VP
tp326
asg61
I1998
sg47
VLANT
p327
sbag1
(g2
g3
NtRp328
(dp329
g53
V10.1016/0005-2736(93)90332-T
p330
sg49
VBIOCHIM BIOPHYS ACTA
p331
sg51
V1146
p332
sg82
(lp333
(VMOREAU
VP
tp334
asg61
I1993
sg47
V9
sbag1
(g2
g3
NtRp335
(dp336
g53
Nsg49
VPLANT PHYSIOL BIOCH
p337
sg51
V26
p338
sg82
(lp339
(VMOREAU
VP
tp340
asg61
I1988
sg47
VLANT
p341
sbag1
(g2
g3
NtRp342
(dp343
g53
V10.1016/S0163-7827(98)00016-2
p344
sg49
VPROG LIPID RES
p345
sg51
V37
p346
sg82
(lp347
(VMOREAU
VP
tp348
asg61
I1998
sg47
VROG
p349
sbag1
(g2
g3
NtRp350
(dp351
g53
V10.1016/0014-5793(92)81337-L
p352
sg49
VFEBS LETT
p353
sg51
V310
p354
sg82
(lp355
(VMOREAU
VP
tp356
asg61
I1992
sg47
V223
p357
sbag1
(g2
g3
NtRp358
(dp359
g53
Nsg49
VTHESIS BORDEAUX 2 BO
p360
sg51
Nsg82
(lp361
(VMOREAU
VP
tp362
asg61
I1986
sg47
Nsbag1
(g2
g3
NtRp363
(dp364
g53
V10.1007/BF01322459
p365
sg49
VPROTOPLASMA
p366
sg51
V153
p367
sg82
(lp368
(VMORRE
VD J
tp369
asg61
I1989
sg47
VROTOPLASMA
p370
sbag1
(g2
g3
NtRp371
(dp372
g53
Nsg49
VCYTOBIOLOGIE
p373
sg51
V16
p374
sg82
(lp375
(VMORRE
VD J
tp376
asg61
I1977
sg47
V72
p377
sbag1
(g2
g3
NtRp378
(dp379
g53
V10.1016/0005-2760(84)90115-2
p380
sg49
VBIOCHIM BIOPHYS ACTA
p381
sg51
V795
p382
sg82
(lp383
(VMURATA
VN
tp384
asg61
I1984
sg47
V147
p385
sbag1
(g2
g3
NtRp386
(dp387
g53
Nsg49
VJ CELL SCI
p388
sg51
V102
p389
sg82
(lp390
(VNAPIER
VR M
tp391
asg61
I1992
sg47
V261
p392
sbag1
(g2
g3
NtRp393
(dp394
g53
V10.1016/S0014-5793(98)00722-4
p395
sg49
VFEBS LETT
p396
sg51
V431
p397
sg82
(lp398
(VPAUL
VK S
tp399
asg61
I1998
sg47
V91
p400
sbag1
(g2
g3
NtRp401
(dp402
g53
Nsg49
VJ BIOL CHEM
p403
sg51
V263
p404
sg82
(lp405
(VPAULIK
VM
tp406
asg61
I1988
sg47
V17738
p407
sbag1
(g2
g3
NtRp408
(dp409
g53
V10.1146/annurev.pp.30.060179.002233
p410
sg49
VANNU REV PLANT PHYS
p411
sg51
V30
p412
sg82
(lp413
(VQUAIL
VP H
tp414
asg61
I1979
sg47
V425
p415
sbag1
(g2
g3
NtRp416
(dp417
g53
V10.1023/A:1006025802445
p418
sg49
VPLANT MOL BIOL
p419
sg51
V38
p420
sg82
(lp421
(VROBINSON
VD G
tp422
asg61
I1998
sg47
VLANT
p423
sbag1
(g2
g3
NtRp424
(dp425
g53
V10.1126/science.272.5259.227
p426
sg49
VSCIENCE
p427
sg51
V272
p428
sg82
(lp429
(VROTHMAN
VJ E
tp430
asg61
I1996
sg47
V227
p431
sbag1
(g2
g3
NtRp432
(dp433
g53
V10.1016/0248-4900(93)90257-F
p434
sg49
VBIOL CELL
p435
sg51
V79
p436
sg82
(lp437
(VSATIATJEUNEMAITRE
VB
tp438
asg61
I1993
sg47
V7
sbag1
(g2
g3
NtRp439
(dp440
g53
Nsg49
VJ CELL SCI
p441
sg51
V103
p442
sg82
(lp443
(VSATIATJEUNEMAITRE
VB
tp444
asg61
I1992
sg47
V1153
p445
sbag1
(g2
g3
NtRp446
(dp447
g53
Nsg49
VJ MICROSC
p448
sg51
V181
p449
sg82
(lp450
(VSATIATJEUNEMAITRE
VB
tp451
asg61
I1996
sg47
V162
p452
sbag1
(g2
g3
NtRp453
(dp454
g53
V10.1007/BF01280822
p455
sg49
VPROTOPLASMA
p456
sg51
V191
p457
sg82
(lp458
(VSATIATJEUNEMAITRE
VB
tp459
asg61
I1996
sg47
VROTOPLASMA
p460
sbag1
(g2
g3
NtRp461
(dp462
g53
V10.1126/science.271.5255.1526
p463
sg49
VSCIENCE
p464
sg51
V271
p465
sg82
(lp466
(VSCHEKMAN
VR
tp467
asg61
I1996
sg47
V1526
p468
sbag1
(g2
g3
NtRp469
(dp470
g53
V10.1074/jbc.273.29.17995
p471
sg49
VJ BIOL CHEM
p472
sg51
V273
p473
sg82
(lp474
(VSIDDHANTA
VA
tp475
asg61
I1998
sg47
V17995
p476
sbag1
(g2
g3
NtRp477
(dp478
g53
V10.1038/42408
p479
sg49
VNATURE
p480
sg51
V387
p481
sg82
(lp482
(VSIMONS
VK
tp483
asg61
I1997
sg47
V569
p484
sbag1
(g2
g3
NtRp485
(dp486
g53
V10.1016/0003-2697(85)90442-7
p487
sg49
VANAL BIOCHEM
p488
sg51
V150
p489
sg82
(lp490
(VSMITH
VP K
tp491
asg61
I1985
sg47
V76
p492
sbag1
(g2
g3
NtRp493
(dp494
g53
V10.1038/362318a0
p495
sg49
VNATURE
p496
sg51
V362
p497
sg82
(lp498
(VSOLLNER
VT
tp499
asg61
I1993
sg47
V318
p500
sbag1
(g2
g3
NtRp501
(dp502
g53
V10.1016/0005-2736(94)90276-3
p503
sg49
VBBA
p504
sg51
V1189
p505
sg82
(lp506
(VSTURBOIS
VB
tp507
asg61
I1994
sg47
V31
p508
sbag1
(g2
g3
NtRp509
(dp510
g53
Nsg49
VPLANT PHYSIOL BIOCH
p511
sg51
V33
p512
sg82
(lp513
(VSTURBOISBALCERZAK
VB
tp514
asg61
I1995
sg47
VLANT
p515
sbag1
(g2
g3
NtRp516
(dp517
g53
Nsg49
VANNU REV PLANT PHYS
p518
sg51
V36
p519
sg82
(lp520
(VSZE
VH
tp521
asg61
I1985
sg47
V175
p522
sbag1
(g2
g3
NtRp523
(dp524
g53
V10.1016/S0955-0674(98)80148-8
p525
sg49
VCURR OPIN CELL BIOL
p526
sg51
V10
p527
sg82
(lp528
(VTOKER
VA
tp529
asg61
I1998
sg47
V254
p530
sbag1
(g2
g3
NtRp531
(dp532
g53
V10.1016/S0014-5793(97)01471-3
p533
sg49
VFEBS LETT
p534
sg51
V419
p535
sg82
(lp536
(VTUSCHER
VO
tp537
asg61
I1997
sg47
V271
p538
sbag1
(g2
g3
NtRp539
(dp540
g53
V10.1073/pnas.91.24.11398
p541
sg49
VP NATL ACAD SCI USA
p542
sg51
V91
p543
sg82
(lp544
(VWELTERS
VP
tp545
asg61
I1994
sg47
V11398
p546
sbasb.