ccopy_reg
_reconstructor
p1
(ctethne.classes.paper
Paper
p2
c__builtin__
object
p3
NtRp4
(dp5
S'publisherCity'
p6
VROCKVILLE
p7
sS'reprintAddress'
p8
VCovarrubias, AA (reprint author), Univ Nacl Autonoma Mexico, Inst Biotecnol, Dept Biol Mol Plantas, Cuernavaca 62250, Morelos, Mexico.
p9
sS'WC'
p10
VPlant Sciences
p11
sS'GA'
p12
V344SM
p13
sS'pageEnd'
p14
I24
sS'publisherAddress'
p15
V15501 MONONA DRIVE, ROCKVILLE, MD 20855 USA
p16
sS'documentType'
p17
VArticle
p18
sS'subject'
p19
VPlant Sciences
p20
sS'isoSource'
p21
VPlant Physiol.
p22
sS'timesCited'
p23
(lp24
I165
aVZ9 182
p25
asS'PT'
p26
VJ
sS'title'
p27
VThe Enigmatic Lea Proteins And Other Hydrophilins
p28
sS'ISSN'
p29
(lp30
V0032-0889
p31
aVJ9 PLANT PHYSIOL
p32
asS'authors_full'
p33
(lp34
(VBATTAGLIA
VMARINA
tp35
a(VOLVERACARRILLO
VYADIRA
tp36
a(VGARCIARRUBIO
VALEJANDRO
tp37
a(VCAMPOS
VFRANCISCO
tp38
a(VCOVARRUBIAS
VALEJANDRA A
tp39
asS'PG'
p40
I19
sS'PD'
p41
VSEP
p42
sS'pageStart'
p43
I6
sS'issue'
p44
I1
sS'journal'
p45
VPLANT PHYSIOLOGY
p46
sS'volume'
p47
V148
p48
sS'doi'
p49
V10.1104/pp.108.120725
p50
sS'emailAddress'
p51
Vcrobles@ibt.unam.mx
p52
sS'authorAddress'
p53
(lp54
V[Battaglia, Marina; Olvera-Carrillo, Yadira; Campos, Francisco; Covarrubias, Alejandra A.] Univ Nacl Autonoma Mexico, Inst Biotecnol, Dept Biol Mol Plantas, Cuernavaca 62250, Morelos, Mexico.
p55
aV[Garciarrubio, Alejandro] Univ Nacl Autonoma Mexico, Inst Biotecnol, Dept Mol Microbiol, Cuernavaca 62250, Morelos, Mexico.
p56
asS'date'
p57
I2008
sS'ER'
p58
V
sS'publisher'
p59
VAMER SOC PLANT BIOLOGISTS
p60
sS'authorKeywords'
p61
(lp62
VEMBRYOGENESIS-ABUNDANT PROTEIN
p63
aVINTRINSICALLY UNSTRUCTURED PROTEINS
p64
aVCHLORELLA-VULGARIS C-27
p65
aVBETULA-PUBESCENS EHRH.
p66
aVDEHYDRIN-LIKE-PROTEINS
p67
aVPLANT CRATEROSTIGMA-PLANTAGINEUM
p68
aVNUCLEAR-LOCALIZATION SIGNAL
p69
aVPRINCIPAL STORAGE PROTEINS
p70
aVDOGWOOD CORNUS-SERICEA
p71
aVACID-RESPONSIVE GENES
p72
asS'language'
p73
VEnglish
p74
sS'wosid'
p75
VWOS:000258947600002
p76
sS'citationCount'
p77
I218
sS'authors_init'
p78
(lp79
(VBATTAGLIA
VM
tp80
a(VOLVERACARRILLO
VY
tp81
a(VGARCIARRUBIO
VA
tp82
a(VCAMPOS
VF
tp83
a(VCOVARRUBIAS
VA A
tp84
asS'citedReferences'
p85
(lp86
g1
(g2
g3
NtRp87
(dp88
g49
V10.1186/1471-2164-7-39
p89
sg45
VBMC GENOMICS
p90
sg47
V7
sg78
(lp91
(VABBA'
VS
tp92
asg57
I2006
sg43
Nsbag1
(g2
g3
NtRp93
(dp94
g49
V10.1016/j.bbaexp.2005.05.011
p95
sg45
VBBA
p96
sg47
V1730
p97
sg78
(lp98
(VALI-BENALI
VM A
tp99
asg57
I2005
sg43
V56
p100
sbag1
(g2
g3
NtRp101
(dp102
g49
V10.1093/icb/45.5.685
p103
sg45
VINTEGR COMP BIOL
p104
sg47
V45
p105
sg78
(lp106
(VALPERT
VP
tp107
asg57
I2005
sg43
V685
p108
sbag1
(g2
g3
NtRp109
(dp110
g49
V10.1079/9780851995342.0003
p111
sg45
VP3
p112
sg47
Nsg78
(lp113
(VALPERT
VPETER
tp114
asg57
I2002
sg43
V3
sbag1
(g2
g3
NtRp115
(dp116
g49
V10.1074/jbc.M307151200
p117
sg45
VJ BIOL CHEM
p118
sg47
V278
p119
sg78
(lp120
(VALSHEIKH
VM K
tp121
asg57
I2003
sg43
V40882
p122
sbag1
(g2
g3
NtRp123
(dp124
g49
V10.1111/j.1365-3040.2005.01348.x
p125
sg45
VPLANT CELL ENVIRON
p126
sg47
V28
p127
sg78
(lp128
(VALSHEIKH
VM K
tp129
asg57
I2005
sg43
VLANT
p130
sbag1
(g2
g3
NtRp131
(dp132
g49
V10.1104/pp.106.4.1699
p133
sg45
VPLANT PHYSIOL
p134
sg47
V106
p135
sg78
(lp136
(VAMITAIZEIGERSON
VH
tp137
asg57
I1994
sg43
VLANT
p138
sbag1
(g2
g3
NtRp139
(dp140
g49
V10.1034/j.1399-3054.1997.1010102.x
p141
sg45
VPHYSIOL PLANTARUM
p142
sg47
V101
p143
sg78
(lp144
(VARORA
VR
tp145
asg57
I1997
sg43
VHYSIOL
p146
sbag1
(g2
g3
NtRp147
(dp148
g49
V10.1016/j.plantsci.2003.11.023
p149
sg45
VPLANT SCI
p150
sg47
V166
p151
sg78
(lp152
(VBABU
VR C
tp153
asg57
I2004
sg43
VLANT
p154
sbag1
(g2
g3
NtRp155
(dp156
g49
Nsg45
VSEED SCI RES
p157
sg47
V5
sg78
(lp158
(VBAKER
VE H
tp159
asg57
I1995
sg43
V185
p160
sbag1
(g2
g3
NtRp161
(dp162
g49
V10.1007/BF00027385
p163
sg45
VPLANT MOL BIOL
p164
sg47
V11
p165
sg78
(lp166
(VBAKER
VJ
tp167
asg57
I1988
sg43
VLANT
p168
sbag1
(g2
g3
NtRp169
(dp170
g49
Nsg45
VTOP CURR GENET
p171
sg47
V4
sg78
(lp172
(VBARTELS
VD
tp173
asg57
I2003
sg43
V9
sbag1
(g2
g3
NtRp174
(dp175
g49
V10.1006/cryo.2001.2357
p176
sg45
VCRYOBIOLOGY
p177
sg47
V43
p178
sg78
(lp179
(VBATTISTA
VJ R
tp180
asg57
I2001
sg43
V133
p181
sbag1
(g2
g3
NtRp182
(dp183
g49
V10.1007/s11103-008-9304-x
p184
sg45
VPLANT MOL BIOL
p185
sg47
V67
p186
sg78
(lp187
(VBIES-ETHEVE
VN
tp188
asg57
I2008
sg43
VLANT
p189
sbag1
(g2
g3
NtRp190
(dp191
g49
V10.1529/biophysj.104.051912
p192
sg45
VBIOPHYS J
p193
sg47
V88
p194
sg78
(lp195
(VBOKOR
VM
tp196
asg57
I2005
sg43
V2030
p197
sbag1
(g2
g3
NtRp198
(dp199
g49
V10.1186/1471-2229-2-5
p200
sg45
VBMC Plant Biol
p201
sg47
V2
sg78
(lp202
(VBOROVSKII
VGENADII B
tp203
asg57
I2002
sg43
V5
sbag1
(g2
g3
NtRp204
(dp205
g49
Nsg45
VJ PLANT PHYSIOL
p206
sg47
V156
p207
sg78
(lp208
(VBOROVSKII
VG B
tp209
asg57
I2000
sg43
V797
p210
sbag1
(g2
g3
NtRp211
(dp212
g49
V10.1034/j.1399-3054.2003.00060.x
p213
sg45
VPHYSIOL PLANTARUM
p214
sg47
V118
p215
sg78
(lp216
(VBRAVO
VL A
tp217
asg57
I2003
sg43
VHYSIOL
p218
sbag1
(g2
g3
NtRp219
(dp220
g49
V10.1016/S1360-1385(97)82562-9
p221
sg45
VTRENDS PLANT SCI
p222
sg47
V2
sg78
(lp223
(VBRAY
VE A
tp224
asg57
I1997
sg43
V48
p225
sbag1
(g2
g3
NtRp226
(dp227
g49
V10.1007/s00299-007-0412-x
p228
sg45
VPLANT CELL REP
p229
sg47
V26
p230
sg78
(lp231
(VBRINI
VF
tp232
asg57
I2007
sg43
VLANT
p233
sbag1
(g2
g3
NtRp234
(dp235
g49
V10.1128/EC.3.4.966-975.2004
p236
sg45
VEUKARYOT CELL
p237
sg47
V3
sg78
(lp238
(VBROWNE
VJ A
tp239
asg57
I2004
sg43
V966
p240
sbag1
(g2
g3
NtRp241
(dp242
g49
V10.1105/tpc.013854
p243
sg45
VPLANT CELL
p244
sg47
V15
p245
sg78
(lp246
(VCAKIR
VB
tp247
asg57
I2003
sg43
VLANT
p248
sbag1
(g2
g3
NtRp249
(dp250
g49
V10.1046/j.1469-8137.1997.00831.x
p251
sg45
VNEW PHYTOL
p252
sg47
V137
p253
sg78
(lp254
(VCAMPBELL
VS A
tp255
asg57
I1997
sg43
V61
p256
sbag1
(g2
g3
NtRp257
(dp258
g49
V10.1104/pp.108.3.1323
p259
sg45
VPLANT PHYSIOL
p260
sg47
V108
p261
sg78
(lp262
(VCANEL
VC
tp263
asg57
I1995
sg43
VLANT
p264
sbag1
(g2
g3
NtRp265
(dp266
g49
V10.1016/j.tplants.2003.12.004
p267
sg45
VTRENDS PLANT SCI
p268
sg47
V9
sg78
(lp269
(VCARRARI
VF
tp270
asg57
I2004
sg43
V57
p271
sbag1
(g2
g3
NtRp272
(dp273
g49
V10.1104/pp.93.4.1504
p274
sg45
VPLANT PHYSIOL
p275
sg47
V93
p276
sg78
(lp277
(VCATTIVELLI
VL
tp278
asg57
I1990
sg43
VLANT
p279
sbag1
(g2
g3
NtRp280
(dp281
g49
V10.1073/pnas.0706964104
p282
sg45
VP NATL ACAD SCI USA
p283
sg47
V104
p284
sg78
(lp285
(VCHAKRABORTEE
VS
tp286
asg57
I2007
sg43
V18073
p287
sbag1
(g2
g3
NtRp288
(dp289
g49
V10.1146/annurev.pp.45.060194.000553
p290
sg45
VANNU REV PLANT PHYS
p291
sg47
V45
p292
sg78
(lp293
(VCHANDLER
VP M
tp294
asg57
I1994
sg43
V113
p295
sbag1
(g2
g3
NtRp296
(dp297
g49
V10.1007/BF00027338
p298
sg45
VPLANT MOL BIOL
p299
sg47
V13
p300
sg78
(lp301
(VCLOSE
VT J
tp302
asg57
I1989
sg43
VLANT
p303
sbag1
(g2
g3
NtRp304
(dp305
g49
V10.1111/j.1399-3054.1996.tb00546.x
p306
sg45
VPHYSIOL PLANTARUM
p307
sg47
V97
p308
sg78
(lp309
(VCLOSE
VT J
tp310
asg57
I1996
sg43
VHYSIOL
p311
sbag1
(g2
g3
NtRp312
(dp313
g49
Nsg45
VCUR TOP PL
p314
sg47
V10
p315
sg78
(lp316
(VCLOSE
VT J
tp317
asg57
I1993
sg43
V104
p318
sbag1
(g2
g3
NtRp319
(dp320
g49
V10.1104/pp.97.4.1367
p321
sg45
VPLANT PHYSIOL
p322
sg47
V97
p323
sg78
(lp324
(VCOHEN
VA
tp325
asg57
I1991
sg43
VLANT
p326
sbag1
(g2
g3
NtRp327
(dp328
g49
V10.1104/pp.120.1.93
p329
sg45
VPLANT PHYSIOL
p330
sg47
V120
p331
sg78
(lp332
(VCOLMENERO-FLORES
VJ M
tp333
asg57
I1999
sg43
VLANT
p334
sbag1
(g2
g3
NtRp335
(dp336
g49
V10.1023/A:1005802505731
p337
sg45
VPLANT MOL BIOL
p338
sg47
V35
p339
sg78
(lp340
(VCOLMENEROFLORES
VJ M
tp341
asg57
I1997
sg43
VLANT
p342
sbag1
(g2
g3
NtRp343
(dp344
g49
Nsg45
VSEED PROTEINS
p345
sg47
Nsg78
(lp346
(VCUMING
VA C
tp347
asg57
I1999
sg43
V753
p348
sbag1
(g2
g3
NtRp349
(dp350
g49
V10.1007/BF00027121
p351
sg45
VPLANT MOL BIOL
p352
sg47
V21
p353
sg78
(lp354
(VCURRY
VJ
tp355
asg57
I1993
sg43
VLANT
p356
sbag1
(g2
g3
NtRp357
(dp358
g49
V10.1007/BF00016078
p359
sg45
VPLANT MOL BIOL
p360
sg47
V16
p361
sg78
(lp362
(VCURRY
VJ
tp363
asg57
I1991
sg43
VLANT
p364
sbag1
(g2
g3
NtRp365
(dp366
g49
V10.1105/tpc.10.4.623
p367
sg45
VPLANT CELL
p368
sg47
V10
p369
sg78
(lp370
(VDANYLUK
VJ
tp371
asg57
I1998
sg43
VLANT
p372
sbag1
(g2
g3
NtRp373
(dp374
g49
V10.1016/0014-5793(94)00353-X
p375
sg45
VFEBS LETT
p376
sg47
V344
p377
sg78
(lp378
(VDANYLUK
VJ
tp379
asg57
I1994
sg43
V20
p380
sbag1
(g2
g3
NtRp381
(dp382
g49
V10.1074/jbc.273.16.9443
p383
sg45
VJ BIOL CHEM
p384
sg47
V273
p385
sg78
(lp386
(VDAVIDSON
VW S
tp387
asg57
I1998
sg43
V9443
p388
sbag1
(g2
g3
NtRp389
(dp390
g49
V10.1023/A:1005836405211
p391
sg45
VPLANT MOL BIOL
p392
sg47
V35
p393
sg78
(lp394
(VDEHAYE
VL
tp395
asg57
I1997
sg43
VLANT
p396
sbag1
(g2
g3
NtRp397
(dp398
g49
V10.1078/0176-1617-00353
p399
sg45
VJ PLANT PHYSIOL
p400
sg47
V158
p401
sg78
(lp402
(VDELSENY
VM
tp403
asg57
I2001
sg43
V419
p404
sbag1
(g2
g3
NtRp405
(dp406
g49
V10.1016/j.plaphy.2005.02.002
p407
sg45
VPLANT PHYSIOL BIOCH
p408
sg47
V43
p409
sg78
(lp410
(VDOCZI
VR
tp411
asg57
I2005
sg43
VLANT
p412
sbag1
(g2
g3
NtRp413
(dp414
g49
V10.1007/s004250050213
p415
sg45
VPLANTA
p416
sg47
V203
p417
sg78
(lp418
(VDONG
VJ Z
tp419
asg57
I1997
sg43
VLANTA
p420
sbag1
(g2
g3
NtRp421
(dp422
g49
V10.1016/j.jmb.2005.01.071
p423
sg45
VJ MOL BIOL
p424
sg47
V347
p425
sg78
(lp426
(VDOSZTANYI
VZ
tp427
asg57
I2005
sg43
V827
p428
sbag1
(g2
g3
NtRp429
(dp430
g49
Nsg45
VCUR TOP PL
p431
sg47
V10
p432
sg78
(lp433
(VDURE
VL
tp434
asg57
I1993
sg43
V91
p435
sbag1
(g2
g3
NtRp436
(dp437
g49
V10.1104/pp.68.1.180
p438
sg45
VPLANT PHYSIOL
p439
sg47
V68
p440
sg78
(lp441
(VDURE
VL
tp442
asg57
I1981
sg43
VLANT
p443
sbag1
(g2
g3
NtRp444
(dp445
g49
V10.1046/j.1365-313X.1993.t01-18-00999.x
p446
sg45
VPLANT J
p447
sg47
V3
sg78
(lp448
(VDURE
VL
tp449
asg57
I1993
sg43
VLANT
p450
sbag1
(g2
g3
NtRp451
(dp452
g49
V10.2174/0929866013409643
p453
sg45
VPROTEIN PEPTIDE LETT
p454
sg47
V8
sg78
(lp455
(VDURE
VL
tp456
asg57
I2001
sg43
VROTEIN
p457
sbag1
(g2
g3
NtRp458
(dp459
g49
V10.1021/bi00517a033
p460
sg45
VBIOCHEMISTRY
p461
sg47
V20
p462
sg78
(lp463
(VDURE
VL
tp464
asg57
I1981
sg43
V4162
p465
sbag1
(g2
g3
NtRp466
(dp467
g49
V10.1104/pp.68.1.187
p468
sg45
VPLANT PHYSIOL
p469
sg47
V68
p470
sg78
(lp471
(VDURE
VL
tp472
asg57
I1981
sg43
VLANT
p473
sbag1
(g2
g3
NtRp474
(dp475
g49
V10.1007/BF00036962
p476
sg45
VPLANT MOL BIOL
p477
sg47
V12
p478
sg78
(lp479
(VDURE
VL
tp480
asg57
I1989
sg43
VLANT
p481
sbag1
(g2
g3
NtRp482
(dp483
g49
V10.1038/nrm1589
p484
sg45
VNAT REV MOL CELL BIO
p485
sg47
V6
sg78
(lp486
(VDYSON
VH J
tp487
asg57
I2005
sg43
V197
p488
sbag1
(g2
g3
NtRp489
(dp490
g49
V10.1034/j.1399-3054.1997.1010314.x
p491
sg45
VPHYSIOL PLANTARUM
p492
sg47
V101
p493
sg78
(lp494
(VEGERTONWARBURTON
VL M
tp495
asg57
I1997
sg43
VHYSIOL
p496
sbag1
(g2
g3
NtRp497
(dp498
g49
V10.1016/0168-9452(96)04332-4
p499
sg45
VPLANT SCI
p500
sg47
V115
p501
sg78
(lp502
(VEOM
VJ W
tp503
asg57
I1996
sg43
VLANT
p504
sbag1
(g2
g3
NtRp505
(dp506
g49
Nsg45
VPLANT J
p507
sg47
V2
sg78
(lp508
(VESPELUND
VM
tp509
asg57
I1992
sg43
VLANT
p510
sbag1
(g2
g3
NtRp511
(dp512
g49
V10.1007/s11103-006-9120-0
p513
sg45
VPLANT MOL BIOL
p514
sg47
V63
p515
sg78
(lp516
(VFRANKEL
VN
tp517
asg57
I2007
sg43
VLANT
p518
sbag1
(g2
g3
NtRp519
(dp520
g49
V10.1016/j.gene.2006.05.010
p521
sg45
VGENE
p522
sg47
V378
p523
sg78
(lp524
(VFRANKEL
VN
tp525
asg57
I2006
sg43
V74
p526
sbag1
(g2
g3
NtRp527
(dp528
g49
V10.1007/s00299-006-0258-7
p529
sg45
VPLANT CELL REP
p530
sg47
V26
p531
sg78
(lp532
(VFU
VD L
tp533
asg57
I2007
sg43
VLANT
p534
sbag1
(g2
g3
NtRp535
(dp536
g49
V10.1016/j.febslet.2004.09.049
p537
sg45
VFEBS LETT
p538
sg47
V577
p539
sg78
(lp540
(VGAL
VT Z
tp541
asg57
I2004
sg43
V21
p542
sbag1
(g2
g3
NtRp543
(dp544
g49
V10.1104/pp.99.2.783
p545
sg45
VPLANT PHYSIOL
p546
sg47
V99
p547
sg78
(lp548
(VGALAU
VG A
tp549
asg57
I1992
sg43
VLANT
p550
sbag1
(g2
g3
NtRp551
(dp552
g49
V10.1016/0012-1606(87)90443-X
p553
sg45
VDEV BIOL
p554
sg47
V123
p555
sg78
(lp556
(VGALAU
VG A
tp557
asg57
I1987
sg43
V213
p558
sbag1
(g2
g3
NtRp559
(dp560
g49
V10.1104/pp.101.2.695
p561
sg45
VPLANT PHYSIOL
p562
sg47
V101
p563
sg78
(lp564
(VGALAU
VG A
tp565
asg57
I1993
sg43
VLANT
p566
sbag1
(g2
g3
NtRp567
(dp568
g49
V10.1074/jbc.275.8.5668
p569
sg45
VJ BIOL CHEM
p570
sg47
V275
p571
sg78
(lp572
(VGARAY-ARROYO
VA
tp573
asg57
I2000
sg43
V5668
p574
sbag1
(g2
g3
NtRp575
(dp576
g49
V10.1007/BF00292000
p577
sg45
VMOL GEN GENET
p578
sg47
V238
p579
sg78
(lp580
(VGAUBIER
VP
tp581
asg57
I1993
sg43
V409
p582
sbag1
(g2
g3
NtRp583
(dp584
g49
V10.1016/j.plaphy.2007.03.027
p585
sg45
VPLANT PHYSIOL BIOCH
p586
sg47
V45
p587
sg78
(lp588
(VGILLES
VG J
tp589
asg57
I2007
sg43
VLANT
p590
sbag1
(g2
g3
NtRp591
(dp592
g49
V10.1007/BF00018452
p593
sg45
VPLANT MOL BIOL
p594
sg47
V18
p595
sg78
(lp596
(VGILMOUR
VS J
tp597
asg57
I1992
sg43
VLANT
p598
sbag1
(g2
g3
NtRp599
(dp600
g49
V10.1023/A:1006194720022
p601
sg45
VPLANT MOL BIOL
p602
sg47
V39
p603
sg78
(lp604
(VGIORDANI
VT
tp605
asg57
I1999
sg43
VLANT
p606
sbag1
(g2
g3
NtRp607
(dp608
g49
Nsg45
VPLANT CELL
p609
sg47
V6
sg78
(lp610
(VGODAY
VA
tp611
asg57
I1994
sg43
VLANT
p612
sbag1
(g2
g3
NtRp613
(dp614
g49
V10.1104/pp.106.092965
p615
sg45
VPLANT PHYSIOL
p616
sg47
V143
p617
sg78
(lp618
(VGOLDGUR
VY
tp619
asg57
I2007
sg43
VLANT
p620
sbag1
(g2
g3
NtRp621
(dp622
g49
V10.1042/BJ20041931
p623
sg45
VBIOCHEM J
p624
sg47
V388
p625
sg78
(lp626
(VGOYAL
VK
tp627
asg57
I2005
sg43
V151
p628
sbag1
(g2
g3
NtRp629
(dp630
g49
V10.1074/jbc.M212007200
p631
sg45
VJ BIOL CHEM
p632
sg47
V278
p633
sg78
(lp634
(VGOYAL
VK
tp635
asg57
I2003
sg43
V12977
p636
sbag1
(g2
g3
NtRp637
(dp638
g49
V10.1104/pp.104.052480
p639
sg45
VPLANT PHYSIOL
p640
sg47
V137
p641
sg78
(lp642
(VGRELET
VJ
tp643
asg57
I2005
sg43
VLANT
p644
sbag1
(g2
g3
NtRp645
(dp646
g49
V10.1104/pp.100.2.915
p647
sg45
VPLANT PHYSIOL
p648
sg47
V100
p649
sg78
(lp650
(VGUO
VW W
tp651
asg57
I1992
sg43
VLANT
p652
sbag1
(g2
g3
NtRp653
(dp654
g49
V10.1111/j.1365-3040.1986.tb01759.x
p655
sg45
VPLANT CELL ENVIRON
p656
sg47
V9
sg78
(lp657
(VGUY
VC L
tp658
asg57
I1986
sg43
VLANT
p659
sbag1
(g2
g3
NtRp660
(dp661
g49
V10.1002/jez.a.343
p662
sg45
VJ EXP ZOOL PART A
p663
sg47
V307A
p664
sg78
(lp665
(VHAND
VS C
tp666
asg57
I2007
sg43
V62
p667
sbag1
(g2
g3
NtRp668
(dp669
g49
V10.1093/jxb/eri262
p670
sg45
VJ EXP BOT
p671
sg47
V56
p672
sg78
(lp673
(VHARA
VM
tp674
asg57
I2005
sg43
V2695
p675
sbag1
(g2
g3
NtRp676
(dp677
g49
V10.1078/0176-1617-00600
p678
sg45
VJ PLANT PHYSIOL
p679
sg47
V158
p680
sg78
(lp681
(VHARA
VM
tp682
asg57
I2001
sg43
V1333
p683
sbag1
(g2
g3
NtRp684
(dp685
g49
V10.1016/j.plaphy.2004.06.004
p686
sg45
VPLANT PHYSIOL BIOCH
p687
sg47
V42
p688
sg78
(lp689
(VHARA
VM
tp690
asg57
I2004
sg43
VLANT
p691
sbag1
(g2
g3
NtRp692
(dp693
g49
V10.1007/BF00017579
p694
sg45
VPLANT MOL BIOL
p695
sg47
V12
p696
sg78
(lp697
(VHARADA
VJ J
tp698
asg57
I1989
sg43
VLANT
p699
sbag1
(g2
g3
NtRp700
(dp701
g49
V10.1371/journal.pcbi.1000017
p702
sg45
VPLOS COMPUT BIOL
p703
sg47
V4
sg78
(lp704
(VHEGYI
VH
tp705
asg57
I2008
sg43
VLOS
p706
sbag1
(g2
g3
NtRp707
(dp708
g49
V10.1007/BF00620059
p709
sg45
VPLANTA
p710
sg47
V198
p711
sg78
(lp712
(VHELLWEGE
VE M
tp713
asg57
I1996
sg43
VLANTA
p714
sbag1
(g2
g3
NtRp715
(dp716
g49
V10.1104/pp.002550
p717
sg45
VPLANT PHYSIOL
p718
sg47
V130
p719
sg78
(lp720
(VHEYEN
VB J
tp721
asg57
I2002
sg43
VLANT
p722
sbag1
(g2
g3
NtRp723
(dp724
g49
V10.1006/cryo.2001.2358
p725
sg45
VCRYOBIOLOGY
p726
sg47
V43
p727
sg78
(lp728
(VHOEKSTRA
VF A
tp729
asg57
I2001
sg43
V140
p730
sbag1
(g2
g3
NtRp731
(dp732
g49
V10.1007/BF00043884
p733
sg45
VPLANT MOL BIOL
p734
sg47
V25
p735
sg78
(lp736
(VHOLLUNG
VK
tp737
asg57
I1994
sg43
VLANT
p738
sbag1
(g2
g3
NtRp739
(dp740
g49
V10.1093/jxb/erf075
p741
sg45
VJ EXP BOT
p742
sg47
V53
p743
sg78
(lp744
(VHONG
VS H
tp745
asg57
I2002
sg43
V2271
p746
sbag1
(g2
g3
NtRp747
(dp748
g49
V10.1271/bbb.64.1656
p749
sg45
VBIOSCI BIOTECH BIOCH
p750
sg47
V64
p751
sg78
(lp752
(VHONJOH
VK
tp753
asg57
I2000
sg43
V1656
p754
sbag1
(g2
g3
NtRp755
(dp756
g49
Nsg45
VPLANT CELL PHYSIOL
p757
sg47
V36
p758
sg78
(lp759
(VHONJOH
VK
tp760
asg57
I1995
sg43
VLANT
p761
sbag1
(g2
g3
NtRp762
(dp763
g49
V10.1046/j.1365-313X.1995.8040583.x
p764
sg45
VPLANT J
p765
sg47
V8
sg78
(lp766
(VHOUDE
VM
tp767
asg57
I1995
sg43
VLANT
p768
sbag1
(g2
g3
NtRp769
(dp770
g49
V10.1104/pp.99.4.1381
p771
sg45
VPLANT PHYSIOL
p772
sg47
V99
p773
sg78
(lp774
(VHOUDE
VM
tp775
asg57
I1992
sg43
VLANT
p776
sbag1
(g2
g3
NtRp777
(dp778
g49
V10.1007/BF00041175
p779
sg45
VPLANT MOL BIOL
p780
sg47
V29
p781
sg78
(lp782
(VHSING
VY C
tp783
asg57
I1995
sg43
VLANT
p784
sbag1
(g2
g3
NtRp785
(dp786
g49
V10.1101/gad.3.3.358
p787
sg45
VGENE DEV
p788
sg47
V3
sg78
(lp789
(VHUGHES
VD W
tp790
asg57
I1989
sg43
V358
p791
sbag1
(g2
g3
NtRp792
(dp793
g49
V10.1186/1471-2164-9-118
p794
sg45
VBMC GENOMICS
p795
sg47
V9
sg78
(lp796
(VHUNDERTMARK
VM
tp797
asg57
I2008
sg43
Nsbag1
(g2
g3
NtRp798
(dp799
g49
V10.1016/0378-1119(95)00868-3
p800
sg45
VGENE
p801
sg47
V170
p802
sg78
(lp803
(VIMAI
VR
tp804
asg57
I1996
sg43
V243
p805
sbag1
(g2
g3
NtRp806
(dp807
g49
V10.1146/annurev.arplant.47.1.377
p808
sg45
VANNU REV PLANT PHYS
p809
sg47
V47
p810
sg78
(lp811
(VINGRAM
VJ
tp812
asg57
I1996
sg43
V377
p813
sbag1
(g2
g3
NtRp814
(dp815
g49
V10.1073/pnas.96.23.13566
p816
sg45
VP NATL ACAD SCI USA
p817
sg47
V96
p818
sg78
(lp819
(VISMAIL
VA M
tp820
asg57
I1999
sg43
V13566
p821
sbag1
(g2
g3
NtRp822
(dp823
g49
V10.1104/pp.120.1.237
p824
sg45
VPLANT PHYSIOL
p825
sg47
V120
p826
sg78
(lp827
(VISMAIL
VA M
tp828
asg57
I1999
sg43
VLANT
p829
sbag1
(g2
g3
NtRp830
(dp831
g49
V10.1016/j.plantsci.2006.02.004
p832
sg45
VPLANT SCI
p833
sg47
V170
p834
sg78
(lp835
(VITURRIAGA
VG
tp836
asg57
I2006
sg43
VLANT
p837
sbag1
(g2
g3
NtRp838
(dp839
g49
V10.1104/pp.102.4.1353
p840
sg45
VPLANT PHYSIOL
p841
sg47
V102
p842
sg78
(lp843
(VIUSEM
VN D
tp844
asg57
I1993
sg43
VLANT
p845
sbag1
(g2
g3
NtRp846
(dp847
g49
V10.1016/S0300-9084(02)00024-X
p848
sg45
VBIOCHIMIE
p849
sg47
V84
p850
sg78
(lp851
(VJEANNEAU
VM
tp852
asg57
I2002
sg43
V1127
p853
sbag1
(g2
g3
NtRp854
(dp855
g49
V10.1021/bi0483965
p856
sg45
VBIOCHEMISTRY
p857
sg47
V43
p858
sg78
(lp859
(VJIANG
VX Z
tp860
asg57
I2004
sg43
V15567
p861
sbag1
(g2
g3
NtRp862
(dp863
g49
Nsg45
VPLANT CELL PHYSIOL
p864
sg47
V36
p865
sg78
(lp866
(VJOH
VT
tp867
asg57
I1995
sg43
VLANT
p868
sbag1
(g2
g3
NtRp869
(dp870
g49
V10.1111/j.1365-3040.2004.01251.x
p871
sg45
VPLANT CELL ENVIRON
p872
sg47
V27
p873
sg78
(lp874
(VKALIFA
VY
tp875
asg57
I2004
sg43
VLANT
p876
sbag1
(g2
g3
NtRp877
(dp878
g49
Nsg45
VBIOCHEM J
p879
sg47
V381
p880
sg78
(lp881
(VKALIFA
VY
tp882
asg57
I2004
sg43
V373
p883
sbag1
(g2
g3
NtRp884
(dp885
g49
V10.1093/pcp/pcg006
p886
sg45
VPLANT CELL PHYSIOL
p887
sg47
V44
p888
sg78
(lp889
(VKARLSON
VD T
tp890
asg57
I2003
sg43
VLANT
p891
sbag1
(g2
g3
NtRp892
(dp893
g49
Nsg45
VTREE PHYSIOL
p894
sg47
V23
p895
sg78
(lp896
(VKARLSON
VD T
tp897
asg57
I2003
sg43
V759
p898
sbag1
(g2
g3
NtRp899
(dp900
g49
V10.1016/j.bbrc.2006.07.003
p901
sg45
VBIOCHEM BIOPH RES CO
p902
sg47
V348
p903
sg78
(lp904
(VKIKAWADA
VT
tp905
asg57
I2006
sg43
V56
p906
sbag1
(g2
g3
NtRp907
(dp908
g49
V10.1016/j.gene.2004.09.012
p909
sg45
VGENE
p910
sg47
V344
p911
sg78
(lp912
(VKIM
VH S
tp913
asg57
I2005
sg43
V115
p914
sbag1
(g2
g3
NtRp915
(dp916
g49
V10.1007/BF00027345
p917
sg45
VPLANT MOL BIOL
p918
sg47
V19
p919
sg78
(lp920
(VKIYOSUE
VT
tp921
asg57
I1992
sg43
VLANT
p922
sbag1
(g2
g3
NtRp923
(dp924
g49
V10.1104/pp.011171
p925
sg45
VPLANT PHYSIOL
p926
sg47
V131
p927
sg78
(lp928
(VKOAG
VM C
tp929
asg57
I2003
sg43
VLANT
p930
sbag1
(g2
g3
NtRp931
(dp932
g49
V10.1104/pp.108.118208
p933
sg45
VPLANT PHYSIOL
p934
sg47
V147
p935
sg78
(lp936
(VKOVACS
VD
tp937
asg57
I2008
sg43
VLANT
p938
sbag1
(g2
g3
NtRp939
(dp940
g49
V10.1016/0022-2836(82)90515-0
p941
sg45
VJ MOL BIOL
p942
sg47
V157
p943
sg78
(lp944
(VKYTE
VJ
tp945
asg57
I1982
sg43
V105
p946
sbag1
(g2
g3
NtRp947
(dp948
g49
V10.1007/s11248-007-9145-4
p949
sg45
VTRANSGENIC RES
p950
sg47
V17
p951
sg78
(lp952
(VLAL
VS
tp953
asg57
I2008
sg43
V651
p954
sbag1
(g2
g3
NtRp955
(dp956
g49
V10.1034/j.1399-3054.1999.100114.x
p957
sg45
VPHYSIOL PLANTARUM
p958
sg47
V107
p959
sg78
(lp960
(VLEVI
VA
tp961
asg57
I1999
sg43
VHYSIOL
p962
sbag1
(g2
g3
NtRp963
(dp964
g49
V10.1016/S0006-291X(05)80304-3
p965
sg45
VBIOCHEM BIOPH RES CO
p966
sg47
V183
p967
sg78
(lp968
(VLIN
VC T
tp969
asg57
I1992
sg43
V1103
p970
sbag1
(g2
g3
NtRp971
(dp972
g49
V10.1104/pp.94.3.1078
p973
sg45
VPLANT PHYSIOL
p974
sg47
V94
p975
sg78
(lp976
(VLIN
VC T
tp977
asg57
I1990
sg43
VLANT
p978
sbag1
(g2
g3
NtRp979
(dp980
g49
V10.1515/bchm3.1996.377.9.555
p981
sg45
VBIOL CHEM
p982
sg47
V377
p983
sg78
(lp984
(VLISSE
VT
tp985
asg57
I1996
sg43
V555
p986
sbag1
(g2
g3
NtRp987
(dp988
g49
V10.1007/s00299-007-0482-9
p989
sg45
VPLANT CELL REP
p990
sg47
V27
p991
sg78
(lp992
(VLUO
VK M
tp993
asg57
I2008
sg43
VLANT
p994
sbag1
(g2
g3
NtRp995
(dp996
g49
Nsg45
VJournal of Biological Research 
p997
sg47
V3
sg78
(lp998
(VMACRAE
VTHOMAS H
tp999
asg57
I2005
sg43
V3
sbag1
(g2
g3
NtRp1000
(dp1001
g49
V10.1104/pp.106.2.805
p1002
sg45
VPLANT PHYSIOL
p1003
sg47
V106
p1004
sg78
(lp1005
(VMAITRA
VN
tp1006
asg57
I1994
sg43
VLANT
p1007
sbag1
(g2
g3
NtRp1008
(dp1009
g49
V10.1104/pp.105.072967
p1010
sg45
VPLANT PHYSIOL
p1011
sg47
V140
p1012
sg78
(lp1013
(VMANFRE
VA J
tp1014
asg57
I2006
sg43
VLANT
p1015
sbag1
(g2
g3
NtRp1016
(dp1017
g49
Nsg45
VPLANTA
p1018
sg47
V199
p1019
sg78
(lp1020
(VMARTTILA
VS
tp1021
asg57
I1996
sg43
VLANTA
p1022
sbag1
(g2
g3
NtRp1023
(dp1024
g49
Nsg45
VMOL BIOL RE IN PRESS
p1025
sg47
Nsg78
(lp1026
(VMASKIN
VL
tp1027
asg57
I2008
sg43
Nsbag1
(g2
g3
NtRp1028
(dp1029
g49
Nsg45
VPLANT PHYSIOL
p1030
sg47
V115
p1031
sg78
(lp1032
(VMBEGUIE
VA
tp1033
asg57
I1997
sg43
VLANT
p1034
sbag1
(g2
g3
NtRp1035
(dp1036
g49
Nsg45
VCAN J BIOCHEM CELL B
p1037
sg47
V63
p1038
sg78
(lp1039
(VMCCUBBIN
VW D
tp1040
asg57
I1985
sg43
V803
p1041
sbag1
(g2
g3
NtRp1042
(dp1043
g49
V10.1016/j.jmb.2007.07.004
p1044
sg45
VJ MOL BIOL
p1045
sg47
V372
p1046
sg78
(lp1047
(VMESZAROS
VB
tp1048
asg57
I2007
sg43
V549
p1049
sbag1
(g2
g3
NtRp1050
(dp1051
g49
V10.1104/pp.107.1.177
p1052
sg45
VPLANT PHYSIOL
p1053
sg47
V107
p1054
sg78
(lp1055
(VMOONS
VA
tp1056
asg57
I1995
sg43
VLANT
p1057
sbag1
(g2
g3
NtRp1058
(dp1059
g49
V10.1023/A:1010607223533
p1060
sg45
VPLANT MOL BIOL
p1061
sg47
V45
p1062
sg78
(lp1063
(VMORENO-FONSECA
VL P
tp1064
asg57
I2001
sg43
VLANT
p1065
sbag1
(g2
g3
NtRp1066
(dp1067
g49
V10.1104/pp.106.079848
p1068
sg45
VPLANT PHYSIOL
p1069
sg47
V141
p1070
sg78
(lp1071
(VMOUILLON
VJ M
tp1072
asg57
I2006
sg43
VLANT
p1073
sbag1
(g2
g3
NtRp1074
(dp1075
g49
V10.1023/A:1005904219201
p1076
sg45
VPLANT MOL BIOL
p1077
sg47
V37
p1078
sg78
(lp1079
(VMTWISHA
VL
tp1080
asg57
I1998
sg43
VLANT
p1081
sbag1
(g2
g3
NtRp1082
(dp1083
g49
Nsg45
VEMBO J
p1084
sg47
V7
sg78
(lp1085
(VMUNDY
VJ
tp1086
asg57
I1988
sg43
V2279
p1087
sbag1
(g2
g3
NtRp1088
(dp1089
g49
V10.1104/pp.104.4.1439
p1090
sg45
VPLANT PHYSIOL
p1091
sg47
V104
p1092
sg78
(lp1093
(VMUTHALIF
VM M
tp1094
asg57
I1994
sg43
VLANT
p1095
sbag1
(g2
g3
NtRp1096
(dp1097
g49
V10.1104/pp.106.094581
p1098
sg45
VPLANT PHYSIOL
p1099
sg47
V144
p1100
sg78
(lp1101
(VNAKAYAMA
VK
tp1102
asg57
I2007
sg43
VLANT
p1103
sbag1
(g2
g3
NtRp1104
(dp1105
g49
V10.1104/pp.001925
p1106
sg45
VPlant Physiol
p1107
sg47
V129
p1108
sg78
(lp1109
(VNDONG
VCHRISTIAN
tp1110
asg57
I2002
sg43
Vlant
p1111
sbag1
(g2
g3
NtRp1112
(dp1113
g49
V10.1023/A:1006469128280
p1114
sg45
VPLANT MOL BIOL
p1115
sg47
V45
p1116
sg78
(lp1117
(VNYLANDER
VM
tp1118
asg57
I2001
sg43
VLANT
p1119
sbag1
(g2
g3
NtRp1120
(dp1121
g49
V10.1002/jms.1292
p1122
sg45
VJ MASS SPECTROM
p1123
sg47
V42
p1124
sg78
(lp1125
(VOLIVEIRA
VE
tp1126
asg57
I2007
sg43
V1485
p1127
sbag1
(g2
g3
NtRp1128
(dp1129
g49
V10.1186/1471-2164-5-89
p1130
sg45
VBMC GENOMICS
p1131
sg47
V5
sg78
(lp1132
(VOLIVER
VM J
tp1133
asg57
I2004
sg43
Nsbag1
(g2
g3
NtRp1134
(dp1135
g49
V10.1023/A:1026550808557
p1136
sg45
VPLANT ECOL
p1137
sg47
V151
p1138
sg78
(lp1139
(VOLIVER
VM J
tp1140
asg57
I2000
sg43
VLANT
p1141
sbag1
(g2
g3
NtRp1142
(dp1143
g49
V10.1023/A:1005897921567
p1144
sg45
VPLANT MOL BIOL
p1145
sg47
V35
p1146
sg78
(lp1147
(VPADMANABHAN
VV
tp1148
asg57
I1997
sg43
VLANT
p1149
sbag1
(g2
g3
NtRp1150
(dp1151
g49
V10.1016/S0168-9452(03)00165-1
p1152
sg45
VPLANT SCI
p1153
sg47
V165
p1154
sg78
(lp1155
(VPARK
VJ A
tp1156
asg57
I2003
sg43
VLANT
p1157
sbag1
(g2
g3
NtRp1158
(dp1159
g49
V10.1006/jmbi.1996.0221
p1160
sg45
VJ MOL BIOL
p1161
sg47
V257
p1162
sg78
(lp1163
(VPETERS
VJ
tp1164
asg57
I1996
sg43
V1031
p1165
sbag1
(g2
g3
NtRp1166
(dp1167
g49
V10.1104/pp.94.4.1682
p1168
sg45
VPLANT PHYSIOL
p1169
sg47
V94
p1170
sg78
(lp1171
(VPIATKOWSKI
VD
tp1172
asg57
I1990
sg43
VLANT
p1173
sbag1
(g2
g3
NtRp1174
(dp1175
g49
Nsg45
VJ BIOL CHEM
p1176
sg47
V266
p1177
sg78
(lp1178
(VPLANA
VM
tp1179
asg57
I1991
sg43
V22510
p1180
sbag1
(g2
g3
NtRp1181
(dp1182
g49
V10.1074/jbc.M910016199
p1183
sg45
VJ BIOL CHEM
p1184
sg47
V275
p1185
sg78
(lp1186
(VPOSAS
VF
tp1187
asg57
I2000
sg43
V17249
p1188
sbag1
(g2
g3
NtRp1189
(dp1190
g49
V10.1023/A:1006178220289
p1191
sg45
VPLANT MOL BIOL
p1192
sg47
V39
p1193
sg78
(lp1194
(VPRIETO-DAPENA
VP
tp1195
asg57
I1999
sg43
VLANT
p1196
sbag1
(g2
g3
NtRp1197
(dp1198
g49
V10.1639/0007-2745(2007)110[595:DIBAR]2.0.CO;2
p1199
sg45
VBRYOLOGIST
p1200
sg47
V110
p1201
sg78
(lp1202
(VPROCTOR
VM C F
tp1203
asg57
I2007
sg43
V595
p1204
sbag1
(g2
g3
NtRp1205
(dp1206
g49
V10.1023/B:PLAN.0000040903.66496.a4
p1207
sg45
VPLANT MOL BIOL
p1208
sg47
V54
p1209
sg78
(lp1210
(VPUHAKAINEN
VT
tp1211
asg57
I2004
sg43
VLANT
p1212
sbag1
(g2
g3
NtRp1213
(dp1214
g49
V10.1104/pp.104.047258
p1215
sg45
VPLANT PHYSIOL
p1216
sg47
V136
p1217
sg78
(lp1218
(VPUHAKAINEN
VT
tp1219
asg57
I2004
sg43
VLANT
p1220
sbag1
(g2
g3
NtRp1221
(dp1222
g49
V10.1111/j.1365-3040.2005.01317.x
p1223
sg45
VPLANT CELL ENVIRON
p1224
sg47
V28
p1225
sg78
(lp1226
(VREYES
VJ L
tp1227
asg57
I2005
sg43
VLANT
p1228
sbag1
(g2
g3
NtRp1229
(dp1230
g49
V10.1093/jxb/44.5.921
p1231
sg45
VJ EXP BOT
p1232
sg47
V44
p1233
sg78
(lp1234
(VREYNOLDS
VT L
tp1235
asg57
I1993
sg43
V921
p1236
sbag1
(g2
g3
NtRp1237
(dp1238
g49
V10.1016/j.plaphy.2004.09.009
p1239
sg45
VPLANT PHYSIOL BIOCH
p1240
sg47
V42
p1241
sg78
(lp1242
(VRICCARDI
VF
tp1243
asg57
I2004
sg43
VLANT
p1244
sbag1
(g2
g3
NtRp1245
(dp1246
g49
V10.1104/pp.117.4.1253
p1247
sg45
VPLANT PHYSIOL
p1248
sg47
V117
p1249
sg78
(lp1250
(VRICCARDI
VF
tp1251
asg57
I1998
sg43
VLANT
p1252
sbag1
(g2
g3
NtRp1253
(dp1254
g49
Nsg45
VPLANT PHYSIOL
p1255
sg47
V102
p1256
sg78
(lp1257
(VRIED
VJ L
tp1258
asg57
I1993
sg43
VLANT
p1259
sbag1
(g2
g3
NtRp1260
(dp1261
g49
V10.1073/pnas.0306154101
p1262
sg45
VP NATL ACAD SCI USA
p1263
sg47
V101
p1264
sg78
(lp1265
(VRIERA
VM
tp1266
asg57
I2004
sg43
V9879
p1267
sbag1
(g2
g3
NtRp1268
(dp1269
g49
V10.1046/j.1365-3040.1998.00306.x
p1270
sg45
VPLANT CELL ENVIRON
p1271
sg47
V21
p1272
sg78
(lp1273
(VRINNE
VP
tp1274
asg57
I1998
sg43
VLANT
p1275
sbag1
(g2
g3
NtRp1276
(dp1277
g49
V10.1007/s004250050740
p1278
sg45
VPLANTA
p1279
sg47
V209
p1280
sg78
(lp1281
(VRINNE
VP L H
tp1282
asg57
I1999
sg43
VLANTA
p1283
sbag1
(g2
g3
NtRp1284
(dp1285
g49
Nsg45
VPLANT CELL
p1286
sg47
V5
sg78
(lp1287
(VROBERTS
VJ K
tp1288
asg57
I1993
sg43
VLANT
p1289
sbag1
(g2
g3
NtRp1290
(dp1291
g49
V10.1007/BF00028850
p1292
sg45
VPLANT MOL BIOL
p1293
sg47
V26
p1294
sg78
(lp1295
(VROBERTSON
VM
tp1296
asg57
I1994
sg43
VLANT
p1297
sbag1
(g2
g3
NtRp1298
(dp1299
g49
V10.1016/S0981-9428(01)01318-3
p1300
sg45
VPLANT PHYSIOL BIOCH
p1301
sg47
V39
p1302
sg78
(lp1303
(VROMO
VS
tp1304
asg57
I2001
sg43
VLANT
p1305
sbag1
(g2
g3
NtRp1306
(dp1307
g49
V10.1007/s00425-005-0200-1
p1308
sg45
VPLANTA
p1309
sg47
V224
p1310
sg78
(lp1311
(VRORAT
VT
tp1312
asg57
I2006
sg43
VLANTA
p1313
sbag1
(g2
g3
NtRp1314
(dp1315
g49
V10.1007/s00425-003-1171-8
p1316
sg45
VPLANTA
p1317
sg47
V218
p1318
sg78
(lp1319
(VRORAT
VT
tp1320
asg57
I2004
sg43
VLANTA
p1321
sbag1
(g2
g3
NtRp1322
(dp1323
g49
V10.1007/s004380050254
p1324
sg45
VMOL GEN GENET
p1325
sg47
V252
p1326
sg78
(lp1327
(VROSSI
VM
tp1328
asg57
I1996
sg43
V489
p1329
sbag1
(g2
g3
NtRp1330
(dp1331
g49
Nsg45
VSEED SCI RES
p1332
sg47
V7
sg78
(lp1333
(VRUSSOUW
VP S
tp1334
asg57
I1997
sg43
V117
p1335
sbag1
(g2
g3
NtRp1336
(dp1337
g49
V10.1111/j.1365-313X.2005.02603.x
p1338
sg45
VPLANT J
p1339
sg47
V45
p1340
sg78
(lp1341
(VSAAVEDRA
VL
tp1342
asg57
I2006
sg43
VLANT
p1343
sbag1
(g2
g3
NtRp1344
(dp1345
g49
V10.1104/pp.105.062851
p1346
sg45
VPLANT PHYSIOL
p1347
sg47
V138
p1348
sg78
(lp1349
(VSALMI
VM L
tp1350
asg57
I2005
sg43
VLANT
p1351
sbag1
(g2
g3
NtRp1352
(dp1353
g49
V[10.1021/jf035216+, 10.1021/jf035216]
p1354
sg45
VJ AGR FOOD CHEM
p1355
sg47
V52
p1356
sg78
(lp1357
(VSANCHEZ-BALLESTA
VM T
tp1358
asg57
I2004
sg43
V1950
p1359
sbag1
(g2
g3
NtRp1360
(dp1361
g49
Nsg45
VJ LIPID RES
p1362
sg47
V33
p1363
sg78
(lp1364
(VSEGREST
VJ P
tp1365
asg57
I1992
sg43
V141
p1366
sbag1
(g2
g3
NtRp1367
(dp1368
g49
V10.1093/jxb/erj200
p1369
sg45
VJ EXP BOT
p1370
sg47
V57
p1371
sg78
(lp1372
(VSENTHIL-KUMAR
VM
tp1373
asg57
I2006
sg43
V2291
p1374
sbag1
(g2
g3
NtRp1375
(dp1376
g49
V10.1016/j.plaphy.2005.06.010
p1377
sg45
VPLANT PHYSIOL BIOCH
p1378
sg47
V43
p1379
sg78
(lp1380
(VSHEN
VG
tp1381
asg57
I2005
sg43
VLANT
p1382
sbag1
(g2
g3
NtRp1383
(dp1384
g49
V10.1007/s11103-004-4680-3
p1385
sg45
VPLANT MOL BIOL
p1386
sg47
V56
p1387
sg78
(lp1388
(VSHIH
VM D
tp1389
asg57
I2004
sg43
VLANT
p1390
sbag1
(g2
g3
NtRp1391
(dp1392
g49
V10.1016/S0958-1669(96)80007-3
p1393
sg45
VCURR OPIN BIOTECH
p1394
sg47
V7
sg78
(lp1395
(VSHINOZAKI
VK
tp1396
asg57
I1996
sg43
V161
p1397
sbag1
(g2
g3
NtRp1398
(dp1399
g49
V10.1104/pp.118.4.1181
p1400
sg45
VPLANT PHYSIOL
p1401
sg47
V118
p1402
sg78
(lp1403
(VSIDDIQUI
VN U
tp1404
asg57
I1998
sg43
VLANT
p1405
sbag1
(g2
g3
NtRp1406
(dp1407
g49
V10.1007/BF00019324
p1408
sg45
VPLANT MOL BIOL
p1409
sg47
V27
p1410
sg78
(lp1411
(VSILHAVY
VD
tp1412
asg57
I1995
sg43
VLANT
p1413
sbag1
(g2
g3
NtRp1414
(dp1415
g49
V10.1110/ps.051579205
p1416
sg45
VPROTEIN SCI
p1417
sg47
V14
p1418
sg78
(lp1419
(VSINGH
VS
tp1420
asg57
I2005
sg43
VROTEIN
p1421
sbag1
(g2
g3
NtRp1422
(dp1423
g49
V10.1016/S0168-9452(99)00247-2
p1424
sg45
VPLANT SCI
p1425
sg47
V155
p1426
sg78
(lp1427
(VSIVAMANI
VE
tp1428
asg57
I2000
sg43
VLANT
p1429
sbag1
(g2
g3
NtRp1430
(dp1431
g49
V10.1017/S0031182099006563
p1432
sg45
VPARASITOLOGY
p1433
sg47
V121
p1434
sg78
(lp1435
(VSOLOMON
VA
tp1436
asg57
I2000
sg43
VARASITOLOGY
p1437
sbag1
(g2
g3
NtRp1438
(dp1439
g49
V10.1104/pp.010521
p1440
sg45
VPLANT PHYSIOL
p1441
sg47
V128
p1442
sg78
(lp1443
(VSOULAGES
VJ L
tp1444
asg57
I2002
sg43
VLANT
p1445
sbag1
(g2
g3
NtRp1446
(dp1447
g49
V10.1104/pp.015891
p1448
sg45
VPLANT PHYSIOL
p1449
sg47
V131
p1450
sg78
(lp1451
(VSOULAGES
VJ L
tp1452
asg57
I2003
sg43
VLANT
p1453
sbag1
(g2
g3
NtRp1454
(dp1455
g49
V10.1007/s004250050424
p1456
sg45
VPLANTA
p1457
sg47
V206
p1458
sg78
(lp1459
(VSTACY
VR A P
tp1460
asg57
I1998
sg43
VLANTA
p1461
sbag1
(g2
g3
NtRp1462
(dp1463
g49
V10.1046/j.1365-313X.1999.00488.x
p1464
sg45
VPLANT J
p1465
sg47
V19
p1466
sg78
(lp1467
(VSTACY
VR A P
tp1468
asg57
I1999
sg43
VLANT
p1469
sbag1
(g2
g3
NtRp1470
(dp1471
g49
V10.1007/BF00022847
p1472
sg45
VEUPHYTICA
p1473
sg47
V92
p1474
sg78
(lp1475
(VSTANCA
VA M
tp1476
asg57
I1996
sg43
V215
p1477
sbag1
(g2
g3
NtRp1478
(dp1479
g49
V10.1038/79006
p1480
sg45
VNAT STRUCT BIOL
p1481
sg47
V7
sg78
(lp1482
(VSTETEFELD
VJ
tp1483
asg57
I2000
sg43
V772
p1484
sbag1
(g2
g3
NtRp1485
(dp1486
g49
V10.1006/prep.2000.1297
p1487
sg45
VPROTEIN EXPRES PURIF
p1488
sg47
V20
p1489
sg78
(lp1490
(VSVENSSON
VJ
tp1491
asg57
I2000
sg43
VROTEIN
p1492
sbag1
(g2
g3
NtRp1493
(dp1494
g49
V10.1023/A:1006106906345
p1495
sg45
VPLANT MOL BIOL
p1496
sg47
V39
p1497
sg78
(lp1498
(VSWIRE-CLARK
VG A
tp1499
asg57
I1999
sg43
VLANT
p1500
sbag1
(g2
g3
NtRp1501
(dp1502
g49
V10.1007/s11103-005-2081-x
p1503
sg45
VPLANT MOL BIOL
p1504
sg47
V59
p1505
sg78
(lp1506
(VTAI
VH H
tp1507
asg57
I2005
sg43
VLANT
p1508
sbag1
(g2
g3
NtRp1509
(dp1510
g49
V10.1016/j.femsle.2004.05.019
p1511
sg45
VFEMS MICROBIOL LETT
p1512
sg47
V236
p1513
sg78
(lp1514
(VTANAKA
VS
tp1515
asg57
I2004
sg43
V41
p1516
sbag1
(g2
g3
NtRp1517
(dp1518
g49
V10.1104/pp.118.1.1
p1519
sg45
VPLANT PHYSIOL
p1520
sg47
V118
p1521
sg78
(lp1522
(VTHOMASHOW
VM F
tp1523
asg57
I1998
sg43
VLANT
p1524
sbag1
(g2
g3
NtRp1525
(dp1526
g49
V10.1105/tpc.107.050104
p1527
sg45
VPLANT CELL
p1528
sg47
V19
p1529
sg78
(lp1530
(VTOLLETER
VD
tp1531
asg57
I2007
sg43
VLANT
p1532
sbag1
(g2
g3
NtRp1533
(dp1534
g49
V10.1016/j.febslet.2005.03.072
p1535
sg45
VFEBS LETT
p1536
sg47
V579
p1537
sg78
(lp1538
(VTOMPA
VP
tp1539
asg57
I2005
sg43
V3346
p1540
sbag1
(g2
g3
NtRp1541
(dp1542
g49
V10.1007/s10750-005-4239-6
p1543
sg45
VHYDROBIOLOGIA
p1544
sg47
V546
p1545
sg78
(lp1546
(VTUNNACLIFFE
VA
tp1547
asg57
I2005
sg43
V315
p1548
sbag1
(g2
g3
NtRp1549
(dp1550
g49
V10.1104/pp.126.4.1588
p1551
sg45
VPLANT PHYSIOL
p1552
sg47
V126
p1553
sg78
(lp1554
(VUKAJI
VN
tp1555
asg57
I2001
sg43
VLANT
p1556
sbag1
(g2
g3
NtRp1557
(dp1558
g49
V10.1093/nar/18.9.2826
p1559
sg45
VNUCLEIC ACIDS RES
p1560
sg47
V18
p1561
sg78
(lp1562
(VULRICH
VT U
tp1563
asg57
I1990
sg43
V2826
p1564
sbag1
(g2
g3
NtRp1565
(dp1566
g49
V10.1016/S0168-9452(98)00251-9
p1567
sg45
VPLANT SCI
p1568
sg47
V140
p1569
sg78
(lp1570
(VVAIDYANATHAN
VR
tp1571
asg57
I1999
sg43
VLANT
p1572
sbag1
(g2
g3
NtRp1573
(dp1574
g49
V10.1093/jexbot/52.360.1587
p1575
sg45
VJ EXP BOT
p1576
sg47
V52
p1577
sg78
(lp1578
(VVICIENT
VC M
tp1579
asg57
I2001
sg43
V1587
p1580
sbag1
(g2
g3
NtRp1581
(dp1582
g49
V10.1093/jexbot/51.348.1211
p1583
sg45
VJ EXP BOT
p1584
sg47
V51
p1585
sg78
(lp1586
(VVICIENT
VC M
tp1587
asg57
I2000
sg43
V1211
p1588
sbag1
(g2
g3
NtRp1589
(dp1590
g49
V10.1007/BF00028778
p1591
sg45
VPLANT MOL BIOL
p1592
sg47
V14
p1593
sg78
(lp1594
(VVILARDELL
VJ
tp1595
asg57
I1990
sg43
VLANT
p1596
sbag1
(g2
g3
NtRp1597
(dp1598
g49
Nsg45
VPLANT CELL PHYSIOL
p1599
sg47
V39
p1600
sg78
(lp1601
(VWANG
VC S
tp1602
asg57
I1998
sg43
VLANT
p1603
sbag1
(g2
g3
NtRp1604
(dp1605
g49
Nsg45
VBOT BULL ACAD SINICA
p1606
sg47
V44
p1607
sg78
(lp1608
(VWANG
VH J
tp1609
asg57
I2003
sg43
V123
p1610
sbag1
(g2
g3
NtRp1611
(dp1612
g49
V10.1111/j.1399-3054.2005.00454.x
p1613
sg45
VPHYSIOL PLANTARUM
p1614
sg47
V123
p1615
sg78
(lp1616
(VWANG
VH J
tp1617
asg57
I2005
sg43
VHYSIOL
p1618
sbag1
(g2
g3
NtRp1619
(dp1620
g49
V10.1002/pmic.200700259
p1621
sg45
VPROTEOMICS
p1622
sg47
V7
sg78
(lp1623
(VWANG
VW W
tp1624
asg57
I2007
sg43
VROTEOMICS
p1625
sbag1
(g2
g3
NtRp1626
(dp1627
g49
V10.1016/j.tplants.2004.03.006
p1628
sg45
VTRENDS PLANT SCI
p1629
sg47
V9
sg78
(lp1630
(VWANG
VW X
tp1631
asg57
I2004
sg43
V244
p1632
sbag1
(g2
g3
NtRp1633
(dp1634
g49
V10.1093/jxb/erh045
p1635
sg45
VJ EXP BOT
p1636
sg47
V55
p1637
sg78
(lp1638
(VWELLING
VA
tp1639
asg57
I2004
sg43
V507
p1640
sbag1
(g2
g3
NtRp1641
(dp1642
g49
V10.1002/dvg.1020150504
p1643
sg45
VDEV GENET
p1644
sg47
V15
p1645
sg78
(lp1646
(VWILLIAMS
VB A
tp1647
asg57
I1994
sg43
V415
p1648
sbag1
(g2
g3
NtRp1649
(dp1650
g49
Nsg45
VBioinformatics
p1651
sg47
V18
p1652
sg78
(lp1653
(VWISE
VMICHAEL J
tp1654
asg57
I2002
sg43
VS38
p1655
sbag1
(g2
g3
NtRp1656
(dp1657
g49
V10.1016/j.tplants.2003.10.012
p1658
sg45
VTRENDS PLANT SCI
p1659
sg47
V9
sg78
(lp1660
(VWISE
VM J
tp1661
asg57
I2004
sg43
V13
p1662
sbag1
(g2
g3
NtRp1663
(dp1664
g49
V10.1016/S0167-4838(00)00220-X
p1665
sg45
VBBA
p1666
sg47
V1544
p1667
sg78
(lp1668
(VWOLKERS
VW F
tp1669
asg57
I2001
sg43
V196
p1670
sbag1
(g2
g3
NtRp1671
(dp1672
g49
V10.1074/jbc.M705283200
p1673
sg45
VJ BIOL CHEM
p1674
sg47
V282
p1675
sg78
(lp1676
(VWOODS
VW S
tp1677
asg57
I2007
sg43
V34555
p1678
sbag1
(g2
g3
NtRp1679
(dp1680
g49
V10.1104/pp.102.1.303
p1681
sg45
VPLANT PHYSIOL
p1682
sg47
V102
p1683
sg78
(lp1684
(VWURTELE
VE S
tp1685
asg57
I1993
sg43
VLANT
p1686
sbag1
(g2
g3
NtRp1687
(dp1688
g49
Nsg45
VPLANT PHYSIOL
p1689
sg47
V110
p1690
sg78
(lp1691
(VXU
VD P
tp1692
asg57
I1996
sg43
VLANT
p1693
sbag1
(g2
g3
NtRp1694
(dp1695
g49
V10.1074/jbc.M008209200
p1696
sg45
VJ BIOL CHEM
p1697
sg47
V276
p1698
sg78
(lp1699
(VYALE
VJ
tp1700
asg57
I2001
sg43
V15996
p1701
sbag1
(g2
g3
NtRp1702
(dp1703
g49
Nsg45
VEMBO J
p1704
sg47
V12
p1705
sg78
(lp1706
(VYAMAGISHI
VM
tp1707
asg57
I1993
sg43
V625
p1708
sbag1
(g2
g3
NtRp1709
(dp1710
g49
V10.1104/pp.105.065458
p1711
sg45
VPLANT PHYSIOL
p1712
sg47
V139
p1713
sg78
(lp1714
(VYANG
VC Y
tp1715
asg57
I2005
sg43
VLANT
p1716
sbag1
(g2
g3
NtRp1717
(dp1718
g49
V10.1007/s00438-004-1066-9
p1719
sg45
VMOL GENET GENOMICS
p1720
sg47
V272
p1721
sg78
(lp1722
(VYANG
VL
tp1723
asg57
I2004
sg43
V433
p1724
sbag1
(g2
g3
NtRp1725
(dp1726
g49
V10.1111/j.1432-1033.1990.tb19193.x
p1727
sg45
VEUR J BIOCHEM
p1728
sg47
V192
p1729
sg78
(lp1730
(VYOSHIDA
VY
tp1731
asg57
I1990
sg43
V49
p1732
sbag1
(g2
g3
NtRp1733
(dp1734
g49
V10.1111/j.1744-7909.2005.00126.x
p1735
sg45
VJ INTEGR PLANT BIOL
p1736
sg47
V47
p1737
sg78
(lp1738
(VYU
VJ N
tp1739
asg57
I2005
sg43
V1372
p1740
sbag1
(g2
g3
NtRp1741
(dp1742
g49
V10.1023/A:1005860302313
p1743
sg45
VPLANT MOL BIOL
p1744
sg47
V35
p1745
sg78
(lp1746
(VZEGZOUTI
VH
tp1747
asg57
I1997
sg43
VLANT
p1748
sbag1
(g2
g3
NtRp1749
(dp1750
g49
Nsg45
VJ BIOCHEM
p1751
sg47
V127
p1752
sg78
(lp1753
(VZHANG
VL
tp1754
asg57
I2000
sg43
V611
p1755
sbag1
(g2
g3
NtRp1756
(dp1757
g49
V10.1104/pp.104.046367
p1758
sg45
VPLANT PHYSIOL
p1759
sg47
V136
p1760
sg78
(lp1761
(VZIMMERMANN
VP
tp1762
asg57
I2004
sg43
VLANT
p1763
sbasb.