ccopy_reg
_reconstructor
p1
(ctethne.classes.paper
Paper
p2
c__builtin__
object
p3
NtRp4
(dp5
S'publisherCity'
p6
VROCKVILLE
p7
sS'reprintAddress'
p8
VHanikenne, M (reprint author), Max Planck Inst Plant Mol Physiol, Met Homeostasis Grp, D-14476 Golm, Germany.
p9
sS'WC'
p10
VPlant Sciences
p11
sS'GA'
p12
V899AI
p13
sS'pageEnd'
p14
I446
sS'publisherAddress'
p15
V15501 MONONA DRIVE, ROCKVILLE, MD 20855 USA
p16
sS'documentType'
p17
VReview
p18
sS'subject'
p19
VPlant Sciences
p20
sS'isoSource'
p21
VPlant Physiol.
p22
sS'timesCited'
p23
(lp24
I51
aVZ9 53
p25
asS'PT'
p26
VJ
sS'title'
p27
VA Comparative Inventory Of Metal Transporters In The Green Alga Chlamydomonas Reinhardtii And The Red Alga Cyanidioschizon Merolae
p28
sS'ISSN'
p29
(lp30
V0032-0889
p31
aVJ9 PLANT PHYSIOL
p32
asS'authors_full'
p33
(lp34
(VHANIKENNE
VM
tp35
a(VKRAMER
VU
tp36
a(VDEMOULIN
VV
tp37
a(VBAURAIN
VD
tp38
asS'PG'
p39
I19
sS'PD'
p40
VFEB
p41
sS'pageStart'
p42
I428
sS'issue'
p43
I2
sS'RI'
p44
VKraemer, Ute/C-5025-2008
p45
sS'journal'
p46
VPLANT PHYSIOLOGY
p47
sS'volume'
p48
V137
p49
sS'doi'
p50
V10.1104/pp.104.054189
p51
sS'emailAddress'
p52
Vhanikenne@mpimp-golm.mpg.de
p53
sS'authorAddress'
p54
(lp55
VMax Planck Inst Plant Mol Physiol, Met Homeostasis Grp, D-14476 Golm, Germany.
p56
aVUniv Liege, Dept Life Sci, B-4000 Liege, Belgium.
p57
asS'date'
p58
I2005
sS'ER'
p59
V
sS'publisher'
p60
VAMER SOC PLANT BIOLOGISTS
p61
sS'authorKeywords'
p62
(lp63
VHYPERACCUMULATOR THLASPI-CAERULESCENS
p64
aVMITOCHONDRIAL ABC TRANSPORTER
p65
aVP-TYPE ATPASE
p66
aVSACCHAROMYCES-CEREVISIAE
p67
aVARABIDOPSIS-THALIANA
p68
aVZINC TRANSPORTERS
p69
aVSCHIZOSACCHAROMYCES-POMBE
p70
aVENDOPLASMIC-RETICULUM
p71
aVCYANIDIUM-CALDARIUM
p72
aVION TRANSPORTERS
p73
asS'language'
p74
VEnglish
p75
sS'wosid'
p76
VWOS:000227116900004
p77
sS'citationCount'
p78
I143
sS'authors_init'
p79
(lp80
(VHANIKENNE
VM
tp81
a(VKRAMER
VU
tp82
a(VDEMOULIN
VV
tp83
a(VBAURAIN
VD
tp84
asS'citedReferences'
p85
(lp86
g1
(g2
g3
NtRp87
(dp88
g50
V10.1093/hmg/8.5.743
p89
sg46
VHUM MOL GENET
p90
sg48
V8
sg79
(lp91
(VALLIKMETS
VR
tp92
asg58
I1999
sg42
V743
p93
sbag1
(g2
g3
NtRp94
(dp95
g50
V10.1046/j.1365-3040.2001.00666.x
p96
sg46
VPLANT CELL ENVIRON
p97
sg48
V24
p98
sg79
(lp99
(VASSUNCAO
VA G L
tp100
asg58
I2001
sg42
VLANT
p101
sbag1
(g2
g3
NtRp102
(dp103
g50
V10.1104/pp.126.2.696
p104
sg46
VPLANT PHYSIOL
p105
sg48
V126
p106
sg79
(lp107
(VAXELSEN
VK B
tp108
asg58
I2001
sg42
VLANT
p109
sbag1
(g2
g3
NtRp110
(dp111
g50
V10.1046/j.1365-313X.2003.01959.x
p112
sg46
VPLANT J
p113
sg48
V37
p114
sg79
(lp115
(VBECHER
VM
tp116
asg58
I2004
sg42
VLANT
p117
sbag1
(g2
g3
NtRp118
(dp119
g50
V10.1016/j.febslet.2004.05.036
p120
sg46
VFEBS LETT
p121
sg48
V569
p122
sg79
(lp123
(VBERNARD
VC
tp124
asg58
I2004
sg42
V140
p125
sbag1
(g2
g3
NtRp126
(dp127
g50
V10.1111/j.1529-8817.1995.tb02542.x
p128
sg46
VJ PHYCOL
p129
sg48
V31
p130
sg79
(lp131
(VBHATTACHARYA
VD
tp132
asg58
I1995
sg42
V489
p133
sbag1
(g2
g3
NtRp134
(dp135
g50
V10.1105/tpc.017541
p136
sg46
VPLANT CELL
p137
sg48
V15
p138
sg79
(lp139
(VBLAUDEZ
VD
tp140
asg58
I2003
sg42
VLANT
p141
sbag1
(g2
g3
NtRp142
(dp143
g50
V10.1074/jbc.M203145200
p144
sg46
VJ BIOL CHEM
p145
sg48
V277
p146
sg79
(lp147
(VBORRELLY
VG P M
tp148
asg58
I2002
sg42
V30394
p149
sbag1
(g2
g3
NtRp150
(dp151
g50
V10.1046/j.1365-3040.2003.00968.x
p152
sg46
VPLANT CELL ENVIRON
p153
sg48
V26
p154
sg79
(lp155
(VBOVET
VL
tp156
asg58
I2003
sg42
VLANT
p157
sbag1
(g2
g3
NtRp158
(dp159
g50
V10.1196/annals.1306.011
p160
sg46
VANN NY ACAD SCI
p161
sg48
V1012
p162
sg79
(lp163
(VBRESSLER
VJ P
tp164
asg58
I2004
sg42
V142
p165
sbag1
(g2
g3
NtRp166
(dp167
g50
V10.1666/0094-8373(2000)026<0386:BPNGNS>2.0.CO;2
p168
sg46
VPALEOBIOLOGY
p169
sg48
V26
p170
sg79
(lp171
(VBUTTERFIELD
VN J
tp172
asg58
I2000
sg42
VALEOBIOLOGY
p173
sbag1
(g2
g3
NtRp174
(dp175
g50
V10.1111/j.1095-8312.1982.tb02023.x
p176
sg46
VBIOL J LINN SOC
p177
sg48
V17
p178
sg79
(lp179
(VCAVALIERSMITH
VT
tp180
asg58
I1982
sg42
V289
p181
sbag1
(g2
g3
NtRp182
(dp183
g50
V10.1110/ps.0214502
p184
sg46
VPROTEIN SCI
p185
sg48
V11
p186
sg79
(lp187
(VCHEN
VC P
tp188
asg58
I2002
sg42
VROTEIN
p189
sbag1
(g2
g3
NtRp190
(dp191
g50
V10.1111/j.1365-294X.2004.02180.x
p192
sg46
VMOL ECOL
p193
sg48
V13
p194
sg79
(lp195
(VCINIGLIA
VC
tp196
asg58
I2004
sg42
V1827
p197
sbag1
(g2
g3
NtRp198
(dp199
g50
V10.1007/s004250000458
p200
sg46
VPLANTA
p201
sg48
V212
p202
sg79
(lp203
(VCLEMENS
VS
tp204
asg58
I2001
sg42
VLANTA
p205
sbag1
(g2
g3
NtRp206
(dp207
g50
V10.1046/j.1469-8137.2003.00811.x
p208
sg46
VNEW PHYTOL
p209
sg48
V159
p210
sg79
(lp211
(VCLEMENS
VS
tp212
asg58
I2003
sg42
V323
p213
sbag1
(g2
g3
NtRp214
(dp215
g50
V10.1074/jbc.M201031200
p216
sg46
VJ BIOL CHEM
p217
sg48
V277
p218
sg79
(lp219
(VCLEMENS
VS
tp220
asg58
I2002
sg42
V18215
p221
sbag1
(g2
g3
NtRp222
(dp223
g50
V10.1046/j.1469-8137.2003.00785.x
p224
sg46
VNEW PHYTOL
p225
sg48
V159
p226
sg79
(lp227
(VCOBBETT
VC S
tp228
asg58
I2003
sg42
V315
p229
sbag1
(g2
g3
NtRp230
(dp231
g50
V10.1074/jbc.M004611200
p232
sg46
VJ BIOL CHEM
p233
sg48
V275
p234
sg79
(lp235
(VCOHEN
VA
tp236
asg58
I2000
sg42
V33388
p237
sbag1
(g2
g3
NtRp238
(dp239
g50
Nsg46
VGENOME BIOL
p240
sg48
V3
sg79
(lp241
(VCONNOLLY
VE L
tp242
asg58
I2002
sg42
V1024
p243
sbag1
(g2
g3
NtRp244
(dp245
g50
V10.1016/S0014-5793(98)01560-9
p246
sg46
VFEBS LETT
p247
sg48
V441
p248
sg79
(lp249
(VCSERE
VP
tp250
asg58
I1998
sg42
V266
p251
sbag1
(g2
g3
NtRp252
(dp253
g50
V10.1038/35053080
p254
sg46
VNATURE
p255
sg48
V409
p256
sg79
(lp257
(VCURIE
VC
tp258
asg58
I2001
sg42
V346
p259
sbag1
(g2
g3
NtRp260
(dp261
g50
V10.1042/0264-6021:3470749
p262
sg46
VBIOCHEM J
p263
sg48
V347
p264
sg79
(lp265
(VCURIE
VC
tp266
asg58
I2000
sg42
V749
p267
sbag1
(g2
g3
NtRp268
(dp269
g50
V10.1016/B978-012352551-2/50004-4
p270
sg46
VABC PROTEINS BACTERI
p271
sg48
Nsg79
(lp272
(VDEAN
VM
tp273
asg58
I2003
sg42
V47
p274
sbag1
(g2
g3
NtRp275
(dp276
g50
V10.1038/ng0297-137
p277
sg46
VNAT GENET
p278
sg48
V15
p279
sg79
(lp280
(VDECOTTIGNIES
VA
tp281
asg58
I1997
sg42
V137
p282
sbag1
(g2
g3
NtRp283
(dp284
g50
V10.1023/A:1020771000746
p285
sg46
VBIOMETALS
p286
sg48
V16
p287
sg79
(lp288
(VDE
VFREITAS J
tp289
asg58
I2003
sg42
V185
p290
sbag1
(g2
g3
NtRp291
(dp292
g50
V10.1105/tpc.009134
p293
sg46
VPLANT CELL
p294
sg48
V15
p295
sg79
(lp296
(VDELHAIZE
VE
tp297
asg58
I2003
sg42
VLANT
p298
sbag1
(g2
g3
NtRp299
(dp300
g50
V10.1111/j.1365-313X.2004.02128.x
p301
sg46
VPLANT J
p302
sg48
V39
p303
sg79
(lp304
(VDIDONATO
VR J
tp305
asg58
I2004
sg42
VLANT
p306
sbag1
(g2
g3
NtRp307
(dp308
g50
V10.1111/j.1365-313X.2004.02143.x
p309
sg46
VPLANT J
p310
sg48
V39
p311
sg79
(lp312
(VDRAGER
VD B
tp313
asg58
I2004
sg42
VLANT
p314
sbag1
(g2
g3
NtRp315
(dp316
g50
V10.1007/s00424-003-1074-3
p317
sg46
VPFLUG ARCH EUR J PHY
p318
sg48
V447
p319
sg79
(lp320
(VEIDE
VD J
tp321
asg58
I2004
sg42
VFLUG
p322
sbag1
(g2
g3
NtRp323
(dp324
g50
Nsg46
VJ NUTR
p325
sg48
V133
p326
sg79
(lp327
(VEIDE
VD J
tp328
asg58
I2003
sg42
V15325
p329
sbag1
(g2
g3
NtRp330
(dp331
g50
V10.1146/annurev.nutr.18.1.441
p332
sg46
VANNU REV NUTR
p333
sg48
V18
p334
sg79
(lp335
(VEIDE
VD J
tp336
asg58
I1998
sg42
V441
p337
sbag1
(g2
g3
NtRp338
(dp339
g50
V10.1083/jcb.200401157
p340
sg46
VJ CELL BIOL
p341
sg48
V166
p342
sg79
(lp343
(VELLIS
VC D
tp344
asg58
I2004
sg42
V325
p345
sbag1
(g2
g3
NtRp346
(dp347
g50
V10.1016/S0966-842X(01)02098-4
p348
sg46
VTRENDS MICROBIOL
p349
sg48
V9
sg79
(lp350
(VFORBES
VJ R
tp351
asg58
I2001
sg42
V397
p352
sbag1
(g2
g3
NtRp353
(dp354
g50
V10.1016/0014-5793(90)80094-Y
p355
sg46
VFEBS LETT
p356
sg48
V260
p357
sg79
(lp358
(VFRANZEN
VL G
tp359
asg58
I1990
sg42
V165
p360
sbag1
(g2
g3
NtRp361
(dp362
g50
V10.1078/14344610260450082
p363
sg46
VPROTIST
p364
sg48
V153
p365
sg79
(lp366
(VFUHRMANN
VM
tp367
asg58
I2002
sg42
VROTIST
p368
sbag1
(g2
g3
NtRp369
(dp370
g50
V10.1023/A:1012988914300
p371
sg46
VBIOMETALS
p372
sg48
V14
p373
sg79
(lp374
(VGAITHER
VL A
tp375
asg58
I2001
sg42
V251
p376
sbag1
(g2
g3
NtRp377
(dp378
g50
V10.1073/pnas.96.9.5001
p379
sg46
VP NATL ACAD SCI USA
p380
sg48
V96
p381
sg79
(lp382
(VGHOSH
VM
tp383
asg58
I1999
sg42
V5001
p384
sbag1
(g2
g3
NtRp385
(dp386
g50
V10.1016/S0014-5793(04)00072-9
p387
sg46
VFEBS LETT
p388
sg48
V561
p389
sg79
(lp390
(VGRAVOT
VA
tp391
asg58
I2004
sg42
V22
p392
sbag1
(g2
g3
NtRp393
(dp394
g50
Nsg46
VHYDROBIOLOGIA
p395
sg48
V1
sg79
(lp396
(VGROSS
VW
tp397
asg58
I2000
sg42
V31
p398
sbag1
(g2
g3
NtRp399
(dp400
g50
V10.1016/S1369-5266(99)00053-9
p401
sg46
VCURR OPIN PLANT BIOL
p402
sg48
V3
sg79
(lp403
(VGROSSMAN
VA R
tp404
asg58
I2000
sg42
V132
p405
sbag1
(g2
g3
NtRp406
(dp407
g50
V10.1128/EC.2.6.1137-1150.2003
p408
sg46
VEUKARYOT CELL
p409
sg48
V2
sg79
(lp410
(VGROSSMAN
VA R
tp411
asg58
I2003
sg42
V1137
p412
sbag1
(g2
g3
NtRp413
(dp414
g50
V10.1046/j.1432-1033.2003.03620.x
p415
sg46
VEUR J BIOCHEM
p416
sg48
V270
p417
sg79
(lp418
(VGUELDRY
VO
tp419
asg58
I2003
sg42
V2486
p420
sbag1
(g2
g3
NtRp421
(dp422
g50
V10.1016/S0005-2736(00)00138-3
p423
sg46
VBBA
p424
sg48
V1465
p425
sg79
(lp426
(VGUERINOT
VM L
tp427
asg58
I2000
sg42
V190
p428
sbag1
(g2
g3
NtRp429
(dp430
g50
V10.1016/S1369-5266(99)80042-9
p431
sg46
VCURR OPIN PLANT BIOL
p432
sg48
V2
sg79
(lp433
(VGUERINOT
VM L
tp434
asg58
I1999
sg42
V244
p435
sbag1
(g2
g3
NtRp436
(dp437
g50
Nsg46
VPLANT PHYSIOL
p438
sg48
V104
p439
sg79
(lp440
(VGUERINOT
VM L
tp441
asg58
I1994
sg42
VLANT
p442
sbag1
(g2
g3
NtRp443
(dp444
g50
V10.1093/jxb/erg303
p445
sg46
VJ EXP BOT
p446
sg48
V54
p447
sg79
(lp448
(VHALL
VJ L
tp449
asg58
I2003
sg42
V2601
p450
sbag1
(g2
g3
NtRp451
(dp452
g50
V10.1046/j.1469-8137.2003.00788.x
p453
sg46
VNEW PHYTOL
p454
sg48
V159
p455
sg79
(lp456
(VHANIKENNE
VM
tp457
asg58
I2003
sg42
V331
p458
sbag1
(g2
g3
NtRp459
(dp460
g50
V10.1016/S0378-1097(01)00043-X
p461
sg46
VFEMS MICROBIOL LETT
p462
sg48
V196
p463
sg79
(lp464
(VHANIKENNE
VM
tp465
asg58
I2001
sg42
V107
p466
sbag1
(g2
g3
NtRp467
(dp468
g50
Nsg46
VIN PRESS PLANT CELL
p469
sg48
Nsg79
(lp470
(VHANIKENNE
VM
tp471
asg58
I2005
sg42
Nsbag1
(g2
g3
NtRp472
(dp473
g50
Nsg46
VCHLAMYDOMONAS SOURCE
p474
sg48
Nsg79
(lp475
(VHARRIS
VE
tp476
asg58
I1989
sg42
Nsbag1
(g2
g3
NtRp477
(dp478
g50
V10.1146/annurev.arplant.52.1.363
p479
sg46
VANNU REV PLANT PHYS
p480
sg48
V52
p481
sg79
(lp482
(VHARRIS
VE H
tp483
asg58
I2001
sg42
V363
p484
sbag1
(g2
g3
NtRp485
(dp486
g50
V10.1104/pp.013060
p487
sg46
VPLANT PHYSIOL
p488
sg48
V130
p489
sg79
(lp490
(VHERBIK
VA
tp491
asg58
I2002
sg42
VLANT
p492
sbag1
(g2
g3
NtRp493
(dp494
g50
V10.1104/pp.124.1.125
p495
sg46
VPLANT PHYSIOL
p496
sg48
V124
p497
sg79
(lp498
(VHIRSCHI
VK D
tp499
asg58
I2000
sg42
VLANT
p500
sbag1
(g2
g3
NtRp501
(dp502
g50
V10.1073/pnas.93.16.8782
p503
sg46
VP NATL ACAD SCI USA
p504
sg48
V93
p505
sg79
(lp506
(VHIRSCHI
VK D
tp507
asg58
I1996
sg42
V8782
p508
sbag1
(g2
g3
NtRp509
(dp510
g50
Nsg46
VABC POTEINS BACTERIA
p511
sg48
Nsg79
(lp512
(VHOLLAND
VI B
tp513
asg58
I2003
sg42
Nsbag1
(g2
g3
NtRp514
(dp515
g50
V10.1104/pp.98.1.127
p516
sg46
VPLANT PHYSIOL
p517
sg48
V98
p518
sg79
(lp519
(VHOWE
VG
tp520
asg58
I1992
sg42
VLANT
p521
sbag1
(g2
g3
NtRp522
(dp523
g50
V10.1016/S0168-9452(01)00501-5
p524
sg46
VPLANT SCI
p525
sg48
V161
p526
sg79
(lp527
(VHU
VS X
tp528
asg58
I2001
sg42
VLANT
p529
sbag1
(g2
g3
NtRp530
(dp531
g50
V10.1105/tpc.020487
p532
sg46
VPLANT CELL
p533
sg48
V16
p534
sg79
(lp535
(VHUSSAIN
VD
tp536
asg58
I2004
sg42
VLANT
p537
sbag1
(g2
g3
NtRp538
(dp539
g50
V10.1046/j.1365-313X.2001.01287.x
p540
sg46
VPLANT J
p541
sg48
V30
p542
sg79
(lp543
(VIM
VC S
tp544
asg58
I2002
sg42
VLANT
p545
sbag1
(g2
g3
NtRp546
(dp547
g50
V10.1128/EC.2.2.362.379.2003
p548
sg46
VEUKARYOT CELL
p549
sg48
V2
sg79
(lp550
(VKATHIR
VP
tp551
asg58
I2003
sg42
V362
p552
sbag1
(g2
g3
NtRp553
(dp554
g50
V10.1146/annurev.arplant.49.1.397
p555
sg46
VANNU REV PLANT PHYS
p556
sg48
V49
p557
sg79
(lp558
(VKERFELD
VC A
tp559
asg58
I1998
sg42
V397
p560
sbag1
(g2
g3
NtRp561
(dp562
g50
V10.1111/j.1365-313X.2004.02126.x
p563
sg46
VPLANT J
p564
sg48
V39
p565
sg79
(lp566
(VKIM
VD
tp567
asg58
I2004
sg42
VLANT
p568
sbag1
(g2
g3
NtRp569
(dp570
g50
V10.1093/emboj/18.14.3981
p571
sg46
VEMBO J
p572
sg48
V18
p573
sg79
(lp574
(VKISPAL
VG
tp575
asg58
I1999
sg42
V3981
p576
sbag1
(g2
g3
NtRp577
(dp578
g50
V10.1016/S0014-5793(97)01414-2
p579
sg46
VFEBS LETT
p580
sg48
V418
p581
sg79
(lp582
(VKISPAL
VG
tp583
asg58
I1997
sg42
V346
p584
sbag1
(g2
g3
NtRp585
(dp586
g50
V10.1016/S0014-5793(02)02767-9
p587
sg46
VFEBS LETT
p588
sg48
V520
p589
sg79
(lp590
(VKLEIN
VM
tp591
asg58
I2002
sg42
V63
p592
sbag1
(g2
g3
NtRp593
(dp594
g50
V10.1111/j.1365-313X.2004.02146.x
p595
sg46
VPLANT J
p596
sg48
V39
p597
sg79
(lp598
(VKOIKE
VS
tp599
asg58
I2004
sg42
VLANT
p600
sbag1
(g2
g3
NtRp601
(dp602
g50
V10.1007/s00425-002-0890-6
p603
sg46
VPLANTA
p604
sg48
V216
p605
sg79
(lp606
(VKOLUKISAOGLU
VH U
tp607
asg58
I2002
sg42
VLANTA
p608
sbag1
(g2
g3
NtRp609
(dp610
g50
V10.1006/jmbi.2000.4315
p611
sg46
VJ MOL BIOL
p612
sg48
V305
p613
sg79
(lp614
(VKROGH
VA
tp615
asg58
I2001
sg42
V567
p616
sbag1
(g2
g3
NtRp617
(dp618
g50
V10.1002/(SICI)1521-1878(199804)20:4<344::AID-BIES11>3.0.CO;2-2
p619
sg46
VBIOESSAYS
p620
sg48
V20
p621
sg79
(lp622
(VKUROIWA
VT
tp623
asg58
I1998
sg42
V344
p624
sbag1
(g2
g3
NtRp625
(dp626
g50
V10.1105/tpc.13.1.89
p627
sg46
VPLANT CELL
p628
sg48
V13
p629
sg79
(lp630
(VKUSHNIR
VS
tp631
asg58
I2001
sg42
VLANT
p632
sbag1
(g2
g3
NtRp633
(dp634
g50
V10.1128/EC.1.5.736-757.2002
p635
sg46
VEUKARYOT CELL
p636
sg48
V1
sg79
(lp637
(VLA
VFONTAINE S
tp638
asg58
I2002
sg42
V736
p639
sbag1
(g2
g3
NtRp640
(dp641
g50
V10.1093/jexbot/51.342.71
p642
sg46
VJ EXP BOT
p643
sg48
V51
p644
sg79
(lp645
(VLASAT
VM M
tp646
asg58
I2000
sg42
V71
p647
sbag1
(g2
g3
NtRp648
(dp649
g50
Nsg46
VGENETICS
p650
sg48
V151
p651
sg79
(lp652
(VLEFEBVRE
VP A
tp653
asg58
I1999
sg42
V9
sbag1
(g2
g3
NtRp654
(dp655
g50
V10.1074/jbc.272.45.28485
p656
sg46
VJ BIOL CHEM
p657
sg48
V272
p658
sg79
(lp659
(VLI
VL T
tp660
asg58
I1997
sg42
V28485
p661
sbag1
(g2
g3
NtRp662
(dp663
g50
V10.1073/pnas.94.1.42
p664
sg46
VP NATL ACAD SCI USA
p665
sg48
V94
p666
sg79
(lp667
(VLI
VZ S
tp668
asg58
I1997
sg42
V42
p669
sbag1
(g2
g3
NtRp670
(dp671
g50
V10.1074/jbc.M108923200
p672
sg46
VJ BIOL CHEM
p673
sg48
V276
p674
sg79
(lp675
(VLUK
VE E C
tp676
asg58
I2001
sg42
V47556
p677
sbag1
(g2
g3
NtRp678
(dp679
g50
V10.1093/emboj/19.12.2845
p680
sg46
VEMBO J
p681
sg48
V19
p682
sg79
(lp683
(VMACDIARMID
VC W
tp684
asg58
I2000
sg42
V2845
p685
sbag1
(g2
g3
NtRp686
(dp687
g50
V10.1007/s00424-003-1141-9
p688
sg46
VPFLUG ARCH EUR J PHY
p689
sg48
V447
p690
sg79
(lp691
(VMACKENZIE
VB
tp692
asg58
I2004
sg42
VFLUG
p693
sbag1
(g2
g3
NtRp694
(dp695
g50
V10.1007/s004250100661
p696
sg46
VPLANTA
p697
sg48
V214
p698
sg79
(lp699
(VMARTINOIA
VE
tp700
asg58
I2002
sg42
VLANTA
p701
sbag1
(g2
g3
NtRp702
(dp703
g50
V10.1104/pp.126.4.1646
p704
sg46
VPLANT PHYSIOL
p705
sg48
V126
p706
sg79
(lp707
(VMASER
VP
tp708
asg58
I2001
sg42
VLANT
p709
sbag1
(g2
g3
NtRp710
(dp711
g50
V10.1038/nature02398
p712
sg46
VNATURE
p713
sg48
V428
p714
sg79
(lp715
(VMATSUZAKI
VM
tp716
asg58
I2004
sg42
V653
p717
sbag1
(g2
g3
NtRp718
(dp719
g50
V10.1111/j.1365-2958.1993.tb00943.x
p720
sg46
VMOL MICROBIOL
p721
sg48
V10
p722
sg79
(lp723
(VMCGOWAN
VS J
tp724
asg58
I1993
sg42
V713
p725
sbag1
(g2
g3
NtRp726
(dp727
g50
V10.1016/S1097-2765(00)80425-6
p728
sg46
VMOL CELL
p729
sg48
V5
sg79
(lp730
(VMCKIE
VA T
tp731
asg58
I2000
sg42
V299
p732
sbag1
(g2
g3
NtRp733
(dp734
g50
Nsg46
VMOL BIOL CHLOROPLAST
p735
sg48
Nsg79
(lp736
(VMERCHANT
VS
tp737
asg58
I1998
sg42
V597
p738
sbag1
(g2
g3
NtRp739
(dp740
g50
V10.1046/j.1365-313X.2003.01790.x
p741
sg46
VPLANT J
p742
sg48
V35
p743
sg79
(lp744
(VMILLS
VR F
tp745
asg58
I2003
sg42
VLANT
p746
sbag1
(g2
g3
NtRp747
(dp748
g50
V10.1074/jbc.275.23.17536
p749
sg46
VJ BIOL CHEM
p750
sg48
V275
p751
sg79
(lp752
(VMITSUHASHI
VN
tp753
asg58
I2000
sg42
V17536
p754
sbag1
(g2
g3
NtRp755
(dp756
g50
V10.1038/35011054
p757
sg46
VNATURE
p758
sg48
V405
p759
sg79
(lp760
(VMOREIRA
VD
tp761
asg58
I2000
sg42
V69
p762
sbag1
(g2
g3
NtRp763
(dp764
g50
V10.1016/S0923-2508(01)01260-8
p765
sg46
VRES MICROBIOL
p766
sg48
V152
p767
sg79
(lp768
(VMOREIRA
VD
tp769
asg58
I2001
sg42
V771
p770
sbag1
(g2
g3
NtRp771
(dp772
g50
V10.1105/tpc.010420
p773
sg46
VPLANT CELL
p774
sg48
V14
p775
sg79
(lp776
(VMOSELEY
VJ L
tp777
asg58
I2002
sg42
VLANT
p778
sbag1
(g2
g3
NtRp779
(dp780
g50
V10.1093/emboj/cdf666
p781
sg46
VEMBO J
p782
sg48
V21
p783
sg79
(lp784
(VMOSELEY
VJ L
tp785
asg58
I2002
sg42
V6709
p786
sbag1
(g2
g3
NtRp787
(dp788
g50
V10.1023/A:1022563600525
p789
sg46
VBIOMETALS
p790
sg48
V16
p791
sg79
(lp792
(VNAGASAKA
VS
tp793
asg58
I2003
sg42
V465
p794
sbag1
(g2
g3
NtRp795
(dp796
g50
V10.1023/B:BIOM.0000018403.37716.ff
p797
sg46
VBIOMETALS
p798
sg48
V17
p799
sg79
(lp800
(VNAGASAKA
VS
tp801
asg58
I2004
sg42
V177
p802
sbag1
(g2
g3
NtRp803
(dp804
g50
V10.1016/S0168-6445(03)00048-2
p805
sg46
VFEMS MICROBIOL REV
p806
sg48
V27
p807
sg79
(lp808
(VNIES
VD H
tp809
asg58
I2003
sg42
V313
p810
sbag1
(g2
g3
NtRp811
(dp812
g50
V10.1007/s00239-002-2419-9
p813
sg46
VJ MOL EVOL
p814
sg48
V56
p815
sg79
(lp816
(VNOZAKI
VH
tp817
asg58
I2003
sg42
V485
p818
sbag1
(g2
g3
NtRp819
(dp820
g50
V10.1093/nar/26.22.5190
p821
sg46
VNUCLEIC ACIDS RES
p822
sg48
V26
p823
sg79
(lp824
(VOHTA
VN
tp825
asg58
I1998
sg42
V5190
p826
sbag1
(g2
g3
NtRp827
(dp828
g50
V10.1093/dnares/10.2.67
p829
sg46
VDNA RES
p830
sg48
V10
p831
sg79
(lp832
(VOHTA
VN
tp833
asg58
I2003
sg42
V67
p834
sbag1
(g2
g3
NtRp835
(dp836
g50
Nsg46
VEMBO J
p837
sg48
V11
p838
sg79
(lp839
(VORTIZ
VD F
tp840
asg58
I1992
sg42
V3491
p841
sbag1
(g2
g3
NtRp842
(dp843
g50
Nsg46
VJ BIOL CHEM
p844
sg48
V270
p845
sg79
(lp846
(VORTIZ
VD F
tp847
asg58
I1995
sg42
V4721
p848
sbag1
(g2
g3
NtRp849
(dp850
g50
Nsg46
VEVOLUTIONARY PATHWAY
p851
sg48
Nsg79
(lp852
(VOTT
VF D
tp853
asg58
I1994
sg42
V113
p854
sbag1
(g2
g3
NtRp855
(dp856
g50
V10.1007/s00424-003-1070-7
p857
sg46
VPFLUG ARCH EUR J PHY
p858
sg48
V447
p859
sg79
(lp860
(VPALMITER
VR D
tp861
asg58
I2004
sg42
VFLUG
p862
sbag1
(g2
g3
NtRp863
(dp864
g50
V10.1007/s002329900192
p865
sg46
VJ MEMBRANE BIOL
p866
sg48
V156
p867
sg79
(lp868
(VPAULSEN
VI T
tp869
asg58
I1997
sg42
V99
p870
sbag1
(g2
g3
NtRp871
(dp872
g50
V10.1073/pnas.97.9.4956
p873
sg46
VP NATL ACAD SCI USA
p874
sg48
V97
p875
sg79
(lp876
(VPENCE
VN S
tp877
asg58
I2000
sg42
V4956
p878
sbag1
(g2
g3
NtRp879
(dp880
g50
V10.1073/pnas.171039798
p881
sg46
VP NATL ACAD SCI USA
p882
sg48
V98
p883
sg79
(lp884
(VPERSANS
VM W
tp885
asg58
I2001
sg42
V9995
p886
sbag1
(g2
g3
NtRp887
(dp888
g50
V10.1007/s00424-003-1092-1
p889
sg46
VPFLUG ARCH EUR J PHY
p890
sg48
V447
p891
sg79
(lp892
(VPETRIS
VM J
tp893
asg58
I2004
sg42
VFLUG
p894
sbag1
(g2
g3
NtRp895
(dp896
g50
Nsg46
VPHYTOCHEMISTRY
p897
sg48
V30
p898
sg79
(lp899
(VPICE
VN T
tp900
asg58
I1991
sg42
VHYTOCHEMISTRY
p901
sbag1
(g2
g3
NtRp902
(dp903
g50
V10.1074/jbc.274.8.4481
p904
sg46
VJ BIOL CHEM
p905
sg48
V274
p906
sg79
(lp907
(VRADISKY
VD
tp908
asg58
I1999
sg42
V4481
p909
sbag1
(g2
g3
NtRp910
(dp911
g50
V10.1016/B978-012352551-2/50018-4
p912
sg46
VABC PROTEINS BACTERI
p913
sg48
Nsg79
(lp914
(VREA
VP A
tp915
asg58
I2003
sg42
V335
p916
sbag1
(g2
g3
NtRp917
(dp918
g50
V10.1146/annurev.arplant.49.1.727
p919
sg46
VANNU REV PLANT PHYS
p920
sg48
V49
p921
sg79
(lp922
(VREA
VP A
tp923
asg58
I1998
sg42
V727
p924
sbag1
(g2
g3
NtRp925
(dp926
g50
V10.1104/pp.103.037572
p927
sg46
VPLANT PHYSIOL
p928
sg48
V135
p929
sg79
(lp930
(VROBERTS
VL A
tp931
asg58
I2004
sg42
VLANT
p932
sbag1
(g2
g3
NtRp933
(dp934
g50
Nsg46
VMOL BIOL CHLOROPLAST
p935
sg48
V7
sg79
(lp936
(VROCHAIX
VJ D
tp937
asg58
I1998
sg42
Nsbag1
(g2
g3
NtRp938
(dp939
g50
V10.1016/j.resmic.2003.12.004
p940
sg46
VRES MICROBIOL
p941
sg48
V155
p942
sg79
(lp943
(VROSAKIS
VA
tp944
asg58
I2004
sg42
V201
p945
sbag1
(g2
g3
NtRp946
(dp947
g50
Nsg46
VPLANT PHYSIOL
p948
sg48
V107
p949
sg79
(lp950
(VSALT
VD E
tp951
asg58
I1995
sg42
VLANT
p952
sbag1
(g2
g3
NtRp953
(dp954
g50
V10.1074/jbc.M313321200
p955
sg46
VJ BIOL CHEM
p956
sg48
V279
p957
sg79
(lp958
(VSANCENON
VV
tp959
asg58
I2004
sg42
V15348
p960
sbag1
(g2
g3
NtRp961
(dp962
g50
V10.1023/A:1022345507112
p963
sg46
VPLANT MOL BIOL
p964
sg48
V51
p965
sg79
(lp966
(VSANCENON
VV
tp967
asg58
I2003
sg42
VLANT
p968
sbag1
(g2
g3
NtRp969
(dp970
g50
V10.1074/jbc.M103104200
p971
sg46
VJ BIOL CHEM
p972
sg48
V276
p973
sg79
(lp974
(VSANCHEZ-FERNANDEZ
VR
tp975
asg58
I2001
sg42
V30231
p976
sbag1
(g2
g3
NtRp977
(dp978
g50
V10.1007/BF00429401
p979
sg46
VARCH MICROBIOL
p980
sg48
V134
p981
sg79
(lp982
(VSANDMANN
VG
tp983
asg58
I1983
sg42
V23
p984
sbag1
(g2
g3
NtRp985
(dp986
g50
V10.1074/jbc.M311799200
p987
sg46
VJ BIOL CHEM
p988
sg48
V279
p989
sg79
(lp990
(VSCHAAF
VG
tp991
asg58
I2004
sg42
V9091
p992
sbag1
(g2
g3
NtRp993
(dp994
g50
Nsg46
VEVOLUTIONARY PATHWAY
p995
sg48
Nsg79
(lp996
(VSECKBACH
VJ
tp997
asg58
I1994
sg42
V99
p998
sbag1
(g2
g3
NtRp999
(dp1000
g50
V10.1128/EC.1.3.391-400.2002
p1001
sg46
VEUKARYOT CELL
p1002
sg48
V1
sg79
(lp1003
(VSHARMA
VK G
tp1004
asg58
I2002
sg42
V391
p1005
sbag1
(g2
g3
NtRp1006
(dp1007
g50
V10.1093/emboj/18.14.3973
p1008
sg46
VEMBO J
p1009
sg48
V18
p1010
sg79
(lp1011
(VSHAUL
VO
tp1012
asg58
I1999
sg42
V3973
p1013
sbag1
(g2
g3
NtRp1014
(dp1015
g50
V10.1105/tpc.011817
p1016
sg46
VPLANT CELL
p1017
sg48
V15
p1018
sg79
(lp1019
(VSHIKANAI
VT
tp1020
asg58
I2003
sg42
VLANT
p1021
sbag1
(g2
g3
NtRp1022
(dp1023
g50
V10.1104/pp.016899
p1024
sg46
VPLANT PHYSIOL
p1025
sg48
V131
p1026
sg79
(lp1027
(VSHRAGER
VJ
tp1028
asg58
I2003
sg42
VLANT
p1029
sbag1
(g2
g3
NtRp1030
(dp1031
g50
V10.1104/pp.010807
p1032
sg46
VPLANT PHYSIOL
p1033
sg48
V127
p1034
sg79
(lp1035
(VSILFLOW
VC D
tp1036
asg58
I2001
sg42
VLANT
p1037
sbag1
(g2
g3
NtRp1038
(dp1039
g50
Nsg46
VCHLOROPLASTS MITOCHO
p1040
sg48
Nsg79
(lp1041
(VSILFLOW
VC D
tp1042
asg58
I1998
sg42
V25
p1043
sbag1
(g2
g3
NtRp1044
(dp1045
g50
V10.1038/nbt850
p1046
sg46
VNAT BIOTECHNOL
p1047
sg48
V21
p1048
sg79
(lp1049
(VSONG
VW Y
tp1050
asg58
I2003
sg42
V914
p1051
sbag1
(g2
g3
NtRp1052
(dp1053
g50
V10.1073/pnas.93.10.5105
p1054
sg46
VP NATL ACAD SCI USA
p1055
sg48
V93
p1056
sg79
(lp1057
(VSUPEK
VF
tp1058
asg58
I1996
sg42
V5105
p1059
sbag1
(g2
g3
NtRp1060
(dp1061
g50
Nsg46
VJ BIOL CHEM
p1062
sg48
V269
p1063
sg79
(lp1064
(VSZCZYPKA
VM S
tp1065
asg58
I1994
sg42
V22853
p1066
sbag1
(g2
g3
NtRp1067
(dp1068
g50
V10.1016/S0005-2736(03)00048-8
p1069
sg46
VBBA
p1070
sg48
V1611
p1071
sg79
(lp1072
(VTAYLOR
VK M
tp1073
asg58
I2003
sg42
V16
p1074
sbag1
(g2
g3
NtRp1075
(dp1076
g50
V10.1042/BJ20031183
p1077
sg46
VBIOCHEM J
p1078
sg48
V377
p1079
sg79
(lp1080
(VTAYLOR
VK M
tp1081
asg58
I2004
sg42
V131
p1082
sbag1
(g2
g3
NtRp1083
(dp1084
g50
V10.1042/BJ20030478
p1085
sg46
VBIOCHEM J
p1086
sg48
V375
p1087
sg79
(lp1088
(VTAYLOR
VK M
tp1089
asg58
I2003
sg42
V51
p1090
sbag1
(g2
g3
NtRp1091
(dp1092
g50
V10.1046/j.1365-313X.2003.01760.x
p1093
sg46
VPLANT J
p1094
sg48
V34
p1095
sg79
(lp1096
(VTHOMINE
VS
tp1097
asg58
I2003
sg42
VLANT
p1098
sbag1
(g2
g3
NtRp1099
(dp1100
g50
V10.1073/pnas.97.9.4991
p1101
sg46
VP NATL ACAD SCI USA
p1102
sg48
V97
p1103
sg79
(lp1104
(VTHOMINE
VS
tp1105
asg58
I2000
sg42
V4991
p1106
sbag1
(g2
g3
NtRp1107
(dp1108
g50
V10.1046/j.1365-313X.1998.00076.x
p1109
sg46
VPLANT J
p1110
sg48
V13
p1111
sg79
(lp1112
(VTOMMASINI
VR
tp1113
asg58
I1998
sg42
VLANT
p1114
sbag1
(g2
g3
NtRp1115
(dp1116
g50
Nsg46
VALGAE INTRO PHYCOLOG
p1117
sg48
Nsg79
(lp1118
(VVAN
VD E N HOEK C
tp1119
asg58
I1995
sg42
Nsbag1
(g2
g3
NtRp1120
(dp1121
g50
V10.1104/pp.119.3.1047
p1122
sg46
VPLANT PHYSIOL
p1123
sg48
V119
p1124
sg79
(lp1125
(VVAN
VD E R ZAAL B J
tp1126
asg58
I1999
sg42
VLANT
p1127
sbag1
(g2
g3
NtRp1128
(dp1129
g50
V10.1104/pp.92.4.1086
p1130
sg46
VPLANT PHYSIOL
p1131
sg48
V92
p1132
sg79
(lp1133
(VVOGELILANGE
VR
tp1134
asg58
I1990
sg42
VLANT
p1135
sbag1
(g2
g3
NtRp1136
(dp1137
g50
Nsg46
VPLANT J
p1138
sg48
V37
p1139
sg79
(lp1140
(VWEBER
VM
tp1141
asg58
I2004
sg42
VLANT
p1142
sbag1
(g2
g3
NtRp1143
(dp1144
g50
V10.1016/S0005-2736(00)00133-4
p1145
sg46
VBBA
p1146
sg48
V1465
p1147
sg79
(lp1148
(VWILLIAMS
VL E
tp1149
asg58
I2000
sg42
V104
p1150
sbag1
(g2
g3
NtRp1151
(dp1152
g50
V10.1073/pnas.242379899
p1153
sg46
VP NATL ACAD SCI USA
p1154
sg48
V99
p1155
sg79
(lp1156
(VYOON
VH S
tp1157
asg58
I2002
sg42
V15507
p1158
sbag1
(g2
g3
NtRp1159
(dp1160
g50
V10.1073/pnas.93.6.2454
p1161
sg46
VP NATL ACAD SCI USA
p1162
sg48
V93
p1163
sg79
(lp1164
(VZHAO
VH
tp1165
asg58
I1996
sg42
V2454
p1166
sbag1
(g2
g3
NtRp1167
(dp1168
g50
Nsg46
VJ BIOL CHEM
p1169
sg48
V271
p1170
sg79
(lp1171
(VZHAO
VH
tp1172
asg58
I1996
sg42
V23203
p1173
sbag1
(g2
g3
NtRp1174
(dp1175
g50
V10.1073/pnas.94.14.7481
p1176
sg46
VP NATL ACAD SCI USA
p1177
sg48
V94
p1178
sg79
(lp1179
(VZHOU
VB
tp1180
asg58
I1997
sg42
V7481
p1181
sbasb.