ccopy_reg
_reconstructor
p1
(ctethne.classes.paper
Paper
p2
c__builtin__
object
p3
NtRp4
(dp5
S'publisherCity'
p6
VROCKVILLE
p7
sS'reprintAddress'
p8
VRossi, V (reprint author), Ist Sperimentale Cereal, Sez Bergano, I-24126 Bergamo, Italy.
p9
sS'WC'
p10
VPlant Sciences
p11
sS'GA'
p12
V732ZE
p13
sS'abstract'
p14
VWe analyzed the expression profile and cellular localization of the maize (Zea mays) Rpd3-type histone deacetylases genes ZmRpd3/101, ZmRpd3/102, and ZmRpd3/108 (indicated as ZmHDA101, ZmHDA102, and ZmHDA108 in the Plant Chromatin Database). This study shows that maize Rpd3 transcripts are present in all the organs and cellular domains analyzed, but we found that their amounts change during development, accumulating in the inner region of the endosperm, in vascular zones of the nucellus, in the tapetum, and in the tetrads. A similar expression profile and nucleus-cytoplasmic localization was observed for ZmRpd3 proteins. Glutathione S-transferase pull-down assays show that ZmRpd3 proteins can interact with the maize retinoblastoma-related (ZmRBR1) protein, an important regulator of cell cycle progression, and with the maize retinoblastoma-associated protein (ZmRbAp1). However, the three ZmRpd3 proteins do not mutually compete in the binding. These results suggest a general role of ZmRpd3 genes in the plant cell cycle and development. These observations also provide indications on possible mechanisms regulating their transcription and protein accumulation. Similarities in the gene expression profiles and protein interactions may indicate that functional redundancy among members of the ZmRpd3 gene family exists. However, a degree of functional divergence is also supported by our findings.
p15
sS'pageEnd'
p16
I617
sS'publisherAddress'
p17
V15501 MONONA DRIVE, ROCKVILLE, MD 20855 USA
p18
sS'documentType'
p19
VArticle
p20
sS'subject'
p21
VPlant Sciences
p22
sS'isoSource'
p23
VPlant Physiol.
p24
sS'timesCited'
p25
(lp26
I31
aVZ9 34
p27
asS'PT'
p28
VJ
sS'title'
p29
VExpression Profile And Cellular Localization Of Maize Rpd3-Type Histone Deacetylases During Plant Development
p30
sS'ISSN'
p31
(lp32
V0032-0889
p33
aVJ9 PLANT PHYSIOL
p34
asS'authors_full'
p35
(lp36
(VVAROTTO
VS
tp37
a(VLOCATELLI
VS
tp38
a(VCANOVA
VS
tp39
a(VPIPAL
VA
tp40
a(VMOTTO
VM
tp41
a(VROSSI
VV
tp42
asS'PG'
p43
I12
sS'PD'
p44
VOCT
p45
sS'pageStart'
p46
I606
sS'issue'
p47
I2
sS'journal'
p48
VPLANT PHYSIOLOGY
p49
sS'volume'
p50
V133
p51
sS'doi'
p52
V10.1104/pp.103.025403
p53
sS'emailAddress'
p54
Vrossi@iscbg.it
p55
sS'authorAddress'
p56
(lp57
VIst Sperimentale Cereal, Sez Bergano, I-24126 Bergamo, Italy.
p58
aVUniv Padua, Dipartimento Agron Ambientale & Produz Vegetali, I-35020 Legnaro, Italy.
p59
aVUniv Innsbruck, Dept Mol Biol, Sch Med, A-6020 Innsbruck, Austria.
p60
asS'date'
p61
I2003
sS'ER'
p62
V
sS'publisher'
p63
VAMER SOC PLANT BIOLOGISTS
p64
sS'authorKeywords'
p65
(lp66
VGENE-REGULATION
p67
aVARABIDOPSIS-THALIANA
p68
aVZEA-MAYS
p69
aVCHROMATIN
p70
aVYEAST
p71
aVIDENTIFICATION
p72
aVRPD3
p73
aVTRANSCRIPTION
p74
aVACETYLATION
p75
aVEUKARYOTES
p76
asS'language'
p77
VEnglish
p78
sS'wosid'
p79
VWOS:000185974800023
p80
sS'citationCount'
p81
I48
sS'authors_init'
p82
(lp83
(VVAROTTO
VS
tp84
a(VLOCATELLI
VS
tp85
a(VCANOVA
VS
tp86
a(VPIPAL
VA
tp87
a(VMOTTO
VM
tp88
a(VROSSI
VV
tp89
asS'citedReferences'
p90
(lp91
g1
(g2
g3
NtRp92
(dp93
g52
V10.1093/emboj/cdf663
p94
sg48
VEMBO J
p95
sg50
V21
p96
sg82
(lp97
(VAUFSATZ
VW
tp98
asg61
I2002
sg46
V6832
p99
sbag1
(g2
g3
NtRp100
(dp101
g52
V10.1073/pnas.250477697
p102
sg48
VP NATL ACAD SCI USA
p103
sg50
V97
p104
sg82
(lp105
(VBERNSTEIN
VB E
tp106
asg61
I2000
sg46
V13708
p107
sbag1
(g2
g3
NtRp108
(dp109
g52
V10.1046/j.1365-313X.2003.01642.x
p110
sg48
VPLANT J
p111
sg50
V33
p112
sg82
(lp113
(VBHAT
VR A
tp114
asg61
I2003
sg46
VLANT
p115
sbag1
(g2
g3
NtRp116
(dp117
g52
V10.2307/2443252
p118
sg48
VAM J BOT
p119
sg50
V70
p120
sg82
(lp121
(VCHENG
VP C
tp122
asg61
I1983
sg46
V450
p123
sbag1
(g2
g3
NtRp124
(dp125
g52
V10.1002/(SICI)1097-4652(200007)184:1<1::AID-JCP1>3.0.CO;2-7
p126
sg48
VJ CELL PHYSIOL
p127
sg50
V184
p128
sg82
(lp129
(VCRESS
VW D
tp130
asg61
I2000
sg46
V1
sbag1
(g2
g3
NtRp131
(dp132
g52
V10.1007/s004250000506
p133
sg48
VPLANTA
p134
sg50
V213
p135
sg82
(lp136
(VDANGL
VM
tp137
asg61
I2001
sg46
VLANTA
p138
sbag1
(g2
g3
NtRp139
(dp140
g52
V10.1074/jbc.M203690200
p141
sg48
VJ BIOL CHEM
p142
sg50
V277
p143
sg82
(lp144
(VDAVID
VG
tp145
asg61
I2002
sg46
V23658
p146
sbag1
(g2
g3
NtRp147
(dp148
g52
V10.1042/BJ20021321
p149
sg48
VBIOCHEM J
p150
sg50
V370
p151
sg82
(lp152
(VDE
VRUIJTER A J M
tp153
asg61
I2003
sg46
V737
p154
sbag1
(g2
g3
NtRp155
(dp156
g52
Nsg48
VCLADISTICS
p157
sg50
V5
sg82
(lp158
(VFELSENSTEIN
VJ
tp159
asg61
I1989
sg46
V164
p160
sbag1
(g2
g3
NtRp161
(dp162
g52
V10.1073/pnas.94.13.6809
p163
sg48
VP NATL ACAD SCI USA
p164
sg50
V94
p165
sg82
(lp166
(VGAUT
VB S
tp167
asg61
I1997
sg46
V6809
p168
sbag1
(g2
g3
NtRp169
(dp170
g52
V10.1146/annurev.cellbio.18.040202.114836
p171
sg48
VANNU REV CELL DEV BI
p172
sg50
V18
p173
sg82
(lp174
(VGOODRICH
VJ
tp175
asg61
I2002
sg46
V707
p176
sbag1
(g2
g3
NtRp177
(dp178
g52
V10.1021/bi00253a028
p179
sg48
VBIOCHEMISTRY
p180
sg50
V33
p181
sg82
(lp182
(VGRABHER
VA
tp183
asg61
I1994
sg46
V14887
p184
sbag1
(g2
g3
NtRp185
(dp186
g52
Nsg48
V48 IOW STAT U SCI TE
p187
sg50
Nsg82
(lp188
(VIA STAT U SCI TEC
S''
tp189
asg61
I1989
sg46
Nsbag1
(g2
g3
NtRp190
(dp191
g52
Nsg48
VNATURE
p192
sg50
V403
p193
sg82
(lp194
(VIMAI
VS
tp195
asg61
I2000
sg46
V795
p196
sbag1
(g2
g3
NtRp197
(dp198
g52
Nsg48
VDEVELOPMENT
p199
sg50
V112
p200
sg82
(lp201
(VIRISH
VE E
tp202
asg61
I1991
sg46
V891
p203
sbag1
(g2
g3
NtRp204
(dp205
g52
V10.1046/j.1365-313X.2003.01650.x
p206
sg48
VPLANT J
p207
sg50
V33
p208
sg82
(lp209
(VJANG
VI C
tp210
asg61
I2003
sg46
VLANT
p211
sbag1
(g2
g3
NtRp212
(dp213
g52
V10.1016/S0959-437X(00)00174-X
p214
sg48
VCURR OPIN GENET DEV
p215
sg50
V11
p216
sg82
(lp217
(VKHOCHBIN
VS
tp218
asg61
I2001
sg46
V162
p219
sbag1
(g2
g3
NtRp220
(dp221
g52
V10.1038/ng907
p222
sg48
VNAT GENET
p223
sg50
V31
p224
sg82
(lp225
(VKURDISTANI
VS K
tp226
asg61
I2002
sg46
V248
p227
sbag1
(g2
g3
NtRp228
(dp229
g52
V10.1093/emboj/21.11.2672
p230
sg48
VEMBO J
p231
sg50
V21
p232
sg82
(lp233
(VLAGGER
VG
tp234
asg61
I2002
sg46
V2672
p235
sbag1
(g2
g3
NtRp236
(dp237
g52
V10.1021/bi9918184
p238
sg48
VBIOCHEMISTRY
p239
sg50
V39
p240
sg82
(lp241
(VLECHNER
VT
tp242
asg61
I2000
sg46
V1683
p243
sbag1
(g2
g3
NtRp244
(dp245
g52
V10.1016/S1360-1385(00)01839-2
p246
sg48
VTRENDS PLANT SCI
p247
sg50
V6
sg82
(lp248
(VLUSSER
VA
tp249
asg61
I2001
sg46
V59
p250
sbag1
(g2
g3
NtRp251
(dp252
g52
V10.1126/science.277.5322.88
p253
sg48
VSCIENCE
p254
sg50
V277
p255
sg82
(lp256
(VLUSSER
VA
tp257
asg61
I1997
sg46
V88
p258
sbag1
(g2
g3
NtRp259
(dp260
g52
V10.1016/S1369-5266(02)00287-X
p261
sg48
VCURR OPIN PLANT BIOL
p262
sg50
V5
sg82
(lp263
(VLUSSER
VA
tp264
asg61
I2002
sg46
V437
p265
sbag1
(g2
g3
NtRp266
(dp267
g52
V10.1016/S1360-1385(99)01541-1
p268
sg48
VTRENDS PLANT SCI
p269
sg50
V5
sg82
(lp270
(VMCSTEEN
VP
tp271
asg61
I2000
sg46
V61
p272
sbag1
(g2
g3
NtRp273
(dp274
g52
V10.1016/S0959-437X(00)00170-2
p275
sg48
VCURR OPIN GENET DEV
p276
sg50
V11
p277
sg82
(lp278
(VMELLO
VJ A
tp279
asg61
I2001
sg46
V136
p280
sbag1
(g2
g3
NtRp281
(dp282
g52
V10.1023/A:1006421821964
p283
sg48
VPLANT MOL BIOL
p284
sg50
V43
p285
sg82
(lp286
(VMESHI
VT
tp287
asg61
I2000
sg46
VLANT
p288
sbag1
(g2
g3
NtRp289
(dp290
g52
V10.1105/tpc.13.5.1047
p291
sg48
VPLANT CELL
p292
sg50
V13
p293
sg82
(lp294
(VMURFETT
VJ
tp295
asg61
I2001
sg46
VLANT
p296
sbag1
(g2
g3
NtRp297
(dp298
g52
V10.1093/nar/gkf660
p299
sg48
VNUCLEIC ACIDS RES
p300
sg50
V30
p301
sg82
(lp302
(VPANDEY
VR
tp303
asg61
I2002
sg46
V5036
p304
sbag1
(g2
g3
NtRp305
(dp306
g52
V10.1074/jbc.M105590200
p307
sg48
VJ BIOL CHEM
p308
sg50
V276
p309
sg82
(lp310
(VPFLUM
VM K H
tp311
asg61
I2001
sg46
V47733
p312
sbag1
(g2
g3
NtRp313
(dp314
g52
V10.1016/S1360-1385(98)01260-6
p315
sg48
VTRENDS PLANT SCI
p316
sg50
V3
sg82
(lp317
(VPIFFANELLI
VP
tp318
asg61
I1998
sg46
V250
p319
sbag1
(g2
g3
NtRp320
(dp321
g52
V10.1016/S1360-1385(99)01501-0
p322
sg48
VTRENDS PLANT SCI
p323
sg50
V4
sg82
(lp324
(VPIKAARD
VC S
tp325
asg61
I1999
sg46
V478
p326
sbag1
(g2
g3
NtRp327
(dp328
g52
V10.1016/S0092-8674(02)00746-8
p329
sg48
VCELL
p330
sg50
V109
p331
sg82
(lp332
(VROBYR
VD
tp333
asg61
I2002
sg46
V437
p334
sbag1
(g2
g3
NtRp335
(dp336
g52
Nsg48
VPANCREATOLOGY
p337
sg50
V1
sg82
(lp338
(VROSS
VL F
tp339
asg61
I2001
sg46
VANCREATOLOGY
p340
sbag1
(g2
g3
NtRp341
(dp342
g52
V10.1023/A:1022090916446
p343
sg48
VPLANT MOL BIOL
p344
sg50
V51
p345
sg82
(lp346
(VROSSI
VV
tp347
asg61
I2003
sg46
VLANT
p348
sbag1
(g2
g3
NtRp349
(dp350
g52
Nsg48
VMOL GEN GENET
p351
sg50
V258
p352
sg82
(lp353
(VROSSI
VV
tp354
asg61
I1998
sg46
V288
p355
sbag1
(g2
g3
NtRp356
(dp357
g52
V10.1007/s00425-002-0780-y
p358
sg48
VPLANTA
p359
sg50
V215
p360
sg82
(lp361
(VROSSI
VV
tp362
asg61
I2002
sg46
VLANTA
p363
sbag1
(g2
g3
NtRp364
(dp365
g52
V10.1146/annurev.biochem.70.1.81
p366
sg48
VANNU REV BIOCHEM
p367
sg50
V70
p368
sg82
(lp369
(VROTH
VS Y
tp370
asg61
I2001
sg46
V81
p371
sbag1
(g2
g3
NtRp372
(dp373
g52
V10.1073/pnas.93.25.14503
p374
sg48
VP NATL ACAD SCI USA
p375
sg50
V93
p376
sg82
(lp377
(VRUNDLETT
VS E
tp378
asg61
I1996
sg46
V14503
p379
sbag1
(g2
g3
NtRp380
(dp381
g52
V10.1016/S0092-8674(02)01196-0
p382
sg48
VCELL
p383
sg50
V111
p384
sg82
(lp385
(VSCHREIBER
VS L
tp386
asg61
I2002
sg46
V771
p387
sbag1
(g2
g3
NtRp388
(dp389
g52
Nsg48
VDEV GENETICS EPIGENE
p390
sg50
Nsg82
(lp391
(VSLOCOMBE
VS
tp392
asg61
I1999
sg46
V185
p393
sbag1
(g2
g3
NtRp394
(dp395
g52
Nsg48
VNATURE
p396
sg50
V403
p397
sg82
(lp398
(VSTRAHL
VB D
tp399
asg61
I2000
sg46
V41
p400
sbag1
(g2
g3
NtRp401
(dp402
g52
V10.1016/S0092-8674(00)80599-1
p403
sg48
VCELL
p404
sg50
V98
p405
sg82
(lp406
(VSTRUHL
VK
tp407
asg61
I1999
sg46
V1
sbag1
(g2
g3
NtRp408
(dp409
g52
V10.1126/science.272.5260.408
p410
sg48
VSCIENCE
p411
sg50
V272
p412
sg82
(lp413
(VTAUNTON
VJ
tp414
asg61
I1996
sg46
V408
p415
sbag1
(g2
g3
NtRp416
(dp417
g52
V10.1093/nar/22.22.4673
p418
sg48
VNUCLEIC ACIDS RES
p419
sg50
V22
p420
sg82
(lp421
(VTHOMPSON
VJ D
tp422
asg61
I1994
sg46
V4673
p423
sbag1
(g2
g3
NtRp424
(dp425
g52
V10.1073/pnas.011347998
p426
sg48
VP NATL ACAD SCI USA
p427
sg50
V98
p428
sg82
(lp429
(VTIAN
VL
tp430
asg61
I2001
sg46
V200
p431
sbag1
(g2
g3
NtRp432
(dp433
g52
V10.1016/S0092-8674(02)01080-2
p434
sg48
VCELL
p435
sg50
V111
p436
sg82
(lp437
(VTURNER
VB M
tp438
asg61
I2002
sg46
V285
p439
sbag1
(g2
g3
NtRp440
(dp441
g52
V10.1016/S0968-0004(00)01718-7
p442
sg48
VTRENDS BIOCHEM SCI
p443
sg50
V25
p444
sg82
(lp445
(VWU
VJ S
tp446
asg61
I2000
sg46
V619
p447
sbag1
(g2
g3
NtRp448
(dp449
g52
V10.1023/A:1006498413543
p450
sg48
VPLANT MOL BIOL
p451
sg50
V44
p452
sg82
(lp453
(VWU
VK Q
tp454
asg61
I2000
sg46
VLANT
p455
sbasb.