ccopy_reg
_reconstructor
p1
(ctethne.classes.paper
Paper
p2
c__builtin__
object
p3
NtRp4
(dp5
S'publisherCity'
p6
VROCKVILLE
p7
sS'reprintAddress'
p8
VCasati, P (reprint author), Stanford Univ, Dept Biol Sci, Stanford, CA 94305 USA.
p9
sS'WC'
p10
VPlant Sciences
p11
sS'GA'
p12
V862NG
p13
sS'abstract'
p14
VUltraviolet-B (UV-B) photons can cause substantial cellular damage in biomolecules, as is well established for DNA. Because RNA has the same absorption spectrum for UV as DNA, we have investigated damage to this cellular constituent. In maize (Zea mays) leaves, UV-B radiation damages ribosomes by crosslinking cytosolic ribosomal proteins S14, L23a, and L32, and chloroplast ribosomal protein L29 to RNA. Ribosomal damage accumulated during a day of UV-B exposure correlated with a progressive decrease in new protein production; however, de novo synthesis of some ribosomal proteins is increased after 6 h of UV-B exposure. After 16 h without UV-B, damaged ribosomes were eliminated and translation was restored to normal levels. Ribosomal protein S6 and an S6 kinase are phosphorylated during UV-B exposure; these modifications are associated with selective translation of some ribosomal proteins after ribosome damage in mammalian fibroblast cells and may be an adaptation in maize. Neither photosynthesis nor pigment levels were affected significantly by UV-B, demonstrating that the treatment applied is not lethal and that maize leaf physiology readily recovers.
p15
sS'pageEnd'
p16
I3332
sS'publisherAddress'
p17
V15501 MONONA DRIVE, ROCKVILLE, MD 20855 USA
p18
sS'documentType'
p19
VArticle
p20
sS'subject'
p21
VPlant Sciences
p22
sS'isoSource'
p23
VPlant Physiol.
p24
sS'timesCited'
p25
(lp26
I28
aVZ9 31
p27
asS'PT'
p28
VJ
sS'title'
p29
VCrosslinking Of Ribosomal Proteins To Rna In Maize Ribosomes By Uv-B And Its Effects On Translation(1[W])
p30
sS'ISSN'
p31
(lp32
V0032-0889
p33
aVJ9 PLANT PHYSIOL
p34
asS'authors_full'
p35
(lp36
(VCASATI
VP
tp37
a(VWALBOT
VV
tp38
asS'PG'
p39
I14
sS'PD'
p40
VOCT
p41
sS'pageStart'
p42
I3319
sS'issue'
p43
I2
sS'journal'
p44
VPLANT PHYSIOLOGY
p45
sS'volume'
p46
V136
p47
sS'doi'
p48
V10.1104/pp.047043
p49
sS'emailAddress'
p50
Vpcasati@stanford.edu
p51
sS'authorAddress'
p52
VStanford Univ, Dept Biol Sci, Stanford, CA 94305 USA.
p53
sS'date'
p54
I2004
sS'ER'
p55
V
sS'publisher'
p56
VAMER SOC PLANT BIOLOGISTS
p57
sS'authorKeywords'
p58
(lp59
VRIBOTOXIC STRESS-RESPONSE
p60
aVMESSENGER-RNA
p61
aVULTRAVIOLET-RADIATION
p62
aVESCHERICHIA-COLI
p63
aVARABIDOPSIS-THALIANA
p64
aVS6 KINASE
p65
aVOLIGOPYRIMIDINE TRACT
p66
aVSIGNALING PATHWAY
p67
aVNUCLEIC-ACID
p68
aVDNA-DAMAGE
p69
asS'language'
p70
VEnglish
p71
sS'wosid'
p72
VWOS:000224497000040
p73
sS'citationCount'
p74
I57
sS'authors_init'
p75
(lp76
(VCASATI
VP
tp77
a(VWALBOT
VV
tp78
asS'citedReferences'
p79
(lp80
g1
(g2
g3
NtRp81
(dp82
g48
V10.1038/nature01363
p83
sg44
VNATURE
p84
sg46
V421
p85
sg75
(lp86
(VAAS
VP A
tp87
asg54
I2003
sg42
V859
p88
sbag1
(g2
g3
NtRp89
(dp90
g48
V10.1104/pp.94.3.1237
p91
sg44
VPLANT PHYSIOL
p92
sg46
V94
p93
sg75
(lp94
(VBAILEYSERRES
VJ
tp95
asg54
I1990
sg42
VLANT
p96
sbag1
(g2
g3
NtRp97
(dp98
g48
V10.1016/S1011-1344(01)00152-X
p99
sg44
VJ PHOTOCH PHOTOBIO B
p100
sg46
V62
p101
sg75
(lp102
(VBALLARE
VC L
tp103
asg54
I2001
sg42
V67
p104
sbag1
(g2
g3
NtRp105
(dp106
g48
V10.1126/science.289.5481.905
p107
sg44
VSCIENCE
p108
sg46
V289
p109
sg75
(lp110
(VBAN
VN
tp111
asg54
I2000
sg42
V905
p112
sbag1
(g2
g3
NtRp113
(dp114
g48
V10.1104/pp.127.2.398
p115
sg44
VPLANT PHYSIOL
p116
sg46
V127
p117
sg75
(lp118
(VBARAKAT
VA
tp119
asg54
I2001
sg42
VLANT
p120
sbag1
(g2
g3
NtRp121
(dp122
g48
V10.1016/0042-6822(61)90195-7
p123
sg44
VVIROLOGY
p124
sg46
VIROLOGY
p125
sg75
(lp126
(VBAWDEN
VF C
tp127
asg54
I1961
sg42
V198
p128
sbag1
(g2
g3
NtRp129
(dp130
g48
V10.1038/183503a0
p131
sg44
VNATURE
p132
sg46
V183
p133
sg75
(lp134
(VBAWDEN
VF C
tp135
asg54
I1959
sg42
V503
p136
sbag1
(g2
g3
NtRp137
(dp138
g48
V10.1034/j.1399-3054.2002.1150216.x
p139
sg44
VPHYSIOL PLANTARUM
p140
sg46
V115
p141
sg75
(lp142
(VBELTRAN-PENA
VE
tp143
asg54
I2002
sg42
VHYSIOL
p144
sbag1
(g2
g3
NtRp145
(dp146
g48
V10.1074/jbc.275.6.4336
p147
sg44
VJ BIOL CHEM
p148
sg46
V275
p149
sg75
(lp150
(VBRENNEISEN
VP
tp151
asg54
I2000
sg42
V4336
p152
sbag1
(g2
g3
NtRp153
(dp154
g48
Nsg44
VRIBOSOMES PROTEIN SY
p155
sg46
Nsg75
(lp156
(VBRIMACOMBE
VR
tp157
asg54
I1990
sg42
V131
p158
sbag1
(g2
g3
NtRp159
(dp160
g48
V10.1146/annurev.arplant.47.1.75
p161
sg44
VANNU REV PLANT PHYS
p162
sg46
V47
p163
sg75
(lp164
(VBRITT
VA B
tp165
asg54
I1996
sg42
V75
p166
sbag1
(g2
g3
NtRp167
(dp168
g48
V10.1016/0003-2697(81)90281-5
p169
sg44
VANAL BIOCHEM
p170
sg46
V112
p171
sg75
(lp172
(VBURNETTE
VW N
tp173
asg54
I1981
sg42
V195
p174
sbag1
(g2
g3
NtRp175
(dp176
g48
Nsg44
VPHOTOPHYSIOLOGY
p177
sg46
V6
sg75
(lp178
(VCALDWELL
VM M
tp179
asg54
I1971
sg42
VHOTOPHYSIOLOGY
p180
sbag1
(g2
g3
NtRp181
(dp182
g48
V10.1104/pp.103.022871
p183
sg44
VPLANT PHYSIOL
p184
sg46
V132
p185
sg75
(lp186
(VCASATI
VP
tp187
asg54
I2003
sg42
VLANT
p188
sbag1
(g2
g3
NtRp189
(dp190
g48
V10.1186/gb-2004-5-3-r16
p191
sg44
VGENOME BIOL
p192
sg46
V5
sg75
(lp193
(VCASATI
VP
tp194
asg54
I2004
sg42
Nsbag1
(g2
g3
NtRp195
(dp196
g48
V10.1021/bi035222z
p197
sg44
VBIOCHEMISTRY
p198
sg46
V43
p199
sg75
(lp200
(VDE
VL A CRUZ H R
tp201
asg54
I2004
sg42
V533
p202
sbag1
(g2
g3
NtRp203
(dp204
g48
Nsg44
VMOL CELL BIOL
p205
sg46
V19
p206
sg75
(lp207
(VFEWELL
VS W
tp208
asg54
I1999
sg42
V826
p209
sbag1
(g2
g3
NtRp210
(dp211
g48
V10.1562/0031-8655(1999)070<0049:TPLTAU>2.3.CO;2
p212
sg44
VPHOTOCHEM PHOTOBIOL
p213
sg46
V70
p214
sg75
(lp215
(VGERHARDT
VK E
tp216
asg54
I1999
sg42
VHOTOCHEM
p217
sbag1
(g2
g3
NtRp218
(dp219
g48
V10.1093/nar/15.8.3241
p220
sg44
VNUCLEIC ACIDS RES
p221
sg46
V15
p222
sg75
(lp223
(VGREUER
VB
tp224
asg54
I1987
sg42
V3241
p225
sbag1
(g2
g3
NtRp226
(dp227
g48
V10.1046/j.1365-313X.1996.10061071.x
p228
sg44
VPLANT J
p229
sg46
V10
p230
sg75
(lp231
(VHARTWELL
VJ
tp232
asg54
I1996
sg42
VLANT
p233
sbag1
(g2
g3
NtRp234
(dp235
g48
V10.1074/jbc.273.25.15794
p236
sg44
VJ BIOL CHEM
p237
sg46
V273
p238
sg75
(lp239
(VIORDANOV
VM S
tp240
asg54
I1998
sg42
V15794
p241
sbag1
(g2
g3
NtRp242
(dp243
g48
Nsg44
VMOL CELL BIOL
p244
sg46
V17
p245
sg75
(lp246
(VIORDANOV
VM S
tp247
asg54
I1997
sg42
V3373
p248
sbag1
(g2
g3
NtRp249
(dp250
g48
V10.1111/j.1751-1097.1980.tb04052.x
p251
sg44
VPHOTOCHEM PHOTOBIOL
p252
sg46
V32
p253
sg75
(lp254
(VJACKLE
VH
tp255
asg54
I1980
sg42
VHOTOCHEM
p256
sbag1
(g2
g3
NtRp257
(dp258
g48
V10.1016/S0148-0685(78)90311-1
p259
sg44
VWOMENS STUDIES INT Q
p260
sg46
V1
sg75
(lp261
(VJACKSON
VS
tp262
asg54
I1978
sg42
V27
p263
sbag1
(g2
g3
NtRp264
(dp265
g48
V10.1016/S0003-9861(02)00070-X
p266
sg44
VARCH BIOCHEM BIOPHYS
p267
sg46
V402
p268
sg75
(lp269
(VKAKEGAWA
VT
tp270
asg54
I2002
sg42
V77
p271
sbag1
(g2
g3
NtRp272
(dp273
g48
V10.1111/j.1751-1097.1978.tb07606.x
p274
sg44
VPHOTOCHEM PHOTOBIOL
p275
sg46
V27
p276
sg75
(lp277
(VKALTHOFF
VK
tp278
asg54
I1978
sg42
VHOTOCHEM
p279
sbag1
(g2
g3
NtRp280
(dp281
g48
V10.1111/j.1365-313X.2004.02090.x
p282
sg44
VPLANT J
p283
sg46
V38
p284
sg75
(lp285
(VKAWAGUCHI
VR
tp286
asg54
I2004
sg42
VLANT
p287
sbag1
(g2
g3
NtRp288
(dp289
g48
V10.1021/bc980035c
p290
sg44
VBIOCONJUGATE CHEM
p291
sg46
V9
sg75
(lp292
(VKOZLOV
VI A
tp293
asg54
I1998
sg42
V415
p294
sbag1
(g2
g3
NtRp295
(dp296
g48
V10.1073/pnas.88.8.3319
p297
sg44
VP NATL ACAD SCI USA
p298
sg46
V88
p299
sg75
(lp300
(VLEVY
VS
tp301
asg54
I1991
sg42
V3319
p302
sbag1
(g2
g3
NtRp303
(dp304
g48
V10.1073/pnas.93.4.1596
p305
sg44
VP NATL ACAD SCI USA
p306
sg46
V93
p307
sg75
(lp308
(VLI
VB J
tp309
asg54
I1996
sg42
V1596
p310
sbag1
(g2
g3
NtRp311
(dp312
g48
V10.1023/A:1011612329398
p313
sg44
VPLANT MOL BIOL
p314
sg46
V46
p315
sg75
(lp316
(VMCINTOSH
VK B
tp317
asg54
I2001
sg42
VLANT
p318
sbag1
(g2
g3
NtRp319
(dp320
g48
Nsg44
VFASEB J
p321
sg46
V11
p322
sg75
(lp323
(VMEYUHAS
VO
tp324
asg54
I1997
sg42
V2500
p325
sbag1
(g2
g3
NtRp326
(dp327
g48
Nsg44
VPHOTOCHEM PHOTOBIOL
p328
sg46
V21
p329
sg75
(lp330
(VMURPHY
VT M
tp331
asg54
I1974
sg42
VHOTOCHEM
p332
sbag1
(g2
g3
NtRp333
(dp334
g48
V10.1021/bi00733a019
p335
sg44
VBIOCHEMISTRY
p336
sg46
V12
p337
sg75
(lp338
(VMURPHY
VT M
tp339
asg54
I1973
sg42
V1782
p340
sbag1
(g2
g3
NtRp341
(dp342
g48
V10.1093/nar/28.19.3785
p343
sg44
VNUCLEIC ACIDS RES
p344
sg46
V28
p345
sg75
(lp346
(VNOAH
VJ W
tp347
asg54
I2000
sg42
V3785
p348
sbag1
(g2
g3
NtRp349
(dp350
g48
V10.1074/jbc.M107897200
p351
sg44
VJ BIOL CHEM
p352
sg46
V276
p353
sg75
(lp354
(VNOMURA
VM
tp355
asg54
I2001
sg42
V46624
p356
sbag1
(g2
g3
NtRp357
(dp358
g48
Nsg44
VNUCLEIC ACIDS RES
p359
sg46
V18
p360
sg75
(lp361
(VOSSWALD
VM
tp362
asg54
I1990
sg42
V6755
p363
sbag1
(g2
g3
NtRp364
(dp365
g48
V10.1016/S0169-5347(02)00014-9
p366
sg44
VTRENDS ECOL EVOL
p367
sg46
V18
p368
sg75
(lp369
(VPAUL
VN D
tp370
asg54
I2003
sg42
V48
p371
sbag1
(g2
g3
NtRp372
(dp373
g48
Nsg44
VGENETICS
p374
sg46
V149
p375
sg75
(lp376
(VPOLIDOROS
VA N
tp377
asg54
I1998
sg42
V405
p378
sbag1
(g2
g3
NtRp379
(dp380
g48
V10.1093/emboj/18.2.490
p381
sg44
VEMBO J
p382
sg46
V18
p383
sg75
(lp384
(VREVENKOVA
VE
tp385
asg54
I1999
sg42
V490
p386
sbag1
(g2
g3
NtRp387
(dp388
g48
V10.1016/0092-8674(82)90240-9
p389
sg44
VCELL
p390
sg46
V30
p391
sg75
(lp392
(VSCHARF
VK D
tp393
asg54
I1982
sg42
V427
p394
sbag1
(g2
g3
NtRp395
(dp396
g48
V10.1007/s004420000592
p397
sg44
VOECOLOGIA
p398
sg46
V127
p399
sg75
(lp400
(VSEARLES
VP S
tp401
asg54
I2001
sg42
V1
sbag1
(g2
g3
NtRp402
(dp403
g48
V10.1073/pnas.052678999
p404
sg44
VP NATL ACAD SCI USA
p405
sg46
V99
p406
sg75
(lp407
(VSESTO
VA
tp408
asg54
I2002
sg42
V2965
p409
sbag1
(g2
g3
NtRp410
(dp411
g48
V10.1104/pp.105.3.881
p412
sg44
VPLANT PHYSIOL
p413
sg46
V105
p414
sg75
(lp415
(VSTAPLETON
VA E
tp416
asg54
I1994
sg42
VLANT
p417
sbag1
(g2
g3
NtRp418
(dp419
g48
V10.1016/0022-2836(86)90429-8
p420
sg44
VJ MOL BIOL
p421
sg46
V191
p422
sg75
(lp423
(VSTIEGE
VW
tp424
asg54
I1986
sg42
V135
p425
sbag1
(g2
g3
NtRp426
(dp427
g48
Nsg44
VJ BIOL CHEM
p428
sg46
V268
p429
sg75
(lp430
(VSUZUKI
VK
tp431
asg54
I1993
sg42
V2755
p432
sbag1
(g2
g3
NtRp433
(dp434
g48
Nsg44
VBIOL RES
p435
sg46
V35
p436
sg75
(lp437
(VTHOMAS
VG
tp438
asg54
I2002
sg42
V305
p439
sbag1
(g2
g3
NtRp440
(dp441
g48
Nsg44
VMOL CELL BIOL
p442
sg46
V18
p443
sg75
(lp444
(VTURCK
VF
tp445
asg54
I1998
sg42
V2038
p446
sbag1
(g2
g3
NtRp447
(dp448
g48
V10.1104/pp.103.035873
p449
sg44
VPLANT PHYSIOL
p450
sg46
V134
p451
sg75
(lp452
(VTURCK
VF
tp453
asg54
I2004
sg42
VLANT
p454
sbag1
(g2
g3
NtRp455
(dp456
g48
V10.1046/j.0022-202x.2001.01607.x
p457
sg44
VJ INVEST DERMATOL
p458
sg46
V117
p459
sg75
(lp460
(VVALERY
VC
tp461
asg54
I2001
sg42
V1471
p462
sbag1
(g2
g3
NtRp463
(dp464
g48
Nsg44
VJ CHIM PHYS PCB
p465
sg46
V58
p466
sg75
(lp467
(VWACKER
VA
tp468
asg54
I1961
sg42
V1040
p469
sbag1
(g2
g3
NtRp470
(dp471
g48
V10.1104/pp.103.022749
p472
sg44
VPLANT PHYSIOL
p473
sg46
V132
p474
sg75
(lp475
(VWILLIAMS
VA J
tp476
asg54
I2003
sg42
VLANT
p477
sbag1
(g2
g3
NtRp478
(dp479
g48
V10.1016/0926-6585(65)90170-6
p480
sg44
VBIOCHIM BIOPHYS ACTA
p481
sg46
V109
p482
sg75
(lp483
(VWINTERMAJF
S''
tp484
asg54
I1965
sg42
V448
p485
sbag1
(g2
g3
NtRp486
(dp487
g48
Nsg44
VBIOCHEM CELL BIOL
p488
sg46
V73
p489
sg75
(lp490
(VWOOL
VI G
tp491
asg54
I1995
sg42
V933
p492
sbag1
(g2
g3
NtRp493
(dp494
g48
V10.1093/nar/9.17.4285
p495
sg44
VNUCLEIC ACIDS RES
p496
sg46
V9
sg75
(lp497
(VWOWER
VI
tp498
asg54
I1981
sg42
V4285
p499
sbag1
(g2
g3
NtRp500
(dp501
g48
V10.1074/jbc.M110164200
p502
sg44
VJ BIOL CHEM
p503
sg46
V277
p504
sg75
(lp505
(VWU
VS Y
tp506
asg54
I2002
sg42
V18077
p507
sbag1
(g2
g3
NtRp508
(dp509
g48
Nsg44
VMETHOD ENZYMOL
p510
sg46
V164
p511
sg75
(lp512
(VYUSUPOV
VM M
tp513
asg54
I1988
sg42
V426
p514
sbasb.