ccopy_reg
_reconstructor
p1
(ctethne.classes.paper
Paper
p2
c__builtin__
object
p3
NtRp4
(dp5
S'publisherCity'
p6
VROCKVILLE
p7
sS'reprintAddress'
p8
VDevoto, A (reprint author), Royal Holloway Univ London, Sch Biol Sci, Egham TW20 0EX, Surrey, England.
p9
sS'WC'
p10
VPlant Sciences
p11
sS'GA'
p12
V117XZ
p13
sS'FX'
p14
(lp15
VThis work was supported by the Biotechnology and Biological Sciences
p16
aVResearch Council (grant no. BB/E003486/1 to A. D.), by the South West
p17
aVLondon Alliance Network (to A. D.), by PrimerDesign (student sponsorship
p18
aVto M. B.), and by the Japan Society for the Promotion of Science (to A.
p19
aVD.).
p20
asS'abstract'
p21
VPhytohormones regulate plant growth from cell division to organ development. Jasmonates (JAs) are signaling molecules that have been implicated in stress-induced responses. However, they have also been shown to inhibit plant growth, but the mechanisms are not well understood. The effects of methyl jasmonate (MeJA) on leaf growth regulation were investigated in Arabidopsis (Arabidopsis thaliana) mutants altered in JA synthesis and perception, allene oxide synthase and coi1-16B (for coronatine insensitive1), respectively. We show that MeJA inhibits leaf growth through the JA receptor COI1 by reducing both cell number and size. Further investigations using flow cytometry analyses allowed us to evaluate ploidy levels and to monitor cell cycle progression in leaves and cotyledons of Arabidopsis and/or Nicotiana benthamiana at different stages of development. Additionally, a novel global transcription profiling analysis involving continuous treatment with MeJA was carried out to identify the molecular players whose expression is regulated during leaf development by this hormone and COI1. The results of these studies revealed that MeJA delays the switch from the mitotic cell cycle to the endoreduplication cycle, which accompanies cell expansion, in a COI1-dependent manner and inhibits the mitotic cycle itself, arresting cells in G1 phase prior to the S-phase transition. Significantly, we show that MeJA activates critical regulators of endoreduplication and affects the expression of key determinants of DNA replication. Our discoveries also suggest that MeJA may contribute to the maintenance of a cellular "stand-by mode" by keeping the expression of ribosomal genes at an elevated level. Finally, we propose a novel model for MeJA-regulated COI1-dependent leaf growth inhibition.
p22
sS'pageEnd'
p23
I1951
sS'date'
p24
I2013
sS'documentType'
p25
VArticle
p26
sS'subject'
p27
VPlant Sciences
p28
sS'isoSource'
p29
VPlant Physiol.
p30
sS'timesCited'
p31
(lp32
I0
aVZ9 0
p33
asS'funding'
p34
(lp35
(VBiotechnology and Biological Sciences Research Council
VBB/E003486/1
tp36
a(VSouth West London Alliance Network
Ntp37
a(VPrimerDesign
Ntp38
a(VJapan Society for the Promotion of Science
Ntp39
asS'PT'
p40
VJ
sS'title'
p41
VJasmonate Controls Leaf Growth By Repressing Cell Proliferation And The Onset Of Endoreduplication While Maintaining A Potential Stand-By Mode
p42
sS'ISSN'
p43
(lp44
V0032-0889
p45
aVJ9 PLANT PHYSIOL
p46
asS'authors_full'
p47
(lp48
(VNOIR
VSANDRA
tp49
a(VBOEMER
VMORITZ
tp50
a(VTAKAHASHI
VNAOKI
tp51
a(VISHIDA
VTAKASHI
tp52
a(VTSUI
VTJIRLI
tp53
a(VBALBI
VVIRGINIA
tp54
a(VSHANAHAN
VHUGH
tp55
a(VSUGIMOTO
VKEIKO
tp56
a(VDEVOTO
VALESSANDRA
tp57
asS'PG'
p58
I22
sS'PD'
p59
VAPR
p60
sS'pageStart'
p61
I1930
sS'issue'
p62
I4
sS'RI'
p63
VIshida, Takashi/D-1072-2010; Sugimoto, Keiko/B-3368-2010
p64
sS'journal'
p65
VPLANT PHYSIOLOGY
p66
sS'volume'
p67
V161
p68
sS'doi'
p69
V10.1104/pp.113.214908
p70
sS'emailAddress'
p71
Valessandra.devoto@rhul.ac.uk
p72
sS'authorAddress'
p73
(lp74
V[Noir, Sandra; Boemer, Moritz; Tsui, Tjir-Li; Balbi, Virginia; Devoto, Alessandra] Royal Holloway Univ London, Sch Biol Sci, Egham TW20 0EX, Surrey, England.
p75
aV[Shanahan, Hugh] Royal Holloway Univ London, Dept Comp Sci, Egham TW20 0EX, Surrey, England.
p76
aV[Takahashi, Naoki; Ishida, Takashi; Sugimoto, Keiko] RIKEN Plant Sci Ctr, Yokohama, Kanagawa 2300045, Japan.
p77
asS'publisherAddress'
p78
V15501 MONONA DRIVE, ROCKVILLE, MD 20855 USA
p79
sS'ER'
p80
V
sS'publisher'
p81
VAMER SOC PLANT BIOLOGISTS
p82
sS'authorKeywords'
p83
(lp84
VARABIDOPSIS MUTANT CEV1
p85
aVGENOME-WIDE ANALYSIS
p86
aVTOBACCO BY-2 CELLS
p87
aVPROBE LEVEL DATA
p88
aVA-TYPE CYCLIN
p89
aVPLANT DEVELOPMENT
p90
aVMETHYL JASMONATE
p91
aVDNA-REPLICATION
p92
aVGENE-EXPRESSION
p93
aVTRANSCRIPTION FACTOR
p94
asS'language'
p95
VEnglish
p96
sS'wosid'
p97
VWOS:000316987900027
p98
sS'citationCount'
p99
I144
sS'authors_init'
p100
(lp101
(VNOIR
VS
tp102
a(VBOMER
VM
tp103
a(VTAKAHASHI
VN
tp104
a(VISHIDA
VT
tp105
a(VTSUI
VT L
tp106
a(VBALBI
VV
tp107
a(VSHANAHAN
VH
tp108
a(VSUGIMOTO
VK
tp109
a(VDEVOTO
VA
tp110
asS'citedReferences'
p111
(lp112
g1
(g2
g3
NtRp113
(dp114
g69
V10.1016/j.cub.2009.05.059
p115
sg65
VCURR BIOL
p116
sg67
V19
p117
sg100
(lp118
(VACHARD
VP
tp119
asg24
I2009
sg61
V1188
p120
sbag1
(g2
g3
NtRp121
(dp122
g69
V10.1199/tab.0129
p123
sg65
VArabidopsis Book
p124
sg67
V8
sg100
(lp125
(VACOSTA
VIVA\u0301N F
tp126
asg24
I2010
sg61
Ve0129
p127
sbag1
(g2
g3
NtRp128
(dp129
g69
V10.1093/jxb/erq240
p130
sg65
VJ EXP BOT
p131
sg67
V61
p132
sg100
(lp133
(VADAMS
VE
tp134
asg24
I2010
sg61
V4373
p135
sbag1
(g2
g3
NtRp136
(dp137
g69
V10.1186/1471-2105-9-465
p138
sg65
VBMC BIOINFORMATICS
p139
sg67
V9
sg100
(lp140
(VARVIDSSON
VS
tp141
asg24
I2008
sg61
Nsbag1
(g2
g3
NtRp142
(dp143
g69
V10.1038/sj.emboj.7600481
p144
sg65
VEMBO J
p145
sg67
V23
p146
sg100
(lp147
(VATTWOOLL
VC
tp148
asg24
I2004
sg61
V4709
p149
sbag1
(g2
g3
NtRp150
(dp151
g69
V10.4238/vol9-1gmr754
p152
sg65
VGENET MOL RES
p153
sg67
V9
sg100
(lp154
(VAVANCI
VN C
tp155
asg24
I2010
sg61
V484
p156
sbag1
(g2
g3
NtRp157
(dp158
g69
V10.1111/j.1469-8137.2007.02292.x
p159
sg65
VNEW PHYTOL
p160
sg67
V177
p161
sg100
(lp162
(VBALBI
VV
tp163
asg24
I2008
sg61
V301
p164
sbag1
(g2
g3
NtRp165
(dp166
g69
V10.1104/pp.104.053884
p167
sg65
VPLANT PHYSIOL
p168
sg67
V138
p169
sg100
(lp170
(VBEEMSTER
VG T S
tp171
asg24
I2005
sg61
VLANT
p172
sbag1
(g2
g3
NtRp173
(dp174
g69
V10.1016/S1360-1385(03)00046-3
p175
sg65
VTRENDS PLANT SCI
p176
sg67
V8
sg100
(lp177
(VBEEMSTER
VG T S
tp178
asg24
I2003
sg61
V154
p179
sbag1
(g2
g3
NtRp180
(dp181
g69
Nsg65
VJ ROY STAT SOC B MET
p182
sg67
V57
p183
sg100
(lp184
(VBENJAMINI
VY
tp185
asg24
I1995
sg61
V289
p186
sbag1
(g2
g3
NtRp187
(dp188
g69
V10.1007/s00425-001-0688-y
p189
sg65
VPLANTA
p190
sg67
V214
p191
sg100
(lp192
(VBERGER
VS
tp193
asg24
I2002
sg61
VLANTA
p194
sbag1
(g2
g3
NtRp195
(dp196
g69
V10.1038/nrm1663
p197
sg65
VNAT REV MOL CELL BIO
p198
sg67
V6
sg100
(lp199
(VBLOW
VJ J
tp200
asg24
I2005
sg61
V476
p201
sbag1
(g2
g3
NtRp202
(dp203
g69
V10.1105/tpc.109.073635
p204
sg65
VPLANT CELL
p205
sg67
V22
p206
sg100
(lp207
(VBORUC
VJ
tp208
asg24
I2010
sg61
VLANT
p209
sbag1
(g2
g3
NtRp210
(dp211
g69
V10.1038/4661051a
p212
sg65
VNATURE
p213
sg67
V466
p214
sg100
(lp215
(VBOSCO
VG
tp216
asg24
I2010
sg61
V1051
p217
sbag1
(g2
g3
NtRp218
(dp219
g69
V10.1104/pp.109.140269
p220
sg65
VPLANT PHYSIOL
p221
sg67
V150
p222
sg100
(lp223
(VBOUDOLF
VV
tp224
asg24
I2009
sg61
VLANT
p225
sbag1
(g2
g3
NtRp226
(dp227
g69
V10.1371/journal.pgen.1000996
p228
sg65
VPLOS GENET
p229
sg67
V6
sg100
(lp230
(VBRAMSIEPE
VJ
tp231
asg24
I2010
sg61
VLOS
p232
sbag1
(g2
g3
NtRp233
(dp234
g69
V10.1016/j.pbi.2010.10.006
p235
sg65
VCURR OPIN PLANT BIOL
p236
sg67
V13
p237
sg100
(lp238
(VBREUER
VC
tp239
asg24
I2010
sg61
V654
p240
sbag1
(g2
g3
NtRp241
(dp242
g69
V10.1111/j.1365-313X.2009.04023.x
p243
sg65
VPLANT J
p244
sg67
V60
p245
sg100
(lp246
(VBRIOUDES
VF
tp247
asg24
I2009
sg61
VLANT
p248
sbag1
(g2
g3
NtRp249
(dp250
g69
V10.1016/j.phytochem.2009.08.004
p251
sg65
VPHYTOCHEMISTRY
p252
sg67
V70
p253
sg100
(lp254
(VBROWSE
VJ
tp255
asg24
I2009
sg61
VHYTOCHEMISTRY
p256
sbag1
(g2
g3
NtRp257
(dp258
g69
V10.1111/j.1365-313X.2006.02892.x
p259
sg65
VPLANT J
p260
sg67
V48
p261
sg100
(lp262
(VCAMPILHO
VA
tp263
asg24
I2006
sg61
VLANT
p264
sbag1
(g2
g3
NtRp265
(dp266
g69
Nsg65
VDEVELOPMENT
p267
sg67
V127
p268
sg100
(lp269
(VCANO-DELGADO
VA I
tp270
asg24
I2000
sg61
V3395
p271
sbag1
(g2
g3
NtRp272
(dp273
g69
V10.1105/tpc.104.022400
p274
sg65
VPLANT CELL
p275
sg67
V16
p276
sg100
(lp277
(VCASTELLANO
VM D
tp278
asg24
I2004
sg61
VLANT
p279
sbag1
(g2
g3
NtRp280
(dp281
g69
Nsg65
VPLANT CELL
p282
sg67
V13
p283
sg100
(lp284
(VCASTELLANO
VM M
tp285
asg24
I2001
sg61
VLANT
p286
sbag1
(g2
g3
NtRp287
(dp288
g69
V10.1073/pnas.0912492107
p289
sg65
VP NATL ACAD SCI USA
p290
sg67
V107
p291
sg100
(lp292
(VCHANDRAN
VD
tp293
asg24
I2010
sg61
V460
p294
sbag1
(g2
g3
NtRp295
(dp296
g69
V10.1105/tpc.111.089870
p297
sg65
VPLANT CELL
p298
sg67
V23
p299
sg100
(lp300
(VCHEN
VQ
tp301
asg24
I2011
sg61
VLANT
p302
sbag1
(g2
g3
NtRp303
(dp304
g69
V10.1371/journal.pgen.1000440
p305
sg65
VPLOS GENET
p306
sg67
V5
sg100
(lp307
(VCHENG
VH
tp308
asg24
I2009
sg61
VLOS
p309
sbag1
(g2
g3
NtRp310
(dp311
g69
V10.1038/nature06006
p312
sg65
VNATURE
p313
sg67
V448
p314
sg100
(lp315
(VCHINI
VA
tp316
asg24
I2007
sg61
V666
p317
sbag1
(g2
g3
NtRp318
(dp319
g69
V10.1105/tpc.111.084475
p320
sg65
VPLANT CELL
p321
sg67
V23
p322
sg100
(lp323
(VCLOUSE
VS D
tp324
asg24
I2011
sg61
VLANT
p325
sbag1
(g2
g3
NtRp326
(dp327
g69
V10.1046/j.1365-313x.1999.00620.x
p328
sg65
VPLANT J
p329
sg67
V20
p330
sg100
(lp331
(VCOLON-CARMONA
VA
tp332
asg24
I1999
sg61
VLANT
p333
sbag1
(g2
g3
NtRp334
(dp335
g69
V10.1038/nsmb.1988
p336
sg65
VNAT STRUCT MOL BIOL
p337
sg67
V18
p338
sg100
(lp339
(VCOSTAS
VC
tp340
asg24
I2011
sg61
V395
p341
sbag1
(g2
g3
NtRp342
(dp343
g69
V10.1146/annurev.arplant.48.1.355
p344
sg65
VANNU REV PLANT PHYS
p345
sg67
V48
p346
sg100
(lp347
(VCREELMAN
VR A
tp348
asg24
I1997
sg61
V355
p349
sbag1
(g2
g3
NtRp350
(dp351
g69
V10.1007/s11103-010-9639-y
p352
sg65
VPLANT MOL BIOL
p353
sg67
V73
p354
sg100
(lp355
(VCREFF
VA
tp356
asg24
I2010
sg61
VLANT
p357
sbag1
(g2
g3
NtRp358
(dp359
g69
V10.1016/j.tplants.2012.03.001
p360
sg65
VTRENDS PLANT SCI
p361
sg67
V17
p362
sg100
(lp363
(VDE
VGEYTER N
tp364
asg24
I2012
sg61
V349
p365
sbag1
(g2
g3
NtRp366
(dp367
g69
V10.1016/S0092-8674(03)00604-4
p368
sg65
VCELL
p369
sg67
V114
p370
sg100
(lp371
(VDEPAMPHILIS
VM L
tp372
asg24
I2003
sg61
V274
p373
sbag1
(g2
g3
NtRp374
(dp375
g69
V10.1038/hdy.2010.50
p376
sg65
VHEREDITY
p377
sg67
V105
p378
sg100
(lp379
(VDESVOYES
VB
tp380
asg24
I2010
sg61
V80
p381
sbag1
(g2
g3
NtRp382
(dp383
g69
V10.1105/tpc.13.7.1653
p384
sg65
VPLANT CELL
p385
sg67
V13
p386
sg100
(lp387
(VDE
VVEYLDER L
tp388
asg24
I2001
sg61
VLANT
p389
sbag1
(g2
g3
NtRp390
(dp391
g69
V10.1093/emboj/21.6.1360
p392
sg65
VEMBO J
p393
sg67
V21
p394
sg100
(lp395
(VDE
VVEYLDER L
tp396
asg24
I2002
sg61
V1360
p397
sbag1
(g2
g3
NtRp398
(dp399
g69
V10.1016/j.tplants.2011.07.001
p400
sg65
VTRENDS PLANT SCI
p401
sg67
V16
p402
sg100
(lp403
(VDE
VVEYLDER L
tp404
asg24
I2011
sg61
V624
p405
sbag1
(g2
g3
NtRp406
(dp407
g69
V10.1046/j.1365-313X.2002.01432.x
p408
sg65
VPLANT J
p409
sg67
V32
p410
sg100
(lp411
(VDEVOTO
VA
tp412
asg24
I2002
sg61
VLANT
p413
sbag1
(g2
g3
NtRp414
(dp415
g69
V10.1007/s11103-005-7306-5
p416
sg65
VPLANT MOL BIOL
p417
sg67
V58
p418
sg100
(lp419
(VDEVOTO
VA
tp420
asg24
I2005
sg61
VLANT
p421
sbag1
(g2
g3
NtRp422
(dp423
g69
Nsg65
VANN BOT
p424
sg67
V92
p425
sg100
(lp426
(VDEVOTO
VA
tp427
asg24
I2003
sg61
V1
sbag1
(g2
g3
NtRp428
(dp429
g69
V10.1073/pnas.0704166104
p430
sg65
VP NATL ACAD SCI USA
p431
sg67
V104
p432
sg100
(lp433
(VDEWITTE
VW
tp434
asg24
I2007
sg61
V14537
p435
sbag1
(g2
g3
NtRp436
(dp437
g69
V10.1105/tpc.004838
p438
sg65
VPLANT CELL
p439
sg67
V15
p440
sg100
(lp441
(VDEWITTE
VW
tp442
asg24
I2003
sg61
VLANT
p443
sbag1
(g2
g3
NtRp444
(dp445
g69
V10.1093/nar/gki854
p446
sg65
VNUCLEIC ACIDS RES
p447
sg67
V33
p448
sg100
(lp449
(VDIAZ-TRIVINO
VS
tp450
asg24
I2005
sg61
V5404
p451
sbag1
(g2
g3
NtRp452
(dp453
g69
V10.1038/nprot.2007.310
p454
sg65
VNAT PROTOC
p455
sg67
V2
sg100
(lp456
(VDOLEZEL
VJ
tp457
asg24
I2007
sg61
V2233
p458
sbag1
(g2
g3
NtRp459
(dp460
g69
V10.1006/dbio.1999.9443
p461
sg65
VDEV BIOL
p462
sg67
V215
p463
sg100
(lp464
(VDONNELLY
VP M
tp465
asg24
I1999
sg61
V407
p466
sbag1
(g2
g3
NtRp467
(dp468
g69
V10.1093/aob/mcr038
p469
sg65
VAnn Bot
p470
sg67
V107
p471
sg100
(lp472
(VDUDITS
VDE\u0301NES
tp473
asg24
I2011
sg61
V1193
p474
sbag1
(g2
g3
NtRp475
(dp476
g69
V10.1105/tpc.13.5.1025
p477
sg65
VPLANT CELL
p478
sg67
V13
p479
sg100
(lp480
(VELLIS
VC
tp481
asg24
I2001
sg61
VLANT
p482
sbag1
(g2
g3
NtRp483
(dp484
g69
V10.1105/tpc.002022
p485
sg65
VPLANT CELL
p486
sg67
V14
p487
sg100
(lp488
(VELLIS
VC
tp489
asg24
I2002
sg61
VLANT
p490
sbag1
(g2
g3
NtRp491
(dp492
g69
V10.1007/s00425-002-0787-4
p493
sg65
VPLANTA
p494
sg67
V215
p495
sg100
(lp496
(VELLIS
VC
tp497
asg24
I2002
sg61
VLANTA
p498
sbag1
(g2
g3
NtRp499
(dp500
g69
Nsg65
VPLANT CELL
p501
sg67
V6
sg100
(lp502
(VFEYS
VB J F
tp503
asg24
I1994
sg61
VLANT
p504
sbag1
(g2
g3
NtRp505
(dp506
g69
V10.1038/nchembio.161
p507
sg65
VNAT CHEM BIOL
p508
sg67
V5
sg100
(lp509
(VFONSECA
VS
tp510
asg24
I2009
sg61
V344
p511
sbag1
(g2
g3
NtRp512
(dp513
g69
V10.1093/mp/ssn069
p514
sg65
VMOL PLANT
p515
sg67
V1
sg100
(lp516
(VGAO
VX W
tp517
asg24
I2008
sg61
V899
p518
sbag1
(g2
g3
NtRp519
(dp520
g69
V10.1111/j.1365-313X.2007.03035.x
p521
sg65
VPLANT J
p522
sg67
V50
p523
sg100
(lp524
(VGARTON
VS
tp525
asg24
I2007
sg61
VLANT
p526
sbag1
(g2
g3
NtRp527
(dp528
g69
V10.1186/gb-2004-5-10-r80
p529
sg65
VGENOME BIOL
p530
sg67
V5
sg100
(lp531
(VGENTLEMAN
VR C
tp532
asg24
I2004
sg61
Nsbag1
(g2
g3
NtRp533
(dp534
g69
V10.1126/scisignal.3109cm3
p535
sg65
VSCI SIGNAL
p536
sg67
V3
sg100
(lp537
(VGFELLER
VA
tp538
asg24
I2010
sg61
Nsbag1
(g2
g3
NtRp539
(dp540
g69
V10.1016/j.tplants.2012.02.003
p541
sg65
VTRENDS PLANT SCI
p542
sg67
V17
p543
sg100
(lp544
(VGONZALEZ
VN
tp545
asg24
I2012
sg61
V332
p546
sbag1
(g2
g3
NtRp547
(dp548
g69
V10.1104/pp.110.156018
p549
sg65
VPLANT PHYSIOL
p550
sg67
V153
p551
sg100
(lp552
(VGONZALEZ
VN
tp553
asg24
I2010
sg61
VLANT
p554
sbag1
(g2
g3
NtRp555
(dp556
g69
V10.1093/jxb/erm253
p557
sg65
VJ EXP BOT
p558
sg67
V58
p559
sg100
(lp560
(VGUIMIL
VS
tp561
asg24
I2007
sg61
V3829
p562
sbag1
(g2
g3
NtRp563
(dp564
g69
V10.1199/tab.0120
p565
sg65
VArabidopsis Book
p566
sg67
V7
sg100
(lp567
(VGUTIERREZ
VCRISANTO
tp568
asg24
I2009
sg61
Ve0120
p569
sbag1
(g2
g3
NtRp570
(dp571
g69
V10.1104/pp.128.2.354
p572
sg65
VPLANT PHYSIOL
p573
sg67
V128
p574
sg100
(lp575
(VHABERER
VG
tp576
asg24
I2002
sg61
VLANT
p577
sbag1
(g2
g3
NtRp578
(dp579
g69
V10.1242/dev.061804
p580
sg65
VDEVELOPMENT
p581
sg67
V138
p582
sg100
(lp583
(VHACHAM
VY
tp584
asg24
I2011
sg61
V839
p585
sbag1
(g2
g3
NtRp586
(dp587
g69
V10.1016/j.pbi.2009.11.001
p588
sg65
VCURR OPIN PLANT BIOL
p589
sg67
V13
p590
sg100
(lp591
(VHARASHIMA
VH
tp592
asg24
I2010
sg61
V66
p593
sbag1
(g2
g3
NtRp594
(dp595
g69
V10.1104/pp.110.161752
p596
sg65
VPLANT PHYSIOL
p597
sg67
V154
p598
sg100
(lp599
(VHARB
VA
tp600
asg24
I2010
sg61
VLANT
p601
sbag1
(g2
g3
NtRp602
(dp603
g69
V10.1105/tpc.109.066969
p604
sg65
VPLANT CELL
p605
sg67
V21
p606
sg100
(lp607
(VHARBERD
VN P
tp608
asg24
I2009
sg61
VLANT
p609
sbag1
(g2
g3
NtRp610
(dp611
g69
V10.1186/gb-2007-8-2-r19
p612
sg65
VGENOME BIOL
p613
sg67
V8
sg100
(lp614
(VHELLEMANS
VJ
tp615
asg24
I2007
sg61
Nsbag1
(g2
g3
NtRp616
(dp617
g69
V10.1105/tpc.112.098749
p618
sg65
VPLANT CELL
p619
sg67
V24
p620
sg100
(lp621
(VHONG
VG J
tp622
asg24
I2012
sg61
VLANT
p623
sbag1
(g2
g3
NtRp624
(dp625
g69
V10.3389/fpls.2011.00024
p626
sg65
VFront Plant Sci
p627
sg67
V2
sg100
(lp628
(VHORIGUCHI
VGOROU
tp629
asg24
I2011
sg61
V24
p630
sbag1
(g2
g3
NtRp631
(dp632
g69
V10.1038/sj.emboj.7601362
p633
sg65
VEMBO J
p634
sg67
V25
p635
sg100
(lp636
(VHORVATH
VB M
tp637
asg24
I2006
sg61
V4909
p638
sbag1
(g2
g3
NtRp639
(dp640
g69
V10.1016/j.devcel.2010.10.024
p641
sg65
VDEV CELL
p642
sg67
V19
p643
sg100
(lp644
(VHOU
VX L
tp645
asg24
I2010
sg61
V884
p646
sbag1
(g2
g3
NtRp647
(dp648
g69
V10.1111/j.1365-313X.2006.02750.x
p649
sg65
VPLANT J
p650
sg67
V47
p651
sg100
(lp652
(VHU
VY
tp653
asg24
I2006
sg61
VLANT
p654
sbag1
(g2
g3
NtRp655
(dp656
g69
Nsg65
VNUCLEIC ACIDS RES
p657
sg67
V35
p658
sg100
(lp659
(VHUANG
VW
tp660
asg24
I2007
sg61
VW169
p661
sbag1
(g2
g3
NtRp662
(dp663
g69
V10.1186/gb-2007-8-9-r18317784955
p664
sg65
VGENOME BIOL
p665
sg67
V8
sg100
(lp666
(VHUANG
VW
tp667
asg24
I2007
sg61
VR183
p668
sbag1
(g2
g3
NtRp669
(dp670
g69
V10.1105/tpc.105.037309
p671
sg65
VPLANT CELL
p672
sg67
V18
p673
sg100
(lp674
(VIMAI
VK K
tp675
asg24
I2006
sg61
VLANT
p676
sbag1
(g2
g3
NtRp677
(dp678
g69
V10.1038/sj.emboj.7600561
p679
sg65
VEMBO J
p680
sg67
V24
p681
sg100
(lp682
(VINZE
VD
tp683
asg24
I2005
sg61
V657
p684
sbag1
(g2
g3
NtRp685
(dp686
g69
V10.1146/annurev.genet.40.110405.090431
p687
sg65
VANNU REV GENET
p688
sg67
V40
p689
sg100
(lp690
(VINZE
VD
tp691
asg24
I2006
sg61
V77
p692
sbag1
(g2
g3
NtRp693
(dp694
g69
V10.1093/nar/gng015
p695
sg65
VNUCLEIC ACIDS RES
p696
sg67
V31
p697
sg100
(lp698
(VIRIZARRY
VR A
tp699
asg24
I2003
sg61
Nsbag1
(g2
g3
NtRp700
(dp701
g69
V10.1093/biostatistics/4.2.249
p702
sg65
VBIOSTATISTICS
p703
sg67
V4
sg100
(lp704
(VIRIZARRY
VR A
tp705
asg24
I2003
sg61
V249
p706
sbag1
(g2
g3
NtRp707
(dp708
g69
V10.1105/tpc.109.068072
p709
sg65
VPLANT CELL
p710
sg67
V21
p711
sg100
(lp712
(VISHIDA
VT
tp713
asg24
I2009
sg61
VLANT
p714
sbag1
(g2
g3
NtRp715
(dp716
g69
V10.1242/dev.035840
p717
sg65
VDEVELOPMENT
p718
sg67
V137
p719
sg100
(lp720
(VISHIDA
VT
tp721
asg24
I2010
sg61
V63
p722
sbag1
(g2
g3
NtRp723
(dp724
g69
Nsg65
VJ CELL SCI
p725
sg67
V115
p726
sg100
(lp727
(VJASINSKI
VS
tp728
asg24
I2002
sg61
V973
p729
sbag1
(g2
g3
NtRp730
(dp731
g69
V10.1034/j.1399-3054.1997.1000327.x
p732
sg65
VPHYSIOL PLANTARUM
p733
sg67
V100
p734
sg100
(lp735
(VKODA
VY
tp736
asg24
I1997
sg61
VHYSIOL
p737
sbag1
(g2
g3
NtRp738
(dp739
g69
V10.1105/tpc.107.057075
p740
sg65
VPLANT CELL
p741
sg67
V20
p742
sg100
(lp743
(VLOPEZ-JUEZ
VE
tp744
asg24
I2008
sg61
VLANT
p745
sbag1
(g2
g3
NtRp746
(dp747
g69
V10.1016/j.pbi.2005.07.003
p748
sg65
VCURR OPIN PLANT BIOL
p749
sg67
V8
sg100
(lp750
(VLORENZO
VO
tp751
asg24
I2005
sg61
V532
p752
sbag1
(g2
g3
NtRp753
(dp754
g69
V10.1007/7089_2007_156
p755
sg65
VV10
p756
sg67
V10
p757
sg100
(lp758
(VMAGYAR
VZOLTAN
tp759
asg24
I2008
sg61
V89
p760
sbag1
(g2
g3
NtRp761
(dp762
g69
V10.1105/tpc.105.033761
p763
sg65
VPLANT CELL
p764
sg67
V17
p765
sg100
(lp766
(VMAGYAR
VZ
tp767
asg24
I2005
sg61
VLANT
p768
sbag1
(g2
g3
NtRp769
(dp770
g69
Nsg65
VCAN J BOT
p771
sg67
V70
p772
sg100
(lp773
(VMANSFIELD
VS G
tp774
asg24
I1992
sg61
V151
p775
sbag1
(g2
g3
NtRp776
(dp777
g69
V10.3732/ajb.0900102
p778
sg65
VAM J BOT
p779
sg67
V97
p780
sg100
(lp781
(VMARCOTRIGIANO
VM
tp782
asg24
I2010
sg61
V224
p783
sbag1
(g2
g3
NtRp784
(dp785
g69
V10.1104/pp.109.148338
p786
sg65
VPLANT PHYSIOL
p787
sg67
V152
p788
sg100
(lp789
(VMASSONNET
VC
tp790
asg24
I2010
sg61
VLANT
p791
sbag1
(g2
g3
NtRp792
(dp793
g69
V10.1073/pnas.0507581102
p794
sg65
VP NATL ACAD SCI USA
p795
sg67
V102
p796
sg100
(lp797
(VMASUBELELE
VN H
tp798
asg24
I2005
sg61
V15694
p799
sbag1
(g2
g3
NtRp800
(dp801
g69
V10.1016/j.febslet.2004.07.088
p802
sg65
VFEBS LETT
p803
sg67
V574
p804
sg100
(lp805
(VMASUDA
VH P
tp806
asg24
I2004
sg61
V192
p807
sbag1
(g2
g3
NtRp808
(dp809
g69
V10.1038/emboj.2008.191
p810
sg65
VEMBO J
p811
sg67
V27
p812
sg100
(lp813
(VMASUDA
VH P
tp814
asg24
I2008
sg61
V2746
p815
sbag1
(g2
g3
NtRp816
(dp817
g69
V10.1111/j.1365-313X.2004.02319.x
p818
sg65
VPLANT J
p819
sg67
V41
p820
sg100
(lp821
(VMENGES
VM
tp822
asg24
I2005
sg61
VLANT
p823
sbag1
(g2
g3
NtRp824
(dp825
g69
V10.1016/j.cub.2008.03.060
p826
sg65
VCURR BIOL
p827
sg67
V18
p828
sg100
(lp829
(VNAVARRO
VL
tp830
asg24
I2008
sg61
V650
p831
sbag1
(g2
g3
NtRp832
(dp833
g69
Nsg65
VVENNY INTERACTIVE TO
p834
sg67
VENNY
p835
sg100
(lp836
(VOLIVEROS
VJ C
tp837
asg24
I2007
sg61
Nsbag1
(g2
g3
NtRp838
(dp839
g69
V10.1046/j.1365-313X.2002.01328.x
p840
sg65
VPLANT J
p841
sg67
V31
p842
sg100
(lp843
(VPARK
VJ H
tp844
asg24
I2002
sg61
VLANT
p845
sbag1
(g2
g3
NtRp846
(dp847
g69
V10.1073/pnas.0711203105
p848
sg65
VP NATL ACAD SCI USA
p849
sg67
V105
p850
sg100
(lp851
(VPAUWELS
VL
tp852
asg24
I2008
sg61
V1380
p853
sbag1
(g2
g3
NtRp854
(dp855
g69
V10.1101/cshperspect.a001446
p856
sg65
VCSH PERSPECT BIOL
p857
sg67
V2
sg100
(lp858
(VPERROT-RECHENMANN
VC
tp859
asg24
I2010
sg61
Nsbag1
(g2
g3
NtRp860
(dp861
g69
V10.1016/0014-5793(94)01397-J
p862
sg65
VFEBS LETT
p863
sg67
V358
p864
sg100
(lp865
(VPHILIPPS
VG
tp866
asg24
I1995
sg61
V67
p867
sbag1
(g2
g3
NtRp868
(dp869
g69
V10.1016/j.cub.2012.02.010
p870
sg65
VCURR BIOL
p871
sg67
V22
p872
sg100
(lp873
(VPOWELL
VA E
tp874
asg24
I2012
sg61
VR360
p875
sbag1
(g2
g3
NtRp876
(dp877
g69
V10.1111/j.1365-313X.2006.02799.x
p878
sg65
VPLANT J
p879
sg67
V47
p880
sg100
(lp881
(VRAYNAUD
VC
tp882
asg24
I2006
sg61
VLANT
p883
sbag1
(g2
g3
NtRp884
(dp885
g69
V10.1105/tpc.104.026120
p886
sg65
VPLANT CELL
p887
sg67
V16
p888
sg100
(lp889
(VREYMOND
VP
tp890
asg24
I2004
sg61
VLANT
p891
sbag1
(g2
g3
NtRp892
(dp893
g69
V10.1016/j.phytochem.2009.07.032
p894
sg65
VPHYTOCHEMISTRY
p895
sg67
V70
p896
sg100
(lp897
(VSCHALLER
VA
tp898
asg24
I2009
sg61
VHYTOCHEMISTRY
p899
sbag1
(g2
g3
NtRp900
(dp901
g69
V10.1073/pnas.081557298
p902
sg65
VP NATL ACAD SCI USA
p903
sg67
V98
p904
sg100
(lp905
(VSEO
VH S
tp906
asg24
I2001
sg61
V4788
p907
sbag1
(g2
g3
NtRp908
(dp909
g69
V10.1016/j.copbio.2010.03.002
p910
sg65
VCURR OPIN BIOTECH
p911
sg67
V21
p912
sg100
(lp913
(VSKIRYCZ
VA
tp914
asg24
I2010
sg61
V197
p915
sbag1
(g2
g3
NtRp916
(dp917
g69
V10.1105/tpc.111.084160
p918
sg65
VPLANT CELL
p919
sg67
V23
p920
sg100
(lp921
(VSKIRYCZ
VA
tp922
asg24
I2011
sg61
VLANT
p923
sbag1
(g2
g3
NtRp924
(dp925
g69
VDOI 10.2202/1544-6115.1027
p926
sg65
VSTAT APPL GENET MOL
p927
sg67
V3
sg100
(lp928
(VSMYTH
VG K
tp929
asg24
I2004
sg61
V3
sbag1
(g2
g3
NtRp930
(dp931
g69
V10.1038/sj.onc.1207579
p932
sg65
VONCOGENE
p933
sg67
V23
p934
sg100
(lp935
(VSQUATRITO
VM
tp936
asg24
I2004
sg61
V4454
p937
sbag1
(g2
g3
NtRp938
(dp939
g69
V10.1073/pnas.89.15.6837
p940
sg65
VP NATL ACAD SCI USA
p941
sg67
V89
p942
sg100
(lp943
(VSTASWICK
VP E
tp944
asg24
I1992
sg61
V6837
p945
sbag1
(g2
g3
NtRp946
(dp947
g69
V10.1074/jbc.M205125200
p948
sg65
VJ BIOL CHEM
p949
sg67
V277
p950
sg100
(lp951
(VSTEVENS
VR
tp952
asg24
I2002
sg61
V32978
p953
sbag1
(g2
g3
NtRp954
(dp955
g69
V10.1073/pnas.0505883102
p956
sg65
VP NATL ACAD SCI USA
p957
sg67
V102
p958
sg100
(lp959
(VSUGIMOTO-SHIRASU
VK
tp960
asg24
I2005
sg61
V18736
p961
sbag1
(g2
g3
NtRp962
(dp963
g69
V10.1016/j.pbi.2003.09.009
p964
sg65
VCURR OPIN PLANT BIOL
p965
sg67
V6
sg100
(lp966
(VSUGIMOTO-SHIRASU
VK
tp967
asg24
I2003
sg61
V544
p968
sbag1
(g2
g3
NtRp969
(dp970
g69
V10.1016/j.febslet.2004.07.018
p971
sg65
VFEBS LETT
p972
sg67
V572
p973
sg100
(lp974
(VSWIATEK
VA
tp975
asg24
I2004
sg61
V118
p976
sbag1
(g2
g3
NtRp977
(dp978
g69
V10.1104/pp.128.1.201
p979
sg65
VPLANT PHYSIOL
p980
sg67
V128
p981
sg100
(lp982
(VSWIATEK
VA
tp983
asg24
I2002
sg61
VLANT
p984
sbag1
(g2
g3
NtRp985
(dp986
g69
V10.1038/nature05960
p987
sg65
VNATURE
p988
sg67
V448
p989
sg100
(lp990
(VTHINES
VB
tp991
asg24
I2007
sg61
V661
p992
sbag1
(g2
g3
NtRp993
(dp994
g69
V10.1046/j.1365-313X.2003.01682.x
p995
sg65
VPLANT J
p996
sg67
V33
p997
sg100
(lp998
(VTREMOUSAYGUE
VD
tp999
asg24
I2003
sg61
VLANT
p1000
sbag1
(g2
g3
NtRp1001
(dp1002
g69
V10.1387/ijdb.041921ht
p1003
sg65
VINT J DEV BIOL
p1004
sg67
V49
p1005
sg100
(lp1006
(VTSUKAYA
VH
tp1007
asg24
I2005
sg61
V547
p1008
sbag1
(g2
g3
NtRp1009
(dp1010
g69
V10.1007/s10265-005-0254-y
p1011
sg65
VJ PLANT RES
p1012
sg67
V119
p1013
sg100
(lp1014
(VTSUKAYA
VH
tp1015
asg24
I2006
sg61
V1
sbag1
(g2
g3
NtRp1016
(dp1017
g69
Nsg65
VTanpakushitsu Kakusan Koso
p1018
sg67
V39
p1019
sg100
(lp1020
(VTSUKAYA
VH
tp1021
asg24
I1994
sg61
V2580
p1022
sbag1
(g2
g3
NtRp1023
(dp1024
g69
V10.1016/S0167-4781(98)00204-8
p1025
sg65
VBBA
p1026
sg67
V1443
p1027
sg100
(lp1028
(VTSURIMOTO
VT
tp1029
asg24
I1998
sg61
V23
p1030
sbag1
(g2
g3
NtRp1031
(dp1032
g69
V10.1038/msb.2010.53
p1033
sg65
VMOL SYST BIOL
p1034
sg67
V6
sg100
(lp1035
(VVAN
VLEENE J
tp1036
asg24
I2010
sg61
Nsbag1
(g2
g3
NtRp1037
(dp1038
g69
V10.1105/tpc.010445
p1039
sg65
VPLANT CELL
p1040
sg67
V14
p1041
sg100
(lp1042
(VVANDEPOELE
VK
tp1043
asg24
I2002
sg61
VLANT
p1044
sbag1
(g2
g3
NtRp1045
(dp1046
g69
V10.1104/pp.105.066290
p1047
sg65
VPLANT PHYSIOL
p1048
sg67
V139
p1049
sg100
(lp1050
(VVANDEPOELE
VK
tp1051
asg24
I2005
sg61
VLANT
p1052
sbag1
(g2
g3
NtRp1053
(dp1054
g69
V10.1186/gb-2002-3-7-research0034
p1055
sg65
VGENOME BIOL
p1056
sg67
V3
sg100
(lp1057
(VVANDESOMPELE
VJ
tp1058
asg24
I2002
sg61
Nsbag1
(g2
g3
NtRp1059
(dp1060
g69
V10.1016/j.tplants.2010.12.004
p1061
sg65
VTRENDS PLANT SCI
p1062
sg67
V16
p1063
sg100
(lp1064
(VVAN
VLEENE J
tp1065
asg24
I2011
sg61
V141
p1066
sbag1
(g2
g3
NtRp1067
(dp1068
g69
V10.1007/s00425-002-0906-2
p1069
sg65
VPLANTA
p1070
sg67
V216
p1071
sg100
(lp1072
(VVON
VMALEK B
tp1073
asg24
I2002
sg61
VLANTA
p1074
sbag1
(g2
g3
NtRp1075
(dp1076
g69
V10.1105/tpc.105.037044
p1077
sg65
VPLANT CELL
p1078
sg67
V18
p1079
sg100
(lp1080
(VWANG
VC X
tp1081
asg24
I2006
sg61
VLANT
p1082
sbag1
(g2
g3
NtRp1083
(dp1084
g69
V10.1021/cb900269u
p1085
sg65
VACS CHEM BIOL
p1086
sg67
V5
sg100
(lp1087
(VWASTERNACK
VC
tp1088
asg24
I2010
sg61
V63
p1089
sbag1
(g2
g3
NtRp1090
(dp1091
g69
V10.1105/tpc.107.056895
p1092
sg65
VPLANT CELL
p1093
sg67
V20
p1094
sg100
(lp1095
(VWESTPHAL
VL
tp1096
asg24
I2008
sg61
VLANT
p1097
sbag1
(g2
g3
NtRp1098
(dp1099
g69
V10.1093/bioinformatics/btl025
p1100
sg65
VBIOINFORMATICS
p1101
sg67
V22
p1102
sg100
(lp1103
(VWETTENHALL
VJ M
tp1104
asg24
I2006
sg61
V897
p1105
sbag1
(g2
g3
NtRp1106
(dp1107
g69
V10.1105/tpc.112.101428
p1108
sg65
VPLANT CELL
p1109
sg67
V24
p1110
sg100
(lp1111
(VWILD
VM
tp1112
asg24
I2012
sg61
VLANT
p1113
sbag1
(g2
g3
NtRp1114
(dp1115
g69
V10.1016/j.pbi.2010.05.005
p1116
sg65
VCURR OPIN PLANT BIOL
p1117
sg67
V13
p1118
sg100
(lp1119
(VWILDERMUTH
VM C
tp1120
asg24
I2010
sg61
V449
p1121
sbag1
(g2
g3
NtRp1122
(dp1123
g69
V10.1093/jxb/erm300
p1124
sg65
VJ EXP BOT
p1125
sg67
V59
p1126
sg100
(lp1127
(VWU
VK
tp1128
asg24
I2008
sg61
V225
p1129
sbag1
(g2
g3
NtRp1130
(dp1131
g69
V10.1016/S0092-8674(02)01042-5
p1132
sg65
VCELL
p1133
sg67
V111
p1134
sg100
(lp1135
(VWUARIN
VJ
tp1136
asg24
I2002
sg61
V419
p1137
sbag1
(g2
g3
NtRp1138
(dp1139
g69
V10.1126/science.280.5366.1091
p1140
sg65
VSCIENCE
p1141
sg67
V280
p1142
sg100
(lp1143
(VXIE
VD X
tp1144
asg24
I1998
sg61
V1091
p1145
sbag1
(g2
g3
NtRp1146
(dp1147
g69
V10.1105/tpc.003368
p1148
sg65
VPLANT CELL
p1149
sg67
V14
p1150
sg100
(lp1151
(VXU
VL H
tp1152
asg24
I2002
sg61
VLANT
p1153
sbag1
(g2
g3
NtRp1154
(dp1155
g69
V10.1105/tpc.109.065730
p1156
sg65
VPLANT CELL
p1157
sg67
V21
p1158
sg100
(lp1159
(VYAN
VJ B
tp1160
asg24
I2009
sg61
VLANT
p1161
sbag1
(g2
g3
NtRp1162
(dp1163
g69
V10.1105/tpc.107.050708
p1164
sg65
VPLANT CELL
p1165
sg67
V19
p1166
sg100
(lp1167
(VYAN
VY X
tp1168
asg24
I2007
sg61
VLANT
p1169
sbag1
(g2
g3
NtRp1170
(dp1171
g69
V10.1073/pnas.1201616109
p1172
sg65
VP NATL ACAD SCI USA
p1173
sg67
V109
p1174
sg100
(lp1175
(VYANG
VD L
tp1176
asg24
I2012
sg61
VE1192
p1177
sbag1
(g2
g3
NtRp1178
(dp1179
g69
V10.1242/dev.030585
p1180
sg65
VDEVELOPMENT
p1181
sg67
V136
p1182
sg100
(lp1183
(VYOSHIDA
VY
tp1184
asg24
I2009
sg61
V1039
p1185
sbag1
(g2
g3
NtRp1186
(dp1187
g69
V10.1105/tpc.015990
p1188
sg65
VPLANT CELL
p1189
sg67
V15
p1190
sg100
(lp1191
(VYU
VY
tp1192
asg24
I2003
sg61
VLANT
p1193
sbag1
(g2
g3
NtRp1194
(dp1195
g69
V10.1371/journal.pone.0003699
p1196
sg65
VPLOS ONE
p1197
sg67
V3
sg100
(lp1198
(VZHANG
VY
tp1199
asg24
I2008
sg61
VLOS
p1200
sbag1
(g2
g3
NtRp1201
(dp1202
g69
V10.1104/pp.105.072173
p1203
sg65
VPLANT PHYSIOL
p1204
sg67
V140
p1205
sg100
(lp1206
(VZHIPONOVA
VM K
tp1207
asg24
I2006
sg61
VLANT
p1208
sbag1
(g2
g3
NtRp1209
(dp1210
g69
V10.1105/tpc.104.028514
p1211
sg65
VPLANT CELL
p1212
sg67
V17
p1213
sg100
(lp1214
(VZHOU
VC H
tp1215
asg24
I2005
sg61
VLANT
p1216
sbasb.