ccopy_reg
_reconstructor
p1
(ctethne.classes.paper
Paper
p2
c__builtin__
object
p3
NtRp4
(dp5
S'publisherCity'
p6
VROCKVILLE
p7
sS'reprintAddress'
p8
VWhitham, SA (reprint author), Iowa State Univ, Dept Plant Pathol, Ames, IA 50011 USA.
p9
sS'WC'
p10
VPlant Sciences
p11
sS'GA'
p12
V844BL
p13
sS'FX'
p14
(lp15
VThis work was supported by the National Science Foundation Plant Genome
p16
aVResearch Program (award no. 0820642), the Iowa Soybean Association, the
p17
aVUnited Soybean Board, the North Central Soybean Association, and Hatch
p18
aVAct and State of Iowa funds. This is a journal paper of the Iowa
p19
aVAgriculture and Home Economics Experiment Station (Ames, IA; project no.
p20
aV3608).
p21
asS'abstract'
p22
VMitogen-activated protein kinase (MAPK) cascades play important roles in disease resistance in model plant species such as Arabidopsis (Arabidopsis thaliana) and tobacco (Nicotiana tabacum). However, the importance of MAPK signaling pathways in the disease resistance of crops is still largely uninvestigated. To better understand the role of MAPK signaling pathways in disease resistance in soybean (Glycine max), 13, nine, and 10 genes encoding distinct MAPKs, MAPKKs, and MAPKKKs, respectively, were silenced using virus-induced gene silencing mediated by Bean pod mottle virus. Among the plants silenced for various MAPKs, MAPKKs, and MAPKKKs, those in which GmMAPK4 homologs (GmMPK4s) were silenced displayed strong phenotypes including stunted stature and spontaneous cell death on the leaves and stems, the characteristic hallmarks of activated defense responses. Microarray analysis showed that genes involved in defense responses, such as those in salicylic acid (SA) signaling pathways, were significantly up-regulated in GmMPK4-silenced plants, whereas genes involved in growth and development, such as those in auxin signaling pathways and in cell cycle and proliferation, were significantly down-regulated. As expected, SA and hydrogen peroxide accumulation was significantly increased in GmMPK4-silenced plants. Accordingly, GmMPK4-silenced plants were more resistant to downy mildew and Soybean mosaic virus compared with vector control plants. Using bimolecular fluorescence complementation analysis and in vitro kinase assays, we determined that GmMKK1 and GmMKK2 might function upstream of GmMPK4. Taken together, our results indicate that GmMPK4s negatively regulate SA accumulation and defense response but positively regulate plant growth and development, and their functions are conserved across plant species.
p23
sS'pageEnd'
p24
I1378
sS'date'
p25
I2011
sS'documentType'
p26
VArticle
p27
sS'subject'
p28
VPlant Sciences
p29
sS'isoSource'
p30
VPlant Physiol.
p31
sS'timesCited'
p32
(lp33
I11
aVZ9 12
p34
asS'funding'
p35
(lp36
(VNational Science Foundation
V0820642
tp37
a(VIowa Soybean Association
Ntp38
a(VUnited Soybean Board
Ntp39
a(VNorth Central Soybean Association
Ntp40
a(VHatch Act fund
Ntp41
a(VState of Iowa
Ntp42
asS'PT'
p43
VJ
sS'title'
p44
VSoybean Homologs Of Mpk4 Negatively Regulate Defense Responses And Positively Regulate Growth And Development
p45
sS'ISSN'
p46
(lp47
V0032-0889
p48
aVJ9 PLANT PHYSIOL
p49
asS'authors_full'
p50
(lp51
(VLIU
VJIANZHONG
tp52
a(VHORSTMAN
VHEIDI D
tp53
a(VBRAUN
VEDWARD
tp54
a(VGRAHAM
VMICHELLE A
tp55
a(VZHANG
VCHUNQUAN
tp56
a(VNAVARRE
VDUROY
tp57
a(VQIU
VWENLI
tp58
a(VLEE
VYEUNSOOK
tp59
a(VNETTLETON
VDAN
tp60
a(VHILL
VJOHN H
tp61
a(VWHITHAM
VSTEVEN A
tp62
asS'PG'
p63
I16
sS'PD'
p64
VNOV
p65
sS'pageStart'
p66
I1363
sS'issue'
p67
I3
sS'RI'
p68
VLiu, Jianzhong/B-9205-2012; Graham, Michelle/C-7144-2013
p69
sS'journal'
p70
VPLANT PHYSIOLOGY
p71
sS'volume'
p72
V157
p73
sS'doi'
p74
V10.1104/pp.111.185686
p75
sS'emailAddress'
p76
Vswhitham@iastate.edu
p77
sS'authorAddress'
p78
(lp79
V[Liu, Jian-Zhong; Horstman, Heidi D.; Braun, Edward; Zhang, Chunquan; Qiu, Wen-Li; Lee, Yeunsook; Hill, John H.; Whitham, Steven A.] Iowa State Univ, Dept Plant Pathol, Ames, IA 50011 USA.
p80
aV[Graham, Michelle A.] Iowa State Univ, Dept Agron, Ames, IA 50011 USA.
p81
aV[Navarre, Duroy] Iowa State Univ, Dept Stat, Ames, IA 50011 USA.
p82
aV[Graham, Michelle A.] USDA ARS, Corn Insects & Crop Genet Res Unit, Ames, IA 50011 USA.
p83
aV[Nettleton, Dan] Washington State Univ, USDA ARS, Dept Plant Pathol, Prosser, WA 99350 USA.
p84
asS'publisherAddress'
p85
V15501 MONONA DRIVE, ROCKVILLE, MD 20855 USA
p86
sS'ER'
p87
V
sS'publisher'
p88
VAMER SOC PLANT BIOLOGISTS
p89
sS'authorKeywords'
p90
(lp91
VACTIVATED PROTEIN-KINASE
p92
aVSYSTEMIC ACQUIRED-RESISTANCE
p93
aVWRKY TRANSCRIPTION FACTORS
p94
aVPLANT-DISEASE-RESISTANCE
p95
aVSALICYLIC-ACID
p96
aVCELL-DEATH
p97
aVARABIDOPSIS-THALIANA
p98
aVSIGNAL-TRANSDUCTION
p99
aVFUNCTIONAL-ANALYSIS
p100
aVOXIDATIVE STRESS
p101
asS'language'
p102
VEnglish
p103
sS'wosid'
p104
VWOS:000296722300030
p105
sS'citationCount'
p106
I86
sS'authors_init'
p107
(lp108
(VLIU
VJ Z
tp109
a(VHORSTMAN
VH D
tp110
a(VBRAUN
VE
tp111
a(VGRAHAM
VM A
tp112
a(VZHANG
VC Q
tp113
a(VNAVARRE
VD
tp114
a(VQIU
VW L
tp115
a(VLEE
VY
tp116
a(VNETTLETON
VD
tp117
a(VHILL
VJ H
tp118
a(VWHITHAM
VS A
tp119
asS'citedReferences'
p120
(lp121
g1
(g2
g3
NtRp122
(dp123
g74
V10.1093/nar/25.17.3389
p124
sg70
VNUCLEIC ACIDS RES
p125
sg72
V25
p126
sg107
(lp127
(VALTSCHUL
VS F
tp128
asg25
I1997
sg66
V3389
p129
sbag1
(g2
g3
NtRp130
(dp131
g74
V10.1038/sj.emboj.7600737
p132
sg70
VEMBO J
p133
sg72
V24
p134
sg107
(lp135
(VANDREASSON
VE
tp136
asg25
I2005
sg66
V2579
p137
sbag1
(g2
g3
NtRp138
(dp139
g74
V10.1093/bioinformatics/btg165
p140
sg70
VBIOINFORMATICS
p141
sg72
V19
p142
sg107
(lp143
(VDRAGHICI
VS
tp144
asg25
I2003
sg66
V1348
p145
sbag1
(g2
g3
NtRp146
(dp147
g74
V10.1146/annurev.arplant.55.031903.141701
p148
sg70
VANNU REV PLANT BIOL
p149
sg72
V55
p150
sg107
(lp151
(VAPEL
VK
tp152
asg25
I2004
sg66
V373
p153
sbag1
(g2
g3
NtRp154
(dp155
g74
V10.1093/nar/gkh131
p156
sg70
VNUCLEIC ACIDS RES
p157
sg72
V32
p158
sg107
(lp159
(VAPWEILER
VR
tp160
asg25
I2004
sg66
VD115
p161
sbag1
(g2
g3
NtRp162
(dp163
g74
V10.1038/415977a
p164
sg70
VNATURE
p165
sg72
V415
p166
sg107
(lp167
(VASAI
VT
tp168
asg25
I2002
sg66
V977
p169
sbag1
(g2
g3
NtRp170
(dp171
g74
Nsg70
VNAT GENET
p172
sg72
V25
p173
sg107
(lp174
(VASHBURNER
VM
tp175
asg25
I2000
sg66
V25
p176
sbag1
(g2
g3
NtRp177
(dp178
g74
V10.1111/j.1469-8137.2010.03565.x
p179
sg70
VNEW PHYTOL
p180
sg72
V189
p181
sg107
(lp182
(VBECK
VM
tp183
asg25
I2011
sg66
V1069
p184
sbag1
(g2
g3
NtRp185
(dp186
g74
Nsg70
VJ ROY STAT SOC B MET
p187
sg72
V57
p188
sg107
(lp189
(VBENJAMINI
VY
tp190
asg25
I1995
sg66
V289
p191
sbag1
(g2
g3
NtRp192
(dp193
g74
V10.1111/j.1365-313X.2006.02806.x
p194
sg70
VPLANT J
p195
sg72
V47
p196
sg107
(lp197
(VBRODERSEN
VP
tp198
asg25
I2006
sg66
VLANT
p199
sbag1
(g2
g3
NtRp200
(dp201
g74
V10.1073/pnas.88.18.8179
p202
sg70
VP NATL ACAD SCI USA
p203
sg72
V88
p204
sg107
(lp205
(VCHEN
VZ X
tp206
asg25
I1991
sg66
V8179
p207
sbag1
(g2
g3
NtRp208
(dp209
g74
V10.1073/pnas.0704901104
p210
sg70
VP NATL ACAD SCI USA
p211
sg72
V104
p212
sg107
(lp213
(VCHEN
VZ Y
tp214
asg25
I2007
sg66
V20131
p215
sbag1
(g2
g3
NtRp216
(dp217
g74
V10.1016/S0167-4781(02)00298-1
p218
sg70
VBBA
p219
sg72
V1576
p220
sg107
(lp221
(VCORMACK
VR S
tp222
asg25
I2002
sg66
V92
p223
sbag1
(g2
g3
NtRp224
(dp225
g74
V10.1038/29087
p226
sg70
VNATURE
p227
sg72
V394
p228
sg107
(lp229
(VDELLEDONNE
VM
tp230
asg25
I1998
sg66
V585
p231
sbag1
(g2
g3
NtRp232
(dp233
g74
V10.1016/S0092-8674(00)81911-X
p234
sg70
VCELL
p235
sg72
V88
p236
sg107
(lp237
(VDIETRICH
VR A
tp238
asg25
I1997
sg66
V685
p239
sbag1
(g2
g3
NtRp240
(dp241
g74
V10.1023/A:1020780022549
p242
sg70
VPLANT MOL BIOL
p243
sg72
V51
p244
sg107
(lp245
(VDONG
VJ X
tp246
asg25
I2003
sg66
VLANT
p247
sbag1
(g2
g3
NtRp248
(dp249
g74
V10.1146/annurev.phyto.42.040803.140421
p250
sg70
VANNU REV PHYTOPATHOL
p251
sg72
V42
p252
sg107
(lp253
(VDURRANT
VW E
tp254
asg25
I2004
sg66
V185
p255
sbag1
(g2
g3
NtRp256
(dp257
g74
V10.1093/nar/30.1.207
p258
sg70
VNUCLEIC ACIDS RES
p259
sg72
V30
p260
sg107
(lp261
(VEDGAR
VR
tp262
asg25
I2002
sg66
V207
p263
sbag1
(g2
g3
NtRp264
(dp265
g74
V10.1016/j.pbi.2007.04.020
p266
sg70
VCURR OPIN PLANT BIOL
p267
sg72
V10
p268
sg107
(lp269
(VEULGEM
VT
tp270
asg25
I2007
sg66
V366
p271
sbag1
(g2
g3
NtRp272
(dp273
g74
V10.1016/S1360-1385(00)01600-9
p274
sg70
VTRENDS PLANT SCI
p275
sg72
V5
sg107
(lp276
(VEULGEM
VT
tp277
asg25
I2000
sg66
V199
p278
sbag1
(g2
g3
NtRp279
(dp280
g74
Nsg70
VDESIGN EXPT
p281
sg72
Nsg107
(lp282
(VFISHER
VR A
tp283
asg25
I1966
sg66
Nsbag1
(g2
g3
NtRp284
(dp285
g74
V10.1094/MPMI-22-1-0086
p286
sg70
VMOL PLANT MICROBE IN
p287
sg72
V22
p288
sg107
(lp289
(VFU
VD Q
tp290
asg25
I2009
sg66
V86
p291
sbag1
(g2
g3
NtRp292
(dp293
g74
V10.1038/cr.2008.300
p294
sg70
VCELL RES
p295
sg72
V18
p296
sg107
(lp297
(VGAO
VM H
tp298
asg25
I2008
sg66
V1190
p299
sbag1
(g2
g3
NtRp300
(dp301
g74
V10.1093/bioinformatics/btg405
p302
sg70
VBIOINFORMATICS
p303
sg72
V20
p304
sg107
(lp305
(VGAUTIER
VL
tp306
asg25
I2004
sg66
V307
p307
sbag1
(g2
g3
NtRp308
(dp309
g74
V10.1093/pcp/pci211
p310
sg70
VPLANT CELL PHYSIOL
p311
sg72
V46
p312
sg107
(lp313
(VGOMI
VK
tp314
asg25
I2005
sg66
VLANT
p315
sbag1
(g2
g3
NtRp316
(dp317
g74
Nsg70
VTRENDS PLANT SCI
p318
sg72
V7
sg107
(lp319
(VICHIMURA
VK
tp320
asg25
I2002
sg66
V301
p321
sbag1
(g2
g3
NtRp322
(dp323
g74
V10.1094/MPMI-05-10-0121
p324
sg70
VMOL PLANT MICROBE IN
p325
sg72
V23
p326
sg107
(lp327
(VHARRIES
VP A
tp328
asg25
I2010
sg66
V1381
p329
sbag1
(g2
g3
NtRp330
(dp331
g74
V10.1094/Phyto-74-1370
p332
sg70
VPHYTOPATHOLOGY
p333
sg72
V74
p334
sg107
(lp335
(VHEATH
VM C
tp336
asg25
I1984
sg66
VHYTOPATHOLOGY
p337
sbag1
(g2
g3
NtRp338
(dp339
g74
V10.1094/Phyto-86-704
p340
sg70
VPHYTOPATHOLOGY
p341
sg72
V86
p342
sg107
(lp343
(VHOOD
VM E
tp344
asg25
I1996
sg66
VHYTOPATHOLOGY
p345
sbag1
(g2
g3
NtRp346
(dp347
g74
V10.1104/pp.110.157370
p348
sg70
VPLANT PHYSIOL
p349
sg72
V153
p350
sg107
(lp351
(VHUANG
VJ L
tp352
asg25
I2010
sg66
VLANT
p353
sbag1
(g2
g3
NtRp354
(dp355
g74
V10.1074/jbc.M605319200
p356
sg70
VJ BIOL CHEM
p357
sg72
V281
p358
sg107
(lp359
(VICHIMURA
VK
tp360
asg25
I2006
sg66
V36969
p361
sbag1
(g2
g3
NtRp362
(dp363
g74
V10.1016/S1360-1385(01)02058-1
p364
sg70
VTRENDS PLANT SCI
p365
sg72
V6
sg107
(lp366
(VINNES
VR W
tp367
asg25
I2001
sg66
V392
p368
sbag1
(g2
g3
NtRp369
(dp370
g74
Nsg70
VSTAT APPL GENET MOL
p371
sg72
V2
sg107
(lp372
(VIRIZARRY
VR A
tp373
asg25
I2003
sg66
V1
sbag1
(g2
g3
NtRp374
(dp375
g74
V10.1038/342837a0
p376
sg70
VNATURE
p377
sg72
V342
p378
sg107
(lp379
(VJEFFERSON
VR A
tp380
asg25
I1989
sg66
V837
p381
sbag1
(g2
g3
NtRp382
(dp383
g74
V10.1038/nature05286
p384
sg70
VNATURE
p385
sg72
V444
p386
sg107
(lp387
(VJONES
VJ D G
tp388
asg25
I2006
sg66
V323
p389
sbag1
(g2
g3
NtRp390
(dp391
g74
V10.1016/S1360-1385(02)02251-3
p392
sg70
VTRENDS PLANT SCI
p393
sg72
V7
sg107
(lp394
(VKARIMI
VM
tp395
asg25
I2002
sg66
V193
p396
sbag1
(g2
g3
NtRp397
(dp398
g74
V10.1111/j.1365-313X.2010.04264.x
p399
sg70
VPLANT J
p400
sg72
V63
p401
sg107
(lp402
(VKISHI-KABOSHI
VM
tp403
asg25
I2010
sg66
VLANT
p404
sbag1
(g2
g3
NtRp405
(dp406
g74
V10.1105/tpc.110.077164
p407
sg70
VPLANT CELL
p408
sg72
V22
p409
sg107
(lp410
(VKOSETSU
VK
tp411
asg25
I2010
sg66
VLANT
p412
sbag1
(g2
g3
NtRp413
(dp414
g74
V10.1073/pnas.97.6.2940
p415
sg70
VP NATL ACAD SCI USA
p416
sg72
V97
p417
sg107
(lp418
(VKOVTUN
VY
tp419
asg25
I2000
sg66
V2940
p420
sbag1
(g2
g3
NtRp421
(dp422
g74
V10.1146/annurev.arplant.48.1.251
p423
sg70
VANNU REV PLANT PHYS
p424
sg72
V48
p425
sg107
(lp426
(VLAMB
VC
tp427
asg25
I1997
sg66
V251
p428
sbag1
(g2
g3
NtRp429
(dp430
g74
Nsg70
VPlant Signal Behav
p431
sg72
V3
sg107
(lp432
(VLEE
VJ I N S U K
tp433
asg25
I2008
sg66
Vlant
p434
sbag1
(g2
g3
NtRp435
(dp436
g74
V10.1104/pp.105.065722
p437
sg70
VPLANT PHYSIOL
p438
sg72
V138
p439
sg107
(lp440
(VLIU
VJ Z
tp441
asg25
I2005
sg66
VLANT
p442
sbag1
(g2
g3
NtRp443
(dp444
g74
V10.1105/tpc.111.084996
p445
sg70
VPLANT CELL
p446
sg72
V23
p447
sg107
(lp448
(VMAO
VG H
tp449
asg25
I2011
sg66
VLANT
p450
sbag1
(g2
g3
NtRp451
(dp452
g74
V10.1094/MPMI-18-1027
p453
sg70
VMOL PLANT MICROBE IN
p454
sg72
V18
p455
sg107
(lp456
(VMENKE
VF L H
tp457
asg25
I2005
sg66
V1027
p458
sbag1
(g2
g3
NtRp459
(dp460
g74
V10.1111/j.1365-313X.2006.02888.x
p461
sg70
VPLANT J
p462
sg72
V48
p463
sg107
(lp464
(VMESZAROS
VT
tp465
asg25
I2006
sg66
VLANT
p466
sbag1
(g2
g3
NtRp467
(dp468
g74
V10.1074/jbc.M605293200
p469
sg70
VJ BIOL CHEM
p470
sg72
V281
p471
sg107
(lp472
(VNAKAGAMI
VH
tp473
asg25
I2006
sg66
V38697
p474
sbag1
(g2
g3
NtRp475
(dp476
g74
V10.1007/s00709-010-0246-1
p477
sg70
VPROTOPLASMA
p478
sg72
V248
p479
sg107
(lp480
(VNIEHL
VA
tp481
asg25
I2011
sg66
VROTOPLASMA
p482
sbag1
(g2
g3
NtRp483
(dp484
g74
V10.1007/s00425-007-0556-5
p485
sg70
VPLANTA
p486
sg72
V226
p487
sg107
(lp488
(VOGAWA
VD
tp489
asg25
I2007
sg66
VLANTA
p490
sbag1
(g2
g3
NtRp491
(dp492
g74
V10.1094/MPMI-08-10-0187
p493
sg70
VMOL PLANT MICROBE IN
p494
sg72
V24
p495
sg107
(lp496
(VPANDEY
VA K
tp497
asg25
I2011
sg66
V194
p498
sbag1
(g2
g3
NtRp499
(dp500
g74
V10.1016/j.pbi.2005.07.006
p501
sg70
VCURR OPIN PLANT BIOL
p502
sg72
V8
sg107
(lp503
(VPEDLEY
VK F
tp504
asg25
I2005
sg66
V541
p505
sbag1
(g2
g3
NtRp506
(dp507
g74
V10.1016/S0092-8674(00)00213-0
p508
sg70
VCELL
p509
sg72
V103
p510
sg107
(lp511
(VPETERSEN
VM
tp512
asg25
I2000
sg66
V1111
p513
sbag1
(g2
g3
NtRp514
(dp515
g74
V10.1093/mp/ssn079
p516
sg70
VMOL PLANT
p517
sg72
V2
sg107
(lp518
(VPITZSCHKE
VA
tp519
asg25
I2009
sg66
V120
p520
sbag1
(g2
g3
NtRp521
(dp522
g74
V10.1016/j.pbi.2009.06.008
p523
sg70
VCURR OPIN PLANT BIOL
p524
sg72
V12
p525
sg107
(lp526
(VPITZSCHKE
VA
tp527
asg25
I2009
sg66
V421
p528
sbag1
(g2
g3
NtRp529
(dp530
g74
V10.1038/emboj.2008.147
p531
sg70
VEMBO J
p532
sg72
V27
p533
sg107
(lp534
(VQIU
VJ L
tp535
asg25
I2008
sg66
V2214
p536
sbag1
(g2
g3
NtRp537
(dp538
g74
V10.1104/pp.108.120006
p539
sg70
VPLANT PHYSIOL
p540
sg72
V148
p541
sg107
(lp542
(VQIU
VJ L
tp543
asg25
I2008
sg66
VLANT
p544
sbag1
(g2
g3
NtRp545
(dp546
g74
V10.1073/pnas.0711301105
p547
sg70
VP NATL ACAD SCI USA
p548
sg72
V105
p549
sg107
(lp550
(VREN
VD T
tp551
asg25
I2008
sg66
V5638
p552
sbag1
(g2
g3
NtRp553
(dp554
g74
V10.1074/jbc.M109495200
p555
sg70
VJ BIOL CHEM
p556
sg72
V277
p557
sg107
(lp558
(VREN
VD T
tp559
asg25
I2002
sg66
V559
p560
sbag1
(g2
g3
NtRp561
(dp562
g74
V10.1104/pp.104.042663
p563
sg70
VPLANT PHYSIOL
p564
sg72
V135
p565
sg107
(lp566
(VRENTEL
VM C
tp567
asg25
I2004
sg66
VLANT
p568
sbag1
(g2
g3
NtRp569
(dp570
g74
V10.1104/pp.118.2.565
p571
sg70
VPLANT PHYSIOL
p572
sg72
V118
p573
sg107
(lp574
(VRIBNICKY
VD M
tp575
asg25
I1998
sg66
VLANT
p576
sbag1
(g2
g3
NtRp577
(dp578
g74
V10.1016/j.tplants.2010.02.006
p579
sg70
VTRENDS PLANT SCI
p580
sg72
V15
p581
sg107
(lp582
(VRUSHTON
VP J
tp583
asg25
I2010
sg66
V247
p584
sbag1
(g2
g3
NtRp585
(dp586
g74
V10.1186/1471-2229-9-105
p587
sg70
VBMC PLANT BIOL
p588
sg72
V9
sg107
(lp589
(VSANDHU
VD
tp590
asg25
I2009
sg66
Nsbag1
(g2
g3
NtRp591
(dp592
g74
V10.1038/nature08670
p593
sg70
VNATURE
p594
sg72
V463
p595
sg107
(lp596
(VSCHMUTZ
VJ
tp597
asg25
I2010
sg66
V178
p598
sbag1
(g2
g3
NtRp599
(dp600
g74
V10.1105/tpc.106.049585
p601
sg70
VPLANT CELL
p602
sg72
V19
p603
sg107
(lp604
(VSCHWEIGHOFER
VA
tp605
asg25
I2007
sg66
VLANT
p606
sbag1
(g2
g3
NtRp607
(dp608
g74
V10.1111/j.1365-313X.2010.04306.x
p609
sg70
VPLANT J
p610
sg72
V64
p611
sg107
(lp612
(VSHEN
VX L
tp613
asg25
I2010
sg66
VLANT
p614
sbag1
(g2
g3
NtRp615
(dp616
g74
Nsg70
VLIMMA LINEAR MODELS
p617
sg72
Nsg107
(lp618
(VSMYTH
VG K
tp619
asg25
I2005
sg66
Nsbag1
(g2
g3
NtRp620
(dp621
g74
VDOI 10.2202/1544-6115.1027
p622
sg70
VSTAT APPL GENET MOL
p623
sg72
V3
sg107
(lp624
(VSMYTH
VG K
tp625
asg25
I2004
sg66
V3
sbag1
(g2
g3
NtRp626
(dp627
g74
V10.1104/pp.106.091389
p628
sg70
VPLANT PHYSIOL
p629
sg72
V143
p630
sg107
(lp631
(VSUAREZ-RODRIGUEZ
VM C
tp632
asg25
I2007
sg66
VLANT
p633
sbag1
(g2
g3
NtRp634
(dp635
g74
V10.1105/tpc.106.046581
p636
sg70
VPLANT CELL
p637
sg72
V19
p638
sg107
(lp639
(VTAKAHASHI
VF
tp640
asg25
I2007
sg66
VLANT
p641
sbag1
(g2
g3
NtRp642
(dp643
g74
V10.1073/pnas.1132113100
p644
sg70
VP NATL ACAD SCI USA
p645
sg72
V100
p646
sg107
(lp647
(VTHEODORIS
VG
tp648
asg25
I2003
sg66
V6837
p649
sbag1
(g2
g3
NtRp650
(dp651
g74
V10.1111/j.1365-313X.2004.02016.x
p652
sg70
VPLANT J
p653
sg72
V37
p654
sg107
(lp655
(VTHIMM
VO
tp656
asg25
I2004
sg66
VLANT
p657
sbag1
(g2
g3
NtRp658
(dp659
g74
V10.1046/j.1365-313X.1997.11061187.x
p660
sg70
VPLANT J
p661
sg72
V11
p662
sg107
(lp663
(VTHORDALCHRISTENSEN
VH
tp664
asg25
I1997
sg66
VLANT
p665
sbag1
(g2
g3
NtRp666
(dp667
g74
V10.1094/MPMI-20-8-0887
p668
sg70
VMOL PLANT MICROBE IN
p669
sg72
V20
p670
sg107
(lp671
(VVAN
VD E MORTEL M
tp672
asg25
I2007
sg66
V887
p673
sbag1
(g2
g3
NtRp674
(dp675
g74
V10.1186/1471-2229-11-89
p676
sg70
VBMC PLANT BIOL
p677
sg72
V11
p678
sg107
(lp679
(VVAN
VVERK M C
tp680
asg25
I2011
sg66
Nsbag1
(g2
g3
NtRp681
(dp682
g74
V10.1111/j.1365-313X.2004.02219.x
p683
sg70
VPLANT J
p684
sg72
V40
p685
sg107
(lp686
(VWALTER
VM
tp687
asg25
I2004
sg66
VLANT
p688
sbag1
(g2
g3
NtRp689
(dp690
g74
V10.1016/j.cub.2007.09.025
p691
sg70
VCURR BIOL
p692
sg72
V17
p693
sg107
(lp694
(VWANG
VD
tp695
asg25
I2007
sg66
V1784
p696
sbag1
(g2
g3
NtRp697
(dp698
g74
V10.1094/MPMI-19-0304
p699
sg70
VMOL PLANT MICROBE IN
p700
sg72
V19
p701
sg107
(lp702
(VWANG
VL
tp703
asg25
I2006
sg66
V304
p704
sbag1
(g2
g3
NtRp705
(dp706
g74
V10.1094/MPMI-22-3-0235
p707
sg70
VMOL PLANT MICROBE IN
p708
sg72
V22
p709
sg107
(lp710
(VWANG
VZ
tp711
asg25
I2009
sg66
V235
p712
sbag1
(g2
g3
NtRp713
(dp714
g74
V10.1038/35107108
p715
sg70
VNATURE
p716
sg72
V414
p717
sg107
(lp718
(VWILDERMUTH
VM C
tp719
asg25
I2001
sg66
V562
p720
sbag1
(g2
g3
NtRp721
(dp722
g74
Nsg70
VV406
p723
sg72
V406
p724
sg107
(lp725
(VWISE
VROGER P
tp726
asg25
I2007
sg66
V347
p727
sbag1
(g2
g3
NtRp728
(dp729
g74
V10.1104/pp.107.100800
p730
sg70
VPLANT PHYSIOL
p731
sg72
V145
p732
sg107
(lp733
(VYANG
VH J
tp734
asg25
I2007
sg66
VLANT
p735
sbag1
(g2
g3
NtRp736
(dp737
g74
V10.1105/tpc.020479
p738
sg70
VPLANT CELL
p739
sg72
V16
p740
sg107
(lp741
(VYANG
VS H
tp742
asg25
I2004
sg66
VLANT
p743
sbag1
(g2
g3
NtRp744
(dp745
g74
V10.1105/tpc.008680
p746
sg70
VPLANT CELL
p747
sg72
V15
p748
sg107
(lp749
(VYOSHIOKA
VH
tp750
asg25
I2003
sg66
VLANT
p751
sbag1
(g2
g3
NtRp752
(dp753
g74
V10.1105/tpc.13.7.1527
p754
sg70
VPLANT CELL
p755
sg72
V13
p756
sg107
(lp757
(VYU
VD Q
tp758
asg25
I2001
sg66
VLANT
p759
sbag1
(g2
g3
NtRp760
(dp761
g74
V10.1111/j.1365-313X.2011.04642.x
p762
sg70
VPLANT J
p763
sg72
V67
p764
sg107
(lp765
(VZENG
VQ N
tp766
asg25
I2011
sg66
VLANT
p767
sbag1
(g2
g3
NtRp768
(dp769
g74
V10.1094/MPMI-22-2-0123
p770
sg70
VMOL PLANT MICROBE IN
p771
sg72
V22
p772
sg107
(lp773
(VZHANG
VC
tp774
asg25
I2009
sg66
V123
p775
sbag1
(g2
g3
NtRp776
(dp777
g74
V10.1104/pp.109.151639
p778
sg70
VPLANT PHYSIOL
p779
sg72
V153
p780
sg107
(lp781
(VZHANG
VC Q
tp782
asg25
I2010
sg66
VLANT
p783
sbasb.