ccopy_reg
_reconstructor
p1
(ctethne.classes.paper
Paper
p2
c__builtin__
object
p3
NtRp4
(dp5
S'publisherCity'
p6
VROCKVILLE
p7
sS'reprintAddress'
p8
VSengupta-Gopalan, C (reprint author), New Mexico State Univ, Dept Agron & Hort, Las Cruces, NM 88003 USA.
p9
sS'WC'
p10
VPlant Sciences
p11
sS'GA'
p12
V512YR
p13
sS'abstract'
p14
VGln synthetase (GS) is the key enzyme in N metabolism and it catalyzes the synthesis of Gln from glutamic acid, ATP, and NH4+. There are two major isoforms of GS in plants, a cytosolic form (GS(1)) and a chloroplastic form (GS(2)). In leaves, GS(2) functions to assimilate ammonia produced by nitrate reduction and photorespiration, and GS(1) is the major isoform assimilating NH3, produced by all other metabolic processes, including symbiotic N-2 fixation in the nodules. GS, is encoded by a small multigene family in soybean (Glycine max), and cDNA clones for the different members have been isolated. Based on sequence divergence in the 3'-untranslated region, three distinct classes of GS(1) genes have been identified (alpha, beta, and gamma). Genomic Southern analysis and analysis of hybrid-select translation products suggest that each class has two distinct members. The alpha forms are the major isoforms in the cotyledons and young roots. The beta forms, although constitutive in their expression pattern, are ammonia inducible and show high expression in N-2-fixing nodules. The gamma1 gene appears to be more nodule specific, whereas the gamma2 gene member, although nodule enhanced, is also expressed in the cotyledons and flowers. The two members of the alpha and beta class of GS(1) genes show subtle differences in the expression pattern. Analysis of the promoter regions of the gamma1 and gamma2 genes show sequence conservation around the TATA box but complete divergence in the rest of the promoter region. We postulate that each member of the three GS(1) gene classes may be derived from the two ancestral genomes from which the allotetraploid soybean was derived.
p15
sS'pageEnd'
p16
I193
sS'publisherAddress'
p17
V15501 MONONA DRIVE, ROCKVILLE, MD 20855 USA
p18
sS'documentType'
p19
VArticle
p20
sS'subject'
p21
VPlant Sciences
p22
sS'isoSource'
p23
VPlant Physiol.
p24
sS'timesCited'
p25
(lp26
I21
aVZ9 22
p27
asS'PT'
p28
VJ
sS'title'
p29
VCytosolic Glutamine Synthetase In Soybean Is Encoded By A Multigene Family, And The Members Are Regulated In An Organ-Specific And Developmental Manner
p30
sS'ISSN'
p31
(lp32
V0032-0889
p33
aVJ9 PLANT PHYSIOL
p34
asS'authors_full'
p35
(lp36
(VMOREY
VKJ
tp37
a(VORTEGA
VJL
tp38
a(VSENGUPTAGOPALAN
VC
tp39
asS'PG'
p40
I12
sS'PD'
p41
VJAN
p42
sS'pageStart'
p43
I182
sS'issue'
p44
I1
sS'journal'
p45
VPLANT PHYSIOLOGY
p46
sS'volume'
p47
V128
p48
sS'doi'
p49
V10.1104/pp.010380
p50
sS'authorAddress'
p51
(lp52
VNew Mexico State Univ, Dept Agron & Hort, Las Cruces, NM 88003 USA.
p53
aVNew Mexico State Univ, Grad Program Mol Biol, Las Cruces, NM 88003 USA.
p54
asS'date'
p55
I2002
sS'ER'
p56
V
sS'publisher'
p57
VAMER SOC PLANT BIOLOGISTS
p58
sS'authorKeywords'
p59
(lp60
VPHASEOLUS-VULGARIS L
p61
aVTRANSGENIC LOTUS-CORNICULATUS
p62
aVDIFFERENTIAL EXPRESSION
p63
aVGENE FAMILY
p64
aVNITROGEN ASSIMILATION
p65
aVMEDICAGO-TRUNCATULA
p66
aVNUCLEOTIDE-SEQUENCE
p67
aVNODULE DEVELOPMENT
p68
aVALFALFA
p69
aVPOLYPEPTIDES
p70
asS'language'
p71
VEnglish
p72
sS'wosid'
p73
VWOS:000173351600022
p74
sS'citationCount'
p75
I43
sS'authors_init'
p76
(lp77
(VMOREY
VK J
tp78
a(VORTEGA
VJ L
tp79
a(VSENGUPTAGOPALAN
VC
tp80
asS'citedReferences'
p81
(lp82
g1
(g2
g3
NtRp83
(dp84
g49
V10.1007/BF02370939
p85
sg45
VPLANT SOIL
p86
sg47
V100
p87
sg76
(lp88
(VATKINS
VC A
tp89
asg55
I1987
sg43
VLANT
p90
sbag1
(g2
g3
NtRp91
(dp92
g49
V10.1007/BF00036969
p93
sg45
VPLANT MOL BIOL
p94
sg47
V12
p95
sg76
(lp96
(VBENNETT
VM J
tp97
asg55
I1989
sg43
VLANT
p98
sbag1
(g2
g3
NtRp99
(dp100
g49
V10.1016/0378-1119(93)90452-9
p101
sg45
VGENE
p102
sg47
V136
p103
sg76
(lp104
(VBORON
VL J
tp105
asg55
I1993
sg43
V95
p106
sbag1
(g2
g3
NtRp107
(dp108
g49
V10.1111/j.1365-313X.1991.00235.x
p109
sg45
VPLANT J
p110
sg47
V1
sg76
(lp111
(VBREARS
VT
tp112
asg55
I1991
sg43
VLANT
p113
sbag1
(g2
g3
NtRp114
(dp115
g49
V10.1016/S0168-9452(97)00053-8
p116
sg45
VPLANT SCI
p117
sg47
V125
p118
sg76
(lp119
(VCARRAYOL
VE
tp120
asg55
I1997
sg43
VLANT
p121
sbag1
(g2
g3
NtRp122
(dp123
g49
V10.1023/A:1005884304303
p124
sg45
VPLANT MOL BIOL
p125
sg47
V35
p126
sg76
(lp127
(VCARVALHO
VH
tp128
asg55
I1997
sg43
VLANT
p129
sbag1
(g2
g3
NtRp130
(dp131
g49
Nsg45
VPLANT MOL BIOL
p132
sg47
V14
p133
sg76
(lp134
(VCOCK
VJ M
tp135
asg55
I1990
sg43
VLANT
p136
sbag1
(g2
g3
NtRp137
(dp138
g49
Nsg45
VCAN J MICROBIOL
p139
sg47
V38
p140
sg76
(lp141
(VCULLIMORE
VJ V
tp142
asg55
I1992
sg43
V461
p143
sbag1
(g2
g3
NtRp144
(dp145
g49
Nsg45
VOXIDATIVE STRESS ANT
p146
sg47
Nsg76
(lp147
(VDALTON
VD A
tp148
asg55
I1995
sg43
V298
p149
sbag1
(g2
g3
NtRp150
(dp151
g49
Nsg45
VPLANTA
p152
sg47
V156
p153
sg76
(lp154
(VDE
VVRIES S C
tp155
asg55
I1982
sg43
VLANTA
p156
sbag1
(g2
g3
NtRp157
(dp158
g49
V10.1046/j.1365-313x.2000.00863.x
p159
sg45
VPLANT J
p160
sg47
V24
p161
sg76
(lp162
(VFINNEMANN
VJ
tp163
asg55
I2000
sg43
VLANT
p164
sbag1
(g2
g3
NtRp165
(dp166
g49
Nsg45
VOXFORD SURVEYS PLANT
p167
sg47
V6
sg76
(lp168
(VFORDE
VB G
tp169
asg55
I1989
sg43
V247
p170
sbag1
(g2
g3
NtRp171
(dp172
g49
Nsg45
VPLANT CELL
p173
sg47
V1
sg76
(lp174
(VFORDE
VB G
tp175
asg55
I1989
sg43
VLANT
p176
sbag1
(g2
g3
NtRp177
(dp178
g49
Nsg45
VEMBO J
p179
sg47
V5
sg76
(lp180
(VGEBHARDT
VC
tp181
asg55
I1986
sg43
V1429
p182
sbag1
(g2
g3
NtRp183
(dp184
g49
V10.1104/pp.99.4.1481
p185
sg45
VPLANT PHYSIOL
p186
sg47
V99
p187
sg76
(lp188
(VKAMACHI
VK
tp189
asg55
I1992
sg43
VLANT
p190
sbag1
(g2
g3
NtRp191
(dp192
g49
V10.1146/annurev.arplant.47.1.569
p193
sg45
VANNU REV PLANT PHYS
p194
sg47
V47
p195
sg76
(lp196
(VLAM
VH M
tp197
asg55
I1996
sg43
V569
p198
sbag1
(g2
g3
NtRp199
(dp200
g49
Nsg45
VPLANT AMINO ACIDS BI
p201
sg47
Nsg76
(lp202
(VLEA
VP J
tp203
asg55
I1999
sg43
VLANT
p204
sbag1
(g2
g3
NtRp205
(dp206
g49
V10.1007/BF00019174
p207
sg45
VPLANT MOL BIOL
p208
sg47
V27
p209
sg76
(lp210
(VMARSOLIER
VM C
tp211
asg55
I1995
sg43
VLANT
p212
sbag1
(g2
g3
NtRp213
(dp214
g49
Nsg45
VENZYMES
p215
sg47
V10
p216
sg76
(lp217
(VMEISTER
VA
tp218
asg55
I1973
sg43
V699
p219
sbag1
(g2
g3
NtRp220
(dp221
g49
V10.1105/tpc.3.1.11
p222
sg45
VPLANT CELL
p223
sg47
V3
sg76
(lp224
(VMIAO
VG H
tp225
asg55
I1991
sg43
VLANT
p226
sbag1
(g2
g3
NtRp227
(dp228
g49
Nsg45
VTHESIS NEW MEXICO ST
p229
sg47
Nsg76
(lp230
(VMOREY
VK J
tp231
asg55
I1997
sg43
Nsbag1
(g2
g3
NtRp232
(dp233
g49
Nsg45
VJ BIOL CHEM
p234
sg47
V250
p235
sg76
(lp236
(VOFARRELL
VP H
tp237
asg55
I1975
sg43
V4007
p238
sbag1
(g2
g3
NtRp239
(dp240
g49
V10.1104/pp.80.4.1051
p241
sg45
VPLANT PHYSIOL
p242
sg47
V80
p243
sg76
(lp244
(VORTEGA
VJ L
tp245
asg55
I1986
sg43
VLANT
p246
sbag1
(g2
g3
NtRp247
(dp248
g49
V10.1104/pp.119.4.1483
p249
sg45
VPLANT PHYSIOL
p250
sg47
V119
p251
sg76
(lp252
(VORTEGA
VJ L
tp253
asg55
I1999
sg43
VLANT
p254
sbag1
(g2
g3
NtRp255
(dp256
g49
Nsg45
VMOL GEN GENET
p257
sg47
V330
p258
sg76
(lp259
(VPETERMAN
VT M
tp260
asg55
I1991
sg43
V145
p261
sbag1
(g2
g3
NtRp262
(dp263
g49
Nsg45
VESCHERICHIA COLI SAL
p264
sg47
Nsg76
(lp265
(VREITZER
VL J
tp266
asg55
I1987
sg43
V302
p267
sbag1
(g2
g3
NtRp268
(dp269
g49
Nsg45
VESCHERICHIA COLI SAL
p270
sg47
Nsg76
(lp271
(VREITZER
VL J
tp272
asg55
I1996
sg43
V391
p273
sbag1
(g2
g3
NtRp274
(dp275
g49
V10.1007/BF00267468
p276
sg45
VMOL GEN GENET
p277
sg47
V229
p278
sg76
(lp279
(VRICHTER
VH E
tp280
asg55
I1991
sg43
V445
p281
sbag1
(g2
g3
NtRp282
(dp283
g49
V10.1007/BF00028970
p284
sg45
VPLANT MOL BIOL
p285
sg47
V22
p286
sg76
(lp287
(VROCHE
VD
tp288
asg55
I1993
sg43
VLANT
p289
sbag1
(g2
g3
NtRp290
(dp291
g49
Nsg45
VMOL CLONING LAB MANU
p292
sg47
Nsg76
(lp293
(VSAMBROOK
VJ
tp294
asg55
I2001
sg43
Nsbag1
(g2
g3
NtRp295
(dp296
g49
V10.1007/BF00021330
p297
sg45
VPLANT MOL BIOL
p298
sg47
V7
sg76
(lp299
(VSENGUPTAGOPALAN
VC
tp300
asg55
I1986
sg43
VLANT
p301
sbag1
(g2
g3
NtRp302
(dp303
g49
V10.1007/BF00027079
p304
sg45
VPLANT MOL BIOL
p305
sg47
V19
p306
sg76
(lp307
(VSHEN
VW J
tp308
asg55
I1992
sg43
VLANT
p309
sbag1
(g2
g3
NtRp310
(dp311
g49
V10.1104/pp.103.1.73
p312
sg45
VPLANT PHYSIOL
p313
sg47
V103
p314
sg76
(lp315
(VSTANFORD
VA C
tp316
asg55
I1993
sg43
VLANT
p317
sbag1
(g2
g3
NtRp318
(dp319
g49
Nsg45
VPlanta
p320
sg47
V183
p321
sg76
(lp322
(VSWARUP
VR
tp323
asg55
I1990
sg43
Vlanta
p324
sbag1
(g2
g3
NtRp325
(dp326
g49
Nsg45
VPLANT PHYSIOL
p327
sg47
V112
p328
sg76
(lp329
(VTEMPLE
VS J
tp330
asg55
I1996
sg43
VLANT
p331
sbag1
(g2
g3
NtRp332
(dp333
g49
V10.1094/MPMI-8-0218
p334
sg45
VMOL PLANT MICROBE IN
p335
sg47
V8
sg76
(lp336
(VTEMPLE
VS J
tp337
asg55
I1995
sg43
V218
p338
sbag1
(g2
g3
NtRp339
(dp340
g49
V10.1023/A:1006099512706
p341
sg45
VPLANT MOL BIOL
p342
sg47
V37
p343
sg76
(lp344
(VTEMPLE
VS J
tp345
asg55
I1998
sg43
VLANT
p346
sbag1
(g2
g3
NtRp347
(dp348
g49
Nsg45
VEMBO J
p349
sg47
V6
sg76
(lp350
(VTINGEY
VS V
tp351
asg55
I1987
sg43
V1
sbag1
(g2
g3
NtRp352
(dp353
g49
Nsg45
VJ BIOL CHEM
p354
sg47
V263
p355
sg76
(lp356
(VTINGEY
VS V
tp357
asg55
I1988
sg43
V9651
p358
sbag1
(g2
g3
NtRp359
(dp360
g49
V10.1007/BF00333958
p361
sg45
VMOL GEN GENET
p362
sg47
V203
p363
sg76
(lp364
(VTISCHER
VE
tp365
asg55
I1986
sg43
V221
p366
sbag1
(g2
g3
NtRp367
(dp368
g49
V10.1104/pp.91.2.702
p369
sg45
VPLANT PHYSIOL
p370
sg47
V91
p371
sg76
(lp372
(VWALKER
VE L
tp373
asg55
I1989
sg43
VLANT
p374
sbag1
(g2
g3
NtRp375
(dp376
g49
V10.1016/S0168-9452(96)04490-1
p377
sg45
VPLANT SCI
p378
sg47
V120
p379
sg76
(lp380
(VWATSON
VA T
tp381
asg55
I1996
sg43
VLANT
p382
sbag1
(g2
g3
NtRp383
(dp384
g49
V10.1016/0168-6445(93)90001-P
p385
sg45
VFEMS MICROBIOL REV
p386
sg47
V11
p387
sg76
(lp388
(VWOODS
VD R
tp389
asg55
I1993
sg43
V273
p390
sbasb.