ccopy_reg
_reconstructor
p1
(ctethne.classes.paper
Paper
p2
c__builtin__
object
p3
NtRp4
(dp5
S'publisherCity'
p6
VROCKVILLE
p7
sS'reprintAddress'
p8
VSun, CW (reprint author), Natl Taiwan Normal Univ, Dept Life Sci, Taipei 116, Taiwan.
p9
sS'WC'
p10
VPlant Sciences
p11
sS'GA'
p12
V454EB
p13
sS'FX'
p14
(lp15
VThis work was supported by the National Science Council of Taiwan (grant
p16
aVnos. NSC 92-2321-B-003-001 and 93-2311-B-003-005 to C.-W.S.).
p17
asS'abstract'
p18
VPlastid biogenesis and maintenance depend on the coordinated assembly of proteins imported from the cytosol with proteins translated within plastids. Chloroplasts in leaf cells have a greater need for protein import and protein synthesis than plastids in other organs due to the large amount of proteins required for photosynthesis. We previously reported that the Arabidopsis (Arabidopsis thaliana) transcription factor CIA2 specifically up-regulates leaf expression of genes encoding protein translocons Toc33 and Toc75, which are essential for protein import into chloroplasts. Protein import efficiency was therefore reduced in cia2 mutant chloroplasts. To further understand the function of CIA2, gene expression profiles of the wild type and a cia2 mutant were compared by microarray analysis. Interestingly, in addition to genes encoding protein translocon components, other genes down-regulated in cia2 almost exclusively encode chloroplast ribosomal proteins. Isolated cia2 mutant chloroplasts showed reduced translation efficiency and steady-state accumulation of plastid-encoded proteins. When CIA2 was ectopically expressed in roots, expression of both the protein translocon and ribosomal protein genes increased. Further analyses in vivo revealed that CIA2 up-regulated these genes by binding directly to their promoter regions. We propose that CIA2 is an important factor responsible for fulfilling the higher protein demands of leaf chloroplasts by coordinately increasing both protein import and protein translation efficiencies.
p19
sS'pageEnd'
p20
I888
sS'date'
p21
I2009
sS'documentType'
p22
VArticle
p23
sS'subject'
p24
VPlant Sciences
p25
sS'isoSource'
p26
VPlant Physiol.
p27
sS'timesCited'
p28
(lp29
I7
aVZ9 9
p30
asS'funding'
p31
(lp32
(VNational Science Council of Taiwan
VNSC 92-2321-B-003-001, 93-2311-B-003-005
tp33
asS'PT'
p34
VJ
sS'title'
p35
VCia2 Coordinately Up-Regulates Protein Import And Synthesis In Leaf Chloroplasts
p36
sS'ISSN'
p37
(lp38
V0032-0889
p39
aVJ9 PLANT PHYSIOL
p40
asS'authors_full'
p41
(lp42
(VSUN
VCHIHWEN
tp43
a(VHUANG
VYENCHIAO
tp44
a(VCHANG
VHSINYEN
tp45
asS'PG'
p46
I10
sS'PD'
p47
VJUN
p48
sS'pageStart'
p49
I879
sS'issue'
p50
I2
sS'journal'
p51
VPLANT PHYSIOLOGY
p52
sS'volume'
p53
V150
p54
sS'doi'
p55
V10.1104/pp.109.137240
p56
sS'emailAddress'
p57
Vcwsun@ntnu.edu.tw
p58
sS'authorAddress'
p59
V[Sun, Chih-Wen; Huang, Yen-Chiao; Chang, Hsin-Yen] Natl Taiwan Normal Univ, Dept Life Sci, Taipei 116, Taiwan.
p60
sS'publisherAddress'
p61
V15501 MONONA DRIVE, ROCKVILLE, MD 20855 USA
p62
sS'ER'
p63
V
sS'publisher'
p64
VAMER SOC PLANT BIOLOGISTS
p65
sS'authorKeywords'
p66
(lp67
VARABIDOPSIS-THALIANA
p68
aVMESSENGER-RNA
p69
aVGENE ONTOLOGY
p70
aVNUCLEAR GENES
p71
aVTRANSLATION
p72
aVCARBOXYLASE
p73
aVBIOGENESIS
p74
aVEXPRESSION
p75
aVPLASTIDS
p76
aVMUTANT
p77
asS'language'
p78
VEnglish
p79
sS'wosid'
p80
VWOS:000266663700029
p81
sS'citationCount'
p82
I29
sS'authors_init'
p83
(lp84
(VSUN
VC W
tp85
a(VHUANG
VY C
tp86
a(VCHANG
VH Y
tp87
asS'citedReferences'
p88
(lp89
g1
(g2
g3
NtRp90
(dp91
g55
Nsg51
VNAT GENET
p92
sg53
V25
p93
sg83
(lp94
(VASHBURNER
VM
tp95
asg21
I2000
sg49
V25
p96
sbag1
(g2
g3
NtRp97
(dp98
g55
Nsg51
VMETHOD ENZYMOL
p99
sg53
V297
p100
sg83
(lp101
(VBARKAN
VA
tp102
asg21
I1998
sg49
V38
p103
sbag1
(g2
g3
NtRp104
(dp105
g55
V10.1016/j.gene.2004.09.009
p106
sg51
VGENE
p107
sg53
V344
p108
sg83
(lp109
(VBIEHL
VA
tp110
asg21
I2005
sg49
V33
p111
sbag1
(g2
g3
NtRp112
(dp113
g55
V10.1046/j.1365-313x.1998.00343.x
p114
sg51
VPLANT J
p115
sg53
V16
p116
sg83
(lp117
(VCLOUGH
VS J
tp118
asg21
I1998
sg49
VLANT
p119
sbag1
(g2
g3
NtRp120
(dp121
g55
V10.1126/science.1074950
p122
sg51
VSCIENCE
p123
sg53
V297
p124
sg83
(lp125
(VGENDREL
VA V
tp126
asg21
I2002
sg49
V1871
p127
sbag1
(g2
g3
NtRp128
(dp129
g55
V10.1093/emboj/16.13.4041
p130
sg51
VEMBO J
p131
sg53
V16
p132
sg83
(lp133
(VHAJDUKIEWICZ
VP T J
tp134
asg21
I1997
sg49
V4041
p135
sbag1
(g2
g3
NtRp136
(dp137
g55
V10.1093/nar/gkm259
p138
sg51
VNUCLEIC ACIDS RES
p139
sg53
V35
p140
sg83
(lp141
(VHORTON
VP
tp142
asg21
I2007
sg49
VW585
p143
sbag1
(g2
g3
NtRp144
(dp145
g55
V10.1042/BJ20080490
p146
sg51
VBIOCHEM J
p147
sg53
V413
p148
sg83
(lp149
(VINABA
VT
tp150
asg21
I2008
sg49
V15
p151
sbag1
(g2
g3
NtRp152
(dp153
g55
V10.1111/j.1469-8137.2008.02452.x
p154
sg51
VNEW PHYTOL
p155
sg53
V179
p156
sg83
(lp157
(VJARVIS
VP
tp158
asg21
I2008
sg49
V257
p159
sbag1
(g2
g3
NtRp160
(dp161
g55
V10.1126/science.282.5386.100
p162
sg51
VSCIENCE
p163
sg53
V282
p164
sg83
(lp165
(VJARVIS
VP
tp166
asg21
I1998
sg49
V100
p167
sbag1
(g2
g3
NtRp168
(dp169
g55
V10.1104/pp.122.4.1057
p170
sg51
VPLANT PHYSIOL
p171
sg53
V122
p172
sg83
(lp173
(VKE
VJ S
tp174
asg21
I2000
sg49
VLANT
p175
sbag1
(g2
g3
NtRp176
(dp177
g55
V10.1074/jbc.M102330200
p178
sg51
VJ BIOL CHEM
p179
sg53
V276
p180
sg83
(lp181
(VKOUMOTO
VY
tp182
asg21
I2001
sg49
V29688
p183
sbag1
(g2
g3
NtRp184
(dp185
g55
V10.1105/tpc.012955
p186
sg51
VPLANT CELL
p187
sg53
V15
p188
sg83
(lp189
(VKUBIS
VS
tp190
asg21
I2003
sg49
VLANT
p191
sbag1
(g2
g3
NtRp192
(dp193
g55
V10.1016/S0168-9525(02)00003-3
p194
sg51
VTRENDS GENET
p195
sg53
V19
p196
sg83
(lp197
(VLEISTER
VD
tp198
asg21
I2003
sg49
V47
p199
sbag1
(g2
g3
NtRp200
(dp201
g55
Nsg51
VMETHOD ENZYMOL
p202
sg53
V148
p203
sg83
(lp204
(VLICHTENTHALER
VH K
tp205
asg21
I1987
sg49
V350
p206
sbag1
(g2
g3
NtRp207
(dp208
g55
V10.1093/jxb/erl196
p209
sg51
VJ EXP BOT
p210
sg53
V58
p211
sg83
(lp212
(VLOPEZ-JUEZ
VE
tp213
asg21
I2007
sg49
V11
p214
sbag1
(g2
g3
NtRp215
(dp216
g55
V10.1073/pnas.182432999
p217
sg51
VP NATL ACAD SCI USA
p218
sg53
V99
p219
sg83
(lp220
(VMARTIN
VW
tp221
asg21
I2002
sg49
V12246
p222
sbag1
(g2
g3
NtRp223
(dp224
g55
V10.1104/pp.118.1.9
p225
sg51
VPLANT PHYSIOL
p226
sg53
V118
p227
sg83
(lp228
(VMARTIN
VW
tp229
asg21
I1998
sg49
VLANT
p230
sbag1
(g2
g3
NtRp231
(dp232
g55
V10.1111/j.1399-3054.1962.tb08052.x
p233
sg51
VPHYSIOL PLANTARUM
p234
sg53
V15
p235
sg83
(lp236
(VMURASHIGE
VT
tp237
asg21
I1962
sg49
VHYSIOL
p238
sbag1
(g2
g3
NtRp239
(dp240
g55
V10.1007/BF00019319
p241
sg51
VPLANT MOL BIOL
p242
sg53
V27
p243
sg83
(lp244
(VOHTA
VM
tp245
asg21
I1995
sg49
VLANT
p246
sbag1
(g2
g3
NtRp247
(dp248
g55
V10.1046/j.1365-313x.2001.01076.x
p249
sg51
VPLANT J
p250
sg53
V27
p251
sg83
(lp252
(VPESARESI
VP
tp253
asg21
I2001
sg49
VLANT
p254
sbag1
(g2
g3
NtRp255
(dp256
g55
V10.1038/sj.embor.embor828
p257
sg51
VEMBO REP
p258
sg53
V4
sg83
(lp259
(VRICHLY
VE
tp260
asg21
I2003
sg49
V491
p261
sbag1
(g2
g3
NtRp262
(dp263
g55
V10.1073/pnas.93.9.3881
p264
sg51
VP NATL ACAD SCI USA
p265
sg53
V93
p266
sg83
(lp267
(VRODERMEL
VS
tp268
asg21
I1996
sg49
V3881
p269
sbag1
(g2
g3
NtRp270
(dp271
g55
V10.1016/S0962-8924(97)01111-2
p272
sg51
VTRENDS CELL BIOL
p273
sg53
V7
sg83
(lp274
(VSCHNELL
VD J
tp275
asg21
I1997
sg49
V303
p276
sbag1
(g2
g3
NtRp277
(dp278
g55
V10.1002/pmic.200300776
p279
sg51
VPROTEOMICS
p280
sg53
V4
sg83
(lp281
(VSMALL
VI
tp282
asg21
I2004
sg49
VROTEOMICS
p283
sbag1
(g2
g3
NtRp284
(dp285
g55
V10.1105/tpc.13.9.2053
p286
sg51
VPLANT CELL
p287
sg53
V13
p288
sg83
(lp289
(VSUN
VC W
tp290
asg21
I2001
sg49
VLANT
p291
sbag1
(g2
g3
NtRp292
(dp293
g55
V10.1046/j.1365-313X.1997.11051017.x
p294
sg51
VPLANT J
p295
sg53
V11
p296
sg83
(lp297
(VSUN
VC W
tp298
asg21
I1997
sg49
VLANT
p299
sbag1
(g2
g3
NtRp300
(dp301
g55
Nsg51
VGENOME RES
p302
sg53
V11
p303
sg83
(lp304
(VASHBURNER
VM
tp305
asg21
I2001
sg49
V1425
p306
sbag1
(g2
g3
NtRp307
(dp308
g55
V10.1104/pp.104.046367
p309
sg51
VPLANT PHYSIOL
p310
sg53
V136
p311
sg83
(lp312
(VZIMMERMANN
VP
tp313
asg21
I2004
sg49
VLANT
p314
sbasb.