ccopy_reg
_reconstructor
p1
(ctethne.classes.paper
Paper
p2
c__builtin__
object
p3
NtRp4
(dp5
S'publisherCity'
p6
VROCKVILLE
p7
sS'reprintAddress'
p8
VVitale, A (reprint author), Univ Warwick, Dept Biol Sci, Coventry CV4 7AL, W Midlands, England.
p9
sS'WC'
p10
VPlant Sciences
p11
sS'GA'
p12
V345AA
p13
sS'abstract'
p14
VSecretory immunoglobulin (Ig) A is a decameric Ig composed of four a-heavy chains, four light chains, a joining CT) chain, and a secretory component (SC). The heavy and light chains form two tetrameric Ig molecules that are joined by the I chain and associate with the SC. Expression of a secretory monoclonal antibody in tobacco (Nicotiana tabacum) has been described: this molecule (secretory IgA/G [SIgA/G]) was modified by having a hybrid heavy chain sequence consisting of IgG gamma-chain domains linked to constant region domains of an IgA alpha-chain. In tobacco, about 70% of the protein assembles to its final, decameric structure. We show here that SIgA/G assembly and secretion are slow, with only approximately 10% of the newly synthesized molecules being secreted after 24 h and the bulk probably remaining in the endoplasmic reticulum. In addition, a proportion of SIgA/G is delivered to the vacuole as at least partially assembled molecules by a process that is blocked by the membrane traffic inhibitor brefeldin A. Neither the SC nor the I chain are responsible for vacuolar delivery, because IgA/G tetramers have the same fate. The parent IgG tetrameric molecule, containing wild-type gamma-heavy chains, is instead secreted rapidly and efficiently. This strongly suggests that intracellular retention and vacuolar delivery of IgA/G is due to the rr-domains present in the hybrid alpha/gamma-heavy chains and indicates that the plant secretory system may partially deliver to the vacuole recombinant proteins expected to be secreted.
p15
sS'pageEnd'
p16
I1493
sS'publisherAddress'
p17
V15501 MONONA DRIVE, ROCKVILLE, MD 20855 USA
p18
sS'documentType'
p19
VArticle
p20
sS'subject'
p21
VPlant Sciences
p22
sS'isoSource'
p23
VPlant Physiol.
p24
sS'timesCited'
p25
(lp26
I52
aVZ9 55
p27
asS'PT'
p28
VJ
sS'title'
p29
VAssembly, Secretion, And Vacuolar Delivery Of A Hybrid Immunoglobulin In Plants
p30
sS'ISSN'
p31
(lp32
V0032-0889
p33
aVJ9 PLANT PHYSIOL
p34
asS'authors_full'
p35
(lp36
(VFRIGERIO
VL
tp37
a(VVINE
VND
tp38
a(VPEDRAZZINI
VE
tp39
a(VHEIN
VMB
tp40
a(VWANG
VF
tp41
a(VMA
VJKC
tp42
a(VVITALE
VA
tp43
asS'PG'
p44
I11
sS'PD'
p45
VAUG
p46
sS'pageStart'
p47
I1483
sS'issue'
p48
I4
sS'RI'
p49
VFrigerio, Lorenzo/D-2685-2009
p50
sS'journal'
p51
VPLANT PHYSIOLOGY
p52
sS'volume'
p53
V123
p54
sS'doi'
p55
V10.1104/pp.123.4.1483
p56
sS'authorAddress'
p57
(lp58
VUniv Warwick, Dept Biol Sci, Coventry CV4 7AL, W Midlands, England.
p59
aVGuys Hosp, Guys Kings & St Thomas Inst Med & Dent, Dept Oral Med & Pathol, Immunol Unit, London SE1 9RT, England.
p60
aVCNR, Ctr Farmacol Cellulare & Mol, I-20129 Milan, Italy.
p61
aVScripps Res Inst, La Jolla, CA 92037 USA.
p62
aVCNR, Ist Biosintesu Vegetali, I-20133 Milan, Italy.
p63
asS'date'
p64
I2000
sS'ER'
p65
V
sS'publisher'
p66
VAMER SOC PLANT PHYSIOLOGISTS
p67
sS'authorKeywords'
p68
(lp69
VTRANSGENIC TOBACCO PLANTS
p70
aVPROTEIN-QUALITY CONTROL
p71
aVENDOPLASMIC-RETICULUM
p72
aVBARLEY LECTIN
p73
aVMEMBRANE ANCHOR
p74
aVCELLS
p75
aVANTIBODIES
p76
aVRETENTION
p77
aVPATHWAY
p78
aVSIGNAL
p79
asS'language'
p80
VEnglish
p81
sS'wosid'
p82
VWOS:000088792200032
p83
sS'citationCount'
p84
I44
sS'authors_init'
p85
(lp86
(VFRIGERIO
VL
tp87
a(VVINE
VN D
tp88
a(VPEDRAZZINI
VE
tp89
a(VHEIN
VM B
tp90
a(VWANG
VF
tp91
a(VMA
VJ K C
tp92
a(VVITALE
VA
tp93
asS'citedReferences'
p94
(lp95
g1
(g2
g3
NtRp96
(dp97
g55
V10.1104/pp.120.4.961
p98
sg51
VPLANT PHYSIOL
p99
sg53
V120
p100
sg85
(lp101
(VBARRIEU
VF
tp102
asg64
I1999
sg47
VLANT
p103
sbag1
(g2
g3
NtRp104
(dp105
g55
Nsg51
VPLANT CELL
p106
sg53
V2
sg85
(lp107
(VBEDNAREK
VS Y
tp108
asg64
I1990
sg47
VLANT
p109
sbag1
(g2
g3
NtRp110
(dp111
g55
V10.1046/j.1365-313X.1998.00208.x
p112
sg51
VPLANT J
p113
sg53
V15
p114
sg85
(lp115
(VBOEVINK
VP
tp116
asg64
I1998
sg47
VLANT
p117
sbag1
(g2
g3
NtRp118
(dp119
g55
V10.1006/scdb.1999.0321
p120
sg51
VSEMIN CELL DEV BIOL
p121
sg53
V10
p122
sg85
(lp123
(VBRODSKY
VJ L
tp124
asg64
I1999
sg47
V507
p125
sbag1
(g2
g3
NtRp126
(dp127
g55
Nsg51
VMOL BIOL CELL
p128
sg53
V11
p129
sg85
(lp130
(VCHILLARON
VJ
tp131
asg64
I2000
sg47
V217
p132
sbag1
(g2
g3
NtRp133
(dp134
g55
Nsg51
VPLANT CELL
p135
sg53
V8
sg85
(lp136
(VCOLEMAN
VC E
tp137
asg64
I1996
sg47
VLANT
p138
sbag1
(g2
g3
NtRp139
(dp140
g55
V10.1023/A:1006029617949
p141
sg51
VPLANT MOL BIOL
p142
sg53
V38
p143
sg85
(lp144
(VCONRAD
VU
tp145
asg64
I1998
sg47
VLANT
p146
sbag1
(g2
g3
NtRp147
(dp148
g55
V10.1105/tpc.11.11.2233
p149
sg51
VPLANT CELL
p150
sg53
V11
p151
sg85
(lp152
(VCROFTS
VA J
tp153
asg64
I1999
sg47
VLANT
p154
sbag1
(g2
g3
NtRp155
(dp156
g55
Nsg51
VPLANT CELL
p157
sg53
V2
sg85
(lp158
(VDENECKE
VJ
tp159
asg64
I1990
sg47
VLANT
p160
sbag1
(g2
g3
NtRp161
(dp162
g55
Nsg51
VPLANT MOL BIOL MANUA
p163
sg53
Nsg85
(lp164
(VDOMBROWSKI
VJ E
tp165
asg64
I1994
sg47
VLANT
p166
sbag1
(g2
g3
NtRp167
(dp168
g55
Nsg51
VPLANT CELL
p169
sg53
V5
sg85
(lp170
(VDOMBROWSKI
VJ E
tp171
asg64
I1993
sg47
VLANT
p172
sbag1
(g2
g3
NtRp173
(dp174
g55
V10.1105/tpc.10.6.1031
p175
sg51
VPLANT CELL
p176
sg53
V10
p177
sg85
(lp178
(VFRIGERIO
VL
tp179
asg64
I1998
sg47
VLANT
p180
sbag1
(g2
g3
NtRp181
(dp182
g55
V10.1083/jcb.93.1.97
p183
sg51
VJ CELL BIOL
p184
sg53
V93
p185
sg85
(lp186
(VFUJIKI
VY
tp187
asg64
I1982
sg47
V97
p188
sbag1
(g2
g3
NtRp189
(dp190
g55
Nsg51
VPLANT CELL
p191
sg53
V5
sg85
(lp192
(VGOMEZ
VL
tp193
asg64
I1993
sg47
VLANT
p194
sbag1
(g2
g3
NtRp195
(dp196
g55
V10.1002/eji.1830241033
p197
sg51
VEUR J IMMUNOL
p198
sg53
V24
p199
sg85
(lp200
(VGUENZI
VS
tp201
asg64
I1994
sg47
V2477
p202
sbag1
(g2
g3
NtRp203
(dp204
g55
V10.1038/342076a0
p205
sg51
VNATURE
p206
sg53
V342
p207
sg85
(lp208
(VHIATT
VA
tp209
asg64
I1989
sg47
V76
p210
sbag1
(g2
g3
NtRp211
(dp212
g55
V10.1093/jxb/48.1.139
p213
sg51
VJ EXP BOT
p214
sg53
V48
p215
sg85
(lp216
(VHINZ
VG
tp217
asg64
I1997
sg47
V139
p218
sbag1
(g2
g3
NtRp219
(dp220
g55
V10.1083/jcb.135.3.623
p221
sg51
VJ CELL BIOL
p222
sg53
V135
p223
sg85
(lp224
(VHONG
VE
tp225
asg64
I1996
sg47
V623
p226
sbag1
(g2
g3
NtRp227
(dp228
g55
V10.1104/pp.96.1.18
p229
sg51
VPLANT PHYSIOL
p230
sg53
V96
p231
sg85
(lp232
(VHUNT
VD C
tp233
asg64
I1991
sg47
VLANT
p234
sbag1
(g2
g3
NtRp235
(dp236
g55
V10.1126/science.7732380
p237
sg51
VSCIENCE
p238
sg53
V268
p239
sg85
(lp240
(VMA
VJ K C
tp241
asg64
I1995
sg47
V716
p242
sbag1
(g2
g3
NtRp243
(dp244
g55
V10.1038/nm0598-601
p245
sg51
VNAT MED
p246
sg53
V4
sg85
(lp247
(VMA
VJ K C
tp248
asg64
I1998
sg47
V601
p249
sbag1
(g2
g3
NtRp250
(dp251
g55
V10.1002/eji.1830240120
p252
sg51
VEUR J IMMUNOL
p253
sg53
V24
p254
sg85
(lp255
(VMA
VJ K C
tp256
asg64
I1994
sg47
V131
p257
sbag1
(g2
g3
NtRp258
(dp259
g55
V10.1016/S0167-7799(00)89016-2
p260
sg51
VTRENDS BIOTECHNOL
p261
sg53
V13
p262
sg85
(lp263
(VMA
VJ K C
tp264
asg64
I1995
sg47
V522
p265
sbag1
(g2
g3
NtRp266
(dp267
g55
Nsg51
VFASEB J
p268
sg53
V14
p269
sg85
(lp270
(VMANCINI
VR
tp271
asg64
I2000
sg47
V769
p272
sbag1
(g2
g3
NtRp273
(dp274
g55
Nsg51
VPLANT CELL
p275
sg53
V11
p276
sg85
(lp277
(VMARTY
VF
tp278
asg64
I1999
sg47
VLANT
p279
sbag1
(g2
g3
NtRp280
(dp281
g55
V10.1083/jcb.130.6.1307
p282
sg51
VJ CELL BIOL
p283
sg53
V130
p284
sg85
(lp285
(VMATSUOKA
VK
tp286
asg64
I1995
sg47
V1307
p287
sbag1
(g2
g3
NtRp288
(dp289
g55
V10.1073/pnas.88.3.834
p290
sg51
VP NATL ACAD SCI USA
p291
sg53
V88
p292
sg85
(lp293
(VMATSUOKA
VK
tp294
asg64
I1991
sg47
V834
p295
sbag1
(g2
g3
NtRp296
(dp297
g55
V10.1016/S0065-2776(08)60240-0
p298
sg51
VADV IMMUNOL
p299
sg53
V40
p300
sg85
(lp301
(VMESTECKY
VJ
tp302
asg64
I1987
sg47
V153
p303
sbag1
(g2
g3
NtRp304
(dp305
g55
V10.1023/A:1006032627036
p306
sg51
VPLANT MOL BIOL
p307
sg53
V38
p308
sg85
(lp309
(VNEUHAUS
VJ M
tp310
asg64
I1998
sg47
VLANT
p311
sbag1
(g2
g3
NtRp312
(dp313
g55
V10.1046/j.1365-313X.1994.5010103.x
p314
sg51
VPLANT J
p315
sg53
V5
sg85
(lp316
(VPEDRAZZINI
VE
tp317
asg64
I1994
sg47
VLANT
p318
sbag1
(g2
g3
NtRp319
(dp320
g55
V10.1073/pnas.93.9.4207
p321
sg51
VP NATL ACAD SCI USA
p322
sg53
V93
p323
sg85
(lp324
(VPEDRAZZINI
VE
tp325
asg64
I1996
sg47
V4207
p326
sbag1
(g2
g3
NtRp327
(dp328
g55
Nsg51
VPLANT CELL
p329
sg53
V9
sg85
(lp330
(VPEDRAZZINI
VE
tp331
asg64
I1997
sg47
VLANT
p332
sbag1
(g2
g3
NtRp333
(dp334
g55
Nsg51
VPLANTA
p335
sg53
V196
p336
sg85
(lp337
(VPUEYO
VJ J
tp338
asg64
I1995
sg47
VLANTA
p339
sbag1
(g2
g3
NtRp340
(dp341
g55
V10.1093/jexbot/49.326.1463
p342
sg51
VJ EXP BOT
p343
sg53
V49
p344
sg85
(lp345
(VRAYON
VC
tp346
asg64
I1998
sg47
V1463
p347
sbag1
(g2
g3
NtRp348
(dp349
g55
V10.1007/BF01089036
p350
sg51
VPLANTA
p351
sg53
V192
p352
sg85
(lp353
(VROBINSON
VD L
tp354
asg64
I1994
sg47
VLANTA
p355
sbag1
(g2
g3
NtRp356
(dp357
g55
V10.1105/tpc.3.7.695
p358
sg51
VPLANT CELL
p359
sg53
V3
sg85
(lp360
(VSAALBACH
VG
tp361
asg64
I1991
sg47
VLANT
p362
sbag1
(g2
g3
NtRp363
(dp364
g55
Nsg51
VPLANT CELL
p365
sg53
V11
p366
sg85
(lp367
(VSANDERFOOT
VA A
tp368
asg64
I1999
sg47
VLANT
p369
sbag1
(g2
g3
NtRp370
(dp371
g55
V10.1104/pp.101.2.451
p372
sg51
VPLANT PHYSIOL
p373
sg53
V101
p374
sg85
(lp375
(VSCHROEDER
VM R
tp376
asg64
I1993
sg47
VLANT
p377
sbag1
(g2
g3
NtRp378
(dp379
g55
V10.1016/0092-8674(90)90092-S
p380
sg51
VCELL
p381
sg53
V60
p382
sg85
(lp383
(VSITIA
VR
tp384
asg64
I1990
sg47
V781
p385
sbag1
(g2
g3
NtRp386
(dp387
g55
Nsg51
VJ ANIM SCI
p388
sg53
V73
p389
sg85
(lp390
(VTABE
VL M
tp391
asg64
I1995
sg47
V2752
p392
sbag1
(g2
g3
NtRp393
(dp394
g55
Nsg51
VJ IMMUNOL
p395
sg53
V112
p396
sg85
(lp397
(VUNDERDOWBJ
S''
tp398
asg64
I1974
sg47
V949
p399
sbag1
(g2
g3
NtRp400
(dp401
g55
V10.1016/S1360-1385(99)01389-8
p402
sg51
VTRENDS PLANT SCI
p403
sg53
V4
sg85
(lp404
(VVITALE
VA
tp405
asg64
I1999
sg47
V149
p406
sbag1
(g2
g3
NtRp407
(dp408
g55
Nsg51
VPLANT CELL
p409
sg53
V11
p410
sg85
(lp411
(VVITALE
VA
tp412
asg64
I1999
sg47
VLANT
p413
sbag1
(g2
g3
NtRp414
(dp415
g55
Nsg51
VPLANT J
p416
sg53
V2
sg85
(lp417
(VWANDELT
VC I
tp418
asg64
I1992
sg47
VLANT
p419
sbasb.