ccopy_reg
_reconstructor
p1
(ctethne.classes.paper
Paper
p2
c__builtin__
object
p3
NtRp4
(dp5
S'publisherCity'
p6
VROCKVILLE
p7
sS'reprintAddress'
p8
VEhmann, B (reprint author), Zentrum Angew Biowissensch, Sonnenstr 5 D, D-79104 Freiburg, Germany.
p9
sS'WC'
p10
VPlant Sciences
p11
sS'GA'
p12
V353ZW
p13
sS'abstract'
p14
VIn grass seedlings the network of cortical microtubules is reorganized during light-dependent growth of coleoptiles and mesocotyls. We investigated the effects of light-dependent growth on the relative steady-state levels of the mRNAs and protein levels of alpha-tubulin and the epsilon-subunit of the chaperonin containing tailless complex protein-1 in oat (Avena sativa) coleoptiles, which were grown in different light conditions to establish different growth responses. The soluble pools of the epsilon-subunit of the chaperonin containing tailless complex protein-1 and alpha-tubulin decreased in nonelongating coleoptiles, suggesting that the dynamics of the light-regulated soluble pool reflect the processes occurring during reorganization of cortical microtubules. The shifts in pool sizes are discussed in relation to the machinery that controls the dynamic structure of cortical microtubules in plant cells.
p15
sS'pageEnd'
p16
I320
sS'publisherAddress'
p17
V15501 MONONA DRIVE, ROCKVILLE, MD 20855 USA
p18
sS'documentType'
p19
VArticle
p20
sS'subject'
p21
VPlant Sciences
p22
sS'isoSource'
p23
VPlant Physiol.
p24
sS'timesCited'
p25
(lp26
I3
aVZ9 3
p27
asS'PT'
p28
VJ
sS'title'
p29
VCharacterization Of Protein And Transcript Levels Of The Chaperonin Containing Tailless Complex Protein-1 And Tubulin During Light-Regulated Growth Of Oat Seedlings
p30
sS'ISSN'
p31
(lp32
V0032-0889
p33
aVJ9 PLANT PHYSIOL
p34
asS'authors_full'
p35
(lp36
(VMOSER
VM
tp37
a(VSCHAFER
VE
tp38
a(VEHMANN
VB
tp39
asS'PG'
p40
I8
sS'PD'
p41
VSEP
p42
sS'pageStart'
p43
I313
sS'issue'
p44
I1
sS'journal'
p45
VPLANT PHYSIOLOGY
p46
sS'volume'
p47
V124
p48
sS'doi'
p49
V10.1104/pp.124.1.313
p50
sS'authorAddress'
p51
(lp52
VZentrum Angew Biowissensch, D-79104 Freiburg, Germany.
p53
aVUniv Freiburg, Inst Biol 2, D-79104 Freiburg, Germany.
p54
asS'date'
p55
I2000
sS'ER'
p56
V
sS'publisher'
p57
VAMER SOC PLANT PHYSIOLOGISTS
p58
sS'authorKeywords'
p59
(lp60
VOUTER EPIDERMAL WALL
p61
aVFUNCTION IN-VIVO
p62
aVAVENA-SATIVA L
p63
aVZEA-MAYS L
p64
aVCYTOSOLIC CHAPERONIN
p65
aVGENE-EXPRESSION
p66
aVCAENORHABDITIS-ELEGANS
p67
aVMOLECULAR CHAPERONE
p68
aVEUKARYOTIC CYTOSOL
p69
aVMAIZE COLEOPTILES
p70
asS'language'
p71
VEnglish
p72
sS'wosid'
p73
VWOS:000089306200031
p74
sS'citationCount'
p75
I51
sS'authors_init'
p76
(lp77
(VMOSER
VM
tp78
a(VSCHAFER
VE
tp79
a(VEHMANN
VB
tp80
asS'citedReferences'
p81
(lp82
g1
(g2
g3
NtRp83
(dp84
g49
V10.1111/j.1432-1033.1996.00114.x
p85
sg45
VEUR J BIOCHEM
p86
sg47
V235
p87
sg76
(lp88
(VAHNERT
VV
tp89
asg55
I1996
sg43
V114
p90
sbag1
(g2
g3
NtRp91
(dp92
g49
Nsg45
VJ BIOL CHEM
p93
sg47
V271
p94
sg76
(lp95
(VBROWN
VC R
tp96
asg55
I1996
sg43
V824
p97
sbag1
(g2
g3
NtRp98
(dp99
g49
V10.1104/pp.91.3.1157
p100
sg45
VPLANT PHYSIOL
p101
sg47
V91
p102
sg76
(lp103
(VBUSTOS
VM M
tp104
asg55
I1989
sg43
VLANT
p105
sbag1
(g2
g3
NtRp106
(dp107
g49
V10.1073/pnas.91.19.9111
p108
sg45
VP NATL ACAD SCI USA
p109
sg47
V91
p110
sg76
(lp111
(VCHEN
VX Y
tp112
asg55
I1994
sg43
V9111
p113
sbag1
(g2
g3
NtRp114
(dp115
g49
V10.1104/pp.93.3.1196
p116
sg45
VPLANT PHYSIOL
p117
sg47
V93
p118
sg76
(lp119
(VCOLBERT
VJ T
tp120
asg55
I1990
sg43
VLANT
p121
sbag1
(g2
g3
NtRp122
(dp123
g49
Nsg45
VDEV DYNAM
p124
sg47
V205
p125
sg76
(lp126
(VDUNN
VM K
tp127
asg55
I1996
sg43
V387
p128
sbag1
(g2
g3
NtRp129
(dp130
g49
V10.1016/0014-5793(93)80827-H
p131
sg45
VFEBS LETT
p132
sg47
V336
p133
sg76
(lp134
(VEHMANN
VB
tp135
asg55
I1993
sg43
V313
p136
sbag1
(g2
g3
NtRp137
(dp138
g49
Nsg45
VPLANTA
p139
sg47
V183
p140
sg76
(lp141
(VEHMANN
VB
tp142
asg55
I1991
sg43
VLANTA
p143
sbag1
(g2
g3
NtRp144
(dp145
g49
Nsg45
VEMBO J
p146
sg47
V11
p147
sg76
(lp148
(VFRYDMAN
VJ
tp149
asg55
I1992
sg43
V4767
p150
sbag1
(g2
g3
NtRp151
(dp152
g49
V10.1046/j.1365-313X.1993.04030507.x
p153
sg45
VPLANT J
p154
sg47
V4
sg76
(lp155
(VHARTER
VK
tp156
asg55
I1993
sg43
VLANT
p157
sbag1
(g2
g3
NtRp158
(dp159
g49
V10.1046/j.1365-313x.1997.12061299.x
p160
sg45
VPLANT J
p161
sg47
V12
p162
sg76
(lp163
(VHIMMELSPACH
VR
tp164
asg55
I1997
sg43
VLANT
p165
sbag1
(g2
g3
NtRp166
(dp167
g49
V10.1016/0014-5793(94)01408-S
p168
sg45
VFEBS LETT
p169
sg47
V358
p170
sg76
(lp171
(VHYNES
VG
tp172
asg55
I1995
sg43
V129
p173
sbag1
(g2
g3
NtRp174
(dp175
g49
Nsg45
VPLANT CELL PHYSIOL
p176
sg47
V29
p177
sg76
(lp178
(VIWATA
VK
tp179
asg55
I1988
sg43
VLANT
p180
sbag1
(g2
g3
NtRp181
(dp182
g49
Nsg45
VPLANT CELL PHYSIOL
p183
sg47
V30
p184
sg76
(lp185
(VIWATA
VK
tp186
asg55
I1989
sg43
VLANT
p187
sbag1
(g2
g3
NtRp188
(dp189
g49
Nsg45
VPLANT CELL PHYSIOL
p190
sg47
V30
p191
sg76
(lp192
(VIWATA
VK
tp193
asg55
I1989
sg43
VLANT
p194
sbag1
(g2
g3
NtRp195
(dp196
g49
V10.1016/0022-2836(92)90684-C
p197
sg45
VJ MOL BIOL
p198
sg47
V227
p199
sg76
(lp200
(VJOYCE
VC M
tp201
asg55
I1992
sg43
V97
p202
sbag1
(g2
g3
NtRp203
(dp204
g49
Nsg45
VPCR PROTOCOLS GUIDE
p205
sg47
Nsg76
(lp206
(VKAWASAKI
VE S
tp207
asg55
I1990
sg43
VCR
p208
sbag1
(g2
g3
NtRp209
(dp210
g49
V10.1016/S0960-9822(94)00024-2
p211
sg45
VCURR BIOL
p212
sg47
V4
sg76
(lp213
(VKUBOTA
VH
tp214
asg55
I1994
sg43
V89
p215
sbag1
(g2
g3
NtRp216
(dp217
g49
V10.1111/j.1432-1033.1995.0003i.x
p218
sg45
VEUR J BIOCHEM
p219
sg47
V230
p220
sg76
(lp221
(VKUBOTA
VH
tp222
asg55
I1995
sg43
V3
sbag1
(g2
g3
NtRp223
(dp224
g49
V10.1038/227680a0
p225
sg45
VNATURE
p226
sg47
V227
p227
sg76
(lp228
(VLAEMMLI
VU K
tp229
asg55
I1970
sg43
V680
p230
sbag1
(g2
g3
NtRp231
(dp232
g49
V10.1016/0378-1119(95)00025-2
p233
sg45
VGENE
p234
sg47
V156
p235
sg76
(lp236
(VLEROUX
VM R
tp237
asg55
I1995
sg43
V241
p238
sbag1
(g2
g3
NtRp239
(dp240
g49
V10.1089/dna.1995.14.951
p241
sg45
VDNA CELL BIOL
p242
sg47
V14
p243
sg76
(lp244
(VLEROUX
VM R
tp245
asg55
I1995
sg43
V951
p246
sbag1
(g2
g3
NtRp247
(dp248
g49
Nsg45
VPLANT CELL
p249
sg47
V7
sg76
(lp250
(VLEU
VW M
tp251
asg55
I1995
sg43
VLANT
p252
sbag1
(g2
g3
NtRp253
(dp254
g49
V10.1038/358249a0
p255
sg45
VNATURE
p256
sg47
V358
p257
sg76
(lp258
(VLEWIS
VV A
tp259
asg55
I1992
sg43
V249
p260
sbag1
(g2
g3
NtRp261
(dp262
g49
Nsg45
VPLANT CELL PHYSIOL
p263
sg47
V34
p264
sg76
(lp265
(VMENDU
VN
tp266
asg55
I1993
sg43
VLANT
p267
sbag1
(g2
g3
NtRp268
(dp269
g49
Nsg45
VTHEOR APPL GENET
p270
sg47
V86
p271
sg76
(lp272
(VMENDU
VN
tp273
asg55
I1993
sg43
V135
p274
sbag1
(g2
g3
NtRp275
(dp276
g49
V10.1073/pnas.91.7.2743
p277
sg45
VP NATL ACAD SCI USA
p278
sg47
V91
p279
sg76
(lp280
(VMIKLOS
VD
tp281
asg55
I1994
sg43
V2743
p282
sbag1
(g2
g3
NtRp283
(dp284
g49
V10.1038/363644a0
p285
sg45
VNATURE
p286
sg47
V363
p287
sg76
(lp288
(VMUMMERT
VE
tp289
asg55
I1993
sg43
V644
p290
sbag1
(g2
g3
NtRp291
(dp292
g49
Nsg45
VPLANTA
p293
sg47
V195
p294
sg76
(lp295
(VNICK
VP
tp296
asg55
I1994
sg43
VLANTA
p297
sbag1
(g2
g3
NtRp298
(dp299
g49
V10.1007/BF02411533
p300
sg45
VPLANTA
p301
sg47
V181
p302
sg76
(lp303
(VNICK
VP
tp304
asg55
I1990
sg43
VLANTA
p305
sbag1
(g2
g3
NtRp306
(dp307
g49
Nsg45
VPLANT J
p308
sg47
V8
sg76
(lp309
(VNICK
VP
tp310
asg55
I1995
sg43
VLANT
p311
sbag1
(g2
g3
NtRp312
(dp313
g49
Nsg45
VACTA BIOL MED GER
p314
sg47
V34
p315
sg76
(lp316
(VPOPOV
VN
tp317
asg55
I1975
sg43
V1441
p318
sbag1
(g2
g3
NtRp319
(dp320
g49
V10.1074/jbc.274.4.2408
p321
sg45
VJ BIOL CHEM
p322
sg47
V274
p323
sg76
(lp324
(VROOBOL
VA
tp325
asg55
I1999
sg43
V2408
p326
sbag1
(g2
g3
NtRp327
(dp328
g49
Nsg45
VJ CELL SCI
p329
sg47
V108
p330
sg76
(lp331
(VROOBOL
VA
tp332
asg55
I1995
sg43
V1477
p333
sbag1
(g2
g3
NtRp334
(dp335
g49
Nsg45
VCYTOSKELETAL BASIS P
p336
sg47
Nsg76
(lp337
(VSHIBAOKA
VH
tp338
asg55
I1991
sg43
V159
p339
sbag1
(g2
g3
NtRp340
(dp341
g49
V10.1016/0012-1606(87)90063-7
p342
sg45
VDEV BIOL
p343
sg47
V119
p344
sg76
(lp345
(VSILVER
VL M
tp346
asg55
I1987
sg43
V605
p347
sbag1
(g2
g3
NtRp348
(dp349
g49
Nsg45
VJ BIOL CHEM
p350
sg47
V269
p351
sg76
(lp352
(VSOARES
VH
tp353
asg55
I1994
sg43
V29299
p354
sbag1
(g2
g3
NtRp355
(dp356
g49
V10.1073/pnas.90.20.9422
p357
sg45
VP NATL ACAD SCI USA
p358
sg47
V90
p359
sg76
(lp360
(VSTERNLICHT
VH
tp361
asg55
I1993
sg43
V9422
p362
sbag1
(g2
g3
NtRp363
(dp364
g49
V10.1016/0167-4781(94)00187-8
p365
sg45
VBBA
p366
sg47
V1260
p367
sg76
(lp368
(VSUN
VH B
tp369
asg55
I1995
sg43
V157
p370
sbag1
(g2
g3
NtRp371
(dp372
g49
V10.1083/jcb.138.4.821
p373
sg45
VJ CELL BIOL
p374
sg47
V138
p375
sg76
(lp376
(VTIAN
VG L
tp377
asg55
I1997
sg43
V821
p378
sbag1
(g2
g3
NtRp379
(dp380
g49
V10.1016/S0092-8674(00)80100-2
p381
sg45
VCELL
p382
sg47
V86
p383
sg76
(lp384
(VTIAN
VG L
tp385
asg55
I1996
sg43
V287
p386
sbag1
(g2
g3
NtRp387
(dp388
g49
V10.1007/BF01101686
p389
sg45
VPLANTA
p390
sg47
V194
p391
sg76
(lp392
(VTOYOMASU
VT
tp393
asg55
I1994
sg43
VLANTA
p394
sbag1
(g2
g3
NtRp395
(dp396
g49
Nsg45
VMOL CELL BIOL
p397
sg47
V11
p398
sg76
(lp399
(VURSIC
VD
tp400
asg55
I1991
sg43
V2629
p401
sbag1
(g2
g3
NtRp402
(dp403
g49
Nsg45
VMOL BIOL CELL
p404
sg47
V5
sg76
(lp405
(VURSIC
VD
tp406
asg55
I1994
sg43
V1065
p407
sbag1
(g2
g3
NtRp408
(dp409
g49
V10.1016/S0092-8674(00)81446-4
p410
sg45
VCELL
p411
sg47
V93
p412
sg76
(lp413
(VVAINBERG
VI E
tp414
asg55
I1998
sg43
V863
p415
sbag1
(g2
g3
NtRp416
(dp417
g49
V10.1007/BF00041404
p418
sg45
VPLANT MOL BIOL
p419
sg47
V32
p420
sg76
(lp421
(VVASSILEVSKAIA
VT D
tp422
asg55
I1996
sg43
VLANT
p423
sbag1
(g2
g3
NtRp424
(dp425
g49
V10.1007/BF00020169
p426
sg45
VPLANT MOL BIOL
p427
sg47
V24
p428
sg76
(lp429
(VVILLEMUR
VR
tp430
asg55
I1994
sg43
VLANT
p431
sbag1
(g2
g3
NtRp432
(dp433
g49
V10.1073/pnas.91.19.9116
p434
sg45
VP NATL ACAD SCI USA
p435
sg47
V91
p436
sg76
(lp437
(VVINH
VD B N
tp438
asg55
I1994
sg43
V9116
p439
sbag1
(g2
g3
NtRp440
(dp441
g49
Nsg45
VTRENDS PLANT SCI
p442
sg47
V1
sg76
(lp443
(VWYMER
VC
tp444
asg55
I1996
sg43
V222
p445
sbag1
(g2
g3
NtRp446
(dp447
g49
V10.1038/358245a0
p448
sg45
VNATURE
p449
sg47
V358
p450
sg76
(lp451
(VYAFFE
VM B
tp452
asg55
I1992
sg43
V245
p453
sbag1
(g2
g3
NtRp454
(dp455
g49
V10.1007/BF01378999
p456
sg45
VPROTOPLASMA
p457
sg47
V173
p458
sg76
(lp459
(VZANDOMENI
VK
tp460
asg55
I1993
sg43
VROTOPLASMA
p461
sbasb.