ccopy_reg
_reconstructor
p1
(ctethne.classes.paper
Paper
p2
c__builtin__
object
p3
NtRp4
(dp5
S'publisherCity'
p6
VROCKVILLE
p7
sS'reprintAddress'
p8
VFrugoli, J (reprint author), Clemson Univ, Dept Biochem & Genet, Clemson, SC 29634 USA.
p9
sS'WC'
p10
VPlant Sciences
p11
sS'GA'
p12
V674CE
p13
sS'FX'
p14
(lp15
VThis work was supported by the National Science Foundation (grant no.
p16
aVIOB-0641848 to J.F.), by a Clemson University Public Service and
p17
aVAgriculture Next Generation Graduate Fellowship to T.K., by the Hoover
p18
aVCircle Fund and prior support from the Howard Hughes Medical Institute,
p19
aVand by the U.S. Department of Energy (grant no. DE-FG03-90ER20010 to
p20
aVS.R.L.). This is technical contribution no. 5764 of the Clemson
p21
aVExperiment Station.
p22
asS'abstract'
p23
VThe number of nodules that form in a legume when interacting with compatible rhizobia is regulated by the plant. We report the identification of a mutant in nodule regulation in Medicago truncatula, like sunn supernodulator (lss), which displays shoot-controlled supernodulation and short roots, similar to sunn mutants. In contrast with the sunn-1 mutant, nodulation in the lss mutant is more extensive and is less sensitive to nitrate and ethylene, resembling the sunn-4 presumed null allele phenotype. Although the lss locus maps to the SUNN region of linkage group 4 and sunn and lss do not complement each other, there is no mutation in the genomic copy of the SUNN gene or in the 15-kb surrounding region in the lss mutant. However, expression of the SUNN gene in the shoots of lss plants is greatly reduced compared with wild-type plants. Analysis of cDNA from plants heterozygous for lss indicates that lss is a cis-acting factor affecting the expression of SUNN, and documented reversion events show it to be unstable, suggesting a possible reversible DNA rearrangement or an epigenetic change in the lss mutant. Assessment of the SUNN promoter revealed low levels of cytosine methylation in the 700-bp region proximal to the predicted transcription start site in both wild-type and lss plants, indicating that promoter hypermethylation is not responsible for the suppression of SUNN expression in lss. Thus, lss represents either a distal novel locus within the mapped region affecting SUNN expression or an uncharacterized epigenetic modification at the SUNN locus.
p24
sS'pageEnd'
p25
I1402
sS'date'
p26
I2010
sS'documentType'
p27
VArticle
p28
sS'subject'
p29
VPlant Sciences
p30
sS'isoSource'
p31
VPlant Physiol.
p32
sS'timesCited'
p33
(lp34
I13
aVZ9 13
p35
asS'funding'
p36
(lp37
(VNational Science Foundation
VIOB-0641848
tp38
a(VClemson University Public Service and Agriculture
Ntp39
a(VHoover Circle Fund
Ntp40
a(VHoward Hughes Medical Institute
Ntp41
a(VU.S. Department of Energy
VDE-FG03-90ER20010
tp42
asS'PT'
p43
VJ
sS'title'
p44
VThe Lss Supernodulation Mutant Of Medicago Truncatula Reduces Expression Of The Sunn Gene
p45
sS'ISSN'
p46
(lp47
V0032-0889
p48
aVJ9 PLANT PHYSIOL
p49
asS'authors_full'
p50
(lp51
(VSCHNABEL
VELISE
tp52
a(VMUKHERJEE
VARIJIT
tp53
a(VSMITH
VLUCINDA
tp54
a(VKASSAW
VTESSEMA
tp55
a(VLONG
VSHARON
tp56
a(VFRUGOLI
VJULIA
tp57
asS'PG'
p58
I13
sS'PD'
p59
VNOV
p60
sS'pageStart'
p61
I1390
sS'issue'
p62
I3
sS'RI'
p63
VMukherjee, Arijit/A-1183-2011
p64
sS'journal'
p65
VPLANT PHYSIOLOGY
p66
sS'volume'
p67
V154
p68
sS'doi'
p69
V10.1104/pp.110.164889
p70
sS'emailAddress'
p71
Vjfrugol@clemson.edu
p72
sS'authorAddress'
p73
(lp74
V[Schnabel, Elise; Mukherjee, Arijit; Kassaw, Tessema; Frugoli, Julia] Clemson Univ, Dept Biochem & Genet, Clemson, SC 29634 USA.
p75
aV[Smith, Lucinda; Long, Sharon] Stanford Univ, Dept Biol, Palo Alto, CA 94035 USA.
p76
asS'publisherAddress'
p77
V15501 MONONA DRIVE, ROCKVILLE, MD 20855 USA
p78
sS'ER'
p79
V
sS'publisher'
p80
VAMER SOC PLANT BIOLOGISTS
p81
sS'authorKeywords'
p82
(lp83
VAUXIN TRANSPORT REGULATION
p84
aVLOTUS-JAPONICUS
p85
aVNODULE NUMBER
p86
aVHYPERNODULATION MUTANT
p87
aVSIGNAL-TRANSDUCTION
p88
aVLEGUME NODULATION
p89
aVRECEPTOR KINASE
p90
aVWHITE CLOVER
p91
aVNITRATE
p92
aVALFALFA
p93
asS'language'
p94
VEnglish
p95
sS'wosid'
p96
VWOS:000283710300032
p97
sS'citationCount'
p98
I55
sS'authors_init'
p99
(lp100
(VSCHNABEL
VE
tp101
a(VMUKHERJEE
VA
tp102
a(VSMITH
VL
tp103
a(VKASSAW
VT
tp104
a(VLONG
VS R
tp105
a(VFRUGOLI
VJ
tp106
asS'citedReferences'
p107
(lp108
g1
(g2
g3
NtRp109
(dp110
g69
V10.1146/annurev.pp.32.060181.002203
p111
sg65
VANNU REV PLANT PHYS
p112
sg67
V32
p113
sg99
(lp114
(VBAUER
VW D
tp115
asg26
I1981
sg61
V407
p116
sbag1
(g2
g3
NtRp117
(dp118
g69
V10.1111/j.1399-3054.1987.tb04617.x
p119
sg65
VPHYSIOL PLANTARUM
p120
sg67
V71
p121
sg99
(lp122
(VBEKKI
VA
tp123
asg26
I1987
sg61
VHYSIOL
p124
sbag1
(g2
g3
NtRp125
(dp126
g69
V10.1094/MPMI.1999.12.10.839
p127
sg65
VMOL PLANT MICROBE IN
p128
sg67
V12
p129
sg99
(lp130
(VBOOT
VK J M
tp131
asg26
I1999
sg61
V839
p132
sbag1
(g2
g3
NtRp133
(dp134
g69
V10.1046/j.1365-3040.1998.00242.x
p135
sg65
VPLANT CELL ENVIRON
p136
sg67
V21
p137
sg99
(lp138
(VCABA
VJ M
tp139
asg26
I1998
sg61
VLANT
p140
sbag1
(g2
g3
NtRp141
(dp142
g69
V10.1146/annurev.mi.45.100191.002021
p143
sg65
VANNU REV MICROBIOL
p144
sg67
V45
p145
sg99
(lp146
(VCAETANOANOLLES
VG
tp147
asg26
I1991
sg61
V345
p148
sbag1
(g2
g3
NtRp149
(dp150
g69
V10.1104/pp.78.1.34
p151
sg65
VPLANT PHYSIOL
p152
sg67
V78
p153
sg99
(lp154
(VCARROLL
VB J
tp155
asg26
I1985
sg61
VLANT
p156
sbag1
(g2
g3
NtRp157
(dp158
g69
V10.1073/pnas.82.12.4162
p159
sg65
VP NATL ACAD SCI USA
p160
sg67
V82
p161
sg99
(lp162
(VCARROLL
VB J
tp163
asg26
I1985
sg61
V4162
p164
sbag1
(g2
g3
NtRp165
(dp166
g69
Nsg65
VPLANT PHYSIOL
p167
sg67
V108
p168
sg99
(lp169
(VCORONADO
VC
tp170
asg26
I1995
sg61
VLANT
p171
sbag1
(g2
g3
NtRp172
(dp173
g69
Nsg65
VBIOCH MOL BIOL PLANT
p174
sg67
Nsg99
(lp175
(VCRAWFORD
VN M
tp176
asg26
I2000
sg61
V787
p177
sbag1
(g2
g3
NtRp178
(dp179
g69
V10.1126/science.10744524
p180
sg65
VSCIENCE
p181
sg67
V256
p182
sg99
(lp183
(VEHRHARDT
VD W
tp184
asg26
I1992
sg61
V998
p185
sbag1
(g2
g3
NtRp186
(dp187
g69
V10.1126/science.1171609
p188
sg65
VSCIENCE
p189
sg67
V324
p190
sg99
(lp191
(VGEHRING
VM
tp192
asg26
I2009
sg61
V1447
p193
sbag1
(g2
g3
NtRp194
(dp195
g69
Nsg65
VPlant Signal Behav
p196
sg67
V4
sg99
(lp197
(VGRESSHOFF
VPETER M
tp198
asg26
I2009
sg61
Vlant
p199
sbag1
(g2
g3
NtRp200
(dp201
g69
V10.1186/1471-2105-9-371
p202
sg65
VBMC BIOINFORMATICS
p203
sg67
V9
sg99
(lp204
(VGRUNTMAN
VE
tp205
asg26
I2008
sg61
Nsbag1
(g2
g3
NtRp206
(dp207
g69
Nsg65
VADV GENETIC ANAL FIN
p208
sg67
Nsg99
(lp209
(VHAWLEY
VR S
tp210
asg26
I2003
sg61
Nsbag1
(g2
g3
NtRp211
(dp212
g69
V10.1093/nar/27.1.297
p213
sg65
VNUCLEIC ACIDS RES
p214
sg67
V27
p215
sg99
(lp216
(VHIGO
VK
tp217
asg26
I1999
sg61
V297
p218
sbag1
(g2
g3
NtRp219
(dp220
g69
V10.1007/BF00039514
p221
sg65
VPLANT MOL BIOL
p222
sg67
V26
p223
sg99
(lp224
(VHIRSCH
VA M
tp225
asg26
I1994
sg61
VLANT
p226
sbag1
(g2
g3
NtRp227
(dp228
g69
V10.1007/s00344-005-0106-y
p229
sg65
VJ PLANT GROWTH REGUL
p230
sg67
V25
p231
sg99
(lp232
(VHUO
VX Y
tp233
asg26
I2006
sg61
V156
p234
sbag1
(g2
g3
NtRp235
(dp236
g69
V10.1111/j.1747-0765.2007.00240.x
p237
sg65
VSOIL SCI PLANT NUTR
p238
sg67
V54
p239
sg99
(lp240
(VISHIKAWA
VK
tp241
asg26
I2008
sg61
V259
p242
sbag1
(g2
g3
NtRp243
(dp244
g69
V10.1016/0304-4211(84)90025-7
p245
sg65
VPLANT SCI LETT
p246
sg67
V33
p247
sg99
(lp248
(VJACOBSEN
VE
tp249
asg26
I1984
sg61
VLANT
p250
sbag1
(g2
g3
NtRp251
(dp252
g69
Nsg65
VACTA BIOL HUNG
p253
sg67
V49
p254
sg99
(lp255
(VKISS
VG B
tp256
asg26
I1998
sg61
V125
p257
sbag1
(g2
g3
NtRp258
(dp259
g69
V10.1104/pp.75.1.125
p260
sg65
VPLANT PHYSIOL
p261
sg67
V75
p262
sg99
(lp263
(VKOSSLAK
VR M
tp264
asg26
I1984
sg61
VLANT
p265
sbag1
(g2
g3
NtRp266
(dp267
g69
V10.1038/nature01207
p268
sg65
VNATURE
p269
sg67
V420
p270
sg99
(lp271
(VKRUSELL
VL
tp272
asg26
I2002
sg61
V422
p273
sbag1
(g2
g3
NtRp274
(dp275
g69
V10.1104/pp.104.045575
p276
sg65
VPLANT PHYSIOL
p277
sg67
V136
p278
sg99
(lp279
(VKUPPUSAMY
VK T
tp280
asg26
I2004
sg61
VLANT
p281
sbag1
(g2
g3
NtRp282
(dp283
g69
V10.1094/MPMI-22-3-0259
p284
sg65
VMOL PLANT MICROBE IN
p285
sg67
V22
p286
sg99
(lp287
(VMAGORI
VS
tp288
asg26
I2009
sg61
V259
p289
sbag1
(g2
g3
NtRp290
(dp291
g69
V10.1046/j.1365-313X.1998.00090.x
p292
sg65
VPLANT J
p293
sg67
V14
p294
sg99
(lp295
(VMATHESIUS
VU
tp296
asg26
I1998
sg61
VLANT
p297
sbag1
(g2
g3
NtRp298
(dp299
g69
V10.1094/MPMI.2000.13.6.617
p300
sg65
VMOL PLANT MICROBE IN
p301
sg67
V13
p302
sg99
(lp303
(VMATHESIUS
VU
tp304
asg26
I2000
sg61
V617
p305
sbag1
(g2
g3
NtRp306
(dp307
g69
V10.1073/pnas.222304699
p308
sg65
VP NATL ACAD SCI USA
p309
sg67
V99
p310
sg99
(lp311
(VNISHIMURA
VR
tp312
asg26
I2002
sg61
V15206
p313
sbag1
(g2
g3
NtRp314
(dp315
g69
V10.1038/nature01231
p316
sg65
VNATURE
p317
sg67
V420
p318
sg99
(lp319
(VNISHIMURA
VR
tp320
asg26
I2002
sg61
V426
p321
sbag1
(g2
g3
NtRp322
(dp323
g69
V10.1016/j.pbi.2006.07.012
p324
sg65
VCURR OPIN PLANT BIOL
p325
sg67
V9
sg99
(lp326
(VOKA-KIRA
VE
tp327
asg26
I2006
sg61
V496
p328
sbag1
(g2
g3
NtRp329
(dp330
g69
V10.1111/j.1365-313X.2005.02543.x
p331
sg65
VPLANT J
p332
sg67
V44
p333
sg99
(lp334
(VOKA-KIRA
VE
tp335
asg26
I2005
sg61
VLANT
p336
sbag1
(g2
g3
NtRp337
(dp338
g69
V10.1146/annurev.arplant.59.032607.092839
p339
sg65
VANNU REV PLANT BIOL
p340
sg67
V59
p341
sg99
(lp342
(VOLDROYD
VG E D
tp343
asg26
I2008
sg61
V519
p344
sbag1
(g2
g3
NtRp345
(dp346
g69
V10.1105/tpc.13.8.1835
p347
sg65
VPLANT CELL
p348
sg67
V13
p349
sg99
(lp350
(VOLDROYD
VG E D
tp351
asg26
I2001
sg61
VLANT
p352
sbag1
(g2
g3
NtRp353
(dp354
g69
V10.1023/B:PLAN.0000004308.78057.f5
p355
sg65
VPLANT MOL BIOL
p356
sg67
V52
p357
sg99
(lp358
(VPACIOS-BRAS
VC
tp359
asg26
I2003
sg61
VLANT
p360
sbag1
(g2
g3
NtRp361
(dp362
g69
Nsg65
VJ HERED
p363
sg67
V80
p364
sg99
(lp365
(VPARK
VS J
tp366
asg26
I1989
sg61
V486
p367
sbag1
(g2
g3
NtRp368
(dp369
g69
V10.1071/AR9941329
p370
sg65
VAUST J AGR RES
p371
sg67
V45
p372
sg99
(lp373
(VPATHIPANAWAT
VW
tp374
asg26
I1994
sg61
V1329
p375
sbag1
(g2
g3
NtRp376
(dp377
g69
V10.1104/pp.123.4.1387
p378
sg65
VPLANT PHYSIOL
p379
sg67
V123
p380
sg99
(lp381
(VPENMETSA
VR V
tp382
asg26
I2000
sg61
VLANT
p383
sbag1
(g2
g3
NtRp384
(dp385
g69
V10.1111/j.1365-313X.2008.03531.x
p386
sg65
VPLANT J
p387
sg67
V55
p388
sg99
(lp389
(VPENMETSA
VR V
tp390
asg26
I2008
sg61
VLANT
p391
sbag1
(g2
g3
NtRp392
(dp393
g69
V10.1104/pp.015677
p394
sg65
VPLANT PHYSIOL
p395
sg67
V131
p396
sg99
(lp397
(VPENMETSA
VR V
tp398
asg26
I2003
sg61
VLANT
p399
sbag1
(g2
g3
NtRp400
(dp401
g69
V10.1126/science.275.5299.527
p402
sg65
VSCIENCE
p403
sg67
V275
p404
sg99
(lp405
(VPENMETSA
VR V
tp406
asg26
I1997
sg61
V527
p407
sbag1
(g2
g3
NtRp408
(dp409
g69
V10.1073/pnas.0701861104
p410
sg65
VP NATL ACAD SCI USA
p411
sg67
V104
p412
sg99
(lp413
(VPENTERMAN
VJ
tp414
asg26
I2007
sg61
V6752
p415
sbag1
(g2
g3
NtRp416
(dp417
g69
V10.1104/pp.106.080093
p418
sg65
VPLANT PHYSIOL
p419
sg67
V142
p420
sg99
(lp421
(VPRAYITNO
VJ
tp422
asg26
I2006
sg61
VLANT
p423
sbag1
(g2
g3
NtRp424
(dp425
g69
V10.1101/gr.1744803
p426
sg65
VGENOME RES
p427
sg67
V13
p428
sg99
(lp429
(VRABINOWICZ
VP D
tp430
asg26
I2003
sg61
V2658
p431
sbag1
(g2
g3
NtRp432
(dp433
g69
V[10.1111/j.1364-3703.2006.00328.x, 10.1111/J.1364-3703.2006.00328.X]
p434
sg65
VMOL PLANT PATHOL
p435
sg67
V7
sg99
(lp436
(VRIELY
VB K
tp437
asg26
I2006
sg61
V197
p438
sbag1
(g2
g3
NtRp439
(dp440
g69
Nsg65
VSYMBIOSIS
p441
sg67
V20
p442
sg99
(lp443
(VSAGAN
VM
tp444
asg26
I1996
sg61
V229
p445
sbag1
(g2
g3
NtRp446
(dp447
g69
V10.1007/s11103-005-8102-y
p448
sg65
VPLANT MOL BIOL
p449
sg67
V58
p450
sg99
(lp451
(VSCHNABEL
VE
tp452
asg26
I2005
sg61
VLANT
p453
sbag1
(g2
g3
NtRp454
(dp455
g69
V10.1139/G03-019
p456
sg65
VGENOME
p457
sg67
V46
p458
sg99
(lp459
(VSCHNABEL
VE
tp460
asg26
I2003
sg61
V665
p461
sbag1
(g2
g3
NtRp462
(dp463
g69
V10.1126/science.1077937
p464
sg65
VSCIENCE
p465
sg67
V299
p466
sg99
(lp467
(VSEARLE
VI R
tp468
asg26
I2003
sg61
V109
p469
sbag1
(g2
g3
NtRp470
(dp471
g69
V10.1016/j.pbi.2006.01.005
p472
sg65
VCURR OPIN PLANT BIOL
p473
sg67
V9
sg99
(lp474
(VSTACEY
VG
tp475
asg26
I2006
sg61
V110
p476
sbag1
(g2
g3
NtRp477
(dp478
g69
V10.1016/j.tplants.2007.06.006
p479
sg65
VTRENDS PLANT SCI
p480
sg67
V12
p481
sg99
(lp482
(VSUBRAMANIAN
VS
tp483
asg26
I2007
sg61
V282
p484
sbag1
(g2
g3
NtRp485
(dp486
g69
V10.1111/j.1365-313X.2006.02874.x
p487
sg65
VPLANT J
p488
sg67
V48
p489
sg99
(lp490
(VSUBRAMANIAN
VS
tp491
asg26
I2006
sg61
VLANT
p492
sbag1
(g2
g3
NtRp493
(dp494
g69
V10.1016/j.pbi.2007.06.008
p495
sg65
VCURR OPIN PLANT BIOL
p496
sg67
V10
p497
sg99
(lp498
(VVAILLANT
VI
tp499
asg26
I2007
sg61
V528
p500
sbag1
(g2
g3
NtRp501
(dp502
g69
V10.1104/pp.105.075879
p503
sg65
VPLANT PHYSIOL
p504
sg67
V140
p505
sg99
(lp506
(VVAN
VNOORDEN G E
tp507
asg26
I2006
sg61
VLANT
p508
sbag1
(g2
g3
NtRp509
(dp510
g69
V10.1046/j.1365-313x.2000.00799.x
p511
sg65
VPLANT J
p512
sg67
V23
p513
sg99
(lp514
(VWOPEREIS
VJ
tp515
asg26
I2000
sg61
VLANT
p516
sbag1
(g2
g3
NtRp517
(dp518
g69
V10.1104/pp.106.095018
p519
sg65
VPLANT PHYSIOL
p520
sg67
V144
p521
sg99
(lp522
(VZHANG
VJ A
tp523
asg26
I2007
sg61
VLANT
p524
sbag1
(g2
g3
NtRp525
(dp526
g69
V10.1371/journal.pbio.0050129
p527
sg65
VPLOS BIOL
p528
sg67
V5
sg99
(lp529
(VZHANG
VX Y
tp530
asg26
I2007
sg61
VLOS
p531
sbasb.