ccopy_reg
_reconstructor
p1
(ctethne.classes.paper
Paper
p2
c__builtin__
object
p3
NtRp4
(dp5
S'publisherCity'
p6
VROCKVILLE
p7
sS'reprintAddress'
p8
VAtteia, A (reprint author), Aix Marseille Univ, Ctr Natl Rech Sci, Unite Mixte Rech 7281, Unite Bioenerget & Ingn Prot, F-13402 Marseille, France.
p9
sS'WC'
p10
VPlant Sciences
p11
sS'GA'
p12
V062ZP
p13
sS'FX'
p14
(lp15
VThis work was supported by the Centre National de la Recherche
p16
aVScientifique and the Agence Nationale pour la Recherche (grant no.
p17
aVANR-11-BIOE-004-03, project AlgoH2, to A.A., C.B., and R.v.L.).
p18
asS'abstract'
p19
VEukaryotic algae have long been known to live in anoxic environments, but interest in their anaerobic energy metabolism has only recently gained momentum, largely due to their utility in biofuel production. Chlamydomonas reinhardtii figures remarkably in this respect, because it efficiently produces hydrogen and its genome harbors many genes for anaerobic metabolic routes. Central to anaerobic energy metabolism in many unicellular eukaryotes (protists) is pyruvate: ferredoxin oxidoreductase (PFO), which decarboxylates pyruvate and forms acetyl-coenzyme A with concomitant reduction of low-potential ferredoxins or flavodoxins. Here, we report the biochemical properties of the homodimeric PFO of C. reinhardtii expressed in Escherichia coli. Electron paramagnetic resonance spectroscopy of the recombinant enzyme (Cr-rPFO) showed three distinct [4Fe-4S] iron-sulfur clusters and a thiamine pyrophosphate radical upon reduction by pyruvate. Purified Cr-rPFO exhibits a specific decarboxylase activity of 12 mu mol pyruvate min(-1) mg(-1) protein using benzyl viologen as electron acceptor. Despite the fact that the enzyme is very oxygen sensitive, it localizes to the chloroplast. Among the six known chloroplast ferredoxins (FDX1-FDX6) in C. reinhardtii, FDX1 and FDX2 were the most efficient electron acceptors from Cr-rPFO, with comparable apparent K-m values of approximately 4 mu M. As revealed by immunoblotting, anaerobic conditions that lead to the induction of CrPFO did not increase levels of either FDX1 or FDX2. FDX1, being by far the most abundant ferredoxin, is thus likely the partner of PFO in C. reinhardtii. This finding postulates a direct link between CrPFO and hydrogenase and provides new opportunities to better study and engineer hydrogen production in this protist.
p20
sS'pageEnd'
p21
I71
sS'date'
p22
I2013
sS'documentType'
p23
VArticle
p24
sS'subject'
p25
VPlant Sciences
p26
sS'isoSource'
p27
VPlant Physiol.
p28
sS'timesCited'
p29
(lp30
I0
aVZ9 0
p31
asS'funding'
p32
(lp33
(VCentre National de la Recherche Scientifique
Ntp34
a(VAgence Nationale pour la Recherche
V11-BIOE-004-03
tp35
asS'PT'
p36
VJ
sS'title'
p37
VChlamydomonas Reinhardtii Chloroplasts Contain A Homodimeric Pyruvate: Ferredoxin Oxidoreductase That Functions With Fdx1
p38
sS'ISSN'
p39
(lp40
V0032-0889
p41
aVJ9 PLANT PHYSIOL
p42
asS'authors_full'
p43
(lp44
(VVAN LIS
VROBERT
tp45
a(VBAFFERT
VCAROLE
tp46
a(VCOUTE
VYOHANN
tp47
a(VNITSCHKE
VWOLFGANG
tp48
a(VATTEIA
VARIANE
tp49
asS'PG'
p50
I15
sS'PD'
p51
VJAN
p52
sS'pageStart'
p53
I57
sS'issue'
p54
I1
sS'journal'
p55
VPLANT PHYSIOLOGY
p56
sS'volume'
p57
V161
p58
sS'doi'
p59
V10.1104/pp.112.208181
p60
sS'emailAddress'
p61
Variane.atteia@imm.cnrs.fr
p62
sS'authorAddress'
p63
(lp64
V[van Lis, Robert; Baffert, Carole; Nitschke, Wolfgang; Atteia, Ariane] Aix Marseille Univ, Ctr Natl Rech Sci, Unite Mixte Rech 7281, Unite Bioenerget & Ingn Prot, F-13402 Marseille, France.
p65
aV[Coute, Yohann] Commissariat Energie Atom, Inst Rech Technol & Sci Vivant, Lab Biol Grande Echelle, F-38054 Grenoble, France.
p66
aV[Coute, Yohann] Inst Natl Sante & Rech Med, U1038, F-38054 Grenoble, France.
p67
aV[Coute, Yohann] Univ Grenoble 1, F-38000 Grenoble 09, France.
p68
asS'publisherAddress'
p69
V15501 MONONA DRIVE, ROCKVILLE, MD 20855 USA
p70
sS'ER'
p71
V
sS'publisher'
p72
VAMER SOC PLANT BIOLOGISTS
p73
sS'authorKeywords'
p74
(lp75
VFORMATE-LYASE
p76
aVESCHERICHIA-COLI
p77
aVHYDROGEN-PRODUCTION
p78
aVGREEN-ALGA
p79
aVSUBCELLULAR-LOCALIZATION
p80
aVDESULFOVIBRIO-AFRICANUS
p81
aVHALOBACTERIUM-HALOBIUM
p82
aVTRICHOMONAS-VAGINALIS
p83
aVMOLECULAR COMPOSITION
p84
aVCATALYTIC-PROPERTIES
p85
asS'language'
p86
VEnglish
p87
sS'wosid'
p88
VWOS:000312964000007
p89
sS'citationCount'
p90
I79
sS'authors_init'
p91
(lp92
(VVAN LIS
VR
tp93
a(VBAFFERT
VC
tp94
a(VCOUTE
VY
tp95
a(VNITSCHKE
VW
tp96
a(VATTEIA
VA
tp97
asS'citedReferences'
p98
(lp99
g1
(g2
g3
NtRp100
(dp101
g59
V10.1046/j.1365-2958.1999.01434.x
p102
sg55
VMOL MICROBIOL
p103
sg57
V32
p104
sg91
(lp105
(VAKHMANOVA
VA
tp106
asg22
I1999
sg53
V1103
p107
sbag1
(g2
g3
NtRp108
(dp109
g59
Nsg55
VBIOCH BIOPH IN PRESS
p110
sg57
Nsg91
(lp111
(VATTEIA
VA
tp112
asg22
I2012
sg53
Nsbag1
(g2
g3
NtRp113
(dp114
g59
V10.1074/jbc.M507862200
p115
sg55
VJ BIOL CHEM
p116
sg57
V281
p117
sg91
(lp118
(VATTEIA
VA
tp119
asg22
I2006
sg53
V9909
p120
sbag1
(g2
g3
NtRp121
(dp122
g59
V10.1016/j.tplants.2011.12.004
p123
sg55
VTRENDS PLANT SCI
p124
sg57
V17
p125
sg91
(lp126
(VBAILEY-SERRES
VJ
tp127
asg22
I2012
sg53
V129
p128
sbag1
(g2
g3
NtRp129
(dp130
g59
V10.1016/0167-4838(93)90190-3
p131
sg55
VBIOCHIM BIOPHYS ACTA
p132
sg57
V1161
p133
sg91
(lp134
(VBLAMEY
VJ M
tp135
asg22
I1993
sg53
V19
p136
sbag1
(g2
g3
NtRp137
(dp138
g59
V10.1021/bi00170a019
p139
sg55
VBIOCHEMISTRY
p140
sg57
V33
p141
sg91
(lp142
(VBLAMEY
VJ M
tp143
asg22
I1994
sg53
V1000
p144
sbag1
(g2
g3
NtRp145
(dp146
g59
Nsg55
VEUR J BIOCHEM
p147
sg57
V123
p148
sg91
(lp149
(VBLASCHKOWSKI
VH P
tp150
asg22
I1982
sg53
V563
p151
sbag1
(g2
g3
NtRp152
(dp153
g59
V10.1111/j.1432-1033.1996.0035n.x
p154
sg55
VEUR J BIOCHEM
p155
sg57
V237
p156
sg91
(lp157
(VBOCK
VA K
tp158
asg22
I1996
sg53
V35
p159
sbag1
(g2
g3
NtRp160
(dp161
g59
V10.1105/tpc.111.084400
p162
sg55
VPLANT CELL
p163
sg57
V23
p164
sg91
(lp165
(VCASTRUITA
VM
tp166
asg22
I2011
sg53
VLANT
p167
sbag1
(g2
g3
NtRp168
(dp169
g59
V10.1105/tpc.111.093146
p170
sg55
VPLANT CELL
p171
sg57
V24
p172
sg91
(lp173
(VCATALANOTTI
VC
tp174
asg22
I2012
sg53
VLANT
p175
sbag1
(g2
g3
NtRp176
(dp177
g59
V10.1016/j.str.2005.10.013
p178
sg55
VSTRUCTURE
p179
sg57
V14
p180
sg91
(lp181
(VCAVAZZA
VC
tp182
asg22
I2006
sg53
V217
p183
sbag1
(g2
g3
NtRp184
(dp185
g59
Nsg55
VNAT STRUCT BIOL
p186
sg57
V6
sg91
(lp187
(VCHABRIERE
VE
tp188
asg22
I1999
sg53
V182
p189
sbag1
(g2
g3
NtRp190
(dp191
g59
V10.1016/S0959-440X(99)00027-5
p192
sg55
VCURR OPIN STRUC BIOL
p193
sg57
V9
sg91
(lp194
(VCHARON
VM H
tp195
asg22
I1999
sg53
V663
p196
sbag1
(g2
g3
NtRp197
(dp198
g59
V10.1016/S0098-8472(02)00043-6
p199
sg55
VENVIRON EXP BOT
p200
sg57
V50
p201
sg91
(lp202
(VDE
VSOUSA C A F
tp203
asg22
I2003
sg53
V1
sbag1
(g2
g3
NtRp204
(dp205
g59
V10.1093/bioinformatics/btp301
p206
sg55
VBIOINFORMATICS
p207
sg57
V25
p208
sg91
(lp209
(VDUPIERRIS
VV
tp210
asg22
I2009
sg53
V1980
p211
sbag1
(g2
g3
NtRp212
(dp213
g59
V10.1038/346297a0
p214
sg55
VNATURE
p215
sg57
V346
p216
sg91
(lp217
(VDURRANT
VI
tp218
asg22
I1990
sg53
V297
p219
sbag1
(g2
g3
NtRp220
(dp221
g59
V10.1146/annurev.genet.42.110807.091452
p222
sg55
VANNU REV GENET
p223
sg57
V42
p224
sg91
(lp225
(VEBERHARD
VS
tp226
asg22
I2008
sg53
V463
p227
sbag1
(g2
g3
NtRp228
(dp229
g59
V10.1038/nature04546
p230
sg55
VNATURE
p231
sg57
V440
p232
sg91
(lp233
(VEMBLEY
VT M
tp234
asg22
I2006
sg53
V623
p235
sbag1
(g2
g3
NtRp236
(dp237
g59
V10.1146/annurev-micro-090110-102801
p238
sg55
VANNU REV MICROBIOL
p239
sg57
V65
p240
sg91
(lp241
(VFUCHS
VG
tp242
asg22
I2011
sg53
V631
p243
sbag1
(g2
g3
NtRp244
(dp245
g59
V10.1111/j.1550-7408.2004.tb00394.x
p246
sg55
VJ EUKARYOT MICROBIOL
p247
sg57
V51
p248
sg91
(lp249
(VGELIUS-DIETRICH
VG
tp250
asg22
I2004
sg53
V456
p251
sbag1
(g2
g3
NtRp252
(dp253
g59
V10.1007/BF02920420
p254
sg55
VAPPL BIOCHEM BIOTECH
p255
sg57
V63
p256
sg91
(lp257
(VGHIRARDI
VM L
tp258
asg22
I1997
sg53
V141
p259
sbag1
(g2
g3
NtRp260
(dp261
g59
V10.1016/j.pbi.2007.01.012
p262
sg55
VCURR OPIN PLANT BIOL
p263
sg57
V10
p264
sg91
(lp265
(VGROSSMAN
VA R
tp266
asg22
I2007
sg53
V190
p267
sbag1
(g2
g3
NtRp268
(dp269
g59
V10.1111/j.1469-8137.2010.03534.x
p270
sg55
VNEW PHYTOL
p271
sg57
V190
p272
sg91
(lp273
(VGROSSMAN
VA R
tp274
asg22
I2011
sg53
V279
p275
sbag1
(g2
g3
NtRp276
(dp277
g59
V10.1128/EC.2.6.1137-1150.2003
p278
sg55
VEUKARYOT CELL
p279
sg57
V2
sg91
(lp280
(VGROSSMAN
VA R
tp281
asg22
I2003
sg53
V1137
p282
sbag1
(g2
g3
NtRp283
(dp284
g59
V10.1111/j.1432-1033.1994.tb18923.x
p285
sg55
VEUR J BIOCHEM
p286
sg57
V222
p287
sg91
(lp288
(VHAPPE
VT
tp289
asg22
I1994
sg53
V769
p290
sbag1
(g2
g3
NtRp291
(dp292
g59
Nsg55
VCHLAMYDOMONAS SOURCE
p293
sg57
Nsg91
(lp294
(VHARRIS
VE
tp295
asg22
I1989
sg53
Nsbag1
(g2
g3
NtRp296
(dp297
g59
V10.1016/0014-5793(89)81064-6
p298
sg55
VFEBS LETT
p299
sg57
V255
p300
sg91
(lp301
(VHAWKINS
VC F
tp302
asg22
I1989
sg53
V77
p303
sbag1
(g2
g3
NtRp304
(dp305
g59
V10.1104/pp.122.4.1439
p306
sg55
VPLANT PHYSIOL
p307
sg57
V122
p308
sg91
(lp309
(VHEIFETZ
VP B
tp310
asg22
I2000
sg53
VLANT
p311
sbag1
(g2
g3
NtRp312
(dp313
g59
V10.1128/EC.00368-07
p314
sg55
VEUKARYOT CELL
p315
sg57
V7
sg91
(lp316
(VHEMSCHEMEIER
VA
tp317
asg22
I2008
sg53
V518
p318
sbag1
(g2
g3
NtRp319
(dp320
g59
Nsg55
VMOL BIOL EVOL
p321
sg57
V16
p322
sg91
(lp323
(VHORNER
VD S
tp324
asg22
I1999
sg53
V1280
p325
sbag1
(g2
g3
NtRp326
(dp327
g59
V10.1007/BF01215186
p328
sg55
VJ MOL EVOL
p329
sg57
V41
p330
sg91
(lp331
(VHRDY
VI
tp332
asg22
I1995
sg53
V388
p333
sbag1
(g2
g3
NtRp334
(dp335
g59
V10.1093/molbev/msp237
p336
sg55
VMOL BIOL EVOL
p337
sg57
V27
p338
sg91
(lp339
(VHUG
VL A
tp340
asg22
I2010
sg53
V311
p341
sbag1
(g2
g3
NtRp342
(dp343
g59
Nsg55
VJ BIOCHEM
p344
sg57
V96
p345
sg91
(lp346
(VINUI
VH
tp347
asg22
I1984
sg53
V931
p348
sbag1
(g2
g3
NtRp349
(dp350
g59
V10.1016/j.febslet.2008.12.018
p351
sg55
VFEBS LETT
p352
sg57
V583
p353
sg91
(lp354
(VJACOBS
VJ
tp355
asg22
I2009
sg53
V325
p356
sbag1
(g2
g3
NtRp357
(dp358
g59
V10.1111/j.1432-1033.1981.tb05376.x
p359
sg55
VEUR J BIOCHEM
p360
sg57
V116
p361
sg91
(lp362
(VKERSCHER
VL
tp363
asg22
I1981
sg53
V587
p364
sbag1
(g2
g3
NtRp365
(dp366
g59
Nsg55
VJ BACTERIOL
p367
sg57
V178
p368
sg91
(lp369
(VKLETZIN
VA
tp370
asg22
I1996
sg53
V248
p371
sbag1
(g2
g3
NtRp372
(dp373
g59
V10.1111/j.1432-1033.1969.tb00775.x
p374
sg55
VEUR J BIOCHEM
p375
sg57
V11
p376
sg91
(lp377
(VKNAPPE
VJ
tp378
asg22
I1969
sg53
V316
p379
sbag1
(g2
g3
NtRp380
(dp381
g59
V10.1016/S0168-6445(05)80006-3
p382
sg55
VFEMS MICROBIOL LETT
p383
sg57
V75
p384
sg91
(lp385
(VKNAPPE
VJ
tp386
asg22
I1990
sg53
V383
p387
sbag1
(g2
g3
NtRp388
(dp389
g59
V10.1111/j.1399-3054.1984.tb06105.x
p390
sg55
VPHYSIOL PLANTARUM
p391
sg57
V61
p392
sg91
(lp393
(VKREUZBERG
VK
tp394
asg22
I1984
sg53
VHYSIOL
p395
sbag1
(g2
g3
NtRp396
(dp397
g59
V10.1007/BF00262199
p398
sg55
VARCH MICROBIOL
p399
sg57
V163
p400
sg91
(lp401
(VKUNOW
VJ
tp402
asg22
I1995
sg53
V21
p403
sbag1
(g2
g3
NtRp404
(dp405
g59
V10.1099/mic.0.2008/017897-0
p406
sg55
VMICROBIOL
p407
sg57
V154
p408
sg91
(lp409
(VLANTSMAN
VY
tp410
asg22
I2008
sg53
V2757
p411
sbag1
(g2
g3
NtRp412
(dp413
g59
Nsg55
VJ BIOL CHEM
p414
sg57
V248
p415
sg91
(lp416
(VLINDMARK
VD G
tp417
asg22
I1973
sg53
V7724
p418
sbag1
(g2
g3
NtRp419
(dp420
g59
V10.1104/pp.111.191569
p421
sg55
VPLANT PHYSIOL
p422
sg57
V158
p423
sg91
(lp424
(VMAGNESCHI
VL
tp425
asg22
I2012
sg53
VLANT
p426
sbag1
(g2
g3
NtRp427
(dp428
g59
V10.1098/rstb.2009.0252
p429
sg55
VPHILOS T R SOC B
p430
sg57
V365
p431
sg91
(lp432
(VMARTIN
VW
tp433
asg22
I2010
sg53
VHILOS
p434
sbag1
(g2
g3
NtRp435
(dp436
g59
V10.1007/BF00409658
p437
sg55
VARCH MICROBIOL
p438
sg57
V152
p439
sg91
(lp440
(VMEINECKE
VB
tp441
asg22
I1989
sg53
V244
p442
sbag1
(g2
g3
NtRp443
(dp444
g59
V10.1021/bi970403k
p445
sg55
VBIOCHEMISTRY
p446
sg57
V36
p447
sg91
(lp448
(VMENON
VS
tp449
asg22
I1997
sg53
V8484
p450
sbag1
(g2
g3
NtRp451
(dp452
g59
V10.1016/j.bbamcr.2006.04.007
p453
sg55
VBBA
p454
sg57
V1763
p455
sg91
(lp456
(VMERCHANT
VS S
tp457
asg22
I2006
sg53
V578
p458
sbag1
(g2
g3
NtRp459
(dp460
g59
V10.1128/MMBR.05024-11
p461
sg55
VMICROBIOL MOL BIOL R
p462
sg57
V76
p463
sg91
(lp464
(VMULLER
VM
tp465
asg22
I2012
sg53
V444
p466
sbag1
(g2
g3
NtRp467
(dp468
g59
V10.1074/jbc.M701415200
p469
sg55
VJ BIOL CHEM
p470
sg57
V282
p471
sg91
(lp472
(VMUS
VF
tp473
asg22
I2007
sg53
V25475
p474
sbag1
(g2
g3
NtRp475
(dp476
g59
Nsg55
VJ BIOCHEM
p477
sg57
V126
p478
sg91
(lp479
(VNAKAMURA
VM
tp480
asg22
I1999
sg53
V10
p481
sbag1
(g2
g3
NtRp482
(dp483
g59
V10.1002/pmic.201100114
p484
sg55
VPROTEOMICS
p485
sg57
V11
p486
sg91
(lp487
(VNGUYEN
VH M
tp488
asg22
I2011
sg53
VROTEOMICS
p489
sbag1
(g2
g3
NtRp490
(dp491
g59
V10.1105/tpc.112.098962
p492
sg55
VPLANT CELL
p493
sg57
V24
p494
sg91
(lp495
(VPAGE
VM D
tp496
asg22
I2012
sg53
VLANT
p497
sbag1
(g2
g3
NtRp498
(dp499
g59
V10.1111/j.1365-313X.2011.04494.x
p500
sg55
VPLANT J
p501
sg57
V66
p502
sg91
(lp503
(VPHILIPPS
VG
tp504
asg22
I2011
sg53
VLANT
p505
sbag1
(g2
g3
NtRp506
(dp507
g59
V10.1021/bi0485878
p508
sg55
VBIOCHEMISTRY
p509
sg57
V43
p510
sg91
(lp511
(VPIEULLE
VL
tp512
asg22
I2004
sg53
V15480
p513
sbag1
(g2
g3
NtRp514
(dp515
g59
Nsg55
VJ BACTERIOL
p516
sg57
V179
p517
sg91
(lp518
(VPIEULLE
VL
tp519
asg22
I1997
sg53
V5684
p520
sbag1
(g2
g3
NtRp521
(dp522
g59
V10.1016/0167-4838(95)00029-T
p523
sg55
VBBA
p524
sg57
V1250
p525
sg91
(lp526
(VPIEULLE
VL
tp527
asg22
I1995
sg53
V49
p528
sbag1
(g2
g3
NtRp529
(dp530
g59
V10.1111/j.1432-1033.1992.tb16792.x
p531
sg55
VEUR J BIOCHEM
p532
sg57
V205
p533
sg91
(lp534
(VPLAGA
VW
tp535
asg22
I1992
sg53
V391
p536
sbag1
(g2
g3
NtRp537
(dp538
g59
V10.1023/A:1020484105601
p539
sg55
VPHOTOSYNTH RES
p540
sg57
V73
p541
sg91
(lp542
(VROCHAIX
VJ D
tp543
asg22
I2002
sg53
VHOTOSYNTH
p544
sbag1
(g2
g3
NtRp545
(dp546
g59
Nsg55
VMOL BIOL EVOL
p547
sg57
V18
p548
sg91
(lp549
(VROTTE
VC
tp550
asg22
I2001
sg53
V710
p551
sbag1
(g2
g3
NtRp552
(dp553
g59
V10.1007/s00253-011-3511-0
p554
sg55
VAPPL MICROBIOL BIOT
p555
sg57
V92
p556
sg91
(lp557
(VRYDZAK
VT
tp558
asg22
I2011
sg53
V199
p559
sbag1
(g2
g3
NtRp560
(dp561
g59
V10.1016/S0091-679X(01)65014-3
p562
sg55
VMETHOD CELL BIOL
p563
sg57
V65
p564
sg91
(lp565
(VSCHAGGER
VH
tp566
asg22
I2001
sg53
V231
p567
sbag1
(g2
g3
NtRp568
(dp569
g59
V10.1111/j.1432-1033.1988.tb13901.x
p570
sg55
VEUR J BIOCHEM
p571
sg57
V172
p572
sg91
(lp573
(VSCHMITTER
VJ M
tp574
asg22
I1988
sg53
V405
p575
sbag1
(g2
g3
NtRp576
(dp577
g59
V10.1038/285114a0
p578
sg55
VNATURE
p579
sg57
V285
p580
sg91
(lp581
(VSPREITZER
VR J
tp582
asg22
I1980
sg53
V114
p583
sbag1
(g2
g3
NtRp584
(dp585
g59
V10.1093/molbev/msr032
p586
sg55
VMOL BIOL EVOL
p587
sg57
V28
p588
sg91
(lp589
(VSTAIRS
VC W
tp590
asg22
I2011
sg53
V2087
p591
sbag1
(g2
g3
NtRp592
(dp593
g59
V10.1016/j.pep.2005.01.016
p594
sg55
VPROTEIN EXPRES PURIF
p595
sg57
V41
p596
sg91
(lp597
(VSTUDIER
VF W
tp598
asg22
I2005
sg53
VROTEIN
p599
sbag1
(g2
g3
NtRp600
(dp601
g59
V10.1093/molbev/mss178
p602
sg55
VMOL BIOL EVOL
p603
sg57
V29
p604
sg91
(lp605
(VTARDIF
VM
tp606
asg22
I2012
sg53
V3625
p607
sbag1
(g2
g3
NtRp608
(dp609
g59
V10.1074/mcp.M900421-MCP200
p610
sg55
VMOL CELL PROTEOMICS
p611
sg57
V9
sg91
(lp612
(VTERASHIMA
VM
tp613
asg22
I2010
sg53
V1514
p614
sbag1
(g2
g3
NtRp615
(dp616
g59
V10.1074/jbc.M109.023622
p617
sg55
VJ BIOL CHEM
p618
sg57
V284
p619
sg91
(lp620
(VTERAUCHI
VA M
tp621
asg22
I2009
sg53
V25867
p622
sbag1
(g2
g3
NtRp623
(dp624
g59
V10.1016/0166-6851(96)02661-8
p625
sg55
VMOL BIOCHEM PARASIT
p626
sg57
V79
p627
sg91
(lp628
(VTOWNSON
VS M
tp629
asg22
I1996
sg53
V183
p630
sbag1
(g2
g3
NtRp631
(dp632
g59
Nsg55
VJ BIOL CHEM
p633
sg57
V246
p634
sg91
(lp635
(VUYEDA
VK
tp636
asg22
I1971
sg53
V3111
p637
sbag1
(g2
g3
NtRp638
(dp639
g59
V10.1104/pp.105.069732
p640
sg55
VPLANT PHYSIOL
p641
sg57
V139
p642
sg91
(lp643
(VVAN
VL I S R
tp644
asg22
I2005
sg53
VLANT
p645
sbag1
(g2
g3
NtRp646
(dp647
g59
V10.1080/09593331003710244
p648
sg55
VENVIRON TECHNOL
p649
sg57
V31
p650
sg91
(lp651
(VVERHAART
VM R A
tp652
asg22
I2010
sg53
V993
p653
sbag1
(g2
g3
NtRp654
(dp655
g59
V10.1021/bi7014713
p656
sg55
VBIOCHEMISTRY
p657
sg57
V47
p658
sg91
(lp659
(VVITA
VN
tp660
asg22
I2008
sg53
V957
p661
sbag1
(g2
g3
NtRp662
(dp663
g59
V10.1073/pnas.89.3.996
p664
sg55
VP NATL ACAD SCI USA
p665
sg57
V89
p666
sg91
(lp667
(VWAGNER
VA F V
tp668
asg22
I1992
sg53
V996
p669
sbag1
(g2
g3
NtRp670
(dp671
g59
Nsg55
VJ BIOL CHEM
p672
sg57
V262
p673
sg91
(lp674
(VWAHL
VR C
tp675
asg22
I1987
sg53
V10489
p676
sbag1
(g2
g3
NtRp677
(dp678
g59
V10.1016/0003-2697(84)90782-6
p679
sg55
VANAL BIOCHEM
p680
sg57
V138
p681
sg91
(lp682
(VWESSEL
VD
tp683
asg22
I1984
sg53
V141
p684
sbag1
(g2
g3
NtRp685
(dp686
g59
Nsg55
VBIOCHEM J
p687
sg57
V246
p688
sg91
(lp689
(VWILLIAMS
VK
tp690
asg22
I1987
sg53
V529
p691
sbag1
(g2
g3
NtRp692
(dp693
g59
V10.1074/jbc.M109.053496
p694
sg55
VJ BIOL CHEM
p695
sg57
V284
p696
sg91
(lp697
(VWINKLER
VM
tp698
asg22
I2009
sg53
V36620
p699
sbag1
(g2
g3
NtRp700
(dp701
g59
V10.1016/j.ejcb.2010.06.018
p702
sg55
VEUR J CELL BIOL
p703
sg57
V89
p704
sg91
(lp705
(VWINKLER
VM
tp706
asg22
I2010
sg53
V998
p707
sbasb.