ccopy_reg
_reconstructor
p1
(ctethne.classes.paper
Paper
p2
c__builtin__
object
p3
NtRp4
(dp5
S'publisherCity'
p6
VROCKVILLE
p7
sS'reprintAddress'
p8
VCarpita, NC (reprint author), Purdue Univ, Dept Bot & Plant Pathol, W Lafayette, IN 47907 USA.
p9
sS'WC'
p10
VPlant Sciences
p11
sS'GA'
p12
V838DD
p13
sS'abstract'
p14
VGrowth and maturation of the edible cortical cells of apples (Malus domestica Borkh) are accompanied by a selective loss of pectin-associated (1 --> 4)-beta-D-galactan from the cell walls, whereas a selective loss of highly branched (1 --> 5)-alpha-L-arabinans occurs after ripening and in advance of the loss of firm texture. The selective loss of highly branched arabinans occurs during the overripening of apples of four cultivars (Gala, Red Delicious, Firm Gold, and Gold Rush) that varied markedly in storage life, but, in all instances, the loss prestages the loss of firm texture, measured by both breaking strength and compression resistance. The unbranched (1 --> 5)-linked arabinans remain associated with the major pectic polymer, rhamnogalacturonan I, and their content remains essentially unchanged during overripening. However, the degree of rhamnogalacturonan I branching at the rhamnosyl residues also decreases, but only after extensive loss of the highly branched arabinans. In contrast to the decrease in arabinan content, the loss of the rhamnogalacturonan I branching is tightly correlated with loss of firm texture in all cultivars, regardless of storage time. In vitro cell separation assays show that structural proteins, perhaps via their phenolic residues, and homogalacturonans also contribute to cell adhesion. Implications of these cell wall modifications in the mechanisms of apple cortex textural changes and cell separation are discussed.
p15
sS'pageEnd'
p16
I1313
sS'publisherAddress'
p17
V15501 MONONA DRIVE, ROCKVILLE, MD 20855 USA
p18
sS'documentType'
p19
VArticle
p20
sS'subject'
p21
VPlant Sciences
p22
sS'isoSource'
p23
VPlant Physiol.
p24
sS'timesCited'
p25
(lp26
I47
aVZ9 50
p27
asS'PT'
p28
VJ
sS'title'
p29
VLoss Of Highly Branched Arabinans And Debranching Of Rhamnogalacturonan I Accompany Loss Of Firm Texture And Cell Separation During Prolonged Storage Of Apple
p30
sS'ISSN'
p31
(lp32
V0032-0889
p33
aVJ9 PLANT PHYSIOL
p34
asS'authors_full'
p35
(lp36
(VPENA
VMJ
tp37
a(VCARPITA
VNC
tp38
asS'PG'
p39
I9
sS'PD'
p40
VJUL
p41
sS'pageStart'
p42
I1305
sS'issue'
p43
I3
sS'journal'
p44
VPLANT PHYSIOLOGY
p45
sS'volume'
p46
V135
p47
sS'doi'
p48
V10.1104/pp.104.043679
p49
sS'emailAddress'
p50
Vcarpita@purdue.edu
p51
sS'authorAddress'
p52
VPurdue Univ, Dept Bot & Plant Pathol, W Lafayette, IN 47907 USA.
p53
sS'date'
p54
I2004
sS'ER'
p55
V
sS'publisher'
p56
VAMER SOC PLANT BIOLOGISTS
p57
sS'authorKeywords'
p58
(lp59
VPECTIC POLYSACCHARIDES
p60
aVSIDE-CHAINS
p61
aVPLANT-CELL
p62
aVARABIDOPSIS-THALIANA
p63
aVWALL POLYSACCHARIDES
p64
aVSPATIAL REGULATION
p65
aVTOMATO FRUIT
p66
aVHOMOGALACTURONAN
p67
aVXYLOGLUCAN
p68
aVELONGATION
p69
asS'language'
p70
VEnglish
p71
sS'wosid'
p72
VWOS:000222692700015
p73
sS'citationCount'
p74
I41
sS'authors_init'
p75
(lp76
(VPENA
VM J
tp77
a(VCARPITA
VN C
tp78
asS'citedReferences'
p79
(lp80
g1
(g2
g3
NtRp81
(dp82
g48
V10.1016/0144-8617(84)90011-0
p83
sg44
VCARBOHYD POLYM
p84
sg46
V4
sg75
(lp85
(VASPINALL
VG O
tp86
asg54
I1984
sg42
V193
p87
sbag1
(g2
g3
NtRp88
(dp89
g48
Nsg44
VPHYSL BIOCH PLANT CE
p90
sg46
Nsg75
(lp91
(VBRETT
VC
tp92
asg54
I1996
sg42
VHYSL
p93
sbag1
(g2
g3
NtRp94
(dp95
g48
V10.1023/A:1010656104304
p96
sg44
VPLANT MOL BIOL
p97
sg46
V47
p98
sg75
(lp99
(VBRUMMELL
VD A
tp100
asg54
I2001
sg42
VLANT
p101
sbag1
(g2
g3
NtRp102
(dp103
g48
Nsg44
VPLANTA
p104
sg46
V213
p105
sg75
(lp106
(VBUSH
VM S
tp107
asg54
I2001
sg42
VLANTA
p108
sbag1
(g2
g3
NtRp109
(dp110
g48
Nsg44
VPROGR GLYCOBIOLOGY
p111
sg46
Nsg75
(lp112
(VCARPITA
VN C
tp113
asg54
I1996
sg42
VROGR
p114
sbag1
(g2
g3
NtRp115
(dp116
g48
V10.1111/j.1365-313X.1993.tb00007.x
p117
sg44
VPLANT J
p118
sg46
V3
sg75
(lp119
(VCARPITA
VN C
tp120
asg54
I1993
sg42
VLANT
p121
sbag1
(g2
g3
NtRp122
(dp123
g48
V10.1016/S0031-9422(00)82615-1
p124
sg44
VPHYTOCHEMISTRY
p125
sg46
V23
p126
sg75
(lp127
(VCARPITA
VN C
tp128
asg54
I1984
sg42
VHYTOCHEMISTRY
p129
sbag1
(g2
g3
NtRp130
(dp131
g48
Nsg44
VANAL CARBOHYDRATES G
p132
sg46
Nsg75
(lp133
(VCARPITA
VN C
tp134
asg54
I1989
sg42
V155
p135
sbag1
(g2
g3
NtRp136
(dp137
g48
Nsg44
VANATOMY SEED PLANTS
p138
sg46
Nsg75
(lp139
(VESAU
VK
tp140
asg54
I1977
sg42
Nsbag1
(g2
g3
NtRp141
(dp142
g48
V10.1104/pp.97.2.551
p143
sg44
VPLANT PHYSIOL
p144
sg46
V97
p145
sg75
(lp146
(VGIBEAUT
VD M
tp147
asg54
I1991
sg42
VLANT
p148
sbag1
(g2
g3
NtRp149
(dp150
g48
V10.1023/A:1010667012056
p151
sg44
VPLANT MOL BIOL
p152
sg46
V47
p153
sg75
(lp154
(VHENRISSAT
VB
tp155
asg54
I2001
sg42
VLANT
p156
sbag1
(g2
g3
NtRp157
(dp158
g48
V10.1104/pp.126.4.1698
p159
sg44
VPLANT PHYSIOL
p160
sg46
V126
p161
sg75
(lp162
(VISHII
VT
tp163
asg54
I2001
sg42
VLANT
p164
sbag1
(g2
g3
NtRp165
(dp166
g48
Nsg44
VPLANTA
p167
sg46
V213
p168
sg75
(lp169
(VIWAI
VH
tp170
asg54
I2001
sg42
VLANTA
p171
sbag1
(g2
g3
NtRp172
(dp173
g48
V10.1111/1365-3040.ep11614586
p174
sg44
VPLANT CELL ENVIRON
p175
sg46
V7
sg75
(lp176
(VJARVIS
VM C
tp177
asg54
I1984
sg42
VLANT
p178
sbag1
(g2
g3
NtRp179
(dp180
g48
V10.1073/pnas.1832434100
p181
sg44
VP NATL ACAD SCI USA
p182
sg46
V100
p183
sg75
(lp184
(VJONES
VL
tp185
asg54
I2003
sg42
V11783
p186
sbag1
(g2
g3
NtRp187
(dp188
g48
Nsg44
VPLANT PHYSIOL
p189
sg46
V113
p190
sg75
(lp191
(VJONES
VL
tp192
asg54
I1997
sg42
VLANT
p193
sbag1
(g2
g3
NtRp194
(dp195
g48
V10.1104/pp.98.2.646
p196
sg44
VPLANT PHYSIOL
p197
sg46
V98
p198
sg75
(lp199
(VKIM
VJ B
tp200
asg54
I1992
sg42
VLANT
p201
sbag1
(g2
g3
NtRp202
(dp203
g48
V10.1104/pp.119.1.199
p204
sg44
VPLANT PHYSIOL
p205
sg46
V119
p206
sg75
(lp207
(VKOBAYASHI
VM
tp208
asg54
I1999
sg42
VLANT
p209
sbag1
(g2
g3
NtRp210
(dp211
g48
V10.1016/0144-8617(93)90151-S
p212
sg44
VCARBOHYD POLYM
p213
sg46
V20
p214
sg75
(lp215
(VKRAVTCHENKO
VT P
tp216
asg54
I1993
sg42
V195
p217
sbag1
(g2
g3
NtRp218
(dp219
g48
V10.1046/j.1365-313x.2000.00719.x
p220
sg44
VPLANT J
p221
sg46
V22
p222
sg75
(lp223
(VMCCARTNEY
VL
tp224
asg54
I2000
sg42
VLANT
p225
sbag1
(g2
g3
NtRp226
(dp227
g48
V10.1046/j.1365-313X.2003.01640.x
p228
sg44
VPLANT J
p229
sg46
V33
p230
sg75
(lp231
(VMCCARTNEY
VL
tp232
asg54
I2003
sg42
VLANT
p233
sbag1
(g2
g3
NtRp234
(dp235
g48
Nsg44
VJ BIOL CHEM
p236
sg46
V271
p237
sg75
(lp238
(VONEILL
VM A
tp239
asg54
I1996
sg42
V22923
p240
sbag1
(g2
g3
NtRp241
(dp242
g48
V10.1126/science.1062319
p243
sg44
VSCIENCE
p244
sg46
V294
p245
sg75
(lp246
(VO'NEILL
VM A
tp247
asg54
I2001
sg42
V846
p248
sbag1
(g2
g3
NtRp249
(dp250
g48
V10.1046/j.1365-313X.2002.01296.x
p251
sg44
VPLANT J
p252
sg46
V30
p253
sg75
(lp254
(VOOMEN
VRJFJ
tp255
asg54
I2002
sg42
VLANT
p256
sbag1
(g2
g3
NtRp257
(dp258
g48
V10.1104/pp.126.1.210
p259
sg44
VPLANT PHYSIOL
p260
sg46
V126
p261
sg75
(lp262
(VORFILA
VC
tp263
asg54
I2001
sg42
VLANT
p264
sbag1
(g2
g3
NtRp265
(dp266
g48
V10.1007/s00425-002-0753-1
p267
sg44
VPLANTA
p268
sg46
V215
p269
sg75
(lp270
(VORFILA
VC
tp271
asg54
I2002
sg42
VLANTA
p272
sbag1
(g2
g3
NtRp273
(dp274
g48
V10.1104/pp.122.3.775
p275
sg44
VPLANT PHYSIOL
p276
sg46
V122
p277
sg75
(lp278
(VORFILA
VC
tp279
asg54
I2000
sg42
VLANT
p280
sbag1
(g2
g3
NtRp281
(dp282
g48
V10.1016/S0981-9428(00)00169-8
p283
sg44
VPLANT PHYSIOL BIOCH
p284
sg46
V38
p285
sg75
(lp286
(VPEREZ
VS
tp287
asg54
I2000
sg42
VLANT
p288
sbag1
(g2
g3
NtRp289
(dp290
g48
V10.1007/s004250050179
p291
sg44
VPLANTA
p292
sg46
V203
p293
sg75
(lp294
(VREDGWELL
VR J
tp295
asg54
I1997
sg42
VLANTA
p296
sbag1
(g2
g3
NtRp297
(dp298
g48
V10.1016/S0141-8130(01)00155-6
p299
sg44
VINT J BIOL MACROMOL
p300
sg46
V29
p301
sg75
(lp302
(VRENARD
VCMGC
tp303
asg54
I2001
sg42
V115
p304
sbag1
(g2
g3
NtRp305
(dp306
g48
V10.1104/pp.117.2.345
p307
sg44
VPLANT PHYSIOL
p308
sg46
V117
p309
sg75
(lp310
(VROSE
VJ K C
tp311
asg54
I1998
sg42
VLANT
p312
sbag1
(g2
g3
NtRp313
(dp314
g48
V10.1104/pp.103.021873
p315
sg44
VPLANT PHYSIOL
p316
sg46
V132
p317
sg75
(lp318
(VRYDEN
VP
tp319
asg54
I2003
sg42
VLANT
p320
sbag1
(g2
g3
NtRp321
(dp322
g48
V10.1016/0008-6215(95)00287-1
p323
sg44
VCARBOHYD RES
p324
sg46
V279
p325
sg75
(lp326
(VSCHOLS
VH A
tp327
asg54
I1995
sg42
V265
p328
sbag1
(g2
g3
NtRp329
(dp330
g48
V10.1038/334724a0
p331
sg44
VNATURE
p332
sg46
V334
p333
sg75
(lp334
(VSMITH
VC J S
tp335
asg54
I1988
sg42
V724
p336
sbag1
(g2
g3
NtRp337
(dp338
g48
V10.1016/0008-6215(84)85013-2
p339
sg44
VCARBOHYD RES
p340
sg46
V135
p341
sg75
(lp342
(VSTEVENS
VB J H
tp343
asg54
I1984
sg42
V155
p344
sbag1
(g2
g3
NtRp345
(dp346
g48
Nsg44
VNATURE
p347
sg46
V408
p348
sg75
(lp349
(VKAUL
VS
tp350
asg54
I2000
sg42
V796
p351
sbag1
(g2
g3
NtRp352
(dp353
g48
V10.1086/335103
p354
sg44
VBOT GAZ
p355
sg46
V104
p356
sg75
(lp357
(VTUKEY
VH B
tp358
asg54
I1942
sg42
V3
sbag1
(g2
g3
NtRp359
(dp360
g48
V10.1104/pp.103.022350
p361
sg44
VPLANT PHYSIOL
p362
sg46
V132
p363
sg75
(lp364
(VVINCKEN
VJ P
tp365
asg54
I2003
sg42
VLANT
p366
sbag1
(g2
g3
NtRp367
(dp368
g48
V10.1016/S0144-8617(99)00002-8
p369
sg44
VCARBOHYD POLYM
p370
sg46
V39
p371
sg75
(lp372
(VWATT
VD K
tp373
asg54
I1999
sg42
V165
p374
sbag1
(g2
g3
NtRp375
(dp376
g48
V10.1046/j.1365-313X.1999.00629.x
p377
sg44
VPLANT J
p378
sg46
V20
p379
sg75
(lp380
(VWILLATS
VW G T
tp381
asg54
I1999
sg42
VLANT
p382
sbag1
(g2
g3
NtRp383
(dp384
g48
V10.1023/A:1010662911148
p385
sg44
VPLANT MOL BIOL
p386
sg46
V47
p387
sg75
(lp388
(VWILLATS
VW G T
tp389
asg54
I2001
sg42
VLANT
p390
sbasb.