ccopy_reg
_reconstructor
p1
(ctethne.classes.paper
Paper
p2
c__builtin__
object
p3
NtRp4
(dp5
S'publisherCity'
p6
VROCKVILLE
p7
sS'reprintAddress'
p8
VFinkelstein, RR (reprint author), Univ Calif Santa Barbara, Dept Mol Cellular & Dev Biol, Santa Barbara, CA 93106 USA.
p9
sS'WC'
p10
VPlant Sciences
p11
sS'GA'
p12
V311UE
p13
sS'abstract'
p14
VLow concentrations of sugars altered the sensitivity of seed germination to inhibition by exogenous abscisic acid (ABA). Germination of wild-type and ABA-insensitive (abi) Arabidopsis seeds was assayed on media containing ABA and a variety of sugars and sugar alcohols. The inhibitory effects of ABA were strongly repressed in the presence of 15 to 90 mM glucose (Glc), sucrose, or fructose, but not by comparable concentrations of sorbitol or mannitol. Several features of the response to Glc are inconsistent with a purely nutritional effect: The optimal sugar concentration is low and differs between the wild type and the abi mutants. Furthermore, Glc suppression of ABA inhibition is light dependent and limited to the process of radicle emergence.
p15
sS'pageEnd'
p16
I1186
sS'publisherAddress'
p17
V15501 MONONA DRIVE, ROCKVILLE, MD 20855 USA
p18
sS'documentType'
p19
VArticle
p20
sS'subject'
p21
VPlant Sciences
p22
sS'isoSource'
p23
VPlant Physiol.
p24
sS'timesCited'
p25
(lp26
I64
aVZ9 75
p27
asS'PT'
p28
VJ
sS'title'
p29
VAbscisic Acid Inhibition Of Radicle Emergence But Not Seedling Growth Is Suppressed By Sugars
p30
sS'ISSN'
p31
(lp32
V0032-0889
p33
aVJ9 PLANT PHYSIOL
p34
asS'authors_full'
p35
(lp36
(VFINKELSTEIN
VRR
tp37
a(VLYNCH
VTJ
tp38
asS'PG'
p39
I8
sS'PD'
p40
VAPR
p41
sS'pageStart'
p42
I1179
sS'issue'
p43
I4
sS'journal'
p44
VPLANT PHYSIOLOGY
p45
sS'volume'
p46
V122
p47
sS'doi'
p48
V10.1104/pp.122.4.1179
p49
sS'authorAddress'
p50
VUniv Calif Santa Barbara, Dept Mol Cellular & Dev Biol, Santa Barbara, CA 93106 USA.
p51
sS'date'
p52
I2000
sS'ER'
p53
V
sS'publisher'
p54
VAMER SOC PLANT PHYSIOLOGISTS
p55
sS'authorKeywords'
p56
(lp57
VPHOTOBLASTIC LETTUCE SEEDS
p58
aVARABIDOPSIS-THALIANA
p59
aVGENE-EXPRESSION
p60
aVSIGNAL-TRANSDUCTION
p61
aVPHYTOCHROME-DEFICIENT
p62
aVHIGHER-PLANTS
p63
aVRED-LIGHT
p64
aVGERMINATION
p65
aVMUTANTS
p66
aVHEXOKINASE
p67
asS'language'
p68
VEnglish
p69
sS'wosid'
p70
VWOS:000086903400020
p71
sS'citationCount'
p72
I45
sS'authors_init'
p73
(lp74
(VFINKELSTEIN
VR R
tp75
a(VLYNCH
VT J
tp76
asS'citedReferences'
p77
(lp78
g1
(g2
g3
NtRp79
(dp80
g48
V10.1105/tpc.9.7.1055
p81
sg44
VPLANT CELL
p82
sg46
V9
sg73
(lp83
(VBEWLEY
VJ D
tp84
asg52
I1997
sg42
VLANT
p85
sbag1
(g2
g3
NtRp86
(dp87
g48
Nsg44
VSEEDS PHYSL DEV GERM
p88
sg46
Nsg73
(lp89
(VBEWLEY
VJ D
tp90
asg52
I1985
sg42
V73
p91
sbag1
(g2
g3
NtRp92
(dp93
g48
Nsg44
VPLANT PHYSIOL
p94
sg46
V114
p95
sg73
(lp96
(VBOXALL
VS F
tp97
asg52
I1997
sg42
VLANT
p98
sbag1
(g2
g3
NtRp99
(dp100
g48
Nsg44
VJ BIOL CHEM
p101
sg46
V244
p102
sg73
(lp103
(VCOOPER
VT G
tp104
asg52
I1969
sg42
V3507
p105
sbag1
(g2
g3
NtRp106
(dp107
g48
Nsg44
VPLANT PHYSIOL
p108
sg46
V104
p109
sg73
(lp110
(VDEWALD
VD B
tp111
asg52
I1994
sg42
VLANT
p112
sbag1
(g2
g3
NtRp113
(dp114
g48
V10.1104/pp.97.2.523
p115
sg44
VPLANT PHYSIOL
p116
sg46
V97
p117
sg73
(lp118
(VDUKE
VE R
tp119
asg52
I1991
sg42
VLANT
p120
sbag1
(g2
g3
NtRp121
(dp122
g48
V10.1104/pp.78.3.630
p123
sg44
VPLANT PHYSIOL
p124
sg46
V78
p125
sg73
(lp126
(VFINKELSTEIN
VR R
tp127
asg52
I1985
sg42
VLANT
p128
sbag1
(g2
g3
NtRp129
(dp130
g48
V10.1007/s004250050180
p131
sg44
VPLANTA
p132
sg46
V203
p133
sg73
(lp134
(VGARCIARRUBIO
VA
tp135
asg52
I1997
sg42
VLANTA
p136
sbag1
(g2
g3
NtRp137
(dp138
g48
Nsg44
VPLANT PHYSIOL
p139
sg46
V111
p140
sg73
(lp141
(VGIBSON
VS
tp142
asg52
I1996
sg42
VLANT
p143
sbag1
(g2
g3
NtRp144
(dp145
g48
Nsg44
V10 INT C AR RES JUL
p146
sg46
Nsg73
(lp147
(VGIBSON
VS I
tp148
asg52
I1999
sg42
Nsbag1
(g2
g3
NtRp149
(dp150
g48
V10.1105/tpc.6.5.761
p151
sg44
VPLANT CELL
p152
sg46
V6
sg73
(lp153
(VGRAHAM
VI A
tp154
asg52
I1994
sg42
VLANT
p155
sbag1
(g2
g3
NtRp156
(dp157
g48
V10.1104/pp.93.3.1246
p158
sg44
VPLANT PHYSIOL
p159
sg46
V93
p160
sg73
(lp161
(VHAJELA
VR K
tp162
asg52
I1990
sg42
VLANT
p163
sbag1
(g2
g3
NtRp164
(dp165
g48
V10.1016/S1360-1385(99)01377-1
p166
sg44
VTRENDS PLANT SCI
p167
sg46
V4
sg73
(lp168
(VHALFORD
VN G
tp169
asg52
I1999
sg42
V117
p170
sbag1
(g2
g3
NtRp171
(dp172
g48
V10.1007/BF00331020
p173
sg44
VMOL GEN GENET
p174
sg46
V204
p175
sg73
(lp176
(VHAUGHN
VG W
tp177
asg52
I1986
sg42
V430
p178
sbag1
(g2
g3
NtRp179
(dp180
g48
Nsg44
VBIOTECHNIQUES
p181
sg46
V6
sg73
(lp182
(VHERRIN
VD L
tp183
asg52
I1988
sg42
V196
p184
sbag1
(g2
g3
NtRp185
(dp186
g48
Nsg44
VNUCLEIC ACIDS RES
p187
sg46
V14
p188
sg73
(lp189
(VHODGSON
VC
tp190
asg52
I1987
sg42
V6295
p191
sbag1
(g2
g3
NtRp192
(dp193
g48
Nsg44
V10 INT C AR RES JUL
p194
sg46
Nsg73
(lp195
(VHUIJSER
VJ C
tp196
asg52
I1999
sg42
Nsbag1
(g2
g3
NtRp197
(dp198
g48
Nsg44
VPlant hormones and their role in plant growth and development
p199
sg46
Nsg73
(lp200
(VJACOBSEN
VJ V
tp201
asg52
I1987
sg42
Vlant
p202
sbag1
(g2
g3
NtRp203
(dp204
g48
Nsg44
VP246
p205
sg46
Nsg73
(lp206
(VJACOBSEN
VJOHN V
tp207
asg52
I1995
sg42
V246
p208
sbag1
(g2
g3
NtRp209
(dp210
g48
V10.1105/tpc.9.1.5
p211
sg44
VPLANT CELL
p212
sg46
V9
sg73
(lp213
(VJANG
VJ C
tp214
asg52
I1997
sg42
VLANT
p215
sbag1
(g2
g3
NtRp216
(dp217
g48
V10.1016/S1360-1385(97)01043-1
p218
sg44
VTRENDS PLANT SCI
p219
sg46
V2
sg73
(lp220
(VJANG
VJ C
tp221
asg52
I1997
sg42
V208
p222
sbag1
(g2
g3
NtRp223
(dp224
g48
Nsg44
VPLANT GROWTH SUBSTAN
p225
sg46
Nsg73
(lp226
(VKARSSEN
VC M
tp227
asg52
I1985
sg42
VLANT
p228
sbag1
(g2
g3
NtRp229
(dp230
g48
V10.1146/annurev.arplant.47.1.509
p231
sg44
VANNU REV PLANT PHYS
p232
sg46
V47
p233
sg73
(lp234
(VKOCH
VK E
tp235
asg52
I1996
sg42
V509
p236
sbag1
(g2
g3
NtRp237
(dp238
g48
Nsg44
VARABIDOPSIS
p239
sg46
Nsg73
(lp240
(VKOORNNEEF
VM
tp241
asg52
I1994
sg42
V313
p242
sbag1
(g2
g3
NtRp243
(dp244
g48
V10.1111/j.1399-3054.1984.tb06343.x
p245
sg44
VPHYSIOL PLANTARUM
p246
sg46
V61
p247
sg73
(lp248
(VKOORNNEEF
VM
tp249
asg52
I1984
sg42
VHYSIOL
p250
sbag1
(g2
g3
NtRp251
(dp252
g48
V10.1046/j.1365-313X.1994.6050665.x
p253
sg44
VPLANT J
p254
sg46
V6
sg73
(lp255
(VKRAEPIEL
VY
tp256
asg52
I1994
sg42
VLANT
p257
sbag1
(g2
g3
NtRp258
(dp259
g48
V10.1146/annurev.arplant.49.1.199
p260
sg44
VANNU REV PLANT PHYS
p261
sg46
V49
p262
sg73
(lp263
(VLEUNG
VJ
tp264
asg52
I1998
sg42
V199
p265
sbag1
(g2
g3
NtRp266
(dp267
g48
V10.1093/jxb/28.1.219
p268
sg44
VJ EXP BOT
p269
sg46
V28
p270
sg73
(lp271
(VMARRIOTT
VK M
tp272
asg52
I1977
sg42
V219
p273
sbag1
(g2
g3
NtRp274
(dp275
g48
V10.1046/j.1365-313X.1997.11040841.x
p276
sg44
VPLANT J
p277
sg46
V11
p278
sg73
(lp279
(VMITA
VS
tp280
asg52
I1997
sg42
VLANT
p281
sbag1
(g2
g3
NtRp282
(dp283
g48
V10.1016/S1360-1385(99)01433-8
p284
sg44
VTRENDS PLANT SCI
p285
sg46
V4
sg73
(lp286
(VMOORE
VB D
tp287
asg52
I1999
sg42
V250
p288
sbag1
(g2
g3
NtRp289
(dp290
g48
V10.1007/BF00387687
p291
sg44
VPLANTA
p292
sg46
V101
p293
sg73
(lp294
(VNABORS
VM W
tp295
asg52
I1971
sg42
VLANTA
p296
sbag1
(g2
g3
NtRp297
(dp298
g48
Nsg44
VPLANT CELL
p299
sg46
V6
sg73
(lp300
(VPARCY
VF
tp301
asg52
I1994
sg42
VLANT
p302
sbag1
(g2
g3
NtRp303
(dp304
g48
V10.1104/pp.119.3.1017
p305
sg44
VPLANT PHYSIOL
p306
sg46
V119
p307
sg73
(lp308
(VPEGO
VJ V
tp309
asg52
I1999
sg42
VLANT
p310
sbag1
(g2
g3
NtRp311
(dp312
g48
V10.1104/pp.108.1.285
p313
sg44
VPLANT PHYSIOL
p314
sg46
V108
p315
sg73
(lp316
(VROITSCH
VT
tp317
asg52
I1995
sg42
VLANT
p318
sbag1
(g2
g3
NtRp319
(dp320
g48
Nsg44
VMOL CLONING LABORATO
p321
sg46
V7
sg73
(lp322
(VSAMBROOK
VJ
tp323
asg52
I1989
sg42
V43
p324
sbag1
(g2
g3
NtRp325
(dp326
g48
Nsg44
VPLANT PHYSIOL
p327
sg46
V115
p328
sg73
(lp329
(VSMEEKENS
VS
tp330
asg52
I1997
sg42
VLANT
p331
sbag1
(g2
g3
NtRp332
(dp333
g48
Nsg44
VGENETICS
p334
sg46
V149
p335
sg73
(lp336
(VSTEBER
VC M
tp337
asg52
I1998
sg42
V509
p338
sbag1
(g2
g3
NtRp339
(dp340
g48
Nsg44
VPLANT CELL
p341
sg46
V11
p342
sg73
(lp343
(VTANG
VG Q
tp344
asg52
I1999
sg42
VLANT
p345
sbag1
(g2
g3
NtRp346
(dp347
g48
Nsg44
VPLANT CELL PHYSIOL
p348
sg46
V35
p349
sg73
(lp350
(VTOYOMASU
VT
tp351
asg52
I1994
sg42
VLANT
p352
sbag1
(g2
g3
NtRp353
(dp354
g48
V10.1104/pp.118.4.1517
p355
sg44
VPLANT PHYSIOL
p356
sg46
V118
p357
sg73
(lp358
(VTOYOMASU
VT
tp359
asg52
I1998
sg42
VLANT
p360
sbag1
(g2
g3
NtRp361
(dp362
g48
V10.1073/pnas.85.15.5536
p363
sg44
VP NATL ACAD SCI USA
p364
sg46
V85
p365
sg73
(lp366
(VVALVEKENS
VD
tp367
asg52
I1988
sg42
V5536
p368
sbag1
(g2
g3
NtRp369
(dp370
g48
V10.1034/j.1399-3054.1995.930412.x
p371
sg44
VPHYSIOL PLANTARUM
p372
sg46
V93
p373
sg73
(lp374
(VWERNER
VJ E
tp375
asg52
I1995
sg42
VHYSIOL
p376
sbag1
(g2
g3
NtRp377
(dp378
g48
Nsg44
VPLANT CELL PHYSIOL
p379
sg46
V36
p380
sg73
(lp381
(VYANG
VY Y
tp382
asg52
I1995
sg42
VLANT
p383
sbag1
(g2
g3
NtRp384
(dp385
g48
Nsg44
V7 INT C AR JUN 1996
p386
sg46
Nsg73
(lp387
(VZHOU
VL
tp388
asg52
I1996
sg42
Nsbag1
(g2
g3
NtRp389
(dp390
g48
V10.1073/pnas.95.17.10294
p391
sg44
VP NATL ACAD SCI USA
p392
sg46
V95
p393
sg73
(lp394
(VZHOU
VL
tp395
asg52
I1998
sg42
V10294
p396
sbasb.