ccopy_reg
_reconstructor
p1
(ctethne.classes.paper
Paper
p2
c__builtin__
object
p3
NtRp4
(dp5
S'publisherCity'
p6
VROCKVILLE
p7
sS'reprintAddress'
p8
VRozwadowski, K (reprint author), Agr & Agri Food Canada, Saskatoon Res Ctr, Saskatoon, SK S7N 0X2, Canada.
p9
sS'WC'
p10
VPlant Sciences
p11
sS'GA'
p12
V578XG
p13
sS'FX'
p14
(lp15
VThis work was supported by Agriculture and Agri-Food Canada (grant to K.
p16
aVR.).
p17
asS'abstract'
p18
VThe ethylene-responsive element binding factor-associated amphiphilic repression (EAR) motif is a transcriptional regulatory motif identified in members of the ethylene-responsive element binding factor, C2H2, and auxin/indole-3-acetic acid families of transcriptional regulators. Sequence comparison of the core EAR motif sites from these proteins revealed two distinct conservation patterns: LxLxL and DLNxxP. Proteins containing these motifs play key roles in diverse biological functions by negatively regulating genes involved in developmental, hormonal, and stress signaling pathways. Through a genome-wide bioinformatics analysis, we have identified the complete repertoire of the EAR repressome in Arabidopsis (Arabidopsis thaliana) comprising 219 proteins belonging to 21 different transcriptional regulator families. Approximately 72% of these proteins contain a LxLxL type of EAR motif, 22% contain a DLNxxP type of EAR motif, and the remaining 6% have a motif where LxLxL and DLNxxP are overlapping. Published in vitro and in planta investigations support approximately 40% of these proteins functioning as negative regulators of gene expression. Comparative sequence analysis of EAR motif sites and adjoining regions has identified additional preferred residues and potential posttranslational modification sites that may influence the functionality of the EAR motif. Homology searches against protein databases of poplar (Populus trichocarpa), grapevine (Vitis vinifera), rice (Oryza sativa), and sorghum (Sorghum bicolor) revealed that the EAR motif is conserved across these diverse plant species. This genome-wide analysis represents the most extensive survey of EAR motif-containing proteins in Arabidopsis to date and provides a resource enabling investigations into their biological roles and the mechanism of EAR motif-mediated transcriptional regulation.
p19
sS'pageEnd'
p20
I1134
sS'date'
p21
I2010
sS'documentType'
p22
VArticle
p23
sS'subject'
p24
VPlant Sciences
p25
sS'isoSource'
p26
VPlant Physiol.
p27
sS'timesCited'
p28
(lp29
I46
aVZ9 48
p30
asS'funding'
p31
(lp32
(VAgriculture and Agri-Food Canada
Ntp33
asS'PT'
p34
VJ
sS'title'
p35
VGenome-Wide Analysis Of Ethylene-Responsive Element Binding Factor-Associated Amphiphilic Repression Motif-Containing Transcriptional Regulators In Arabidopsis
p36
sS'ISSN'
p37
(lp38
V0032-0889
p39
aVJ9 PLANT PHYSIOL
p40
asS'authors_full'
p41
(lp42
(VKAGALE
VSATEESH
tp43
a(VLINKS
VMATTHEW G
tp44
a(VROZWADOWSKI
VKEVIN
tp45
asS'PG'
p46
I26
sS'PD'
p47
VMAR
p48
sS'pageStart'
p49
I1109
sS'issue'
p50
I3
sS'RI'
p51
VLinks, Matthew/K-6624-2012
p52
sS'journal'
p53
VPLANT PHYSIOLOGY
p54
sS'volume'
p55
V152
p56
sS'doi'
p57
V10.1104/pp.109.151704
p58
sS'emailAddress'
p59
Vkevin.rozwadowski@agr.gc.ca
p60
sS'authorAddress'
p61
V[Kagale, Sateesh; Links, Matthew G.; Rozwadowski, Kevin] Agr & Agri Food Canada, Saskatoon Res Ctr, Saskatoon, SK S7N 0X2, Canada.
p62
sS'publisherAddress'
p63
V15501 MONONA DRIVE, ROCKVILLE, MD 20855 USA
p64
sS'ER'
p65
V
sS'publisher'
p66
VAMER SOC PLANT BIOLOGISTS
p67
sS'authorKeywords'
p68
(lp69
VZINC-FINGER PROTEIN
p70
aVMODEL DATA-ANALYSIS
p71
aVGENE-EXPRESSION
p72
aVFLOWER DEVELOPMENT
p73
aVNEGATIVE REGULATION
p74
aVAUX/IAA PROTEINS
p75
aVEAR-MOTIF
p76
aVACTIVE REPRESSION
p77
aVSTRESS RESPONSES
p78
aVSALINITY STRESS
p79
asS'language'
p80
VEnglish
p81
sS'wosid'
p82
VWOS:000276329500001
p83
sS'citationCount'
p84
I114
sS'authors_init'
p85
(lp86
(VKAGALE
VS
tp87
a(VLINKS
VM G
tp88
a(VROZWADOWSKI
VK
tp89
asS'citedReferences'
p90
(lp91
g1
(g2
g3
NtRp92
(dp93
g57
V10.1111/j.1365-313X.2007.03105.x
p94
sg53
VPLANT J
p95
sg55
V50
p96
sg85
(lp97
(VADAMCZYK
VB J
tp98
asg21
I2007
sg49
VLANT
p99
sbag1
(g2
g3
NtRp100
(dp101
g57
V10.1016/j.tplants.2007.08.003
p102
sg53
VTRENDS PLANT SCI
p103
sg55
V12
p104
sg85
(lp105
(VARIEL
VF D
tp106
asg21
I2007
sg49
V419
p107
sbag1
(g2
g3
NtRp108
(dp109
g57
Nsg53
VProc Int Conf Intell Syst Mol Biol
p110
sg55
V3
sg85
(lp111
(VBAILEY
VT L
tp112
asg21
I1995
sg49
Vroc
p113
sbag1
(g2
g3
NtRp114
(dp115
g57
V10.1074/jbc.M609545200
p116
sg53
VJ BIOL CHEM
p117
sg55
V282
p118
sg85
(lp119
(VBANIWAL
VS K
tp120
asg21
I2007
sg49
V3605
p121
sbag1
(g2
g3
NtRp122
(dp123
g57
V10.1105/tpc.021147
p124
sg53
VPLANT CELL
p125
sg55
V16
p126
sg85
(lp127
(VBAO
VX Z
tp128
asg21
I2004
sg49
VLANT
p129
sbag1
(g2
g3
NtRp130
(dp131
g57
Nsg53
VPLANT CELL
p132
sg55
V3
sg85
(lp133
(VBOWMAN
VJ L
tp134
asg21
I1991
sg49
VLANT
p135
sbag1
(g2
g3
NtRp136
(dp137
g57
Nsg53
VDEVELOPMENT
p138
sg55
V129
p139
sg85
(lp140
(VBYRNE
VM E
tp141
asg21
I2002
sg49
V1957
p142
sbag1
(g2
g3
NtRp143
(dp144
g57
V10.1105/tpc.108.065193
p145
sg53
VPLANT CELL
p146
sg55
V21
p147
sg85
(lp148
(VCHEN
VH M
tp149
asg21
I2009
sg49
VLANT
p150
sbag1
(g2
g3
NtRp151
(dp152
g57
V10.1016/j.pbi.2008.06.003
p153
sg53
VCURR OPIN PLANT BIOL
p154
sg55
V11
p155
sg85
(lp156
(VCHICO
VJ M
tp157
asg21
I2008
sg49
V486
p158
sbag1
(g2
g3
NtRp159
(dp160
g57
V10.1038/nature06006
p161
sg53
VNATURE
p162
sg55
V448
p163
sg85
(lp164
(VCHINI
VA
tp165
asg21
I2007
sg49
V666
p166
sbag1
(g2
g3
NtRp167
(dp168
g57
V10.1007/s00018-007-7473-4
p169
sg53
VCELL MOL LIFE SCI
p170
sg55
V65
p171
sg85
(lp172
(VCIFTCI-YILMAZ
VS
tp173
asg21
I2008
sg49
V1150
p174
sbag1
(g2
g3
NtRp175
(dp176
g57
V10.1074/jbc.M611093200
p177
sg53
VJ BIOL CHEM
p178
sg55
V282
p179
sg85
(lp180
(VCIFTCI-YILMAZ
VS
tp181
asg21
I2007
sg49
V9260
p182
sbag1
(g2
g3
NtRp183
(dp184
g57
V10.1038/nmeth1109-786
p185
sg53
VNAT METHODS
p186
sg55
V6
sg85
(lp187
(VCOLAERT
VN
tp188
asg21
I2009
sg49
V786
p189
sbag1
(g2
g3
NtRp190
(dp191
g57
V10.1101/gr.849004
p192
sg53
VGENOME RES
p193
sg55
V14
p194
sg85
(lp195
(VCROOKS
VG E
tp196
asg21
I2004
sg49
V1188
p197
sbag1
(g2
g3
NtRp198
(dp199
g57
V10.1104/pp.105.068254
p200
sg53
VPLANT PHYSIOL
p201
sg55
V139
p202
sg85
(lp203
(VDAVLETOVA
VS
tp204
asg21
I2005
sg49
VLANT
p205
sbag1
(g2
g3
NtRp206
(dp207
g57
V10.1093/nar/gkh653
p208
sg53
VNUCLEIC ACIDS RES
p209
sg55
V32
p210
sg85
(lp211
(VDEPPMANN
VC D
tp212
asg21
I2004
sg49
V3435
p213
sbag1
(g2
g3
NtRp214
(dp215
g57
V10.1105/tpc.012849
p216
sg53
VPLANT CELL
p217
sg55
V15
p218
sg85
(lp219
(VDESPRES
VC
tp220
asg21
I2003
sg49
VLANT
p221
sbag1
(g2
g3
NtRp222
(dp223
g57
V10.1104/pp.107.101691
p224
sg53
VPLANT PHYSIOL
p225
sg55
V145
p226
sg85
(lp227
(VDEVAIAH
VB N
tp228
asg21
I2007
sg49
VLANT
p229
sbag1
(g2
g3
NtRp230
(dp231
g57
V10.1242/dev.02335
p232
sg53
VDEVELOPMENT
p233
sg55
V133
p234
sg85
(lp235
(VDINNENY
VJ R
tp236
asg21
I2006
sg49
V1645
p237
sbag1
(g2
g3
NtRp238
(dp239
g57
V10.1016/0092-8674(91)90551-9
p240
sg53
VCELL
p241
sg55
V65
p242
sg85
(lp243
(VDREWS
VG N
tp244
asg21
I1991
sg49
V991
p245
sbag1
(g2
g3
NtRp246
(dp247
g57
V10.1093/bioinformatics/14.9.755
p248
sg53
VBIOINFORMATICS
p249
sg55
V14
p250
sg85
(lp251
(VEDDY
VS R
tp252
asg21
I1998
sg49
V755
p253
sbag1
(g2
g3
NtRp254
(dp255
g57
V10.1101/gr.67902
p256
sg53
VGENOME RES
p257
sg55
V12
p258
sg85
(lp259
(VFASSLER
VJ
tp260
asg21
I2002
sg49
V1190
p261
sbag1
(g2
g3
NtRp262
(dp263
g57
V10.1105/tpc.12.3.393
p264
sg53
VPLANT CELL
p265
sg55
V12
p266
sg85
(lp267
(VFUJIMOTO
VS Y
tp268
asg21
I2000
sg49
VLANT
p269
sbag1
(g2
g3
NtRp270
(dp271
g57
V10.1093/pcp/pcg092
p272
sg53
VPLANT CELL PHYSIOL
p273
sg55
V44
p274
sg85
(lp275
(VFUJITA
VH
tp276
asg21
I2003
sg49
VLANT
p277
sbag1
(g2
g3
NtRp278
(dp279
g57
V10.1242/dev.005017
p280
sg53
VDEVELOPMENT
p281
sg55
V134
p282
sg85
(lp283
(VGAN
VY B
tp284
asg21
I2007
sg49
V2073
p285
sbag1
(g2
g3
NtRp286
(dp287
g57
V10.1105/tpc.106/041533
p288
sg53
VPLANT CELL
p289
sg55
V18
p290
sg85
(lp291
(VGAN
VY B
tp292
asg21
I2006
sg49
VLANT
p293
sbag1
(g2
g3
NtRp294
(dp295
g57
V10.1111/j.0960-7412.2008.03510.x
p296
sg53
VPLANT J
p297
sg55
V55
p298
sg85
(lp299
(VGODA
VH
tp300
asg21
I2008
sg49
VLANT
p301
sbag1
(g2
g3
NtRp302
(dp303
g57
V10.1128/MCB.01912-06
p304
sg53
VMOL CELL BIOL
p305
sg55
V27
p306
sg85
(lp307
(VGONZALEZ
VD
tp308
asg21
I2007
sg49
V5306
p309
sbag1
(g2
g3
NtRp310
(dp311
g57
V10.1105/tpc.106.041798
p312
sg53
VPLANT CELL
p313
sg55
V18
p314
sg85
(lp315
(VGREGIS
VV
tp316
asg21
I2006
sg49
VLANT
p317
sbag1
(g2
g3
NtRp318
(dp319
g57
V10.1186/1471-2105-4-25
p320
sg53
VBMC BIOINFORMATICS
p321
sg55
V4
sg85
(lp322
(VDAVULURI
VR V
tp323
asg21
I2003
sg49
Nsbag1
(g2
g3
NtRp324
(dp325
g57
V10.1104/pp.118.2.341
p326
sg53
VPLANT PHYSIOL
p327
sg55
V118
p328
sg85
(lp329
(VGUILFOYLE
VT
tp330
asg21
I1998
sg49
VLANT
p331
sbag1
(g2
g3
NtRp332
(dp333
g57
Nsg53
VEMBO J
p334
sg55
V12
p335
sg85
(lp336
(VHAN
VK Y
tp337
asg21
I1993
sg49
V2723
p338
sbag1
(g2
g3
NtRp339
(dp340
g57
V10.1016/0168-9525(96)10022-6
p341
sg53
VTRENDS GENET
p342
sg55
V12
p343
sg85
(lp344
(VHANNAROSE
VW
tp345
asg21
I1996
sg49
V229
p346
sbag1
(g2
g3
NtRp347
(dp348
g57
V10.1126/science.1107580
p349
sg53
VSCIENCE
p350
sg55
V307
p351
sg85
(lp352
(VHE
VJ X
tp353
asg21
I2005
sg49
V1634
p354
sbag1
(g2
g3
NtRp355
(dp356
g57
V10.1093/nar/gkm812
p357
sg53
VNUCLEIC ACIDS RES
p358
sg55
V36
p359
sg85
(lp360
(VHEAZLEWOOD
VJ L
tp361
asg21
I2008
sg49
VD1015
p362
sbag1
(g2
g3
NtRp363
(dp364
g57
V10.1111/j.1365-313X.2007.03336.x
p365
sg53
VPLANT J
p366
sg55
V53
p367
sg85
(lp368
(VHILL
VK
tp369
asg21
I2008
sg49
VLANT
p370
sbag1
(g2
g3
NtRp371
(dp372
g57
V10.1016/j.bbrc.2004.06.115
p373
sg53
VBIOCHEM BIOPH RES CO
p374
sg55
V321
p375
sg85
(lp376
(VHIRATSU
VK
tp377
asg21
I2004
sg49
V172
p378
sbag1
(g2
g3
NtRp379
(dp380
g57
V10.1016/S0014-5793(02)02435-3
p381
sg53
VFEBS LETT
p382
sg55
V514
p383
sg85
(lp384
(VHIRATSU
VK
tp385
asg21
I2002
sg49
V351
p386
sbag1
(g2
g3
NtRp387
(dp388
g57
V10.1046/j.1365-313X.2003.01759.x
p389
sg53
VPLANT J
p390
sg55
V34
p391
sg85
(lp392
(VHIRATSU
VK
tp393
asg21
I2003
sg49
VLANT
p394
sbag1
(g2
g3
NtRp395
(dp396
g57
V10.1093/pcp/pcp048
p397
sg53
VPLANT CELL PHYSIOL
p398
sg55
V50
p399
sg85
(lp400
(VIKEDA
VM
tp401
asg21
I2009
sg49
VLANT
p402
sbag1
(g2
g3
NtRp403
(dp404
g57
V10.1093/pcp/pcf077
p405
sg53
VPLANT CELL PHYSIOL
p406
sg55
V43
p407
sg85
(lp408
(VIWAKAWA
VH
tp409
asg21
I2002
sg49
VLANT
p410
sbag1
(g2
g3
NtRp411
(dp412
g57
V10.1016/S1360-1385(01)02223-3
p413
sg53
VTRENDS PLANT SCI
p414
sg55
V7
sg85
(lp415
(VJAKOBY
VM
tp416
asg21
I2002
sg49
V106
p417
sbag1
(g2
g3
NtRp418
(dp419
g57
V10.1007/s00438-007-0306-1
p420
sg53
VMOL GENET GENOMICS
p421
sg55
V279
p422
sg85
(lp423
(VJIANG
VC J
tp424
asg21
I2008
sg49
V183
p425
sbag1
(g2
g3
NtRp426
(dp427
g57
V10.1093/emboj/19.22.6150
p428
sg53
VEMBO J
p429
sg55
V19
p430
sg85
(lp431
(VJIN
VH L
tp432
asg21
I2000
sg49
V6150
p433
sbag1
(g2
g3
NtRp434
(dp435
g57
V10.1023/A:1006319732410
p436
sg53
VPLANT MOL BIOL
p437
sg55
V41
p438
sg85
(lp439
(VJIN
VH L
tp440
asg21
I1999
sg49
VLANT
p441
sbag1
(g2
g3
NtRp442
(dp443
g57
V10.1016/j.pbi.2008.05.004
p444
sg53
VCURR OPIN PLANT BIOL
p445
sg55
V11
p446
sg85
(lp447
(VKATSIR
VL
tp448
asg21
I2008
sg49
V428
p449
sbag1
(g2
g3
NtRp450
(dp451
g57
V10.1016/j.tplants.2006.01.004
p452
sg53
VTRENDS PLANT SCI
p453
sg55
V11
p454
sg85
(lp455
(VKAZAN
VK
tp456
asg21
I2006
sg49
V109
p457
sbag1
(g2
g3
NtRp458
(dp459
g57
V10.1105/tpc.105.039107
p460
sg53
VPLANT CELL
p461
sg55
V18
p462
sg85
(lp463
(VKIEFFER
VM
tp464
asg21
I2006
sg49
VLANT
p465
sbag1
(g2
g3
NtRp466
(dp467
g57
V10.1111/j.1365-313X.2007.03052.x
p468
sg53
VPLANT J
p469
sg55
V50
p470
sg85
(lp471
(VKILIAN
VJ
tp472
asg21
I2007
sg49
VLANT
p473
sbag1
(g2
g3
NtRp474
(dp475
g57
V10.1046/j.1365-313x.1998.00278.x
p476
sg53
VPLANT J
p477
sg55
V16
p478
sg85
(lp479
(VKRANZ
VH D
tp480
asg21
I1998
sg49
VLANT
p481
sbag1
(g2
g3
NtRp482
(dp483
g57
V10.1111/j.1365-313X.2005.02633.x
p484
sg53
VPLANT J
p485
sg55
V45
p486
sg85
(lp487
(VKRIZEK
VB A
tp488
asg21
I2006
sg49
VLANT
p489
sbag1
(g2
g3
NtRp490
(dp491
g57
V10.1105/tpc.106.048769
p492
sg53
VPLANT CELL
p493
sg55
V19
p494
sg85
(lp495
(VKUMAR
VR
tp496
asg21
I2007
sg49
VLANT
p497
sbag1
(g2
g3
NtRp498
(dp499
g57
V10.1105/tpc.108.060160
p500
sg53
VPLANT CELL
p501
sg55
V20
p502
sg85
(lp503
(VKUNIEDA
VT
tp504
asg21
I2008
sg49
VLANT
p505
sbag1
(g2
g3
NtRp506
(dp507
g57
V10.1104/pp.103.022574
p508
sg53
VPLANT PHYSIOL
p509
sg55
V132
p510
sg85
(lp511
(VLEE
VJ H
tp512
asg21
I2003
sg49
VLANT
p513
sbag1
(g2
g3
NtRp514
(dp515
g57
V10.1038/nature04270
p516
sg53
VNATURE
p517
sg55
V438
p518
sg85
(lp519
(VLEIBFRIED
VA
tp520
asg21
I2005
sg49
V1172
p521
sbag1
(g2
g3
NtRp522
(dp523
g57
V10.1101/gr.1224503
p524
sg53
VGENOME RES
p525
sg55
V13
p526
sg85
(lp527
(VLI
VL
tp528
asg21
I2003
sg49
V2178
p529
sbag1
(g2
g3
NtRp530
(dp531
g57
Nsg53
VMOL CELL BIOL
p532
sg55
V14
p533
sg85
(lp534
(VLICHT
VJ D
tp535
asg21
I1994
sg49
V4057
p536
sbag1
(g2
g3
NtRp537
(dp538
g57
V10.1105/tpc.014969
p539
sg53
VPLANT CELL
p540
sg55
V15
p541
sg85
(lp542
(VLIN
VW C
tp543
asg21
I2003
sg49
VLANT
p544
sbag1
(g2
g3
NtRp545
(dp546
g57
V10.1023/A:1015255030047
p547
sg53
VPLANT MOL BIOL
p548
sg55
V49
p549
sg85
(lp550
(VLISCUM
VE
tp551
asg21
I2002
sg49
VLANT
p552
sbag1
(g2
g3
NtRp553
(dp554
g57
V10.1126/science.1123841
p555
sg53
VSCIENCE
p556
sg55
V312
p557
sg85
(lp558
(VLONG
VJ A
tp559
asg21
I2006
sg49
V1520
p560
sbag1
(g2
g3
NtRp561
(dp562
g57
V10.1111/j.1365-313X.2008.03565.x
p563
sg53
VPLANT J
p564
sg55
V55
p565
sg85
(lp566
(VMATSUI
VK
tp567
asg21
I2008
sg49
VLANT
p568
sbag1
(g2
g3
NtRp569
(dp570
g57
V10.1104/pp.105.068544
p571
sg53
VPLANT PHYSIOL
p572
sg55
V139
p573
sg85
(lp574
(VMCGRATH
VK C
tp575
asg21
I2005
sg49
VLANT
p576
sbag1
(g2
g3
NtRp577
(dp578
g57
V10.1104/pp.104.052811
p579
sg53
VPLANT PHYSIOL
p580
sg55
V137
p581
sg85
(lp582
(VMICHAELS
VS D
tp583
asg21
I2005
sg49
VLANT
p584
sbag1
(g2
g3
NtRp585
(dp586
g57
V10.1016/j.febslet.2006.11.002
p587
sg53
VFEBS LETT
p588
sg55
V580
p589
sg85
(lp590
(VMITTLER
VR
tp591
asg21
I2006
sg49
V6537
p592
sbag1
(g2
g3
NtRp593
(dp594
g57
V10.1093/molbev/msg152
p595
sg53
VMOL BIOL EVOL
p596
sg55
V20
p597
sg85
(lp598
(VNAM
VJ
tp599
asg21
I2003
sg49
V1435
p600
sbag1
(g2
g3
NtRp601
(dp602
g57
V10.1379/1466-1268(2001)006<0177:AATHST>2.0.CO;2
p603
sg53
VCELL STRESS CHAPERON
p604
sg55
V6
sg85
(lp605
(VNOVER
VL
tp606
asg21
I2001
sg49
V177
p607
sbag1
(g2
g3
NtRp608
(dp609
g57
V10.1046/j.1365-313x.2001.00966.x
p610
sg53
VPLANT J
p611
sg55
V25
p612
sg85
(lp613
(VOHGISHI
VM
tp614
asg21
I2001
sg49
VLANT
p615
sbag1
(g2
g3
NtRp616
(dp617
g57
V10.1242/dev.00991
p618
sg53
VDEVELOPMENT
p619
sg55
V131
p620
sg85
(lp621
(VOHNO
VC K
tp622
asg21
I2004
sg49
V1111
p623
sbag1
(g2
g3
NtRp624
(dp625
g57
V10.1105/tpc.13.8.1959
p626
sg53
VPLANT CELL
p627
sg55
V13
p628
sg85
(lp629
(VOHTA
VM
tp630
asg21
I2001
sg49
VLANT
p631
sbag1
(g2
g3
NtRp632
(dp633
g57
V10.1186/1471-2148-9-126
p634
sg53
VBMC EVOL BIOL
p635
sg55
V9
sg85
(lp636
(VPAPONOV
VI A
tp637
asg21
I2009
sg49
Nsbag1
(g2
g3
NtRp638
(dp639
g57
V10.1242/dev.01216
p640
sg53
VDEVELOPMENT
p641
sg55
V131
p642
sg85
(lp643
(VPAYNE
VT
tp644
asg21
I2004
sg49
V3737
p645
sbag1
(g2
g3
NtRp646
(dp647
g57
V10.1016/S0092-8674(00)80211-1
p648
sg53
VCELL
p649
sg55
V89
p650
sg85
(lp651
(VPAZIN
VM J
tp652
asg21
I1997
sg49
V325
p653
sbag1
(g2
g3
NtRp654
(dp655
g57
V10.1046/j.1365-313X.2001.2641042.x
p656
sg53
VPLANT J
p657
sg55
V26
p658
sg85
(lp659
(VPELAZ
VS
tp660
asg21
I2001
sg49
VLANT
p661
sbag1
(g2
g3
NtRp662
(dp663
g57
V10.1111/j.1365-313X.2004.02280.x
p664
sg53
VPLANT J
p665
sg55
V40
p666
sg85
(lp667
(VPRESTON
VJ
tp668
asg21
I2004
sg49
VLANT
p669
sbag1
(g2
g3
NtRp670
(dp671
g57
V10.1126/science.290.5499.2105
p672
sg53
VSCIENCE
p673
sg55
V290
p674
sg85
(lp675
(VRIECHMANN
VJ L
tp676
asg21
I2000
sg49
V2105
p677
sbag1
(g2
g3
NtRp678
(dp679
g57
V10.1074/jbc.M313350200
p680
sg53
VJ BIOL CHEM
p681
sg55
V279
p682
sg85
(lp683
(VRIZHSKY
VL
tp684
asg21
I2004
sg49
V11736
p685
sbag1
(g2
g3
NtRp686
(dp687
g57
V10.1038/378199a0
p688
sg53
VNATURE
p689
sg55
V378
p690
sg85
(lp691
(VSAKAI
VH
tp692
asg21
I1995
sg49
V199
p693
sbag1
(g2
g3
NtRp694
(dp695
g57
V10.1104/pp.104.046599
p696
sg53
VPLANT PHYSIOL
p697
sg55
V136
p698
sg85
(lp699
(VSAKAMOTO
VH
tp700
asg21
I2004
sg49
VLANT
p701
sbag1
(g2
g3
NtRp702
(dp703
g57
V10.1046/j.1365-313X.2002.01488.x
p704
sg53
VPLANT J
p705
sg55
V32
p706
sg85
(lp707
(VSAWA
VS
tp708
asg21
I2002
sg49
VLANT
p709
sbag1
(g2
g3
NtRp710
(dp711
g57
V10.1038/ng1543
p712
sg53
VNAT GENET
p713
sg55
V37
p714
sg85
(lp715
(VSCHMID
VM
tp716
asg21
I2005
sg49
V501
p717
sbag1
(g2
g3
NtRp718
(dp719
g57
Nsg53
VDEVELOPMENT
p720
sg55
V128
p721
sg85
(lp722
(VSEMIARTI
VE
tp723
asg21
I2001
sg49
V1771
p724
sbag1
(g2
g3
NtRp725
(dp726
g57
Nsg53
VJ BIOCHEM MOL BIOL
p727
sg55
V37
p728
sg85
(lp729
(VSEO
VJ
tp730
asg21
I2004
sg49
V35
p731
sbag1
(g2
g3
NtRp732
(dp733
g57
V10.5511/plantbiotechnology.25.31
p734
sg53
VPLANT BIOTECHNOL
p735
sg55
V25
p736
sg85
(lp737
(VSHIKATA
VM
tp738
asg21
I2008
sg49
VLANT
p739
sbag1
(g2
g3
NtRp740
(dp741
g57
V10.1105/tpc.105.033043
p742
sg53
VPLANT CELL
p743
sg55
V17
p744
sg85
(lp745
(VSONG
VC P
tp746
asg21
I2005
sg49
VLANT
p747
sbag1
(g2
g3
NtRp748
(dp749
g57
V10.1242/dev.02562
p750
sg53
VDEVELOPMENT
p751
sg55
V133
p752
sg85
(lp753
(VSRIDHAR
VV V
tp754
asg21
I2006
sg49
V3159
p755
sbag1
(g2
g3
NtRp756
(dp757
g57
V10.1073/pnas.0403055101
p758
sg53
VP NATL ACAD SCI USA
p759
sg55
V101
p760
sg85
(lp761
(VSRIDHAR
VV V
tp762
asg21
I2004
sg49
V11494
p763
sbag1
(g2
g3
NtRp764
(dp765
g57
Nsg53
VDEVELOPMENT
p766
sg55
V126
p767
sg85
(lp768
(VSTEINDLER
VC
tp769
asg21
I1999
sg49
V4235
p770
sbag1
(g2
g3
NtRp771
(dp772
g57
V10.1104/pp.106.092320
p773
sg53
VPLANT PHYSIOL
p774
sg55
V143
p775
sg85
(lp776
(VSUZUKI
VM
tp777
asg21
I2007
sg49
VLANT
p778
sbag1
(g2
g3
NtRp779
(dp780
g57
V10.1126/science.1151461
p781
sg53
VSCIENCE
p782
sg55
V319
p783
sg85
(lp784
(VSZEMENYEI
VH
tp785
asg21
I2008
sg49
V1384
p786
sbag1
(g2
g3
NtRp787
(dp788
g57
V10.1111/j.1432-1033.2004.04174.x
p789
sg53
VEUR J BIOCHEM
p790
sg55
V271
p791
sg85
(lp792
(VTHIEL
VG
tp793
asg21
I2004
sg49
V2855
p794
sbag1
(g2
g3
NtRp795
(dp796
g57
V10.1093/nar/22.22.4673
p797
sg53
VNUCLEIC ACIDS RES
p798
sg55
V22
p799
sg85
(lp800
(VTHOMPSON
VJ D
tp801
asg21
I1994
sg49
V4673
p802
sbag1
(g2
g3
NtRp803
(dp804
g57
V10.1105/tpc.13.12.2809
p805
sg53
VPLANT CELL
p806
sg55
V13
p807
sg85
(lp808
(VTIWARI
VS B
tp809
asg21
I2001
sg49
VLANT
p810
sbag1
(g2
g3
NtRp811
(dp812
g57
V10.1105/tpc.017384
p813
sg53
VPLANT CELL
p814
sg55
V16
p815
sg85
(lp816
(VTIWARI
VS B
tp817
asg21
I2004
sg49
VLANT
p818
sbag1
(g2
g3
NtRp819
(dp820
g57
V10.1111/j.1365-313X.2005.02437.x
p821
sg53
VPLANT J
p822
sg55
V43
p823
sg85
(lp824
(VTOUFIGHI
VK
tp825
asg21
I2005
sg49
VLANT
p826
sbag1
(g2
g3
NtRp827
(dp828
g57
V10.1073/pnas.0607940104
p829
sg53
VP NATL ACAD SCI USA
p830
sg55
V104
p831
sg85
(lp832
(VTSUKAGOSHI
VH
tp833
asg21
I2007
sg49
V2543
p834
sbag1
(g2
g3
NtRp835
(dp836
g57
V10.1104/pp.104.057752
p837
sg53
VPLANT PHYSIOL
p838
sg55
V138
p839
sg85
(lp840
(VTSUKAGOSHI
VH
tp841
asg21
I2005
sg49
VLANT
p842
sbag1
(g2
g3
NtRp843
(dp844
g57
V10.1007/s10265-009-0252-6
p845
sg53
VJ PLANT RES
p846
sg55
V122
p847
sg85
(lp848
(VTSUTSUI
VT
tp849
asg21
I2009
sg49
V633
p850
sbag1
(g2
g3
NtRp851
(dp852
g57
Nsg53
VPLANT CELL
p853
sg55
V9
sg85
(lp854
(VULMASOV
VT
tp855
asg21
I1997
sg49
VLANT
p856
sbag1
(g2
g3
NtRp857
(dp858
g57
V10.1128/MCB.22.18.6321-6335.2002
p859
sg53
VMOL CELL BIOL
p860
sg55
V22
p861
sg85
(lp862
(VVINSON
VC
tp863
asg21
I2002
sg49
V6321
p864
sbag1
(g2
g3
NtRp865
(dp866
g57
V10.1111/j.1365-313X.2004.02288.x
p867
sg53
VPLANT J
p868
sg55
V41
p869
sg85
(lp870
(VVOGEL
VJ T
tp871
asg21
I2005
sg49
VLANT
p872
sbag1
(g2
g3
NtRp873
(dp874
g57
V10.1105/tpc.104.027441
p875
sg53
VPLANT CELL
p876
sg55
V17
p877
sg85
(lp878
(VWEIGEL
VR R
tp879
asg21
I2005
sg49
VLANT
p880
sbag1
(g2
g3
NtRp881
(dp882
g57
V10.1023/A:1010652620115
p883
sg53
VPLANT MOL BIOL
p884
sg55
V46
p885
sg85
(lp886
(VWEIGEL
VR R
tp887
asg21
I2001
sg49
VLANT
p888
sbag1
(g2
g3
NtRp889
(dp890
g57
V10.1104/pp.107.113787
p891
sg53
VPLANT PHYSIOL
p892
sg55
V146
p893
sg85
(lp894
(VXU
VB
tp895
asg21
I2008
sg49
VLANT
p896
sbag1
(g2
g3
NtRp897
(dp898
g57
V10.1093/nar/gki368
p899
sg53
VNUCLEIC ACIDS RES
p900
sg55
V33
p901
sg85
(lp902
(VYAN
VT
tp903
asg21
I2005
sg49
VW262
p904
sbag1
(g2
g3
NtRp905
(dp906
g57
Nsg53
VCRIT REV PLANT SCI
p907
sg55
V28
p908
sg85
(lp909
(VYANG
VW
tp910
asg21
I2009
sg49
V285
p911
sbag1
(g2
g3
NtRp912
(dp913
g57
V10.1007/s11103-005-7294-5
p914
sg53
VPLANT MOL BIOL
p915
sg55
V58
p916
sg85
(lp917
(VYANG
VZ
tp918
asg21
I2005
sg49
VLANT
p919
sbag1
(g2
g3
NtRp920
(dp921
g57
V10.1038/346035a0
p922
sg53
VNATURE
p923
sg55
V346
p924
sg85
(lp925
(VYANOFSKY
VM F
tp926
asg21
I1990
sg49
V35
p927
sbag1
(g2
g3
NtRp928
(dp929
g57
V10.1016/j.cell.2004.11.044
p930
sg53
VCELL
p931
sg55
V120
p932
sg85
(lp933
(VYIN
VY H
tp934
asg21
I2005
sg49
V249
p935
sbag1
(g2
g3
NtRp936
(dp937
g57
V10.1093/nar/gkg059
p938
sg53
VNUCLEIC ACIDS RES
p939
sg55
V31
p940
sg85
(lp941
(VYUAN
VQ P
tp942
asg21
I2003
sg49
V229
p943
sbag1
(g2
g3
NtRp944
(dp945
g57
V10.1007/s11033-009-9616-1
p946
sg53
VMOL BIOL REP
p947
sg55
V37
p948
sg85
(lp949
(VZHANG
VG Y
tp950
asg21
I2010
sg49
V809
p951
sbag1
(g2
g3
NtRp952
(dp953
g57
V10.1111/j.1365-313X.2006.02903.x
p954
sg53
VPLANT J
p955
sg55
V48
p956
sg85
(lp957
(VZHANG
VY L
tp958
asg21
I2006
sg49
VLANT
p959
sbag1
(g2
g3
NtRp960
(dp961
g57
V10.1093/nar/26.17.3986
p962
sg53
VNUCLEIC ACIDS RES
p963
sg55
V26
p964
sg85
(lp965
(VZHANG
VZ
tp966
asg21
I1998
sg49
V3986
p967
sbag1
(g2
g3
NtRp968
(dp969
g57
V10.1186/1471-2164-8-246
p970
sg53
VBMC GENOMICS
p971
sg55
V8
sg85
(lp972
(VZHOU
VX
tp973
asg21
I2007
sg49
Nsbag1
(g2
g3
NtRp974
(dp975
g57
V10.1073/pnas.0503960102
p976
sg53
VP NATL ACAD SCI USA
p977
sg55
V102
p978
sg85
(lp979
(VZHU
VJ H
tp980
asg21
I2005
sg49
V9966
p981
sbasb.