ccopy_reg
_reconstructor
p1
(ctethne.classes.paper
Paper
p2
c__builtin__
object
p3
NtRp4
(dp5
S'publisherCity'
p6
VROCKVILLE
p7
sS'reprintAddress'
p8
VGeigenberger, P (reprint author), Univ Munich, Dept Biol 1, D-82152 Martinsried, Germany.
p9
sS'WC'
p10
VPlant Sciences
p11
sS'GA'
p12
V744LH
p13
sS'FX'
p14
(lp15
VThis work was supported by the Deutsche Forschungsgemeinschaft (grant
p16
aVnos. Ge 878/5-1 and Ge 878/8-1).
p17
asS'pageEnd'
p18
I1577
sS'date'
p19
I2011
sS'documentType'
p20
VArticle
p21
sS'subject'
p22
VPlant Sciences
p23
sS'isoSource'
p24
VPlant Physiol.
p25
sS'timesCited'
p26
(lp27
I42
aVZ9 42
p28
asS'funding'
p29
(lp30
(VDeutsche Forschungsgemeinschaft
VGe 878/5-1, Ge 878/8-1
tp31
asS'PT'
p32
VJ
sS'title'
p33
VRegulation Of Starch Biosynthesis In Response To A Fluctuating Environment
p34
sS'ISSN'
p35
(lp36
V0032-0889
p37
aVJ9 PLANT PHYSIOL
p38
asS'authors_full'
p39
(lp40
(VGEIGENBERGER
VPETER
tp41
asS'PG'
p42
I12
sS'PD'
p43
VAPR
p44
sS'pageStart'
p45
I1566
sS'issue'
p46
I4
sS'RI'
p47
VGeigenberger, Peter/A-2041-2010
p48
sS'journal'
p49
VPLANT PHYSIOLOGY
p50
sS'volume'
p51
V155
p52
sS'doi'
p53
V10.1104/pp.110.170399
p54
sS'emailAddress'
p55
Vgeigenberger@bio.lmu.de
p56
sS'authorAddress'
p57
VUniv Munich, Dept Biol 1, D-82152 Martinsried, Germany.
p58
sS'publisherAddress'
p59
V15501 MONONA DRIVE, ROCKVILLE, MD 20855 USA
p60
sS'ER'
p61
V
sS'publisher'
p62
VAMER SOC PLANT BIOLOGISTS
p63
sS'authorKeywords'
p64
(lp65
VADP-GLUCOSE PYROPHOSPHORYLASE
p66
aVGROWING POTATO-TUBERS
p67
aVPOSTTRANSLATIONAL REDOX-ACTIVATION
p68
aVPROTEIN-PROTEIN INTERACTIONS
p69
aVIN-SOURCE LEAVES
p70
aVARABIDOPSIS-THALIANA
p71
aVTRANSITORY STARCH
p72
aVFERREDOXIN/THIOREDOXIN SYSTEM
p73
aVADPGLUCOSE PYROPHOSPHORYLASE
p74
aVTREHALOSE 6-PHOSPHATE
p75
asS'language'
p76
VEnglish
p77
sS'wosid'
p78
VWOS:000289095500012
p79
sS'citationCount'
p80
I117
sS'authors_init'
p81
(lp82
(VGEIGENBERGER
VP
tp83
asS'citedReferences'
p84
(lp85
g1
(g2
g3
NtRp86
(dp87
g53
V10.1111/j.1365-3040.1994.tb00151.x
p88
sg49
VPlant Cell and Environment
p89
sg51
V17
p90
sg81
(lp91
(VAP
VREES T
tp92
asg19
I1994
sg45
Vlant
p93
sbag1
(g2
g3
NtRp94
(dp95
g53
V10.1105/tpc.109.071001
p96
sg49
VPLANT CELL
p97
sg51
V22
p98
sg81
(lp99
(VARSOVA
VB
tp100
asg19
I2010
sg45
VLANT
p101
sbag1
(g2
g3
NtRp102
(dp103
g53
V10.1038/nature06069
p104
sg49
VNATURE
p105
sg51
V448
p106
sg81
(lp107
(VBAENA-GONZALEZ
VE
tp108
asg19
I2007
sg45
V938
p109
sbag1
(g2
g3
NtRp110
(dp111
g53
V10.1093/mp/ssp058
p112
sg49
VMOL PLANT
p113
sg51
V2
sg81
(lp114
(VBAGINSKY
VS
tp115
asg19
I2009
sg45
V1141
p116
sbag1
(g2
g3
NtRp117
(dp118
g53
V10.1146/annurev.arplant.54.031902.134927
p119
sg49
VANNU REV PLANT BIOL
p120
sg51
V54
p121
sg81
(lp122
(VBALL
VS G
tp123
asg19
I2003
sg45
V207
p124
sbag1
(g2
g3
NtRp125
(dp126
g53
V10.1074/jbc.275.2.1315
p127
sg49
VJ BIOL CHEM
p128
sg51
V275
p129
sg81
(lp130
(VBALLICORA
VM A
tp131
asg19
I2000
sg45
V1315
p132
sbag1
(g2
g3
NtRp133
(dp134
g53
V10.1073/pnas.0511040103
p135
sg49
VP NATL ACAD SCI USA
p136
sg51
V103
p137
sg81
(lp138
(VBALMER
VY
tp139
asg19
I2006
sg45
V2988
p140
sbag1
(g2
g3
NtRp141
(dp142
g53
V10.1016/j.tplants.2005.02.003
p143
sg49
VTRENDS PLANT SCI
p144
sg51
V10
p145
sg81
(lp146
(VBAROJA-FERNANDEZ
VE
tp147
asg19
I2005
sg45
V156
p148
sbag1
(g2
g3
NtRp149
(dp150
g53
V10.1073/pnas.0402883101
p151
sg49
VP NATL ACAD SCI USA
p152
sg51
V101
p153
sg81
(lp154
(VBAROJA-FERNANDEZ
VE
tp155
asg19
I2004
sg45
V13080
p156
sbag1
(g2
g3
NtRp157
(dp158
g53
V10.1073/pnas.0900689106
p159
sg49
VP NATL ACAD SCI USA
p160
sg51
V106
p161
sg81
(lp162
(VBARRATT
VD H P
tp163
asg19
I2009
sg45
V13124
p164
sbag1
(g2
g3
NtRp165
(dp166
g53
V10.1073/pnas.0808717106
p167
sg49
VP NATL ACAD SCI USA
p168
sg51
V106
p169
sg81
(lp170
(VBENITEZ-ALFONSO
VY
tp171
asg19
I2009
sg45
V3615
p172
sbag1
(g2
g3
NtRp173
(dp174
g53
V10.1105/tpc.105.035261
p175
sg49
VPLANT CELL
p176
sg51
V17
p177
sg81
(lp178
(VBLASING
VO E
tp179
asg19
I2005
sg45
VLANT
p180
sbag1
(g2
g3
NtRp181
(dp182
g53
V10.1093/jxb/erl297
p183
sg49
VJ EXP BOT
p184
sg51
V58
p185
sg81
(lp186
(VBOWSHER
VC G
tp187
asg19
I2007
sg45
V1321
p188
sbag1
(g2
g3
NtRp189
(dp190
g53
V10.1105/tpc.108.062018
p191
sg49
VPLANT CELL
p192
sg51
V21
p193
sg81
(lp194
(VBRAUTIGAM
VK
tp195
asg19
I2009
sg45
VLANT
p196
sbag1
(g2
g3
NtRp197
(dp198
g53
V10.1104/pp.79.1.11
p199
sg49
VPLANT PHYSIOL
p200
sg51
V79
p201
sg81
(lp202
(VCASPAR
VT
tp203
asg19
I1985
sg45
VLANT
p204
sbag1
(g2
g3
NtRp205
(dp206
g53
V10.1105/tpc.109.072231
p207
sg49
VPLANT CELL
p208
sg51
V23
p209
sg81
(lp210
(VCENTENO
VD C
tp211
asg19
I2011
sg45
VLANT
p212
sbag1
(g2
g3
NtRp213
(dp214
g53
V10.1104/pp.107.107441
p215
sg49
VPLANT PHYSIOL
p216
sg51
V146
p217
sg81
(lp218
(VCHARY
VS N
tp219
asg19
I2008
sg45
VLANT
p220
sbag1
(g2
g3
NtRp221
(dp222
g53
V10.1074/jbc.M304280200
p223
sg49
VJournal of Biological Chemistry
p224
sg51
V278
p225
sg81
(lp226
(VCREVILLEN
VPEDRO
tp227
asg19
I2003
sg45
V28508
p228
sbag1
(g2
g3
NtRp229
(dp230
g53
V10.1104/pp.103.036699
p231
sg49
VPLANT PHYSIOL
p232
sg51
V135
p233
sg81
(lp234
(VCROSS
VJ M
tp235
asg19
I2004
sg45
VLANT
p236
sbag1
(g2
g3
NtRp237
(dp238
g53
V10.1104/pp.121.3.965
p239
sg49
VPLANT PHYSIOL
p240
sg51
V121
p241
sg81
(lp242
(VDOAN
VD N P
tp243
asg19
I1999
sg45
VLANT
p244
sbag1
(g2
g3
NtRp245
(dp246
g53
V10.1104/pp.127.2.685
p247
sg49
VPLANT PHYSIOL
p248
sg51
V127
p249
sg81
(lp250
(VFARRE
VE M
tp251
asg19
I2001
sg45
VLANT
p252
sbag1
(g2
g3
NtRp253
(dp254
g53
Nsg49
VPLANT PHYSL IN PRESS
p255
sg51
Nsg81
(lp256
(VFETTKE
VJ
tp257
asg19
I2011
sg45
VLANT
p258
sbag1
(g2
g3
NtRp259
(dp260
g53
V10.1104/pp.110.159517
p261
sg49
VPLANT PHYSIOL
p262
sg51
V154
p263
sg81
(lp264
(VFU
VF F
tp265
asg19
I2010
sg45
VLANT
p266
sbag1
(g2
g3
NtRp267
(dp268
g53
V10.1074/jbc.273.39.25045
p269
sg49
VJ BIOL CHEM
p270
sg51
V273
p271
sg81
(lp272
(VFU
VY B
tp273
asg19
I1998
sg45
V25045
p274
sbag1
(g2
g3
NtRp275
(dp276
g53
V10.1093/jxb/eri178
p277
sg49
VJ EXP BOT
p278
sg51
V56
p279
sg81
(lp280
(VGEIGENBERGER
VP
tp281
asg19
I2005
sg45
V1469
p282
sbag1
(g2
g3
NtRp283
(dp284
g53
V10.1093/jxb/erg074
p285
sg49
VJ EXP BOT
p286
sg51
V54
p287
sg81
(lp288
(VGEIGENBERGER
VP
tp289
asg19
I2003
sg45
V457
p290
sbag1
(g2
g3
NtRp291
(dp292
g53
V10.1016/S1369-5266(03)00038-4
p293
sg49
VCURR OPIN PLANT BIOL
p294
sg51
V6
sg81
(lp295
(VGEIGENBERGER
VP
tp296
asg19
I2003
sg45
V247
p297
sbag1
(g2
g3
NtRp298
(dp299
g53
V10.1111/j.1365-3040.2004.01183.x
p300
sg49
VPLANT CELL ENVIRON
p301
sg51
V27
p302
sg81
(lp303
(VGEIGENBERGER
VP
tp304
asg19
I2004
sg45
VLANT
p305
sbag1
(g2
g3
NtRp306
(dp307
g53
V10.1002/9780470277577.ch11
p308
sg49
VFood biochemistry and food processing
p309
sg51
Nsg81
(lp310
(VGEIGENBERGER
VP
tp311
asg19
I2006
sg45
V253
p312
sbag1
(g2
g3
NtRp313
(dp314
g53
V10.1046/j.1365-313x.2000.00848.x
p315
sg49
VPLANT J
p316
sg51
V23
p317
sg81
(lp318
(VGEIGENBERGER
VP
tp319
asg19
I2000
sg45
VLANT
p320
sbag1
(g2
g3
NtRp321
(dp322
g53
V10.1104/pp.125.4.1667
p323
sg49
VPLANT PHYSIOL
p324
sg51
V125
p325
sg81
(lp326
(VGEIGENBERGER
VP
tp327
asg19
I2001
sg45
VLANT
p328
sbag1
(g2
g3
NtRp329
(dp330
g53
V10.1104/pp.117.4.1307
p331
sg49
VPLANT PHYSIOL
p332
sg51
V117
p333
sg81
(lp334
(VGEIGENBERGER
VP
tp335
asg19
I1998
sg45
VLANT
p336
sbag1
(g2
g3
NtRp337
(dp338
g53
V10.1016/j.tplants.2009.11.004
p339
sg49
VTRENDS PLANT SCI
p340
sg51
V15
p341
sg81
(lp342
(VGEIGENBERGER
VP
tp343
asg19
I2010
sg45
V98
p344
sbag1
(g2
g3
NtRp345
(dp346
g53
Nsg49
VANNU REV PLANT PHYS
p347
sg51
V45
p348
sg81
(lp349
(VGEIGER
VD R
tp350
asg19
I1994
sg45
V235
p351
sbag1
(g2
g3
NtRp352
(dp353
g53
V10.1007/s00018-004-4296-4
p354
sg49
VCELL MOL LIFE SCI
p355
sg51
V62
p356
sg81
(lp357
(VGELHAYE
VE
tp358
asg19
I2005
sg45
V24
p359
sbag1
(g2
g3
NtRp360
(dp361
g53
V10.1104/pp.75.3.542
p362
sg49
VPLANT PHYSIOL
p363
sg51
V75
p364
sg81
(lp365
(VGERHARDT
VR
tp366
asg19
I1984
sg45
VLANT
p367
sbag1
(g2
g3
NtRp368
(dp369
g53
Nsg49
VJ BIOL CHEM
p370
sg51
V241
p371
sg81
(lp372
(VGHOSH
VH P
tp373
asg19
I1966
sg45
V4491
p374
sbag1
(g2
g3
NtRp375
(dp376
g53
V10.1105/tpc.104.025973
p377
sg49
VPLANT CELL
p378
sg51
V16
p379
sg81
(lp380
(VGIBON
VY
tp381
asg19
I2004
sg45
VLANT
p382
sbag1
(g2
g3
NtRp383
(dp384
g53
V10.1111/j.1365-3040.2009.01965.x
p385
sg49
VPLANT CELL ENVIRON
p386
sg51
V32
p387
sg81
(lp388
(VGIBON
VY
tp389
asg19
I2009
sg45
VLANT
p390
sbag1
(g2
g3
NtRp391
(dp392
g53
V10.1111/j.1365-313X.2004.02173.x
p393
sg49
VPLANT J
p394
sg51
V39
p395
sg81
(lp396
(VGIBON
VY
tp397
asg19
I2004
sg45
VLANT
p398
sbag1
(g2
g3
NtRp399
(dp400
g53
V10.1073/pnas.0914299107
p401
sg49
VP NATL ACAD SCI USA
p402
sg51
V107
p403
sg81
(lp404
(VGRAF
VA
tp405
asg19
I2010
sg45
V9458
p406
sbag1
(g2
g3
NtRp407
(dp408
g53
V10.1093/jxb/ern198
p409
sg49
VJ EXP BOT
p410
sg51
V59
p411
sg81
(lp412
(VGRIMAUD
VF
tp413
asg19
I2008
sg45
V3395
p414
sbag1
(g2
g3
NtRp415
(dp416
g53
V10.1016/j.copbio.2008.02.013
p417
sg49
VCURR OPIN BIOTECH
p418
sg51
V19
p419
sg81
(lp420
(VHANNAH
VL C
tp421
asg19
I2008
sg45
V160
p422
sbag1
(g2
g3
NtRp423
(dp424
g53
V10.1104/pp.110.161448
p425
sg49
VPLANT PHYSIOL
p426
sg51
V154
p427
sg81
(lp428
(VHARMER
VS
tp429
asg19
I2010
sg45
VLANT
p430
sbag1
(g2
g3
NtRp431
(dp432
g53
V10.1111/j.1365-313X.2006.02780.x
p433
sg49
VPLANT J
p434
sg51
V47
p435
sg81
(lp436
(VHARTHILL
VJ E
tp437
asg19
I2006
sg45
VLANT
p438
sbag1
(g2
g3
NtRp439
(dp440
g53
V10.1093/nar/gkm812
p441
sg49
VNUCLEIC ACIDS RES
p442
sg51
V36
p443
sg81
(lp444
(VHEAZLEWOOD
VJ L
tp445
asg19
I2008
sg45
VD1015
p446
sbag1
(g2
g3
NtRp447
(dp448
g53
V10.1104/pp.103.024513
p449
sg49
VPLANT PHYSIOL
p450
sg51
V133
p451
sg81
(lp452
(VHENDRIKS
VJ H M
tp453
asg19
I2003
sg45
VLANT
p454
sbag1
(g2
g3
NtRp455
(dp456
g53
V10.1104/pp.109.135293
p457
sg49
VPLANT PHYSIOL
p458
sg51
V149
p459
sg81
(lp460
(VHENNEN-BIERWAGEN
VT A
tp461
asg19
I2009
sg45
VLANT
p462
sbag1
(g2
g3
NtRp463
(dp464
g53
V10.1104/pp.108.116285
p465
sg49
VPLANT PHYSIOL
p466
sg51
V146
p467
sg81
(lp468
(VHENNEN-BIERWAGEN
VT A
tp469
asg19
I2008
sg45
VLANT
p470
sbag1
(g2
g3
NtRp471
(dp472
g53
Nsg49
VJ BIOL CHEM
p473
sg51
V268
p474
sg81
(lp475
(VIGLESIAS
VA A
tp476
asg19
I1993
sg45
V1081
p477
sbag1
(g2
g3
NtRp478
(dp479
g53
V10.1016/S1369-5266(03)00042-6
p480
sg49
VCURR OPIN PLANT BIOL
p481
sg51
V6
sg81
(lp482
(VJAMES
VM G
tp483
asg19
I2003
sg45
V215
p484
sbag1
(g2
g3
NtRp485
(dp486
g53
V10.1104/pp.126.3.1139
p487
sg49
VPLANT PHYSIOL
p488
sg51
V126
p489
sg81
(lp490
(VJENNER
VH L
tp491
asg19
I2001
sg45
VLANT
p492
sbag1
(g2
g3
NtRp493
(dp494
g53
V10.1016/j.plaphy.2010.03.006
p495
sg49
VPLANT PHYSIOL BIOCH
p496
sg51
V48
p497
sg81
(lp498
(VJEON
VJ S
tp499
asg19
I2010
sg45
VLANT
p500
sbag1
(g2
g3
NtRp501
(dp502
g53
V10.1111/j.1365-313X.2009.03871.x
p503
sg49
VPLANT J
p504
sg51
V59
p505
sg81
(lp506
(VJOSSIER
VM
tp507
asg19
I2009
sg45
VLANT
p508
sbag1
(g2
g3
NtRp509
(dp510
g53
Nsg49
VSymp Soc Exp Biol
p511
sg51
V27
p512
sg81
(lp513
(VKACSER
VH
tp514
asg19
I1973
sg45
V65
p515
sbag1
(g2
g3
NtRp516
(dp517
g53
Nsg49
VPLANT CELL
p518
sg51
V10
p519
sg81
(lp520
(VKAMMERER
VB
tp521
asg19
I1998
sg45
VLANT
p522
sbag1
(g2
g3
NtRp523
(dp524
g53
V10.1074/jbc.M702484200
p525
sg49
VJ BIOL CHEM
p526
sg51
V282
p527
sg81
(lp528
(VKIRCHBERGER
VS
tp529
asg19
I2007
sg45
Nsbag1
(g2
g3
NtRp530
(dp531
g53
V10.1007/s10142-008-0083-x
p532
sg49
VFUNCT INTEGR GENOMIC
p533
sg51
V8
sg81
(lp534
(VKLOOSTERMAN
VB
tp535
asg19
I2008
sg45
V329
p536
sbag1
(g2
g3
NtRp537
(dp538
g53
V10.1073/pnas.0503410102
p539
sg49
VP NATL ACAD SCI USA
p540
sg51
V102
p541
sg81
(lp542
(VKOLBE
VA
tp543
asg19
I2005
sg45
V11118
p544
sbag1
(g2
g3
NtRp545
(dp546
g53
VDOI 10.1016/J.PBI.2010.01.003
p547
sg49
VCURR OPIN PLANT BIOL
p548
sg51
V13
p549
sg81
(lp550
(VKOTTING
VO
tp551
asg19
I2010
sg45
V320
p552
sbag1
(g2
g3
NtRp553
(dp554
g53
V10.1111/j.1438-8677.2010.00349.x
p555
sg49
VPLANT BIOLOGY
p556
sg51
V12
p557
sg81
(lp558
(VKUNZ
VH H
tp559
asg19
I2010
sg45
VLANT
p560
sbag1
(g2
g3
NtRp561
(dp562
g53
V10.1093/jxb/erp297
p563
sg49
VJ EXP BOT
p564
sg51
V60
p565
sg81
(lp566
(VLIU
VF S
tp567
asg19
I2009
sg45
V4423
p568
sbag1
(g2
g3
NtRp569
(dp570
g53
V10.1007/s004250000461
p571
sg49
VPLANTA
p572
sg51
V212
p573
sg81
(lp574
(VLOEF
VI
tp575
asg19
I2001
sg45
VLANTA
p576
sbag1
(g2
g3
NtRp577
(dp578
g53
V10.1007/s00425-009-0901-y
p579
sg49
VPLANTA
p580
sg51
V229
p581
sg81
(lp582
(VLOHRIG
VK
tp583
asg19
I2009
sg45
VLANTA
p584
sbag1
(g2
g3
NtRp585
(dp586
g53
V10.1042/BJ20060083
p587
sg49
VBIOCHEM J
p588
sg51
V397
p589
sg81
(lp590
(VLUNN
VJ E
tp591
asg19
I2006
sg45
V139
p592
sbag1
(g2
g3
NtRp593
(dp594
g53
Nsg49
VGENETICS
p595
sg51
V11
p596
sg81
(lp597
(VMANGELSDORF
VP C
tp598
asg19
I1926
sg45
V423
p599
sbag1
(g2
g3
NtRp600
(dp601
g53
V10.1104/pp.110.154856
p602
sg49
VPLANT PHYSIOL
p603
sg51
V153
p604
sg81
(lp605
(VMANGELSEN
VE
tp606
asg19
I2010
sg45
VLANT
p607
sbag1
(g2
g3
NtRp608
(dp609
g53
V10.1016/j.cmet.2008.11.008
p610
sg49
VCELL METAB
p611
sg51
V9
sg81
(lp612
(VMCBRIDE
VA
tp613
asg19
I2009
sg45
V23
p614
sbag1
(g2
g3
NtRp615
(dp616
g53
V10.1111/j.1467-7652.2006.00190.x
p617
sg49
VPLANT BIOTECHNOL J
p618
sg51
V4
sg81
(lp619
(VMCKIBBIN
VR S
tp620
asg19
I2006
sg45
VLANT
p621
sbag1
(g2
g3
NtRp622
(dp623
g53
V10.1073/pnas.0903559106
p624
sg49
VP NATL ACAD SCI USA
p625
sg51
V106
p626
sg81
(lp627
(VMICHALSKA
VJ
tp628
asg19
I2009
sg45
V9908
p629
sbag1
(g2
g3
NtRp630
(dp631
g53
Nsg49
VMOL GEN GENET
p632
sg51
V224
p633
sg81
(lp634
(VMULLERROBER
VB T
tp635
asg19
I1990
sg45
V136
p636
sbag1
(g2
g3
NtRp637
(dp638
g53
V10.1093/pcp/pci148
p639
sg49
VPLANT CELL PHYSIOL
p640
sg51
V46
p641
sg81
(lp642
(VMUNOZ
VF J
tp643
asg19
I2005
sg45
VLANT
p644
sbag1
(g2
g3
NtRp645
(dp646
g53
V10.1080/10242420500518839
p647
sg49
VBIOCATAL BIOTRANSFOR
p648
sg51
V24
p649
sg81
(lp650
(VMUNOZ
VF J
tp651
asg19
I2006
sg45
V63
p652
sbag1
(g2
g3
NtRp653
(dp654
g53
V10.1016/j.tplants.2005.02.002
p655
sg49
VTRENDS PLANT SCI
p656
sg51
V10
p657
sg81
(lp658
(VNEUHAUS
VH E
tp659
asg19
I2005
sg45
V154
p660
sbag1
(g2
g3
NtRp661
(dp662
g53
Nsg49
VPLANTA
p663
sg51
V182
p664
sg81
(lp665
(VNEUHAUS
VH E
tp666
asg19
I1990
sg45
VLANTA
p667
sbag1
(g2
g3
NtRp668
(dp669
g53
V10.1046/j.1365-3040.1998.00295.x
p670
sg49
VPLANT CELL ENVIRON
p671
sg51
V21
p672
sg81
(lp673
(VNIELSEN
VT H
tp674
asg19
I1998
sg45
VLANT
p675
sbag1
(g2
g3
NtRp676
(dp677
g53
V10.1016/j.plantsci.2005.07.019
p678
sg49
VPLANT SCI
p679
sg51
V170
p680
sg81
(lp681
(VOBANA
VY
tp682
asg19
I2006
sg45
VLANT
p683
sbag1
(g2
g3
NtRp684
(dp685
g53
V10.1104/pp.93.2.785
p686
sg49
VPLANT PHYSIOL
p687
sg51
V93
p688
sg81
(lp689
(VOKITA
VT W
tp690
asg19
I1990
sg45
VLANT
p691
sbag1
(g2
g3
NtRp692
(dp693
g53
V10.1093/jxb/erm312
p694
sg49
VJ EXP BOT
p695
sg51
V59
p696
sg81
(lp697
(VOLIVER
VS N
tp698
asg19
I2008
sg45
V315
p699
sbag1
(g2
g3
NtRp700
(dp701
g53
V10.1146/annurev.arplant.59.032607.092945
p702
sg49
VANNU REV PLANT BIOL
p703
sg51
V59
p704
sg81
(lp705
(VPAUL
VM J
tp706
asg19
I2008
sg45
V417
p707
sbag1
(g2
g3
NtRp708
(dp709
g53
V10.1105/tpc.106.041541
p710
sg49
VPLANT CELL
p711
sg51
V18
p712
sg81
(lp713
(VPEREZ-RUIZ
VJ M
tp714
asg19
I2006
sg45
VLANT
p715
sbag1
(g2
g3
NtRp716
(dp717
g53
Nsg49
VBIOCH PLANTS COMPREH
p718
sg51
V14
p719
sg81
(lp720
(VPREISS
VJ
tp721
asg19
I1988
sg45
V181
p722
sbag1
(g2
g3
NtRp723
(dp724
g53
V10.1111/j.1365-313X.2009.04057.x
p725
sg49
VPLANT J
p726
sg51
V61
p727
sg81
(lp728
(VRADCHUK
VR
tp729
asg19
I2010
sg45
VLANT
p730
sbag1
(g2
g3
NtRp731
(dp732
g53
V10.1038/nbt760
p733
sg49
VNAT BIOTECHNOL
p734
sg51
V20
p735
sg81
(lp736
(VREGIERER
VB
tp737
asg19
I2002
sg45
V1256
p738
sbag1
(g2
g3
NtRp739
(dp740
g53
V10.1104/pp.109.138677
p741
sg49
VPLANT PHYSIOL
p742
sg51
V150
p743
sg81
(lp744
(VREILAND
VS
tp745
asg19
I2009
sg45
VLANT
p746
sbag1
(g2
g3
NtRp747
(dp748
g53
V10.1093/pcp/pcn127
p749
sg49
VPLANT CELL PHYSIOL
p750
sg51
V49
p751
sg81
(lp752
(VRIEWE
VD
tp753
asg19
I2008
sg45
VLANT
p754
sbag1
(g2
g3
NtRp755
(dp756
g53
V10.1104/pp.108.115758
p757
sg49
VPLANT PHYSIOL
p758
sg51
V146
p759
sg81
(lp760
(VRIEWE
VD
tp761
asg19
I2008
sg45
VLANT
p762
sbag1
(g2
g3
NtRp763
(dp764
g53
V10.1016/j.plantsci.2004.06.028
p765
sg49
VPLANT SCI
p766
sg51
V167
p767
sg81
(lp768
(VSAKULSINGHAROJ
VC
tp769
asg19
I2004
sg45
VLANT
p770
sbag1
(g2
g3
NtRp771
(dp772
g53
V10.1038/nature04725
p773
sg49
VNATURE
p774
sg51
V441
p775
sg81
(lp776
(VSATOH-NAGASAWA
VN
tp777
asg19
I2006
sg45
V227
p778
sbag1
(g2
g3
NtRp779
(dp780
g53
V10.1104/pp.96.1.1
p781
sg49
VPLANT PHYSIOL
p782
sg51
V96
p783
sg81
(lp784
(VSCHEIBE
VR
tp785
asg19
I1991
sg45
VLANT
p786
sbag1
(g2
g3
NtRp787
(dp788
g53
Nsg49
VPLANT CELL
p789
sg51
V9
sg81
(lp790
(VSCHEIBLE
VW R
tp791
asg19
I1997
sg45
VLANT
p792
sbag1
(g2
g3
NtRp793
(dp794
g53
V10.2174/138920208784340740
p795
sg49
VCURR GENOMICS
p796
sg51
V9
sg81
(lp797
(VSCHLIEBNER
VI
tp798
asg19
I2008
sg45
V184
p799
sbag1
(g2
g3
NtRp800
(dp801
g53
V10.1089/ars.2007.1931
p802
sg49
VANTIOXID REDOX SIGN
p803
sg51
V10
p804
sg81
(lp805
(VSCHURMANN
VP
tp806
asg19
I2008
sg45
V1235
p807
sbag1
(g2
g3
NtRp808
(dp809
g53
V10.1073/pnas.022635299
p810
sg49
VP NATL ACAD SCI USA
p811
sg51
V99
p812
sg81
(lp813
(VSMIDANSKY
VE D
tp814
asg19
I2002
sg45
V1724
p815
sbag1
(g2
g3
NtRp816
(dp817
g53
V10.1007/s00425-002-0897-z
p818
sg49
VPLANTA
p819
sg51
V216
p820
sg81
(lp821
(VSMIDANSKY
VE D
tp822
asg19
I2003
sg45
VLANTA
p823
sbag1
(g2
g3
NtRp824
(dp825
g53
V10.1111/j.1365-313X.2008.03468.x
p826
sg49
VPLANT J
p827
sg51
V54
p828
sg81
(lp829
(VSMITH
VA M
tp830
asg19
I2008
sg45
VLANT
p831
sbag1
(g2
g3
NtRp832
(dp833
g53
V10.1104/pp.104.044347
p834
sg49
VPLANT PHYSIOL
p835
sg51
V136
p836
sg81
(lp837
(VSMITH
VS M
tp838
asg19
I2004
sg45
VLANT
p839
sbag1
(g2
g3
NtRp840
(dp841
g53
Nsg49
VBIOCHEM J
p842
sg51
V336
p843
sg81
(lp844
(VSOKOLOV
VL N
tp845
asg19
I1998
sg45
V681
p846
sbag1
(g2
g3
NtRp847
(dp848
g53
V10.1126/science.258.5080.287
p849
sg49
VSCIENCE
p850
sg51
V258
p851
sg81
(lp852
(VSTARK
VD M
tp853
asg19
I1992
sg45
V287
p854
sbag1
(g2
g3
NtRp855
(dp856
g53
V10.1111/j.1365-313X.2010.04142.x
p857
sg49
VPLANT J
p858
sg51
V61
p859
sg81
(lp860
(VSTITT
VM
tp861
asg19
I2010
sg45
VLANT
p862
sbag1
(g2
g3
NtRp863
(dp864
g53
Nsg49
VBIOCH PLANTS COMPREH
p865
sg51
V10
p866
sg81
(lp867
(VSTITT
VM
tp868
asg19
I1987
sg45
V327
p869
sbag1
(g2
g3
NtRp870
(dp871
g53
V10.1104/pp.109.144931
p872
sg49
VPLANT PHYSIOL
p873
sg51
V151
p874
sg81
(lp875
(VSTREB
VS
tp876
asg19
I2009
sg45
VLANT
p877
sbag1
(g2
g3
NtRp878
(dp879
g53
V10.1046/j.1365-313X.1999.00532.x
p880
sg49
VPLANT J
p881
sg51
V19
p882
sg81
(lp883
(VSUGDEN
VC
tp884
asg19
I1999
sg45
VLANT
p885
sbag1
(g2
g3
NtRp886
(dp887
g53
V10.1073/pnas.0903478106
p888
sg49
VP NATL ACAD SCI USA
p889
sg51
V106
p890
sg81
(lp891
(VSULPICE
VR
tp892
asg19
I2009
sg45
V10348
p893
sbag1
(g2
g3
NtRp894
(dp895
g53
V10.1105/tpc.014597
p896
sg49
VPLANT CELL
p897
sg51
V15
p898
sg81
(lp899
(VSUN
VC X
tp900
asg19
I2003
sg45
VLANT
p901
sbag1
(g2
g3
NtRp902
(dp903
g53
V10.1105/tpc.109.066522
p904
sg49
VPLANT CELL
p905
sg51
V21
p906
sg81
(lp907
(VSZYDLOWSKI
VN
tp908
asg19
I2009
sg45
VLANT
p909
sbag1
(g2
g3
NtRp910
(dp911
g53
V10.1093/jxb/erh248
p912
sg49
VJ EXP BOT
p913
sg51
V55
p914
sg81
(lp915
(VTETLOW
VI J
tp916
asg19
I2004
sg45
V2131
p917
sbag1
(g2
g3
NtRp918
(dp919
g53
V10.1104/pp.108.116244
p920
sg49
VPLANT PHYSIOL
p921
sg51
V146
p922
sg81
(lp923
(VTETLOW
VI J
tp924
asg19
I2008
sg45
VLANT
p925
sbag1
(g2
g3
NtRp926
(dp927
g53
V10.1105/tpc.017400
p928
sg49
VPLANT CELL
p929
sg51
V16
p930
sg81
(lp931
(VTETLOW
VI J
tp932
asg19
I2004
sg45
VLANT
p933
sbag1
(g2
g3
NtRp934
(dp935
g53
V10.1046/j.1365-313X.2003.01823.x
p936
sg49
VPLANT J
p937
sg51
V35
p938
sg81
(lp939
(VTIESSEN
VA
tp940
asg19
I2003
sg45
VLANT
p941
sbag1
(g2
g3
NtRp942
(dp943
g53
V10.1105/tpc.003640
p944
sg49
VPLANT CELL
p945
sg51
V14
p946
sg81
(lp947
(VTIESSEN
VA
tp948
asg19
I2002
sg45
VLANT
p949
sbag1
(g2
g3
NtRp950
(dp951
g53
V10.1046/j.1365-313X.1998.00317.x
p952
sg49
VPLANT J
p953
sg51
V16
p954
sg81
(lp955
(VTJADEN
VJ
tp956
asg19
I1998
sg45
VLANT
p957
sbag1
(g2
g3
NtRp958
(dp959
g53
V10.1104/pp.110.161844
p960
sg49
VPLANT PHYSIOL
p961
sg51
V154
p962
sg81
(lp963
(VVRIET
VC
tp964
asg19
I2010
sg45
VLANT
p965
sbag1
(g2
g3
NtRp966
(dp967
g53
V10.1007/s11240-006-9173-4
p968
sg49
VPLANT CELL TISS ORG
p969
sg51
V88
p970
sg81
(lp971
(VWANG
VZ Y
tp972
asg19
I2007
sg45
VLANT
p973
sbag1
(g2
g3
NtRp974
(dp975
g53
V10.1105/tpc.108.065391
p976
sg49
VPLANT CELL
p977
sg51
V21
p978
sg81
(lp979
(VWURIYANGHAN
VH
tp980
asg19
I2009
sg45
VLANT
p981
sbag1
(g2
g3
NtRp982
(dp983
g53
V10.1146/annurev-arplant-042809-112301
p984
sg49
VANNU REV PLANT BIOL
p985
sg51
V61
p986
sg81
(lp987
(VZEEMAN
VS C
tp988
asg19
I2010
sg45
V209
p989
sbag1
(g2
g3
NtRp990
(dp991
g53
V10.1104/pp.108.133934
p992
sg49
VPLANT PHYSIOL
p993
sg51
V149
p994
sg81
(lp995
(VZHANG
VY H
tp996
asg19
I2009
sg45
VLANT
p997
sbasb.