ccopy_reg
_reconstructor
p1
(ctethne.classes.paper
Paper
p2
c__builtin__
object
p3
NtRp4
(dp5
S'publisherCity'
p6
VROCKVILLE
p7
sS'reprintAddress'
p8
VUsadel, B (reprint author), Max Planck Inst Mol Plant Physiol, D-14476 Golm, Germany.
p9
sS'WC'
p10
VPlant Sciences
p11
sS'GA'
p12
V944GM
p13
sS'abstract'
p14
VMapMan is a user-driven tool that displays large genomics datasets onto diagrams of metabolic pathways or other processes. Here, we present new developments, including improvements of the gene assignments and the user interface, a strategy to visualize multilayered datasets, the incorporation of statistics packages, and extensions of the software to incorporate more biological information including visualization of coresponding genes and horizontal searches for similar global responses across large numbers of arrays.
p15
sS'pageEnd'
p16
I1204
sS'date'
p17
I2005
sS'documentType'
p18
VArticle
p19
sS'subject'
p20
VPlant Sciences
p21
sS'isoSource'
p22
VPlant Physiol.
p23
sS'timesCited'
p24
(lp25
I195
aVZ9 203
p26
asS'PT'
p27
VJ
sS'title'
p28
VExtension Of The Visualization Tool Mapman To Allow Statistical Analysis Of Arrays, Display Of Coresponding Genes, And Comparison With Known Responses
p29
sS'ISSN'
p30
(lp31
V0032-0889
p32
aVJ9 PLANT PHYSIOL
p33
asS'authors_full'
p34
(lp35
(VUSADEL
VB
tp36
a(VNAGEL
VA
tp37
a(VTHIMM
VO
tp38
a(VREDESTIG
VH
tp39
a(VBLAESING
VOE
tp40
a(VPALACIOSROJAS
VN
tp41
a(VSELBIG
VJ
tp42
a(VHANNEMANN
VJ
tp43
a(VPIQUES
VMC
tp44
a(VSTEINHAUSER
VD
tp45
a(VSCHEIBLE
VWR
tp46
a(VGIBON
VY
tp47
a(VMORCUENDE
VR
tp48
a(VWEICHT
VD
tp49
a(VMEYER
VS
tp50
a(VSTITT
VM
tp51
asS'PG'
p52
I10
sS'PD'
p53
VJUL
p54
sS'pageStart'
p55
I1195
sS'issue'
p56
I3
sS'RI'
p57
(lp58
VRedestig, Henning/B-1060-2010; Gibon, Yves/B-9919-2011; Usadel,
p59
aVBjorn/E-1932-2011; Steinhauser, Dirk/J-6484-2012
p60
asS'journal'
p61
VPLANT PHYSIOLOGY
p62
sS'volume'
p63
V138
p64
sS'doi'
p65
V10.1104/pp.105.060459
p66
sS'emailAddress'
p67
Vusadel@mpimp-golm.mpg.de
p68
sS'authorAddress'
p69
(lp70
VMax Planck Inst Mol Plant Physiol, D-14476 Golm, Germany.
p71
aVRZPD German Resource Ctr Genome Res, D-14059 Berlin, Germany.
p72
asS'publisherAddress'
p73
V15501 MONONA DRIVE, ROCKVILLE, MD 20855 USA
p74
sS'ER'
p75
V
sS'publisher'
p76
VAMER SOC PLANT BIOLOGISTS
p77
sS'authorKeywords'
p78
(lp79
VSECONDARY METABOLISM
p80
aVNITRATE RESPONSE
p81
aVDNA MICROARRAYS
p82
aVARABIDOPSIS
p83
aVEXPRESSION
p84
aVDATABASE
p85
aVMUTANT
p86
aVPATHWAY
p87
aVDEFICIENT
p88
aVPHOSPHATE
p89
asS'language'
p90
VEnglish
p91
sS'wosid'
p92
VWOS:000230414800003
p93
sS'citationCount'
p94
I30
sS'authors_init'
p95
(lp96
(VUSADEL
VB
tp97
a(VNAGEL
VA
tp98
a(VTHIMM
VO
tp99
a(VREDESTIG
VH
tp100
a(VBLAESING
VO E
tp101
a(VPALACIOSROJAS
VN
tp102
a(VSELBIG
VJ
tp103
a(VHANNEMANN
VJ
tp104
a(VPIQUES
VM C
tp105
a(VSTEINHAUSER
VD
tp106
a(VSCHEIBLE
VW R
tp107
a(VGIBON
VY
tp108
a(VMORCUENDE
VR
tp109
a(VWEICHT
VD
tp110
a(VMEYER
VS
tp111
a(VSTITT
VM
tp112
asS'citedReferences'
p113
(lp114
g1
(g2
g3
NtRp115
(dp116
g65
V10.1006/jmbi.1990.9999
p117
sg61
VJ MOL BIOL
p118
sg63
V215
p119
sg95
(lp120
(VALTSCHUL
VS F
tp121
asg17
I1990
sg55
V403
p122
sbag1
(g2
g3
NtRp123
(dp124
g65
V10.1073/pnas.97.1.262
p125
sg61
VP NATL ACAD SCI USA
p126
sg63
V97
p127
sg95
(lp128
(VBROWN
VM P S
tp129
asg17
I2000
sg55
V262
p130
sbag1
(g2
g3
NtRp131
(dp132
g65
V10.1016/S0014-5793(00)01771-3
p133
sg61
VFEBS LETT
p134
sg63
V480
p135
sg95
(lp136
(VCELIS
VJ E
tp137
asg17
I2000
sg55
V2
sbag1
(g2
g3
NtRp138
(dp139
g65
V10.1093/nar/gkh033
p140
sg61
VNUCLEIC ACIDS RES
p141
sg63
V32
p142
sg95
(lp143
(VCHRISTIE
VK R
tp144
asg17
I2004
sg55
VD311
p145
sbag1
(g2
g3
NtRp146
(dp147
g65
V10.1093/nar/gkh133
p148
sg61
VNUCLEIC ACIDS RES
p149
sg63
V32
p150
sg95
(lp151
(VCRAIGON
VD J
tp152
asg17
I2004
sg55
VD575
p153
sbag1
(g2
g3
NtRp154
(dp155
g65
V10.1093/bioinformatics/btg321
p156
sg61
VBIOINFORMATICS
p157
sg63
V19
p158
sg95
(lp159
(VDAUB
VC O
tp160
asg17
I2003
sg55
V2332
p161
sbag1
(g2
g3
NtRp162
(dp163
g65
V10.1126/science.278.5338.680
p164
sg61
VSCIENCE
p165
sg63
V278
p166
sg95
(lp167
(VDERISI
VJ L
tp168
asg17
I1997
sg55
V680
p169
sbag1
(g2
g3
NtRp170
(dp171
g65
V10.1038/81137
p172
sg61
VNAT BIOTECHNOL
p173
sg63
V18
p174
sg95
(lp175
(VFIEHN
VO
tp176
asg17
I2000
sg55
V1157
p177
sbag1
(g2
g3
NtRp178
(dp179
g65
V10.1105/tpc.104.025973
p180
sg61
VPLANT CELL
p181
sg63
V16
p182
sg95
(lp183
(VGIBON
VY
tp184
asg17
I2004
sg55
VLANT
p185
sbag1
(g2
g3
NtRp186
(dp187
g65
V10.1101/gr.226602
p188
sg61
VGENOME RES
p189
sg63
V12
p190
sg95
(lp191
(VGROSU
VP
tp192
asg17
I2002
sg55
V1121
p193
sbag1
(g2
g3
NtRp194
(dp195
g65
V10.1105/tpc.000745
p196
sg61
VPLANT CELL
p197
sg63
V14
p198
sg95
(lp199
(VHAMBURGER
VD
tp200
asg17
I2002
sg55
VLANT
p201
sbag1
(g2
g3
NtRp202
(dp203
g65
Nsg61
VDIFFERENTIAL GENE EX
p204
sg63
Nsg95
(lp205
(VHAMMOND
VJ P
tp206
asg17
I2004
sg55
Nsbag1
(g2
g3
NtRp207
(dp208
g65
V10.1152/physiolgenomics.00153.2002
p209
sg61
VPHYSIOL GENOMICS
p210
sg63
V12
p211
sg95
(lp212
(VKADOTA
VK
tp213
asg17
I2003
sg55
VHYSIOL
p214
sbag1
(g2
g3
NtRp215
(dp216
g65
V10.1126/science.1099511
p217
sg61
VSCIENCE
p218
sg63
V306
p219
sg95
(lp220
(VLEE
VI
tp221
asg17
I2004
sg55
V1555
p222
sbag1
(g2
g3
NtRp223
(dp224
g65
V10.1046/j.1365-313X.1999.00480.x
p225
sg61
VPLANT J
p226
sg63
V18
p227
sg95
(lp228
(VLEJAY
VL
tp229
asg17
I1999
sg55
VLANT
p230
sbag1
(g2
g3
NtRp231
(dp232
g65
V10.1093/jxb/erh143
p233
sg61
VJ EXP BOT
p234
sg63
V55
p235
sg95
(lp236
(VLLOYD
VJ C
tp237
asg17
I2004
sg55
V1221
p238
sbag1
(g2
g3
NtRp239
(dp240
g65
V10.1073/pnas.0630561100
p241
sg61
VP NATL ACAD SCI USA
p242
sg63
V100
p243
sg95
(lp244
(VMICHAUT
VL
tp245
asg17
I2003
sg55
V4024
p246
sbag1
(g2
g3
NtRp247
(dp248
g65
V10.1104/pp.102.017236
p249
sg61
VPLANT PHYSIOL
p250
sg63
V132
p251
sg95
(lp252
(VMUELLER
VL A
tp253
asg17
I2003
sg55
VLANT
p254
sbag1
(g2
g3
NtRp255
(dp256
g65
V10.1104/pp.97.3.1087
p257
sg61
VPLANT PHYSIOL
p258
sg63
V97
p259
sg95
(lp260
(VPOIRIER
VY
tp261
asg17
I1991
sg55
VLANT
p262
sbag1
(g2
g3
NtRp263
(dp264
g65
Nsg61
VLANG ENV STAT COMP R
p265
sg63
Nsg95
(lp266
(VR DEV COR TEAM
S''
tp267
asg17
I2004
sg55
Nsbag1
(g2
g3
NtRp268
(dp269
g65
V10.1093/nar/gkg076
p270
sg61
VNUCLEIC ACIDS RES
p271
sg63
V31
p272
sg95
(lp273
(VRHEE
VS Y
tp274
asg17
I2003
sg55
V224
p275
sbag1
(g2
g3
NtRp276
(dp277
g65
V10.1104/pp.104.047019
p278
sg61
VPLANT PHYSIOL
p279
sg63
V136
p280
sg95
(lp281
(VSCHEIBLE
VW R
tp282
asg17
I2004
sg55
VLANT
p283
sbag1
(g2
g3
NtRp284
(dp285
g65
V10.1093/bioinformatics/bti033
p286
sg61
VBIOINFORMATICS
p287
sg63
V21
p288
sg95
(lp289
(VSTATNIKOV
VA
tp290
asg17
I2005
sg55
V631
p291
sbag1
(g2
g3
NtRp292
(dp293
g65
V10.1093/bioinformatics/bth398
p294
sg61
VBIOINFORMATICS
p295
sg63
V20
p296
sg95
(lp297
(VSTEINHAUSER
VD
tp298
asg17
I2004
sg55
V3647
p299
sbag1
(g2
g3
NtRp300
(dp301
g65
V10.1016/S0958-1669(03)00023-5
p302
sg61
VCURR OPIN BIOTECH
p303
sg63
V14
p304
sg95
(lp305
(VSTITT
VM
tp306
asg17
I2003
sg55
V136
p307
sbag1
(g2
g3
NtRp308
(dp309
g65
V10.1111/j.1365-313X.2004.02016.x
p310
sg61
VPLANT J
p311
sg63
V37
p312
sg95
(lp313
(VTHIMM
VO
tp314
asg17
I2004
sg55
VLANT
p315
sbag1
(g2
g3
NtRp316
(dp317
g65
V10.1104/pp.044610
p318
sg61
VPLANT PHYSIOL
p319
sg63
V136
p320
sg95
(lp321
(VWANG
VR C
tp322
asg17
I2004
sg55
VLANT
p323
sbag1
(g2
g3
NtRp324
(dp325
g65
V10.1104/pp.103.021253
p326
sg61
VPLANT PHYSIOL
p327
sg63
V132
p328
sg95
(lp329
(VWANG
VR C
tp330
asg17
I2003
sg55
VLANT
p331
sbag1
(g2
g3
NtRp332
(dp333
g65
V10.1007/s004250000450
p334
sg61
VPLANTA
p335
sg63
V212
p336
sg95
(lp337
(VZAKHLENIUK
VO V
tp338
asg17
I2001
sg55
VLANTA
p339
sbag1
(g2
g3
NtRp340
(dp341
g65
V10.1104/pp.104.046367
p342
sg61
VPLANT PHYSIOL
p343
sg63
V136
p344
sg95
(lp345
(VZIMMERMANN
VP
tp346
asg17
I2004
sg55
VLANT
p347
sbasb.