ccopy_reg
_reconstructor
p1
(ctethne.classes.paper
Paper
p2
c__builtin__
object
p3
NtRp4
(dp5
S'publisherCity'
p6
VROCKVILLE
p7
sS'reprintAddress'
p8
VSchnittger, A (reprint author), Univ Cologne, Dept Bot 3, Univ Grp,Max Planck Inst Plant Breeding Res, Max Delbruck Lab, D-50829 Cologne, Germany.
p9
sS'WC'
p10
VPlant Sciences
p11
sS'GA'
p12
V369UN
p13
sS'FX'
p14
(lp15
VThis work was supported by the National Science Foundation (grant nos.
p16
aVIOB-0444560 and IBN-0110418 to J.L. and G. B.), the Deutsche
p17
aVForschungsgemeinschaft (grant no. SFB 572), Volkswagen-Stiftung, and the
p18
aVCNRS (ATIP grant to A. S.).
p19
asS'abstract'
p20
VLeaf hairs (trichomes) of Arabidopsis (Arabidopsis thaliana) have been extensively used as a model to address general questions in cell and developmental biology. Here, we lay the foundation for a systems-level understanding of the biology of this model cell type by performing genome-wide gene expression analyses. We have identified 3,231 genes that are up-regulated in mature trichomes relative to leaves without trichomes, and we compared wild-type trichomes with two mutants, glabra3 and triptychon, that affect trichome morphology and physiology in contrasting ways. We found that cell wall-related transcripts were particularly overrepresented in trichomes, consistent with their highly elaborated structure. In addition, trichome expression maps revealed high activities of anthocyanin, flavonoid, and glucosinolate pathways, indicative of the roles of trichomes in the biosynthesis of secondary compounds and defense. Interspecies comparisons revealed that Arabidopsis trichomes share many expressed genes with cotton (Gossypium hirsutum) fibers, making them an attractive model to study industrially important fibers. In addition to identifying physiological processes involved in the development of a specific cell type, we also demonstrated the utility of transcript profiling for identifying and analyzing regulatory gene function. One of the genes that are differentially expressed in fibers is the MYB transcription factor GhMYB25. A combination of transcript profiling and map-based cloning revealed that the NOECK gene of Arabidopsis encodes AtMYB106, a MIXTA-like transcription factor and homolog of cotton GhMYB25. However, in contrast to Antirrhinum, in which MIXTA promotes epidermal cell outgrowth, AtMYB106 appears to function as a repressor of cell outgrowth in Arabidopsis.
p21
sS'pageEnd'
p22
I1602
sS'date'
p23
I2008
sS'documentType'
p24
VArticle
p25
sS'subject'
p26
VPlant Sciences
p27
sS'isoSource'
p28
VPlant Physiol.
p29
sS'timesCited'
p30
(lp31
I48
aVZ9 52
p32
asS'funding'
p33
(lp34
(VNational Science Foundation
VIOB-0444560, IBN-0110418
tp35
a(VDeutsche Forschungsgemeinschaft
VSFB 572
tp36
a(VVolkswagen-Stiftung
Ntp37
a(VCNRS
Ntp38
asS'PT'
p39
VJ
sS'title'
p40
VTranscriptional Profiling Of Mature Arabidopsis Trichomes Reveals That Noeck Encodes The Mixta-Like Transcriptional Regulator Myb106
p41
sS'ISSN'
p42
(lp43
V0032-0889
p44
aVJ9 PLANT PHYSIOL
p45
asS'authors_full'
p46
(lp47
(VJAKOBY
VMARC J
tp48
a(VFALKENHAN
VDORIS
tp49
a(VMADER
VMICHAEL T
tp50
a(VBRININSTOOL
VGINGER
tp51
a(VWISCHNITZKI
VELISABETH
tp52
a(VPLATZ
VNICOLE
tp53
a(VHUDSON
VANDREW
tp54
a(VLSKAMP
VMARTIN HU R
tp55
a(VLARKIN
VJOHN
tp56
a(VSCHNITTGER
VARP
tp57
asS'PG'
p58
I20
sS'PD'
p59
VNOV
p60
sS'pageStart'
p61
I1583
sS'issue'
p62
I3
sS'RI'
p63
VSchnittger, Arp/F-8989-2010
p64
sS'journal'
p65
VPLANT PHYSIOLOGY
p66
sS'volume'
p67
V148
p68
sS'doi'
p69
V10.1104/pp.108.126979
p70
sS'emailAddress'
p71
Varp.schnittger@ibmp-ulp.u-strasbg.fr
p72
sS'authorAddress'
p73
(lp74
V[Jakoby, Marc J.; Falkenhan, Doris; Schnittger, Arp] Univ Cologne, Dept Bot 3, Univ Grp,Max Planck Inst Plant Breeding Res, Max Delbruck Lab, D-50829 Cologne, Germany.
p75
aV[Mader, Michael T.] GSF Natl Res Ctr Environm & Hlth, Inst Stem Cell Res, D-85764 Neuherberg, Germany.
p76
aV[Brininstool, Ginger; Larkin, John] Louisiana State Univ, Dept Biol Sci, Baton Rouge, LA 70803 USA.
p77
aV[Wischnitzki, Elisabeth] Univ Ghent, Dept Plant Syst Biol, VIB, B-9052 Ghent, Belgium.
p78
aV[Platz, Nicole; Lskamp, Martin Hu R.] Univ Cologne, Dept Bot 3, D-50931 Cologne, Germany.
p79
aV[Hudson, Andrew] Univ Edinburgh, Inst Mol Plant Sci, Edinburgh EH9 3JH, Midlothian, Scotland.
p80
aV[Schnittger, Arp] CNRS, Inst Biol Mol Plantes, UPR 2357, F-67084 Strasbourg, France.
p81
asS'publisherAddress'
p82
V15501 MONONA DRIVE, ROCKVILLE, MD 20855 USA
p83
sS'ER'
p84
V
sS'publisher'
p85
VAMER SOC PLANT BIOLOGISTS
p86
sS'authorKeywords'
p87
(lp88
VEPIDERMAL-CELL DIFFERENTIATION
p89
aVDEPENDENT KINASE INHIBITORS
p90
aVMOLECULAR-GENETIC ANALYSIS
p91
aVEXPRESSED SEQUENCE TAGS
p92
aVPOLLEN TRANSCRIPTOME
p93
aVFUNCTIONAL GENOMICS
p94
aVGLANDULAR TRICHOMES
p95
aVPLANT TRICHOME
p96
aVTHALIANA
p97
aVROOT
p98
asS'OI'
p99
VSchnittger, Arp/0000-0001-7067-0091
p100
sS'language'
p101
VEnglish
p102
sS'wosid'
p103
VWOS:000260719500033
p104
sS'citationCount'
p105
I88
sS'authors_init'
p106
(lp107
(VJAKOBY
VM J
tp108
a(VFALKENHAN
VD
tp109
a(VMADER
VM T
tp110
a(VBRININSTOOL
VG
tp111
a(VWISCHNITZKI
VE
tp112
a(VPLATZ
VN
tp113
a(VHUDSON
VA
tp114
a(VLSKAMP
VM H R
tp115
a(VLARKIN
VJ
tp116
a(VSCHNITTGER
VA
tp117
asS'citedReferences'
p118
(lp119
g1
(g2
g3
NtRp120
(dp121
g69
V10.1126/science.1086391
p122
sg65
VSCIENCE
p123
sg67
V301
p124
sg106
(lp125
(VALONSO
VJ M
tp126
asg23
I2003
sg61
V653
p127
sbag1
(g2
g3
NtRp128
(dp129
g69
V10.1007/s11103-004-0392-y
p130
sg65
VPLANT MOL BIOL
p131
sg67
V54
p132
sg106
(lp133
(VARPAT
VA B
tp134
asg23
I2004
sg61
VLANT
p135
sbag1
(g2
g3
NtRp136
(dp137
g69
V10.1046/j.1365-313X.1993.03040553.x
p138
sg65
VPLANT J
p139
sg67
V3
sg106
(lp140
(VAVILA
VJ
tp141
asg23
I1993
sg61
VLANT
p142
sbag1
(g2
g3
NtRp143
(dp144
g69
V10.1007/s00425-004-1424-1
p145
sg65
VPLANTA
p146
sg67
V221
p147
sg106
(lp148
(VAZIZ
VN
tp149
asg23
I2005
sg61
VLANTA
p150
sbag1
(g2
g3
NtRp151
(dp152
g69
V10.1093/bioinformatics/17.6.509
p153
sg65
VBIOINFORMATICS
p154
sg67
V17
p155
sg106
(lp156
(VBALDI
VP
tp157
asg23
I2001
sg61
V509
p158
sbag1
(g2
g3
NtRp159
(dp160
g69
V10.1242/dev.02836
p161
sg65
VDEVELOPMENT
p162
sg67
V134
p163
sg106
(lp164
(VBAUMANN
VK
tp165
asg23
I2007
sg61
V1691
p166
sbag1
(g2
g3
NtRp167
(dp168
g69
V10.1104/pp.103.028241
p169
sg65
VPLANT PHYSIOL
p170
sg67
V133
p171
sg106
(lp172
(VBECKER
VJ D
tp173
asg23
I2003
sg61
VLANT
p174
sbag1
(g2
g3
NtRp175
(dp176
g69
V10.1104/pp.103.022988
p177
sg65
VPLANT PHYSIOL
p178
sg67
V132
p179
sg106
(lp180
(VBEISSON
VF
tp181
asg23
I2003
sg61
VLANT
p182
sbag1
(g2
g3
NtRp183
(dp184
g69
V10.1242/dev.00880
p185
sg65
VDEVELOPMENT
p186
sg67
V130
p187
sg106
(lp188
(VBERNHARDT
VC
tp189
asg23
I2003
sg61
V6431
p190
sbag1
(g2
g3
NtRp191
(dp192
g69
V10.1126/science.1090022
p193
sg65
VSCIENCE
p194
sg67
V302
p195
sg106
(lp196
(VBIRNBAUM
VK
tp197
asg23
I2003
sg61
V1956
p198
sbag1
(g2
g3
NtRp199
(dp200
g69
Nsg65
VARABIDOPSIS ATLAS MO
p201
sg67
Nsg106
(lp202
(VBOWMAN
VJ
tp203
asg23
I1994
sg61
Nsbag1
(g2
g3
NtRp204
(dp205
g69
V10.1126/science.1146265
p206
sg65
VSCIENCE
p207
sg67
V318
p208
sg106
(lp209
(VBRADY
VS M
tp210
asg23
I2007
sg61
V801
p211
sbag1
(g2
g3
NtRp212
(dp213
g69
V10.1023/A:1010603527077
p214
sg65
VPLANT MOL BIOL
p215
sg67
V47
p216
sg106
(lp217
(VCARPITA
VN
tp218
asg23
I2001
sg61
VLANT
p219
sbag1
(g2
g3
NtRp220
(dp221
g69
V10.1105/tpc.106.044834
p222
sg65
VPLANT CELL
p223
sg67
V18
p224
sg106
(lp225
(VCHURCHMAN
VM L
tp226
asg23
I2006
sg61
VLANT
p227
sbag1
(g2
g3
NtRp228
(dp229
g69
V10.2307/2286407
p230
sg65
VJ AM STAT ASSOC
p231
sg67
V74
p232
sg106
(lp233
(VCLEVELAND
VW S
tp234
asg23
I1979
sg61
V829
p235
sbag1
(g2
g3
NtRp236
(dp237
g69
V10.1105/tpc.050401
p238
sg65
VPLANT CELL
p239
sg67
V19
p240
sg106
(lp241
(VDISSMEYER
VN
tp242
asg23
I2007
sg61
VLANT
p243
sbag1
(g2
g3
NtRp244
(dp245
g69
V10.1111/j.1467-7652.2004.00092.x
p246
sg65
VPLANT BIOTECHNOL J
p247
sg67
V2
sg106
(lp248
(VDOMINGUEZ-SOLIS
VJ R
tp249
asg23
I2004
sg61
VLANT
p250
sbag1
(g2
g3
NtRp251
(dp252
g69
Nsg65
VDEVELOPMENT
p253
sg67
V124
p254
sg106
(lp255
(VFOLKERS
VU
tp256
asg23
I1997
sg61
V3779
p257
sbag1
(g2
g3
NtRp258
(dp259
g69
Nsg65
VDEVELOPMENT
p260
sg67
V125
p261
sg106
(lp262
(VGLOVER
VB J
tp263
asg23
I1998
sg61
V3497
p264
sbag1
(g2
g3
NtRp265
(dp266
g69
V10.1073/pnas.190334497
p267
sg65
VP NATL ACAD SCI USA
p268
sg67
V97
p269
sg106
(lp270
(VGUTIERREZ-ALCALA
VG
tp271
asg23
I2000
sg61
V11108
p272
sbag1
(g2
g3
NtRp273
(dp274
g69
V10.1002/dvg.1020090202
p275
sg65
VDEV GENET
p276
sg67
V9
sg106
(lp277
(VHAUGHN
VG W
tp278
asg23
I1988
sg61
V73
p279
sbag1
(g2
g3
NtRp280
(dp281
g69
Nsg65
VMOL BIOL EVOL
p282
sg67
V18
p283
sg106
(lp284
(VHAUSER
VM T
tp285
asg23
I2001
sg61
V1754
p286
sbag1
(g2
g3
NtRp287
(dp288
g69
V10.1104/pp.103.020925
p289
sg65
VPLANT PHYSIOL
p290
sg67
V132
p291
sg106
(lp292
(VHONYS
VD
tp293
asg23
I2003
sg61
VLANT
p294
sbag1
(g2
g3
NtRp295
(dp296
g69
V10.1016/S0960-9822(00)00437-1
p297
sg65
VCURR BIOL
p298
sg67
V10
p299
sg106
(lp300
(VHULSKAMP
VM
tp301
asg23
I2000
sg61
VR308
p302
sbag1
(g2
g3
NtRp303
(dp304
g69
V10.1016/0092-8674(94)90118-X
p305
sg65
VCELL
p306
sg67
V76
p307
sg106
(lp308
(VHULSKAMP
VM
tp309
asg23
I1994
sg61
V555
p310
sbag1
(g2
g3
NtRp311
(dp312
g69
V10.1007/s11103-004-6768-1
p313
sg65
VPLANT MOL BIOL
p314
sg67
V57
p315
sg106
(lp316
(VHUMPHRIES
VJ A
tp317
asg23
I2005
sg61
VLANT
p318
sbag1
(g2
g3
NtRp319
(dp320
g69
V10.1104/pp.104.051318
p321
sg65
VPLANT PHYSIOL
p322
sg67
V136
p323
sg106
(lp324
(VIIJIMA
VY
tp325
asg23
I2004
sg61
VLANT
p326
sbag1
(g2
g3
NtRp327
(dp328
g69
V10.1105/tpc.107.052274
p329
sg65
VPLANT CELL
p330
sg67
V19
p331
sg106
(lp332
(VISHIDA
VT
tp333
asg23
I2007
sg61
VLANT
p334
sbag1
(g2
g3
NtRp335
(dp336
g69
V10.1104/pp.106.081406
p337
sg65
VPLANT PHYSIOL
p338
sg67
V141
p339
sg106
(lp340
(VJAKOBY
VM J
tp341
asg23
I2006
sg61
VLANT
p342
sbag1
(g2
g3
NtRp343
(dp344
g69
V10.1105/tpc.001404
p345
sg65
VPLANT CELL
p346
sg67
V14
p347
sg106
(lp348
(VJOHNSON
VC S
tp349
asg23
I2002
sg61
VLANT
p350
sbag1
(g2
g3
NtRp351
(dp352
g69
V10.1111/j.1365-313X.2005.02609.x
p353
sg65
VPLANT J
p354
sg67
V45
p355
sg106
(lp356
(VJONES
VM A
tp357
asg23
I2006
sg61
VLANT
p358
sbag1
(g2
g3
NtRp359
(dp360
g69
V10.1016/j.ydbio.2003.12.037
p361
sg65
VDEV BIOL
p362
sg67
V268
p363
sg106
(lp364
(VKIRIK
VV
tp365
asg23
I2004
sg61
V506
p366
sbag1
(g2
g3
NtRp367
(dp368
g69
V10.1007/s11103-004-0893-8
p369
sg65
VPLANT MOL BIOL
p370
sg67
V55
p371
sg106
(lp372
(VKIRIK
VV
tp373
asg23
I2004
sg61
VLANT
p374
sbag1
(g2
g3
NtRp375
(dp376
g69
V10.1046/j.1365-313X.2003.01854.x
p377
sg65
VPLANT J
p378
sg67
V36
p379
sg106
(lp380
(VKURATA
VT
tp381
asg23
I2003
sg61
VLANT
p382
sbag1
(g2
g3
NtRp383
(dp384
g69
V10.1073/pnas.97.6.2934
p385
sg65
VP NATL ACAD SCI USA
p386
sg67
V97
p387
sg106
(lp388
(VLANGE
VB M
tp389
asg23
I2000
sg61
V2934
p390
sbag1
(g2
g3
NtRp391
(dp392
g69
V10.1146/annurev.arplant.54.031902.134823
p393
sg65
VANNU REV PLANT BIOL
p394
sg67
V54
p395
sg106
(lp396
(VLARKIN
VJ C
tp397
asg23
I2003
sg61
V403
p398
sbag1
(g2
g3
NtRp399
(dp400
g69
Nsg65
VGENETICS
p401
sg67
V151
p402
sg106
(lp403
(VLARKIN
VJ C
tp404
asg23
I1999
sg61
V1591
p405
sbag1
(g2
g3
NtRp406
(dp407
g69
V10.1105/tpc.019000
p408
sg65
VPLANT CELL
p409
sg67
V16
p410
sg106
(lp411
(VLEONHARDT
VN
tp412
asg23
I2004
sg61
VLANT
p413
sbag1
(g2
g3
NtRp414
(dp415
g69
V10.1126/science.1465611
p416
sg65
VSCIENCE
p417
sg67
V258
p418
sg106
(lp419
(VLLOYD
VA M
tp420
asg23
I1992
sg61
V1773
p421
sbag1
(g2
g3
NtRp422
(dp423
g69
V10.1104/pp.123.3.795
p424
sg65
VPLANT PHYSIOL
p425
sg67
V123
p426
sg106
(lp427
(VLUKOWITZ
VW
tp428
asg23
I2000
sg61
VLANT
p429
sbag1
(g2
g3
NtRp430
(dp431
g69
Nsg65
VDEVELOPMENT
p432
sg67
V126
p433
sg106
(lp434
(VLUO
VD L
tp435
asg23
I1999
sg61
V5547
p436
sbag1
(g2
g3
NtRp437
(dp438
g69
V10.1105/tpc.009837
p439
sg65
VPLANT CELL
p440
sg67
V15
p441
sg106
(lp442
(VMADSON
VM
tp443
asg23
I2003
sg61
VLANT
p444
sbag1
(g2
g3
NtRp445
(dp446
g69
V10.1093/bioinformatics/bti551
p447
sg65
VBIOINFORMATICS
p448
sg67
V21
p449
sg106
(lp450
(VMAERE
VS
tp451
asg23
I2005
sg61
V3448
p452
sbag1
(g2
g3
NtRp453
(dp454
g69
V10.1146/annurev.arplant.48.1.137
p455
sg65
VANNU REV PLANT PHYS
p456
sg67
V48
p457
sg106
(lp458
(VMARKS
VM D
tp459
asg23
I1997
sg61
V137
p460
sbag1
(g2
g3
NtRp461
(dp462
g69
V10.1073/pnas.95.5.2021
p463
sg65
VP NATL ACAD SCI USA
p464
sg67
V95
p465
sg106
(lp466
(VMARTIENSSEN
VR A
tp467
asg23
I1998
sg61
V2021
p468
sbag1
(g2
g3
NtRp469
(dp470
g69
V10.1016/j.pbi.2006.11.004
p471
sg65
VCURR OPIN PLANT BIOL
p472
sg67
V10
p473
sg106
(lp474
(VMARTIN
VC
tp475
asg23
I2007
sg61
V70
p476
sbag1
(g2
g3
NtRp477
(dp478
g69
V10.1104/pp.107.104521
p479
sg65
VPLANT PHYSIOL
p480
sg67
V145
p481
sg106
(lp482
(VMOROHASHI
VK
tp483
asg23
I2007
sg61
VLANT
p484
sbag1
(g2
g3
NtRp485
(dp486
g69
V10.1104/pp.106.077388
p487
sg65
VPLANT PHYSIOL
p488
sg67
V141
p489
sg106
(lp490
(VNAKAMURA
VM
tp491
asg23
I2006
sg61
VLANT
p492
sbag1
(g2
g3
NtRp493
(dp494
g69
V10.1105/tpc.105.031724
p495
sg65
VPLANT CELL
p496
sg67
V17
p497
sg106
(lp498
(VNAWY
VT
tp499
asg23
I2005
sg61
VLANT
p500
sbag1
(g2
g3
NtRp501
(dp502
g69
V10.1038/369661a0
p503
sg65
VNATURE
p504
sg67
V369
p505
sg106
(lp506
(VNODA
VK
tp507
asg23
I1994
sg61
V661
p508
sbag1
(g2
g3
NtRp509
(dp510
g69
Nsg65
VGENETICS
p511
sg67
V156
p512
sg106
(lp513
(VPAYNE
VC T
tp514
asg23
I2000
sg61
V1349
p515
sbag1
(g2
g3
NtRp516
(dp517
g69
V10.1074/jbc.M703326200
p518
sg65
VJ BIOL CHEM
p519
sg67
V282
p520
sg106
(lp521
(VPERES
VA
tp522
asg23
I2007
sg61
V25588
p523
sbag1
(g2
g3
NtRp524
(dp525
g69
V10.1016/j.gde.2004.06.007
p526
sg65
VCURR OPIN GENET DEV
p527
sg67
V14
p528
sg106
(lp529
(VPESCH
VM
tp530
asg23
I2004
sg61
V422
p531
sbag1
(g2
g3
NtRp532
(dp533
g69
V10.1104/pp.104.057935
p534
sg65
VPLANT PHYSIOL
p535
sg67
V138
p536
sg106
(lp537
(VPINA
VC
tp538
asg23
I2005
sg61
VLANT
p539
sbag1
(g2
g3
NtRp540
(dp541
g69
V10.1046/j.1365-313X.1997.12020335.x
p542
sg65
VPLANT J
p543
sg67
V12
p544
sg106
(lp545
(VREITER
VW D
tp546
asg23
I1997
sg61
VLANT
p547
sbag1
(g2
g3
NtRp548
(dp549
g69
V10.1023/B:PLAN.0000009297.37235.4a
p550
sg65
VPLANT MOL BIOL
p551
sg67
V53
p552
sg106
(lp553
(VROSSO
VM G
tp554
asg23
I2003
sg61
VLANT
p555
sbag1
(g2
g3
NtRp556
(dp557
g69
Nsg65
VCAN J BOT
p558
sg67
V78
p559
sg106
(lp560
(VRUMBOLZ
VJ
tp561
asg23
I1999
sg61
V409
p562
sbag1
(g2
g3
NtRp563
(dp564
g69
V10.1007/s11103-004-4951-z
p565
sg65
VPLANT MOL BIOL
p566
sg67
V56
p567
sg106
(lp568
(VSAEDLER
VR
tp569
asg23
I2004
sg61
VLANT
p570
sbag1
(g2
g3
NtRp571
(dp572
g69
V10.1093/emboj/cdf524
p573
sg65
VEMBO J
p574
sg67
V21
p575
sg106
(lp576
(VSCHELLMANN
VS
tp577
asg23
I2002
sg61
V5036
p578
sbag1
(g2
g3
NtRp579
(dp580
g69
Nsg65
VBIOCHEM SOC T
p581
sg67
V35
p582
sg106
(lp583
(VSCHELLMANN
VS
tp584
asg23
I2007
sg61
V146
p585
sbag1
(g2
g3
NtRp586
(dp587
g69
V10.1387/ijdb.051983ss
p588
sg65
VINT J DEV BIOL
p589
sg67
V49
p590
sg106
(lp591
(VSCHELLMANN
VS
tp592
asg23
I2005
sg61
V579
p593
sbag1
(g2
g3
NtRp594
(dp595
g69
V10.1105/tpc.008342
p596
sg65
VPLANT CELL
p597
sg67
V15
p598
sg106
(lp599
(VSCHNITTGER
VA
tp600
asg23
I2003
sg61
VLANT
p601
sbag1
(g2
g3
NtRp602
(dp603
g69
V10.1105/tpc.11.6.1105
p604
sg65
VPLANT CELL
p605
sg67
V11
p606
sg106
(lp607
(VSCHNITTGER
VA
tp608
asg23
I1999
sg61
VLANT
p609
sbag1
(g2
g3
NtRp610
(dp611
g69
V10.1016/j.tplants.2006.04.008
p612
sg65
VTRENDS PLANT SCI
p613
sg67
V11
p614
sg106
(lp615
(VSERNA
VL
tp616
asg23
I2006
sg61
V274
p617
sbag1
(g2
g3
NtRp618
(dp619
g69
V10.1016/j.ydbio.2007.09.001
p620
sg65
VDEV BIOL
p621
sg67
V311
p622
sg106
(lp623
(VSIMON
VM
tp624
asg23
I2007
sg61
V566
p625
sbag1
(g2
g3
NtRp626
(dp627
g69
V10.1016/S1369-5266(00)00199-0
p628
sg65
VCURR OPIN PLANT BIOL
p629
sg67
V4
sg106
(lp630
(VSTRACKE
VR
tp631
asg23
I2001
sg61
V447
p632
sbag1
(g2
g3
NtRp633
(dp634
g69
V10.1016/j.pbi.2004.11.004
p635
sg65
VCURR OPIN PLANT BIOL
p636
sg67
V8
sg106
(lp637
(VSZYMANSKI
VD B
tp638
asg23
I2005
sg61
V103
p639
sbag1
(g2
g3
NtRp640
(dp641
g69
Nsg65
VDEVELOPMENT
p642
sg67
V125
p643
sg106
(lp644
(VSZYMANSKI
VD B
tp645
asg23
I1998
sg61
V1161
p646
sbag1
(g2
g3
NtRp647
(dp648
g69
V10.1016/S1360-1385(00)01597-1
p649
sg65
VTRENDS PLANT SCI
p650
sg67
V5
sg106
(lp651
(VSZYMANSKI
VD B
tp652
asg23
I2000
sg61
V214
p653
sbag1
(g2
g3
NtRp654
(dp655
g69
V10.1242/dev.017947
p656
sg65
VDEVELOPMENT
p657
sg67
V135
p658
sg106
(lp659
(VTOMINAGA
VR
tp660
asg23
I2008
sg61
V1335
p661
sbag1
(g2
g3
NtRp662
(dp663
g69
Nsg65
VPLANT HAIRS
p664
sg67
Nsg106
(lp665
(VUPHOF
VJ C T
tp666
asg23
I1962
sg61
VLANT
p667
sbag1
(g2
g3
NtRp668
(dp669
g69
V10.1073/pnas.052450699
p670
sg65
VP NATL ACAD SCI USA
p671
sg67
V99
p672
sg106
(lp673
(VVANZIN
VG F
tp674
asg23
I2002
sg61
V3340
p675
sbag1
(g2
g3
NtRp676
(dp677
g69
V10.1126/science.277.5329.1113
p678
sg65
VSCIENCE
p679
sg67
V277
p680
sg106
(lp681
(VWADA
VT
tp682
asg23
I1997
sg61
V1113
p683
sbag1
(g2
g3
NtRp684
(dp685
g69
V10.1093/aob/mch011
p686
sg65
VANN BOT
p687
sg67
V93
p688
sg106
(lp689
(VWAGNER
VG J
tp690
asg23
I2004
sg61
V3
sbag1
(g2
g3
NtRp691
(dp692
g69
Nsg65
VDEVELOPMENT
p693
sg67
V127
p694
sg106
(lp695
(VWALKER
VJ D
tp696
asg23
I2000
sg61
V3931
p697
sbag1
(g2
g3
NtRp698
(dp699
g69
V10.1105/tpc.104.024844
p700
sg65
VPLANT CELL
p701
sg67
V16
p702
sg106
(lp703
(VWANG
VS
tp704
asg23
I2004
sg61
VLANT
p705
sbag1
(g2
g3
NtRp706
(dp707
g69
V10.1242/dev.009597
p708
sg65
VDEVELOPMENT
p709
sg67
V134
p710
sg106
(lp711
(VWANG
VS C
tp712
asg23
I2007
sg61
V3873
p713
sbag1
(g2
g3
NtRp714
(dp715
g69
V10.1105/tpc.104.030486
p716
sg65
VPLANT CELL
p717
sg67
V17
p718
sg106
(lp719
(VWEINL
VC
tp720
asg23
I2005
sg61
VLANT
p721
sbag1
(g2
g3
NtRp722
(dp723
g69
V10.1073/pnas.171285998
p724
sg65
VP NATL ACAD SCI USA
p725
sg67
V98
p726
sg106
(lp727
(VWELLESEN
VK
tp728
asg23
I2001
sg61
V9694
p729
sbag1
(g2
g3
NtRp730
(dp731
g69
V10.1016/S0735-2689(01)80007-1
p732
sg65
VCRIT REV PLANT SCI
p733
sg67
V19
p734
sg106
(lp735
(VWILKINS
VT A
tp736
asg23
I2000
sg61
V511
p737
sbag1
(g2
g3
NtRp738
(dp739
g69
V10.1007/s11427-006-0105-7
p740
sg65
VSCI CHINA SER C
p741
sg67
V49
p742
sg106
(lp743
(VWU
VA M
tp744
asg23
I2006
sg61
V105
p745
sbag1
(g2
g3
NtRp746
(dp747
g69
V10.1093/pcp/pci228
p748
sg65
VPLANT CELL PHYSIOL
p749
sg67
V47
p750
sg106
(lp751
(VWU
VY R
tp752
asg23
I2006
sg61
VLANT
p753
sbag1
(g2
g3
NtRp754
(dp755
g69
V10.1104/pp.115.3.925
p756
sg65
VPLANT PHYSIOL
p757
sg67
V115
p758
sg106
(lp759
(VXIA
VY J
tp760
asg23
I1997
sg61
VLANT
p761
sbag1
(g2
g3
NtRp762
(dp763
g69
V10.1105/tpc.11.11.2187
p764
sg65
VPLANT CELL
p765
sg67
V11
p766
sg106
(lp767
(VYEPHREMOV
VA
tp768
asg23
I1999
sg61
VLANT
p769
sbag1
(g2
g3
NtRp770
(dp771
g69
V10.1242/dev.00681
p772
sg65
VDEVELOPMENT
p773
sg67
V130
p774
sg106
(lp775
(VZHANG
VF
tp776
asg23
I2003
sg61
V4859
p777
sbag1
(g2
g3
NtRp778
(dp779
g69
V10.1093/pcp/pch016
p780
sg65
VPLANT CELL PHYSIOL
p781
sg67
V45
p782
sg106
(lp783
(VZHANG
VX G
tp784
asg23
I2004
sg61
VLANT
p785
sbag1
(g2
g3
NtRp786
(dp787
g69
V10.1242/dev.016873
p788
sg65
VDEVELOPMENT
p789
sg67
V135
p790
sg106
(lp791
(VZHAO
VM
tp792
asg23
I2008
sg61
V1991
p793
sbag1
(g2
g3
NtRp794
(dp795
g69
V10.1105/tpc.104.030155
p796
sg65
VPLANT CELL
p797
sg67
V17
p798
sg106
(lp799
(VZHENG
VH Q
tp800
asg23
I2005
sg61
VLANT
p801
sbasb.