ccopy_reg
_reconstructor
p1
(ctethne.classes.paper
Paper
p2
c__builtin__
object
p3
NtRp4
(dp5
S'publisherCity'
p6
VROCKVILLE
p7
sS'reprintAddress'
p8
VJarvis, MC (reprint author), Univ Glasgow, Sch Chem, Glasgow G12 8QQ, Lanark, Scotland.
p9
sS'WC'
p10
VPlant Sciences
p11
sS'GA'
p12
V062ZP
p13
sS'FX'
p14
(lp15
VThis work was supported by the Biotechnology and Biological Science
p16
aVResearch Council of the United Kingdom (grant no. D13382), the
p17
aVEngineering and Physical Sciences Research Council (support for the
p18
aVsolid-state NMR facility at Durham), the Scottish Funding Council
p19
aV(Scottish Integrated Research on Timber Programme Fellowship to C.M.A.),
p20
aVthe Grant Agency of the Czech Republic (grant no. P108/12/0703 to A.S.),
p21
aVand the Institut Laue-Langevin, Grenoble, France (beamtime support).
p22
asS'abstract'
p23
VIn the primary walls of growing plant cells, the glucose polymer cellulose is assembled into long microfibrils a few nanometers in diameter. The rigidity and orientation of these microfibrils control cell expansion; therefore, cellulose synthesis is a key factor in the growth and morphogenesis of plants. Celery (Apium graveolens) collenchyma is a useful model system for the study of primary wall microfibril structure because its microfibrils are oriented with unusual uniformity, facilitating spectroscopic and diffraction experiments. Using a combination of x-ray and neutron scattering methods with vibrational and nuclear magnetic resonance spectroscopy, we show that celery collenchyma microfibrils were 2.9 to 3.0 nm in mean diameter, with a most probable structure containing 24 chains in cross section, arranged in eight hydrogen-bonded sheets of three chains, with extensive disorder in lateral packing, conformation, and hydrogen bonding. A similar 18-chain structure, and 24-chain structures of different shape, fitted the data less well. Conformational disorder was largely restricted to the surface chains, but disorder in chain packing was not. That is, in position and orientation, the surface chains conformed to the disordered lattice constituting the core of each microfibril. There was evidence that adjacent microfibrils were noncovalently aggregated together over part of their length, suggesting that the need to disrupt these aggregates might be a constraining factor in growth and in the hydrolysis of cellulose for biofuel production.
p24
sS'pageEnd'
p25
I476
sS'date'
p26
I2013
sS'documentType'
p27
VArticle
p28
sS'subject'
p29
VPlant Sciences
p30
sS'isoSource'
p31
VPlant Physiol.
p32
sS'timesCited'
p33
(lp34
I5
aVZ9 5
p35
asS'funding'
p36
(lp37
(VBiotechnology and Biological Science Research Council of the United Kingdom
VD13382
tp38
a(VEngineering and Physical Sciences Research Council
Ntp39
a(VScottish Funding Council (Scottish Integrated Research on Timber Programme Fellowship)
Ntp40
a(VGrant Agency of the Czech Republic
VP108/12/0703
tp41
a(VInstitut Laue-Langevin, Grenoble, France
Ntp42
asS'PT'
p43
VJ
sS'title'
p44
VStructure Of Cellulose Microfibrils In Primary Cell Walls From Collenchyma
p45
sS'ISSN'
p46
(lp47
V0032-0889
p48
aVJ9 PLANT PHYSIOL
p49
asS'authors_full'
p50
(lp51
(VTHOMAS
VLYNNE H
tp52
a(VFORSYTH
VV TREVOR
tp53
a(VSTURCOVA
VADRIANA
tp54
a(VKENNEDY
VCRAIG J
tp55
a(VMAY
VROLAND P
tp56
a(VALTANER
VCLEMENS M
tp57
a(VAPPERLEY
VDAVID C
tp58
a(VWESS
VTIMOTHY J
tp59
a(VJARVIS
VMICHAEL C
tp60
asS'PG'
p61
I12
sS'PD'
p62
VJAN
p63
sS'pageStart'
p64
I465
sS'issue'
p65
I1
sS'RI'
p66
VThomas, Lynne/C-4612-2011; Forsyth, Trevor/A-9129-2010
p67
sS'journal'
p68
VPLANT PHYSIOLOGY
p69
sS'volume'
p70
V161
p71
sS'doi'
p72
V10.1104/pp.112.206359
p73
sS'emailAddress'
p74
Vmikej@chem.gla.ac.uk
p75
sS'authorAddress'
p76
(lp77
V[Thomas, Lynne H.] Univ Bath, Dept Chem, Bath BA2 7AY, Avon, England.
p78
aV[Forsyth, V. Trevor; May, Roland P.] Inst Max Von Laue Paul Langevin, F-38042 Grenoble 9, France.
p79
aV[Forsyth, V. Trevor] Keele Univ, Inst Sci & Technol Med, Res Inst Environm Phys Sci & Appl Math, Keele ST5 5BG, Staffs, England.
p80
aV[Sturcova, Adriana] Acad Sci Czech Republic, Inst Macromol Chem, CR-16206 Prague 6, Czech Republic.
p81
aV[Kennedy, Craig J.] Hist Scotland, Edinburgh EH9 1SH, Midlothian, Scotland.
p82
aV[Altaner, Clemens M.] Univ Canterbury, Sch Forestry, Christchurch 8140, New Zealand.
p83
aV[Apperley, David C.] Univ Durham, Dept Chem, Durham DH1 3LE, England.
p84
aV[Wess, Timothy J.] Cardiff Univ, Sch Optometry & Vis Sci, Cardiff CF24 4LU, S Glam, Wales.
p85
aV[Jarvis, Michael C.] Univ Glasgow, Sch Chem, Glasgow G12 8QQ, Lanark, Scotland.
p86
asS'publisherAddress'
p87
V15501 MONONA DRIVE, ROCKVILLE, MD 20855 USA
p88
sS'ER'
p89
V
sS'publisher'
p90
VAMER SOC PLANT BIOLOGISTS
p91
sS'authorKeywords'
p92
(lp93
VATOMIC-FORCE MICROSCOPY
p94
aVNEUTRON FIBER DIFFRACTION
p95
aVHYDROGEN-BONDING SYSTEM
p96
aVSPIN-DIFFUSION NMR
p97
aVSYNCHROTRON X-RAY
p98
aVBIOMASS RECALCITRANCE
p99
aVSPATIAL RELATIONSHIPS
p100
aVCRYSTAL-STRUCTURE
p101
aVHIGHER-PLANTS
p102
aVCROSS-LINKS
p103
asS'OI'
p104
VThomas, Lynne/0000-0003-3325-9644; 
p105
sS'language'
p106
VEnglish
p107
sS'wosid'
p108
VWOS:000312964000037
p109
sS'citationCount'
p110
I60
sS'authors_init'
p111
(lp112
(VTHOMAS
VL H
tp113
a(VFORSYTH
VV T
tp114
a(VSTURCOVA
VA
tp115
a(VKENNEDY
VC J
tp116
a(VMAY
VR P
tp117
a(VALTANER
VC M
tp118
a(VAPPERLEY
VD C
tp119
a(VWESS
VT J
tp120
a(VJARVIS
VM C
tp121
asS'citedReferences'
p122
(lp123
g1
(g2
g3
NtRp124
(dp125
g72
V10.1515/HF2006.112
p126
sg68
VHOLZFORSCHUNG
p127
sg70
V60
p128
sg111
(lp129
(VALTANER
VC
tp130
asg26
I2006
sg64
V665
p131
sbag1
(g2
g3
NtRp132
(dp133
g72
V10.1104/pp.109.150128
p134
sg68
VPLANT PHYSIOL
p135
sg70
V152
p136
sg111
(lp137
(VANDERSON
VC T
tp138
asg26
I2010
sg64
VLANT
p139
sbag1
(g2
g3
NtRp140
(dp141
g72
V10.1186/1754-6834-3-4
p142
sg68
VBIOTECHNOL BIOFUELS
p143
sg70
V3
sg111
(lp144
(VARANTES
VV
tp145
asg26
I2010
sg64
Nsbag1
(g2
g3
NtRp146
(dp147
g72
V10.1074/jbc.M807456200
p148
sg68
VJ BIOL CHEM
p149
sg70
V284
p150
sg111
(lp151
(VATANASSOV
VI I
tp152
asg26
I2009
sg64
V3833
p153
sbag1
(g2
g3
NtRp154
(dp155
g72
V10.1006/jsbi.1997.3866
p156
sg68
VJ STRUCT BIOL
p157
sg70
V119
p158
sg111
(lp159
(VBAKER
VA A
tp160
asg26
I1997
sg64
V129
p161
sbag1
(g2
g3
NtRp162
(dp163
g72
V10.1021/jp1106394
p164
sg68
VJ PHYS CHEM B
p165
sg70
V115
p166
sg111
(lp167
(VBECKHAM
VG T
tp168
asg26
I2011
sg64
V4118
p169
sbag1
(g2
g3
NtRp170
(dp171
g72
V10.1021/jp074641t
p172
sg68
VJ PHYS CHEM B
p173
sg70
V112
p174
sg111
(lp175
(VBERGENSTRAHLE
VM
tp176
asg26
I2008
sg64
V2590
p177
sbag1
(g2
g3
NtRp178
(dp179
g72
V10.1093/jxb/erh065
p180
sg68
VJ EXP BOT
p181
sg70
V55
p182
sg111
(lp183
(VBOOTTEN
VT J
tp184
asg26
I2004
sg64
V571
p185
sbag1
(g2
g3
NtRp186
(dp187
g72
V10.1093/icb/icp026
p188
sg68
VINTEGR COMP BIOL
p189
sg70
V49
p190
sg111
(lp191
(VBURGERT
VI
tp192
asg26
I2009
sg64
V69
p193
sbag1
(g2
g3
NtRp194
(dp195
g72
V10.1038/nrm1746
p196
sg68
VNAT REV MOL CELL BIO
p197
sg70
V6
sg111
(lp198
(VCOSGROVE
VD J
tp199
asg26
I2005
sg64
V850
p200
sbag1
(g2
g3
NtRp201
(dp202
g72
V10.1021/jp109798p
p203
sg68
VJ PHYS CHEM B
p204
sg70
V115
p205
sg111
(lp206
(VDAGEL
VD J
tp207
asg26
I2011
sg64
V635
p208
sbag1
(g2
g3
NtRp209
(dp210
g72
V10.1007/BF02228800
p211
sg68
VCELLULOSE
p212
sg70
V3
sg111
(lp213
(VDINAND
VE
tp214
asg26
I1996
sg64
V183
p215
sbag1
(g2
g3
NtRp216
(dp217
g72
V10.1021/bm040068x
p218
sg68
VBIOMACROMOLECULES
p219
sg70
V6
sg111
(lp220
(VFAHLEN
VJ
tp221
asg26
I2005
sg64
V433
p222
sbag1
(g2
g3
NtRp223
(dp224
g72
VDOI 10.1107/S0021889899006020
p225
sg68
VJ APPL CRYSTALLOGR
p226
sg70
V32
p227
sg111
(lp228
(VFARRUGIA
VL J
tp229
asg26
I1999
sg64
V837
p230
sbag1
(g2
g3
NtRp231
(dp232
g72
V10.1073/pnas.1108942108
p233
sg68
VP NATL ACAD SCI USA
p234
sg70
V108
p235
sg111
(lp236
(VFERNANDES
VA N
tp237
asg26
I2011
sg64
VE1195
p238
sbag1
(g2
g3
NtRp239
(dp240
g72
V10.1002/pro.689
p241
sg68
VPROTEIN SCI
p242
sg70
V20
p243
sg111
(lp244
(VFORSBERG
VZ
tp245
asg26
I2011
sg64
VROTEIN
p246
sbag1
(g2
g3
NtRp247
(dp248
g72
V10.1021/jf204853b
p249
sg68
VJ AGR FOOD CHEM
p250
sg70
V60
p251
sg111
(lp252
(VFOSTON
VM
tp253
asg26
I2012
sg64
V1419
p254
sbag1
(g2
g3
NtRp255
(dp256
g72
Nsg68
VPLANT CELL PHYSIOL
p257
sg70
V41
p258
sg111
(lp259
(VFUJINO
VT
tp260
asg26
I2000
sg64
VLANT
p261
sbag1
(g2
g3
NtRp262
(dp263
g72
V10.1111/j.1365-313X.2011.04552.x
p264
sg68
VPLANT J
p265
sg70
V66
p266
sg111
(lp267
(VFUJITA
VM
tp268
asg26
I2011
sg64
VLANT
p269
sbag1
(g2
g3
NtRp270
(dp271
g72
V10.2307/2656967
p272
sg68
VAM J BOT
p273
sg70
V86
p274
sg111
(lp275
(VGREEN
VP B
tp276
asg26
I1999
sg64
V1059
p277
sbag1
(g2
g3
NtRp278
(dp279
g72
V10.1073/pnas.1200352109
p280
sg68
VP NATL ACAD SCI USA
p281
sg70
V109
p282
sg111
(lp283
(VHARRIS
VD M
tp284
asg26
I2012
sg64
V4098
p285
sbag1
(g2
g3
NtRp286
(dp287
g72
V10.1126/science.1137016
p288
sg68
VSCIENCE
p289
sg70
V315
p290
sg111
(lp291
(VHIMMEL
VM E
tp292
asg26
I2007
sg64
V804
p293
sbag1
(g2
g3
NtRp294
(dp295
g72
V10.1007/s10570-008-9252-2
p296
sg68
VCELLULOSE
p297
sg70
V16
p298
sg111
(lp299
(VHORIKAWA
VY
tp300
asg26
I2009
sg64
V1
sbag1
(g2
g3
NtRp301
(dp302
g72
Nsg68
VBIOPHYS J
p303
sg70
V68
p304
sg111
(lp305
(VHULMES
VD J S
tp306
asg26
I1995
sg64
V1661
p307
sbag1
(g2
g3
NtRp308
(dp309
g72
V10.1016/j.foodhyd.2009.09.010
p310
sg68
VFOOD HYDROCOLLOID
p311
sg70
V25
p312
sg111
(lp313
(VJARVIS
VM C
tp314
asg26
I2011
sg64
V257
p315
sbag1
(g2
g3
NtRp316
(dp317
g72
V10.1007/s10570-007-9129-9
p318
sg68
VCELLULOSE
p319
sg70
V14
p320
sg111
(lp321
(VKENNEDY
VC J
tp322
asg26
I2007
sg64
V401
p323
sbag1
(g2
g3
NtRp324
(dp325
g72
V10.1007/s10570-007-9116-1
p326
sg68
VCELLULOSE
p327
sg70
V14
p328
sg111
(lp329
(VKENNEDY
VC J
tp330
asg26
I2007
sg64
V235
p331
sbag1
(g2
g3
NtRp332
(dp333
g72
V10.1016/j.pbi.2008.03.001
p334
sg68
VCURR OPIN PLANT BIOL
p335
sg70
V11
p336
sg111
(lp337
(VKNOX
VJ P
tp338
asg26
I2008
sg64
V308
p339
sbag1
(g2
g3
NtRp340
(dp341
g72
V10.1021/mb005612q
p342
sg68
VBIOMACROMOLECULES
p343
sg70
V2
sg111
(lp344
(VLANGAN
VP
tp345
asg26
I2001
sg64
V410
p346
sbag1
(g2
g3
NtRp347
(dp348
g72
V10.1016/j.str.2012.04.002
p349
sg68
VSTRUCTURE
p350
sg70
V20
p351
sg111
(lp352
(VLI
VX
tp353
asg26
I2012
sg64
V1051
p354
sbag1
(g2
g3
NtRp355
(dp356
g72
V10.1074/jbc.M110.216556
p357
sg68
VJ BIOL CHEM
p358
sg70
V286
p359
sg111
(lp360
(VLIU
VY S
tp361
asg26
I2011
sg64
V11195
p362
sbag1
(g2
g3
NtRp363
(dp364
g72
V10.1007/s00425-005-0208-6
p365
sg68
VPLANTA
p366
sg70
V224
p367
sg111
(lp368
(VMACKINNON
VI M
tp369
asg26
I2006
sg64
VLANTA
p370
sbag1
(g2
g3
NtRp371
(dp372
g72
V10.1111/j.1365-313X.2005.02447.x
p373
sg68
VPLANT J
p374
sg70
V43
p375
sg111
(lp376
(VMARGA
VF
tp377
asg26
I2005
sg64
VLANT
p378
sbag1
(g2
g3
NtRp379
(dp380
g72
V10.1016/S0926-2040(03)00013-4
p381
sg68
VSOLID STATE NUCL MAG
p382
sg70
V23
p383
sg111
(lp384
(VMASUDA
VK
tp385
asg26
I2003
sg64
V198
p386
sbag1
(g2
g3
NtRp387
(dp388
g72
V10.1021/jp1106839
p389
sg68
VJ PHYS CHEM B
p390
sg70
V115
p391
sg111
(lp392
(VMATTHEWS
VJ F
tp393
asg26
I2011
sg64
V2155
p394
sbag1
(g2
g3
NtRp395
(dp396
g72
V10.1021/ct2007692
p397
sg68
VJ CHEM THEORY COMPUT
p398
sg70
V8
sg111
(lp399
(VMATTHEWS
VJ F
tp400
asg26
I2012
sg64
V735
p401
sbag1
(g2
g3
NtRp402
(dp403
g72
V10.1016/j.carres.2005.09.028
p404
sg68
VCARBOHYD RES
p405
sg70
V341
p406
sg111
(lp407
(VMATTHEWS
VJ F
tp408
asg26
I2006
sg64
V138
p409
sbag1
(g2
g3
NtRp410
(dp411
g72
Nsg68
VJ CELL SCI
p412
sg70
V96
p413
sg111
(lp414
(VMCCANN
VM C
tp415
asg26
I1990
sg64
V323
p416
sbag1
(g2
g3
NtRp417
(dp418
g72
V10.1016/j.pbi.2008.03.006
p419
sg68
VCURR OPIN PLANT BIOL
p420
sg70
V11
p421
sg111
(lp422
(VMOHNEN
VD
tp423
asg26
I2008
sg64
V266
p424
sbag1
(g2
g3
NtRp425
(dp426
g72
V10.1515/hfsg.1992.46.3.205
p427
sg68
VHOLZFORSCHUNG
p428
sg70
V46
p429
sg111
(lp430
(VNEWMAN
VR H
tp431
asg26
I1992
sg64
V205
p432
sbag1
(g2
g3
NtRp433
(dp434
g72
V10.1007/s10086-009-1029-1
p435
sg68
VJ WOOD SCI
p436
sg70
V55
p437
sg111
(lp438
(VNISHIYAMA
VY
tp439
asg26
I2009
sg64
V241
p440
sbag1
(g2
g3
NtRp441
(dp442
g72
V10.1021/ja0257319
p443
sg68
VJ AM CHEM SOC
p444
sg70
V124
p445
sg111
(lp446
(VNISHIYAMA
VY
tp447
asg26
I2002
sg64
V9074
p448
sbag1
(g2
g3
NtRp449
(dp450
g72
V10.1021/ja037055w
p451
sg68
VJ AM CHEM SOC
p452
sg70
V125
p453
sg111
(lp454
(VNISHIYAMA
VY
tp455
asg26
I2003
sg64
V14300
p456
sbag1
(g2
g3
NtRp457
(dp458
g72
V10.1104/pp.108.120196
p459
sg68
VPLANT PHYSIOL
p460
sg70
V147
p461
sg111
(lp462
(VPAREDEZ
VA R
tp463
asg26
I2008
sg64
VLANT
p464
sbag1
(g2
g3
NtRp465
(dp466
g72
V10.1104/pp.111.189779
p467
sg68
VPLANT PHYSIOL
p468
sg70
V158
p469
sg111
(lp470
(VPARK
VY B
tp471
asg26
I2012
sg64
VLANT
p472
sbag1
(g2
g3
NtRp473
(dp474
g72
V10.1104/pp.111.192880
p475
sg68
VPLANT PHYSIOL
p476
sg70
V158
p477
sg111
(lp478
(VPARK
VY B
tp479
asg26
I2012
sg64
VLANT
p480
sbag1
(g2
g3
NtRp481
(dp482
g72
V10.1073/pnas.1105776108
p483
sg68
VP NATL ACAD SCI USA
p484
sg70
V108
p485
sg111
(lp486
(VQUINLAN
VR J
tp487
asg26
I2011
sg64
V15079
p488
sbag1
(g2
g3
NtRp489
(dp490
g72
V10.1105/tpc.111.094672
p491
sg68
VPLANT CELL
p492
sg70
V24
p493
sg111
(lp494
(VSANCHEZ-RODRIGUEZ
VC
tp495
asg26
I2012
sg64
VLANT
p496
sbag1
(g2
g3
NtRp497
(dp498
g72
V10.1146/annurev-arplant-042809-112315
p499
sg68
VANNU REV PLANT BIOL
p500
sg70
V61
p501
sg111
(lp502
(VSCHELLER
VH V
tp503
asg26
I2010
sg64
V263
p504
sbag1
(g2
g3
NtRp505
(dp506
g72
V10.1107/S0108767307043930
p507
sg68
VACTA CRYSTALLOGR A
p508
sg70
V64
p509
sg111
(lp510
(VSHELDRICK
VG M
tp511
asg26
I2008
sg64
V112
p512
sbag1
(g2
g3
NtRp513
(dp514
g72
V10.1146/annurev.cellbio.22.022206.160206
p515
sg68
VANNU REV CELL DEV BI
p516
sg70
V22
p517
sg111
(lp518
(VSOMERVILLE
VC
tp519
asg26
I2006
sg64
V53
p520
sbag1
(g2
g3
NtRp521
(dp522
g72
V10.1021/bm034295v
p523
sg68
VBIOMACROMOLECULES
p524
sg70
V4
sg111
(lp525
(VSTURCOVA
VA
tp526
asg26
I2003
sg64
V1589
p527
sbag1
(g2
g3
NtRp528
(dp529
g72
V10.1021/bm034517p
p530
sg68
VBIOMACROMOLECULES
p531
sg70
V5
sg111
(lp532
(VSTURCOVA
VA
tp533
asg26
I2004
sg64
V1333
p534
sbag1
(g2
g3
NtRp535
(dp536
g72
V10.1104/pp.124.4.1493
p537
sg68
VPLANT PHYSIOL
p538
sg70
V124
p539
sg111
(lp540
(VSUGIMOTO
VK
tp541
asg26
I2000
sg64
VLANT
p542
sbag1
(g2
g3
NtRp543
(dp544
g72
V10.1016/j.cub.2009.07.056
p545
sg68
VCURR BIOL
p546
sg70
V19
p547
sg111
(lp548
(VSZYMANSKI
VD B
tp549
asg26
I2009
sg64
VR800
p550
sbag1
(g2
g3
NtRp551
(dp552
g72
V10.1073/pnas.152162299
p553
sg68
VP NATL ACAD SCI USA
p554
sg70
V99
p555
sg111
(lp556
(VVAN
VBEEK J D
tp557
asg26
I2002
sg64
V10266
p558
sbag1
(g2
g3
NtRp559
(dp560
g72
Nsg68
VPLANT J
p561
sg70
V30
p562
sg111
(lp563
(VVIETOR
VR J
tp564
asg26
I2002
sg64
VLANT
p565
sbag1
(g2
g3
NtRp566
(dp567
g72
V10.1021/bm0345357
p568
sg68
VBIOMACROMOLECULES
p569
sg70
V5
sg111
(lp570
(VWADA
VM
tp571
asg26
I2004
sg64
V1385
p572
sbag1
(g2
g3
NtRp573
(dp574
g72
V10.1016/S0008-6215(98)00236-5
p575
sg68
VCARBOHYD RES
p576
sg70
V312
p577
sg111
(lp578
(VWICKHOLM
VK
tp579
asg26
I1998
sg64
V123
p580
sbag1
(g2
g3
NtRp581
(dp582
g72
V10.1093/jxb/erm037
p583
sg68
VJ EXP BOT
p584
sg70
V58
p585
sg111
(lp586
(VZYKWINSKA
VA
tp587
asg26
I2007
sg64
V1795
p588
sbasb.