ccopy_reg
_reconstructor
p1
(ctethne.classes.paper
Paper
p2
c__builtin__
object
p3
NtRp4
(dp5
S'publisherCity'
p6
VROCKVILLE
p7
sS'reprintAddress'
p8
VSchroeder, JI (reprint author), Univ Calif San Diego, Div Biol Sci, Cell & Dev Biol Sect, La Jolla, CA 92093 USA.
p9
sS'WC'
p10
VPlant Sciences
p11
sS'GA'
p12
V855GU
p13
sS'pageEnd'
p14
I2462
sS'publisherAddress'
p15
V15501 MONONA DRIVE, ROCKVILLE, MD 20855 USA
p16
sS'documentType'
p17
VArticle
p18
sS'subject'
p19
VPlant Sciences
p20
sS'isoSource'
p21
VPlant Physiol.
p22
sS'timesCited'
p23
(lp24
I76
aVZ9 101
p25
asS'PT'
p26
VJ
sS'title'
p27
VSodium Transporters In Plants. Diverse Genes And Physiological Functions
p28
sS'ISSN'
p29
(lp30
V0032-0889
p31
aVJ9 PLANT PHYSIOL
p32
asS'authors_full'
p33
(lp34
(VHORIE
VT
tp35
a(VSCHROEDER
VJI
tp36
asS'PG'
p37
I6
sS'PD'
p38
VSEP
p39
sS'pageStart'
p40
I2457
sS'issue'
p41
I1
sS'journal'
p42
VPLANT PHYSIOLOGY
p43
sS'volume'
p44
V136
p45
sS'doi'
p46
V10.1104/pp.104.046664
p47
sS'emailAddress'
p48
Vjulian@biomail.ucsd.edu
p49
sS'authorAddress'
p50
(lp51
VUniv Calif San Diego, Div Biol Sci, Cell & Dev Biol Sect, La Jolla, CA 92093 USA.
p52
aVUniv Calif San Diego, Ctr Genet Mol, La Jolla, CA 92093 USA.
p53
asS'date'
p54
I2004
sS'ER'
p55
V
sS'publisher'
p56
VAMER SOC PLANT BIOLOGISTS
p57
sS'authorKeywords'
p58
(lp59
VAFFINITY POTASSIUM TRANSPORTER
p60
aVVACUOLAR NA+/H+ ANTIPORTER
p61
aVSALT TOLERANCE
p62
aVARABIDOPSIS-THALIANA
p63
aVCATION TRANSPORTER
p64
aVPROTEIN-KINASE
p65
aVK+-TRANSPORT
p66
aVHKT TRANSPORTERS
p67
aVDUAL MECHANISMS
p68
aVBARLEY ROOTS
p69
asS'language'
p70
VEnglish
p71
sS'wosid'
p72
VWOS:000223962100005
p73
sS'citationCount'
p74
I67
sS'authors_init'
p75
(lp76
(VHORIE
VT
tp77
a(VSCHROEDER
VJ I
tp78
asS'citedReferences'
p79
(lp80
g1
(g2
g3
NtRp81
(dp82
g46
V10.1104/pp.126.3.1061
p83
sg42
VPLANT PHYSIOL
p84
sg44
V126
p85
sg75
(lp86
(VAMTMANN
VA
tp87
asg54
I2001
sg40
VLANT
p88
sbag1
(g2
g3
NtRp89
(dp90
g46
Nsg42
VJ EXP BOT
p91
sg44
V48
p92
sg75
(lp93
(VAMTMANN
VA
tp94
asg54
I1997
sg40
V431
p95
sbag1
(g2
g3
NtRp96
(dp97
g46
V10.1126/science.285.5431.1256
p98
sg42
VSCIENCE
p99
sg44
V285
p100
sg75
(lp101
(VAPSE
VM P
tp102
asg54
I1999
sg40
V1256
p103
sbag1
(g2
g3
NtRp104
(dp105
g46
V10.1046/j.1365-313X.2003.01883.x
p106
sg42
VPLANT J
p107
sg44
V36
p108
sg75
(lp109
(VBENITO
VB
tp110
asg54
I2003
sg40
VLANT
p111
sbag1
(g2
g3
NtRp112
(dp113
g46
V10.1093/emboj/cdg207
p114
sg42
VEMBO J
p115
sg44
V22
p116
sg75
(lp117
(VBERTHOMIEU
VP
tp118
asg54
I2003
sg40
V2004
p119
sbag1
(g2
g3
NtRp120
(dp121
g46
V10.1046/j.1365-313X.2003.01871.x
p122
sg42
VPLANT J
p123
sg44
V36
p124
sg75
(lp125
(VAPSE
VM P
tp126
asg54
I2003
sg40
VLANT
p127
sbag1
(g2
g3
NtRp128
(dp129
g46
V10.1104/pp.83.4.884
p130
sg42
VPLANT PHYSIOL
p131
sg44
V83
p132
sg75
(lp133
(VBLUMWALD
VE
tp134
asg54
I1987
sg40
VLANT
p135
sbag1
(g2
g3
NtRp136
(dp137
g46
V10.1104/pp.78.1.163
p138
sg42
VPLANT PHYSIOL
p139
sg44
V78
p140
sg75
(lp141
(VBLUMWALD
VE
tp142
asg54
I1985
sg40
VLANT
p143
sbag1
(g2
g3
NtRp144
(dp145
g46
V10.1104/pp.122.4.1387
p146
sg42
VPLANT PHYSIOL
p147
sg44
V122
p148
sg75
(lp149
(VBUSCHMANN
VP H
tp150
asg54
I2000
sg40
VLANT
p151
sbag1
(g2
g3
NtRp152
(dp153
g46
V10.1073/pnas.95.20.12043
p154
sg42
VP NATL ACAD SCI USA
p155
sg44
V95
p156
sg75
(lp157
(VCLEMENS
VS
tp158
asg54
I1998
sg40
V12043
p159
sbag1
(g2
g3
NtRp160
(dp161
g46
V10.1104/pp.122.3.823
p162
sg42
VPLANT PHYSIOL
p163
sg44
V122
p164
sg75
(lp165
(VDAVENPORT
VR J
tp166
asg54
I2000
sg40
VLANT
p167
sbag1
(g2
g3
NtRp168
(dp169
g46
V10.1126/science.280.5360.69
p170
sg42
VSCIENCE
p171
sg44
V280
p172
sg75
(lp173
(VDOYLE
VD A
tp174
asg54
I1998
sg40
V69
p175
sbag1
(g2
g3
NtRp176
(dp177
g46
Nsg42
VTRANSPORT AND RECEPTOR PROTEINS OF PLANT MEMBRANES
p178
sg44
Nsg75
(lp179
(VDUPONT
VF M
tp180
asg54
I1992
sg40
V91
p181
sbag1
(g2
g3
NtRp182
(dp183
g46
Nsg42
VBIOPHYS J
p184
sg44
V77
p185
sg75
(lp186
(VDURELL
VS R
tp187
asg54
I1999
sg40
V775
p188
sbag1
(g2
g3
NtRp189
(dp190
g46
V10.1073/pnas.49.5.684
p191
sg42
VP NATL ACAD SCI USA
p192
sg44
V49
p193
sg75
(lp194
(VEPSTEIN
VE
tp195
asg54
I1963
sg40
V684
p196
sbag1
(g2
g3
NtRp197
(dp198
g46
V10.1023/A:1006496402463
p199
sg42
VPLANT MOL BIOL
p200
sg44
V43
p201
sg75
(lp202
(VFAIRBAIRN
VD J
tp203
asg54
I2000
sg40
VLANT
p204
sbag1
(g2
g3
NtRp205
(dp206
g46
Nsg42
VPLANT CELL PHYSL
p207
sg44
V45
p208
sg75
(lp209
(VFUKUDA
VA
tp210
asg54
I2004
sg40
VLANT
p211
sbag1
(g2
g3
NtRp212
(dp213
g46
Nsg42
VPLANT J
p214
sg44
V34
p215
sg75
(lp216
(VGARCIADEBLAS
VB
tp217
asg54
I2003
sg40
VLANT
p218
sbag1
(g2
g3
NtRp219
(dp220
g46
V10.1046/j.1365-313X.1996.10050869.x
p221
sg42
VPLANT J
p222
sg44
V10
p223
sg75
(lp224
(VGASSMANN
VW
tp225
asg54
I1996
sg40
VLANT
p226
sbag1
(g2
g3
NtRp227
(dp228
g46
V10.1073/pnas.96.4.1480
p229
sg42
VP NATL ACAD SCI USA
p230
sg44
V96
p231
sg75
(lp232
(VGAXIOLA
VR A
tp233
asg54
I1999
sg40
V1480
p234
sbag1
(g2
g3
NtRp235
(dp236
g46
V10.1016/S0735-2689(99)00388-3
p237
sg42
VCRIT REV PLANT SCI
p238
sg44
V18
p239
sg75
(lp240
(VGLENN
VE P
tp241
asg54
I1999
sg40
V227
p242
sbag1
(g2
g3
NtRp243
(dp244
g46
V10.1046/j.1365-313X.2002.01374.x
p245
sg42
VPLANT J
p246
sg44
V31
p247
sg75
(lp248
(VGOLLDACK
VD
tp249
asg54
I2002
sg40
VLANT
p250
sbag1
(g2
g3
NtRp251
(dp252
g46
V10.1105/tpc.13.6.1383
p253
sg42
VPLANT CELL
p254
sg44
V13
p255
sg75
(lp256
(VGUO
VY
tp257
asg54
I2001
sg40
VLANT
p258
sbag1
(g2
g3
NtRp259
(dp260
g46
V10.1073/pnas.040577697
p261
sg42
VP NATL ACAD SCI USA
p262
sg44
V97
p263
sg75
(lp264
(VHALFTER
VU
tp265
asg54
I2000
sg40
V3735
p266
sbag1
(g2
g3
NtRp267
(dp268
g46
V10.1016/0014-5793(91)81280-L
p269
sg42
VFEBS LETT
p270
sg44
V291
p271
sg75
(lp272
(VHARO
VR
tp273
asg54
I1991
sg40
V189
p274
sbag1
(g2
g3
NtRp275
(dp276
g46
V10.1046/j.1365-313x.2001.01077.x
p277
sg42
VPLANT J
p278
sg44
V27
p279
sg75
(lp280
(VHORIE
VT
tp281
asg54
I2001
sg40
VLANT
p282
sbag1
(g2
g3
NtRp283
(dp284
g46
V10.1104/pp.80.3.651
p285
sg42
VPLANT PHYSIOL
p286
sg44
V80
p287
sg75
(lp288
(VKINGSBURY
VR W
tp289
asg54
I1986
sg40
VLANT
p290
sbag1
(g2
g3
NtRp291
(dp292
g46
V10.1104/pp.91.3.1202
p293
sg42
VPLANT PHYSIOL
p294
sg44
V91
p295
sg75
(lp296
(VKOCHIAN
VL V
tp297
asg54
I1989
sg40
VLANT
p298
sbag1
(g2
g3
NtRp299
(dp300
g46
V10.1046/j.1365-313X.2002.01410.x
p301
sg42
VPLANT J
p302
sg44
V32
p303
sg75
(lp304
(VLAURIE
VS
tp305
asg54
I2002
sg40
VLANT
p306
sbag1
(g2
g3
NtRp307
(dp308
g46
V10.1073/pnas.060034197
p309
sg42
VP NATL ACAD SCI USA
p310
sg44
V97
p311
sg75
(lp312
(VLIU
VJ P
tp313
asg54
I2000
sg40
V3730
p314
sbag1
(g2
g3
NtRp315
(dp316
g46
V10.1126/science.280.5371.1943
p317
sg42
VSCIENCE
p318
sg44
V280
p319
sg75
(lp320
(VLIU
VJ P
tp321
asg54
I1998
sg40
V1943
p322
sbag1
(g2
g3
NtRp323
(dp324
g46
Nsg42
VPLANT PHYSIOL
p325
sg44
V112
p326
sg75
(lp327
(VMAATHUIS
VF J M
tp328
asg54
I1996
sg40
VLANT
p329
sbag1
(g2
g3
NtRp330
(dp331
g46
V10.1104/pp.127.4.1617
p332
sg42
VPLANT PHYSIOL
p333
sg44
V127
p334
sg75
(lp335
(VMAATHUIS
VF J M
tp336
asg54
I2001
sg40
VLANT
p337
sbag1
(g2
g3
NtRp338
(dp339
g46
V10.1126/science.2218530
p340
sg42
VSCIENCE
p341
sg44
V250
p342
sg75
(lp343
(VMACKINNON
VR
tp344
asg54
I1990
sg40
V276
p345
sbag1
(g2
g3
NtRp346
(dp347
g46
V10.1104/pp.126.4.1646
p348
sg42
VPLANT PHYSIOL
p349
sg44
V126
p350
sg75
(lp351
(VMASER
VP
tp352
asg54
I2001
sg40
VLANT
p353
sbag1
(g2
g3
NtRp354
(dp355
g46
V10.1016/S0014-5793(02)03488-9
p356
sg42
VFEBS LETT
p357
sg44
V531
p358
sg75
(lp359
(VMASER
VP
tp360
asg54
I2002
sg40
V157
p361
sbag1
(g2
g3
NtRp362
(dp363
g46
V10.1073/pnas.082123799
p364
sg42
VP NATL ACAD SCI USA
p365
sg44
V99
p366
sg75
(lp367
(VMASER
VP
tp368
asg54
I2002
sg40
V6428
p369
sbag1
(g2
g3
NtRp370
(dp371
g46
Nsg42
VJ BIOL CHEM
p372
sg44
V272
p373
sg75
(lp374
(VNAKAMURA
VR L
tp375
asg54
I1997
sg40
V1011
p376
sbag1
(g2
g3
NtRp377
(dp378
g46
V10.1104/pp.84.4.1177
p379
sg42
VPLANT PHYSIOL
p380
sg44
V84
p381
sg75
(lp382
(VNEWMAN
VI A
tp383
asg54
I1987
sg40
VLANT
p384
sbag1
(g2
g3
NtRp385
(dp386
g46
V10.1074/jbc.M307982200
p387
sg42
VJ BIOL CHEM
p388
sg44
V279
p389
sg75
(lp390
(VQIU
VQ S
tp391
asg54
I2004
sg40
V207
p392
sbag1
(g2
g3
NtRp393
(dp394
g46
V10.1073/pnas.122224699
p395
sg42
VP NATL ACAD SCI USA
p396
sg44
V99
p397
sg75
(lp398
(VQIU
VQ S
tp399
asg54
I2002
sg40
V8436
p400
sbag1
(g2
g3
NtRp401
(dp402
g46
V10.1073/pnas.132092099
p403
sg42
VP NATL ACAD SCI USA
p404
sg44
V99
p405
sg75
(lp406
(VQUINTERO
VF J
tp407
asg54
I2002
sg40
V9061
p408
sbag1
(g2
g3
NtRp409
(dp410
g46
V10.1104/pp.42.3.314
p411
sg42
VPLANT PHYSIOL
p412
sg44
V42
p413
sg75
(lp414
(VRAINS
VD W
tp415
asg54
I1967
sg40
VLANT
p416
sbag1
(g2
g3
NtRp417
(dp418
g46
V10.1126/science.148.3677.1611
p419
sg42
VSCIENCE
p420
sg44
V148
p421
sg75
(lp422
(VRAINS
VD W
tp423
asg54
I1965
sg40
V1611
p424
sbag1
(g2
g3
NtRp425
(dp426
g46
V10.1093/jxb/48.Special_Issue.431
p427
sg42
VJ EXP BOT
p428
sg44
V48
p429
sg75
(lp430
(VROBERTS
VS K
tp431
asg54
I1997
sg40
V431
p432
sbag1
(g2
g3
NtRp433
(dp434
g46
V10.1126/science.270.5242.1660
p435
sg42
VSCIENCE
p436
sg44
V270
p437
sg75
(lp438
(VRUBIO
VF
tp439
asg54
I1995
sg40
V1660
p440
sbag1
(g2
g3
NtRp441
(dp442
g46
Nsg42
VSCIENCE
p443
sg44
V273
p444
sg75
(lp445
(VRUBIO
VF
tp446
asg54
I1996
sg40
V977
p447
sbag1
(g2
g3
NtRp448
(dp449
g46
V10.1073/pnas.241501798
p450
sg42
VP NATL ACAD SCI USA
p451
sg44
V98
p452
sg75
(lp453
(VRUS
VA
tp454
asg54
I2001
sg40
V14150
p455
sbag1
(g2
g3
NtRp456
(dp457
g46
V10.1105/tpc.9.12.2281
p458
sg42
VPLANT CELL
p459
sg44
V9
sg75
(lp460
(VSANTA-MARIA
VG E
tp461
asg54
I1997
sg40
VLANT
p462
sbag1
(g2
g3
NtRp463
(dp464
g46
V10.1073/pnas.94.20.11079
p465
sg42
VP NATL ACAD SCI USA
p466
sg44
V94
p467
sg75
(lp468
(VSCHACHTMAN
VD P
tp469
asg54
I1997
sg40
V11079
p470
sbag1
(g2
g3
NtRp471
(dp472
g46
V10.1038/370655a0
p473
sg42
VNATURE
p474
sg44
V370
p475
sg75
(lp476
(VSCHACHTMAN
VD P
tp477
asg54
I1994
sg40
V655
p478
sbag1
(g2
g3
NtRp479
(dp480
g46
V10.1146/annurev.bb.23.060194.002301
p481
sg42
VANNU REV BIOPH BIOM
p482
sg44
V23
p483
sg75
(lp484
(VSCHROEDER
VJ I
tp485
asg54
I1994
sg40
V441
p486
sbag1
(g2
g3
NtRp487
(dp488
g46
V10.1073/pnas.120170197
p489
sg42
VP NATL ACAD SCI USA
p490
sg44
V97
p491
sg75
(lp492
(VSHI
VH Z
tp493
asg54
I2000
sg40
V6896
p494
sbag1
(g2
g3
NtRp495
(dp496
g46
V10.1105/tpc.010371
p497
sg42
VPLANT CELL
p498
sg44
V14
p499
sg75
(lp500
(VSHI
VH Z
tp501
asg54
I2002
sg40
VLANT
p502
sbag1
(g2
g3
NtRp503
(dp504
g46
V10.1142/S0129065789000037
p505
sg42
VInternational Journal of Neural Systems
p506
sg44
V1
sg75
(lp507
(VSMITH
VA W
tp508
asg54
I1989
sg40
Nsbag1
(g2
g3
NtRp509
(dp510
g46
Nsg42
VPLANT MOL BIOL
p511
sg44
V52
p512
sg75
(lp513
(VSUL
VH
tp514
asg54
I2003
sg40
VLANT
p515
sbag1
(g2
g3
NtRp516
(dp517
g46
V10.1016/S0014-5793(99)00504-9
p518
sg42
VFEBS LETT
p519
sg44
V450
p520
sg75
(lp521
(VTHOLEMA
VN
tp522
asg54
I1999
sg40
V217
p523
sbag1
(g2
g3
NtRp524
(dp525
g46
V10.1093/jxb/48.Special_Issue.459
p526
sg42
VJ EXP BOT
p527
sg44
V48
p528
sg75
(lp529
(VTYERMAN
VS D
tp530
asg54
I1997
sg40
V459
p531
sbag1
(g2
g3
NtRp532
(dp533
g46
Nsg42
VSCI HORTIC
p534
sg44
V78
p535
sg75
(lp536
(VTYERMAN
VS D
tp537
asg54
I1999
sg40
V175
p538
sbag1
(g2
g3
NtRp539
(dp540
g46
V10.1104/pp.122.4.1249
p541
sg42
VPLANT PHYSIOL
p542
sg44
V122
p543
sg75
(lp544
(VUOZUMI
VN
tp545
asg54
I2000
sg40
VLANT
p546
sbag1
(g2
g3
NtRp547
(dp548
g46
V10.1074/jbc.M105043200
p549
sg42
VJ BIOL CHEM
p550
sg44
V277
p551
sg75
(lp552
(VVENEMA
VK
tp553
asg54
I2002
sg40
V2413
p554
sbag1
(g2
g3
NtRp555
(dp556
g46
Nsg42
VPLANTA
p557
sg44
V185
p558
sg75
(lp559
(VWALKER
VN A
tp560
asg54
I1991
sg40
VLANTA
p561
sbag1
(g2
g3
NtRp562
(dp563
g46
V10.1105/tpc.8.4.617
p564
sg42
VPLANT CELL
p565
sg44
V8
sg75
(lp566
(VWU
VS J
tp567
asg54
I1996
sg40
VLANT
p568
sbag1
(g2
g3
NtRp569
(dp570
g46
V10.1073/pnas.2034966100
p571
sg42
VP NATL ACAD SCI USA
p572
sg44
V100
p573
sg75
(lp574
(VYAMAGUCHI
VT
tp575
asg54
I2003
sg40
V12510
p576
sbag1
(g2
g3
NtRp577
(dp578
g46
V10.1046/j.1365-313X.2002.01309.x
p579
sg42
VPLANT J
p580
sg44
V30
p581
sg75
(lp582
(VYOKOI
VS
tp583
asg54
I2002
sg40
VLANT
p584
sbag1
(g2
g3
NtRp585
(dp586
g46
V10.1038/90824
p587
sg42
VNAT BIOTECHNOL
p588
sg44
V19
p589
sg75
(lp590
(VZHANG
VH X
tp591
asg54
I2001
sg40
V765
p592
sbag1
(g2
g3
NtRp593
(dp594
g46
V10.1073/pnas.231476498
p595
sg42
VP NATL ACAD SCI USA
p596
sg44
V98
p597
sg75
(lp598
(VZHANG
VH X
tp599
asg54
I2001
sg40
V12832
p600
sbasb.