ccopy_reg
_reconstructor
p1
(ctethne.classes.paper
Paper
p2
c__builtin__
object
p3
NtRp4
(dp5
S'publisherCity'
p6
VROCKVILLE
p7
sS'reprintAddress'
p8
VGatz, C (reprint author), Univ Gottingen, Albrecht von Haller Inst Pflanzenwissensch, D-37077 Gottingen, Germany.
p9
sS'WC'
p10
VPlant Sciences
p11
sS'GA'
p12
V937KJ
p13
sS'FX'
p14
(lp15
VThis work was supported by the Deutsche Forschungsgemeinschaft (grant
p16
aVno. GA330/20-1 to J.K. and A.M.).
p17
asS'abstract'
p18
VPlants modify harmful substances through an inducible detoxification system. In Arabidopsis (Arabidopsis thaliana), chemical induction of the cytochrome P450 gene CYP81D11 and other genes linked to the detoxification program depends on class II TGA transcription factors. CYP81D11 expression is also induced by the phytohormone jasmonic acid (JA) through the established pathway requiring the JA receptor CORONATINE INSENSITIVE1 (COI1) and the JA-regulated transcription factor MYC2. Here, we report that the xenobiotic-and the JA-dependent signal cascades have become interdependent at the CYP81D11 promoter. On the one hand, MYC2 can only activate the expression of CYP81D11 when both the MYC2- and the TGA-binding sites are present in the promoter. On the other hand, the xenobiotic-regulated class II TGA transcription factors can only mediate maximal promoter activity if TGA and MYC2 binding motifs, MYC2, and the JA-isoleucine biosynthesis enzymes DDE2/AOS and JAR1 are functional. Since JA levels and degradation of JAZ1, a repressor of the JA response, are not affected by reactive chemicals, we hypothesize that basal JA signaling amplifies the response to chemical stress. Remarkably, stress-induced expression levels were 3-fold lower in coi1 than in the JA biosynthesis mutant dede2-2, revealing that COI1 can contribute to the activation of the promoter in the absence of JA. Moreover, we show that deletion of the MYC2 binding motifs abolishes the JA responsiveness of the promoter but not the responsiveness to COI1. These findings suggest that yet unknown cis-element(s) can mediate COI1-dependent transcriptional activation in the absence of JA.
p19
sS'pageEnd'
p20
I402
sS'date'
p21
I2012
sS'documentType'
p22
VArticle
p23
sS'subject'
p24
VPlant Sciences
p25
sS'isoSource'
p26
VPlant Physiol.
p27
sS'timesCited'
p28
(lp29
I5
aVZ9 5
p30
asS'funding'
p31
(lp32
(VDeutsche Forschungsgemeinschaft
VGA330/20-1
tp33
asS'PT'
p34
VJ
sS'title'
p35
VXenobiotic- And Jasmonic Acid-Inducible Signal Transduction Pathways Have Become Interdependent At The Arabidopsis Cyp81D11 Promoter
p36
sS'ISSN'
p37
(lp38
V0032-0889
p39
aVJ9 PLANT PHYSIOL
p40
asS'authors_full'
p41
(lp42
(VKOESTER
VJULIA
tp43
a(VTHUROW
VCORINNA
tp44
a(VKRUSE
VKERSTIN
tp45
a(VMEIER
VALEXANDER
tp46
a(VIVEN
VTIM
tp47
a(VFEUSSNER
VIVO
tp48
a(VGATZ
VCHRISTIANE
tp49
asS'PG'
p50
I12
sS'PD'
p51
VMAY
p52
sS'pageStart'
p53
I391
sS'issue'
p54
I1
sS'RI'
p55
VFeussner, Ivo/H-9320-2013
p56
sS'journal'
p57
VPLANT PHYSIOLOGY
p58
sS'volume'
p59
V159
p60
sS'doi'
p61
V10.1104/pp.112.194274
p62
sS'emailAddress'
p63
Vcgatz@gwdg.de
p64
sS'authorAddress'
p65
V[Koester, Julia; Thurow, Corinna; Kruse, Kerstin; Meier, Alexander; Iven, Tim; Feussner, Ivo; Gatz, Christiane] Univ Gottingen, Albrecht von Haller Inst Pflanzenwissensch, D-37077 Gottingen, Germany.
p66
sS'publisherAddress'
p67
V15501 MONONA DRIVE, ROCKVILLE, MD 20855 USA
p68
sS'ER'
p69
V
sS'publisher'
p70
VAMER SOC PLANT BIOLOGISTS
p71
sS'authorKeywords'
p72
(lp73
VTGA TRANSCRIPTION FACTORS
p74
aVMETHYL-JASMONATE
p75
aVSALICYLIC-ACID
p76
aVAS-1 ELEMENT
p77
aVGENE
p78
aVEXPRESSION
p79
aVDEFENSE
p80
aVBINDING
p81
aVACTIVATION
p82
aVRESPONSES
p83
asS'language'
p84
VEnglish
p85
sS'wosid'
p86
VWOS:000303657100031
p87
sS'citationCount'
p88
I50
sS'authors_init'
p89
(lp90
(VKOSTER
VJ
tp91
a(VTHUROW
VC
tp92
a(VKRUSE
VK
tp93
a(VMEIER
VA
tp94
a(VIVEN
VT
tp95
a(VFEUSSNER
VI
tp96
a(VGATZ
VC
tp97
asS'citedReferences'
p98
(lp99
g1
(g2
g3
NtRp100
(dp101
g61
V10.1093/jxb/erq240
p102
sg57
VJ EXP BOT
p103
sg59
V61
p104
sg89
(lp105
(VADAMS
VE
tp106
asg21
I2010
sg53
V4373
p107
sbag1
(g2
g3
NtRp108
(dp109
g61
V10.1074/jbc.M500694200
p110
sg57
VJ BIOL CHEM
p111
sg59
V280
p112
sg89
(lp113
(VBAERSON
VS R
tp114
asg21
I2005
sg53
V21867
p115
sbag1
(g2
g3
NtRp116
(dp117
g61
Nsg57
VPLANT PHYSIOL
p118
sg59
V111
p119
sg89
(lp120
(VBERGER
VS
tp121
asg21
I1996
sg53
VLANT
p122
sbag1
(g2
g3
NtRp123
(dp124
g61
V10.1073/pnas.0710305105
p125
sg57
VP NATL ACAD SCI USA
p126
sg59
V105
p127
sg89
(lp128
(VBRUCE
VT J A
tp129
asg21
I2008
sg53
V4553
p130
sbag1
(g2
g3
NtRp131
(dp132
g61
V10.1104/pp.111.174169
p133
sg57
VPLANT PHYSIOL
p134
sg59
V156
p135
sg89
(lp136
(VCHEHAB
VE W
tp137
asg21
I2011
sg53
VLANT
p138
sbag1
(g2
g3
NtRp139
(dp140
g61
V10.1093/mp/ssq073
p141
sg57
VMOL PLANT
p142
sg59
V4
sg89
(lp143
(VCHENG
VZ W
tp144
asg21
I2011
sg53
V279
p145
sbag1
(g2
g3
NtRp146
(dp147
g61
V10.1038/nature06006
p148
sg57
VNATURE
p149
sg59
V448
p150
sg89
(lp151
(VCHINI
VA
tp152
asg21
I2007
sg53
V666
p153
sbag1
(g2
g3
NtRp154
(dp155
g61
V10.1046/j.1365-313x.1998.00343.x
p156
sg57
VPLANT J
p157
sg59
V16
p158
sg89
(lp159
(VCLOUGH
VS J
tp160
asg21
I1998
sg53
VLANT
p161
sbag1
(g2
g3
NtRp162
(dp163
g61
V10.1046/j.1365-313X.2002.01432.x
p164
sg57
VPLANT J
p165
sg59
V32
p166
sg89
(lp167
(VDEVOTO
VA
tp168
asg21
I2002
sg53
VLANT
p169
sbag1
(g2
g3
NtRp170
(dp171
g61
V10.1046/j.1365-313X.1993.04030433.x
p172
sg57
VPLANT J
p173
sg59
V4
sg89
(lp174
(VELLIS
VJ G
tp175
asg21
I1993
sg53
VLANT
p176
sbag1
(g2
g3
NtRp177
(dp178
g61
V10.1105/tpc.110.080788
p179
sg57
VPLANT CELL
p180
sg59
V23
p181
sg89
(lp182
(VFERNANDEZ-CALVO
VP
tp183
asg21
I2011
sg53
VLANT
p184
sbag1
(g2
g3
NtRp185
(dp186
g61
V10.1146/annurev.arplant.53.100301.135248
p187
sg57
VANNU REV PLANT BIOL
p188
sg59
V53
p189
sg89
(lp190
(VFEUSSNER
VI
tp191
asg21
I2002
sg53
V275
p192
sbag1
(g2
g3
NtRp193
(dp194
g61
V10.1105/tpc.108.058974
p195
sg57
VPLANT CELL
p196
sg59
V20
p197
sg89
(lp198
(VFODE
VB
tp199
asg21
I2008
sg53
VLANT
p200
sbag1
(g2
g3
NtRp201
(dp202
g61
V10.1111/j.1365-313X.2011.04519.x
p203
sg57
VPLANT J
p204
sg59
V66
p205
sg89
(lp206
(VGODOY
VM
tp207
asg21
I2011
sg53
VLANT
p208
sbag1
(g2
g3
NtRp209
(dp210
g61
V10.1016/j.devcel.2010.10.024
p211
sg57
VDEV CELL
p212
sg59
V19
p213
sg89
(lp214
(VHOU
VX L
tp215
asg21
I2010
sg53
V884
p216
sbag1
(g2
g3
NtRp217
(dp218
g61
V10.1038/342837a0
p219
sg57
VNATURE
p220
sg59
V342
p221
sg89
(lp222
(VJEFFERSON
VR A
tp223
asg21
I1989
sg53
V837
p224
sbag1
(g2
g3
NtRp225
(dp226
g61
V10.1016/S1360-1385(02)02251-3
p227
sg57
VTRENDS PLANT SCI
p228
sg59
V7
sg89
(lp229
(VKARIMI
VM
tp230
asg21
I2002
sg53
V193
p231
sbag1
(g2
g3
NtRp232
(dp233
g61
V10.1038/340727a0
p234
sg57
VNATURE
p235
sg59
V340
p236
sg89
(lp237
(VKATAGIRI
VF
tp238
asg21
I1989
sg53
V727
p239
sbag1
(g2
g3
NtRp240
(dp241
g61
V10.1104/pp.106.095299
p242
sg57
VPLANT PHYSIOL
p243
sg59
V144
p244
sg89
(lp245
(VKESARWANI
VM
tp246
asg21
I2007
sg53
VLANT
p247
sbag1
(g2
g3
NtRp248
(dp249
g61
V10.1023/A:1006332708388
p250
sg57
VPLANT MOL BIOL
p251
sg59
V42
p252
sg89
(lp253
(VKLINEDINST
VS
tp254
asg21
I2000
sg53
VLANT
p255
sbag1
(g2
g3
NtRp256
(dp257
g61
V10.1126/science.2330508
p258
sg57
VSCIENCE
p259
sg59
V248
p260
sg89
(lp261
(VLAM
VE
tp262
asg21
I1990
sg53
V471
p263
sbag1
(g2
g3
NtRp264
(dp265
g61
V10.1006/meth.2001.1262
p266
sg57
VMETHODS
p267
sg59
V25
p268
sg89
(lp269
(VLIVAK
VK J
tp270
asg21
I2001
sg53
V402
p271
sbag1
(g2
g3
NtRp272
(dp273
g61
V10.1007/s00425-010-1244-4
p274
sg57
VPLANTA
p275
sg59
V232
p276
sg89
(lp277
(VMATTHES
VM C
tp278
asg21
I2010
sg53
VLANTA
p279
sbag1
(g2
g3
NtRp280
(dp281
g61
V10.1194/jlr.D700041-JLR200
p282
sg57
VJ LIPID RES
p283
sg59
V49
p284
sg89
(lp285
(VMATYASH
VV
tp286
asg21
I2008
sg53
V1137
p287
sbag1
(g2
g3
NtRp288
(dp289
g61
V10.1111/j.1365-313X.2011.04480.x
p290
sg57
VPLANT J
p291
sg59
V65
p292
sg89
(lp293
(VMOSBLECH
VA
tp294
asg21
I2011
sg53
VLANT
p295
sbag1
(g2
g3
NtRp296
(dp297
g61
V10.1105/tpc.107.054809
p298
sg57
VPLANT CELL
p299
sg59
V20
p300
sg89
(lp301
(VMUELLER
VS
tp302
asg21
I2008
sg53
VLANT
p303
sbag1
(g2
g3
NtRp304
(dp305
g61
V10.1111/j.1365-313X.2007.03039.x
p306
sg57
VPLANT J
p307
sg59
V50
p308
sg89
(lp309
(VNDAMUKONG
VI
tp310
asg21
I2007
sg53
VLANT
p311
sbag1
(g2
g3
NtRp312
(dp313
g61
V10.1093/jxb/erq408
p314
sg57
VJ EXP BOT
p315
sg59
V62
p316
sg89
(lp317
(VNIU
VY J
tp318
asg21
I2011
sg53
V2143
p319
sbag1
(g2
g3
NtRp320
(dp321
g61
V10.1046/j.1365-313X.2002.01328.x
p322
sg57
VPLANT J
p323
sg59
V31
p324
sg89
(lp325
(VPARK
VJ H
tp326
asg21
I2002
sg53
VLANT
p327
sbag1
(g2
g3
NtRp328
(dp329
g61
V10.1074/jbc.273.41.26631
p330
sg57
VJ BIOL CHEM
p331
sg59
V273
p332
sg89
(lp333
(VPASCUZZI
VP
tp334
asg21
I1998
sg53
V26631
p335
sbag1
(g2
g3
NtRp336
(dp337
g61
V10.1105/tpc.111.089300
p338
sg57
VPLANT CELL
p339
sg59
V23
p340
sg89
(lp341
(VPAUWELS
VL
tp342
asg21
I2011
sg53
VLANT
p343
sbag1
(g2
g3
NtRp344
(dp345
g61
Nsg57
VPLANT CELL
p346
sg59
V6
sg89
(lp347
(VQIN
VX F
tp348
asg21
I1994
sg53
VLANT
p349
sbag1
(g2
g3
NtRp350
(dp351
g61
V10.1007/s00299-002-0472-x
p352
sg57
VPLANT CELL REP
p353
sg59
V21
p354
sg89
(lp355
(VREDMAN
VJ
tp356
asg21
I2002
sg53
VLANT
p357
sbag1
(g2
g3
NtRp358
(dp359
g61
V10.1016/0968-0004(92)90507-6
p360
sg57
VTRENDS BIOCHEM SCI
p361
sg59
V17
p362
sg89
(lp363
(VSANDERMANN
VH
tp364
asg21
I1992
sg53
V82
p365
sbag1
(g2
g3
NtRp366
(dp367
g61
V10.1105/tpc.4.10.1309
p368
sg57
VPLANT CELL
p369
sg59
V4
sg89
(lp370
(VSCHINDLER
VU
tp371
asg21
I1992
sg53
VLANT
p372
sbag1
(g2
g3
NtRp373
(dp374
g61
V10.1038/nature09430
p375
sg57
VNATURE
p376
sg59
V468
p377
sg89
(lp378
(VSHEARD
VL B
tp379
asg21
I2010
sg53
V400
p380
sbag1
(g2
g3
NtRp381
(dp382
g61
V10.1105/tpc.009159
p383
sg57
VPLANT CELL
p384
sg59
V15
p385
sg89
(lp386
(VSPOEL
VS H
tp387
asg21
I2003
sg53
VLANT
p388
sbag1
(g2
g3
NtRp389
(dp390
g61
V10.1105/tpc.104.023549
p391
sg57
VPLANT CELL
p392
sg59
V16
p393
sg89
(lp394
(VSTASWICK
VP E
tp395
asg21
I2004
sg53
VLANT
p396
sbag1
(g2
g3
NtRp397
(dp398
g61
V10.1105/tpc.000885
p399
sg57
VPLANT CELL
p400
sg59
V14
p401
sg89
(lp402
(VSTASWICK
VP E
tp403
asg21
I2002
sg53
VLANT
p404
sbag1
(g2
g3
NtRp405
(dp406
g61
V10.1038/nature05960
p407
sg57
VNATURE
p408
sg59
V448
p409
sg89
(lp410
(VTHINES
VB
tp411
asg21
I2007
sg53
V661
p412
sbag1
(g2
g3
NtRp413
(dp414
g61
V10.1007/s00425-002-0906-2
p415
sg57
VPLANTA
p416
sg59
V216
p417
sg89
(lp418
(VVON
VMALEK B
tp419
asg21
I2002
sg53
VLANTA
p420
sbag1
(g2
g3
NtRp421
(dp422
g61
V10.1111/j.1744-7909.2010.00940.x
p423
sg57
VJ INTEGR PLANT BIOL
p424
sg59
V52
p425
sg89
(lp426
(VWALLEY
VJ W
tp427
asg21
I2010
sg53
V354
p428
sbag1
(g2
g3
NtRp429
(dp430
g61
V10.1111/j.1365-313X.2007.03229.x
p431
sg57
VPLANT J
p432
sg59
V52
p433
sg89
(lp434
(VWEISTE
VC
tp435
asg21
I2007
sg53
VLANT
p436
sbag1
(g2
g3
NtRp437
(dp438
g61
V10.1007/BF00019093
p439
sg57
VPLANT MOL BIOL
p440
sg59
V32
p441
sg89
(lp442
(VXIANG
VC B
tp443
asg21
I1996
sg53
VLANT
p444
sbag1
(g2
g3
NtRp445
(dp446
g61
V10.1126/science.280.5366.1091
p447
sg57
VSCIENCE
p448
sg59
V280
p449
sg89
(lp450
(VXIE
VD X
tp451
asg21
I1998
sg53
V1091
p452
sbag1
(g2
g3
NtRp453
(dp454
g61
V10.1105/tpc.109.065730
p455
sg57
VPLANT CELL
p456
sg59
V21
p457
sg89
(lp458
(VYAN
VJ B
tp459
asg21
I2009
sg53
VLANT
p460
sbag1
(g2
g3
NtRp461
(dp462
g61
V10.1038/nprot.2007.199
p463
sg57
VNAT PROTOC
p464
sg59
V2
sg89
(lp465
(VYOO
VS D
tp466
asg21
I2007
sg53
V1565
p467
sbag1
(g2
g3
NtRp468
(dp469
g61
V10.1111/j.1365-313X.2009.04044.x
p470
sg57
VPLANT J
p471
sg59
V61
p472
sg89
(lp473
(VZANDER
VM
tp474
asg21
I2010
sg53
VLANT
p475
sbag1
(g2
g3
NtRp476
(dp477
g61
V10.1105/tpc.014894
p478
sg57
VPLANT CELL
p479
sg59
V15
p480
sg89
(lp481
(VZHANG
VY L
tp482
asg21
I2003
sg53
VLANT
p483
sbag1
(g2
g3
NtRp484
(dp485
g61
V10.1073/pnas.1103959108
p486
sg57
VP NATL ACAD SCI USA
p487
sg59
V108
p488
sg89
(lp489
(VZHU
VZ Q
tp490
asg21
I2011
sg53
V12539
p491
sbasb.