ccopy_reg
_reconstructor
p1
(ctethne.classes.paper
Paper
p2
c__builtin__
object
p3
NtRp4
(dp5
S'publisherCity'
p6
VROCKVILLE
p7
sS'reprintAddress'
p8
VFernie, AR (reprint author), Max Planck Inst Mol Pflanzenphysiol, Muhlenberg 1, D-14476 Golm, Germany.
p9
sS'WC'
p10
VPlant Sciences
p11
sS'GA'
p12
V732ZE
p13
sS'abstract'
p14
VPlant growth and development are strongly dependent on sink-source interactions. In the majority of plants, sucrose (Suc) is the dominant form in which photo-assimilate is transported from source to sinks. Although the effects of Suc on photosynthetic metabolism have been intensively studied, the effect of Suc supply on metabolism in sink organs has received relatively little attention. For this reason, we performed a detailed characterization of the metabolism of potato (Solanum tuberosum) plants in which the Suc supply to the tuber was restricted by genetic or environmental perturbation. These characterizations revealed a clear inverse relationship between the levels of Suc and free amino acids. When data obtained from this study were considered alongside our previous work, a negative correlation between tuber Suc and amino acid content became apparent. Analysis of the transcript levels of key enzymes involved in amino acid biosynthesis revealed that several of these were increased under these conditions. Taken together, these data strongly suggest that Suc regulates amino acid biosynthesis in storage tissues such as potato tubers, most probably at the level of transcription.
p15
sS'pageEnd'
p16
I692
sS'publisherAddress'
p17
V15501 MONONA DRIVE, ROCKVILLE, MD 20855 USA
p18
sS'documentType'
p19
VArticle
p20
sS'subject'
p21
VPlant Sciences
p22
sS'isoSource'
p23
VPlant Physiol.
p24
sS'timesCited'
p25
(lp26
I44
aVZ9 46
p27
asS'PT'
p28
VJ
sS'title'
p29
VDe Novo Amino Acid Biosynthesis In Potato Tubers Is Regulated By Sucrose Levels
p30
sS'ISSN'
p31
(lp32
V0032-0889
p33
aVJ9 PLANT PHYSIOL
p34
asS'authors_full'
p35
(lp36
(VROESSNERTUNALI
VU
tp37
a(VURBANCZYKWOCHNIAK
VE
tp38
a(VCZECHOWSKI
VT
tp39
a(VKOLBE
VA
tp40
a(VWILLMITZER
VL
tp41
a(VFERNIE
VAR
tp42
asS'PG'
p43
I10
sS'PD'
p44
VOCT
p45
sS'pageStart'
p46
I683
sS'issue'
p47
I2
sS'RI'
p48
VWillmitzer, Lothar/F-7377-2011
p49
sS'journal'
p50
VPLANT PHYSIOLOGY
p51
sS'volume'
p52
V133
p53
sS'doi'
p54
V10.1104/pp.103.024802
p55
sS'authorAddress'
p56
VMax Planck Inst Mol Pflanzenphysiol, D-14476 Golm, Germany.
p57
sS'date'
p58
I2003
sS'ER'
p59
V
sS'publisher'
p60
VAMER SOC PLANT BIOLOGISTS
p61
sS'authorKeywords'
p62
(lp63
VSOLANUM-TUBEROSUM
p64
aVPLASTIDIAL PHOSPHOGLUCOMUTASE
p65
aVNITROGEN ASSIMILATION
p66
aVTRANSGENIC PLANTS
p67
aVSTARCH SYNTHESIS
p68
aVDIURNAL CHANGES
p69
aVTOBACCO-LEAVES
p70
aVPHLOEM
p71
aVEXPRESSION
p72
aVTRANSPORTER
p73
asS'language'
p74
VEnglish
p75
sS'wosid'
p76
VWOS:000185974800029
p77
sS'citationCount'
p78
I61
sS'authors_init'
p79
(lp80
(VROESSNERTUNALI
VU
tp81
a(VURBANCZYKWOCHNIAK
VE
tp82
a(VCZECHOWSKI
VT
tp83
a(VKOLBE
VA
tp84
a(VWILLMITZER
VL
tp85
a(VFERNIE
VA R
tp86
asS'citedReferences'
p87
(lp88
g1
(g2
g3
NtRp89
(dp90
g54
V10.1007/s007260200010
p91
sg50
VAMINO ACIDS
p92
sg52
V22
p93
sg79
(lp94
(VAZEVEDO
VR A
tp95
asg58
I2002
sg46
V217
p96
sbag1
(g2
g3
NtRp97
(dp98
g54
Nsg50
VJ BIOL CHEM
p99
sg52
V271
p100
sg79
(lp101
(VBOORER
VK J
tp102
asg58
I1996
sg46
V25139
p103
sbag1
(g2
g3
NtRp104
(dp105
g54
V10.1104/pp.118.1.59
p106
sg50
VPLANT PHYSIOL
p107
sg52
V118
p108
sg79
(lp109
(VBURKLE
VL
tp110
asg58
I1998
sg46
VLANT
p111
sbag1
(g2
g3
NtRp112
(dp113
g54
Nsg50
VPOTATO
p114
sg52
Nsg79
(lp115
(VBURTON
VW G
tp116
asg58
I1989
sg46
VOTATO
p117
sbag1
(g2
g3
NtRp118
(dp119
g54
V10.1016/S1369-5266(99)80034-X
p120
sg50
VCURR OPIN PLANT BIOL
p121
sg52
V2
sg79
(lp122
(VBUSH
VD R
tp123
asg58
I1999
sg46
V187
p124
sbag1
(g2
g3
NtRp125
(dp126
g54
V10.1146/annurev.pp.46.060195.001243
p127
sg50
VANNU REV PLANT PHYS
p128
sg52
V46
p129
sg79
(lp130
(VCANNY
VM J
tp131
asg58
I1995
sg46
V215
p132
sbag1
(g2
g3
NtRp133
(dp134
g54
V10.1105/tpc.10.5.741
p135
sg50
VPLANT CELL
p136
sg52
V10
p137
sg79
(lp138
(VCOSCHIGANO
VK T
tp139
asg58
I1998
sg46
VLANT
p140
sbag1
(g2
g3
NtRp141
(dp142
g54
V10.1104/pp.127.2.685
p143
sg50
VPLANT PHYSIOL
p144
sg52
V127
p145
sg79
(lp146
(VFARRE
VE M
tp147
asg58
I2001
sg46
VLANT
p148
sbag1
(g2
g3
NtRp149
(dp150
g54
V10.1007/s004250100521
p151
sg50
VPLANTA
p152
sg52
V213
p153
sg79
(lp154
(VFERNIE
VA R
tp155
asg58
I2001
sg46
VLANTA
p156
sbag1
(g2
g3
NtRp157
(dp158
g54
V10.1046/j.1365-3040.2002.00918.x
p159
sg50
VPLANT CELL ENVIRON
p160
sg52
V25
p161
sg79
(lp162
(VFERNIE
VA R
tp163
asg58
I2002
sg46
VLANT
p164
sbag1
(g2
g3
NtRp165
(dp166
g54
V10.1104/pp.127.4.1459
p167
sg50
VPLANT PHYSIOL
p168
sg52
V127
p169
sg79
(lp170
(VFERNIE
VA R
tp171
asg58
I2001
sg46
VLANT
p172
sbag1
(g2
g3
NtRp173
(dp174
g54
V10.1007/s004250000386
p175
sg50
VPLANTA
p176
sg52
V212
p177
sg79
(lp178
(VFERNIE
VA R
tp179
asg58
I2001
sg46
VLANTA
p180
sbag1
(g2
g3
NtRp181
(dp182
g54
V10.1007/s004250100644
p183
sg50
VPLANTA
p184
sg52
V214
p185
sg79
(lp186
(VFERNIE
VA R
tp187
asg58
I2002
sg46
VLANTA
p188
sbag1
(g2
g3
NtRp189
(dp190
g54
V10.1046/j.1365-313X.2002.01248.x
p191
sg50
VPLANT J
p192
sg52
V29
p193
sg79
(lp194
(VFISCHER
VW N
tp195
asg58
I2002
sg46
VLANT
p196
sbag1
(g2
g3
NtRp197
(dp198
g54
V10.1046/j.1365-313X.1994.6050697.x
p199
sg50
VPLANT J
p200
sg52
V6
sg79
(lp201
(VGAHRTZ
VM
tp202
asg58
I1994
sg46
VLANT
p203
sbag1
(g2
g3
NtRp204
(dp205
g54
V10.1146/annurev.arplant.53.091401.110929
p206
sg50
VANNU REV PLANT BIOL
p207
sg52
V53
p208
sg79
(lp209
(VGALILI
VG
tp210
asg58
I2002
sg46
V27
p211
sbag1
(g2
g3
NtRp212
(dp213
g54
V10.1046/j.1365-313x.2000.00848.x
p214
sg50
VPLANT J
p215
sg52
V23
p216
sg79
(lp217
(VGEIGENBERGER
VP
tp218
asg58
I2000
sg46
VLANT
p219
sbag1
(g2
g3
NtRp220
(dp221
g54
Nsg50
VPLANTA
p222
sg52
V206
p223
sg79
(lp224
(VGEIGER
VM
tp225
asg58
I1998
sg46
VLANTA
p226
sbag1
(g2
g3
NtRp227
(dp228
g54
V10.1146/annurev.pp.34.060183.002023
p229
sg50
VANNU REV PLANT PHYS
p230
sg52
V34
p231
sg79
(lp232
(VGIAQUINTA
VR T
tp233
asg58
I1983
sg46
V347
p234
sbag1
(g2
g3
NtRp235
(dp236
g54
V10.1073/pnas.250473797
p237
sg50
VP NATL ACAD SCI USA
p238
sg52
V97
p239
sg79
(lp240
(VGOTTWALD
VJ R
tp241
asg58
I2000
sg46
V13979
p242
sbag1
(g2
g3
NtRp243
(dp244
g54
V10.1046/j.1365-3040.1998.00309.x
p245
sg50
VPLANT CELL ENVIRON
p246
sg52
V21
p247
sg79
(lp248
(VHARE
VP D
tp249
asg58
I1998
sg46
VLANT
p250
sbag1
(g2
g3
NtRp251
(dp252
g54
V10.1093/jexbot/53.373.1411
p253
sg50
VJ EXP BOT
p254
sg52
V53
p255
sg79
(lp256
(VHENTON
VS M
tp257
asg58
I2002
sg46
V1411
p258
sbag1
(g2
g3
NtRp259
(dp260
g54
Nsg50
VPLANT CELL PHYSIOL
p261
sg52
V38
p262
sg79
(lp263
(VHIROSE
VT
tp264
asg58
I1997
sg46
VLANT
p265
sbag1
(g2
g3
NtRp266
(dp267
g54
V10.1046/j.1365-313x.1998.00318.x
p268
sg50
VPLANT J
p269
sg52
V16
p270
sg79
(lp271
(VKEHR
VJ
tp272
asg58
I1998
sg46
VLANT
p273
sbag1
(g2
g3
NtRp274
(dp275
g54
V10.1111/j.1365-3040.1994.tb00181.x
p276
sg50
VPLANT CELL ENVIRON
p277
sg52
V17
p278
sg79
(lp279
(VKRAPP
VA
tp280
asg58
I1994
sg46
VLANT
p281
sbag1
(g2
g3
NtRp282
(dp283
g54
Nsg50
VPLANTA
p284
sg52
V195
p285
sg79
(lp286
(VKRAPP
VA
tp287
asg58
I1995
sg46
VLANTA
p288
sbag1
(g2
g3
NtRp289
(dp290
g54
V10.1104/pp.011676
p291
sg50
VPLANT PHYSIOL
p292
sg52
V131
p293
sg79
(lp294
(VKUHN
VC
tp295
asg58
I2003
sg46
VLANT
p296
sbag1
(g2
g3
NtRp297
(dp298
g54
V10.1093/jexbot/50.suppl_1.935
p299
sg50
VJ EXP BOT
p300
sg52
V50
p301
sg79
(lp302
(VKUHN
VC
tp303
asg58
I1999
sg46
V935
p304
sbag1
(g2
g3
NtRp305
(dp306
g54
V10.1104/pp.123.3.817
p307
sg50
VPLANT PHYSIOL
p308
sg52
V123
p309
sg79
(lp310
(VLANCIEN
VM
tp311
asg58
I2000
sg46
VLANT
p312
sbag1
(g2
g3
NtRp313
(dp314
g54
V10.1007/s00425-003-0975-x
p315
sg50
VPLANTA
p316
sg52
V217
p317
sg79
(lp318
(VLEGGEWIE
VG
tp319
asg58
I2003
sg46
VLANTA
p320
sbag1
(g2
g3
NtRp321
(dp322
g54
V10.1016/0003-2697(87)90086-8
p323
sg50
VANAL BIOCHEM
p324
sg52
V163
p325
sg79
(lp326
(VLOGEMANN
VJ
tp327
asg58
I1987
sg46
V16
p328
sbag1
(g2
g3
NtRp329
(dp330
g54
V10.1146/annurev.pp.45.060194.003221
p331
sg50
VANNU REV PLANT PHYS
p332
sg52
V45
p333
sg79
(lp334
(VLONG
VS P
tp335
asg58
I1994
sg46
V633
p336
sbag1
(g2
g3
NtRp337
(dp338
g54
V10.1007/s00425-002-0810-9
p339
sg50
VPLANTA
p340
sg52
V215
p341
sg79
(lp342
(VLYTOVCHENKO
VA
tp343
asg58
I2002
sg46
VLANTA
p344
sbag1
(g2
g3
NtRp345
(dp346
g54
V10.1046/j.1365-3040.2002.00892.x
p347
sg50
VPLANT CELL ENVIRON
p348
sg52
V25
p349
sg79
(lp350
(VMACK
VG
tp351
asg58
I2002
sg46
VLANT
p352
sbag1
(g2
g3
NtRp353
(dp354
g54
V10.1007/s004250050452
p355
sg50
VPLANTA
p356
sg52
V207
p357
sg79
(lp358
(VMATT
VP
tp359
asg58
I1998
sg46
VLANTA
p360
sbag1
(g2
g3
NtRp361
(dp362
g54
V10.1007/s004250050415
p363
sg50
VPLANTA
p364
sg52
V206
p365
sg79
(lp366
(VMORCUENDE
VR
tp367
asg58
I1998
sg46
VLANTA
p368
sbag1
(g2
g3
NtRp369
(dp370
g54
V10.1111/j.1399-3054.1962.tb08052.x
p371
sg50
VPHYSIOL PLANTARUM
p372
sg52
V15
p373
sg79
(lp374
(VMURASHIGE
VT
tp375
asg58
I1962
sg46
VHYSIOL
p376
sbag1
(g2
g3
NtRp377
(dp378
g54
Nsg50
VPLANTA
p379
sg52
V206
p380
sg79
(lp381
(VOHRLICH
VG
tp382
asg58
I1998
sg46
VLANTA
p383
sbag1
(g2
g3
NtRp384
(dp385
g54
V10.1104/pp.121.1.301
p386
sg50
VPLANT PHYSIOL
p387
sg52
V121
p388
sg79
(lp389
(VOLIVEIRA
VI C
tp390
asg58
I1999
sg46
VLANT
p391
sbag1
(g2
g3
NtRp392
(dp393
g54
V10.1146/annurev.arplant.51.1.323
p394
sg50
VANNU REV PLANT PHYS
p395
sg52
V51
p396
sg79
(lp397
(VOPARKA
VK J
tp398
asg58
I2000
sg46
V323
p399
sbag1
(g2
g3
NtRp400
(dp401
g54
V10.1016/S0005-2736(00)00144-9
p402
sg50
VBBA
p403
sg52
V1465
p404
sg79
(lp405
(VORTIZ-LOPEZ
VA
tp406
asg58
I2000
sg46
V275
p407
sbag1
(g2
g3
NtRp408
(dp409
g54
V10.1146/annurev.arplant.48.1.191
p410
sg50
VANNU REV PLANT PHYS
p411
sg52
V48
p412
sg79
(lp413
(VPATRICK
VJ W
tp414
asg58
I1997
sg46
V191
p415
sbag1
(g2
g3
NtRp416
(dp417
g54
V10.1038/nbt760
p418
sg50
VNAT BIOTECHNOL
p419
sg52
V20
p420
sg79
(lp421
(VREGIERER
VB
tp422
asg58
I2002
sg46
V1256
p423
sbag1
(g2
g3
NtRp424
(dp425
g54
Nsg50
VEMBO J
p426
sg52
V13
p427
sg79
(lp428
(VRIESMEIER
VJ W
tp429
asg58
I1994
sg46
V1
sbag1
(g2
g3
NtRp430
(dp431
g54
Nsg50
VP NATL ACAD SCI USA
p432
sg52
V90
p433
sg79
(lp434
(VRIESMEIER
VJ W
tp435
asg58
I1993
sg46
V160
p436
sbag1
(g2
g3
NtRp437
(dp438
g54
Nsg50
VPLANT CELL
p439
sg52
V5
sg79
(lp440
(VRIESMEIER
VJ W
tp441
asg58
I1993
sg46
VLANT
p442
sbag1
(g2
g3
NtRp443
(dp444
g54
Nsg50
VEMBO J
p445
sg52
V11
p446
sg79
(lp447
(VRIESMEIER
VJ W
tp448
asg58
I1992
sg46
V4705
p449
sbag1
(g2
g3
NtRp450
(dp451
g54
V10.1046/j.1365-313x.2000.00774.x
p452
sg50
VPLANT J
p453
sg52
V23
p454
sg79
(lp455
(VROESSNER
VU
tp456
asg58
I2000
sg46
VLANT
p457
sbag1
(g2
g3
NtRp458
(dp459
g54
V10.1104/pp.127.3.749
p460
sg50
VPLANT PHYSIOL
p461
sg52
V127
p462
sg79
(lp463
(VROESSNER
VU
tp464
asg58
I2001
sg46
VLANT
p465
sbag1
(g2
g3
NtRp466
(dp467
g54
V10.1105/tpc.13.1.11
p468
sg50
VPLANT CELL
p469
sg52
V13
p470
sg79
(lp471
(VROESSNER
VU
tp472
asg58
I2001
sg46
VLANT
p473
sbag1
(g2
g3
NtRp474
(dp475
g54
V10.1046/j.1365-313X.2002.01282.x
p476
sg50
VPLANT J
p477
sg52
V30
p478
sg79
(lp479
(VROSCHE
VE
tp480
asg58
I2002
sg46
VLANT
p481
sbag1
(g2
g3
NtRp482
(dp483
g54
Nsg50
VMOL CLONING LAB MANU
p484
sg52
Nsg79
(lp485
(VSAMBROOK
VJ
tp486
asg58
I1989
sg46
Nsbag1
(g2
g3
NtRp487
(dp488
g54
V10.1046/j.1365-313X.1994.6010067.x
p489
sg50
VPLANT J
p490
sg52
V6
sg79
(lp491
(VSAUER
VN
tp492
asg58
I1994
sg46
VLANT
p493
sbag1
(g2
g3
NtRp494
(dp495
g54
Nsg50
VGENETICS
p496
sg52
V149
p497
sg79
(lp498
(VSCHULTZ
VC J
tp499
asg58
I1998
sg46
V491
p500
sbag1
(g2
g3
NtRp501
(dp502
g54
V10.1046/j.1365-313x.1998.00247.x
p503
sg50
VPLANT J
p504
sg52
V15
p505
sg79
(lp506
(VSWEETLOVE
VL J
tp507
asg58
I1998
sg46
VLANT
p508
sbag1
(g2
g3
NtRp509
(dp510
g54
Nsg50
VBIOCHEM J
p511
sg52
V320
p512
sg79
(lp513
(VSWEETLOVE
VL J
tp514
asg58
I1996
sg46
V493
p515
sbag1
(g2
g3
NtRp516
(dp517
g54
V10.1046/j.1365-313X.1998.00190.x
p518
sg50
VPLANT J
p519
sg52
V15
p520
sg79
(lp521
(VTRETHEWEY
VR N
tp522
asg58
I1998
sg46
VLANT
p523
sbag1
(g2
g3
NtRp524
(dp525
g54
V10.1046/j.1365-3040.1999.00373.x
p526
sg50
VPLANT CELL ENVIRON
p527
sg52
V22
p528
sg79
(lp529
(VTRETHEWEY
VR N
tp530
asg58
I1999
sg46
VLANT
p531
sbag1
(g2
g3
NtRp532
(dp533
g54
V10.1016/S1360-1385(96)10045-5
p534
sg50
VTRENDS PLANT SCI
p535
sg52
V1
sg79
(lp536
(VTURGEON
VR
tp537
asg58
I1996
sg46
V418
p538
sbag1
(g2
g3
NtRp539
(dp540
g54
Nsg50
VJ PLANT PHYSIOL
p541
sg52
V147
p542
sg79
(lp543
(VWEIG
VA
tp544
asg58
I1996
sg46
V685
p545
sbag1
(g2
g3
NtRp546
(dp547
g54
V10.1007/s002329900275
p548
sg50
VJ MEMBRANE BIOL
p549
sg52
V159
p550
sg79
(lp551
(VZHOU
VJ J
tp552
asg58
I1997
sg46
V113
p553
sbasb.