ccopy_reg
_reconstructor
p1
(ctethne.classes.paper
Paper
p2
c__builtin__
object
p3
NtRp4
(dp5
S'publisherCity'
p6
VROCKVILLE
p7
sS'reprintAddress'
p8
VBak, S (reprint author), Univ Copenhagen, Plant Biochem Lab, Dept Plant Biol, Ctr Mol Plant Physiol, DK-1871 Frederiksberg C, Denmark.
p9
sS'WC'
p10
VPlant Sciences
p11
sS'GA'
p12
V323NU
p13
sS'abstract'
p14
VLotus japonicus accumulates the hydroxynitrile glucosides lotaustralin, linamarin, and rhodiocyanosides A and D. Upon tissue disruption, the hydroxynitrile glucosides are bioactivated by hydrolysis by specific beta-glucosidases. A mixture of two hydroxynitrile glucoside-cleaving b-glucosidases was isolated from L. japonicus leaves and identified by protein sequencing as LjBGD2 and LjBGD4. The isolated hydroxynitrile glucoside-cleaving beta-glucosidases preferentially hydrolyzed rhodiocyanoside A and lotaustralin, whereas linamarin was only slowly hydrolyzed, in agreement with measurements of their rate of degradation upon tissue disruption in L. japonicus leaves. Comparative homology modeling predicted that LjBGD2 and LjBGD4 had nearly identical overall topologies and substrate-binding pockets. Heterologous expression of LjBGD2 and LjBGD4 in Arabidopsis (Arabidopsis thaliana) enabled analysis of their individual substrate specificity profiles and confirmed that both LjBGD2 and LjBGD4 preferentially hydrolyze the hydroxynitrile glucosides present in L. japonicus. Phylogenetic analyses revealed a third L. japonicus putative hydroxynitrile glucoside-cleaving beta-glucosidase, LjBGD7. Reverse transcription-polymerase chain reaction analysis showed that LjBGD2 and LjBGD4 are expressed in aerial parts of young L. japonicus plants, while LjBGD7 is expressed exclusively in roots. The differential expression pattern of LjBGD2, LjBGD4, and LjBGD7 corresponds to the previously observed expression profile for CYP79D3 and CYP79D4, encoding the two cytochromes P450 that catalyze the first committed step in the biosyntheis of hydroxynitrile glucosides in L. japonicus, with CYP79D3 expression in aerial tissues and CYP79D4 expression in roots.
p15
sS'pageEnd'
p16
I1091
sS'date'
p17
I2008
sS'documentType'
p18
VArticle
p19
sS'subject'
p20
VPlant Sciences
p21
sS'isoSource'
p22
VPlant Physiol.
p23
sS'timesCited'
p24
(lp25
I16
aVZ9 16
p26
asS'PT'
p27
VJ
sS'title'
p28
VThe Beta-Glucosidases Responsible For Bioactivation Of Hydroxynitrile Glucosides In Lotus Japonicus
p29
sS'ISSN'
p30
(lp31
V0032-0889
p32
aVJ9 PLANT PHYSIOL
p33
asS'authors_full'
p34
(lp35
(VMORANT
VANNE VINTHER
tp36
a(VBJARNHOLT
VNANNA
tp37
a(VKRAGH
VMADS EMIL
tp38
a(VKJAERGAARD
VCHRISTIAN HAUGE
tp39
a(VJORGENSEN
VKIRSTEN
tp40
a(VPAQUETTE
VSUZANNE MICHELLE
tp41
a(VPIOTROWSKI
VMARKUS
tp42
a(VIMBERTY
VANNE
tp43
a(VOLSEN
VCARL ERIK
tp44
a(VMOLLER
VBIRGER LINDBERG
tp45
a(VBAK
VSOREN
tp46
asS'PG'
p47
I20
sS'PD'
p48
VJUL
p49
sS'pageStart'
p50
I1072
sS'issue'
p51
I3
sS'RI'
p52
VPiotrowski, Markus/F-5419-2010
p53
sS'journal'
p54
VPLANT PHYSIOLOGY
p55
sS'volume'
p56
V147
p57
sS'doi'
p58
V10.1104/pp.107.109512
p59
sS'emailAddress'
p60
Vbak@life.ku.dk
p61
sS'authorAddress'
p62
(lp63
V[Morant, Anne Vinther; Bjarnholt, Nanna; Kragh, Mads Emil; Kjaergaard, Christian Hauge; Jorgensen, Kirsten; Moller, Birger Lindberg; Bak, Soren] Univ Copenhagen, Plant Biochem Lab, Dept Plant Biol, Ctr Mol Plant Physiol, DK-1871 Frederiksberg C, Denmark.
p64
aV[Morant, Anne Vinther; Bjarnholt, Nanna; Kragh, Mads Emil; Kjaergaard, Christian Hauge; Jorgensen, Kirsten; Moller, Birger Lindberg; Bak, Soren] Univ Copenhagen, VKR Res Ctr Proact Plants, DK-1871 Frederiksberg C, Denmark.
p65
aV[Olsen, Carl Erik] Univ Copenhagen, Dept Nat Sci, DK-1871 Frederiksberg C, Denmark.
p66
aV[Paquette, Suzanne Michelle] Univ Washington, Dept Biol Struct, Seattle, WA 98195 USA.
p67
aV[Imberty, Anne] CNRS, CERMAV, Ctr Rech Macromol Vegetales, FR-38041 Grenoble 9, France.
p68
aV[Piotrowski, Markus] Ruhr Univ Bochum, Lehrstuhl Pflanzenphysiol, D-44801 Bochum, Germany.
p69
asS'publisherAddress'
p70
V15501 MONONA DRIVE, ROCKVILLE, MD 20855 USA
p71
sS'ER'
p72
V
sS'publisher'
p73
VAMER SOC PLANT BIOLOGISTS
p74
sS'authorKeywords'
p75
(lp76
VTRIFOLIUM-REPENS L
p77
aVBICOLOR L MOENCH
p78
aVZYGAENA-FILIPENDULAE LEPIDOPTERA
p79
aVFAMILY-1 GLYCOSYL HYDROLASE
p80
aVSEROTINA EHRH SEEDS
p81
aVCYANOGENIC GLUCOSIDE
p82
aVSORGHUM-BICOLOR
p83
aVWHITE CLOVER
p84
aVAMYGDALIN HYDROLASE
p85
aVESCHERICHIA-COLI
p86
asS'language'
p87
VEnglish
p88
sS'wosid'
p89
VWOS:000257454000014
p90
sS'citationCount'
p91
I127
sS'authors_init'
p92
(lp93
(VMORANT
VA V
tp94
a(VBJARNHOLT
VN
tp95
a(VKRAGH
VM E
tp96
a(VKJAERGAARD
VC H
tp97
a(VJORGENSEN
VK
tp98
a(VPAQUETTE
VS M
tp99
a(VPIOTROWSKI
VM
tp100
a(VIMBERTY
VA
tp101
a(VOLSEN
VC E
tp102
a(VMOLLER
VB L
tp103
a(VBAK
VS
tp104
asS'citedReferences'
p105
(lp106
g1
(g2
g3
NtRp107
(dp108
g58
V10.1093/pcp/pcm065
p109
sg54
VPLANT CELL PHYSIOL
p110
sg56
V48
p111
sg92
(lp112
(VAHN
VY O
tp113
asg17
I2007
sg50
VLANT
p114
sbag1
(g2
g3
NtRp115
(dp116
g58
V10.1023/A:1005915507497
p117
sg54
VPLANT MOL BIOL
p118
sg56
V36
p119
sg92
(lp120
(VBAK
VS
tp121
asg17
I1998
sg50
VLANT
p122
sbag1
(g2
g3
NtRp123
(dp124
g58
V10.1104/pp.127.1.108
p125
sg54
VPLANT PHYSIOL
p126
sg56
V127
p127
sg92
(lp128
(VBAK
VS
tp129
asg17
I2001
sg50
VLANT
p130
sbag1
(g2
g3
NtRp131
(dp132
g58
V10.1007/s11101-006-9033-1
p133
sg54
VPhytochemistry Reviews
p134
sg56
V5
sg92
(lp135
(VBAK
VSOREN
tp136
asg17
I2006
sg50
Vhytochemistry
p137
sbag1
(g2
g3
NtRp138
(dp139
g58
V10.1046/j.1365-313X.1999.00642.x
p140
sg54
VPLANT J
p141
sg56
V20
p142
sg92
(lp143
(VBAK
VS
tp144
asg17
I1999
sg50
VLANT
p145
sbag1
(g2
g3
NtRp146
(dp147
g58
V10.1105/tpc.13.1.101
p148
sg54
VPLANT CELL
p149
sg56
V13
p150
sg92
(lp151
(VBAK
VS
tp152
asg17
I2001
sg50
VLANT
p153
sbag1
(g2
g3
NtRp154
(dp155
g58
V10.1016/S0969-2126(01)00229-5
p156
sg54
VSTRUCTURE
p157
sg56
V3
sg92
(lp158
(VBARRETT
VT
tp159
asg17
I1995
sg50
V951
p160
sbag1
(g2
g3
NtRp161
(dp162
g58
V10.1111/j.1365-313X.2006.02716.x
p163
sg54
VPLANT J
p164
sg56
V46
p165
sg92
(lp166
(VBARTH
VC
tp167
asg17
I2006
sg50
VLANT
p168
sbag1
(g2
g3
NtRp169
(dp170
g58
V10.1093/nar/28.1.235
p171
sg54
VNUCLEIC ACIDS RES
p172
sg56
V28
p173
sg92
(lp174
(VBERMAN
VH M
tp175
asg17
I2000
sg50
V235
p176
sbag1
(g2
g3
NtRp177
(dp178
g58
Nsg54
VPHYTOCHEMIS IN PRESS
p179
sg56
Nsg92
(lp180
(VBJARNHOLT
VN
tp181
asg17
I2008
sg50
VHYTOCHEMIS
p182
sbag1
(g2
g3
NtRp183
(dp184
g58
V10.1016/j.phytochem.2008.01.022
p185
sg54
VPHYTOCHEMISTRY
p186
sg56
V69
p187
sg92
(lp188
(VBJARNHOLT
VN
tp189
asg17
I2008
sg50
VHYTOCHEMISTRY
p190
sbag1
(g2
g3
NtRp191
(dp192
g58
V10.1111/j.1432-1033.1988.tb13917.x
p193
sg54
VEUR J BIOCHEM
p194
sg56
V172
p195
sg92
(lp196
(VBLUNDELL
VT
tp197
asg17
I1988
sg50
V513
p198
sbag1
(g2
g3
NtRp199
(dp200
g58
V10.1016/j.phytochem.2006.02.024
p201
sg54
VPHYTOCHEMISTRY
p202
sg56
V67
p203
sg92
(lp204
(VBONES
VA M
tp205
asg17
I2006
sg50
VHYTOCHEMISTRY
p206
sbag1
(g2
g3
NtRp207
(dp208
g58
Nsg54
VANAL BIOCHEM
p209
sg56
V72
p210
sg92
(lp211
(VBRADFORD
VM M
tp212
asg17
I1976
sg50
V254
p213
sbag1
(g2
g3
NtRp214
(dp215
g58
V10.1016/S0969-2126(97)00221-9
p216
sg54
VSTRUCTURE
p217
sg56
V5
sg92
(lp218
(VBURMEISTER
VW P
tp219
asg17
I1997
sg50
V663
p220
sbag1
(g2
g3
NtRp221
(dp222
g58
Nsg54
VJ BIOCHEM
p223
sg56
V128
p224
sg92
(lp225
(VCAIRNS
VJ R K
tp226
asg17
I2000
sg50
V999
p227
sbag1
(g2
g3
NtRp228
(dp229
g58
V10.1006/prep.1999.1158
p230
sg54
VPROTEIN EXPRES PURIF
p231
sg56
V17
p232
sg92
(lp233
(VCHEN
VS X
tp234
asg17
I1999
sg50
VROTEIN
p235
sbag1
(g2
g3
NtRp236
(dp237
g58
V10.1016/j.phytochem.2005.06.024
p238
sg54
VPHYTOCHEMISTRY
p239
sg56
V66
p240
sg92
(lp241
(VCHUANKHAYAN
VP
tp242
asg17
I2005
sg50
VHYTOCHEMISTRY
p243
sbag1
(g2
g3
NtRp244
(dp245
g58
V10.1021/jf062885p
p246
sg54
VJ AGR FOOD CHEM
p247
sg56
V55
p248
sg92
(lp249
(VCHUANKHAYAN
VP
tp250
asg17
I2007
sg50
V2407
p251
sbag1
(g2
g3
NtRp252
(dp253
g58
V10.1016/j.abb.2007.09.015
p254
sg54
VARCH BIOCHEM BIOPHYS
p255
sg56
V468
p256
sg92
(lp257
(VCHUANKHAYAN
VP
tp258
asg17
I2007
sg50
V205
p259
sbag1
(g2
g3
NtRp260
(dp261
g58
V10.1002/(SICI)1097-0290(19990520)63:4<392::AID-BIT2>3.0.CO;2-M
p262
sg54
VBIOTECHNOL BIOENG
p263
sg56
V63
p264
sg92
(lp265
(VCICEK
VM
tp266
asg17
I1999
sg50
V392
p267
sbag1
(g2
g3
NtRp268
(dp269
g58
V10.1002/jcc.540100804
p270
sg54
VJ COMPUT CHEM
p271
sg56
V10
p272
sg92
(lp273
(VCLARK
VM
tp274
asg17
I1989
sg50
V982
p275
sbag1
(g2
g3
NtRp276
(dp277
g58
V10.1046/j.1365-313x.1998.00343.x
p278
sg54
VPLANT J
p279
sg56
V16
p280
sg92
(lp281
(VCLOUGH
VS J
tp282
asg17
I1998
sg50
VLANT
p283
sbag1
(g2
g3
NtRp284
(dp285
g58
Nsg54
VACS SYM SER
p286
sg56
V533
p287
sg92
(lp288
(VCONN
VE E
tp289
asg17
I1993
sg50
V15
p290
sbag1
(g2
g3
NtRp291
(dp292
g58
V10.1042/0264-6021:3540037
p293
sg54
VBIOCHEM J
p294
sg56
V354
p295
sg92
(lp296
(VCZJZEK
VM
tp297
asg17
I2001
sg50
V37
p298
sbag1
(g2
g3
NtRp299
(dp300
g58
V10.1104/pp.107.2.331
p301
sg54
VPLANT PHYSIOL
p302
sg56
V107
p303
sg92
(lp304
(VDHARMAWARDHANA
VD P
tp305
asg17
I1995
sg50
VLANT
p306
sbag1
(g2
g3
NtRp307
(dp308
g58
V10.1023/A:1006226931512
p309
sg54
VPLANT MOL BIOL
p310
sg56
V40
p311
sg92
(lp312
(VDHARMAWARDHANA
VD P
tp313
asg17
I1999
sg50
VLANT
p314
sbag1
(g2
g3
NtRp315
(dp316
g58
V10.1016/0003-9861(88)90482-1
p317
sg54
VARCH BIOCHEM BIOPHYS
p318
sg56
V260
p319
sg92
(lp320
(VDUNN
VM A
tp321
asg17
I1988
sg50
V561
p322
sbag1
(g2
g3
NtRp323
(dp324
g58
V10.1016/j.phytochem.2006.05.022
p325
sg54
VPHYTOCHEMISTRY
p326
sg56
V67
p327
sg92
(lp328
(VESCAMILLA-TREVINO
VL L
tp329
asg17
I2006
sg50
VHYTOCHEMISTRY
p330
sbag1
(g2
g3
NtRp331
(dp332
g58
V10.1104/pp.98.1.174
p333
sg54
VPLANT PHYSIOL
p334
sg56
V98
p335
sg92
(lp336
(VESEN
VA
tp337
asg17
I1992
sg50
VLANT
p338
sbag1
(g2
g3
NtRp339
(dp340
g58
V10.1016/0003-9861(85)90513-2
p341
sg54
VARCH BIOCHEM BIOPHYS
p342
sg56
V243
p343
sg92
(lp344
(VFAN
VT W M
tp345
asg17
I1985
sg50
V361
p346
sbag1
(g2
g3
NtRp347
(dp348
g58
V10.1104/pp.107.108431
p349
sg54
VPLANT PHYSIOL
p350
sg56
V146
p351
sg92
(lp352
(VFARAG
VM A
tp353
asg17
I2008
sg50
VLANT
p354
sbag1
(g2
g3
NtRp355
(dp356
g58
V10.1016/j.phytochem.2006.10.023
p357
sg54
VPHYTOCHEMISTRY
p358
sg56
V68
p359
sg92
(lp360
(VFARAG
VM A
tp361
asg17
I2007
sg50
VHYTOCHEMISTRY
p362
sbag1
(g2
g3
NtRp363
(dp364
g58
V10.1111/j.1365-2672.2005.02657.x
p365
sg54
VJ APPL MICROBIOL
p366
sg56
V99
p367
sg92
(lp368
(VFIA
VG
tp369
asg17
I2005
sg50
V509
p370
sbag1
(g2
g3
NtRp371
(dp372
g58
V10.1104/pp.103.038059
p373
sg54
VPLANT PHYSIOL
p374
sg56
V135
p375
sg92
(lp376
(VFORSLUND
VK
tp377
asg17
I2004
sg50
VLANT
p378
sbag1
(g2
g3
NtRp379
(dp380
g58
V10.1104/pp.84.4.1296
p381
sg54
VPLANT PHYSIOL
p382
sg56
V84
p383
sg92
(lp384
(VFREHNER
VM
tp385
asg17
I1987
sg50
VLANT
p386
sbag1
(g2
g3
NtRp387
(dp388
g58
Nsg54
VAGRON J
p389
sg56
V93
p390
sg92
(lp391
(VGEBREHIWOT
VL
tp392
asg17
I2001
sg50
V603
p393
sbag1
(g2
g3
NtRp394
(dp395
g58
V10.1016/S0168-9452(00)00423-4
p396
sg54
VPLANT SCI
p397
sg56
V160
p398
sg92
(lp399
(VGERARDI
VC
tp400
asg17
I2001
sg50
VLANT
p401
sbag1
(g2
g3
NtRp402
(dp403
g58
V10.1023/A:1016298100201
p404
sg54
VJ CHEM ECOL
p405
sg56
V28
p406
sg92
(lp407
(VGLEADOW
VR M
tp408
asg17
I2002
sg50
V1301
p409
sbag1
(g2
g3
NtRp410
(dp411
g58
Nsg54
VTREE PHYSIOL
p412
sg56
V24
p413
sg92
(lp414
(VGOODGER
VJ Q D
tp415
asg17
I2004
sg50
V681
p416
sbag1
(g2
g3
NtRp417
(dp418
g58
Nsg54
VPLANTA
p419
sg56
V195
p420
sg92
(lp421
(VGRUHNERT
VC
tp422
asg17
I1994
sg50
VLANTA
p423
sbag1
(g2
g3
NtRp424
(dp425
g58
V10.1007/BF00028858
p426
sg54
VPLANT MOL BIOL
p427
sg56
V26
p428
sg92
(lp429
(VGUSMAYER
VS
tp430
asg17
I1994
sg50
VLANT
p431
sbag1
(g2
g3
NtRp432
(dp433
g58
V10.1007/BF00014672
p434
sg54
VPLANT MOL BIOL
p435
sg56
V25
p436
sg92
(lp437
(VHAJDUKIEWICZ
VP
tp438
asg17
I1994
sg50
VLANT
p439
sbag1
(g2
g3
NtRp440
(dp441
g58
V10.1104/pp.90.4.1552
p442
sg54
VPLANT PHYSIOL
p443
sg56
V90
p444
sg92
(lp445
(VHALKIER
VB A
tp446
asg17
I1989
sg50
VLANT
p447
sbag1
(g2
g3
NtRp448
(dp449
g58
V10.1146/annurev.arplant.57.032905.105228
p450
sg54
VANNU REV PLANT BIOL
p451
sg56
V57
p452
sg92
(lp453
(VHALKIER
VB A
tp454
asg17
I2006
sg50
V303
p455
sbag1
(g2
g3
NtRp456
(dp457
g58
VDOI 10.1111/J.1469-8137.2009.02874.X
p458
sg54
VNUCL ACIDS S SER
p459
sg56
V41
p460
sg92
(lp461
(VHALL
VT A
tp462
asg17
I1999
sg50
V95
p463
sbag1
(g2
g3
NtRp464
(dp465
g58
V10.1093/pcp/pcd034
p466
sg54
VPLANT CELL PHYSIOL
p467
sg56
V41
p468
sg92
(lp469
(VHARA
VM
tp470
asg17
I2000
sg50
VLANT
p471
sbag1
(g2
g3
NtRp472
(dp473
g58
V10.1023/A:1006169717355
p474
sg54
VPLANT MOL BIOL
p475
sg56
V39
p476
sg92
(lp477
(VHEISS
VS
tp478
asg17
I1999
sg50
VLANT
p479
sbag1
(g2
g3
NtRp480
(dp481
g58
V10.1016/0003-9861(87)90019-1
p482
sg54
VARCH BIOCHEM BIOPHYS
p483
sg56
V252
p484
sg92
(lp485
(VHOSEL
VW
tp486
asg17
I1987
sg50
V152
p487
sbag1
(g2
g3
NtRp488
(dp489
g58
V10.1016/0968-0004(82)90095-0
p490
sg54
VTRENDS BIOCHEM SCI
p491
sg56
V7
sg92
(lp492
(VHOSEL
VW
tp493
asg17
I1982
sg50
V219
p494
sbag1
(g2
g3
NtRp495
(dp496
g58
V10.1038/hdy.1991.13
p497
sg54
VHEREDITY
p498
sg56
V66
p499
sg92
(lp500
(VHUGHES
VM A
tp501
asg17
I1991
sg50
V105
p502
sbag1
(g2
g3
NtRp503
(dp504
g58
V10.1016/0003-9861(92)90518-2
p505
sg54
VARCH BIOCHEM BIOPHYS
p506
sg56
V295
p507
sg92
(lp508
(VHUGHES
VM A
tp509
asg17
I1992
sg50
V273
p510
sbag1
(g2
g3
NtRp511
(dp512
g58
V10.1007/BF00021030
p513
sg54
VPlant Molecular Biology
p514
sg56
V1
sg92
(lp515
(VHUGHES
VM A
tp516
asg17
I1982
sg50
Vlant
p517
sbag1
(g2
g3
NtRp518
(dp519
g58
Nsg54
VACS SYM SER
p520
sg56
V533
p521
sg92
(lp522
(VHUGHES
VM A
tp523
asg17
I1993
sg50
V153
p524
sbag1
(g2
g3
NtRp525
(dp526
g58
Nsg54
VPERSPECTIVES STRUCTU
p527
sg56
Nsg92
(lp528
(VIMBERTY
VA
tp529
asg17
I1999
sg50
VERSPECTIVES
p530
sbag1
(g2
g3
NtRp531
(dp532
g58
V10.1021/jf0404694
p533
sg54
VJ AGR FOOD CHEM
p534
sg56
V53
p535
sg92
(lp536
(VISMAIL
VB
tp537
asg17
I2005
sg50
V4918
p538
sbag1
(g2
g3
NtRp539
(dp540
g58
Nsg54
VJ BIOCHEM
p541
sg56
V101
p542
sg92
(lp543
(VITOHNASHIDA
VT
tp544
asg17
I1987
sg50
V847
p545
sbag1
(g2
g3
NtRp546
(dp547
g58
V10.1073/pnas.0709315104
p548
sg54
VP NATL ACAD SCI USA
p549
sg56
V104
p550
sg92
(lp551
(VJENRICH
VR
tp552
asg17
I2007
sg50
V18848
p553
sbag1
(g2
g3
NtRp554
(dp555
g58
V10.1016/S0031-9422(97)00425-1
p556
sg54
VPHYTOCHEMISTRY
p557
sg56
V47
p558
sg92
(lp559
(VJONES
VD A
tp560
asg17
I1998
sg50
VHYTOCHEMISTRY
p561
sbag1
(g2
g3
NtRp562
(dp563
g58
V10.1074/jbc.274.50.35483
p564
sg54
VJ BIOL CHEM
p565
sg56
V274
p566
sg92
(lp567
(VJONES
VP R
tp568
asg17
I1999
sg50
V35483
p569
sbag1
(g2
g3
NtRp570
(dp571
g58
V10.1016/j.pbi.2005.03.014
p572
sg54
VCURR OPIN PLANT BIOL
p573
sg56
V8
sg92
(lp574
(VJORGENSEN
VK
tp575
asg17
I2005
sg50
V280
p576
sbag1
(g2
g3
NtRp577
(dp578
g58
V10.1104/pp.105.065904
p579
sg54
VPLANT PHYSIOL
p580
sg56
V139
p581
sg92
(lp582
(VJORGENSEN
VK
tp583
asg17
I2005
sg50
VLANT
p584
sbag1
(g2
g3
NtRp585
(dp586
g58
V10.1104/pp.115.4.1661
p587
sg54
VPLANT PHYSIOL
p588
sg56
V115
p589
sg92
(lp590
(VKAHN
VR A
tp591
asg17
I1997
sg50
VLANT
p592
sbag1
(g2
g3
NtRp593
(dp594
g58
V10.1007/BF00397342
p595
sg54
VPLANTA
p596
sg56
V166
p597
sg92
(lp598
(VKAKES
VP
tp599
asg17
I1985
sg50
VLANTA
p600
sbag1
(g2
g3
NtRp601
(dp602
g58
V10.1126/science.236.4806.1299
p603
sg54
VSCIENCE
p604
sg56
V236
p605
sg92
(lp606
(VKAY
VR
tp607
asg17
I1987
sg50
V1299
p608
sbag1
(g2
g3
NtRp609
(dp610
g58
Nsg54
VBIOCHEM J
p611
sg56
V314
p612
sg92
(lp613
(VKERESZTESSY
VZ
tp614
asg17
I1996
sg50
V41
p615
sbag1
(g2
g3
NtRp616
(dp617
g58
V10.1042/0264-6021:3530199
p618
sg54
VBIOCHEM J
p619
sg56
V353
p620
sg92
(lp621
(VKERESZTESSY
VZ
tp622
asg17
I2001
sg50
V199
p623
sbag1
(g2
g3
NtRp624
(dp625
g58
Nsg54
VJournal of Biochemistry 
p626
sg56
V128
p627
sg92
(lp628
(VKETUDAT
VCAIRNS JAMES R
tp629
asg17
I2000
sg50
V999
p630
sbag1
(g2
g3
NtRp631
(dp632
g58
V10.1016/S0167-4838(98)00209-X
p633
sg54
VBBA
p634
sg56
V1388
p635
sg92
(lp636
(VKIM
VY W
tp637
asg17
I1998
sg50
V457
p638
sbag1
(g2
g3
NtRp639
(dp640
g58
V10.1006/jmbi.2000.4130
p641
sg54
VJ MOL BIOL
p642
sg56
V303
p643
sg92
(lp644
(VKIM
VY W
tp645
asg17
I2000
sg50
V831
p646
sbag1
(g2
g3
NtRp647
(dp648
g58
V10.1073/pnas.0409233102
p649
sg54
VP NATL ACAD SCI USA
p650
sg56
V102
p651
sg92
(lp652
(VKRISTENSEN
VC
tp653
asg17
I2005
sg50
V1779
p654
sbag1
(g2
g3
NtRp655
(dp656
g58
V10.1007/PL00008149
p657
sg54
VPLANTA
p658
sg56
V210
p659
sg92
(lp660
(VKRISTOFFERSEN
VP
tp661
asg17
I2000
sg50
VLANTA
p662
sbag1
(g2
g3
NtRp663
(dp664
g58
V10.1016/0003-9861(86)90603-X
p665
sg54
VARCH BIOCHEM BIOPHYS
p666
sg56
V247
p667
sg92
(lp668
(VKUROKI
VG W
tp669
asg17
I1986
sg50
V433
p670
sbag1
(g2
g3
NtRp671
(dp672
g58
V10.1016/0003-9861(87)90290-6
p673
sg54
VARCH BIOCHEM BIOPHYS
p674
sg56
V255
p675
sg92
(lp676
(VKUROKI
VG W
tp677
asg17
I1987
sg50
V19
p678
sbag1
(g2
g3
NtRp679
(dp680
g58
V10.1107/S0021889892009944
p681
sg54
VJ APPL CRYSTALLOGR
p682
sg56
V26
p683
sg92
(lp684
(VLASKOWSKI
VR A
tp685
asg17
I1993
sg50
V283
p686
sbag1
(g2
g3
NtRp687
(dp688
g58
V10.1074/jbc.270.26.15789
p689
sg54
VJ BIOL CHEM
p690
sg56
V270
p691
sg92
(lp692
(VLEAH
VR
tp693
asg17
I1995
sg50
V15789
p694
sbag1
(g2
g3
NtRp695
(dp696
g58
V10.1016/j.cell.2006.07.034
p697
sg54
VCELL
p698
sg56
V126
p699
sg92
(lp700
(VLEE
VK H
tp701
asg17
I2006
sg50
V1109
p702
sbag1
(g2
g3
NtRp703
(dp704
g58
V10.1104/pp.100.1.282
p705
sg54
VPLANT PHYSIOL
p706
sg56
V100
p707
sg92
(lp708
(VLI
VC P
tp709
asg17
I1992
sg50
VLANT
p710
sbag1
(g2
g3
NtRp711
(dp712
g58
V10.1007/s00253-004-1806-0
p713
sg54
VAPPL MICROBIOL BIOT
p714
sg56
V67
p715
sg92
(lp716
(VMAICAS
VS
tp717
asg17
I2005
sg50
V322
p718
sbag1
(g2
g3
NtRp719
(dp720
g58
V10.1104/pp.104.053389
p721
sg54
VPLANT PHYSIOL
p722
sg56
V138
p723
sg92
(lp724
(VMEWIS
VI
tp725
asg17
I2005
sg50
VLANT
p726
sbag1
(g2
g3
NtRp727
(dp728
g58
V10.1104/pp.102.011023
p729
sg54
VPLANT PHYSIOL
p730
sg56
V130
p731
sg92
(lp732
(VMIZUTANI
VM
tp733
asg17
I2002
sg50
VLANT
p734
sbag1
(g2
g3
NtRp735
(dp736
g58
V10.1104/pp.93.1.176
p737
sg54
VPLANT PHYSIOL
p738
sg56
V93
p739
sg92
(lp740
(VMKPONG
VO E
tp741
asg17
I1990
sg50
VLANT
p742
sbag1
(g2
g3
NtRp743
(dp744
g58
Nsg54
VJ BIOL CHEM
p745
sg56
V255
p746
sg92
(lp747
(VMOLLER
VB L
tp748
asg17
I1980
sg50
V3049
p749
sbag1
(g2
g3
NtRp750
(dp751
g58
V10.1007/s11306-007-0079-x
p752
sg54
VMETABOLOMICS
p753
sg56
V3
sg92
(lp754
(VMORANT
VA V
tp755
asg17
I2007
sg50
V383
p756
sbag1
(g2
g3
NtRp757
(dp758
g58
Nsg54
VPHYTOCHEMIS IN PRESS
p759
sg56
Nsg92
(lp760
(VMORANT
VA V
tp761
asg17
I2008
sg50
VHYTOCHEMIS
p762
sbag1
(g2
g3
NtRp763
(dp764
g58
V10.1016/S0958-1669(03)00024-7
p765
sg54
VCURR OPIN BIOTECH
p766
sg56
V14
p767
sg92
(lp768
(VMORANT
VM
tp769
asg17
I2003
sg50
V151
p770
sbag1
(g2
g3
NtRp771
(dp772
g58
V10.1111/j.1399-3054.1962.tb08052.x
p773
sg54
VPHYSIOL PLANTARUM
p774
sg56
V15
p775
sg92
(lp776
(VMURASHIGE
VT
tp777
asg17
I1962
sg50
VHYSIOL
p778
sbag1
(g2
g3
NtRp779
(dp780
g58
V10.1073/pnas.0708697104
p781
sg54
VP NATL ACAD SCI USA
p782
sg56
V104
p783
sg92
(lp784
(VNAOUMKINA
VM
tp785
asg17
I2007
sg50
V17909
p786
sbag1
(g2
g3
NtRp787
(dp788
g58
V10.1016/j.phytochem.2007.06.033
p789
sg54
VPHYTOCHEMISTRY
p790
sg56
V69
p791
sg92
(lp792
(VNIELSEN
VK A
tp793
asg17
I2008
sg50
VHYTOCHEMISTRY
p794
sbag1
(g2
g3
NtRp795
(dp796
g58
V10.1016/0031-9422(88)80731-3
p797
sg54
VPHYTOCHEMISTRY
p798
sg56
V27
p799
sg92
(lp800
(VNIEMEYER
VH M
tp801
asg17
I1988
sg50
VHYTOCHEMISTRY
p802
sbag1
(g2
g3
NtRp803
(dp804
g58
V10.1034/j.1399-3054.2003.00118.x
p805
sg54
VPHYSIOL PLANTARUM
p806
sg56
V118
p807
sg92
(lp808
(VNIKUS
VJ
tp809
asg17
I2003
sg50
VHYSIOL
p810
sbag1
(g2
g3
NtRp811
(dp812
g58
V10.1007/BF00958960
p813
sg54
VPLANTA
p814
sg56
V173
p815
sg92
(lp816
(VNISIUS
VA
tp817
asg17
I1988
sg50
VLANTA
p818
sbag1
(g2
g3
NtRp819
(dp820
g58
V10.1038/313810a0
p821
sg54
VNATURE
p822
sg56
V313
p823
sg92
(lp824
(VODELL
VJ T
tp825
asg17
I1985
sg50
V810
p826
sbag1
(g2
g3
NtRp827
(dp828
g58
V10.1111/j.1365-294X.2007.03506.x
p829
sg54
VMOL ECOL
p830
sg56
V16
p831
sg92
(lp832
(VOLSEN
VK M
tp833
asg17
I2007
sg50
V4180
p834
sbag1
(g2
g3
NtRp835
(dp836
g58
Nsg54
VGENETICS IN PRESS
p837
sg56
Nsg92
(lp838
(VOLSEN
VK M
tp839
asg17
I2008
sg50
Nsbag1
(g2
g3
NtRp840
(dp841
g58
V10.1007/s11103-005-6217-9
p842
sg54
VPLANT MOL BIOL
p843
sg56
V61
p844
sg92
(lp845
(VPIOTROWSKI
VM
tp846
asg17
I2006
sg50
VLANT
p847
sbag1
(g2
g3
NtRp848
(dp849
g58
V10.1016/0003-9861(89)90245-2
p850
sg54
VARCH BIOCHEM BIOPHYS
p851
sg56
V272
p852
sg92
(lp853
(VPOCSI
VI
tp854
asg17
I1989
sg50
V496
p855
sbag1
(g2
g3
NtRp856
(dp857
g58
Nsg54
VPLANT PHYSIOL
p858
sg56
V104
p859
sg92
(lp860
(VPOULTON
VJ E
tp861
asg17
I1994
sg50
VLANT
p862
sbag1
(g2
g3
NtRp863
(dp864
g58
V10.1104/pp.94.2.401
p865
sg54
VPLANT PHYSIOL
p866
sg56
V94
p867
sg92
(lp868
(VPOULTON
VJ E
tp869
asg17
I1990
sg50
VLANT
p870
sbag1
(g2
g3
NtRp871
(dp872
g58
V10.1007/BF01280200
p873
sg54
VPROTOPLASMA
p874
sg56
V92
p875
sg92
(lp876
(VRISSLER
VJ F
tp877
asg17
I1977
sg50
VROTOPLASMA
p878
sbag1
(g2
g3
NtRp879
(dp880
g58
V10.1104/pp.107.112979
p881
sg54
VPLANT PHYSIOL
p882
sg56
V146
p883
sg92
(lp884
(VSANCHEZ-PEREZ
VR
tp885
asg17
I2008
sg50
VLANT
p886
sbag1
(g2
g3
NtRp887
(dp888
g58
V10.1104/pp.59.4.647
p889
sg54
VPLANT PHYSIOL
p890
sg56
V59
p891
sg92
(lp892
(VSAUNDERS
VJ A
tp893
asg17
I1977
sg50
VLANT
p894
sbag1
(g2
g3
NtRp895
(dp896
g58
V10.1104/pp.61.2.154
p897
sg54
VPLANT PHYSIOL
p898
sg56
V61
p899
sg92
(lp900
(VSAUNDERS
VJ A
tp901
asg17
I1978
sg50
VLANT
p902
sbag1
(g2
g3
NtRp903
(dp904
g58
V10.1104/pp.83.3.557
p905
sg54
VPLANT PHYSIOL
p906
sg56
V83
p907
sg92
(lp908
(VSELMAR
VD
tp909
asg17
I1987
sg50
VLANT
p910
sbag1
(g2
g3
NtRp911
(dp912
g58
V10.1104/pp.86.3.711
p913
sg54
VPLANT PHYSIOL
p914
sg56
V86
p915
sg92
(lp916
(VSELMAR
VD
tp917
asg17
I1988
sg50
VLANT
p918
sbag1
(g2
g3
NtRp919
(dp920
g58
V10.1021/ac0013709
p921
sg54
VANAL CHEM
p922
sg56
V73
p923
sg92
(lp924
(VSHEVCHENKO
VA
tp925
asg17
I2001
sg50
V1917
p926
sbag1
(g2
g3
NtRp927
(dp928
g58
Nsg54
VJ BIOL CHEM
p929
sg56
V270
p930
sg92
(lp931
(VSIBBESEN
VO
tp932
asg17
I1995
sg50
V3506
p933
sbag1
(g2
g3
NtRp934
(dp935
g58
V10.1016/S0168-9452(00)00204-1
p936
sg54
VPLANT SCI
p937
sg56
V155
p938
sg92
(lp939
(VSUE
VM
tp940
asg17
I2000
sg50
VLANT
p941
sbag1
(g2
g3
NtRp942
(dp943
g58
V10.1007/s004250050029
p944
sg54
VPLANTA
p945
sg56
V210
p946
sg92
(lp947
(VSUE
VM
tp948
asg17
I2000
sg50
VLANTA
p949
sbag1
(g2
g3
NtRp950
(dp951
g58
V10.1074/jbc.M605726200
p952
sg54
VJ BIOL CHEM
p953
sg56
V281
p954
sg92
(lp955
(VSUZUKI
VH
tp956
asg17
I2006
sg50
V30251
p957
sbag1
(g2
g3
NtRp958
(dp959
g58
V10.1016/j.phytochem.2007.06.017
p960
sg54
VPHYTOCHEMISTRY
p961
sg56
V69
p962
sg92
(lp963
(VSUZUKI
VH
tp964
asg17
I2008
sg50
VHYTOCHEMISTRY
p965
sbag1
(g2
g3
NtRp966
(dp967
g58
V10.1104/pp.100.1.291
p968
sg54
VPLANT PHYSIOL
p969
sg56
V100
p970
sg92
(lp971
(VSWAIN
VE
tp972
asg17
I1992
sg50
VLANT
p973
sbag1
(g2
g3
NtRp974
(dp975
g58
V10.1093/molbev/msm092
p976
sg54
VMOL BIOL EVOL
p977
sg56
V24
p978
sg92
(lp979
(VTAMURA
VK
tp980
asg17
I2007
sg50
V1596
p981
sbag1
(g2
g3
NtRp982
(dp983
g58
V10.1126/science.1062249
p984
sg54
VSCIENCE
p985
sg56
V293
p986
sg92
(lp987
(VTATTERSALL
VD B
tp988
asg17
I2001
sg50
V1826
p989
sbag1
(g2
g3
NtRp990
(dp991
g58
V10.1104/pp.67.4.617
p992
sg54
VPLANT PHYSIOL
p993
sg56
V67
p994
sg92
(lp995
(VTHAYER
VS S
tp996
asg17
I1981
sg50
VLANT
p997
sbag1
(g2
g3
NtRp998
(dp999
g58
V10.1038/hdy.1987.122
p1000
sg54
VHEREDITY
p1001
sg56
V59
p1002
sg92
(lp1003
(VTILL
VI
tp1004
asg17
I1987
sg50
V265
p1005
sbag1
(g2
g3
NtRp1006
(dp1007
g58
V10.1093/nar/16.17.8725
p1008
sg54
VNUCLEIC ACIDS RES
p1009
sg56
V16
p1010
sg92
(lp1011
(VTOPFER
VR
tp1012
asg17
I1988
sg50
V8725
p1013
sbag1
(g2
g3
NtRp1014
(dp1015
g58
V10.1074/jbc.M301978200
p1016
sg54
VJ BIOL CHEM
p1017
sg56
V278
p1018
sg92
(lp1019
(VVERDOUCQ
VL
tp1020
asg17
I2003
sg50
V25055
p1021
sbag1
(g2
g3
NtRp1022
(dp1023
g58
V10.1074/jbc.M402918200
p1024
sg54
VJ BIOL CHEM
p1025
sg56
V279
p1026
sg92
(lp1027
(VVERDOUCQ
VL
tp1028
asg17
I2004
sg50
V31796
p1029
sbag1
(g2
g3
NtRp1030
(dp1031
g58
Nsg54
VAdvances in Scientific Visualization
p1032
sg56
Nsg92
(lp1033
(VWALDHERR-TESCHNER
VM
tp1034
asg17
I1992
sg50
Nsbag1
(g2
g3
NtRp1035
(dp1036
g58
Nsg54
VPHYTOCHEMISTRY
p1037
sg56
V31
p1038
sg92
(lp1039
(VYEOH
VH H
tp1040
asg17
I1992
sg50
VHYTOCHEMISTRY
p1041
sbag1
(g2
g3
NtRp1042
(dp1043
g58
V10.1016/j.phytochem.2003.10.016
p1044
sg54
VPHYTOCHEMISTRY
p1045
sg56
V65
p1046
sg92
(lp1047
(VZAGROBELNY
VM
tp1048
asg17
I2004
sg50
VHYTOCHEMISTRY
p1049
sbag1
(g2
g3
NtRp1050
(dp1051
g58
V10.1016/j.phytochem.2008.02.019
p1052
sg54
VPHYTOCHEMISTRY
p1053
sg56
V69
p1054
sg92
(lp1055
(VZAGROBELNY
VM
tp1056
asg17
I2008
sg50
VHYTOCHEMISTRY
p1057
sbag1
(g2
g3
NtRp1058
(dp1059
g58
V10.1016/j.ibmb.2006.09.008
p1060
sg54
VINSECT BIOCHEM MOLEC
p1061
sg56
V37
p1062
sg92
(lp1063
(VZAGROBELNY
VM
tp1064
asg17
I2007
sg50
V10
p1065
sbag1
(g2
g3
NtRp1066
(dp1067
g58
V10.1016/j.ibmb.2007.07.008
p1068
sg54
VINSECT BIOCHEM MOLEC
p1069
sg56
V37
p1070
sg92
(lp1071
(VZAGROBELNY
VM
tp1072
asg17
I2007
sg50
V1189
p1073
sbag1
(g2
g3
NtRp1074
(dp1075
g58
V10.1104/pp.109.1.31
p1076
sg54
VPLANT PHYSIOL
p1077
sg56
V109
p1078
sg92
(lp1079
(VZHENG
VL S
tp1080
asg17
I1995
sg50
VLANT
p1081
sbag1
(g2
g3
NtRp1082
(dp1083
g58
V10.1104/pp.010863
p1084
sg54
VPLANT PHYSIOL
p1085
sg56
V129
p1086
sg92
(lp1087
(VZHOU
VJ M
tp1088
asg17
I2002
sg50
VLANT
p1089
sbasb.