ccopy_reg
_reconstructor
p1
(ctethne.classes.paper
Paper
p2
c__builtin__
object
p3
NtRp4
(dp5
S'publisherCity'
p6
VROCKVILLE
p7
sS'reprintAddress'
p8
VAinsworth, EA (reprint author), Univ Illinois, USDA ARS, Photosynthesis Res Unit, Dept Plant Biol, Urbana, IL 61801 USA.
p9
sS'WC'
p10
VPlant Sciences
p11
sS'GA'
p12
V081QF
p13
sS'abstract'
p14
VImprovements in carbon assimilation and water-use efficiency lead to increases in maximum leaf area index at elevated carbon dioxide concentration ([CO2]); however, the molecular drivers for this increase are unknown. We investigated the molecular basis for changes in leaf development at elevated [CO2] using soybeans (Glycine max) grown under fully open air conditions at the Soybean Free Air CO2 Enrichment (SoyFACE) facility. The transcriptome responses of rapidly growing and fully expanded leaves to elevated [CO2] were investigated using cDNA microarrays. We identified 1,146 transcripts that showed a significant change in expression in growing versus fully expanded leaves. Transcripts for ribosomal proteins, cell cycle, and cell wall loosening, necessary for cytoplasmic growth and cell proliferation, were highly expressed in growing leaves. We further identified 139 transcripts with a significant [CO2] by development interaction. Clustering of these transcripts showed that transcripts involved in cell growth and cell proliferation were more highly expressed in growing leaves that developed at elevated [CO2] compared to growing leaves that developed at ambient [CO2]. The 327 [CO2]-responsive genes largely suggest that elevated [CO2] stimulates the respiratory breakdown of carbohydrates, which provides increased energy and biochemical precursors for leaf expansion and growth at elevated [CO2]. While increased photosynthesis and carbohydrate production at elevated [CO2] are well documented, this research demonstrates that at the transcript and metabolite level, respiratory breakdown of starch is also increased at elevated [CO2].
p15
sS'pageEnd'
p16
I147
sS'date'
p17
I2006
sS'documentType'
p18
VArticle
p19
sS'subject'
p20
VPlant Sciences
p21
sS'isoSource'
p22
VPlant Physiol.
p23
sS'timesCited'
p24
(lp25
I48
aVZ9 54
p26
asS'PT'
p27
VJ
sS'title'
p28
VThe Effects Of Elevated Co2 Concentration On Soybean Gene Expression. An Analysis Of Growing And Mature Leaves
p29
sS'ISSN'
p30
(lp31
V0032-0889
p32
aVJ9 PLANT PHYSIOL
p33
asS'authors_full'
p34
(lp35
(VAINSWORTH
VELIZABETH A
tp36
a(VROGERS
VALISTAIR
tp37
a(VVODKIN
VLILA O
tp38
a(VWALTER
VACHIM
tp39
a(VSCHURR
VULRICH
tp40
asS'PG'
p41
I13
sS'PD'
p42
VSEP
p43
sS'pageStart'
p44
I135
sS'issue'
p45
I1
sS'RI'
p46
VRogers, Alistair/E-1177-2011
p47
sS'journal'
p48
VPLANT PHYSIOLOGY
p49
sS'volume'
p50
V142
p51
sS'doi'
p52
V10.1104/pp.106.086256
p53
sS'emailAddress'
p54
Vainswort@uiuc.edu
p55
sS'authorAddress'
p56
(lp57
VUniv Illinois, USDA ARS, Photosynthesis Res Unit, Dept Plant Biol, Urbana, IL 61801 USA.
p58
aVUniv Illinois, Dept Crop Sci, Urbana, IL 61801 USA.
p59
aVBrookhaven Natl Lab, Dept Environm Sci, Upton, NY 11973 USA.
p60
aVJuelich Res Ctr, ICG 3, D-52425 Julich, Germany.
p61
asS'publisherAddress'
p62
V15501 MONONA DRIVE, ROCKVILLE, MD 20855 USA
p63
sS'ER'
p64
V
sS'publisher'
p65
VAMER SOC PLANT BIOLOGISTS
p66
sS'authorKeywords'
p67
(lp68
VCARBON-DIOXIDE
p69
aVENRICHMENT POPFACE
p70
aVPOPULUS-DELTOIDES
p71
aVMICROARRAY DATA
p72
aVCELL EXPANSION
p73
aVPLANT-GROWTH
p74
aVLEAF GROWTH
p75
aVAIR
p76
aVYIELD
p77
aVPHOTOSYNTHESIS
p78
asS'language'
p79
VEnglish
p80
sS'wosid'
p81
VWOS:000240331400015
p82
sS'citationCount'
p83
I48
sS'authors_init'
p84
(lp85
(VAINSWORTH
VE A
tp86
a(VROGERS
VA
tp87
a(VVODKIN
VL O
tp88
a(VWALTER
VA
tp89
a(VSCHURR
VU
tp90
asS'citedReferences'
p91
(lp92
g1
(g2
g3
NtRp93
(dp94
g52
V10.1093/pcp/pch026
p95
sg48
VPLANT CELL PHYSIOL
p96
sg50
V45
p97
sg84
(lp98
(VABE
VT
tp99
asg17
I2004
sg44
VLANT
p100
sbag1
(g2
g3
NtRp101
(dp102
g52
V10.1007/s10265-005-0227-1
p103
sg48
VJ PLANT RES
p104
sg50
V118
p105
sg84
(lp106
(VAINSWORTH
VE A
tp107
asg17
I2005
sg44
V343
p108
sbag1
(g2
g3
NtRp109
(dp110
g52
V10.1046/j.1365-2486.2002.00498.x
p111
sg48
VGLOBAL CHANGE BIOL
p112
sg50
V8
sg84
(lp113
(VAINSWORTH
VE A
tp114
asg17
I2002
sg44
V695
p115
sbag1
(g2
g3
NtRp116
(dp117
g52
V10.2307/2436259
p118
sg48
VAM J BOT
p119
sg50
V20
p120
sg84
(lp121
(VAVERY
VG S
tp122
asg17
I1933
sg44
V565
p123
sbag1
(g2
g3
NtRp124
(dp125
g52
V10.1111/j.1365-3040.2006.01581.x
p126
sg48
VPLANT CELL ENVIRON
p127
sg50
V29
p128
sg84
(lp129
(VBERNACCHI
VC J
tp130
asg17
I2006
sg44
VLANT
p131
sbag1
(g2
g3
NtRp132
(dp133
g52
V10.1093/jxb/28.1.156
p134
sg48
VJ EXP BOT
p135
sg50
V28
p136
sg84
(lp137
(VBUNCE
VJ A
tp138
asg17
I1977
sg44
V156
p139
sbag1
(g2
g3
NtRp140
(dp141
g52
Nsg48
VEMBO J
p142
sg50
V15
p143
sg84
(lp144
(VCHATTERJEE
VM
tp145
asg17
I1996
sg44
V4194
p146
sbag1
(g2
g3
NtRp147
(dp148
g52
V10.1016/j.yexcr.2005.12.032
p149
sg48
VEXP CELL RES
p150
sg50
V312
p151
sg84
(lp152
(VCITTERIO
VS
tp153
asg17
I2006
sg44
V1050
p154
sbag1
(g2
g3
NtRp155
(dp156
g52
V10.1104/pp.103.030569
p157
sg48
VPLANT PHYSIOL
p158
sg50
V134
p159
sg84
(lp160
(VDAVEY
VP A
tp161
asg17
I2004
sg44
VLANT
p162
sbag1
(g2
g3
NtRp163
(dp164
g52
Nsg48
VBIOCH MOL BIOL PLANT
p165
sg50
Nsg84
(lp166
(VDENNIS
VD T
tp167
asg17
I2000
sg44
V631
p168
sbag1
(g2
g3
NtRp169
(dp170
g52
V10.1111/j.1469-8137.2005.01565.x
p171
sg48
VNEW PHYTOL
p172
sg50
V169
p173
sg84
(lp174
(VDERMODY
VO
tp175
asg17
I2006
sg44
V145
p176
sbag1
(g2
g3
NtRp177
(dp178
g52
V10.1071/FP05139
p179
sg48
VFUNCT PLANT BIOL
p180
sg50
V33
p181
sg84
(lp182
(VDRUART
VN
tp183
asg17
I2006
sg44
V121
p184
sbag1
(g2
g3
NtRp185
(dp186
g52
V10.1046/j.1365-3040.2001.00684.x
p187
sg48
VPLANT CELL ENVIRON
p188
sg50
V24
p189
sg84
(lp190
(VFERRIS
VR
tp191
asg17
I2001
sg44
VLANT
p192
sbag1
(g2
g3
NtRp193
(dp194
g52
V10.1111/j.1469-8137.2005.01422.x
p195
sg48
VNEW PHYTOL
p196
sg50
V167
p197
sg84
(lp198
(VGUPTA
VP
tp199
asg17
I2005
sg44
V129
p200
sbag1
(g2
g3
NtRp201
(dp202
g52
Nsg48
VPLANT BIOCH MOL BIOL
p203
sg50
Nsg84
(lp204
(VHELDT
VH W
tp205
asg17
I1997
sg44
VLANT
p206
sbag1
(g2
g3
NtRp207
(dp208
g52
V10.1104/pp.103.024513
p209
sg48
VPLANT PHYSIOL
p210
sg50
V133
p211
sg84
(lp212
(VHENDRIKS
VJ H M
tp213
asg17
I2003
sg44
VLANT
p214
sbag1
(g2
g3
NtRp215
(dp216
g52
V10.1104/pp.60.3.379
p217
sg48
VPLANT PHYSIOL
p218
sg50
V60
p219
sg84
(lp220
(VJONES
VM G K
tp221
asg17
I1977
sg44
VLANT
p222
sbag1
(g2
g3
NtRp223
(dp224
g52
Nsg48
VPLANTA
p225
sg50
V195
p226
sg84
(lp227
(VKALINSKI
VA
tp228
asg17
I1995
sg44
VLANTA
p229
sbag1
(g2
g3
NtRp230
(dp231
g52
V10.1017/S0016672301005055
p232
sg48
VGENET RES
p233
sg50
V77
p234
sg84
(lp235
(VKERR
VM K
tp236
asg17
I2001
sg44
V123
p237
sbag1
(g2
g3
NtRp238
(dp239
g52
V10.1128/JB.186.11.3331-3345.2004
p240
sg48
VJ BACTERIOL
p241
sg50
V186
p242
sg84
(lp243
(VLI
VH
tp244
asg17
I2004
sg44
V3331
p245
sbag1
(g2
g3
NtRp246
(dp247
g52
V10.1126/science.1114722
p248
sg48
VSCIENCE
p249
sg50
V312
p250
sg84
(lp251
(VLONG
VS P
tp252
asg17
I2006
sg44
V1918
p253
sbag1
(g2
g3
NtRp254
(dp255
g52
V10.1146/annurev.arplant.55.031903.141610
p256
sg48
VANNU REV PLANT BIOL
p257
sg50
V55
p258
sg84
(lp259
(VLONG
VS P
tp260
asg17
I2004
sg44
V591
p261
sbag1
(g2
g3
NtRp262
(dp263
g52
V10.1007/s00425-005-0181-0
p264
sg48
VPLANTA
p265
sg50
V223
p266
sg84
(lp267
(VMATSUBARA
VS
tp268
asg17
I2006
sg44
VLANTA
p269
sbag1
(g2
g3
NtRp270
(dp271
g52
V10.1046/j.1469-8137.2001.00115.x
p272
sg48
VNEW PHYTOL
p273
sg50
V150
p274
sg84
(lp275
(VMIGLIETTA
VF
tp276
asg17
I2001
sg44
V465
p277
sbag1
(g2
g3
NtRp278
(dp279
g52
V10.1111/j.1365-2486.2005.001017.x
p280
sg48
VGLOBAL CHANGE BIOL
p281
sg50
V11
p282
sg84
(lp283
(VMORGAN
VP B
tp284
asg17
I2005
sg44
V1856
p285
sbag1
(g2
g3
NtRp286
(dp287
g52
Nsg48
VMANAGED ECOSYSTEMS C
p288
sg50
Nsg84
(lp289
(VORT
VD R
tp290
asg17
I2006
sg44
V71
p291
sbag1
(g2
g3
NtRp292
(dp293
g52
Nsg48
VBIODISCOVER INC TECH
p294
sg50
Nsg84
(lp295
(VPRAKASH
VP J
tp296
asg17
I2004
sg44
V1
sbag1
(g2
g3
NtRp297
(dp298
g52
Nsg48
VCLIMATE CHANGE 2001
p299
sg50
Nsg84
(lp300
(VPRENTICE
VI C
tp301
asg17
I2001
sg44
V183
p302
sbag1
(g2
g3
NtRp303
(dp304
g52
V10.1093/jxb/erl011
p305
sg48
VJ EXP BOT
p306
sg50
V57
p307
sg84
(lp308
(VRAINES
VC A
tp309
asg17
I2006
sg44
V1857
p310
sbag1
(g2
g3
NtRp311
(dp312
g52
Nsg48
V53 IOW STAT U
p313
sg50
Nsg84
(lp314
(VRITCHIE
VS W
tp315
asg17
I1997
sg44
Nsbag1
(g2
g3
NtRp316
(dp317
g52
V10.1111/j.1365-3040.2004.01163.x
p318
sg48
VPLANT CELL ENVIRON
p319
sg50
V27
p320
sg84
(lp321
(VROGERS
VA
tp322
asg17
I2004
sg44
VLANT
p323
sbag1
(g2
g3
NtRp324
(dp325
g52
V10.1111/j.1365-3040.2006.01549.x
p326
sg48
VPLANT CELL ENVIRON
p327
sg50
V29
p328
sg84
(lp329
(VROGERS
VA
tp330
asg17
I2006
sg44
VLANT
p331
sbag1
(g2
g3
NtRp332
(dp333
g52
Nsg48
VBIOTECHNIQUES
p334
sg50
V34
p335
sg84
(lp336
(VSAEED
VA I
tp337
asg17
I2003
sg44
V374
p338
sbag1
(g2
g3
NtRp339
(dp340
g52
Nsg48
VMOL CLONING LAB MANU
p341
sg50
Nsg84
(lp342
(VSAMBROOK
VJ
tp343
asg17
I1989
sg44
Nsbag1
(g2
g3
NtRp344
(dp345
g52
V10.1111/j.1365-3040.2005.01490.x
p346
sg48
VPLANT CELL ENVIRON
p347
sg50
V29
p348
sg84
(lp349
(VSCHURR
VU
tp350
asg17
I2006
sg44
VLANT
p351
sbag1
(g2
g3
NtRp352
(dp353
g52
V10.1146/annurev.arplant.56.032604.144257
p354
sg48
VANNU REV PLANT BIOL
p355
sg50
V56
p356
sg84
(lp357
(VSMITH
VA M
tp358
asg17
I2005
sg44
V73
p359
sbag1
(g2
g3
NtRp360
(dp361
g52
V10.1016/j.pbi.2003.09.009
p362
sg48
VCURR OPIN PLANT BIOL
p363
sg50
V6
sg84
(lp364
(VSUGIMOTO-SHIRASU
VK
tp365
asg17
I2003
sg44
V544
p366
sbag1
(g2
g3
NtRp367
(dp368
g52
Nsg48
VJ EXP BOT
p369
sg50
V45
p370
sg84
(lp371
(VTAYLOR
VG
tp372
asg17
I1994
sg44
V1761
p373
sbag1
(g2
g3
NtRp374
(dp375
g52
V10.1111/j.1469-8137.2005.01450.x
p376
sg48
VNEW PHYTOL
p377
sg50
V167
p378
sg84
(lp379
(VTAYLOR
VG
tp380
asg17
I2005
sg44
V143
p381
sbag1
(g2
g3
NtRp382
(dp383
g52
V10.1104/pp.011296
p384
sg48
VPLANT PHYSIOL
p385
sg50
V131
p386
sg84
(lp387
(VTAYLOR
VG
tp388
asg17
I2003
sg44
VLANT
p389
sbag1
(g2
g3
NtRp390
(dp391
g52
V10.1016/S0141-8130(00)00109-4
p392
sg48
VINT J BIOL MACROMOL
p393
sg50
V27
p394
sg84
(lp395
(VTHOMAS
VB R
tp396
asg17
I2000
sg44
V139
p397
sbag1
(g2
g3
NtRp398
(dp399
g52
V10.1016/j.plantsci.2004.04.010
p400
sg48
VPLANT SCI
p401
sg50
V167
p402
sg84
(lp403
(VTRAINOTTI
VL
tp404
asg17
I2004
sg44
VLANT
p405
sbag1
(g2
g3
NtRp406
(dp407
g52
V10.1111/j.1469-8137.2004.01057.x
p408
sg48
VNEW PHYTOL
p409
sg50
V162
p410
sg84
(lp411
(VTRICKER
VP J
tp412
asg17
I2004
sg44
V413
p413
sbag1
(g2
g3
NtRp414
(dp415
g52
V10.1146/annurev.pp.40.060189.001003
p416
sg48
VANNU REV PLANT PHYS
p417
sg50
V40
p418
sg84
(lp419
(VTURGEON
VR
tp420
asg17
I1989
sg44
V119
p421
sbag1
(g2
g3
NtRp422
(dp423
g52
V10.1186/1471-2164-5-73
p424
sg48
VBMC GENOMICS
p425
sg50
V5
sg84
(lp426
(VVODKIN
VL O
tp427
asg17
I2004
sg44
Nsbag1
(g2
g3
NtRp428
(dp429
g52
Nsg48
VGLOBAL CHANGE BIOL
p430
sg50
V11
p431
sg84
(lp432
(VWALTER
VA
tp433
asg17
I2005
sg44
V1258
p434
sbag1
(g2
g3
NtRp435
(dp436
g52
V10.1007/BF02668374
p437
sg48
VPlant Molecular Biology Reporter
p438
sg50
V12
p439
sg84
(lp440
(VWANG
VC S
tp441
asg17
I1994
sg44
Vlant
p442
sbag1
(g2
g3
NtRp443
(dp444
g52
V10.1073/pnas.222549199
p445
sg48
VP NATL ACAD SCI USA
p446
sg50
V99
p447
sg84
(lp448
(VWAYNE
VM L
tp449
asg17
I2002
sg44
V14903
p450
sbasb.