ccopy_reg
_reconstructor
p1
(ctethne.classes.paper
Paper
p2
c__builtin__
object
p3
NtRp4
(dp5
S'publisherCity'
p6
VROCKVILLE
p7
sS'reprintAddress'
p8
VLi, XG (reprint author), Syngenta Biotechnol Inc, POB 12257,3054 Cornwallis Rd, Res Triangle Pk, NC 27709 USA.
p9
sS'WC'
p10
VPlant Sciences
p11
sS'GA'
p12
V732ZE
p13
sS'abstract'
p14
VIn this article, we report the isolation of plant protoporphyrinogen oxidase (PPO) genes and the isolation of herbicide-tolerant mutants. Subsequently, an Arabidopsis double mutant (Y426M + S305L) was used to develop a selectable marker system for Agrobacterium tumefaciens-mediated transformation of maize (Zen mays) and to obtain multiple events tolerant to the PPO family of herbicides. Maize transformants were produced via butafenacil selection using a flexible light regime to increase selection pressure. Butafenacil selection per se did not change transgene copy number distribution relative to other selectable marker systems, but the most tolerant events identified in the greenhouse were more likely to contain multiple copies of the introduced mutant PPO gene. To date, more than 2,500 independent transgenic maize events have been produced using butafenacil selection. The high frequency of A. tumefaciens-mediated transformation via PPO selection enabled us to obtain single-copy transgenic maize lines tolerant to field levels of butafenacil.
p15
sS'pageEnd'
p16
I747
sS'publisherAddress'
p17
V15501 MONONA DRIVE, ROCKVILLE, MD 20855 USA
p18
sS'documentType'
p19
VArticle
p20
sS'subject'
p21
VPlant Sciences
p22
sS'isoSource'
p23
VPlant Physiol.
p24
sS'timesCited'
p25
(lp26
I30
aVZ9 39
p27
asS'PT'
p28
VJ
sS'title'
p29
VDevelopment Of Protoporphyrinogen Oxidase As An Efficient Selection Marker For Agrobacterium Tumefaciens-Mediated Transformation Of Maize
p30
sS'ISSN'
p31
(lp32
V0032-0889
p33
aVJ9 PLANT PHYSIOL
p34
asS'authors_full'
p35
(lp36
(VLI
VXG
tp37
a(VVOLRATH
VSL
tp38
a(VNICHOLL
VDBG
tp39
a(VCHILCOTT
VCE
tp40
a(VJOHNSON
VMA
tp41
a(VWARD
VER
tp42
a(VLAW
VMD
tp43
asS'PG'
p44
I12
sS'PD'
p45
VOCT
p46
sS'pageStart'
p47
I736
sS'issue'
p48
I2
sS'journal'
p49
VPLANT PHYSIOLOGY
p50
sS'volume'
p51
V133
p52
sS'doi'
p53
V10.1104/pp.103.026245
p54
sS'authorAddress'
p55
VSyngenta Biotechnol Inc, Res Triangle Pk, NC 27709 USA.
p56
sS'date'
p57
I2003
sS'ER'
p58
V
sS'publisher'
p59
VAMER SOC PLANT BIOLOGISTS
p60
sS'authorKeywords'
p61
(lp62
VPHOTOMIXOTROPHIC TOBACCO CELLS
p63
aVHIGH-VELOCITY MICROPROJECTILES
p64
aVZEA-MAYS L.
p65
aVINHIBITING HERBICIDES
p66
aVESCHERICHIA-COLI
p67
aVARABIDOPSIS-THALIANA
p68
aVIX OXIDASE
p69
aVCOPROPORPHYRINOGEN OXIDASE
p70
aVMOLECULAR CHARACTERIZATION
p71
aVPHOSPHOMANNOSE-ISOMERASE
p72
asS'language'
p73
VEnglish
p74
sS'wosid'
p75
VWOS:000185974800034
p76
sS'citationCount'
p77
I64
sS'authors_init'
p78
(lp79
(VLI
VX G
tp80
a(VVOLRATH
VS L
tp81
a(VNICHOLL
VD B G
tp82
a(VCHILCOTT
VC E
tp83
a(VJOHNSON
VM A
tp84
a(VWARD
VE R
tp85
a(VLAW
VM D
tp86
asS'citedReferences'
p87
(lp88
g1
(g2
g3
NtRp89
(dp90
g53
Nsg49
VMAIZE GENET COOP NEW
p91
sg51
V65
p92
sg78
(lp93
(VARMSTRONG
VC
tp94
asg57
I1991
sg47
V92
p95
sbag1
(g2
g3
NtRp96
(dp97
g53
Nsg49
VMAYDICA
p98
sg51
V44
p99
sg78
(lp100
(VARMSTRONG
VC L
tp101
asg57
I1999
sg47
V101
p102
sbag1
(g2
g3
NtRp103
(dp104
g53
Nsg49
VMETH MOL B
p105
sg51
V82
p106
sg78
(lp107
(VBECHTOLD
VN
tp108
asg57
I1998
sg47
V259
p109
sbag1
(g2
g3
NtRp110
(dp111
g53
V10.1104/pp.124.1.59
p112
sg49
VPLANT PHYSIOL
p113
sg51
V124
p114
sg78
(lp115
(VCHE
VF S
tp116
asg57
I2000
sg47
VLANT
p117
sbag1
(g2
g3
NtRp118
(dp119
g53
V10.1007/BF01969712
p120
sg49
VTRANSGENIC RES
p121
sg51
V5
sg78
(lp122
(VCHRISTENSEN
VA H
tp123
asg57
I1996
sg47
V213
p124
sbag1
(g2
g3
NtRp125
(dp126
g53
V10.1006/abbi.1995.0051
p127
sg49
VARCH BIOCHEM BIOPHYS
p128
sg51
V324
p129
sg78
(lp130
(VDAILEY
VT A
tp131
asg57
I1995
sg47
V379
p132
sbag1
(g2
g3
NtRp133
(dp134
g53
Nsg49
VJ BIOL CHEM
p135
sg51
V269
p136
sg78
(lp137
(VDAILEY
VT A
tp138
asg57
I1994
sg47
V813
p139
sbag1
(g2
g3
NtRp140
(dp141
g53
V10.1006/prep.2000.1274
p142
sg49
VPROTEIN EXPRES PURIF
p143
sg51
V20
p144
sg78
(lp145
(VDE
VMARCO A
tp146
asg57
I2000
sg47
VROTEIN
p147
sbag1
(g2
g3
NtRp148
(dp149
g53
Nsg49
VP387
p150
sg51
V12
p151
sg78
(lp152
(VDEVEREUX J NUCLEIC ACIDS RES V12
S''
tp153
asg57
Nsg47
V387
p154
sbag1
(g2
g3
NtRp155
(dp156
g53
V10.1104/pp.000653
p157
sg49
VPLANT PHYSIOL
p158
sg51
V129
p159
sg78
(lp160
(VFRAME
VB R
tp161
asg57
I2002
sg47
VLANT
p162
sbag1
(g2
g3
NtRp163
(dp164
g53
V10.1038/nbt0990-833
p165
sg49
VBIO
p166
sg51
V8
sg78
(lp167
(VFROMM
VM E
tp168
asg57
I1990
sg47
V833
p169
sbag1
(g2
g3
NtRp170
(dp171
g53
V10.1038/319791a0
p172
sg49
VNATURE
p173
sg51
V319
p174
sg78
(lp175
(VFROMM
VM E
tp176
asg57
I1986
sg47
V791
p177
sbag1
(g2
g3
NtRp178
(dp179
g53
Nsg49
VPLANT CELL
p180
sg51
V2
sg78
(lp181
(VGORDONKAMM
VW J
tp182
asg57
I1990
sg47
VLANT
p183
sbag1
(g2
g3
NtRp184
(dp185
g53
Nsg49
VSTRATEGIES
p186
sg51
V7
sg78
(lp187
(VGREENER
VA
tp188
asg57
I1994
sg47
V32
p189
sbag1
(g2
g3
NtRp190
(dp191
g53
V10.1023/A:1008946628406
p192
sg49
VTRANSGENIC RES
p193
sg51
V9
sg78
(lp194
(VGRESSEL
VJ
tp195
asg57
I2000
sg47
V355
p196
sbag1
(g2
g3
NtRp197
(dp198
g53
V10.1046/j.1365-313x.2001.01183.x
p199
sg49
VPLANT J
p200
sg51
V28
p201
sg78
(lp202
(VHANIN
VM
tp203
asg57
I2001
sg47
VLANT
p204
sbag1
(g2
g3
NtRp205
(dp206
g53
Nsg49
VSUCCESSFUL FARMING
p207
sg51
V3
sg78
(lp208
(VHOLMBERG
VM
tp209
asg57
I2000
sg47
V25
p210
sbag1
(g2
g3
NtRp211
(dp212
g53
Nsg49
VBIOTECHNIQUES
p213
sg51
V31
p214
sg78
(lp215
(VINGHAM
VD J
tp216
asg57
I2001
sg47
V132
p217
sbag1
(g2
g3
NtRp218
(dp219
g53
V10.1038/nbt0696-745
p220
sg49
VNAT BIOTECHNOL
p221
sg51
V14
p222
sg78
(lp223
(VISHIDA
VY
tp224
asg57
I1996
sg47
V745
p225
sbag1
(g2
g3
NtRp226
(dp227
g53
V10.1104/pp.97.1.197
p228
sg49
VPLANT PHYSIOL
p229
sg51
V97
p230
sg78
(lp231
(VJACOBS
VJ M
tp232
asg57
I1991
sg47
VLANT
p233
sbag1
(g2
g3
NtRp234
(dp235
g53
V10.1023/A:1009633809610
p236
sg49
VMOL BREEDING
p237
sg51
V4
sg78
(lp238
(VJOERSBO
VM
tp239
asg57
I1998
sg47
V111
p240
sbag1
(g2
g3
NtRp241
(dp242
g53
V10.1034/j.1399-3054.2001.1110301.x
p243
sg49
VPHYSIOL PLANTARUM
p244
sg51
V111
p245
sg78
(lp246
(VJOERSBO
VM
tp247
asg57
I2001
sg47
VHYSIOL
p248
sbag1
(g2
g3
NtRp249
(dp250
g53
Nsg49
VPatent No
p251
sg51
Nsg78
(lp252
(VJOHNSON
VM A
tp253
asg57
I2000
sg47
Vatent
p254
sbag1
(g2
g3
NtRp255
(dp256
g53
V10.1038/nbt0588-559
p257
sg49
VBIO
p258
sg51
V6
sg78
(lp259
(VKLEIN
VT M
tp260
asg57
I1988
sg47
V559
p261
sbag1
(g2
g3
NtRp262
(dp263
g53
V10.1104/pp.91.1.440
p264
sg49
VPLANT PHYSIOL
p265
sg51
V91
p266
sg78
(lp267
(VKLEIN
VT M
tp268
asg57
I1989
sg47
VLANT
p269
sbag1
(g2
g3
NtRp270
(dp271
g53
V10.1073/pnas.85.12.4305
p272
sg49
VP NATL ACAD SCI USA
p273
sg51
V85
p274
sg78
(lp275
(VKLEIN
VT M
tp276
asg57
I1988
sg47
V4305
p277
sbag1
(g2
g3
NtRp278
(dp279
g53
V10.1046/j.1365-313X.1996.10010165.x
p280
sg49
VPLANT J
p281
sg51
V10
p282
sg78
(lp283
(VKOMARI
VT
tp284
asg57
I1996
sg47
VLANT
p285
sbag1
(g2
g3
NtRp286
(dp287
g53
Nsg49
VPLANT CELL PHYSIOL
p288
sg51
V41
p289
sg78
(lp290
(VLEE
VH J
tp291
asg57
I2000
sg47
VLANT
p292
sbag1
(g2
g3
NtRp293
(dp294
g53
Nsg49
VPLANT PHYSIOL
p295
sg51
V102
p296
sg78
(lp297
(VLEE
VH J
tp298
asg57
I1993
sg47
VLANT
p299
sbag1
(g2
g3
NtRp300
(dp301
g53
V10.1104/pp.122.1.75
p302
sg49
VPLANT PHYSIOL
p303
sg51
V122
p304
sg78
(lp305
(VLERMONTOVA
VI
tp306
asg57
I2000
sg47
VLANT
p307
sbag1
(g2
g3
NtRp308
(dp309
g53
V10.1073/pnas.94.16.8895
p310
sg49
VP NATL ACAD SCI USA
p311
sg51
V94
p312
sg78
(lp313
(VLERMONTOVA
VI
tp314
asg57
I1997
sg47
V8895
p315
sbag1
(g2
g3
NtRp316
(dp317
g53
V10.1111/j.1399-3054.1965.tb06874.x
p318
sg49
VPHYSIOL PLANTARUM
p319
sg51
V18
p320
sg78
(lp321
(VLINSMAIEEM
S''
tp322
asg57
I1965
sg47
VHYSIOL
p323
sbag1
(g2
g3
NtRp324
(dp325
g53
V10.1007/BF00016134
p326
sg49
VPLANT MOL BIOL
p327
sg51
V13
p328
sg78
(lp329
(VLYZNIK
VL A
tp330
asg57
I1989
sg47
VLANT
p331
sbag1
(g2
g3
NtRp332
(dp333
g53
V10.1023/A:1016390621482
p334
sg49
VTRANSGENIC RES
p335
sg51
V11
p336
sg78
(lp337
(VMILLER
VM
tp338
asg57
I2002
sg47
V381
p339
sbag1
(g2
g3
NtRp340
(dp341
g53
Nsg49
VPLANT J
p342
sg51
V2
sg78
(lp343
(VMINET
VM
tp344
asg57
I1992
sg47
VLANT
p345
sbag1
(g2
g3
NtRp346
(dp347
g53
V10.1046/j.1365-313X.1999.00420.x
p348
sg49
VPLANT J
p349
sg51
V17
p350
sg78
(lp351
(VMOLINA
VA
tp352
asg57
I1999
sg47
VLANT
p353
sbag1
(g2
g3
NtRp354
(dp355
g53
Nsg49
VACS SYM SER
p356
sg51
V524
p357
sg78
(lp358
(VNANDIHALLI
VU B
tp359
asg57
I1993
sg47
V62
p360
sbag1
(g2
g3
NtRp361
(dp362
g53
Nsg49
VMOL GEN GENET
p363
sg51
V261
p364
sg78
(lp365
(VNARITA
VS
tp366
asg57
I1999
sg47
V1012
p367
sbag1
(g2
g3
NtRp368
(dp369
g53
V10.1016/S0378-1119(96)00545-8
p370
sg49
VGENE
p371
sg51
V182
p372
sg78
(lp373
(VNARITA
VS
tp374
asg57
I1996
sg47
V169
p375
sbag1
(g2
g3
NtRp376
(dp377
g53
V10.1007/s002999900187
p378
sg49
VPLANT CELL REP
p379
sg51
V19
p380
sg78
(lp381
(VNEGROTTO
VD
tp382
asg57
I2000
sg47
VLANT
p383
sbag1
(g2
g3
NtRp384
(dp385
g53
Nsg49
VJ BIOL CHEM
p386
sg51
V270
p387
sg78
(lp388
(VNISHIMURA
VK
tp389
asg57
I1995
sg47
V8076
p390
sbag1
(g2
g3
NtRp391
(dp392
g53
V10.1016/S0261-2194(00)00102-2
p393
sg49
VCROP PROT
p394
sg51
V19
p395
sg78
(lp396
(VOWEN
VM D K
tp397
asg57
I2000
sg47
V765
p398
sbag1
(g2
g3
NtRp399
(dp400
g53
V10.1023/A:1006085026294
p401
sg49
VPLANT MOL BIOL
p402
sg51
V38
p403
sg78
(lp404
(VRANDOLPH-ANDERSON
VB L
tp405
asg57
I1998
sg47
VLANT
p406
sbag1
(g2
g3
NtRp407
(dp408
g53
V10.1007/BF00014669
p409
sg49
VPLANT MOL BIOL
p410
sg51
V25
p411
sg78
(lp412
(VREGISTER
VJ C
tp413
asg57
I1994
sg47
VLANT
p414
sbag1
(g2
g3
NtRp415
(dp416
g53
V10.1126/science.2832947
p417
sg49
VSCIENCE
p418
sg51
V240
p419
sg78
(lp420
(VRHODES
VC A
tp421
asg57
I1988
sg47
V204
p422
sbag1
(g2
g3
NtRp423
(dp424
g53
Nsg49
VCAN J MICROBIOL
p425
sg51
V39
p426
sg78
(lp427
(VSASARMAN
VA
tp428
asg57
I1993
sg47
V1155
p429
sbag1
(g2
g3
NtRp430
(dp431
g53
Nsg49
VJ GEN MICROBIOL
p432
sg51
V113
p433
sg78
(lp434
(VSASARMAN
VA
tp435
asg57
I1979
sg47
V297
p436
sbag1
(g2
g3
NtRp437
(dp438
g53
V10.1104/pp.97.1.280
p439
sg49
VPLANT PHYSIOL
p440
sg51
V97
p441
sg78
(lp442
(VSHERMAN
VT D
tp443
asg57
I1991
sg47
VLANT
p444
sbag1
(g2
g3
NtRp445
(dp446
g53
Nsg49
VMOL GEN GENET
p447
sg51
V232
p448
sg78
(lp449
(VSHYR
VY Y J
tp450
asg57
I1992
sg47
V377
p451
sbag1
(g2
g3
NtRp452
(dp453
g53
V10.1105/tpc.13.2.319
p454
sg49
VPLANT CELL
p455
sg51
V13
p456
sg78
(lp457
(VSIDORENKO
VL V
tp458
asg57
I2001
sg47
VLANT
p459
sbag1
(g2
g3
NtRp460
(dp461
g53
Nsg49
VBIOCHEM J
p462
sg51
V292
p463
sg78
(lp464
(VSMITH
VA G
tp465
asg57
I1993
sg47
V503
p466
sbag1
(g2
g3
NtRp467
(dp468
g53
Nsg49
VTHEOR APPL GENET
p469
sg51
V79
p470
sg78
(lp471
(VSPENCER
VT M
tp472
asg57
I1990
sg47
V625
p473
sbag1
(g2
g3
NtRp474
(dp475
g53
V10.1016/S0261-2194(00)00069-7
p476
sg49
VCROP PROT
p477
sg51
V19
p478
sg78
(lp479
(VTHEODORIDIS
VG
tp480
asg57
I2000
sg47
V533
p481
sbag1
(g2
g3
NtRp482
(dp483
g53
Nsg49
VPESTICIDE MANUAL
p484
sg51
Nsg78
(lp485
(VTOMLIN
VC D S
tp486
asg57
I2000
sg47
VESTICIDE
p487
sbag1
(g2
g3
NtRp488
(dp489
g53
Nsg49
VU
sg51
Nsg78
(lp490
(VVOLRATH
VS L
tp491
asg57
I1999
sg47
Vatent
p492
sbag1
(g2
g3
NtRp493
(dp494
g53
V10.1007/BF00034948
p495
sg49
VPLANT MOL BIOL
p496
sg51
V18
p497
sg78
(lp498
(VWALTERS
VD A
tp499
asg57
I1992
sg47
VLANT
p500
sbag1
(g2
g3
NtRp501
(dp502
g53
V10.1007/s002999900181
p503
sg49
VPLANT CELL REP
p504
sg51
V19
p505
sg78
(lp506
(VWANG
VA S
tp507
asg57
I2000
sg47
VLANT
p508
sbag1
(g2
g3
NtRp509
(dp510
g53
V10.1002/ps.357
p511
sg49
VPEST MANAG SCI
p512
sg51
V57
p513
sg78
(lp514
(VWARABI
VE
tp515
asg57
I2001
sg47
VEST
p516
sbag1
(g2
g3
NtRp517
(dp518
g53
Nsg49
VU
sg51
Nsg78
(lp519
(VWARD
VE R
tp520
asg57
I2001
sg47
Vatent
p521
sbag1
(g2
g3
NtRp522
(dp523
g53
V10.1271/bbb.66.1799
p524
sg49
VBIOSCI BIOTECH BIOCH
p525
sg51
V66
p526
sg78
(lp527
(VWATANABE
VN
tp528
asg57
I2002
sg47
V1799
p529
sbag1
(g2
g3
NtRp530
(dp531
g53
V10.1104/pp.118.3.751
p532
sg49
VPLANT PHYSIOL
p533
sg51
V118
p534
sg78
(lp535
(VWATANABE
VN
tp536
asg57
I1998
sg47
VLANT
p537
sbag1
(g2
g3
NtRp538
(dp539
g53
V10.1104/pp.90.4.1239
p540
sg49
VPLANT PHYSIOL
p541
sg51
V90
p542
sg78
(lp543
(VWITKOWSKI
VD A
tp544
asg57
I1989
sg47
VLANT
p545
sbag1
(g2
g3
NtRp546
(dp547
g53
V10.1007/s002990100318
p548
sg49
VPLANT CELL REP
p549
sg51
V20
p550
sg78
(lp551
(VWRIGHT
VM
tp552
asg57
I2001
sg47
VLANT
p553
sbag1
(g2
g3
NtRp554
(dp555
g53
Nsg49
VWEED SCI
p556
sg51
V43
p557
sg78
(lp558
(VWRIGHT
VT R
tp559
asg57
I1995
sg47
V47
p560
sbasb.