ccopy_reg
_reconstructor
p1
(ctethne.classes.paper
Paper
p2
c__builtin__
object
p3
NtRp4
(dp5
S'publisherCity'
p6
VROCKVILLE
p7
sS'reprintAddress'
p8
VKawaoka, A (reprint author), Nippon Paper Ind Co Ltd, Pulp & Paper Res Lab, Kita Ku, 5-21-1 Oji, Tokyo 1140002, Japan.
p9
sS'WC'
p10
VPlant Sciences
p11
sS'GA'
p12
V717FU
p13
sS'abstract'
p14
VWe previously demonstrated that overexpression of the horseradish (Armoracia rusticana) peroxidase prxC1a gene stimulated the growth rate of tobacco (Nicotiana tabacum) plants. Here, the cauliflower mosaic virus 35S::prxC1a construct was introduced into hybrid aspen (Populus sieboldii X Populus grandidentata). The growth rate of these transformed hybrid aspen plants was substantially increased under greenhouse conditions. The average stem length of transformed plants was 25% greater than that of control plants. There was no other obvious phenotypic difference between the transformed and control plants. Fast-growing transformed hybrid aspen showed high levels of expression of prxC1a and had elevated peroxidase activities toward guaiacol and ascorbate. However, there was no increase of the endogenous class I ascorbate peroxidase activities in the transformed plants by separate assay and activity staining of native polyacrylamide gel electrophoresis. Furthermore, calli derived from the transformed hybrid aspen grew faster than those from control plants and were resistant to the oxidative stress imposed by hydrogen peroxide. Therefore, enhanced peroxidase activity affects plant growth rate and oxidative stress resistance.
p15
sS'pageEnd'
p16
I1185
sS'publisherAddress'
p17
V15501 MONONA DRIVE, ROCKVILLE, MD 20855 USA
p18
sS'documentType'
p19
VArticle
p20
sS'subject'
p21
VPlant Sciences
p22
sS'isoSource'
p23
VPlant Physiol.
p24
sS'timesCited'
p25
(lp26
I42
aVZ9 48
p27
asS'PT'
p28
VJ
sS'title'
p29
VEctopic Expression Of A Horseradish Peroxidase Enhances Growth Rate And Increases Oxidative Stress Resistance In Hybrid Aspen
p30
sS'ISSN'
p31
(lp32
V0032-0889
p33
aVJ9 PLANT PHYSIOL
p34
asS'authors_full'
p35
(lp36
(VKAWAOKA
VA
tp37
a(VMATSUNAGA
VE
tp38
a(VENDO
VS
tp39
a(VKONDO
VS
tp40
a(VYOSHIDA
VK
tp41
a(VSHINMYO
VA
tp42
a(VEBINUMA
VH
tp43
asS'PG'
p44
I9
sS'PD'
p45
VJUL
p46
sS'pageStart'
p47
I1177
sS'issue'
p48
I3
sS'journal'
p49
VPLANT PHYSIOLOGY
p50
sS'volume'
p51
V132
p52
sS'doi'
p53
V10.1104/pp.102.019794
p54
sS'authorAddress'
p55
(lp56
VNippon Paper Ind Co Ltd, Pulp & Paper Res Lab, Kita Ku, Tokyo 1140002, Japan.
p57
aVJujo Res Co Ltd, Kita Ku, Tokyo 1140002, Japan.
p58
aVNara Inst Sci & Technol, Nara 6300101, Japan.
p59
asS'date'
p60
I2003
sS'ER'
p61
V
sS'publisher'
p62
VAMER SOC PLANT BIOLOGISTS
p63
sS'authorKeywords'
p64
(lp65
VWOUND-INDUCED EXPRESSION
p66
aVASCORBATE PEROXIDASE
p67
aVLIGNIN BIOSYNTHESIS
p68
aVANIONIC PEROXIDASE
p69
aVTRANSGENIC TOBACCO
p70
aVDOWN-REGULATION
p71
aVACID OXIDASE
p72
aVGENE
p73
aVPLANTS
p74
aVLEAVES
p75
asS'language'
p76
VEnglish
p77
sS'wosid'
p78
VWOS:000185076800010
p79
sS'citationCount'
p80
I39
sS'authors_init'
p81
(lp82
(VKAWAOKA
VA
tp83
a(VMATSUNAGA
VE
tp84
a(VENDO
VS
tp85
a(VKONDO
VS
tp86
a(VYOSHIDA
VK
tp87
a(VSHINMYO
VA
tp88
a(VEBINUMA
VH
tp89
asS'citedReferences'
p90
(lp91
g1
(g2
g3
NtRp92
(dp93
g53
Nsg49
VPLANT CELL PHYSIOL
p94
sg51
V35
p95
sg81
(lp96
(VAMAKO
VK
tp97
asg60
I1994
sg47
VLANT
p98
sbag1
(g2
g3
NtRp99
(dp100
g53
V10.1098/rstb.2000.0703
p101
sg49
VPHILOS T ROY SOC B
p102
sg51
V355
p103
sg81
(lp104
(VASADA
VK
tp105
asg60
I2000
sg47
VHILOS
p106
sbag1
(g2
g3
NtRp107
(dp108
g53
V10.1016/0167-4781(91)90060-Y
p109
sg49
VBIOCHIM BIOPHYS ACTA
p110
sg51
V1088
p111
sg81
(lp112
(VBARTONEKROXA
VE
tp113
asg60
I1991
sg47
V245
p114
sbag1
(g2
g3
NtRp115
(dp116
g53
Nsg49
VJ BIOL CHEM
p117
sg51
V265
p118
sg81
(lp119
(VCHEN
VG X
tp120
asg60
I1990
sg47
V2775
p121
sbag1
(g2
g3
NtRp122
(dp123
g53
Nsg49
VANAL BIOCHEM
p124
sg51
V162
p125
sg81
(lp126
(VCHOMCZYNSKI
VP
tp127
asg60
I1987
sg47
V136
p128
sbag1
(g2
g3
NtRp129
(dp130
g53
Nsg49
VPLANTA
p131
sg51
V203
p132
sg81
(lp133
(VCOSGROVE
VD J
tp134
asg60
I1996
sg47
VLANTA
p135
sbag1
(g2
g3
NtRp136
(dp137
g53
Nsg49
VPLANT PHYSIOL
p138
sg51
V113
p139
sg81
(lp140
(VDONAHUE
VJ L
tp141
asg60
I1997
sg47
VLANT
p142
sbag1
(g2
g3
NtRp143
(dp144
g53
Nsg49
VTAPPI
p145
sg51
V60
p146
sg81
(lp147
(VEFFLAND
VM J
tp148
asg60
I1977
sg47
V143
p149
sbag1
(g2
g3
NtRp150
(dp151
g53
V10.1073/pnas.87.22.9057
p152
sg49
VP NATL ACAD SCI USA
p153
sg51
V87
p154
sg81
(lp155
(VELKIND
VY
tp156
asg60
I1990
sg47
V9057
p157
sbag1
(g2
g3
NtRp158
(dp159
g53
V10.1104/pp.81.2.487
p160
sg49
VPLANT PHYSIOL
p161
sg51
V81
p162
sg81
(lp163
(VESPELIE
VK E
tp164
asg60
I1986
sg47
VLANT
p165
sbag1
(g2
g3
NtRp166
(dp167
g53
V10.1016/0378-1119(90)90002-9
p168
sg49
VGENE
p169
sg51
V89
p170
sg81
(lp171
(VFUJIYAMA
VK
tp172
asg60
I1990
sg47
V163
p173
sbag1
(g2
g3
NtRp174
(dp175
g53
V10.1111/j.1432-1033.1988.tb14052.x
p176
sg49
VEUR J BIOCHEM
p177
sg51
V173
p178
sg81
(lp179
(VFUJIYAMA
VK
tp180
asg60
I1988
sg47
V681
p181
sbag1
(g2
g3
NtRp182
(dp183
g53
Nsg49
VBIOCH PLANTS
p184
sg51
V7
sg81
(lp185
(VGRISEBACH
VH
tp186
asg60
I1981
sg47
V457
p187
sbag1
(g2
g3
NtRp188
(dp189
g53
V10.1093/pcp/pce061
p190
sg49
VPLANT CELL PHYSIOL
p191
sg51
V42
p192
sg81
(lp193
(VHIRAGA
VS
tp194
asg60
I2001
sg47
VLANT
p195
sbag1
(g2
g3
NtRp196
(dp197
g53
V10.1104/pp.60.5.787
p198
sg49
VPLANT PHYSIOL
p199
sg51
V60
p200
sg81
(lp201
(VHOYLE
VM C
tp202
asg60
I1977
sg47
VLANT
p203
sbag1
(g2
g3
NtRp204
(dp205
g53
Nsg49
VNAT BIOTECHNOL
p206
sg51
V17
p207
sg81
(lp208
(VHU
VW J
tp209
asg60
I1999
sg47
V808
p210
sbag1
(g2
g3
NtRp211
(dp212
g53
V10.1105/tpc.9.7.1021
p213
sg49
VPLANT CELL
p214
sg51
V9
sg81
(lp215
(VJACOBS
VT
tp216
asg60
I1997
sg47
VLANT
p217
sbag1
(g2
g3
NtRp218
(dp219
g53
V10.1007/s002990050773
p220
sg49
VPLANT CELL REP
p221
sg51
V19
p222
sg81
(lp223
(VKAOTHIEN
VP
tp224
asg60
I2000
sg47
VLANT
p225
sbag1
(g2
g3
NtRp226
(dp227
g53
V10.1023/A:1015504515492
p228
sg49
VPLANT MOL BIOL
p229
sg51
V49
p230
sg81
(lp231
(VKAOTHIEN
VP
tp232
asg60
I2002
sg47
VLANT
p233
sbag1
(g2
g3
NtRp234
(dp235
g53
V10.1034/j.1399-3054.1999.105218.x
p236
sg49
VPHYSIOL PLANTARUM
p237
sg51
V105
p238
sg81
(lp239
(VKATO
VN
tp240
asg60
I1999
sg47
VHYSIOL
p241
sbag1
(g2
g3
NtRp242
(dp243
g53
V10.1046/j.1365-313x.2000.00737.x
p244
sg49
VPLANT J
p245
sg51
V22
p246
sg81
(lp247
(VKAWAOKA
VA
tp248
asg60
I2000
sg47
VLANT
p249
sbag1
(g2
g3
NtRp250
(dp251
g53
V10.1016/0922-338X(94)90177-5
p252
sg49
VJ FERMENT BIOENG
p253
sg51
V78
p254
sg81
(lp255
(VKAWAOKA
VA
tp256
asg60
I1994
sg47
V49
p257
sbag1
(g2
g3
NtRp258
(dp259
g53
Nsg49
VPLANT CELL REP
p260
sg51
V13
p261
sg81
(lp262
(VKAWAOKA
VA
tp263
asg60
I1994
sg47
VLANT
p264
sbag1
(g2
g3
NtRp265
(dp266
g53
V10.1046/j.1365-313X.1994.6010087.x
p267
sg49
VPLANT J
p268
sg51
V6
sg81
(lp269
(VKAWAOKA
VA
tp270
asg60
I1994
sg47
VLANT
p271
sbag1
(g2
g3
NtRp272
(dp273
g53
V10.1104/pp.114.4.1237
p274
sg49
VPLANT PHYSIOL
p275
sg51
V114
p276
sg81
(lp277
(VKVARATSKHELIA
VM
tp278
asg60
I1997
sg47
VLANT
p279
sbag1
(g2
g3
NtRp280
(dp281
g53
Nsg49
VPLANT PHYSIOL
p282
sg51
V114
p283
sg81
(lp284
(VLAGRIMINI
VL M
tp285
asg60
I1997
sg47
VLANT
p286
sbag1
(g2
g3
NtRp287
(dp288
g53
V10.1023/A:1005756713493
p289
sg49
VPLANT MOL BIOL
p290
sg51
V33
p291
sg81
(lp292
(VLAGRIMINI
VL M
tp293
asg60
I1997
sg47
VLANT
p294
sbag1
(g2
g3
NtRp295
(dp296
g53
Nsg49
VPLANT CELL
p297
sg51
V2
sg81
(lp298
(VLAGRIMINI
VM L
tp299
asg60
I1992
sg47
VLANT
p300
sbag1
(g2
g3
NtRp301
(dp302
g53
Nsg49
VBIOCHEMISTRY
p303
sg51
V4
sg81
(lp304
(VLANG
VJ
tp305
asg60
I1965
sg47
V144
p306
sbag1
(g2
g3
NtRp307
(dp308
g53
Nsg49
VBIOCHEM SOC T
p309
sg51
V11
p310
sg81
(lp311
(VLICHTENTHALER
VH K
tp312
asg60
I1983
sg47
V591
p313
sbag1
(g2
g3
NtRp314
(dp315
g53
V10.1016/S0005-2728(00)00256-5
p316
sg49
VBBA
p317
sg51
V1504
p318
sg81
(lp319
(VMANO
VJ
tp320
asg60
I2001
sg47
V275
p321
sbag1
(g2
g3
NtRp322
(dp323
g53
V10.1046/j.1365-313X.1998.00014.x
p324
sg49
VPLANT J
p325
sg51
V13
p326
sg81
(lp327
(VPIQUEMAL
VJ
tp328
asg60
I1998
sg47
VLANT
p329
sbag1
(g2
g3
NtRp330
(dp331
g53
V10.1101/gad.5.3.438
p332
sg49
VGENE DEV
p333
sg51
V5
sg81
(lp334
(VROMANO
VC P
tp335
asg60
I1991
sg47
V438
p336
sbag1
(g2
g3
NtRp337
(dp338
g53
V10.1016/0014-5793(76)80804-6
p339
sg49
VFEBS LETT
p340
sg51
V72
p341
sg81
(lp342
(VWELINDER
VK G
tp343
asg60
I1976
sg47
V19
p344
sbag1
(g2
g3
NtRp345
(dp346
g53
V10.1016/0959-440X(92)90230-5
p347
sg49
VCURR OPIN STRUC BIOL
p348
sg51
V2
sg81
(lp349
(VWELINDER
VK G
tp350
asg60
I1992
sg47
V388
p351
sbag1
(g2
g3
NtRp352
(dp353
g53
V10.1146/annurev.arplant.49.1.585
p354
sg49
VANNU REV PLANT PHYS
p355
sg51
V49
p356
sg81
(lp357
(VWHETTEN
VR W
tp358
asg60
I1998
sg47
V585
p359
sbag1
(g2
g3
NtRp360
(dp361
g53
V10.1016/0006-3002(61)91060-5
p362
sg49
VBIOCHIM BIOPHYS ACTA
p363
sg51
V50
p364
sg81
(lp365
(VYAMAZAKI
VI
tp366
asg60
I1961
sg47
V62
p367
sbag1
(g2
g3
NtRp368
(dp369
g53
V10.1104/pp.123.1.223
p370
sg49
VPLANT PHYSIOL
p371
sg51
V123
p372
sg81
(lp373
(VYOSHIMURA
VK
tp374
asg60
I2000
sg47
VLANT
p375
sbag1
(g2
g3
NtRp376
(dp377
g53
Nsg49
VPLANT CELL
p378
sg51
V10
p379
sg81
(lp380
(VZHONG
VR Q
tp381
asg60
I1998
sg47
VLANT
p382
sbasb.