ccopy_reg
_reconstructor
p1
(ctethne.classes.paper
Paper
p2
c__builtin__
object
p3
NtRp4
(dp5
S'publisherCity'
p6
VROCKVILLE
p7
sS'reprintAddress'
p8
VBrinker, M (reprint author), Swedish Univ Agr Sci, Dept Plant Biol & Forest Genet, S-75007 Uppsala, Sweden.
p9
sS'WC'
p10
VPlant Sciences
p11
sS'GA'
p12
V838DD
p13
sS'abstract'
p14
VIn order to investigate the gene expression pattern during adventitious root development, RNA of Pinus contorta hypocotyls, pulse-treated with the auxin indole-3-butyric acid and harvested at distinct developmental time points of root development, was hybridized to microarrays containing 2,178 cDNAs from Pinus taeda. Over the period of observation of root development, the transcript levels of 220 genes changed significantly. During the root initiation phase, genes involved in cell replication and cell wall weakening and a transcript encoding a PINHEAD/ZWILLE-like protein were up-regulated, while genes related to auxin transport, photosynthesis, and cell wall synthesis were down-regulated. In addition, there were changes in transcript abundance of genes related to water stress. During the root meristem formation phase the transcript abundances of genes involved in auxin transport, auxin responsive transcription, and cell wall synthesis, and of a gene encoding a B-box zinc finger-like protein, increased, while those encoding proteins involved in cell wall weakening decreased. Changes of transcript abundance of genes related to water stress during the root meristem formation and root formation phase indicate that the plant roots had become functional in water transport. Simultaneously, genes involved in auxin transport were up-regulated, while genes related to cell wall modification were down-regulated. Finally, during the root elongation phase down-regulation of transcripts encoding proteins involved in cell replication and stress occurred. Based on the observed changes in transcript abundances, we suggest hypotheses about the relative importance of various physiological processes during the auxin-induced development of roots in P. contorta.
p15
sS'pageEnd'
p16
I1539
sS'publisherAddress'
p17
V15501 MONONA DRIVE, ROCKVILLE, MD 20855 USA
p18
sS'documentType'
p19
VArticle
p20
sS'subject'
p21
VPlant Sciences
p22
sS'isoSource'
p23
VPlant Physiol.
p24
sS'timesCited'
p25
(lp26
I49
aVZ9 55
p27
asS'PT'
p28
VJ
sS'title'
p29
VMicroarray Analyses Of Gene Expression During Adventitious Root Development In Pinus Contorta (1[W])
p30
sS'ISSN'
p31
(lp32
V0032-0889
p33
aVJ9 PLANT PHYSIOL
p34
asS'authors_full'
p35
(lp36
(VBRINKER
VM
tp37
a(VVAN ZYL
VL
tp38
a(VLIU
VWB
tp39
a(VCRAIG
VD
tp40
a(VSEDEROFF
VRR
tp41
a(VCLAPHAM
VDH
tp42
a(VVON ARNOLD
VS
tp43
asS'PG'
p44
I14
sS'PD'
p45
VJUL
p46
sS'pageStart'
p47
I1526
sS'issue'
p48
I3
sS'journal'
p49
VPLANT PHYSIOLOGY
p50
sS'volume'
p51
V135
p52
sS'doi'
p53
V10.1104/pp.103.032235
p54
sS'authorAddress'
p55
(lp56
VSwedish Univ Agr Sci, Dept Plant Biol & Forest Genet, S-75007 Uppsala, Sweden.
p57
aVN Carolina State Univ, Dept Forestry, Forest Biotechnol Grp, Raleigh, NC 27695 USA.
p58
asS'date'
p59
I2004
sS'ER'
p60
V
sS'publisher'
p61
VAMER SOC PLANT BIOLOGISTS
p62
sS'authorKeywords'
p63
(lp64
VAUXIN TRANSPORT
p65
aVARABIDOPSIS-THALIANA
p66
aVFUNCTIONAL GENOMICS
p67
aVLOBLOLLY-PINE
p68
aVCDNA
p69
aVINITIATION
p70
aVCUTTINGS
p71
aVBIOSYNTHESIS
p72
aVSYLVESTRIS
p73
aVINVITRO
p74
asS'language'
p75
VEnglish
p76
sS'wosid'
p77
VWOS:000222692700034
p78
sS'citationCount'
p79
I35
sS'authors_init'
p80
(lp81
(VBRINKER
VM
tp82
a(VVAN ZYL
VL
tp83
a(VLIU
VW B
tp84
a(VCRAIG
VD
tp85
a(VSEDEROFF
VR R
tp86
a(VCLAPHAM
VD H
tp87
a(VVON ARNOLD
VS
tp88
asS'citedReferences'
p89
(lp90
g1
(g2
g3
NtRp91
(dp92
g53
Nsg49
VMOL BIOL CELL
p93
sg51
Nsg80
(lp94
(VALBERTS
VB
tp95
asg59
I2002
sg47
Nsbag1
(g2
g3
NtRp96
(dp97
g53
V10.1016/S0378-3758(99)00040-3
p98
sg49
VJ STAT PLAN INFER
p99
sg51
V82
p100
sg80
(lp101
(VBENJAMINI
VY
tp102
asg59
I1999
sg47
V163
p103
sbag1
(g2
g3
NtRp104
(dp105
g53
V10.1046/j.0960-7412.2001.01217.x
p106
sg49
VPLANT J
p107
sg51
V29
p108
sg80
(lp109
(VBHALERAO
VR P
tp110
asg59
I2002
sg47
VLANT
p111
sbag1
(g2
g3
NtRp112
(dp113
g53
Nsg49
VBIOCH MOL BIOL PLANT
p114
sg51
Nsg80
(lp115
(VBRAY
VE A
tp116
asg59
I2000
sg47
V1158
p117
sbag1
(g2
g3
NtRp118
(dp119
g53
V10.1104/pp.126.2.524
p120
sg49
VPLANT PHYSIOL
p121
sg51
V126
p122
sg80
(lp123
(VBROWN
VD E
tp124
asg59
I2001
sg47
VLANT
p125
sbag1
(g2
g3
NtRp126
(dp127
g53
V10.1007/BF02670468
p128
sg49
VPlant Molecular Biology Reporter
p129
sg51
V11
p130
sg80
(lp131
(VCHANG
VS J
tp132
asg59
I1993
sg47
Vlant
p133
sbag1
(g2
g3
NtRp134
(dp135
g53
V10.1023/A:1015203013208
p136
sg49
VPLANT MOL BIOL
p137
sg51
V49
p138
sg80
(lp139
(VDHARMASIRI
VS
tp140
asg59
I2002
sg47
VLANT
p141
sbag1
(g2
g3
NtRp142
(dp143
g53
V10.1111/j.1399-3054.1978.tb01560.x
p144
sg49
VPHYSIOL PLANTARUM
p145
sg51
V43
p146
sg80
(lp147
(VELIASSON
VL
tp148
asg59
I1978
sg47
VHYSIOL
p149
sbag1
(g2
g3
NtRp150
(dp151
g53
V10.1111/j.1399-3054.1985.tb03359.x
p152
sg49
VPHYSIOL PLANTARUM
p153
sg51
V64
p154
sg80
(lp155
(VGRONROOS
VR
tp156
asg59
I1985
sg47
VHYSIOL
p157
sbag1
(g2
g3
NtRp158
(dp159
g53
V10.1111/j.1399-3054.1987.tb04280.x
p160
sg49
VPHYSIOL PLANTARUM
p161
sg51
V69
p162
sg80
(lp163
(VGRONROOS
VR
tp164
asg59
I1987
sg47
VHYSIOL
p165
sbag1
(g2
g3
NtRp166
(dp167
g53
V10.1002/(SICI)1521-1878(199812)20:12<1001::AID-BIES6>3.0.CO;2-O
p168
sg49
VBIOESSAYS
p169
sg51
V20
p170
sg80
(lp171
(VHARBERD
VN P
tp172
asg59
I1998
sg47
V1001
p173
sbag1
(g2
g3
NtRp174
(dp175
g53
V10.1073/pnas.261293398
p176
sg49
VP NATL ACAD SCI USA
p177
sg51
V98
p178
sg80
(lp179
(VHERTZBERG
VM
tp180
asg59
I2001
sg47
V14732
p181
sbag1
(g2
g3
NtRp182
(dp183
g53
V10.1105/tpc.004960
p184
sg49
VPLANT CELL
p185
sg51
V14
p186
sg80
(lp187
(VHIMANEN
VK
tp188
asg59
I2002
sg47
VLANT
p189
sbag1
(g2
g3
NtRp190
(dp191
g53
V10.1038/ng766
p192
sg49
VNAT GENET
p193
sg51
V29
p194
sg80
(lp195
(VJIN
VW
tp196
asg59
I2001
sg47
V389
p197
sbag1
(g2
g3
NtRp198
(dp199
g53
V10.1017/S0016672301005055
p200
sg49
VGENET RES
p201
sg51
V77
p202
sg80
(lp203
(VKERR
VM K
tp204
asg59
I2001
sg47
V123
p205
sbag1
(g2
g3
NtRp206
(dp207
g53
V10.1073/pnas.1132171100
p208
sg49
VP NATL ACAD SCI USA
p209
sg51
V100
p210
sg80
(lp211
(VKIRST
VM
tp212
asg59
I2003
sg47
V7383
p213
sbag1
(g2
g3
NtRp214
(dp215
g53
V10.1016/S0981-9428(00)01229-8
p216
sg49
VPLANT PHYSIOL BIOCH
p217
sg51
V39
p218
sg80
(lp219
(VLINDROTH
VA M
tp220
asg59
I2001
sg47
VLANT
p221
sbag1
(g2
g3
NtRp222
(dp223
g53
V10.1023/A:1010637012528
p224
sg49
VPLANT MOL BIOL
p225
sg51
V46
p226
sg80
(lp227
(VLINDROTH
VA M
tp228
asg59
I2001
sg47
VLANT
p229
sbag1
(g2
g3
NtRp230
(dp231
g53
V10.1104/pp.119.1.21
p232
sg49
VPLANT PHYSIOL
p233
sg51
V119
p234
sg80
(lp235
(VLORBIECKE
VR
tp236
asg59
I1999
sg47
VLANT
p237
sbag1
(g2
g3
NtRp238
(dp239
g53
V10.1016/S1360-1385(02)02292-6
p240
sg49
VTRENDS PLANT SCI
p241
sg51
V7
sg80
(lp242
(VLUSCHNIG
VC
tp243
asg59
I2002
sg47
V329
p244
sbag1
(g2
g3
NtRp245
(dp246
g53
Nsg49
VDEVELOPMENT
p247
sg51
V126
p248
sg80
(lp249
(VLYNN
VK
tp250
asg59
I1999
sg47
V469
p251
sbag1
(g2
g3
NtRp252
(dp253
g53
V10.1105/tpc.010354
p254
sg49
VPLANT CELL
p255
sg51
V14
p256
sg80
(lp257
(VMARCHANT
VA
tp258
asg59
I2002
sg47
VLANT
p259
sbag1
(g2
g3
NtRp260
(dp261
g53
V10.1007/BF00039518
p262
sg49
VPLANT MOL BIOL
p263
sg51
V26
p264
sg80
(lp265
(VMYLONA
VP
tp266
asg59
I1994
sg47
VLANT
p267
sbag1
(g2
g3
NtRp268
(dp269
g53
V10.1016/S1369-5266(99)00008-4
p270
sg49
VCURR OPIN PLANT BIOL
p271
sg51
V2
sg80
(lp272
(VPALME
VK
tp273
asg59
I1999
sg47
V375
p274
sbag1
(g2
g3
NtRp275
(dp276
g53
V10.1073/pnas.95.13.7805
p277
sg49
VP NATL ACAD SCI USA
p278
sg51
V95
p279
sg80
(lp280
(VRAVANEL
VS
tp281
asg59
I1998
sg47
V7805
p282
sbag1
(g2
g3
NtRp283
(dp284
g53
V10.1073/pnas.91.11.5163
p285
sg49
VP NATL ACAD SCI USA
p286
sg51
V91
p287
sg80
(lp288
(VSAVARD
VL
tp289
asg59
I1994
sg47
V5163
p290
sbag1
(g2
g3
NtRp291
(dp292
g53
Nsg49
VARABIDOPSIS BOOK
p293
sg51
Nsg80
(lp294
(VSCHERES
VB
tp295
asg59
I2002
sg47
Nsbag1
(g2
g3
NtRp296
(dp297
g53
V10.1126/science.285.5426.380
p298
sg49
VSCIENCE
p299
sg51
V285
p300
sg80
(lp301
(VSOMERVILLE
VC
tp302
asg59
I1999
sg47
V380
p303
sbag1
(g2
g3
NtRp304
(dp305
g53
V10.1104/pp.015214
p306
sg49
VPLANT PHYSIOL
p307
sg51
V131
p308
sg80
(lp309
(VSTASOLLA
VC
tp310
asg59
I2003
sg47
VLANT
p311
sbag1
(g2
g3
NtRp312
(dp313
g53
Nsg49
VNATURE
p314
sg51
V408
p315
sg80
(lp316
(VKAUL
VS
tp317
asg59
I2000
sg47
V796
p318
sbag1
(g2
g3
NtRp319
(dp320
g53
Nsg49
VGENE
p321
sg51
V1
sg80
(lp322
(VVANZYL
VL
tp323
asg59
I2002
sg47
V83
p324
sbag1
(g2
g3
NtRp325
(dp326
g53
V10.1002/cfg.199
p327
sg49
VCOMPAR FUNCT GENOM
p328
sg51
V3
sg80
(lp329
(VVAN
VZ Y L L
tp330
asg59
I2002
sg47
V306
p331
sbag1
(g2
g3
NtRp332
(dp333
g53
V10.1023/A:1010652003395
p334
sg49
VPLANT MOL BIOL
p335
sg51
V47
p336
sg80
(lp337
(VWHETTEN
VR
tp338
asg59
I2001
sg47
VLANT
p339
sbag1
(g2
g3
NtRp340
(dp341
g53
V10.1089/106652701753307520
p342
sg49
VJ COMPUT BIOL
p343
sg51
V8
sg80
(lp344
(VWOLFINGER
VR D
tp345
asg59
I2001
sg47
V625
p346
sbag1
(g2
g3
NtRp347
(dp348
g53
V10.1093/nar/30.4.e15
p349
sg49
VNUCLEIC ACIDS RES
p350
sg51
V30
p351
sg80
(lp352
(VYANG
VY H
tp353
asg59
I2002
sg47
Nsbasb.