ccopy_reg
_reconstructor
p1
(ctethne.classes.paper
Paper
p2
c__builtin__
object
p3
NtRp4
(dp5
S'publisherCity'
p6
VROCKVILLE
p7
sS'reprintAddress'
p8
VGuilitinan, MJ (reprint author), Penn State Univ, Inst Biotechnol, University Pk, PA 16802 USA.
p9
sS'WC'
p10
VPlant Sciences
p11
sS'GA'
p12
V423MJ
p13
sS'abstract'
p14
VStarch-branching enzymes (SBE) break the alpha -1,4 linkage of starch, re-attaching the chain to a glucan chain by an alpha -1,6 bond, altering starch structure. SBEs also facilitate starch accumulation by increasing the number of non-reducing ends on the growing chain. In maize (Zen mays), three isoforms of SEE have been identified. To examine the function of the SBEIIa isoform, a reverse genetics polymerase chain reaction-based screen was used to identify a mutant line segregating for a Mutator transposon within Sbe2a. To locate the insertion within the second exon of Sbe2a, the genomic sequence of Sbe2a containing the promoter and 5 ' end was isolated anal sequenced. Plants homozygous for sbe2a::Mu have undetectable levels or Sbe2a transcripts and SBEIIa in their leaves. Characterization of loaf starch from sbe2a::Mu mutants shows reduced branching similar to yet more extreme than that seen in kernels lacking SBEIIB activity. Characterization of endosperm starch from sbe2a::Mu mutants shows branching that is indistinguishable from wild-type controls. These mutant plants have a visible phenotype resembling accelerated senescence, which was correlated with the Mutator insertion within Sbe2a. This correlation suggests a specific role for SBEIIa in leaves, which may be necessary far normal plant development.
p15
sS'pageEnd'
p16
I1405
sS'publisherAddress'
p17
V15501 MONONA DRIVE, ROCKVILLE, MD 20855 USA
p18
sS'documentType'
p19
VArticle
p20
sS'subject'
p21
VPlant Sciences
p22
sS'isoSource'
p23
VPlant Physiol.
p24
sS'timesCited'
p25
(lp26
I53
aVZ9 75
p27
asS'PT'
p28
VJ
sS'title'
p29
VIdentification Of Mutator Insertional Mutants Of Starch-Branching Enzyme 2A In Corn
p30
sS'ISSN'
p31
(lp32
V0032-0889
p33
aVJ9 PLANT PHYSIOL
p34
asS'authors_full'
p35
(lp36
(VBLAUTH
VSL
tp37
a(VYAO
VY
tp38
a(VKLUCINEC
VJD
tp39
a(VSHANNON
VJC
tp40
a(VTHOMPSON
VDB
tp41
a(VGUILITINAN
VMJ
tp42
asS'PG'
p43
I10
sS'PD'
p44
VMAR
p45
sS'pageStart'
p46
I1396
sS'issue'
p47
I3
sS'journal'
p48
VPLANT PHYSIOLOGY
p49
sS'volume'
p50
V125
p51
sS'doi'
p52
V10.1104/pp.125.3.1396
p53
sS'authorAddress'
p54
(lp55
VPenn State Univ, Inst Biotechnol, University Pk, PA 16802 USA.
p56
aVPenn State Univ, Dept Food Sci, University Pk, PA 16802 USA.
p57
aVPenn State Univ, Dept Hort, University Pk, PA 16802 USA.
p58
asS'date'
p59
I2001
sS'ER'
p60
V
sS'publisher'
p61
VAMER SOC PLANT PHYSIOLOGISTS
p62
sS'authorKeywords'
p63
(lp64
VMAIZE ENDOSPERM
p65
aVZEA-MAYS
p66
aVAMYLOSE
p67
aVCLONING
p68
aVGENE
p69
aVCDNA
p70
aVIIB
p71
asS'language'
p72
VEnglish
p73
sS'wosid'
p74
VWOS:000168179800028
p75
sS'citationCount'
p76
I32
sS'authors_init'
p77
(lp78
(VBLAUTH
VS L
tp79
a(VYAO
VY
tp80
a(VKLUCINEC
VJ D
tp81
a(VSHANNON
VJ C
tp82
a(VTHOMPSON
VD B
tp83
a(VGUILITINAN
VM J
tp84
asS'citedReferences'
p85
(lp86
g1
(g2
g3
NtRp87
(dp88
g52
Nsg48
VBIOCHEM BIOPH RES CO
p89
sg50
V181
p90
sg77
(lp91
(VBABA
VT
tp92
asg59
I1991
sg46
VS7
p93
sbag1
(g2
g3
NtRp94
(dp95
g52
V10.1105/tpc.7.1.75
p96
sg48
VPLANT CELL
p97
sg50
V7
sg77
(lp98
(VBENSEN
VR J
tp99
asg59
I1995
sg46
VLANT
p100
sbag1
(g2
g3
NtRp101
(dp102
g52
V10.1016/S0008-6215(00)84492-4
p103
sg48
VCARBOHYD RES
p104
sg50
V61
p105
sg77
(lp106
(VBOYER
VC D
tp107
asg59
I1978
sg46
V321
p108
sbag1
(g2
g3
NtRp109
(dp110
g52
V10.1002/star.19850370302
p111
sg48
VSTARKE
p112
sg50
V37
p113
sg77
(lp114
(VBOYER
VC D
tp115
asg59
I1985
sg46
V73
p116
sbag1
(g2
g3
NtRp117
(dp118
g52
V10.1016/S0065-2660(08)60319-3
p119
sg48
VADV GENET
p120
sg50
V30
p121
sg77
(lp122
(VCHANDLER
VV L
tp123
asg59
I1992
sg46
V77
p124
sbag1
(g2
g3
NtRp125
(dp126
g52
Nsg48
VBIOTECHNIQUES
p127
sg50
V7
sg77
(lp128
(VCHISHOLM
VD
tp129
asg59
I1988
sg46
V255
p130
sbag1
(g2
g3
NtRp131
(dp132
g52
V10.1073/pnas.81.7.1991
p133
sg48
VP NATL ACAD SCI
p134
sg50
V81
p135
sg77
(lp136
(VCHURCH
VG M
tp137
asg59
I1984
sg46
V1991
p138
sbag1
(g2
g3
NtRp139
(dp140
g52
V10.1016/0031-9422(88)80174-2
p141
sg48
VPHYTOCHEMISTRY
p142
sg50
V27
p143
sg77
(lp144
(VDANG
VP L
tp145
asg59
I1988
sg46
VHYTOCHEMISTRY
p146
sbag1
(g2
g3
NtRp147
(dp148
g52
Nsg48
VP522
p149
sg50
Nsg77
(lp150
(VDELLAPORTA
VSTEPHEN
tp151
asg59
I1994
sg46
V522
p152
sbag1
(g2
g3
NtRp153
(dp154
g52
Nsg48
VPLANT MOL BIOL MAN B
p155
sg50
V6
sg77
(lp156
(VDEVRIES
VS
tp157
asg59
I1988
sg46
VLANT
p158
sbag1
(g2
g3
NtRp159
(dp160
g52
V10.1021/ac60111a017
p161
sg48
VANAL CHEM
p162
sg50
V28
p163
sg77
(lp164
(VDUBOIS
VM
tp165
asg59
I1956
sg46
V350
p166
sbag1
(g2
g3
NtRp167
(dp168
g52
V10.1104/pp.108.3.1313
p169
sg48
VPLANT PHYSIOL
p170
sg50
V108
p171
sg77
(lp172
(VFISHER
VD K
tp173
asg59
I1995
sg46
VLANT
p174
sbag1
(g2
g3
NtRp175
(dp176
g52
V10.1104/pp.102.3.1045
p177
sg48
VPLANT PHYSIOL
p178
sg50
V102
p179
sg77
(lp180
(VFISHER
VD K
tp181
asg59
I1993
sg46
VLANT
p182
sbag1
(g2
g3
NtRp183
(dp184
g52
V10.1104/pp.114.1.69
p185
sg48
VPLANT PHYSIOL
p186
sg50
V114
p187
sg77
(lp188
(VGAO
VM
tp189
asg59
I1997
sg46
VLANT
p190
sbag1
(g2
g3
NtRp191
(dp192
g52
V10.1007/BF00019554
p193
sg48
VPLANT MOL BIOL
p194
sg50
V30
p195
sg77
(lp196
(VGAO
VM
tp197
asg59
I1996
sg46
VLANT
p198
sbag1
(g2
g3
NtRp199
(dp200
g52
Nsg48
VCEREAL CHEM
p201
sg50
V53
p202
sg77
(lp203
(VGARWOOD
VD L
tp204
asg59
I1976
sg46
V355
p205
sbag1
(g2
g3
NtRp206
(dp207
g52
Nsg48
VPLANT PHYSIOL
p208
sg50
V102
p209
sg77
(lp210
(VGUAN
VH P
tp211
asg59
I1993
sg46
VLANT
p212
sbag1
(g2
g3
NtRp213
(dp214
g52
V10.1023/A:1006057609995
p215
sg48
VPLANT MOL BIOL
p216
sg50
V38
p217
sg77
(lp218
(VKIM
VK N
tp219
asg59
I1998
sg46
VLANT
p220
sbag1
(g2
g3
NtRp221
(dp222
g52
V10.1016/S0378-1119(98)00339-4
p223
sg48
VGENE
p224
sg50
V216
p225
sg77
(lp226
(VKIM
VK N
tp227
asg59
I1998
sg46
V233
p228
sbag1
(g2
g3
NtRp229
(dp230
g52
V10.1094/CCHEM.1998.75.6.887
p231
sg48
VCEREAL CHEM
p232
sg50
V75
p233
sg77
(lp234
(VKLUCINEC
VJ D
tp235
asg59
I1998
sg46
V887
p236
sbag1
(g2
g3
NtRp237
(dp238
g52
V10.1016/S1360-1385(99)01375-8
p239
sg48
VTRENDS PLANT SCI
p240
sg50
V4
sg77
(lp241
(VMAES
VT
tp242
asg59
I1999
sg46
V90
p243
sbag1
(g2
g3
NtRp244
(dp245
g52
V10.1126/science.274.5292.1537
p246
sg48
VSCIENCE
p247
sg50
V274
p248
sg77
(lp249
(VMENA
VM
tp250
asg59
I1996
sg46
V1537
p251
sbag1
(g2
g3
NtRp252
(dp253
g52
V10.1104/pp.122.4.989
p254
sg48
VPLANT PHYSIOL
p255
sg50
V122
p256
sg77
(lp257
(VMYERS
VA M
tp258
asg59
I2000
sg46
VLANT
p259
sbag1
(g2
g3
NtRp260
(dp261
g52
Nsg48
VMOL CLONING LAB MANU
p262
sg50
Nsg77
(lp263
(VSAMBROOK
VJ
tp264
asg59
I1989
sg46
Nsbag1
(g2
g3
NtRp265
(dp266
g52
V10.1146/annurev.arplant.48.1.67
p267
sg48
VAnnual Review of Plant Physiology and Plant Molecular Biology
p268
sg50
V48
p269
sg77
(lp270
(VSMITH
VA M
tp271
asg59
I1997
sg46
V67
p272
sbag1
(g2
g3
NtRp273
(dp274
g52
V10.1105/tpc.5.11.1555
p275
sg48
VPLANT CELL
p276
sg50
V5
sg77
(lp277
(VSTINARD
VP S
tp278
asg59
I1993
sg46
VLANT
p279
sbag1
(g2
g3
NtRp280
(dp281
g52
Nsg48
VMETHOD ENZYMOL
p282
sg50
V182
p283
sg77
(lp284
(VSTOSCHECK
VC M
tp285
asg59
I1990
sg46
V50
p286
sbag1
(g2
g3
NtRp287
(dp288
g52
V10.1002/star.19880400204
p289
sg48
VSTARCH
p290
sg50
V40
p291
sg77
(lp292
(VTAKEDA
VY
tp293
asg59
I1988
sg46
V51
p294
sbag1
(g2
g3
NtRp295
(dp296
g52
V10.1016/0008-6215(93)84188-C
p297
sg48
VCARBOHYD RES
p298
sg50
V240
p299
sg77
(lp300
(VTAKEDA
VY
tp301
asg59
I1993
sg46
V253
p302
sbag1
(g2
g3
NtRp303
(dp304
g52
V10.1016/S0144-8617(00)00150-8
p305
sg48
VCARBOHYD POLYM
p306
sg50
V43
p307
sg77
(lp308
(VTHOMPSON
VD B
tp309
asg59
I2000
sg46
V223
p310
sbag1
(g2
g3
NtRp311
(dp312
g52
V10.1073/pnas.76.9.4350
p313
sg48
VP NATL ACAD SCI USA
p314
sg50
V76
p315
sg77
(lp316
(VTOWBIN
VH
tp317
asg59
I1979
sg46
V4350
p318
sbag1
(g2
g3
NtRp319
(dp320
g52
Nsg48
VMAIZE GENET COOP NEW
p321
sg50
V26
p322
sg77
(lp323
(VVINEYARD
VM L
tp324
asg59
I1952
sg46
V5
sbasb.