ccopy_reg
_reconstructor
p1
(ctethne.classes.paper
Paper
p2
c__builtin__
object
p3
NtRp4
(dp5
S'publisherCity'
p6
VROCKVILLE
p7
sS'reprintAddress'
p8
VAn, G (reprint author), Pohang Univ Sci & Technol, Dept Life Sci, Pohang 790784, South Korea.
p9
sS'WC'
p10
VPlant Sciences
p11
sS'GA'
p12
V308VV
p13
sS'abstract'
p14
VPlant MADS-box genes can be divided into 11 groups. Genetic analysis has revealed that most of them function in flowering-time control, reproductive organ development, and vegetative growth. Here, we elucidated the role of OsMADS26, a member of the AGL12 group. Transcript levels of OsMADS26 were increased in an age-dependent manner in the shoots and roots. Transgenic plants of both rice (Oryza sativa) and Arabidopsis (Arabidopsis thaliana) overexpressing this gene manifested phenotypes related to stress responses, such as chlorosis, cell death, pigment accumulation, and defective root/shoot growth. In addition, apical hook development was significantly suppressed in Arabidopsis. Plants transformed with the OsMADS26-GR (glucocorticoid receptor) fusion construct displayed those stress-related phenotypes when treated with dexamethasone. Microarray analyses using this inducible system showed that biosynthesis genes for jasmonate, ethylene, and reactive oxygen species, as well as putative downstream targets involved in the stress-related process, were up-regulated in OsMADS26-overexpressing plants. These results suggest that OsMADS26 induces multiple responses that are related to various stresses.
p15
sS'pageEnd'
p16
I168
sS'publisherAddress'
p17
V15501 MONONA DRIVE, ROCKVILLE, MD 20855 USA
p18
sS'documentType'
p19
VArticle
p20
sS'subject'
p21
VPlant Sciences
p22
sS'isoSource'
p23
VPlant Physiol.
p24
sS'timesCited'
p25
(lp26
I15
aVZ9 18
p27
asS'PT'
p28
VJ
sS'title'
p29
VFurther Characterization Of A Rice Agl12 Group Mads-Box Gene, Osmads26
p30
sS'ISSN'
p31
(lp32
V0032-0889
p33
aVJ9 PLANT PHYSIOL
p34
asS'authors_full'
p35
(lp36
(VLEE
VSHINYOUNG
tp37
a(VWOO
VYOUNGMIN
tp38
a(VRYU
VSUNGIL
tp39
a(VSHIN
VYOUNGDUCK
tp40
a(VKIM
VWOO TAEK
tp41
a(VPARK
VKY YOUNG
tp42
a(VLEE
VINJUNG
tp43
a(VAN
VGYNHEUNG
tp44
asS'PG'
p45
I13
sS'PD'
p46
VMAY
p47
sS'pageStart'
p48
I156
sS'issue'
p49
I1
sS'journal'
p50
VPLANT PHYSIOLOGY
p51
sS'volume'
p52
V147
p53
sS'doi'
p54
V10.1104/pp.107.114256
p55
sS'emailAddress'
p56
Vgenean@postech.ac.kr
p57
sS'authorAddress'
p58
(lp59
V[An, Gynheung] Pohang Univ Sci & Technol, Dept Life Sci, Pohang 790784, South Korea.
p60
aVPohang Univ Sci & Technol, Natl Res Lab Plant Funct Genom, Pohang 790784, South Korea.
p61
asS'date'
p62
I2008
sS'ER'
p63
V
sS'publisher'
p64
VAMER SOC PLANT BIOLOGISTS
p65
sS'authorKeywords'
p66
(lp67
VORYZA-SATIVA L.
p68
aVMESSENGER-RNA EXPRESSION
p69
aVARABIDOPSIS MUTANT CEV1
p70
aVALLENE OXIDE SYNTHASE
p71
aVDOMAIN FACTOR AGL15
p72
aVMETHYL JASMONATE
p73
aVOCTADECANOID PATHWAY
p74
aVTRANSCRIPTION FACTOR
p75
aVDEFENSE RESPONSES
p76
aVPROTEINASE-INHIBITORS
p77
asS'language'
p78
VEnglish
p79
sS'wosid'
p80
VWOS:000256419400015
p81
sS'citationCount'
p82
I71
sS'authors_init'
p83
(lp84
(VLEE
VS
tp85
a(VWOO
VY M
tp86
a(VRYU
VS I
tp87
a(VSHIN
VY D
tp88
a(VKIM
VW T
tp89
a(VPARK
VK Y
tp90
a(VLEE
VI J
tp91
a(VAN
VG
tp92
asS'citedReferences'
p93
(lp94
g1
(g2
g3
NtRp95
(dp96
g54
V10.1016/S0981-9428(02)01429-8
p97
sg50
VPLANT PHYSIOL BIOCH
p98
sg52
V40
p99
sg83
(lp100
(VAGRAWAL
VG K
tp101
asg62
I2002
sg48
VLANT
p102
sbag1
(g2
g3
NtRp103
(dp104
g54
V10.1016/S0168-9452(03)00082-7
p105
sg50
VPLANT SCI
p106
sg52
V164
p107
sg83
(lp108
(VAGRAWAL
VG K
tp109
asg62
I2003
sg48
VLANT
p110
sbag1
(g2
g3
NtRp111
(dp112
g54
V10.1016/j.bbrc.2004.03.020
p113
sg50
VBIOCHEM BIOPH RES CO
p114
sg52
V317
p115
sg83
(lp116
(VAGRAWAL
VG K
tp117
asg62
I2004
sg48
V1
sbag1
(g2
g3
NtRp118
(dp119
g54
V10.1046/j.1365-313x.2000.00891.x
p120
sg50
VPLANT J
p121
sg52
V24
p122
sg83
(lp123
(VALVAREZ-BUYLLA
VE R
tp124
asg62
I2000
sg48
VLANT
p125
sbag1
(g2
g3
NtRp126
(dp127
g54
V10.1016/j.bbrc.2003.09.123
p128
sg50
VBIOCHEM BIOPH RES CO
p129
sg52
V310
p130
sg83
(lp131
(VAGRAWAL
VG K
tp132
asg62
I2003
sg48
V1073
p133
sbag1
(g2
g3
NtRp134
(dp135
g54
V10.1146/annurev.arplant.55.031903.141701
p136
sg50
VANNU REV PLANT BIOL
p137
sg52
V55
p138
sg83
(lp139
(VAPEL
VK
tp140
asg62
I2004
sg48
V373
p141
sbag1
(g2
g3
NtRp142
(dp143
g54
V10.1186/1471-2164-8-242
p144
sg50
VBMC GENOMICS
p145
sg52
V8
sg83
(lp146
(VARORA
VR
tp147
asg62
I2007
sg48
Nsbag1
(g2
g3
NtRp148
(dp149
g54
V10.1016/S1055-7903(03)00207-0
p150
sg50
VMOL PHYLOGENET EVOL
p151
sg52
V29
p152
sg83
(lp153
(VBECKER
VA
tp154
asg62
I2003
sg48
V464
p155
sbag1
(g2
g3
NtRp156
(dp157
g54
V10.1104/pp.103.4.1133
p158
sg50
VPLANT PHYSIOL
p159
sg52
V103
p160
sg83
(lp161
(VBELL
VE
tp162
asg62
I1993
sg48
VLANT
p163
sbag1
(g2
g3
NtRp164
(dp165
g54
V10.1104/pp.109.2.567
p166
sg50
VPLANT PHYSIOL
p167
sg52
V109
p168
sg83
(lp169
(VBENEDETTI
VC E
tp170
asg62
I1995
sg48
VLANT
p171
sbag1
(g2
g3
NtRp172
(dp173
g54
V10.1093/jexbot/52.355.231
p174
sg50
VJ EXP BOT
p175
sg52
V52
p176
sg83
(lp177
(VBIONDI
VS
tp178
asg62
I2001
sg48
V231
p179
sbag1
(g2
g3
NtRp180
(dp181
g54
V10.1101/gad.297704
p182
sg50
VGENE DEV
p183
sg52
V18
p184
sg83
(lp185
(VBOTER
VM
tp186
asg62
I2004
sg48
V1577
p187
sbag1
(g2
g3
NtRp188
(dp189
g54
Nsg50
VPLANT CELL PHYSIOL
p190
sg52
V41
p191
sg83
(lp192
(VCHAE
VH S
tp193
asg62
I2000
sg48
VLANT
p194
sbag1
(g2
g3
NtRp195
(dp196
g54
Nsg50
VJ PLANT BIOL
p197
sg52
V50
p198
sg83
(lp199
(VCHEONG
VJ J
tp200
asg62
I2007
sg48
V122
p201
sbag1
(g2
g3
NtRp202
(dp203
g54
V10.1104/pp.103.023176
p204
sg50
VPLANT PHYSIOL
p205
sg52
V132
p206
sg83
(lp207
(VCHEONG
VY H
tp208
asg62
I2003
sg48
VLANT
p209
sbag1
(g2
g3
NtRp210
(dp211
g54
V10.1046/j.1365-313x.1998.00343.x
p212
sg50
VPLANT J
p213
sg52
V16
p214
sg83
(lp215
(VCLOUGH
VS J
tp216
asg62
I1998
sg48
VLANT
p217
sbag1
(g2
g3
NtRp218
(dp219
g54
V10.1111/j.1365-313X.2004.02156.x
p220
sg50
VPLANT J
p221
sg52
V39
p222
sg83
(lp223
(VDE
VPAEPE A
tp224
asg62
I2004
sg48
VLANT
p225
sbag1
(g2
g3
NtRp226
(dp227
g54
Nsg50
VPLANT PHYSIOL
p228
sg52
V108
p229
sg83
(lp230
(VDOARES
VS H
tp231
asg62
I1995
sg48
VLANT
p232
sbag1
(g2
g3
NtRp233
(dp234
g54
V10.1105/tpc.13.5.1025
p235
sg50
VPLANT CELL
p236
sg52
V13
p237
sg83
(lp238
(VELLIS
VC
tp239
asg62
I2001
sg48
VLANT
p240
sbag1
(g2
g3
NtRp241
(dp242
g54
V10.1105/tpc.002022
p243
sg50
VPLANT CELL
p244
sg52
V14
p245
sg83
(lp246
(VELLIS
VC
tp247
asg62
I2002
sg48
VLANT
p248
sbag1
(g2
g3
NtRp249
(dp250
g54
V10.1104/pp.004721
p251
sg50
VPLANT PHYSIOL
p252
sg52
V130
p253
sg83
(lp254
(VFANG
VS C
tp255
asg62
I2002
sg48
VLANT
p256
sbag1
(g2
g3
NtRp257
(dp258
g54
Nsg50
VPLANT PHYSIOL
p259
sg52
V106
p260
sg83
(lp261
(VFARMER
VE E
tp262
asg62
I1994
sg48
VLANT
p263
sbag1
(g2
g3
NtRp264
(dp265
g54
V10.1105/tpc.12.2.183
p266
sg50
VPLANT CELL
p267
sg52
V12
p268
sg83
(lp269
(VFERNANDEZ
VD E
tp270
asg62
I2000
sg48
VLANT
p271
sbag1
(g2
g3
NtRp272
(dp273
g54
V10.1073/pnas.88.15.6745
p274
sg50
VP NATL ACAD SCI USA
p275
sg52
V88
p276
sg83
(lp277
(VFRANCESCHI
VV R
tp278
asg62
I1991
sg48
V6745
p279
sbag1
(g2
g3
NtRp280
(dp281
g54
V10.1104/pp.106.078717
p282
sg50
VPLANT PHYSIOL
p283
sg52
V141
p284
sg83
(lp285
(VGADJEV
VI
tp286
asg62
I2006
sg48
VLANT
p287
sbag1
(g2
g3
NtRp288
(dp289
g54
Nsg50
VDEVELOPMENT
p290
sg52
V125
p291
sg83
(lp292
(VGU
VQ
tp293
asg62
I1998
sg48
V1509
p294
sbag1
(g2
g3
NtRp295
(dp296
g54
Nsg50
VPlanta
p297
sg52
V213
p298
sg83
(lp299
(VHARVAUX
VM
tp300
asg62
I2001
sg48
Vlanta
p301
sbag1
(g2
g3
NtRp302
(dp303
g54
V10.1094/MPMI.1999.12.12.1064
p304
sg50
VMOL PLANT MICROBE IN
p305
sg52
V12
p306
sg83
(lp307
(VHE
VC Z
tp308
asg62
I1999
sg48
V1064
p309
sbag1
(g2
g3
NtRp310
(dp311
g54
V10.1046/j.1365-313X.2001.2641036.x
p312
sg50
VPLANT J
p313
sg52
V26
p314
sg83
(lp315
(VHILPERT
VB
tp316
asg62
I2001
sg48
VLANT
p317
sbag1
(g2
g3
NtRp318
(dp319
g54
V10.1023/A:1006157603096
p320
sg50
VPLANT MOL BIOL
p321
sg52
V39
p322
sg83
(lp323
(VJEON
VJ S
tp324
asg62
I1999
sg48
VLANT
p325
sbag1
(g2
g3
NtRp326
(dp327
g54
Nsg50
VPLANT CELL PHYSIOL
p328
sg52
V39
p329
sg83
(lp330
(VJORDAN
VB R
tp331
asg62
I1998
sg48
VLANT
p332
sbag1
(g2
g3
NtRp333
(dp334
g54
V10.1105/tpc.105.034090
p335
sg50
VPLANT CELL
p336
sg52
V17
p337
sg83
(lp338
(VJUNG
VK H
tp339
asg62
I2005
sg48
VLANT
p340
sbag1
(g2
g3
NtRp341
(dp342
g54
V10.1016/j.plaphy.2004.01.001
p343
sg50
VPLANT PHYSIOL BIOCH
p344
sg52
V42
p345
sg83
(lp346
(VJUNG
VS
tp347
asg62
I2004
sg48
VLANT
p348
sbag1
(g2
g3
NtRp349
(dp350
g54
V10.1093/pcp/pcg037
p351
sg50
VPLANT CELL PHYSIOL
p352
sg52
V44
p353
sg83
(lp354
(VKIBA
VA
tp355
asg62
I2003
sg48
VLANT
p356
sbag1
(g2
g3
NtRp357
(dp358
g54
Nsg50
VJ PLANT BIOL
p359
sg52
V46
p360
sg83
(lp361
(VKIM
VS R
tp362
asg62
I2003
sg48
V211
p363
sbag1
(g2
g3
NtRp364
(dp365
g54
V10.1093/molbev/msg216
p366
sg50
VMOL BIOL EVOL
p367
sg52
V20
p368
sg83
(lp369
(VKOFUJI
VR
tp370
asg62
I2003
sg48
V1963
p371
sbag1
(g2
g3
NtRp372
(dp373
g54
V10.1093/jexbot/52.358.1117
p374
sg50
VJ EXP BOT
p375
sg52
V52
p376
sg83
(lp377
(VLEE
VR H
tp378
asg62
I2001
sg48
V1117
p379
sbag1
(g2
g3
NtRp380
(dp381
g54
V10.1111/j.1365-313X.2008.03406.x
p382
sg50
VPLANT J
p383
sg52
V54
p384
sg83
(lp385
(VLEE
VS
tp386
asg62
I2008
sg48
VLANT
p387
sbag1
(g2
g3
NtRp388
(dp389
g54
Nsg50
VJournal of Plant Biology
p390
sg52
V42
p391
sg83
(lp392
(VLEE
VSICHUL
tp393
asg62
I1999
sg48
V310
p394
sbag1
(g2
g3
NtRp395
(dp396
g54
V10.1093/pcp/pcg156
p397
sg50
VPLANT CELL PHYSIOL
p398
sg52
V44
p399
sg83
(lp400
(VLEE
VS
tp401
asg62
I2003
sg48
VLANT
p402
sbag1
(g2
g3
NtRp403
(dp404
g54
Nsg50
VMETHOD ENZYMOL
p405
sg52
V148
p406
sg83
(lp407
(VLICHTENTHALER
VH K
tp408
asg62
I1987
sg48
V350
p409
sbag1
(g2
g3
NtRp410
(dp411
g54
V10.1038/35008089
p412
sg50
VNATURE
p413
sg52
V404
p414
sg83
(lp415
(VLILJEGREN
VS J
tp416
asg62
I2000
sg48
V766
p417
sbag1
(g2
g3
NtRp418
(dp419
g54
V10.1105/tpc.007468
p420
sg50
VPLANT CELL
p421
sg52
V15
p422
sg83
(lp423
(VLORENZO
VO
tp424
asg62
I2003
sg48
VLANT
p425
sbag1
(g2
g3
NtRp426
(dp427
g54
V10.1105/tpc.022319
p428
sg50
VPLANT CELL
p429
sg52
V16
p430
sg83
(lp431
(VLORENZO
VO
tp432
asg62
I2004
sg48
VLANT
p433
sbag1
(g2
g3
NtRp434
(dp435
g54
V10.1038/35022611
p436
sg50
VNATURE
p437
sg52
V406
p438
sg83
(lp439
(VMAO
VL
tp440
asg62
I2000
sg48
V910
p441
sbag1
(g2
g3
NtRp442
(dp443
g54
V10.1016/j.ymben.2006.10.001
p444
sg50
VMETAB ENG
p445
sg52
V9
sg83
(lp446
(VMONTIEL
VG
tp447
asg62
I2007
sg48
V125
p448
sbag1
(g2
g3
NtRp449
(dp450
g54
V10.1073/pnas.0308430100
p451
sg50
VP NATL ACAD SCI USA
p452
sg52
V101
p453
sg83
(lp454
(VNAM
VJ
tp455
asg62
I2004
sg48
V1910
p456
sbag1
(g2
g3
NtRp457
(dp458
g54
Nsg50
VPLANT PHYSIOL
p459
sg52
V110
p460
sg83
(lp461
(VNOJIRI
VH
tp462
asg62
I1996
sg48
VLANT
p463
sbag1
(g2
g3
NtRp464
(dp465
g54
V10.1093/jxb/erl010
p466
sg50
VJ EXP BOT
p467
sg52
V57
p468
sg83
(lp469
(VOLMOS
VE
tp470
asg62
I2006
sg48
V1645
p471
sbag1
(g2
g3
NtRp472
(dp473
g54
V10.1105/tpc.011544
p474
sg50
VPLANT CELL
p475
sg52
V15
p476
sg83
(lp477
(VPARENICOVA
VL
tp478
asg62
I2003
sg48
VLANT
p479
sbag1
(g2
g3
NtRp480
(dp481
g54
V10.1007/s00497-002-0151-7
p482
sg50
VSEX PLANT REPROD
p483
sg52
V15
p484
sg83
(lp485
(VPELUCCHI
VN
tp486
asg62
I2002
sg48
V113
p487
sbag1
(g2
g3
NtRp488
(dp489
g54
V10.1105/tpc.10.12.2103
p490
sg50
VPLANT CELL
p491
sg52
V10
p492
sg83
(lp493
(VPENNINCKX
VIAMA
tp494
asg62
I1998
sg48
VLANT
p495
sbag1
(g2
g3
NtRp496
(dp497
g54
V10.1016/j.tplants.2007.01.004
p498
sg50
VTRENDS PLANT SCI
p499
sg52
V12
p500
sg83
(lp501
(VPOTTERS
VG
tp502
asg62
I2007
sg48
V98
p503
sbag1
(g2
g3
NtRp504
(dp505
g54
V10.1021/bi961748q
p506
sg50
VBIOCHEMISTRY
p507
sg52
V35
p508
sg83
(lp509
(VRICO
VM
tp510
asg62
I1996
sg48
V15672
p511
sbag1
(g2
g3
NtRp512
(dp513
g54
V10.1105/tpc.7.8.1259
p514
sg50
VPLANT CELL
p515
sg52
V7
sg83
(lp516
(VROUNSLEY
VS D
tp517
asg62
I1995
sg48
VLANT
p518
sbag1
(g2
g3
NtRp519
(dp520
g54
V10.1023/B:PLAN.0000038257.93381.05
p521
sg50
VPLANT MOL BIOL
p522
sg52
V54
p523
sg83
(lp524
(VRYU
VC H
tp525
asg62
I2004
sg48
VLANT
p526
sbag1
(g2
g3
NtRp527
(dp528
g54
Nsg50
VBIOTECHNIQUES
p529
sg52
V34
p530
sg83
(lp531
(VSAEED
VA I
tp532
asg62
I2003
sg48
V374
p533
sbag1
(g2
g3
NtRp534
(dp535
g54
V10.1093/pcp/pch165
p536
sg50
VPLANT CELL PHYSIOL
p537
sg52
V45
p538
sg83
(lp539
(VSASAKI
VK
tp540
asg62
I2004
sg48
VLANT
p541
sbag1
(g2
g3
NtRp542
(dp543
g54
V10.1093/dnares/8.4.153
p544
sg50
VDNA RES
p545
sg52
V8
sg83
(lp546
(VSASAKI
VY
tp547
asg62
I2001
sg48
V153
p548
sbag1
(g2
g3
NtRp549
(dp550
g54
V10.1073/pnas.97.21.11655
p551
sg50
VP NATL ACAD SCI USA
p552
sg52
V97
p553
sg83
(lp554
(VSCHENK
VP M
tp555
asg62
I2000
sg48
V11655
p556
sbag1
(g2
g3
NtRp557
(dp558
g54
V10.1093/dnares/6.2.123
p559
sg50
VDNA Res
p560
sg52
V6
sg83
(lp561
(VSHINOZUKA
VY
tp562
asg62
I1999
sg48
V123
p563
sbag1
(g2
g3
NtRp564
(dp565
g54
V10.1016/S0168-9452(00)00376-9
p566
sg50
VPLANT SCI
p567
sg52
V160
p568
sg83
(lp569
(VSREE
VB K
tp570
asg62
I2000
sg48
VLANT
p571
sbag1
(g2
g3
NtRp572
(dp573
g54
V10.1023/A:1006401816145
p574
sg50
VPLANT MOL BIOL
p575
sg52
V42
p576
sg83
(lp577
(VTAKAKURA
VY
tp578
asg62
I2000
sg48
VLANT
p579
sbag1
(g2
g3
NtRp580
(dp581
g54
V10.1104/pp.107.108647
p582
sg50
VPLANT PHYSIOL
p583
sg52
V146
p584
sg83
(lp585
(VTAPIA-LOPEZ
VR
tp586
asg62
I2008
sg48
VLANT
p587
sbag1
(g2
g3
NtRp588
(dp589
g54
Nsg50
VBiochimica et Biophysica Acta
p590
sg52
V1249
p591
sg83
(lp592
(VVANDER
VJAGT DAVID L
tp593
asg62
I1995
sg48
V117
p594
sbag1
(g2
g3
NtRp595
(dp596
g54
V10.1105/tpc.106.046052
p597
sg50
VPLANT CELL
p598
sg52
V19
p599
sg83
(lp600
(VVELLOSILLO
VT
tp601
asg62
I2007
sg48
VLANT
p602
sbag1
(g2
g3
NtRp603
(dp604
g54
V10.1126/science.1068181
p605
sg50
VSCIENCE
p606
sg52
V296
p607
sg83
(lp608
(VVREBALOV
VJ
tp609
asg62
I2002
sg48
V343
p610
sbag1
(g2
g3
NtRp611
(dp612
g54
V10.1126/science.1621099
p613
sg50
VSCIENCE
p614
sg52
V257
p615
sg83
(lp616
(VWEI
VZ M
tp617
asg62
I1992
sg48
V85
p618
sbag1
(g2
g3
NtRp619
(dp620
g54
V10.1016/S0014-5793(01)02331-6
p621
sg50
VFEBS LETT
p622
sg52
V494
p623
sg83
(lp624
(VXU
VL H
tp625
asg62
I2001
sg48
V161
p626
sbag1
(g2
g3
NtRp627
(dp628
g54
V10.1023/A:1006266407368
p629
sg50
VPLANT MOL BIOL
p630
sg52
V40
p631
sg83
(lp632
(VZHAO
VK J
tp633
asg62
I1999
sg48
VLANT
p634
sbag1
(g2
g3
NtRp635
(dp636
g54
Nsg50
VPlant Mol Biol
p637
sg52
V53
p638
sg83
(lp639
(VZHONG
VGUANG Y A N
tp640
asg62
I2003
sg48
Vlant
p641
sbasb.