ccopy_reg
_reconstructor
p1
(ctethne.classes.paper
Paper
p2
c__builtin__
object
p3
NtRp4
(dp5
S'publisherCity'
p6
VROCKVILLE
p7
sS'reprintAddress'
p8
VWei, CF (reprint author), Univ Vermont, Dept Plant Biol, Burlington, VT 05405 USA.
p9
sS'WC'
p10
VPlant Sciences
p11
sS'GA'
p12
V228FK
p13
sS'abstract'
p14
VIn this article we investigate aspects of turgor- driven plant cell growth within the framework of a model derived from the Eulerian concept of instability. In particular we explore the relationship between cell geometry and cell turgor pressure by extending loss of stability theory to encompass cylindrical cells. Beginning with an analysis of the three- dimensional stress and strain of a cylindrical pressure vessel, we demonstrate that loss of stability is the inevitable result of gradually increasing internal pressure in a cylindrical cell. The turgor pressure predictions based on this model differ from the more traditional viscoelastic or creep- based models in that they incorporate both cell geometry and wall mechanical properties in a single term. To confirm our predicted working turgor pressures, we obtained wall dimensions, elastic moduli, and turgor pressures of sequential internodal cells of intact Chara corallina plants by direct measurement. The results show that turgor pressure predictions based on loss of stability theory fall within the expected physiological range of turgor pressures for this plant. We also studied the effect of varying wall Poisson's ratio v on extension growth in living cells, showing that while increasing elastic modulus has an understandably negative effect on wall expansion, increasing Poisson's ratio would be expected to accelerate wall expansion.
p15
sS'pageEnd'
p16
I772
sS'publisherAddress'
p17
V15501 MONONA DRIVE, ROCKVILLE, MD 20855 USA
p18
sS'documentType'
p19
VArticle
p20
sS'subject'
p21
VPlant Sciences
p22
sS'isoSource'
p23
VPlant Physiol.
p24
sS'timesCited'
p25
(lp26
I21
aVZ9 22
p27
asS'PT'
p28
VJ
sS'title'
p29
VLoss Of Stability: A New Look At The Physics Of Cell Wall Behavior During Plant Cell Growth
p30
sS'ISSN'
p31
(lp32
V0032-0889
p33
aVJ9 PLANT PHYSIOL
p34
asS'authors_full'
p35
(lp36
(VWEI
VCHUNFANG
tp37
a(VLINTILHAC
VPHILIP M
tp38
asS'PG'
p39
I10
sS'PD'
p40
VNOV
p41
sS'pageStart'
p42
I763
sS'issue'
p43
I3
sS'journal'
p44
VPLANT PHYSIOLOGY
p45
sS'volume'
p46
V145
p47
sS'doi'
p48
V10.1104/pp.107.101964
p49
sS'emailAddress'
p50
Vchunfang.wei@uvm.edu
p51
sS'authorAddress'
p52
(lp53
VUniv Vermont, Dept Plant Biol, Burlington, VT 05405 USA.
p54
aVGuangxi Natl Univ, Dept Phys, Nanning 530006, Peoples R China.
p55
asS'date'
p56
I2007
sS'ER'
p57
V
sS'publisher'
p58
VAMER SOC PLANT BIOLOGISTS
p59
sS'authorKeywords'
p60
(lp61
VGROWING CHARA-CORALLINA
p62
aVMECHANICAL-PROPERTIES
p63
aVINTERNODAL CELLS
p64
aVMOLECULAR-SIZE
p65
aVNITELLA OPACA
p66
aVELONGATION
p67
aVTURGOR
p68
aVPOLYSACCHARIDES
p69
aVEXTENSION
p70
aVPRESSURE
p71
asS'language'
p72
VEnglish
p73
sS'wosid'
p74
VWOS:000250712800017
p75
sS'citationCount'
p76
I31
sS'authors_init'
p77
(lp78
(VWEI
VC F
tp79
a(VLINTILHAC
VP M
tp80
asS'citedReferences'
p81
(lp82
g1
(g2
g3
NtRp83
(dp84
g48
V10.1146/annurev.cellbio.20.082503.103053
p85
sg44
VANNU REV CELL DEV BI
p86
sg46
V21
p87
sg77
(lp88
(VBASKIN
VT I
tp89
asg56
I2005
sg42
V203
p90
sbag1
(g2
g3
NtRp91
(dp92
g48
Nsg44
VThe expanding cell
p93
sg46
Nsg77
(lp94
(VBURGERT
VI
tp95
asg56
I2007
sg42
V191
p96
sbag1
(g2
g3
NtRp97
(dp98
g48
Nsg44
VINTRO PLANT CELL DEV
p99
sg46
Nsg77
(lp100
(VBURGESS
VJ
tp101
asg56
I1985
sg42
V75
p102
sbag1
(g2
g3
NtRp103
(dp104
g48
V10.1146/annurev.pp.22.060171.001213
p105
sg44
VANN REV PLANT PHYSIO
p106
sg46
V22
p107
sg77
(lp108
(VCLELAND
VR
tp109
asg56
I1971
sg42
V197
p110
sbag1
(g2
g3
NtRp111
(dp112
g48
V10.1007/BF00384842
p113
sg44
VPLANTA
p114
sg46
V74
p115
sg77
(lp116
(VCLELAND
VR
tp117
asg56
I1967
sg42
VLANTA
p118
sbag1
(g2
g3
NtRp119
(dp120
g48
V10.1038/nrm1746
p121
sg44
VNAT REV MOL CELL BIO
p122
sg46
V6
sg77
(lp123
(VCOSGROVE
VD J
tp124
asg56
I2005
sg42
V850
p125
sbag1
(g2
g3
NtRp126
(dp127
g48
Nsg44
VSymp Soc Exp Biol
p128
sg46
V34
p129
sg77
(lp130
(VDORRINGTON
VK L
tp131
asg56
I1980
sg42
V289
p132
sbag1
(g2
g3
NtRp133
(dp134
g48
V10.1387/ijdb.052066jd
p135
sg44
VINT J DEV BIOL
p136
sg46
V50
p137
sg77
(lp138
(VDUMAIS
VJ
tp139
asg56
I2006
sg42
V209
p140
sbag1
(g2
g3
NtRp141
(dp142
g48
V10.1104/pp.47.3.423
p143
sg44
VPLANT PHYSIOL
p144
sg46
V47
p145
sg77
(lp146
(VGREEN
VP B
tp147
asg56
I1971
sg42
VLANT
p148
sbag1
(g2
g3
NtRp149
(dp150
g48
V10.1016/0022-5193(74)90124-6
p151
sg44
VJ THEOR BIOL
p152
sg46
V45
p153
sg77
(lp154
(VHETTIARADR
S''
tp155
asg56
I1974
sg42
V459
p156
sbag1
(g2
g3
NtRp157
(dp158
g48
Nsg44
VPLANT BIOCH
p159
sg46
Nsg77
(lp160
(VLOCKHART
VJ A
tp161
asg56
I1965
sg42
VLANT
p162
sbag1
(g2
g3
NtRp163
(dp164
g48
V10.1016/0022-5193(65)90077-9
p165
sg44
VJ THEOR BIOL
p166
sg46
V8
sg77
(lp167
(VLOCKHART
VJ A
tp168
asg56
I1965
sg42
V264
p169
sbag1
(g2
g3
NtRp170
(dp171
g48
Nsg44
VSTABILITY OSCILLATIO
p172
sg46
Nsg77
(lp173
(VPANOVKO
VY G
tp174
asg56
I1965
sg42
V84
p175
sbag1
(g2
g3
NtRp176
(dp177
g48
Nsg44
VPHYS BIOL PLANT CELL
p178
sg46
Nsg77
(lp179
(VPRESTON
VR D
tp180
asg56
I1974
sg42
VHYS
p181
sbag1
(g2
g3
NtRp182
(dp183
g48
Nsg44
VAUST J BIOL SCI
p184
sg46
V19
p185
sg77
(lp186
(VPROBINE
VM C
tp187
asg56
I1966
sg42
V439
p188
sbag1
(g2
g3
NtRp189
(dp190
g48
V10.1093/jxb/12.2.261
p191
sg44
VJ EXP BOT
p192
sg46
V12
p193
sg77
(lp194
(VPROBINE
VM C
tp195
asg56
I1961
sg42
V261
p196
sbag1
(g2
g3
NtRp197
(dp198
g48
V10.1093/jxb/13.1.111
p199
sg44
VJ EXP BOT
p200
sg46
V13
p201
sg77
(lp202
(VPROBINE
VM C
tp203
asg56
I1962
sg42
V111
p204
sbag1
(g2
g3
NtRp205
(dp206
g48
V10.1093/jxb/erl087
p207
sg44
VJ EXP BOT
p208
sg46
V57
p209
sg77
(lp210
(VPROSEUS
VT E
tp211
asg56
I2006
sg42
V3231
p212
sbag1
(g2
g3
NtRp213
(dp214
g48
V10.1093/aob/mci113
p215
sg44
VANN BOT
p216
sg46
V95
p217
sg77
(lp218
(VPROSEUS
VT E
tp219
asg56
I2005
sg42
V967
p220
sbag1
(g2
g3
NtRp221
(dp222
g48
V10.1093/aob/mcl098
p223
sg44
VANN BOT
p224
sg46
V98
p225
sg77
(lp226
(VPROSEUS
VT E
tp227
asg56
I2006
sg42
V93
p228
sbag1
(g2
g3
NtRp229
(dp230
g48
V10.1038/239163a0
p231
sg44
VNATURE
p232
sg46
V239
p233
sg77
(lp234
(VRAY
VP M
tp235
asg56
I1972
sg42
V163
p236
sbag1
(g2
g3
NtRp237
(dp238
g48
V10.1104/pp.99.4.1271
p239
sg44
VPLANT PHYSIOL
p240
sg46
V99
p241
sg77
(lp242
(VRAYLE
VD L
tp243
asg56
I1992
sg42
VLANT
p244
sbag1
(g2
g3
NtRp245
(dp246
g48
Nsg44
VSTABILITY EQUILIBRIU
p247
sg46
Nsg77
(lp248
(VRZHANITSYN
VA R
tp249
asg56
I1955
sg42
Nsbag1
(g2
g3
NtRp250
(dp251
g48
Nsg44
VWATER DEFICITS PLANT
p252
sg46
Nsg77
(lp253
(VSTEUDLE
VE
tp254
asg56
I1993
sg42
V5
sbag1
(g2
g3
NtRp255
(dp256
g48
Nsg44
VANNU REV PLANT PHYS
p257
sg46
V35
p258
sg77
(lp259
(VTAIZ
VL
tp260
asg56
I1984
sg42
V585
p261
sbag1
(g2
g3
NtRp262
(dp263
g48
V10.1104/pp.98.1.369
p264
sg44
VPLANT PHYSIOL
p265
sg46
V98
p266
sg77
(lp267
(VTALBOTT
VL D
tp268
asg56
I1992
sg42
VLANT
p269
sbag1
(g2
g3
NtRp270
(dp271
g48
V10.1104/pp.98.1.357
p272
sg44
VPLANT PHYSIOL
p273
sg46
V98
p274
sg77
(lp275
(VTALBOTT
VL D
tp276
asg56
I1992
sg42
VLANT
p277
sbag1
(g2
g3
NtRp278
(dp279
g48
V10.1007/s00425-005-0152-5
p280
sg44
VPLANTA
p281
sg46
V223
p282
sg77
(lp283
(VWEI
VC F
tp284
asg56
I2006
sg42
VLANTA
p285
sbag1
(g2
g3
NtRp286
(dp287
g48
V10.1016/S0022-5193(03)00167-X
p288
sg44
VJ THEOR BIOL
p289
sg46
V224
p290
sg77
(lp291
(VWEI
VC F
tp292
asg56
I2003
sg42
V305
p293
sbag1
(g2
g3
NtRp294
(dp295
g48
V10.1104/pp.126.3.1129
p296
sg44
VPLANT PHYSIOL
p297
sg46
V126
p298
sg77
(lp299
(VWEI
VC F
tp300
asg56
I2001
sg42
VLANT
p301
sbag1
(g2
g3
NtRp302
(dp303
g48
V10.1016/j.tplants.2007.01.006
p304
sg44
VTRENDS PLANT SCI
p305
sg46
V12
p306
sg77
(lp307
(VZONIA
VL
tp308
asg56
I2007
sg42
V90
p309
sbasb.