ccopy_reg
_reconstructor
p1
(ctethne.classes.paper
Paper
p2
c__builtin__
object
p3
NtRp4
(dp5
S'publisherCity'
p6
VROCKVILLE
p7
sS'reprintAddress'
p8
VRussinova, E (reprint author), Univ Ghent VIB, Dept Plant Syst Biol, B-9052 Ghent, Belgium.
p9
sS'WC'
p10
VPlant Sciences
p11
sS'GA'
p12
V551XL
p13
sS'FX'
p14
(lp15
VThis work was supported by the European Union-Human Resources and
p16
aVMobility for an Early Stage Training (grant no. MEST-CT-2004-514632 to
p17
aVJ. B.) and the Research Foundation-Flanders (postdoctoral fellowship to
p18
aVD. V. D.).
p19
asS'abstract'
p20
VCell division depends on the correct localization of the cyclin-dependent kinases that are regulated by phosphorylation, cyclin proteolysis, and protein-protein interactions. Although immunological assays can define cell cycle protein abundance and localization, they are not suitable for detecting the dynamic rearrangements of molecular components during cell division. Here, we applied an in vivo approach to trace the subcellular localization of 60 Arabidopsis (Arabidopsis thaliana) core cell cycle proteins fused to green fluorescent proteins during cell division in tobacco (Nicotiana tabacum) and Arabidopsis. Several cell cycle proteins showed a dynamic association with mitotic structures, such as condensed chromosomes and the preprophase band in both species, suggesting a strong conservation of targeting mechanisms. Furthermore, colocalized proteins were shown to bind in vivo, strengthening their localization-function connection. Thus, we identified unknown spatiotemporal territories where functional cell cycle protein interactions are most likely to occur.
p21
sS'pageEnd'
p22
I565
sS'date'
p23
I2010
sS'documentType'
p24
VArticle
p25
sS'subject'
p26
VPlant Sciences
p27
sS'isoSource'
p28
VPlant Physiol.
p29
sS'timesCited'
p30
(lp31
I22
aVZ9 22
p32
asS'funding'
p33
(lp34
(VEuropean Union-Human Resources and Mobility
VMEST-CT-2004-514632
tp35
a(VResearch Foundation-Flanders
Ntp36
asS'PT'
p37
VJ
sS'title'
p38
VSystematic Localization Of The Arabidopsis Core Cell Cycle Proteins Reveals Novel Cell Division Complexes
p39
sS'ISSN'
p40
(lp41
V0032-0889
p42
aVJ9 PLANT PHYSIOL
p43
asS'authors_full'
p44
(lp45
(VBORUC
VJOANNA
tp46
a(VMYLLE
VEVELIEN
tp47
a(VDUDA
VMARIA
tp48
a(VDE CLERCQ
VREBECCA
tp49
a(VROMBAUTS
VSTEPHANE
tp50
a(VGEELEN
VDANNY
tp51
a(VHILSON
VPIERRE
tp52
a(VINZE
VDIRK
tp53
a(VVAN DAMME
VDANIEL
tp54
a(VRUSSINOVA
VEUGENIA
tp55
asS'PG'
p56
I13
sS'PD'
p57
VFEB
p58
sS'pageStart'
p59
I553
sS'issue'
p60
I2
sS'journal'
p61
VPLANT PHYSIOLOGY
p62
sS'volume'
p63
V152
p64
sS'doi'
p65
V10.1104/pp.109.148643
p66
sS'emailAddress'
p67
Veugenia.russinova@psb.vib-ugent.be
p68
sS'authorAddress'
p69
(lp70
V[Boruc, Joanna; Mylle, Evelien; Duda, Maria; De Clercq, Rebecca; Rombauts, Stephane; Hilson, Pierre; Inze, Dirk; Van Damme, Daniel; Russinova, Eugenia] Univ Ghent VIB, Dept Plant Syst Biol, B-9052 Ghent, Belgium.
p71
aV[Boruc, Joanna; Mylle, Evelien; Duda, Maria; De Clercq, Rebecca; Rombauts, Stephane; Hilson, Pierre; Inze, Dirk; Van Damme, Daniel; Russinova, Eugenia] Univ Ghent, Dept Plant Biotechnol & Genet, B-9052 Ghent, Belgium.
p72
aV[Geelen, Danny] Univ Ghent, Fac Biosci Engn, Dept Plant Prod, B-9000 Ghent, Belgium.
p73
asS'publisherAddress'
p74
V15501 MONONA DRIVE, ROCKVILLE, MD 20855 USA
p75
sS'ER'
p76
V
sS'publisher'
p77
VAMER SOC PLANT BIOLOGISTS
p78
sS'authorKeywords'
p79
(lp80
VDEPENDENT KINASE INHIBITORS
p81
aVANAPHASE-PROMOTING COMPLEX
p82
aVXENOPUS SUC1/CKS PROTEIN
p83
aVGENOME-WIDE ANALYSIS
p84
aVA-TYPE CYCLIN
p85
aVPREPROPHASE BAND
p86
aVGENE-EXPRESSION
p87
aVMICROTUBULE DYNAMICS
p88
aVINDEPENDENT FUNCTION
p89
aVDNA-REPLICATION
p90
asS'language'
p91
VEnglish
p92
sS'wosid'
p93
VWOS:000274246600016
p94
sS'citationCount'
p95
I94
sS'authors_init'
p96
(lp97
(VBORUC
VJ
tp98
a(VMYLLE
VE
tp99
a(VDUDA
VM
tp100
a(VDE CLERCQ
VR
tp101
a(VROMBAUTS
VS
tp102
a(VGEELEN
VD
tp103
a(VHILSON
VP
tp104
a(VINZE
VD
tp105
a(VVAN DAMME
VD
tp106
a(VRUSSINOVA
VE
tp107
asS'citedReferences'
p108
(lp109
g1
(g2
g3
NtRp110
(dp111
g65
V10.1146/annurev.genet.39.110304.095808
p112
sg61
VANNU REV GENET
p113
sg63
V39
p114
sg96
(lp115
(VBAHLER
VJ
tp116
asg23
I2005
sg59
V69
p117
sbag1
(g2
g3
NtRp118
(dp119
g65
V10.1007/s00299-006-0294-3
p120
sg61
VPLANT CELL REP
p121
sg63
V26
p122
sg96
(lp123
(VBIRD
VD A
tp124
asg23
I2007
sg59
VLANT
p125
sbag1
(g2
g3
NtRp126
(dp127
g65
V10.1104/pp.109.140269
p128
sg61
VPLANT PHYSIOL
p129
sg63
V150
p130
sg96
(lp131
(VBOUDOLF
VV
tp132
asg23
I2009
sg59
VLANT
p133
sbag1
(g2
g3
NtRp134
(dp135
g65
V10.1016/S0092-8674(00)81065-X
p136
sg61
VCELL
p137
sg63
V84
p138
sg96
(lp139
(VBOURNE
VY
tp140
asg23
I1996
sg59
V863
p141
sbag1
(g2
g3
NtRp142
(dp143
g65
V10.1016/S1369-5266(00)00149-7
p144
sg61
VCURR OPIN PLANT BIOL
p145
sg63
V4
sg96
(lp146
(VBREYNE
VP
tp147
asg23
I2001
sg59
V136
p148
sbag1
(g2
g3
NtRp149
(dp150
g65
V10.1126/science.282.5393.1497
p151
sg61
VSCIENCE
p152
sg63
V282
p153
sg96
(lp154
(VBUNZ
VF
tp155
asg23
I1998
sg59
V1497
p156
sbag1
(g2
g3
NtRp157
(dp158
g65
V10.1016/0092-8674(93)90721-2
p159
sg61
VCELL
p160
sg63
V74
p161
sg96
(lp162
(VCARDOSO
VM C
tp163
asg23
I1993
sg59
V979
p164
sbag1
(g2
g3
NtRp165
(dp166
g65
Nsg61
VJ CELL SCI
p167
sg63
V111
p168
sg96
(lp169
(VCHARRASSE
VS
tp170
asg23
I1998
sg59
V1371
p171
sbag1
(g2
g3
NtRp172
(dp173
g65
V10.1093/emboj/cdg046
p174
sg61
VEMBO J
p175
sg63
V22
p176
sg96
(lp177
(VCLAY-FARRACE
VL
tp178
asg23
I2003
sg59
V704
p179
sbag1
(g2
g3
NtRp180
(dp181
g65
V10.1046/j.1365-313x.1998.00343.x
p182
sg61
VPLANT J
p183
sg63
V16
p184
sg96
(lp185
(VCLOUGH
VS J
tp186
asg23
I1998
sg59
VLANT
p187
sbag1
(g2
g3
NtRp188
(dp189
g65
V10.1046/j.1365-313X.2001.01180.x
p190
sg61
VPLANT J
p191
sg63
V28
p192
sg96
(lp193
(VCRIQUI
VM C
tp194
asg23
I2001
sg59
VLANT
p195
sbag1
(g2
g3
NtRp196
(dp197
g65
V10.1016/S1369-5266(02)00297-2
p198
sg61
VCURR OPIN PLANT BIOL
p199
sg63
V5
sg96
(lp200
(VCRIQUI
VM C
tp201
asg23
I2002
sg59
V487
p202
sbag1
(g2
g3
NtRp203
(dp204
g65
V10.1083/jcb.153.1.121
p205
sg61
VJ CELL BIOL
p206
sg63
V153
p207
sg96
(lp208
(VDEN
VELZEN N
tp209
asg23
I2001
sg59
V121
p210
sbag1
(g2
g3
NtRp211
(dp212
g65
V10.1105/tpc.13.7.1653
p213
sg61
VPLANT CELL
p214
sg63
V13
p215
sg96
(lp216
(VDE
VVEYLDER L
tp217
asg23
I2001
sg59
VLANT
p218
sbag1
(g2
g3
NtRp219
(dp220
g65
V10.1046/j.1365-313x.2001.00996.x
p221
sg61
VPLANT J
p222
sg63
V25
p223
sg96
(lp224
(VDE
VVEYLDER L
tp225
asg23
I2001
sg59
VLANT
p226
sbag1
(g2
g3
NtRp227
(dp228
g65
V10.1016/S0014-5793(97)00822-3
p229
sg61
VFEBS LETT
p230
sg63
V412
p231
sg96
(lp232
(VDE
VVEYLDER L
tp233
asg23
I1997
sg59
V446
p234
sbag1
(g2
g3
NtRp235
(dp236
g65
V10.1105/tpc.050401
p237
sg61
VPLANT CELL
p238
sg63
V19
p239
sg96
(lp240
(VDISSMEYER
VN
tp241
asg23
I2007
sg59
VLANT
p242
sbag1
(g2
g3
NtRp243
(dp244
g65
V10.1016/S0960-9822(01)00050-1
p245
sg61
VCURR BIOL
p246
sg63
V11
p247
sg96
(lp248
(VFOLEY
VE
tp249
asg23
I2001
sg59
V151
p250
sbag1
(g2
g3
NtRp251
(dp252
g65
V10.1016/S0960-9822(00)80084-6
p253
sg61
VCURR BIOL
p254
sg63
V9
sg96
(lp255
(VFOLEY
VE
tp256
asg23
I1999
sg59
V1392
p257
sbag1
(g2
g3
NtRp258
(dp259
g65
V10.1093/emboj/21.10.2485
p260
sg61
VEMBO J
p261
sg63
V21
p262
sg96
(lp263
(VFROUIN
VI
tp264
asg23
I2002
sg59
V2485
p265
sbag1
(g2
g3
NtRp266
(dp267
g65
Nsg61
VCELL CYCLE
p268
sg63
V4
sg96
(lp269
(VFULOP
VK
tp270
asg23
I2005
sg59
V1084
p271
sbag1
(g2
g3
NtRp272
(dp273
g65
V10.1091/mbc.E06-12-1092
p274
sg61
VMOL BIOL CELL
p275
sg63
V18
p276
sg96
(lp277
(VFUNG
VT K
tp278
asg23
I2007
sg59
V1861
p279
sbag1
(g2
g3
NtRp280
(dp281
g65
V10.1038/35060126
p282
sg61
VNAT CELL BIOL
p283
sg63
V3
sg96
(lp284
(VGANOTH
VD
tp285
asg23
I2001
sg59
V321
p286
sbag1
(g2
g3
NtRp287
(dp288
g65
V10.1104/pp.127.4.1375
p289
sg61
VPLANT PHYSIOL
p290
sg63
V127
p291
sg96
(lp292
(VGEELEN
VD N V
tp293
asg23
I2001
sg59
VLANT
p294
sbag1
(g2
g3
NtRp295
(dp296
g65
V10.1083/jcb.153.1.137
p297
sg61
VJ CELL BIOL
p298
sg63
V153
p299
sg96
(lp300
(VGELEY
VS
tp301
asg23
I2001
sg59
V137
p302
sbag1
(g2
g3
NtRp303
(dp304
g65
V10.1016/j.cub.2006.11.066
p305
sg61
VCURR BIOL
p306
sg63
V17
p307
sg96
(lp308
(VGONG
VD Q
tp309
asg23
I2007
sg59
V85
p310
sbag1
(g2
g3
NtRp311
(dp312
g65
Nsg61
VMOL CELL BIOL
p313
sg63
V16
p314
sg96
(lp315
(VGOROSPE
VM
tp316
asg23
I1996
sg59
V6654
p317
sbag1
(g2
g3
NtRp318
(dp319
g65
V10.1038/sj.onc.1200897
p320
sg61
VONCOGENE
p321
sg63
V14
p322
sg96
(lp323
(VGOROSPE
VM
tp324
asg23
I1997
sg59
V929
p325
sbag1
(g2
g3
NtRp326
(dp327
g65
V10.1016/S0092-8674(00)80994-0
p328
sg61
VCELL
p329
sg63
V84
p330
sg96
(lp331
(VGUADAGNO
VT M
tp332
asg23
I1996
sg59
V73
p333
sbag1
(g2
g3
NtRp334
(dp335
g65
Nsg61
VCELL
p336
sg63
V75
p337
sg96
(lp338
(VHARPER
VJ W
tp339
asg23
I1993
sg59
V805
p340
sbag1
(g2
g3
NtRp341
(dp342
g65
Nsg61
VEMBO J
p343
sg63
V5
sg96
(lp344
(VHAYLES
VJ
tp345
asg23
I1986
sg59
V3373
p346
sbag1
(g2
g3
NtRp347
(dp348
g65
V10.1083/jcb.116.3.707
p349
sg61
VJ CELL BIOL
p350
sg63
V116
p351
sg96
(lp352
(VHUNT
VT
tp353
asg23
I1992
sg59
V707
p354
sbag1
(g2
g3
NtRp355
(dp356
g65
V10.1006/cbir.1996.0031
p357
sg61
VCELL BIOL INT
p358
sg63
V20
p359
sg96
(lp360
(VHUSH
VJ
tp361
asg23
I1996
sg59
V275
p362
sbag1
(g2
g3
NtRp363
(dp364
g65
V10.1105/tpc.105.037309
p365
sg61
VPLANT CELL
p366
sg63
V18
p367
sg96
(lp368
(VIMAI
VK K
tp369
asg23
I2006
sg59
VLANT
p370
sbag1
(g2
g3
NtRp371
(dp372
g65
V10.1104/pp.008573
p373
sg61
VPLANT PHYSIOL
p374
sg63
V130
p375
sg96
(lp376
(VJASINSKI
VS
tp377
asg23
I2002
sg59
VLANT
p378
sbag1
(g2
g3
NtRp379
(dp380
g65
V10.1038/376313a0
p381
sg61
VNATURE
p382
sg63
V376
p383
sg96
(lp384
(VJEFFREY
VP D
tp385
asg23
I1995
sg59
V313
p386
sbag1
(g2
g3
NtRp387
(dp388
g65
V10.1007/BF02673865
p389
sg61
VPROTOPLASMA
p390
sg63
V216
p391
sg96
(lp392
(VJOHN
VP C L
tp393
asg23
I2001
sg59
VROTOPLASMA
p394
sbag1
(g2
g3
NtRp395
(dp396
g65
V10.1111/j.1365-313X.2003.02004.x
p397
sg61
VPLANT J
p398
sg63
V37
p399
sg96
(lp400
(VJOUBES
VJ
tp401
asg23
I2004
sg59
VLANT
p402
sbag1
(g2
g3
NtRp403
(dp404
g65
V10.1023/A:1006470301554
p405
sg61
VPLANT MOL BIOL
p406
sg63
V43
p407
sg96
(lp408
(VJOUBES
VJ
tp409
asg23
I2000
sg59
VLANT
p410
sbag1
(g2
g3
NtRp411
(dp412
g65
V10.1104/pp.107.110411
p413
sg61
VPLANT PHYSIOL
p414
sg63
V145
p415
sg96
(lp416
(VKARIMI
VM
tp417
asg23
I2007
sg59
VLANT
p418
sbag1
(g2
g3
NtRp419
(dp420
g65
V10.1104/pp.105.069989
p421
sg61
VPLANT PHYSIOL
p422
sg63
V140
p423
sg96
(lp424
(VKAWAMURA
VE
tp425
asg23
I2006
sg59
VLANT
p426
sbag1
(g2
g3
NtRp427
(dp428
g65
Nsg61
VMOL BIOL CELL
p429
sg63
V12
p430
sg96
(lp431
(VKIM
VT Y
tp432
asg23
I2001
sg59
V2207
p433
sbag1
(g2
g3
NtRp434
(dp435
g65
V10.1111/j.1365-313X.2004.02281.x
p436
sg61
VPLANT J
p437
sg63
V41
p438
sg96
(lp439
(VKOROLEVA
VO A
tp440
asg23
I2005
sg59
VLANT
p441
sbag1
(g2
g3
NtRp442
(dp443
g65
V10.1046/j.1365-313X.2003.01736.x
p444
sg61
VPLANT J
p445
sg63
V34
p446
sg96
(lp447
(VLEE
VJ
tp448
asg23
I2003
sg59
VLANT
p449
sbag1
(g2
g3
NtRp450
(dp451
g65
V10.1016/0092-8674(90)90535-M
p452
sg61
VCELL
p453
sg63
V61
p454
sg96
(lp455
(VLEHNER
VC F
tp456
asg23
I1990
sg59
V535
p457
sbag1
(g2
g3
NtRp458
(dp459
g65
V10.1186/1746-4811-5-6
p460
sg61
VPLANT METHODS
p461
sg63
V5
sg96
(lp462
(VLI
VJ F
tp463
asg23
I2009
sg59
VLANT
p464
sbag1
(g2
g3
NtRp465
(dp466
g65
V10.1126/science.270.5242.1595
p467
sg61
VSCIENCE
p468
sg63
V270
p469
sg96
(lp470
(VMCKIM
VK S
tp471
asg23
I1995
sg59
V1595
p472
sbag1
(g2
g3
NtRp473
(dp474
g65
V10.1111/j.1365-313X.2004.02319.x
p475
sg61
VPLANT J
p476
sg63
V41
p477
sg96
(lp478
(VMENGES
VM
tp479
asg23
I2005
sg59
VLANT
p480
sbag1
(g2
g3
NtRp481
(dp482
g65
V10.1023/A:1006412413671
p483
sg61
VPLANT MOL BIOL
p484
sg63
V43
p485
sg96
(lp486
(VMESZAROS
VT
tp487
asg23
I2000
sg59
VLANT
p488
sbag1
(g2
g3
NtRp489
(dp490
g65
V10.1007/BF01283289
p491
sg61
VPROTOPLASMA
p492
sg63
V200
p493
sg96
(lp494
(VMEWS
VM
tp495
asg23
I1997
sg59
VROTOPLASMA
p496
sbag1
(g2
g3
NtRp497
(dp498
g65
V10.1105/tpc.109.066019
p499
sg61
VPLANT CELL
p500
sg63
V21
p501
sg96
(lp502
(VMILLAR
VA H
tp503
asg23
I2009
sg59
VLANT
p504
sbag1
(g2
g3
NtRp505
(dp506
g65
Nsg61
VINT REV CYTOL
p507
sg63
V187
p508
sg96
(lp509
(VMINEYUKI
VY
tp510
asg23
I1999
sg59
V1
sbag1
(g2
g3
NtRp511
(dp512
g65
Nsg61
VJ PLANT PHYSIOL
p513
sg63
V138
p514
sg96
(lp515
(VMINEYUKI
VY
tp516
asg23
I1991
sg59
V640
p517
sbag1
(g2
g3
NtRp518
(dp519
g65
V10.1038/nature01720
p520
sg61
VNATURE
p521
sg63
V423
p522
sg96
(lp523
(VMORRIS
VM C
tp524
asg23
I2003
sg59
V1009
p525
sbag1
(g2
g3
NtRp526
(dp527
g65
V10.1016/j.tcb.2009.02.002
p528
sg61
VTRENDS CELL BIOL
p529
sg63
V19
p530
sg96
(lp531
(VMULLER
VS
tp532
asg23
I2009
sg59
V180
p533
sbag1
(g2
g3
NtRp534
(dp535
g65
V10.1023/A:1009832822096
p536
sg61
VMethods in Cell Science
p537
sg63
V21
p538
sg96
(lp539
(VNAGATA
VTOSHIYUKI
tp540
asg23
I1999
sg59
V123
p541
sbag1
(g2
g3
NtRp542
(dp543
g65
V10.1016/0168-9525(96)10041-X
p544
sg61
VTRENDS GENET
p545
sg63
V12
p546
sg96
(lp547
(VNASMYTH
VK
tp548
asg23
I1996
sg59
V405
p549
sbag1
(g2
g3
NtRp550
(dp551
g65
V10.1074/jbc.M203951200
p552
sg61
VJ BIOL CHEM
p553
sg63
V277
p554
sg96
(lp555
(VNGUYEN
VT B
tp556
asg23
I2002
sg59
V41960
p557
sbag1
(g2
g3
NtRp558
(dp559
g65
V10.1002/bies.950170603
p560
sg61
VBIOESSAYS
p561
sg63
V17
p562
sg96
(lp563
(VNIGG
VE A
tp564
asg23
I1995
sg59
V471
p565
sbag1
(g2
g3
NtRp566
(dp567
g65
Nsg61
VPHILOS T ROY SOC B
p568
sg63
V353
p569
sg96
(lp570
(VNOVAK
VB
tp571
asg23
I1998
sg59
VHILOS
p572
sbag1
(g2
g3
NtRp573
(dp574
g65
V10.1083/jcb.128.5.849
p575
sg61
VJ CELL BIOL
p576
sg63
V128
p577
sg96
(lp578
(VOOKATA
VK
tp579
asg23
I1995
sg59
V849
p580
sbag1
(g2
g3
NtRp581
(dp582
g65
V10.1093/aob/mch077
p583
sg61
VANN BOT
p584
sg63
V93
p585
sg96
(lp586
(VORMENESE
VS
tp587
asg23
I2004
sg59
V575
p588
sbag1
(g2
g3
NtRp589
(dp590
g65
V10.1074/jbc.274.52.36839
p591
sg61
VJ BIOL CHEM
p592
sg63
V274
p593
sg96
(lp594
(VPATRA
VD
tp595
asg23
I1999
sg59
V36839
p596
sbag1
(g2
g3
NtRp597
(dp598
g65
V10.1101/gad.12.16.2549
p599
sg61
VGENE DEV
p600
sg63
V12
p601
sg96
(lp602
(VPATRA
VD
tp603
asg23
I1998
sg59
V2549
p604
sbag1
(g2
g3
NtRp605
(dp606
g65
V10.1038/sj.embor.7400529
p607
sg61
VEMBO REP
p608
sg63
V6
sg96
(lp609
(VPEARSON
VN J
tp610
asg23
I2005
sg59
V1058
p611
sbag1
(g2
g3
NtRp612
(dp613
g65
V10.1083/jcb.115.1.1
p614
sg61
VJ CELL BIOL
p615
sg63
V115
p616
sg96
(lp617
(VPINES
VJ
tp618
asg23
I1991
sg59
V1
sbag1
(g2
g3
NtRp619
(dp620
g65
V10.1038/11041
p621
sg61
VNAT CELL BIOL
p622
sg63
V1
sg96
(lp623
(VPINES
VJ
tp624
asg23
I1999
sg59
VE73
p625
sbag1
(g2
g3
NtRp626
(dp627
g65
V10.1016/S1369-5266(00)00207-7
p628
sg61
VCURR OPIN PLANT BIOL
p629
sg63
V4
sg96
(lp630
(VPOTUSCHAK
VT
tp631
asg23
I2001
sg59
V501
p632
sbag1
(g2
g3
NtRp633
(dp634
g65
V10.1083/jcb.149.7.1377
p635
sg61
VJ CELL BIOL
p636
sg63
V149
p637
sg96
(lp638
(VRUDNER
VA D
tp639
asg23
I2000
sg59
V1377
p640
sbag1
(g2
g3
NtRp641
(dp642
g65
V10.1038/nsb0896-696
p643
sg61
VNAT STRUCT BIOL
p644
sg63
V3
sg96
(lp645
(VRUSSO
VA A
tp646
asg23
I1996
sg59
V696
p647
sbag1
(g2
g3
NtRp648
(dp649
g65
Nsg61
VVET PATHOL
p650
sg63
VET
p651
sg96
(lp652
(VSCHAFER
VK A
tp653
asg23
I1998
sg59
V461
p654
sbag1
(g2
g3
NtRp655
(dp656
g65
V10.1105/tpc.008342
p657
sg61
VPLANT CELL
p658
sg63
V15
p659
sg96
(lp660
(VSCHNITTGER
VA
tp661
asg23
I2003
sg59
VLANT
p662
sbag1
(g2
g3
NtRp663
(dp664
g65
V10.1016/j.pbi.2004.07.017
p665
sg61
VCURR OPIN PLANT BIOL
p666
sg63
V7
sg96
(lp667
(VSHEEN
VJ
tp668
asg23
I2004
sg59
V487
p669
sbag1
(g2
g3
NtRp670
(dp671
g65
V10.1016/S0248-4900(99)80010-0
p672
sg61
VBIOL CELL
p673
sg63
V90
p674
sg96
(lp675
(VSHIMADA
VA
tp676
asg23
I1998
sg59
V519
p677
sbag1
(g2
g3
NtRp678
(dp679
g65
V10.1006/bbrc.1999.0884
p680
sg61
VBIOCHEM BIOPH RES CO
p681
sg63
V260
p682
sg96
(lp683
(VSHTEINBERG
VM
tp684
asg23
I1999
sg59
V193
p685
sbag1
(g2
g3
NtRp686
(dp687
g65
V10.1038/35048050
p688
sg61
VNAT REV MOL CELL BIO
p689
sg63
V2
sg96
(lp690
(VSMITH
VL G
tp691
asg23
I2001
sg59
V33
p692
sbag1
(g2
g3
NtRp693
(dp694
g65
V10.1016/S1097-2765(01)00210-6
p695
sg61
VMOL CELL
p696
sg63
V7
sg96
(lp697
(VSPRUCK
VC
tp698
asg23
I2001
sg59
V639
p699
sbag1
(g2
g3
NtRp700
(dp701
g65
V10.1126/science.1084149
p702
sg61
VSCIENCE
p703
sg63
V300
p704
sg96
(lp705
(VSPRUCK
VC H
tp706
asg23
I2003
sg59
V647
p707
sbag1
(g2
g3
NtRp708
(dp709
g65
V10.1016/S0014-5793(97)01368-9
p710
sg61
VFEBS LETT
p711
sg63
V418
p712
sg96
(lp713
(VSTALS
VH
tp714
asg23
I1997
sg59
V229
p715
sbag1
(g2
g3
NtRp716
(dp717
g65
V10.1016/j.pbi.2007.01.004
p718
sg61
VCURR OPIN PLANT BIOL
p719
sg63
V10
p720
sg96
(lp721
(VSTERCK
VL
tp722
asg23
I2007
sg59
V199
p723
sbag1
(g2
g3
NtRp724
(dp725
g65
V10.1101/gad.7.5.822
p726
sg61
VGENE DEV
p727
sg63
V7
sg96
(lp728
(VTANG
VY
tp729
asg23
I1993
sg59
V822
p730
sbag1
(g2
g3
NtRp731
(dp732
g65
V10.1104/pp.104.040139
p733
sg61
VPLANT PHYSIOL
p734
sg63
V135
p735
sg96
(lp736
(VTIAN
VG W
tp737
asg23
I2004
sg59
VLANT
p738
sbag1
(g2
g3
NtRp739
(dp740
g65
Nsg61
VNAT CELL BIOL
p741
sg63
V2
sg96
(lp742
(VTOURNEBIZE
VR
tp743
asg23
I2000
sg59
V13
p744
sbag1
(g2
g3
NtRp745
(dp746
g65
V10.1016/j.cellbi.2007.10.010
p747
sg61
VCELL BIOL INT
p748
sg63
V32
p749
sg96
(lp750
(VVAN
VDAMME D
tp751
asg23
I2008
sg59
V178
p752
sbag1
(g2
g3
NtRp753
(dp754
g65
V10.1105/tpc.010445
p755
sg61
VPLANT CELL
p756
sg63
V14
p757
sg96
(lp758
(VVANDEPOELE
VK
tp759
asg23
I2002
sg59
VLANT
p760
sbag1
(g2
g3
NtRp761
(dp762
g65
V10.1073/pnas.0901193106
p763
sg61
VP NATL ACAD SCI USA
p764
sg63
V106
p765
sg96
(lp766
(VVANSTRAELEN
VM
tp767
asg23
I2009
sg59
V11806
p768
sbag1
(g2
g3
NtRp769
(dp770
g65
V10.1111/j.1365-2818.2008.02039.x
p771
sg61
VJ MICROSC
p772
sg63
V231
p773
sg96
(lp774
(VWANG
VH
tp775
asg23
I2008
sg59
V234
p776
sbag1
(g2
g3
NtRp777
(dp778
g65
V10.1046/j.1365-313X.1998.00231.x
p779
sg61
VPLANT J
p780
sg63
V15
p781
sg96
(lp782
(VWANG
VH
tp783
asg23
I1998
sg59
VLANT
p784
sbag1
(g2
g3
NtRp785
(dp786
g65
V10.1105/tpc.13.8.1929
p787
sg61
VPLANT CELL
p788
sg63
V13
p789
sg96
(lp790
(VWEINGARTNER
VM
tp791
asg23
I2001
sg59
VLANT
p792
sbag1
(g2
g3
NtRp793
(dp794
g65
V10.1105/tpc.104.030486
p795
sg61
VPLANT CELL
p796
sg63
V17
p797
sg96
(lp798
(VWEINL
VC
tp799
asg23
I2005
sg59
VLANT
p800
sbag1
(g2
g3
NtRp801
(dp802
g65
V10.1016/j.molcel.2004.11.020
p803
sg61
VMOL CELL
p804
sg63
V17
p805
sg96
(lp806
(VYU
VVPCC
tp807
asg23
I2005
sg59
V145
p808
sbag1
(g2
g3
NtRp809
(dp810
g65
V10.1105/tpc.015990
p811
sg61
VPLANT CELL
p812
sg63
V15
p813
sg96
(lp814
(VYU
VY
tp815
asg23
I2003
sg59
VLANT
p816
sbag1
(g2
g3
NtRp817
(dp818
g65
V10.1046/j.1365-313X.2003.01821.x
p819
sg61
VPLANT J
p820
sg63
V35
p821
sg96
(lp822
(VZHOU
VY M
tp823
asg23
I2003
sg59
VLANT
p824
sbag1
(g2
g3
NtRp825
(dp826
g65
V10.1046/j.1365-313x.2000.00868.x
p827
sg61
VPLANT J
p828
sg63
V24
p829
sg96
(lp830
(VZUO
VJ R
tp831
asg23
I2000
sg59
VLANT
p832
sbasb.