ccopy_reg
_reconstructor
p1
(ctethne.classes.paper
Paper
p2
c__builtin__
object
p3
NtRp4
(dp5
S'publisherCity'
p6
VROCKVILLE
p7
sS'reprintAddress'
p8
VGarczarek, L (reprint author), Univ Paris 06, Biol Stn, F-29680 Roscoff, France.
p9
sS'WC'
p10
VPlant Sciences
p11
sS'GA'
p12
V803GC
p13
sS'FX'
p14
(lp15
VThis work was supported by the European Network of Excellence Marine
p16
aVGenomics Europe (SynChips program) and the French Agence Nationale de la
p17
aVRecherche programs PhycoSyn (grant no. ANR-05-BLAN-0122-01) and Pelican
p18
aV(grant no. PCS-09-GENM-200). D.M.-F. was supported by the National
p19
aVCommission of Scientific and Technological Investigation of Chile.
p20
asS'abstract'
p21
VMarine Synechococcus undergo a wide range of environmental stressors, especially high and variable irradiance, which may induce oxidative stress through the generation of reactive oxygen species (ROS). While light and ROS could act synergistically on the impairment of photosynthesis, inducing photodamage and inhibiting photosystem II repair, acclimation to high irradiance is also thought to confer resistance to other stressors. To identify the respective roles of light and ROS in the photoinhibition process and detect a possible light-driven tolerance to oxidative stress, we compared the photophysiological and transcriptomic responses of Synechococcus sp. WH7803 acclimated to low light (LL) or high light (HL) to oxidative stress, induced by hydrogen peroxide (H2O2) or methylviologen. While photosynthetic activity was much more affected in HL than in LL cells, only HL cells were able to recover growth and photosynthesis after the addition of 25 mu M H2O2. Depending upon light conditions and H2O2 concentration, the latter oxidizing agent induced photosystem II inactivation through both direct damage to the reaction centers and inhibition of its repair cycle. Although the global transcriptome response appeared similar in LL and HL cells, some processes were specifically induced in HL cells that seemingly helped them withstand oxidative stress, including enhancement of photoprotection and ROS detoxification, repair of ROS-driven damage, and regulation of redox state. Detection of putative LexA binding sites allowed the identification of the putative LexA regulon, which was down-regulated in HL compared with LL cells but up-regulated by oxidative stress under both growth irradiances.
p22
sS'pageEnd'
p23
I1954
sS'date'
p24
I2011
sS'documentType'
p25
VArticle
p26
sS'subject'
p27
VPlant Sciences
p28
sS'isoSource'
p29
VPlant Physiol.
p30
sS'timesCited'
p31
(lp32
I4
aVZ9 4
p33
asS'funding'
p34
(lp35
(VEuropean Network of Excellence Marine Genomics Europe
Ntp36
a(VFrench Agence Nationale de la Recherche
VANR-05-BLAN-0122-01, PCS-09-GENM-200
tp37
a(VNational Commission of Scientific and Technological Investigation of Chile
Ntp38
asS'PT'
p39
VJ
sS'title'
p40
VLight History Influences The Response Of The Marine Cyanobacterium Synechococcus Sp Wh7803 To Oxidative Stress
p41
sS'ISSN'
p42
(lp43
V0032-0889
p44
aVJ9 PLANT PHYSIOL
p45
asS'authors_full'
p46
(lp47
(VBLOT
VNICOLAS
tp48
a(VMELLAFLORES
VDANIELLA
tp49
a(VSIX
VCHRISTOPHE
tp50
a(VLE CORGUILLE
VGILDAS
tp51
a(VBOUTTE
VCHRISTOPHE
tp52
a(VPEYRAT
VANNE
tp53
a(VMONNIER
VANNABELLE
tp54
a(VRATIN
VMORGANE
tp55
a(VGOURVIL
VPRISCILLIA
tp56
a(VCAMPBELL
VDOUGLAS A
tp57
a(VGARCZAREK
VLAURENCE
tp58
asS'PG'
p59
I21
sS'PD'
p60
VAUG
p61
sS'pageStart'
p62
I1934
sS'issue'
p63
I4
sS'RI'
p64
VCampbell, Douglas/B-3768-2010
p65
sS'journal'
p66
VPLANT PHYSIOLOGY
p67
sS'volume'
p68
V156
p69
sS'doi'
p70
V10.1104/pp.111.174714
p71
sS'emailAddress'
p72
Vlaurence.garczarek@sb-roscoff.fr
p73
sS'authorAddress'
p74
(lp75
V[Blot, Nicolas; Mella-Flores, Daniella; Six, Christophe; Le Corguille, Gildas; Boutte, Christophe; Peyrat, Anne; Ratin, Morgane; Gourvil, Priscillia; Garczarek, Laurence] Univ Paris 06, Biol Stn, F-29680 Roscoff, France.
p76
aV[Blot, Nicolas; Mella-Flores, Daniella; Six, Christophe; Boutte, Christophe; Peyrat, Anne; Ratin, Morgane; Gourvil, Priscillia; Garczarek, Laurence] CNRS, UMR 7144, Grp Plancton Ocean, Observ Oceanol, F-29680 Roscoff, France.
p77
aV[Blot, Nicolas] Univ Clermont Ferrand, Clermont Univ, Lab Microorganismes Genome & Environm, F-63000 Clermont Ferrand, France.
p78
aV[Blot, Nicolas] Univ Clermont Ferrand, Photochim Mol & Macromol Lab, CNRS, UMR 6023, F-63177 Aubiere, France.
p79
aV[Monnier, Annabelle] Univ Europeenne Bretagne, Univ Rennes 1, CNRS, Inst Genet & Dev,Inst Federatif Rech,UMR 6061, F-35042 Rennes, France.
p80
aV[Campbell, Douglas A.] Mt Allison Univ, Dept Biol, Sackville, NB E4L 1G7, Canada.
p81
aV[Le Corguille, Gildas] CNRS, Serv Informat & Genom, F-29680 Roscoff, France.
p82
asS'publisherAddress'
p83
V15501 MONONA DRIVE, ROCKVILLE, MD 20855 USA
p84
sS'ER'
p85
V
sS'publisher'
p86
VAMER SOC PLANT BIOLOGISTS
p87
sS'authorKeywords'
p88
(lp89
VSYNECHOCYSTIS-SP PCC-6803
p90
aVSP STRAIN PCC-6803
p91
aVOXYGEN-EVOLVING COMPLEX
p92
aVCDNA MICROARRAY DATA
p93
aVUV-B RADIATION
p94
aVII D1 PROTEIN
p95
aVSP PCC 7942
p96
aVPHOTOSYSTEM-II
p97
aVHYDROGEN-PEROXIDE
p98
aVSINGLET OXYGEN
p99
asS'OI'
p100
VCampbell, Douglas/0000-0001-8996-5463
p101
sS'language'
p102
VEnglish
p103
sS'wosid'
p104
VWOS:000293568800023
p105
sS'citationCount'
p106
I149
sS'authors_init'
p107
(lp108
(VBLOT
VN
tp109
a(VMELLAFLORES
VD
tp110
a(VSIX
VC
tp111
a(VLE CORGUILLE
VG
tp112
a(VBOUTTE
VC
tp113
a(VPEYRAT
VA
tp114
a(VMONNIER
VA
tp115
a(VRATIN
VM
tp116
a(VGOURVIL
VP
tp117
a(VCAMPBELL
VD A
tp118
a(VGARCZAREK
VL
tp119
asS'citedReferences'
p120
(lp121
g1
(g2
g3
NtRp122
(dp123
g70
V10.1023/A:1024969518145
p124
sg66
VPHOTOSYNTH RES
p125
sg68
V76
p126
sg107
(lp127
(VADIR
VN
tp128
asg24
I2003
sg62
VHOTOSYNTH
p129
sbag1
(g2
g3
NtRp130
(dp131
g70
V10.1016/j.bbabio.2004.03.003
p132
sg66
VBBA
p133
sg68
V1657
p134
sg107
(lp135
(VALLAKHVERDIEV
VS I
tp136
asg24
I2004
sg62
V23
p137
sbag1
(g2
g3
NtRp138
(dp139
g70
V10.1016/0005-2728(93)90134-2
p140
sg66
VBIOCHIM BIOPHYS ACTA
p141
sg68
V1143
p142
sg107
(lp143
(VARO
VE M
tp144
asg24
I1993
sg62
V113
p145
sbag1
(g2
g3
NtRp146
(dp147
g70
V10.1093/jxb/eri041
p148
sg66
VJ EXP BOT
p149
sg68
V56
p150
sg107
(lp151
(VARO
VE M
tp152
asg24
I2005
sg62
V347
p153
sbag1
(g2
g3
NtRp154
(dp155
g70
Nsg66
VCauses of photooxidative stress and amelioration of defense systems in plants
p156
sg68
Nsg107
(lp157
(VASADA
VK
tp158
asg24
I1994
sg62
V77
p159
sbag1
(g2
g3
NtRp160
(dp161
g70
V10.1146/annurev.arplant.50.1.601
p162
sg66
VANNU REV PLANT PHYS
p163
sg68
V50
p164
sg107
(lp165
(VASADA
VK
tp166
asg24
I1999
sg62
V601
p167
sbag1
(g2
g3
NtRp168
(dp169
g70
V10.1074/jbc.M601064200
p170
sg66
VJ BIOL CHEM
p171
sg68
V281
p172
sg107
(lp173
(VBARKER
VM
tp174
asg24
I2006
sg62
V30347
p175
sbag1
(g2
g3
NtRp176
(dp177
g70
V10.1021/pr100651w
p178
sg66
VJ PROTEOME RES
p179
sg68
V9
sg107
(lp180
(VBATTCHIKOVA
VN
tp181
asg24
I2010
sg62
V5896
p182
sbag1
(g2
g3
NtRp183
(dp184
g70
V10.1016/0005-2728(94)00195-B
p185
sg66
VBBA
p186
sg68
V1229
p187
sg107
(lp188
(VBENDALL
VD S
tp189
asg24
I1995
sg62
V23
p190
sbag1
(g2
g3
NtRp191
(dp192
g70
Nsg66
VINT REV NEUROBIOL
p193
sg68
V60
p194
sg107
(lp195
(VBOLSTAD
VB M
tp196
asg24
I2004
sg62
V25
p197
sbag1
(g2
g3
NtRp198
(dp199
g70
V10.1111/j.1529-8817.2005.04126.x
p200
sg66
VJ PHYCOL
p201
sg68
V41
p202
sg107
(lp203
(VBOUCHARD
VJ N
tp204
asg24
I2005
sg62
V273
p205
sbag1
(g2
g3
NtRp206
(dp207
g70
V10.1146/annurev.arplant.56.032604.144246
p208
sg66
VANNU REV PLANT BIOL
p209
sg68
V56
p210
sg107
(lp211
(VBUCHANAN
VB B
tp212
asg24
I2005
sg62
V187
p213
sbag1
(g2
g3
NtRp214
(dp215
g70
V10.2307/3429690
p216
sg66
VENVIRON HEALTH PERSP
p217
sg68
V55
p218
sg107
(lp219
(VBUS
VJ S
tp220
asg24
I1984
sg62
V37
p221
sbag1
(g2
g3
NtRp222
(dp223
g70
V10.1007/s00018-008-8378-6
p224
sg66
VCELL MOL LIFE SCI
p225
sg68
V66
p226
sg107
(lp227
(VBUTALA
VM
tp228
asg24
I2009
sg62
V82
p229
sbag1
(g2
g3
NtRp230
(dp231
g70
Nsg66
VEMBO J
p232
sg68
V14
p233
sg107
(lp234
(VCAMPBELL
VD
tp235
asg24
I1995
sg62
V5457
p236
sbag1
(g2
g3
NtRp237
(dp238
g70
V10.1073/pnas.95.1.364
p239
sg66
VP NATL ACAD SCI USA
p240
sg68
V95
p241
sg107
(lp242
(VCAMPBELL
VD
tp243
asg24
I1998
sg62
V364
p244
sbag1
(g2
g3
NtRp245
(dp246
g70
V10.1021/bi00160a017
p247
sg66
VBIOCHEMISTRY
p248
sg68
V31
p249
sg107
(lp250
(VCHEN
VG X
tp251
asg24
I1992
sg62
V11072
p252
sbag1
(g2
g3
NtRp253
(dp254
g70
V10.1016/j.bbagen.2010.01.013
p255
sg66
VBBA
p256
sg68
V1800
p257
sg107
(lp258
(VCHIANCONE
VE
tp259
asg24
I2010
sg62
V798
p260
sbag1
(g2
g3
NtRp261
(dp262
g70
V10.1073/pnas.90.24.11985
p263
sg66
VP NATL ACAD SCI USA
p264
sg68
V90
p265
sg107
(lp266
(VCLARKE
VA K
tp267
asg24
I1993
sg62
V11985
p268
sbag1
(g2
g3
NtRp269
(dp270
g70
V10.1073/pnas.90.21.9973
p271
sg66
VP NATL ACAD SCI USA
p272
sg68
V90
p273
sg107
(lp274
(VCLARKE
VA K
tp275
asg24
I1993
sg62
V9973
p276
sbag1
(g2
g3
NtRp277
(dp278
g70
V10.1128/JB.183.14.4251-4258.2001
p279
sg66
VJ BACTERIOL
p280
sg68
V183
p281
sg107
(lp282
(VCOOLEY
VJ W
tp283
asg24
I2001
sg62
V4251
p284
sbag1
(g2
g3
NtRp285
(dp286
g70
Nsg66
VGENETICS
p287
sg68
V158
p288
sg107
(lp289
(VCOURCELLE
VJ
tp290
asg24
I2001
sg62
V41
p291
sbag1
(g2
g3
NtRp292
(dp293
g70
V10.1101/gr.849004
p294
sg66
VGENOME RES
p295
sg68
V14
p296
sg107
(lp297
(VCROOKS
VG E
tp298
asg24
I2004
sg62
V1188
p299
sbag1
(g2
g3
NtRp300
(dp301
g70
V10.1016/j.bbamcr.2006.05.003
p302
sg66
VBBA
p303
sg68
V1763
p304
sg107
(lp305
(VCULOTTA
VV C
tp306
asg24
I2006
sg62
V747
p307
sbag1
(g2
g3
NtRp308
(dp309
g70
V10.1016/0005-2728(87)90033-8
p310
sg66
VBIOCHIM BIOPHYS ACTA
p311
sg68
V893
p312
sg107
(lp313
(VDINER
VB A
tp314
asg24
I1987
sg62
V138
p315
sbag1
(g2
g3
NtRp316
(dp317
g70
V10.1111/j.1365-2958.2004.04100.x
p318
sg66
VMOL MICROBIOL
p319
sg68
V53
p320
sg107
(lp321
(VDOMAIN
VF
tp322
asg24
I2004
sg62
V65
p323
sbag1
(g2
g3
NtRp324
(dp325
g70
V10.1007/s11099-007-0062-9
p326
sg66
VPHOTOSYNTHETICA
p327
sg68
V45
p328
sg107
(lp329
(VDRABKOVA
VM
tp330
asg24
I2007
sg62
VHOTOSYNTHETICA
p331
sbag1
(g2
g3
NtRp332
(dp333
g70
V10.1186/gb-2008-9-5-r90
p334
sg66
VGENOME BIOL
p335
sg68
V9
sg107
(lp336
(VDUFRESNE
VA
tp337
asg24
I2008
sg62
Nsbag1
(g2
g3
NtRp338
(dp339
g70
V10.1002/1521-4028(200212)42:6<367::AID-JOBM367>3.0.CO;2-T
p340
sg66
VJ BASIC MICROB
p341
sg68
V42
p342
sg107
(lp343
(VDURHAM
VK A
tp344
asg24
I2002
sg62
V367
p345
sbag1
(g2
g3
NtRp346
(dp347
g70
V10.1007/s11120-008-9342-x
p348
sg66
VPHOTOSYNTH RES
p349
sg68
V98
p350
sg107
(lp351
(VEDELMAN
VM
tp352
asg24
I2008
sg62
VHOTOSYNTH
p353
sbag1
(g2
g3
NtRp354
(dp355
g70
V10.1016/S1011-1344(97)00092-4
p356
sg66
VJ PHOTOCH PHOTOBIO B
p357
sg68
V41
p358
sg107
(lp359
(VEDGE
VR
tp360
asg24
I1997
sg62
V189
p361
sbag1
(g2
g3
NtRp362
(dp363
g70
V10.1007/s00249-009-0484-3
p364
sg66
VEUR BIOPHYS J BIOPHY
p365
sg68
V39
p366
sg107
(lp367
(VFAN
VD Y
tp368
asg24
I2009
sg62
V191
p369
sbag1
(g2
g3
NtRp370
(dp371
g70
V10.1016/0005-2728(90)90213-N
p372
sg66
VBIOCHIM BIOPHYS ACTA
p373
sg68
V1015
p374
sg107
(lp375
(VFUJII
VT
tp376
asg24
I1990
sg62
V41
p377
sbag1
(g2
g3
NtRp378
(dp379
g70
V10.1021/bi990545+
p380
sg66
VBIOCHEMISTRY
p381
sg68
V38
p382
sg107
(lp383
(VFUNK
VC
tp384
asg24
I1999
sg62
V9397
p385
sbag1
(g2
g3
NtRp386
(dp387
g70
V10.1038/ismej.2008.46
p388
sg66
VISME J
p389
sg68
V2
sg107
(lp390
(VGARCZAREK
VL
tp391
asg24
I2008
sg62
V937
p392
sbag1
(g2
g3
NtRp393
(dp394
g70
V10.1186/gb-2004-5-10-r80
p395
sg66
VGENOME BIOL
p396
sg68
V5
sg107
(lp397
(VGENTLEMAN
VR C
tp398
asg24
I2004
sg62
Nsbag1
(g2
g3
NtRp399
(dp400
g70
V10.1021/tx0155956
p401
sg66
VCHEM RES TOXICOL
p402
sg68
V15
p403
sg107
(lp404
(VGOLDSTEIN
VS
tp405
asg24
I2002
sg62
V686
p406
sbag1
(g2
g3
NtRp407
(dp408
g70
V10.1016/j.bbabio.2004.09.001
p409
sg66
VBBA
p410
sg68
V1706
p411
sg107
(lp412
(VHAKALA
VM
tp413
asg24
I2005
sg62
V68
p414
sbag1
(g2
g3
NtRp415
(dp416
g70
V10.1016/S0005-2728(02)00391-2
p417
sg66
VBBA
p418
sg68
V1557
p419
sg107
(lp420
(VHAVAUX
VM
tp421
asg24
I2003
sg62
V21
p422
sbag1
(g2
g3
NtRp423
(dp424
g70
Nsg66
VJ BIOL CHEM
p425
sg68
V276
p426
sg107
(lp427
(VHE
VQ F
tp428
asg24
I2001
sg62
V306
p429
sbag1
(g2
g3
NtRp430
(dp431
g70
V10.1007/BF00020441
p432
sg66
VPHOTOSYNTH RES
p433
sg68
V46
p434
sg107
(lp435
(VHERBERT
VS K
tp436
asg24
I1995
sg62
VHOTOSYNTH
p437
sbag1
(g2
g3
NtRp438
(dp439
g70
V10.1111/j.1399-3054.2007.00913.x
p440
sg66
VPHYSIOL PLANTARUM
p441
sg68
V131
p442
sg107
(lp443
(VHIDEG
VE
tp444
asg24
I2007
sg62
VHYSIOL
p445
sbag1
(g2
g3
NtRp446
(dp447
g70
V10.1016/0003-9861(75)90047-8
p448
sg66
VARCH BIOCHEM BIOPHYS
p449
sg68
V171
p450
sg107
(lp451
(VHILDEBRANDT
VA G
tp452
asg24
I1975
sg62
V385
p453
sbag1
(g2
g3
NtRp454
(dp455
g70
V10.1016/0196-8904(95)00098-X
p456
sg66
VENERG CONVERS MANAGE
p457
sg68
V36
p458
sg107
(lp459
(VHIRAYAMA
VS
tp460
asg24
I1995
sg62
V685
p461
sbag1
(g2
g3
NtRp462
(dp463
g70
V10.1074/jbc.M411493200
p464
sg66
VJ BIOL CHEM
p465
sg68
V280
p466
sg107
(lp467
(VHOSOYA-MATSUDA
VN
tp468
asg24
I2005
sg62
V840
p469
sbag1
(g2
g3
NtRp470
(dp471
g70
V10.1007/s00284-002-3831-5
p472
sg66
VCURR MICROBIOL
p473
sg68
V46
p474
sg107
(lp475
(VHOSSAIN
VM
tp476
asg24
I2003
sg62
V70
p477
sbag1
(g2
g3
NtRp478
(dp479
g70
V10.1007/s00284-001-0005-9
p480
sg66
VCURR MICROBIOL
p481
sg68
V44
p482
sg107
(lp483
(VHOSSAIN
VM M
tp484
asg24
I2002
sg62
V291
p485
sbag1
(g2
g3
NtRp486
(dp487
g70
V10.1186/1471-2164-8-350
p488
sg66
VBMC GENOMICS
p489
sg68
V8
sg107
(lp490
(VHOUOT
VL
tp491
asg24
I2007
sg62
Nsbag1
(g2
g3
NtRp492
(dp493
g70
Nsg66
VJ STAT SOFTW
p494
sg68
V25
p495
sg107
(lp496
(VHUSSON
VF
tp497
asg24
I2008
sg62
V1
sbag1
(g2
g3
NtRp498
(dp499
g70
V10.1146/annurev.micro.57.030502.090938
p500
sg66
VANNU REV MICROBIOL
p501
sg68
V57
p502
sg107
(lp503
(VIMLAY
VJ A
tp504
asg24
I2003
sg62
V395
p505
sbag1
(g2
g3
NtRp506
(dp507
g70
V10.1021/bi051099v
p508
sg66
VBIOCHEMISTRY
p509
sg68
V44
p510
sg107
(lp511
(VISHIKITA
VH
tp512
asg24
I2005
sg62
V14772
p513
sbag1
(g2
g3
NtRp514
(dp515
g70
V10.1007/s00425-008-0783-4
p516
sg66
VPLANTA
p517
sg68
V228
p518
sg107
(lp519
(VJIA
VH
tp520
asg24
I2008
sg62
VLANTA
p521
sbag1
(g2
g3
NtRp522
(dp523
g70
V10.1111/j.1574-6968.2010.02054.x
p524
sg66
VFEMS MICROBIOL LETT
p525
sg68
V310
p526
sg107
(lp527
(VJIA
VY
tp528
asg24
I2010
sg62
V120
p529
sbag1
(g2
g3
NtRp530
(dp531
g70
V10.1073/pnas.102306999
p532
sg66
VP NATL ACAD SCI USA
p533
sg68
V99
p534
sg107
(lp535
(VJOLIOT
VP
tp536
asg24
I2002
sg62
V10209
p537
sbag1
(g2
g3
NtRp538
(dp539
g70
V10.1016/0198-0149(87)90002-1
p540
sg66
VDEEP
p541
sg68
V34
p542
sg107
(lp543
(VKANA
VT M
tp544
asg24
I1987
sg62
V497
p545
sbag1
(g2
g3
NtRp546
(dp547
g70
Nsg66
VLIMNOL OCEANOGR
p548
sg68
V33
p549
sg107
(lp550
(VKANA
VT M
tp551
asg24
I1988
sg62
V1623
p552
sbag1
(g2
g3
NtRp553
(dp554
g70
V10.1111/j.1365-313X.2006.02959.x
p555
sg66
VPLANT J
p556
sg68
V49
p557
sg107
(lp558
(VKANESAKI
VY
tp559
asg24
I2007
sg62
VLANT
p560
sbag1
(g2
g3
NtRp561
(dp562
g70
V10.1073/pnas.94.4.1579
p563
sg66
VP NATL ACAD SCI USA
p564
sg68
V94
p565
sg107
(lp566
(VKEREN
VN
tp567
asg24
I1997
sg62
V1579
p568
sbag1
(g2
g3
NtRp569
(dp570
g70
V10.1126/science.1113397
p571
sg66
VSCIENCE
p572
sg68
V309
p573
sg107
(lp574
(VKERFELD
VC A
tp575
asg24
I2005
sg62
V936
p576
sbag1
(g2
g3
NtRp577
(dp578
g70
V10.1007/s11120-007-9168-y
p579
sg66
VPHOTOSYNTH RES
p580
sg68
V93
p581
sg107
(lp582
(VKIRILOVSKY
VD
tp583
asg24
I2007
sg62
VHOTOSYNTH
p584
sbag1
(g2
g3
NtRp585
(dp586
g70
V10.1371/journal.pone.0011257
p587
sg66
VPLOS ONE
p588
sg68
V5
sg107
(lp589
(VKLASSEN
VJ L
tp590
asg24
I2010
sg62
VLOS
p591
sbag1
(g2
g3
NtRp592
(dp593
g70
V10.1016/S0031-9422(00)83147-7
p594
sg66
VPHYTOCHEMISTRY
p595
sg68
V24
p596
sg107
(lp597
(VKNOX
VJ P
tp598
asg24
I1985
sg62
VHYTOCHEMISTRY
p599
sbag1
(g2
g3
NtRp600
(dp601
g70
V10.1093/pcp/pch034
p602
sg66
VPLANT CELL PHYSIOL
p603
sg68
V45
p604
sg107
(lp605
(VKOBAYASHI
VM
tp606
asg24
I2004
sg62
VLANT
p607
sbag1
(g2
g3
NtRp608
(dp609
g70
V10.1111/j.1365-2958.2007.05836.x
p610
sg66
VMOL MICROBIOL
p611
sg68
V65
p612
sg107
(lp613
(VKOJIMA
VK
tp614
asg24
I2007
sg62
V936
p615
sbag1
(g2
g3
NtRp616
(dp617
g70
V10.1186/1471-2180-10-204
p618
sg66
VBMC MICROBIOL
p619
sg68
V10
p620
sg107
(lp621
(VKOLOWRAT
VC
tp622
asg24
I2010
sg62
Nsbag1
(g2
g3
NtRp623
(dp624
g70
V10.1016/j.bbabio.2010.02.006
p625
sg66
VBBA
p626
sg68
V1797
p627
sg107
(lp628
(VKOMENDA
VJ
tp629
asg24
I2010
sg62
V566
p630
sbag1
(g2
g3
NtRp631
(dp632
g70
V10.1074/jbc.M503852200
p633
sg66
VJ BIOL CHEM
p634
sg68
V281
p635
sg107
(lp636
(VKOMENDA
VJ
tp637
asg24
I2006
sg62
V1145
p638
sbag1
(g2
g3
NtRp639
(dp640
g70
Nsg66
VPHYSIOL PLANTARUM
p641
sg68
V82
p642
sg107
(lp643
(VKRUPA
VZ
tp644
asg24
I1991
sg62
VHYSIOL
p645
sbag1
(g2
g3
NtRp646
(dp647
g70
V10.1007/s11120-007-9244-3
p648
sg66
VPHOTOSYNTH RES
p649
sg68
V95
p650
sg107
(lp651
(VKUFRYK
VG
tp652
asg24
I2008
sg62
VHOTOSYNTH
p653
sbag1
(g2
g3
NtRp654
(dp655
g70
Nsg66
VMICROBIOL MOL BIOL R
p656
sg68
V63
p657
sg107
(lp658
(VKUZMINOV
VA
tp659
asg24
I1999
sg62
V751
p660
sbag1
(g2
g3
NtRp661
(dp662
g70
Nsg66
VMETHOD ENZYMOL
p663
sg68
V349
p664
sg107
(lp665
(VLANGFORD
VP R
tp666
asg24
I2002
sg62
V155
p667
sbag1
(g2
g3
NtRp668
(dp669
g70
V10.1111/j.1574-6976.2008.00134.x
p670
sg66
VFEMS MICROBIOL REV
p671
sg68
V33
p672
sg107
(lp673
(VLATIFI
VA
tp674
asg24
I2009
sg62
V258
p675
sbag1
(g2
g3
NtRp676
(dp677
g70
V10.1128/JB.187.18.6596-6598.2005
p678
sg66
VJ BACTERIOL
p679
sg68
V187
p680
sg107
(lp681
(VLATIFI
VA
tp682
asg24
I2005
sg62
V6596
p683
sbag1
(g2
g3
NtRp684
(dp685
g70
V10.1111/j.1365-3040.2005.01374.x
p686
sg66
VPLANT CELL ENVIRON
p687
sg68
V28
p688
sg107
(lp689
(VLEDFORD
VH K
tp690
asg24
I2005
sg62
VLANT
p691
sbag1
(g2
g3
NtRp692
(dp693
g70
V10.1146/annurev.physiol.68.040104.110001
p694
sg66
VANNU REV PHYSIOL
p695
sg68
V68
p696
sg107
(lp697
(VLESSER
VM P
tp698
asg24
I2006
sg62
V253
p699
sbag1
(g2
g3
NtRp700
(dp701
g70
V10.1128/JB.186.11.3331-3345.2004
p702
sg66
VJ BACTERIOL
p703
sg68
V186
p704
sg107
(lp705
(VLI
VH
tp706
asg24
I2004
sg62
V3331
p707
sbag1
(g2
g3
NtRp708
(dp709
g70
V10.1186/1471-2164-11-527
p710
sg66
VBMC GENOMICS
p711
sg68
V11
p712
sg107
(lp713
(VLI
VS
tp714
asg24
I2010
sg62
Nsbag1
(g2
g3
NtRp715
(dp716
g70
V10.1128/AEM.67.8.3340-3349.2001
p717
sg66
VAPPL ENVIRON MICROB
p718
sg68
V67
p719
sg107
(lp720
(VLINDELL
VD
tp721
asg24
I2001
sg62
V3340
p722
sbag1
(g2
g3
NtRp723
(dp724
g70
V10.1006/meth.2001.1262
p725
sg66
VMETHODS
p726
sg68
V25
p727
sg107
(lp728
(VLIVAK
VK J
tp729
asg24
I2001
sg62
V402
p730
sbag1
(g2
g3
NtRp731
(dp732
g70
V10.1146/annurev.pp.45.060194.003221
p733
sg66
VANNU REV PLANT PHYS
p734
sg68
V45
p735
sg107
(lp736
(VLONG
VS P
tp737
asg24
I1994
sg62
V633
p738
sbag1
(g2
g3
NtRp739
(dp740
g70
V10.1562/0031-8655(2004)079<0152:OMOTPI>2.0.CO;2
p741
sg66
VPHOTOCHEM PHOTOBIOL
p742
sg68
V79
p743
sg107
(lp744
(VLUPINKOVA
VL
tp745
asg24
I2004
sg62
VHOTOCHEM
p746
sbag1
(g2
g3
NtRp747
(dp748
g70
V10.1562/0031-8655(2003)077<0405:SOCARC>2.0.CO;2
p749
sg66
VPHOTOCHEM PHOTOBIOL
p750
sg68
V77
p751
sg107
(lp752
(VMACDONALD
VT M
tp753
asg24
I2003
sg62
VHOTOCHEM
p754
sbag1
(g2
g3
NtRp755
(dp756
g70
Nsg66
VAPPL ENVIRON MICROB
p757
sg68
V65
p758
sg107
(lp759
(VMARIE
VD
tp760
asg24
I1999
sg62
V45
p761
sbag1
(g2
g3
NtRp762
(dp763
g70
Nsg66
VAPPL ENVIRON MICROB
p764
sg68
V63
p765
sg107
(lp766
(VMARIE
VD
tp767
asg24
I1997
sg62
V186
p768
sbag1
(g2
g3
NtRp769
(dp770
g70
V10.1016/S0378-1097(03)00587-1
p771
sg66
VFEMS MICROBIOL LETT
p772
sg68
V226
p773
sg107
(lp774
(VMARY
VI
tp775
asg24
I2003
sg62
V135
p776
sbag1
(g2
g3
NtRp777
(dp778
g70
Nsg66
VPLANT CELL PHYSIOL
p779
sg68
V39
p780
sg107
(lp781
(VMASAMOTO
VK
tp782
asg24
I1998
sg62
VLANT
p783
sbag1
(g2
g3
NtRp784
(dp785
g70
V10.1089/ars.2006.8.753
p786
sg66
VANTIOXID REDOX SIGN
p787
sg68
V8
sg107
(lp788
(VMASIP
VL
tp789
asg24
I2006
sg62
V753
p790
sbag1
(g2
g3
NtRp791
(dp792
g70
V10.1007/s00438-003-0952-x
p793
sg66
VMOL GENET GENOMICS
p794
sg68
V271
p795
sg107
(lp796
(VMAZON
VG
tp797
asg24
I2004
sg62
V40
p798
sbag1
(g2
g3
NtRp799
(dp800
g70
V10.1371/journal.pbio.0030255
p801
sg66
VPLOS BIOL
p802
sg68
V3
sg107
(lp803
(VMICHEL
VB
tp804
asg24
I2005
sg62
VLOS
p805
sbag1
(g2
g3
NtRp806
(dp807
g70
Nsg66
VMethods Mol Biol
p808
sg68
V105
p809
sg107
(lp810
(VMILLICAN
VD S
tp811
asg24
I1998
sg62
V315
p812
sbag1
(g2
g3
NtRp813
(dp814
g70
V10.1016/S1360-1385(02)02312-9
p815
sg66
VTRENDS PLANT SCI
p816
sg68
V7
sg107
(lp817
(VMITTLER
VR
tp818
asg24
I2002
sg62
V405
p819
sbag1
(g2
g3
NtRp820
(dp821
g70
V10.1021/bi00031a025
p822
sg66
VBIOCHEMISTRY
p823
sg68
V34
p824
sg107
(lp825
(VMIYAO
VM
tp826
asg24
I1995
sg62
V10019
p827
sbag1
(g2
g3
NtRp828
(dp829
g70
V10.1016/S0378-1119(00)00413-3
p830
sg66
VGENE
p831
sg68
V258
p832
sg107
(lp833
(VMONTANE
VM H
tp834
asg24
I2000
sg62
V1
sbag1
(g2
g3
NtRp835
(dp836
g70
V10.3354/meps116259
p837
sg66
VMAR ECOL PROG SER
p838
sg68
V116
p839
sg107
(lp840
(VMOORE
VL R
tp841
asg24
I1995
sg62
V259
p842
sbag1
(g2
g3
NtRp843
(dp844
g70
V10.1017/CBO9780511535444.005
p845
sg66
VEFFECTS UV RAD MARIN
p846
sg68
Nsg107
(lp847
(VMOPPER
VK
tp848
asg24
I2000
sg62
V101
p849
sbag1
(g2
g3
NtRp850
(dp851
g70
V10.1016/j.bbabio.2006.11.019
p852
sg66
VBBA
p853
sg68
V1767
p854
sg107
(lp855
(VMURATA
VN
tp856
asg24
I2007
sg62
V414
p857
sbag1
(g2
g3
NtRp858
(dp859
g70
V10.1104/pp.51.1.104
p860
sg66
VPLANT PHYSIOL
p861
sg68
V51
p862
sg107
(lp863
(VPATTERSOCO
S''
tp864
asg24
I1973
sg62
VLANT
p865
sbag1
(g2
g3
NtRp866
(dp867
g70
V10.1093/emboj/20.20.5587
p868
sg66
VEMBO J
p869
sg68
V20
p870
sg107
(lp871
(VNISHIYAMA
VY
tp872
asg24
I2001
sg62
V5587
p873
sbag1
(g2
g3
NtRp874
(dp875
g70
V10.1016/j.bbabio.2006.05.013
p876
sg66
VBBA
p877
sg68
V1757
p878
sg107
(lp879
(VNISHIYAMA
VY
tp880
asg24
I2006
sg62
V742
p881
sbag1
(g2
g3
NtRp882
(dp883
g70
V10.1021/bi036178q
p884
sg66
VBIOCHEMISTRY
p885
sg68
V43
p886
sg107
(lp887
(VNISHIYAMA
VY
tp888
asg24
I2004
sg62
V11321
p889
sbag1
(g2
g3
NtRp890
(dp891
g70
Nsg66
VADV PHOTO RESPIRAT
p892
sg68
V22
p893
sg107
(lp894
(VNIXON
VP J
tp895
asg24
I2005
sg62
V71
p896
sbag1
(g2
g3
NtRp897
(dp898
g70
V10.1093/aob/mcq059
p899
sg66
VANN BOT
p900
sg68
V106
p901
sg107
(lp902
(VNIXON
VP J
tp903
asg24
I2010
sg62
V1
sbag1
(g2
g3
NtRp904
(dp905
g70
V10.1146/annurev.arplant.49.1.249
p906
sg66
VANNU REV PLANT PHYS
p907
sg68
V49
p908
sg107
(lp909
(VNOCTOR
VG
tp910
asg24
I1998
sg62
V249
p911
sbag1
(g2
g3
NtRp912
(dp913
g70
V10.1007/s11120-006-9128-y
p914
sg66
VPHOTOSYNTH RES
p915
sg68
V93
p916
sg107
(lp917
(VOGAWA
VT
tp918
asg24
I2007
sg62
VHOTOSYNTH
p919
sbag1
(g2
g3
NtRp920
(dp921
g70
V10.1021/bi047518q
p922
sg66
VBIOCHEMISTRY
p923
sg68
V44
p924
sg107
(lp925
(VOHNISHI
VN
tp926
asg24
I2005
sg62
V8494
p927
sbag1
(g2
g3
NtRp928
(dp929
g70
V10.1016/0005-2728(96)00015-1
p930
sg66
VBBA
p931
sg68
V1274
p932
sg107
(lp933
(VOKADA
VK
tp934
asg24
I1996
sg62
V73
p935
sbag1
(g2
g3
NtRp936
(dp937
g70
Nsg66
VPLANTA
p938
sg68
V196
p939
sg107
(lp940
(VPARK
VY I
tp941
asg24
I1995
sg62
VLANTA
p942
sbag1
(g2
g3
NtRp943
(dp944
g70
V10.1093/nar/gkl426
p945
sg66
VNUCLEIC ACIDS RES
p946
sg68
V34
p947
sg107
(lp948
(VPATTERSON-FORTIN
VL M
tp949
asg24
I2006
sg62
V3446
p950
sbag1
(g2
g3
NtRp951
(dp952
g70
V10.1016/j.bbabio.2009.05.005
p953
sg66
VBBA
p954
sg68
V1787
p955
sg107
(lp956
(VPOSPISIL
VP
tp957
asg24
I2009
sg62
V1151
p958
sbag1
(g2
g3
NtRp959
(dp960
g70
Nsg66
VR LANG ENV STAT COMP
p961
sg68
Nsg107
(lp962
(VR
VDEVELOPMENT CORE TEAM
tp963
asg24
I2009
sg62
Nsbag1
(g2
g3
NtRp964
(dp965
g70
V10.1016/j.bbrc.2010.06.006
p966
sg66
VBIOCHEM BIOPH RES CO
p967
sg68
V397
p968
sg107
(lp969
(VRASTOGI
VR P
tp970
asg24
I2010
sg62
V603
p971
sbag1
(g2
g3
NtRp972
(dp973
g70
Nsg66
VPAC S BIOCOMPUT
p974
sg68
V5
sg107
(lp975
(VRAYCHAUDHURI
VS
tp976
asg24
I2000
sg62
VAC
p977
sbag1
(g2
g3
NtRp978
(dp979
g70
V10.1016/S0981-9428(02)01405-5
p980
sg66
VPLANT PHYSIOL BIOCH
p981
sg68
V40
p982
sg107
(lp983
(VREGELSBERGER
VG
tp984
asg24
I2002
sg62
VLANT
p985
sbag1
(g2
g3
NtRp986
(dp987
g70
Nsg66
VINT J SYST EVOL MICR
p988
sg68
V50
p989
sg107
(lp990
(VRIPPKA
VR
tp991
asg24
I2000
sg62
V1833
p992
sbag1
(g2
g3
NtRp993
(dp994
g70
V10.1016/S1010-6030(98)80006-3
p995
sg66
VJ PHOTOCH PHOTOBIO A
p996
sg68
V45
p997
sg107
(lp998
(VRONCEL
VM
tp999
asg24
I1988
sg62
V341
p1000
sbag1
(g2
g3
NtRp1001
(dp1002
g70
V10.1016/j.aquatox.2006.02.007
p1003
sg66
VAQUAT TOXICOL
p1004
sg68
V78
p1005
sg107
(lp1006
(VROSS
VC
tp1007
asg24
I2006
sg62
V66
p1008
sbag1
(g2
g3
NtRp1009
(dp1010
g70
V10.1111/j.1365-2958.2010.07139.x
p1011
sg66
VMOL MICROBIOL
p1012
sg68
V76
p1013
sg107
(lp1014
(VSATO
VT
tp1015
asg24
I2010
sg62
V576
p1016
sbag1
(g2
g3
NtRp1017
(dp1018
g70
V10.1128/MMBR.00035-08
p1019
sg66
VMICROBIOL MOL BIOL R
p1020
sg68
V73
p1021
sg107
(lp1022
(VSCANLAN
VD J
tp1023
asg24
I2009
sg62
V249
p1024
sbag1
(g2
g3
NtRp1025
(dp1026
g70
V10.1016/j.jphotobiol.2004.11.007
p1027
sg66
VJ PHOTOCH PHOTOBIO B
p1028
sg68
V78
p1029
sg107
(lp1030
(VSCHAFER
VL
tp1031
asg24
I2005
sg62
V195
p1032
sbag1
(g2
g3
NtRp1033
(dp1034
g70
Nsg66
VMICROBIOL
p1035
sg68
V148
p1036
sg107
(lp1037
(VSCHELIN
VJ
tp1038
asg24
I2002
sg62
V2255
p1039
sbag1
(g2
g3
NtRp1040
(dp1041
g70
V10.1089/ars.2007.1931
p1042
sg66
VANTIOXID REDOX SIGN
p1043
sg68
V10
p1044
sg107
(lp1045
(VSCHURMANN
VP
tp1046
asg24
I2008
sg62
V1235
p1047
sbag1
(g2
g3
NtRp1048
(dp1049
g70
V10.1099/mic.0.27883-0
p1050
sg66
VMICROBIOL
p1051
sg68
V151
p1052
sg107
(lp1053
(VSCHWARZ
VR
tp1054
asg24
I2005
sg62
V2503
p1055
sbag1
(g2
g3
NtRp1056
(dp1057
g70
V10.4319/lo.2008.53.1.0255
p1058
sg66
VLIMNOL OCEANOGR
p1059
sg68
V53
p1060
sg107
(lp1061
(VSIX
VC
tp1062
asg24
I2008
sg62
V255
p1063
sbag1
(g2
g3
NtRp1064
(dp1065
g70
V10.1007/s11120-007-9170-4
p1066
sg66
VPHOTOSYNTH RES
p1067
sg68
V92
p1068
sg107
(lp1069
(VSIX
VC
tp1070
asg24
I2007
sg62
VHOTOSYNTH
p1071
sbag1
(g2
g3
NtRp1072
(dp1073
g70
V10.1371/journal.pone.0001341
p1074
sg66
VPLOS ONE
p1075
sg68
V2
sg107
(lp1076
(VSIX
VC
tp1077
asg24
I2007
sg62
VLOS
p1078
sbag1
(g2
g3
NtRp1079
(dp1080
g70
V10.3354/ame035017
p1081
sg66
VAQUAT MICROB ECOL
p1082
sg68
V35
p1083
sg107
(lp1084
(VSIX
VC
tp1085
asg24
I2004
sg62
V17
p1086
sbag1
(g2
g3
NtRp1087
(dp1088
g70
V10.1128/JB.187.5.1685-1694.2005
p1089
sg66
VJ BACTERIOL
p1090
sg68
V187
p1091
sg107
(lp1092
(VSIX
VC
tp1093
asg24
I2005
sg62
V1685
p1094
sbag1
(g2
g3
NtRp1095
(dp1096
g70
V10.1016/S1046-2023(03)00155-5
p1097
sg66
VMETHODS
p1098
sg68
V31
p1099
sg107
(lp1100
(VSMYTH
VG K
tp1101
asg24
I2003
sg62
V265
p1102
sbag1
(g2
g3
NtRp1103
(dp1104
g70
VDOI 10.2202/1544-6115.1027
p1105
sg66
VSTAT APPL GENET MOL
p1106
sg68
V3
sg107
(lp1107
(VSMYTH
VG K
tp1108
asg24
I2004
sg62
V3
sbag1
(g2
g3
NtRp1109
(dp1110
g70
V10.1007/s11120-006-9111-7
p1111
sg66
VPHOTOSYNTH RES
p1112
sg68
V90
p1113
sg107
(lp1114
(VSONG
VY G
tp1115
asg24
I2006
sg62
VHOTOSYNTH
p1116
sbag1
(g2
g3
NtRp1117
(dp1118
g70
V10.1074/jbc.M700275200
p1119
sg66
VJ BIOL CHEM
p1120
sg68
V282
p1121
sg107
(lp1122
(VSTANNE
VT M
tp1123
asg24
I2007
sg62
V14394
p1124
sbag1
(g2
g3
NtRp1125
(dp1126
g70
V10.1016/S1369-5274(99)80033-2
p1127
sg66
VCURR OPIN MICROBIOL
p1128
sg68
V2
sg107
(lp1129
(VSTORZ
VG
tp1130
asg24
I1999
sg62
V188
p1131
sbag1
(g2
g3
NtRp1132
(dp1133
g70
V10.1016/j.tplants.2008.01.005
p1134
sg66
VTRENDS PLANT SCI
p1135
sg68
V13
p1136
sg107
(lp1137
(VTAKAHASHI
VS
tp1138
asg24
I2008
sg62
V178
p1139
sbag1
(g2
g3
NtRp1140
(dp1141
g70
V10.3102/10769986027001077
p1142
sg66
VJ EDUC BEHAV STAT
p1143
sg68
V27
p1144
sg107
(lp1145
(VTHISSEN
VD
tp1146
asg24
I2002
sg62
V77
p1147
sbag1
(g2
g3
NtRp1148
(dp1149
g70
V10.1104/pp.116.4.1593
p1150
sg66
VPLANT PHYSIOL
p1151
sg68
V116
p1152
sg107
(lp1153
(VTHOMAS
VD J
tp1154
asg24
I1998
sg62
VLANT
p1155
sbag1
(g2
g3
NtRp1156
(dp1157
g70
V10.1016/S0005-2728(03)00064-1
p1158
sg66
VBBA
p1159
sg68
V1605
p1160
sg107
(lp1161
(VTICHY
VM
tp1162
asg24
I2003
sg62
V55
p1163
sbag1
(g2
g3
NtRp1164
(dp1165
g70
Nsg66
VJ BACTERIOL
p1166
sg68
V181
p1167
sg107
(lp1168
(VTICHY
VM
tp1169
asg24
I1999
sg62
V1875
p1170
sbag1
(g2
g3
NtRp1171
(dp1172
g70
Nsg66
VAPPL ENVIRON MICROB
p1173
sg68
V65
p1174
sg107
(lp1175
(VTOLEDO
VG
tp1176
asg24
I1999
sg62
V5247
p1177
sbag1
(g2
g3
NtRp1178
(dp1179
g70
V10.1073/pnas.93.5.2213
p1180
sg66
VP NATL ACAD SCI USA
p1181
sg68
V93
p1182
sg107
(lp1183
(VTYYSTJARVI
VE
tp1184
asg24
I1996
sg62
V2213
p1185
sbag1
(g2
g3
NtRp1186
(dp1187
g70
V10.1073/pnas.89.4.1408
p1188
sg66
VP NATL ACAD SCI USA
p1189
sg68
V89
p1190
sg107
(lp1191
(VVASS
VI
tp1192
asg24
I1992
sg62
V1408
p1193
sbag1
(g2
g3
NtRp1194
(dp1195
g70
V10.1016/j.tplants.2009.01.009
p1196
sg66
VTRENDS PLANT SCI
p1197
sg68
V14
p1198
sg107
(lp1199
(VVASS
VI
tp1200
asg24
I2009
sg62
V200
p1201
sbag1
(g2
g3
NtRp1202
(dp1203
g70
V10.1074/jbc.M707133200
p1204
sg66
VJ BIOL CHEM
p1205
sg68
V282
p1206
sg107
(lp1207
(VVAVILIN
VD
tp1208
asg24
I2007
sg62
V37660
p1209
sbag1
(g2
g3
NtRp1210
(dp1211
g70
V10.1104/pp.105.070490
p1212
sg66
VPLANT PHYSIOL
p1213
sg68
V141
p1214
sg107
(lp1215
(VWANG
VP
tp1216
asg24
I2006
sg62
VLANT
p1217
sbag1
(g2
g3
NtRp1218
(dp1219
g70
V10.1105/tpc.105.040121
p1220
sg66
VPLANT CELL
p1221
sg68
V18
p1222
sg107
(lp1223
(VWILSON
VA
tp1224
asg24
I2006
sg62
VLANT
p1225
sbag1
(g2
g3
NtRp1226
(dp1227
g70
Nsg66
VINST MATH S
p1228
sg68
V40
p1229
sg107
(lp1230
(VYANG
VY H
tp1231
asg24
I2003
sg62
V403
p1232
sbag1
(g2
g3
NtRp1233
(dp1234
g70
V10.1007/s00203-003-0618-4
p1235
sg66
VARCH MICROBIOL
p1236
sg68
V180
p1237
sg107
(lp1238
(VYOUSEF
VN
tp1239
asg24
I2003
sg62
V471
p1240
sbag1
(g2
g3
NtRp1241
(dp1242
g70
Nsg66
VPLANT PHYSIOL
p1243
sg68
V103
p1244
sg107
(lp1245
(VYU
VL
tp1246
asg24
I1993
sg62
VLANT
p1247
sbag1
(g2
g3
NtRp1248
(dp1249
g70
V10.1016/j.abb.2010.07.007
p1250
sg66
VARCH BIOCHEM BIOPHYS
p1251
sg68
V504
p1252
sg107
(lp1253
(VZHU
VY H
tp1254
asg24
I2010
sg62
V86
p1255
sbag1
(g2
g3
NtRp1256
(dp1257
g70
V10.1021/bi0265776
p1258
sg66
VBIOCHEMISTRY
p1259
sg68
V41
p1260
sg107
(lp1261
(VZOLLA
VL
tp1262
asg24
I2002
sg62
V14391
p1263
sbasb.