ccopy_reg
_reconstructor
p1
(ctethne.classes.paper
Paper
p2
c__builtin__
object
p3
NtRp4
(dp5
S'publisherCity'
p6
VROCKVILLE
p7
sS'reprintAddress'
p8
VSmith, AM (reprint author), John Innes Inst, Dept Metab Biol, Coloney Lane, Norwich NR4 7UH, Norfolk, England.
p9
sS'WC'
p10
VPlant Sciences
p11
sS'GA'
p12
V333WR
p13
sS'abstract'
p14
VThe fate of sucrose (Suc) supplied via the phloem to developing oilseed rape (Brassica napus) seeds has been investigated by supplying [C-14] Suc to pedicels of detached, developing siliques. The method gives high, sustained rates of lipid synthesis in developing embryos within the silique comparable with those on the intact plant. At very early developmental stages (3 d after anthesis), the liquid fraction that occupies most of the interior of the seed has a very high hexose- to- Suc ratio and [C-14] Suc entering the seeds is rapidly converted to hexoses. Between 3 and 12 d after anthesis, the hexose- to- Suc ratio of the liquid fraction of the seed remains high, but the fraction of [C-14] Suc converted to hexose falls dramatically. Instead, most of the [C-14] Suc entering the seed is rapidly converted to products in the growing embryo. These data, together with light and nuclear magnetic resonance microscopy, reveal complex compartmentation of sugar metabolism and transport within the seed during development. The bulk of the sugar in the liquid fraction of the seed is probably contained within the central vacuole of the endosperm. This sugar is not in contact with the embryo and is not on the path taken by carbon from the phloem to the embryo. These findings have important implications for the sugar switch model of embryo development and for understanding the relationship between the embryo and the surrounding endosperm.
p15
sS'pageEnd'
p16
I2130
sS'publisherAddress'
p17
V15501 MONONA DRIVE, ROCKVILLE, MD 20855 USA
p18
sS'documentType'
p19
VArticle
p20
sS'subject'
p21
VPlant Sciences
p22
sS'isoSource'
p23
VPlant Physiol.
p24
sS'timesCited'
p25
(lp26
I21
aVZ9 21
p27
asS'PT'
p28
VJ
sS'title'
p29
VThe Transport Of Sugars To Developing Embryos Is Not Via The Bulk Endosperm In Oilseed Rape Seeds
p30
sS'ISSN'
p31
(lp32
V0032-0889
p33
aVJ9 PLANT PHYSIOL
p34
asS'authors_full'
p35
(lp36
(VMORLEYSMITH
VEDWARD R
tp37
a(VPIKE
VMARILYN J
tp38
a(VFINDLAY
VKIM
tp39
a(VKOECKENBERGER
VWALTER
tp40
a(VHILL
VLIONEL M
tp41
a(VSMITH
VALISON M
tp42
a(VRAWSTHORNE
VSTEPHEN
tp43
asS'PG'
p44
I10
sS'PD'
p45
VAUG
p46
sS'pageStart'
p47
I2121
sS'issue'
p48
I4
sS'journal'
p49
VPLANT PHYSIOLOGY
p50
sS'volume'
p51
V147
p52
sS'doi'
p53
V10.1104/pp.108.124644
p54
sS'emailAddress'
p55
Valison.smith@bbsrc.ac.uk
p56
sS'authorAddress'
p57
(lp58
V[Morley-Smith, Edward R.; Pike, Marilyn J.; Hill, Lionel M.; Smith, Alison M.; Rawsthorne, Stephen] John Innes Inst, Dept Metab Biol, Norwich NR4 7UH, Norfolk, England.
p59
aV[Morley-Smith, Edward R.; Pike, Marilyn J.; Hill, Lionel M.; Smith, Alison M.; Rawsthorne, Stephen] John Innes Inst, Dept Dev Biol, Norwich NR4 7UH, Norfolk, England.
p60
aV[Koeckenberger, Walter] Univ Nottingham, Sch Phys & Astron, Sir Peter Mansfield Magnet Resonance Ctr, Nottingham NG7 2RD, England.
p61
asS'date'
p62
I2008
sS'ER'
p63
V
sS'publisher'
p64
VAMER SOC PLANT BIOLOGISTS
p65
sS'authorKeywords'
p66
(lp67
VBRASSICA-NAPUS L
p68
aVCOAT-ASSOCIATED INVERTASES
p69
aVARABIDOPSIS-THALIANA
p70
aVVICIA-FABA
p71
aVSUCROSE METABOLISM
p72
aVOXYGEN CONTROL
p73
aVEXPRESSION
p74
aVCOTYLEDONS
p75
aVSYNTHASE
p76
aVPATTERNS
p77
asS'language'
p78
VEnglish
p79
sS'wosid'
p80
VWOS:000258184800057
p81
sS'citationCount'
p82
I46
sS'authors_init'
p83
(lp84
(VMORLEYSMITH
VE R
tp85
a(VPIKE
VM J
tp86
a(VFINDLAY
VK
tp87
a(VKOECKENBERGER
VW
tp88
a(VHILL
VL M
tp89
a(VSMITH
VA M
tp90
a(VRAWSTHORNE
VS
tp91
asS'citedReferences'
p92
(lp93
g1
(g2
g3
NtRp94
(dp95
g53
V10.1073/pnas.0610278104
p96
sg49
VP NATL ACAD SCI USA
p97
sg51
V104
p98
sg83
(lp99
(VALURI
VS
tp100
asg62
I2007
sg47
V2537
p101
sbag1
(g2
g3
NtRp102
(dp103
g53
V10.1104/pp.103.027466
p104
sg49
VPLANT PHYSIOL
p105
sg51
V134
p106
sg83
(lp107
(VBATE
VN J
tp108
asg62
I2004
sg47
VLANT
p109
sbag1
(g2
g3
NtRp110
(dp111
g53
V10.1111/j.1365-313X.2005.02496.x
p112
sg49
VPLANT J
p113
sg51
V43
p114
sg83
(lp115
(VBAUD
VS
tp116
asg62
I2005
sg47
VLANT
p117
sbag1
(g2
g3
NtRp118
(dp119
g53
V10.1016/S0981-9428(01)01350-X
p120
sg49
VPLANT PHYSIOL BIOCH
p121
sg51
V40
p122
sg83
(lp123
(VBAUD
VS
tp124
asg62
I2002
sg47
VLANT
p125
sbag1
(g2
g3
NtRp126
(dp127
g53
V10.1111/j.1365-313X.2006.03011.x
p128
sg49
VPLANT J
p129
sg51
V49
p130
sg83
(lp131
(VBIENIAWSKA
VZ
tp132
asg62
I2007
sg47
VLANT
p133
sbag1
(g2
g3
NtRp134
(dp135
g53
V10.1093/jxb/erg051
p136
sg49
VJ EXP BOT
p137
sg51
V54
p138
sg83
(lp139
(VBORISJUK
VL
tp140
asg62
I2003
sg47
V503
p141
sbag1
(g2
g3
NtRp142
(dp143
g53
V10.1046/j.1365-313x.2002.01222.x
p144
sg49
VPLANT J
p145
sg51
V29
p146
sg83
(lp147
(VBORISJUK
VL
tp148
asg62
I2002
sg47
VLANT
p149
sbag1
(g2
g3
NtRp150
(dp151
g53
V10.1046/j.1365-313X.1998.00214.x
p152
sg49
VPLANT J
p153
sg51
V15
p154
sg83
(lp155
(VBORISJUK
VL
tp156
asg62
I1998
sg47
VLANT
p157
sbag1
(g2
g3
NtRp158
(dp159
g53
V10.1007/s004970050169
p160
sg49
VSEX PLANT REPROD
p161
sg51
V12
p162
sg83
(lp163
(VBROWN
VR C
tp164
asg62
I1999
sg47
V32
p165
sbag1
(g2
g3
NtRp166
(dp167
g53
V10.1111/j.1095-8339.2003.00263.x
p168
sg49
VBOT J LINN SOC
p169
sg51
V144
p170
sg83
(lp171
(VBROWN
VR C
tp172
asg62
I2004
sg47
V375
p173
sbag1
(g2
g3
NtRp174
(dp175
g53
V10.1007/s00709-003-0010-x
p176
sg49
VPROTOPLASMA
p177
sg51
V222
p178
sg83
(lp179
(VBROWN
VR C
tp180
asg62
I2003
sg47
VROTOPLASMA
p181
sbag1
(g2
g3
NtRp182
(dp183
g53
V10.1093/jxb/eri129
p184
sg49
VJ EXP BOT
p185
sg51
V56
p186
sg83
(lp187
(VCHIA
VT Y P
tp188
asg62
I2005
sg47
V1285
p189
sbag1
(g2
g3
NtRp190
(dp191
g53
V10.1104/pp.122.3.767
p192
sg49
VPLANT PHYSIOL
p193
sg51
V122
p194
sg83
(lp195
(VEASTMOND
VP J
tp196
asg62
I2000
sg47
VLANT
p197
sbag1
(g2
g3
NtRp198
(dp199
g53
Nsg49
VCAN J PLANT SCI
p200
sg51
V50
p201
sg83
(lp202
(VFOWLER
VD B
tp203
asg62
I1970
sg47
V233
p204
sbag1
(g2
g3
NtRp205
(dp206
g53
V10.1104/pp.010868
p207
sg49
VPLANT PHYSIOL
p208
sg51
V131
p209
sg83
(lp210
(VHILL
VL M
tp211
asg62
I2003
sg47
VLANT
p212
sbag1
(g2
g3
NtRp213
(dp214
g53
V10.1007/s00239-004-0242-1
p215
sg49
VJ MOL EVOL
p216
sg51
V60
p217
sg83
(lp218
(VJI
VX M
tp219
asg62
I2005
sg47
V615
p220
sbag1
(g2
g3
NtRp221
(dp222
g53
V10.1046/j.1365-313X.1994.6060795.x
p223
sg49
VPLANT J
p224
sg51
V6
sg83
(lp225
(VKANG
VF
tp226
asg62
I1994
sg47
VLANT
p227
sbag1
(g2
g3
NtRp228
(dp229
g53
Nsg49
VPLANTA
p230
sg51
V193
p231
sg83
(lp232
(VKANG
VF
tp233
asg62
I1994
sg47
VLANTA
p234
sbag1
(g2
g3
NtRp235
(dp236
g53
Nsg49
VPLANT PHYSIOL
p237
sg51
V114
p238
sg83
(lp239
(VKING
VS P
tp240
asg62
I1997
sg47
VLANT
p241
sbag1
(g2
g3
NtRp242
(dp243
g53
V10.1016/j.pbi.2004.03.014
p244
sg49
VCURR OPIN PLANT BIOL
p245
sg51
V7
sg83
(lp246
(VKOCH
VK
tp247
asg62
I2004
sg47
V235
p248
sbag1
(g2
g3
NtRp249
(dp250
g53
V10.1016/S1360-1385(01)01984-7
p251
sg49
VTRENDS PLANT SCI
p252
sg51
V6
sg83
(lp253
(VKOCKENBERGER
VW
tp254
asg62
I2001
sg47
V286
p255
sbag1
(g2
g3
NtRp256
(dp257
g53
V10.1093/jexbot/52.356.641
p258
sg49
VJ EXP BOT
p259
sg51
V52
p260
sg83
(lp261
(VKOCKENBERGER
VW
tp262
asg62
I2001
sg47
V641
p263
sbag1
(g2
g3
NtRp264
(dp265
g53
V10.1016/S1360-1385(03)00011-6
p266
sg49
VTRENDS PLANT SCI
p267
sg51
V8
sg83
(lp268
(VLEON
VP
tp269
asg62
I2003
sg47
V110
p270
sbag1
(g2
g3
NtRp271
(dp272
g53
V10.1016/j.febslet.2004.07.062
p273
sg49
VFEBS LETT
p274
sg51
V573
p275
sg83
(lp276
(VLINK
VM
tp277
asg62
I2004
sg47
V105
p278
sbag1
(g2
g3
NtRp279
(dp280
g53
V10.1139/cjb-77-10-1439
p281
sg49
VCAN J BOT
p282
sg51
V77
p283
sg83
(lp284
(VPORTERFIELD
VD M
tp285
asg62
I1999
sg47
V1439
p286
sbag1
(g2
g3
NtRp287
(dp288
g53
V10.1046/j.1365-3040.2002.00864.x
p289
sg49
VPLANT CELL ENVIRON
p290
sg51
V25
p291
sg83
(lp292
(VRAMONELL
VK M
tp293
asg62
I2002
sg47
VLANT
p294
sbag1
(g2
g3
NtRp295
(dp296
g53
V10.1093/jxb/erm154
p297
sg49
VJ EXP BOT
p298
sg51
V58
p299
sg83
(lp300
(VROLLETSCHEK
VH
tp301
asg62
I2007
sg47
V3171
p302
sbag1
(g2
g3
NtRp303
(dp304
g53
V10.1093/jexbot/53.371.1099
p305
sg49
VJ EXP BOT
p306
sg51
V53
p307
sg83
(lp308
(VROLLETSCHEK
VH
tp309
asg62
I2002
sg47
V1099
p310
sbag1
(g2
g3
NtRp311
(dp312
g53
V10.1111/j.1365-3040.2005.01477.x
p313
sg49
VPLANT CELL ENVIRON
p314
sg51
V29
p315
sg83
(lp316
(VROOK
VF
tp317
asg62
I2006
sg47
VLANT
p318
sbag1
(g2
g3
NtRp319
(dp320
g53
V10.1186/1471-2091-4-3
p321
sg49
VBMC Biochem
p322
sg51
V4
sg83
(lp323
(VSCHULZE
VWALTRAUD X
tp324
asg62
I2003
sg47
V3
sbag1
(g2
g3
NtRp325
(dp326
g53
V10.1074/jbc.M303432200
p327
sg49
VJ BIOL CHEM
p328
sg51
V278
p329
sg83
(lp330
(VSCHWENDER
VJ
tp331
asg62
I2003
sg47
V29442
p332
sbag1
(g2
g3
NtRp333
(dp334
g53
V10.1104/pp.004275
p335
sg49
VPLANT PHYSIOL
p336
sg51
V130
p337
sg83
(lp338
(VSCHWENDER
VJ
tp339
asg62
I2002
sg47
VLANT
p340
sbag1
(g2
g3
NtRp341
(dp342
g53
V10.1093/jxb/erg055
p343
sg49
VJ EXP BOT
p344
sg51
V54
p345
sg83
(lp346
(VSHERSON
VS M
tp347
asg62
I2003
sg47
V525
p348
sbag1
(g2
g3
NtRp349
(dp350
g53
V10.1242/dev.00152
p351
sg49
VDEVELOPMENT
p352
sg51
V129
p353
sg83
(lp354
(VSORENSEN
VM B
tp355
asg62
I2002
sg47
V5567
p356
sbag1
(g2
g3
NtRp357
(dp358
g53
V10.1104/pp.105.065607
p359
sg49
VPLANT PHYSIOL
p360
sg51
V139
p361
sg83
(lp362
(VSTADLER
VR
tp363
asg62
I2005
sg47
VLANT
p364
sbag1
(g2
g3
NtRp365
(dp366
g53
Nsg49
VDEVELOPMENT
p367
sg51
V128
p368
sg83
(lp369
(VTANAKA
VH
tp370
asg62
I2001
sg47
V4681
p371
sbag1
(g2
g3
NtRp372
(dp373
g53
V10.1093/jxb/erh251
p374
sg49
VJ EXP BOT
p375
sg51
V55
p376
sg83
(lp377
(VTOMLINSON
VK L
tp378
asg62
I2004
sg47
V2291
p379
sbag1
(g2
g3
NtRp380
(dp381
g53
Nsg49
VACTA SOC BOT POL
p382
sg51
V65
p383
sg83
(lp384
(VVANLAMMEREN
VA A M
tp385
asg62
I1996
sg47
V267
p386
sbag1
(g2
g3
NtRp387
(dp388
g53
V10.1104/pp.103.031963
p389
sg49
VPLANT PHYSIOL
p390
sg51
V133
p391
sg83
(lp392
(VVIGEOLAS
VH
tp393
asg62
I2003
sg47
VLANT
p394
sbag1
(g2
g3
NtRp395
(dp396
g53
Nsg49
VDYNAMIC FRAMEWORK MU
p397
sg51
Nsg83
(lp398
(VVITHA
VS
tp399
asg62
I2000
sg47
V619
p400
sbag1
(g2
g3
NtRp401
(dp402
g53
V10.1046/j.1365-313X.1996.10050823.x
p403
sg49
VPLANT J
p404
sg51
V10
p405
sg83
(lp406
(VWEBER
VH
tp407
asg62
I1996
sg47
VLANT
p408
sbag1
(g2
g3
NtRp409
(dp410
g53
V10.1105/tpc.7.11.1835
p411
sg49
VPLANT CELL
p412
sg51
V7
sg83
(lp413
(VWEBER
VH
tp414
asg62
I1995
sg47
VLANT
p415
sbag1
(g2
g3
NtRp416
(dp417
g53
V10.1146/annurev.arplant.56.032604.144201
p418
sg49
VANNU REV PLANT BIOL
p419
sg51
V56
p420
sg83
(lp421
(VWEBER
VH
tp422
asg62
I2005
sg47
V253
p423
sbag1
(g2
g3
NtRp424
(dp425
g53
V10.1016/S1360-1385(97)85222-3
p426
sg49
VTRENDS PLANT SCI
p427
sg51
V2
sg83
(lp428
(VWEBER
VH
tp429
asg62
I1997
sg47
V169
p430
sbag1
(g2
g3
NtRp431
(dp432
g53
V10.1046/j.1365-313X.1996.9060841.x
p433
sg49
VPLANT J
p434
sg51
V9
sg83
(lp435
(VWEBER
VH
tp436
asg62
I1996
sg47
VLANT
p437
sbag1
(g2
g3
NtRp438
(dp439
g53
V10.1515/BC.1999.116
p440
sg49
VBIOL CHEM
p441
sg51
V380
p442
sg83
(lp443
(VWOBUS
VU
tp444
asg62
I1999
sg47
V937
p445
sbasb.