ccopy_reg
_reconstructor
p1
(ctethne.classes.paper
Paper
p2
c__builtin__
object
p3
NtRp4
(dp5
S'publisherCity'
p6
VROCKVILLE
p7
sS'reprintAddress'
p8
VCullimore, JV (reprint author), INRA, CNRS, Lab Interact Plantes Microorganismes, Boite Postale 27, F-31326 Castanet Tolosan, France.
p9
sS'WC'
p10
VPlant Sciences
p11
sS'GA'
p12
V757BJ
p13
sS'abstract'
p14
VTo study the role of LecRK (lectin-like receptor kinase) genes in the legume-rhizobia symbiosis, we have characterized the four Medicago truncatula Gaernt. LecRK genes that are most highly expressed in roots. Three of these genes, MtLecRK7;1, MtLecRK7;2, and MtLecRK7,3, encode proteins most closely related to the Class A LecRKs of Arabidopsis, whereas the protein encoded by the fourth gene, MtLecRK1;1, is most similar to a Class B Arabidopsis LecRK. All four genes show a strongly enhanced root expression, and detailed studies on MtLecRK1;l and MtLecRK7;2 revealed that the levels of their mRNAs are increased by nitrogen starvation and transiently repressed after either rhizobial inoculation or addition of lipochitooligosaccharidic Nod factors. Studies of the MtLecRK1;1 and MtLecRK7;2 proteins, using green fluorescent protein fusions in transgenic A truncatula roots, revealed that they are located in the plasma membrane and that their central transmembrane-spanning helix is required for correct sorting. Moreover, their lectin-like domains appear to be highly glycosylated. Of the four proteins, only MtLecRK1;1 shows a high conservation of key residues implicated in monosaccharide binding, and molecular modeling revealed that this protein may be capable of interacting with Nod factors. However, no increase in Nod factor binding was found in roots overexpressing a fusion in which the kinase domain of this protein had been replaced with green fluorescent protein. Roots expressing this fusion protein however showed an increase in nodule number, suggesting that expression of MtLecRK1;1 influences nodulation. The potential role of LecRKs in the legume-rhizobia symbiosis is discussed.
p15
sS'pageEnd'
p16
I1910
sS'publisherAddress'
p17
V15501 MONONA DRIVE, ROCKVILLE, MD 20855 USA
p18
sS'documentType'
p19
VArticle
p20
sS'subject'
p21
VPlant Sciences
p22
sS'isoSource'
p23
VPlant Physiol.
p24
sS'timesCited'
p25
(lp26
I29
aVZ9 34
p27
asS'PT'
p28
VJ
sS'title'
p29
VCharacterization Of Four Lectin-Like Receptor Kinases Expressed In Roots Of Medicago Truncatula. Structure, Location, Regulation Of Expression, And Potential Role In The Symbiosis With Sinorhizobium Meliloti
p30
sS'ISSN'
p31
(lp32
V0032-0889
p33
aVJ9 PLANT PHYSIOL
p34
asS'authors_full'
p35
(lp36
(VNAVARROGOCHICOA
VMT
tp37
a(VCAMUT
VS
tp38
a(VTIMMERS
VACJ
tp39
a(VNIEBEL
VA
tp40
a(VHERVE
VC
tp41
a(VBOUTET
VE
tp42
a(VBONO
VJJ
tp43
a(VIMBERTY
VA
tp44
a(VCULLIMORE
VJV
tp45
asS'PG'
p46
I18
sS'PD'
p47
VDEC
p48
sS'pageStart'
p49
I1893
sS'issue'
p50
I4
sS'journal'
p51
VPLANT PHYSIOLOGY
p52
sS'volume'
p53
V133
p54
sS'doi'
p55
V10.1104/pp.103.027680
p56
sS'authorAddress'
p57
(lp58
VINRA, CNRS, Lab Interact Plantes Microorganismes, F-31326 Castanet Tolosan, France.
p59
aVUniv Toulouse 3, CNRS, Signaux & Messages Cellulaires Chez Vegetaux, Pole Biotechnol Vegetale, F-31326 Castanet Tolosan, France.
p60
aVUniv Grenoble 1, CNRS, Ctr Rech Macromol Vegetales, F-38041 Grenoble, France.
p61
asS'date'
p62
I2003
sS'ER'
p63
V
sS'publisher'
p64
VAMER SOC PLANT BIOLOGISTS
p65
sS'authorKeywords'
p66
(lp67
VCHITOOLIGOSACCHARIDIC NOD FACTORS
p68
aVCELL-SUSPENSION CULTURES
p69
aVBINDING-SITE
p70
aVGENE-EXPRESSION
p71
aVPLANT-LECTINS
p72
aVCARBOHYDRATE-BINDING
p73
aVSIGNAL-TRANSDUCTION
p74
aVLEGUME LECTINS
p75
aVPROTEIN
p76
aVNODULATION
p77
asS'language'
p78
VEnglish
p79
sS'wosid'
p80
VWOS:000187528700048
p81
sS'citationCount'
p82
I72
sS'authors_init'
p83
(lp84
(VNAVARROGOCHICOA
VM T
tp85
a(VCAMUT
VS
tp86
a(VTIMMERS
VA C J
tp87
a(VNIEBEL
VA
tp88
a(VHERVE
VC
tp89
a(VBOUTET
VE
tp90
a(VBONO
VJ J
tp91
a(VIMBERTY
VA
tp92
a(VCULLIMORE
VJ V
tp93
asS'citedReferences'
p94
(lp95
g1
(g2
g3
NtRp96
(dp97
g55
V10.1093/nar/25.17.3389
p98
sg51
VNUCLEIC ACIDS RES
p99
sg53
V25
p100
sg83
(lp101
(VALTSCHUL
VS F
tp102
asg62
I1997
sg49
V3389
p103
sbag1
(g2
g3
NtRp104
(dp105
g55
V10.1016/S1360-1385(99)01461-2
p106
sg51
VTRENDS PLANT SCI
p107
sg53
V4
sg83
(lp108
(VBARDOR
VM
tp109
asg62
I1999
sg49
V376
p110
sbag1
(g2
g3
NtRp111
(dp112
g55
V10.1007/BF02668879
p113
sg51
VPlant Molecular Biology Reporter
p114
sg53
V8
sg83
(lp115
(VBARKER
VD G
tp116
asg62
I1990
sg49
Vlant
p117
sbag1
(g2
g3
NtRp118
(dp119
g55
V10.1080/0735-260291044287
p120
sg51
VCRIT REV PLANT SCI
p121
sg53
V21
p122
sg83
(lp123
(VBARRE
VA
tp124
asg62
I2002
sg49
V379
p125
sbag1
(g2
g3
NtRp126
(dp127
g55
V10.1104/pp.120.4.961
p128
sg51
VPLANT PHYSIOL
p129
sg53
V120
p130
sg83
(lp131
(VBARRIEU
VF
tp132
asg62
I1999
sg49
VLANT
p133
sbag1
(g2
g3
NtRp134
(dp135
g55
V10.1093/nar/28.1.235
p136
sg51
VNUCLEIC ACIDS RES
p137
sg53
V28
p138
sg83
(lp139
(VBERMAN
VH M
tp140
asg62
I2000
sg49
V235
p141
sbag1
(g2
g3
NtRp142
(dp143
g55
V10.1111/j.1432-1033.1988.tb13917.x
p144
sg51
VEUR J BIOCHEM
p145
sg53
V172
p146
sg83
(lp147
(VBLUNDELL
VT
tp148
asg62
I1988
sg49
V513
p149
sbag1
(g2
g3
NtRp150
(dp151
g55
V10.1094/MPMI.2001.14.6.695
p152
sg51
VMOL PLANT MICROBE IN
p153
sg53
V14
p154
sg83
(lp155
(VBOISSON-DERNIER
VA
tp156
asg62
I2001
sg49
V695
p157
sbag1
(g2
g3
NtRp158
(dp159
g55
V10.1046/j.1365-313X.1995.7020253.x
p160
sg51
VPLANT J
p161
sg53
V7
sg83
(lp162
(VBONO
VJ J
tp163
asg62
I1995
sg49
VLANT
p164
sbag1
(g2
g3
NtRp165
(dp166
g55
V10.1016/S0959-440X(99)00007-X
p167
sg51
VCURR OPIN STRUC BIOL
p168
sg53
V9
sg83
(lp169
(VBOUCKAERT
VJ
tp170
asg62
I1999
sg49
V572
p171
sbag1
(g2
g3
NtRp172
(dp173
g55
V10.1105/tpc.000620
p174
sg51
VPLANT CELL
p175
sg53
V14
p176
sg83
(lp177
(VBRANDIZZI
VF
tp178
asg62
I2002
sg49
VLANT
p179
sbag1
(g2
g3
NtRp180
(dp181
g55
V10.1016/S1360-1385(96)10058-3
p182
sg51
VTRENDS PLANT SCI
p183
sg53
V2
sg83
(lp184
(VBREWIN
VN J
tp185
asg62
I1997
sg49
V92
p186
sbag1
(g2
g3
NtRp187
(dp188
g55
V10.1046/j.1365-313x.2001.00979.x
p189
sg51
VPLANT J
p190
sg53
V25
p191
sg83
(lp192
(VBRILL
VL M
tp193
asg62
I2001
sg49
VLANT
p194
sbag1
(g2
g3
NtRp195
(dp196
g55
V10.1146/annurev.mi.45.100191.002021
p197
sg51
VANNU REV MICROBIOL
p198
sg53
V45
p199
sg83
(lp200
(VCAETANOANOLLES
VG
tp201
asg62
I1991
sg49
V345
p202
sbag1
(g2
g3
NtRp203
(dp204
g55
V10.1002/jcc.540100804
p205
sg51
VJ COMPUT CHEM
p206
sg53
V10
p207
sg83
(lp208
(VCLARK
VM
tp209
asg62
I1989
sg49
V982
p210
sbag1
(g2
g3
NtRp211
(dp212
g55
V10.1016/S0955-0674(02)00305-8
p213
sg51
VCURR OPIN CELL BIOL
p214
sg53
V14
p215
sg83
(lp216
(VCOCK
VJ M
tp217
asg62
I2002
sg49
V230
p218
sbag1
(g2
g3
NtRp219
(dp220
g55
V10.1016/S1369-5266(99)80053-3
p221
sg51
VCURR OPIN PLANT BIOL
p222
sg53
V2
sg83
(lp223
(VCOOK
VD R
tp224
asg62
I1999
sg49
V301
p225
sbag1
(g2
g3
NtRp226
(dp227
g55
V10.1007/BF00016481
p228
sg51
VPLANT MOL BIOL
p229
sg53
V26
p230
sg83
(lp231
(VCOTE
VF
tp232
asg62
I1994
sg49
VLANT
p233
sbag1
(g2
g3
NtRp234
(dp235
g55
V10.1105/tpc.9.7.1211
p236
sg51
VPLANT CELL
p237
sg53
V9
sg83
(lp238
(VCREELMAN
VR A
tp239
asg62
I1997
sg49
VLANT
p240
sbag1
(g2
g3
NtRp241
(dp242
g55
V10.1016/S1360-1385(00)01810-0
p243
sg51
VTRENDS PLANT SCI
p244
sg53
V6
sg83
(lp245
(VCULLIMORE
VJ V
tp246
asg62
I2001
sg49
V24
p247
sbag1
(g2
g3
NtRp248
(dp249
g55
V10.1146/annurev.bi.65.070196.002443
p250
sg51
VANNU REV BIOCHEM
p251
sg53
V65
p252
sg83
(lp253
(VDENARIE
VJ
tp254
asg62
I1996
sg49
V503
p255
sbag1
(g2
g3
NtRp256
(dp257
g55
V10.1038/338579a0
p258
sg51
VNATURE
p259
sg53
V338
p260
sg83
(lp261
(VDIAZ
VC L
tp262
asg62
I1989
sg49
V579
p263
sbag1
(g2
g3
NtRp264
(dp265
g55
V10.1094/MPMI.2000.13.3.268
p266
sg51
VMOL PLANT MICROBE IN
p267
sg53
V13
p268
sg83
(lp269
(VDIAZ
VC L
tp270
asg62
I2000
sg49
V268
p271
sbag1
(g2
g3
NtRp272
(dp273
g55
V10.1038/420367a
p274
sg51
VNATURE
p275
sg53
V420
p276
sg83
(lp277
(VDOWNIE
VJ A
tp278
asg62
I2002
sg49
V369
p279
sbag1
(g2
g3
NtRp280
(dp281
g55
V10.1038/nature00842
p282
sg51
VNATURE
p283
sg53
V417
p284
sg83
(lp285
(VENDRE
VG
tp286
asg62
I2002
sg49
V962
p287
sbag1
(g2
g3
NtRp288
(dp289
g55
Nsg51
VPHYLIP PHYLOGENY INF
p290
sg53
Nsg83
(lp291
(VFELSENSTEIN
VJ
tp292
asg62
I1993
sg49
VHYLIP
p293
sbag1
(g2
g3
NtRp294
(dp295
g55
V10.1126/science.1060966
p296
sg51
VSCIENCE
p297
sg53
V293
p298
sg83
(lp299
(VGALIBERT
VF
tp300
asg62
I2001
sg49
V668
p301
sbag1
(g2
g3
NtRp302
(dp303
g55
V10.1094/MPMI-9-0233
p304
sg51
VMOL PLANT MICROBE IN
p305
sg53
V9
sg83
(lp306
(VGAMAS
VP
tp307
asg62
I1996
sg49
V233
p308
sbag1
(g2
g3
NtRp309
(dp310
g55
V10.1007/s10142-002-0077-z
p311
sg51
VFunct Integr Genomics
p312
sg53
V2
sg83
(lp313
(VGARCIA-HERNANDEZ
VMARGARITA
tp314
asg62
I2002
sg49
V239
p315
sbag1
(g2
g3
NtRp316
(dp317
g55
Nsg51
VPLANT CELL S
p318
sg53
Nsg83
(lp319
(VGEURTS
VR
tp320
asg62
I2002
sg49
VLANT
p321
sbag1
(g2
g3
NtRp322
(dp323
g55
V10.1094/MPMI.2002.15.8.834
p324
sg51
VMOL PLANT MICROBE IN
p325
sg53
V15
p326
sg83
(lp327
(VGRESSENT
VF
tp328
asg62
I2002
sg49
V834
p329
sbag1
(g2
g3
NtRp330
(dp331
g55
V10.1073/pnas.96.8.4704
p332
sg51
VP NATL ACAD SCI USA
p333
sg53
V96
p334
sg83
(lp335
(VGRESSENT
VF
tp336
asg62
I1999
sg49
V4704
p337
sbag1
(g2
g3
NtRp338
(dp339
g55
V10.1016/S1369-5266(00)00114-X
p340
sg51
VCURR OPIN PLANT BIOL
p341
sg53
V3
sg83
(lp342
(VHADLINGTON
VJ L
tp343
asg62
I2000
sg49
V461
p344
sbag1
(g2
g3
NtRp345
(dp346
g55
V10.1006/jmbi.1998.2534
p347
sg51
VJ MOL BIOL
p348
sg53
V286
p349
sg83
(lp350
(VHAMELRYCK
VT W
tp351
asg62
I1999
sg49
V1161
p352
sbag1
(g2
g3
NtRp353
(dp354
g55
V10.1126/science.291.5512.2364
p355
sg51
VSCIENCE
p356
sg53
V291
p357
sg83
(lp358
(VHELENIUS
VA
tp359
asg62
I2001
sg49
V2364
p360
sbag1
(g2
g3
NtRp361
(dp362
g55
V10.1023/A:1006496308160
p363
sg51
VPLANT MOL BIOL
p364
sg53
V42
p365
sg83
(lp366
(VHELLENS
VR P
tp367
asg62
I2000
sg49
VLANT
p368
sbag1
(g2
g3
NtRp369
(dp370
g55
V10.1023/A:1006136701595
p371
sg51
VPLANT MOL BIOL
p372
sg53
V39
p373
sg83
(lp374
(VHERVE
VC
tp375
asg62
I1999
sg49
VLANT
p376
sbag1
(g2
g3
NtRp377
(dp378
g55
V10.1006/jmbi.1996.0286
p379
sg51
VJ MOL BIOL
p380
sg53
V258
p381
sg83
(lp382
(VHERVE
VC
tp383
asg62
I1996
sg49
V778
p384
sbag1
(g2
g3
NtRp385
(dp386
g55
V10.1016/S1369-5266(99)80056-9
p387
sg51
VCURR OPIN PLANT BIOL
p388
sg53
V2
sg83
(lp389
(VHIRSCH
VA M
tp390
asg62
I1999
sg49
V320
p391
sbag1
(g2
g3
NtRp392
(dp393
g55
V10.1146/annurev.biochem.69.1.373
p394
sg51
VANNU REV BIOCHEM
p395
sg53
V69
p396
sg83
(lp397
(VHUBBARD
VS R
tp398
asg62
I2000
sg49
V373
p399
sbag1
(g2
g3
NtRp400
(dp401
g55
Nsg51
VPERSPECTIVES STRUCTU
p402
sg53
Nsg83
(lp403
(VIMBERTY
VA
tp404
asg62
I1999
sg49
VERSPECTIVES
p405
sbag1
(g2
g3
NtRp406
(dp407
g55
V10.1094/MPMI.2001.14.6.737
p408
sg51
VMOL PLANT MICROBE IN
p409
sg53
V14
p410
sg83
(lp411
(VJOURNET
VE P
tp412
asg62
I2001
sg49
V737
p413
sbag1
(g2
g3
NtRp414
(dp415
g55
V10.1093/nar/gkf685
p416
sg51
VNUCLEIC ACIDS RES
p417
sg53
V30
p418
sg83
(lp419
(VJOURNET
VE P
tp420
asg62
I2002
sg49
V5579
p421
sbag1
(g2
g3
NtRp422
(dp423
g55
Nsg51
VPLANT PHYSIOL
p424
sg53
V115
p425
sg83
(lp426
(VKIJNE
VJ W
tp427
asg62
I1997
sg49
VLANT
p428
sbag1
(g2
g3
NtRp429
(dp430
g55
V10.1016/S1360-1385(02)02356-7
p431
sg51
VTRENDS PLANT SCI
p432
sg53
V7
sg83
(lp433
(VKISTNER
VC
tp434
asg62
I2002
sg49
V511
p435
sbag1
(g2
g3
NtRp436
(dp437
g55
V10.1038/nature01207
p438
sg51
VNATURE
p439
sg53
V420
p440
sg83
(lp441
(VKRUSELL
VL
tp442
asg62
I2002
sg49
V422
p443
sbag1
(g2
g3
NtRp444
(dp445
g55
V10.1107/S0021889892009944
p446
sg51
VJ APPL CRYSTALLOGR
p447
sg53
V26
p448
sg83
(lp449
(VLASKOWSKI
VR A
tp450
asg62
I1993
sg49
V283
p451
sbag1
(g2
g3
NtRp452
(dp453
g55
Nsg51
VJ BIOL CHEM
p454
sg53
V269
p455
sg83
(lp456
(VLORIS
VR
tp457
asg62
I1994
sg49
V26722
p458
sbag1
(g2
g3
NtRp459
(dp460
g55
V10.1006/jmbi.2000.4016
p461
sg51
VJ MOL BIOL
p462
sg53
V301
p463
sg83
(lp464
(VLORIS
VR
tp465
asg62
I2000
sg49
V987
p466
sbag1
(g2
g3
NtRp467
(dp468
g55
V10.1016/S0304-4165(02)00309-4
p469
sg51
VBBA
p470
sg53
V1572
p471
sg83
(lp472
(VLORIS
VR
tp473
asg62
I2002
sg49
V198
p474
sbag1
(g2
g3
NtRp475
(dp476
g55
V10.1016/S0167-4838(97)00182-9
p477
sg51
VBBA
p478
sg53
V1383
p479
sg83
(lp480
(VLORIS
VR
tp481
asg62
I1998
sg49
V9
sbag1
(g2
g3
NtRp482
(dp483
g55
V10.1104/pp.102.010926
p484
sg51
VPLANT PHYSIOL
p485
sg53
V131
p486
sg83
(lp487
(VNAVARRO-GOCHICOA
VM T
tp488
asg62
I2003
sg49
VLANT
p489
sbag1
(g2
g3
NtRp490
(dp491
g55
Nsg51
VGENEDOC TOOL EDITING
p492
sg53
Nsg83
(lp493
(VNICHOLAS
VK B
tp494
asg62
I1997
sg49
Nsbag1
(g2
g3
NtRp495
(dp496
g55
Nsg51
VSubcell Biochem
p497
sg53
V29
p498
sg83
(lp499
(VNIEHAUS
VK
tp500
asg62
I1998
sg49
V73
p501
sbag1
(g2
g3
NtRp502
(dp503
g55
V10.1007/s00438-002-0683-4
p504
sg51
VMOL GENET GENOMICS
p505
sg53
V267
p506
sg83
(lp507
(VNISHIGUCHI
VM
tp508
asg62
I2002
sg49
V506
p509
sbag1
(g2
g3
NtRp510
(dp511
g55
V10.1038/nature01231
p512
sg51
VNATURE
p513
sg53
V420
p514
sg83
(lp515
(VNISHIMURA
VR
tp516
asg62
I2002
sg49
V426
p517
sbag1
(g2
g3
NtRp518
(dp519
g55
Nsg51
VCOMPUT APPL BIOSCI
p520
sg53
V12
p521
sg83
(lp522
(VPAGE
VR D M
tp523
asg62
I1996
sg49
V357
p524
sbag1
(g2
g3
NtRp525
(dp526
g55
V10.1126/science.275.5299.527
p527
sg51
VSCIENCE
p528
sg53
V275
p529
sg83
(lp530
(VPENMETSA
VR V
tp531
asg62
I1997
sg49
V527
p532
sbag1
(g2
g3
NtRp533
(dp534
g55
V10.1093/nar/29.1.159
p535
sg51
VNUCLEIC ACIDS RES
p536
sg53
V29
p537
sg83
(lp538
(VQUACKENBUSH
VJ
tp539
asg62
I2001
sg49
V159
p540
sbag1
(g2
g3
NtRp541
(dp542
g55
V10.1094/MPMI-6-699
p543
sg51
VMOL PLANT MICROBE IN
p544
sg53
V6
sg83
(lp545
(VQUANDT
VH J
tp546
asg62
I1993
sg49
V699
p547
sbag1
(g2
g3
NtRp548
(dp549
g55
V10.1093/emboj/16.8.1832
p550
sg51
VEMBO J
p551
sg53
V16
p552
sg83
(lp553
(VRAYNER
VJ C
tp554
asg62
I1997
sg49
V1832
p555
sbag1
(g2
g3
NtRp556
(dp557
g55
V10.1016/S0981-9428(02)01390-6
p558
sg51
VPLANT PHYSIOL BIOCH
p559
sg53
V40
p560
sg83
(lp561
(VRIOU
VC
tp562
asg62
I2002
sg49
VLANT
p563
sbag1
(g2
g3
NtRp564
(dp565
g55
V10.1023/A:1020687518999
p566
sg51
VGLYCOCONJUGATE J
p567
sg53
V18
p568
sg83
(lp569
(VRUDIGER
VH
tp570
asg62
I2001
sg49
V589
p571
sbag1
(g2
g3
NtRp572
(dp573
g55
V10.1126/science.1077937
p574
sg51
VSCIENCE
p575
sg53
V299
p576
sg83
(lp577
(VSEARLE
VI R
tp578
asg62
I2003
sg49
V109
p579
sbag1
(g2
g3
NtRp580
(dp581
g55
V10.1073/pnas.181141598
p582
sg51
VP NATL ACAD SCI USA
p583
sg53
V98
p584
sg83
(lp585
(VSHIU
VS H
tp586
asg62
I2001
sg49
V10763
p587
sbag1
(g2
g3
NtRp588
(dp589
g55
V10.1038/nature00841
p590
sg51
VNATURE
p591
sg53
V417
p592
sg83
(lp593
(VSTRACKE
VS
tp594
asg62
I2002
sg49
V959
p595
sbag1
(g2
g3
NtRp596
(dp597
g55
V10.1104/pp.107.1.273
p598
sg51
VPLANT PHYSIOL
p599
sg53
V107
p600
sg83
(lp601
(VSZYBIAKSTROZYCKA
VU
tp602
asg62
I1995
sg49
VLANT
p603
sbag1
(g2
g3
NtRp604
(dp605
g55
V10.1093/nar/25.24.4876
p606
sg51
VNUCLEIC ACIDS RES
p607
sg53
V25
p608
sg83
(lp609
(VTHOMPSON
VJ D
tp610
asg62
I1997
sg49
V4876
p611
sbag1
(g2
g3
NtRp612
(dp613
g55
V10.1186/1471-2229-2-1
p614
sg51
VBMC Plant Biology
p615
sg53
V2
sg83
(lp616
(VTHOQUET
VPHILIPPE
tp617
asg62
I2002
sg49
V1
sbag1
(g2
g3
NtRp618
(dp619
g55
V10.1104/pp.126.1.133
p620
sg51
VPLANT PHYSIOL
p621
sg53
V126
p622
sg83
(lp623
(VVAN
VRHIJN P
tp624
asg62
I2001
sg49
VLANT
p625
sbag1
(g2
g3
NtRp626
(dp627
g55
V10.1094/MPMI.1999.12.7.604
p628
sg51
VMOL PLANT MICROBE IN
p629
sg53
V12
p630
sg83
(lp631
(VVERNOUD
VV
tp632
asg62
I1999
sg49
V604
p633
sbag1
(g2
g3
NtRp634
(dp635
g55
Nsg51
VAdvances in Scientific Visualization
p636
sg53
Nsg83
(lp637
(VWALDHERR-TESCHNER
VM
tp638
asg62
I1992
sg49
Nsbasb.