ccopy_reg
_reconstructor
p1
(ctethne.classes.paper
Paper
p2
c__builtin__
object
p3
NtRp4
(dp5
S'publisherCity'
p6
VROCKVILLE
p7
sS'reprintAddress'
p8
VGrossman, AR (reprint author), Carnegie Inst, Dept Plant Biol, Stanford, CA 94305 USA.
p9
sS'WC'
p10
VPlant Sciences
p11
sS'GA'
p12
V899AI
p13
sS'pageEnd'
p14
I427
sS'publisherAddress'
p15
V15501 MONONA DRIVE, ROCKVILLE, MD 20855 USA
p16
sS'documentType'
p17
VReview
p18
sS'subject'
p19
VPlant Sciences
p20
sS'isoSource'
p21
VPlant Physiol.
p22
sS'timesCited'
p23
(lp24
I46
aVZ9 55
p25
asS'PT'
p26
VJ
sS'title'
p27
VPaths Toward Algal Genomics
p28
sS'ISSN'
p29
(lp30
V0032-0889
p31
aVJ9 PLANT PHYSIOL
p32
asS'authors_full'
p33
(lp34
(VGROSSMAN
VAR
tp35
asS'PG'
p36
I18
sS'PD'
p37
VFEB
p38
sS'pageStart'
p39
I410
sS'issue'
p40
I2
sS'journal'
p41
VPLANT PHYSIOLOGY
p42
sS'volume'
p43
V137
p44
sS'doi'
p45
V10.1104/pp.104.053447
p46
sS'emailAddress'
p47
Varthurg@stanford.edu
p48
sS'authorAddress'
p49
VCarnegie Inst, Dept Plant Biol, Stanford, CA 94305 USA.
p50
sS'date'
p51
I2005
sS'ER'
p52
V
sS'publisher'
p53
VAMER SOC PLANT BIOLOGISTS
p54
sS'authorKeywords'
p55
(lp56
VDIATOM PHAEODACTYLUM-TRICORNUTUM
p57
aVPHOTOSYNTHETIC ELECTRON-TRANSPORT
p58
aVSTABLE NUCLEAR TRANSFORMATION
p59
aVDOMINANT SELECTABLE MARKER
p60
aVECTOCARPUS-SILICULOSUS PHAEOPHYCEAE
p61
aVCHLAMYDOMONAS-REINHARDI DEFICIENT
p62
aVLAMINARIA-DIGITATA PHAEOPHYCEAE
p63
aVARGININOSUCCINATE LYASE GENE
p64
aVCOMPLETE NUCLEOTIDE-SEQUENCE
p65
aVCYANIDIOSCHYZON-MEROLAE 10D
p66
asS'language'
p67
VEnglish
p68
sS'wosid'
p69
VWOS:000227116900003
p70
sS'citationCount'
p71
I245
sS'authors_init'
p72
(lp73
(VGROSSMAN
VA R
tp74
asS'citedReferences'
p75
(lp76
g1
(g2
g3
NtRp77
(dp78
g45
V10.1242/jcs.00092
p79
sg41
VJ CELL SCI
p80
sg43
V115
p81
sg72
(lp82
(VAPT
VK E
tp83
asg51
I2002
sg39
V4061
p84
sbag1
(g2
g3
NtRp85
(dp86
g45
V10.1007/s004380050264
p87
sg41
VMOL GEN GENET
p88
sg43
V252
p89
sg72
(lp90
(VAPT
VK E
tp91
asg51
I1996
sg39
V572
p92
sbag1
(g2
g3
NtRp93
(dp94
g45
V10.1128/AEM.67.8.3501-3513.2001
p95
sg41
VAPPL ENVIRON MICROB
p96
sg43
V67
p97
sg72
(lp98
(VARMBRUST
VE V
tp99
asg51
I2001
sg39
V3501
p100
sbag1
(g2
g3
NtRp101
(dp102
g45
Nsg41
VAPPL ENVIRON MICROB
p103
sg43
V65
p104
sg72
(lp105
(VARMBRUST
VE V
tp106
asg51
I1999
sg39
V3121
p107
sbag1
(g2
g3
NtRp108
(dp109
g45
V10.1111/j.0022-3646.1990.00470.x
p110
sg41
VJ PHYCOL
p111
sg43
V26
p112
sg72
(lp113
(VARMBRUST
VE V
tp114
asg51
I1990
sg39
V470
p115
sbag1
(g2
g3
NtRp116
(dp117
g45
V10.1126/science.1101156
p118
sg41
VSCIENCE
p119
sg43
V306
p120
sg72
(lp121
(VARMBRUST
VE V
tp122
asg51
I2004
sg39
V79
p123
sbag1
(g2
g3
NtRp124
(dp125
g45
Nsg41
VGENETICS
p126
sg43
V148
p127
sg72
(lp128
(VASLESON
VC M
tp129
asg51
I1998
sg39
V693
p130
sbag1
(g2
g3
NtRp131
(dp132
g45
V10.1073/pnas.252500999
p133
sg41
VP NATL ACAD SCI USA
p134
sg43
V99
p135
sg72
(lp136
(VASPINALL-O'DEA
VM
tp137
asg51
I2002
sg39
V16331
p138
sbag1
(g2
g3
NtRp139
(dp140
g45
Nsg41
VMOL GEN GENET
p141
sg43
V261
p142
sg72
(lp143
(VAUCHINCLOSS
VA H
tp144
asg51
I1999
sg39
V21
p145
sbag1
(g2
g3
NtRp146
(dp147
g45
V10.1078/1434461000165
p148
sg41
VPROTIST
p149
sg43
V155
p150
sg72
(lp151
(VBACHVAROFF
VT R
tp152
asg51
I2004
sg39
VROTIST
p153
sbag1
(g2
g3
NtRp154
(dp155
g45
V10.1038/35081051
p156
sg41
VNATURE
p157
sg43
V411
p158
sg72
(lp159
(VBEJA
VO
tp160
asg51
I2001
sg39
V786
p161
sbag1
(g2
g3
NtRp162
(dp163
g45
V10.1104/pp.42.9.1284
p164
sg41
VPLANT PHYSIOL
p165
sg43
V42
p166
sg72
(lp167
(VBENNOUN
VP
tp168
asg51
I1967
sg39
VLANT
p169
sbag1
(g2
g3
NtRp170
(dp171
g45
V10.1093/glycob/cwg058
p172
sg41
VGLYCOBIOLOGY
p173
sg43
V13
p174
sg72
(lp175
(VBERTEAU
VO
tp176
asg51
I2003
sg39
V29R
p177
sbag1
(g2
g3
NtRp178
(dp179
g45
V10.1128/AEM.69.9.5519-5529.2003
p180
sg41
VAPPL ENVIRON MICROB
p181
sg43
V69
p182
sg72
(lp183
(VBIEGALA
VI C
tp184
asg51
I2003
sg39
V5519
p185
sbag1
(g2
g3
NtRp186
(dp187
g45
Nsg41
VMOL ECOL
p188
sg43
V7
sg72
(lp189
(VBILLOT
VC
tp190
asg51
I1998
sg39
V1778
p191
sbag1
(g2
g3
NtRp192
(dp193
g45
V10.1126/science.2897716
p194
sg41
VSCIENCE
p195
sg43
V240
p196
sg72
(lp197
(VBOYNTON
VJ E
tp198
asg51
I1988
sg39
V1534
p199
sbag1
(g2
g3
NtRp200
(dp201
g45
V10.1006/scdb.1997.0212
p202
sg41
VSEMIN CELL DEV BIOL
p203
sg43
V9
sg72
(lp204
(VBROWNLEE
VC
tp205
asg51
I1998
sg39
V179
p206
sbag1
(g2
g3
NtRp207
(dp208
g45
V10.1016/S0278-5846(00)00112-3
p209
sg41
VPROG NEURO
p210
sg43
V24
p211
sg72
(lp212
(VBRUNELLI
VM
tp213
asg51
I2000
sg39
VROG
p214
sbag1
(g2
g3
NtRp215
(dp216
g45
V10.1021/bi0349468
p217
sg41
VBIOCHEMISTRY
p218
sg43
V42
p219
sg72
(lp220
(VBUCHEL
VC
tp221
asg51
I2003
sg39
V13027
p222
sbag1
(g2
g3
NtRp223
(dp224
g45
V10.1105/tpc.11.9.1675
p225
sg41
VPLANT CELL
p226
sg43
V11
p227
sg72
(lp228
(VBURGER
VG
tp229
asg51
I1999
sg39
VLANT
p230
sbag1
(g2
g3
NtRp231
(dp232
g45
V10.1666/0094-8373(2000)026<0386:BPNGNS>2.0.CO;2
p233
sg41
VPALEOBIOLOGY
p234
sg43
V26
p235
sg72
(lp236
(VBUTTERFIELD
VN J
tp237
asg51
I2000
sg39
VALEOBIOLOGY
p238
sbag1
(g2
g3
NtRp239
(dp240
g45
V10.1038/334424a0
p241
sg41
VNATURE
p242
sg43
V334
p243
sg72
(lp244
(VBUTTERFIELD
VN J
tp245
asg51
I1988
sg39
V424
p246
sbag1
(g2
g3
NtRp247
(dp248
g45
V10.2216/i0031-8884-19-1-25.1
p249
sg41
VPHYCOLOGIA
p250
sg43
V19
p251
sg72
(lp252
(VCAMPBELL
VS E
tp253
asg51
I1980
sg39
VHYCOLOGIA
p254
sbag1
(g2
g3
NtRp255
(dp256
g45
V10.1016/S1360-1385(00)01598-3
p257
sg41
VTRENDS PLANT SCI
p258
sg43
V5
sg72
(lp259
(VCAVALIER-SMITH
VT
tp260
asg51
I2000
sg39
V174
p261
sbag1
(g2
g3
NtRp262
(dp263
g45
Nsg41
VPERSPECT BIOL MED
p264
sg43
V39
p265
sg72
(lp266
(VCHAMBERLAIN
VJ G
tp267
asg51
I1996
sg39
VERSPECT
p268
sbag1
(g2
g3
NtRp269
(dp270
g45
Nsg41
VChin J Biotechnol
p271
sg43
V8
sg72
(lp272
(VCHEN
VC
tp273
asg51
I1992
sg39
V33
p274
sbag1
(g2
g3
NtRp275
(dp276
g45
V10.1515/botm.1995.38.1-6.335
p277
sg41
VBOT MAR
p278
sg43
V38
p279
sg72
(lp280
(VCHEN
VL C M
tp281
asg51
I1995
sg39
V335
p282
sbag1
(g2
g3
NtRp283
(dp284
g45
Nsg41
VJournal of Phycology
p285
sg43
V37
p286
sg72
(lp287
(VCHENEY
VD
tp288
asg51
I2001
sg39
V11
p289
sbag1
(g2
g3
NtRp290
(dp291
g45
Nsg41
VWORLD AQUACULTURE
p292
sg43
V30
p293
sg72
(lp294
(VCHENEY
VD P
tp295
asg51
I1999
sg39
V55
p296
sbag1
(g2
g3
NtRp297
(dp298
g45
V10.1093/molbev/msh002
p299
sg41
VMOL BIOL EVOL
p300
sg43
V21
p301
sg72
(lp302
(VCHU
VK H
tp303
asg51
I2004
sg39
V200
p304
sbag1
(g2
g3
NtRp305
(dp306
g45
V10.1111/j.1365-294X.2004.02180.x
p307
sg41
VMOL ECOL
p308
sg43
V13
p309
sg72
(lp310
(VCINIGLIA
VC
tp311
asg51
I2004
sg39
V1827
p312
sbag1
(g2
g3
NtRp313
(dp314
g45
V10.1016/S0065-2881(03)46004-5
p315
sg41
VADV MAR BIOL
p316
sg43
V46
p317
sg72
(lp318
(VCOLES
VS L
tp319
asg51
I2003
sg39
V183
p320
sbag1
(g2
g3
NtRp321
(dp322
g45
Nsg41
VBIOMINERALIZATION LO
p323
sg43
V30
p324
sg72
(lp325
(VCRAWFORD
VR M
tp326
asg51
I1986
sg39
Nsbag1
(g2
g3
NtRp327
(dp328
g45
V10.1023/A:1006489920808
p329
sg41
VPLANT MOL BIOL
p330
sg43
V43
p331
sg72
(lp332
(VCREPINEAU
VF
tp333
asg51
I2000
sg39
VLANT
p334
sbag1
(g2
g3
NtRp335
(dp336
g45
V10.1016/S1364-6613(98)01265-0
p337
sg41
VTRENDS COGN SCI
p338
sg43
V3
sg72
(lp339
(VDAVIDSON
VR J
tp340
asg51
I1999
sg39
V11
p341
sbag1
(g2
g3
NtRp342
(dp343
g45
V10.1093/nar/20.12.2959
p344
sg41
VNUCLEIC ACIDS RES
p345
sg43
V20
p346
sg72
(lp347
(VDAVIES
VJ P
tp348
asg51
I1992
sg39
V2959
p349
sbag1
(g2
g3
NtRp350
(dp351
g45
Nsg41
VEMBO J
p352
sg43
V15
p353
sg72
(lp354
(VDAVIES
VJ P
tp355
asg51
I1996
sg39
V2150
p356
sbag1
(g2
g3
NtRp357
(dp358
g45
Nsg41
VPLANT CELL
p359
sg43
V6
sg72
(lp360
(VDAVIES
VJ P
tp361
asg51
I1994
sg39
VLANT
p362
sbag1
(g2
g3
NtRp363
(dp364
g45
Nsg41
VEMBO J
p365
sg43
V8
sg72
(lp366
(VDEBUCHY
VR
tp367
asg51
I1989
sg39
V2803
p368
sbag1
(g2
g3
NtRp369
(dp370
g45
Nsg41
VJ GEN VIROL
p371
sg43
V80
p372
sg72
(lp373
(VDELAROQUE
VN
tp374
asg51
I1999
sg39
V1367
p375
sbag1
(g2
g3
NtRp376
(dp377
g45
V10.1006/viro.2001.1028
p378
sg41
VVIROLOGY
p379
sg43
VIROLOGY
p380
sg72
(lp381
(VDELAROQUE
VN
tp382
asg51
I2001
sg39
V112
p383
sbag1
(g2
g3
NtRp384
(dp385
g45
Nsg41
VP NATL ACAD SCI USA
p386
sg43
V10
p387
sg72
(lp388
(VDELATORRE
VJ R
tp389
asg51
I2003
sg39
V12830
p390
sbag1
(g2
g3
NtRp391
(dp392
g45
Nsg41
VPlant Systematics and Evolution Supplement
p393
sg43
V11
p394
sg72
(lp395
(VDELWICHE
VCHARLES F
tp396
asg51
I1997
sg39
Vlant
p397
sbag1
(g2
g3
NtRp398
(dp399
g45
V10.1046/j.1432-1327.2000.01616.x
p400
sg41
VEUR J BIOCHEM
p401
sg43
V267
p402
sg72
(lp403
(VDE
VMARTINO A
tp404
asg51
I2000
sg39
V5540
p405
sbag1
(g2
g3
NtRp406
(dp407
g45
V10.1016/S1360-1385(01)02018-0
p408
sg41
VTRENDS PLANT SCI
p409
sg43
V6
sg72
(lp410
(VDENT
VR M
tp411
asg51
I2001
sg39
V364
p412
sbag1
(g2
g3
NtRp413
(dp414
g45
V10.1046/j.1529-8817.2002.02021.x
p415
sg41
VJ PHYCOL
p416
sg43
V38
p417
sg72
(lp418
(VDERELLE
VE
tp419
asg51
I2002
sg39
V1150
p420
sbag1
(g2
g3
NtRp421
(dp422
g45
V10.1073/pnas.87.15.5739
p423
sg41
VP NATL ACAD SCI USA
p424
sg43
V87
p425
sg72
(lp426
(VDIENER
VD R
tp427
asg51
I1990
sg39
V5739
p428
sbag1
(g2
g3
NtRp429
(dp430
g45
V10.1128/AEM.67.7.2932-2941.2001
p431
sg41
VAPPL ENVIRON MICROB
p432
sg43
V67
p433
sg72
(lp434
(VDIEZ
VB
tp435
asg51
I2001
sg39
V2932
p436
sbag1
(g2
g3
NtRp437
(dp438
g45
V10.1038/35074092
p439
sg41
VNATURE
p440
sg43
V410
p441
sg72
(lp442
(VDOUGLAS
VS
tp443
asg51
I2001
sg39
V1091
p444
sbag1
(g2
g3
NtRp445
(dp446
g45
V10.1007/PL00006462
p447
sg41
VJ MOL EVOL
p448
sg43
V48
p449
sg72
(lp450
(VDOUGLAS
VS E
tp451
asg51
I1999
sg39
V236
p452
sbag1
(g2
g3
NtRp453
(dp454
g45
V10.1016/j.biomaterials.2003.10.002
p455
sg41
VBIOMATERIALS
p456
sg43
V25
p457
sg72
(lp458
(VDRURY
VJ L
tp459
asg51
I2004
sg39
V3187
p460
sbag1
(g2
g3
NtRp461
(dp462
g45
V10.1111/j.0022-3646.1995.01004.x
p463
sg41
VJ PHYCOL
p464
sg43
V31
p465
sg72
(lp466
(VDUNAHAY
VT G
tp467
asg51
I1995
sg39
V1004
p468
sbag1
(g2
g3
NtRp469
(dp470
g45
V10.1016/S0168-9525(00)89123-4
p471
sg41
VTRENDS GENET
p472
sg43
V11
p473
sg72
(lp474
(VDUTCHER
VS K
tp475
asg51
I1995
sg39
V398
p476
sbag1
(g2
g3
NtRp477
(dp478
g45
V10.1111/j.1550-7408.2000.tb00059.x
p479
sg41
VJ EUKARYOT MICROBIOL
p480
sg43
V47
p481
sg72
(lp482
(VDUTCHER
VS K
tp483
asg51
I2000
sg39
V340
p484
sbag1
(g2
g3
NtRp485
(dp486
g45
V10.1016/S0091-679X(08)60826-2
p487
sg41
VMETHOD CELL BIOL
p488
sg43
V47
p489
sg72
(lp490
(VDUTCHER
VS K
tp491
asg51
I1995
sg39
V323
p492
sbag1
(g2
g3
NtRp493
(dp494
g45
V10.1007/s00294-003-0460-x
p495
sg41
VCURR GENET
p496
sg43
V45
p497
sg72
(lp498
(VELRAD
VD
tp499
asg51
I2004
sg39
V61
p500
sbag1
(g2
g3
NtRp501
(dp502
g45
V10.1007/PL00011773
p503
sg41
VMAR BIOTECHNOL
p504
sg43
V1
sg72
(lp505
(VFALCIATORE
VA
tp506
asg51
I1999
sg39
V239
p507
sbag1
(g2
g3
NtRp508
(dp509
g45
V10.1126/science.288.5475.2363
p510
sg41
VSCIENCE
p511
sg43
V288
p512
sg72
(lp513
(VFALCIATORE
VA
tp514
asg51
I2000
sg39
V2363
p515
sbag1
(g2
g3
NtRp516
(dp517
g45
V10.1016/j.sbi.2003.09.001
p518
sg41
VCURR OPIN STRUC BIOL
p519
sg43
V13
p520
sg72
(lp521
(VFEIZI
VT
tp522
asg51
I2003
sg39
V602
p523
sbag1
(g2
g3
NtRp524
(dp525
g45
V10.1073/pnas.86.17.6449
p526
sg41
VP NATL ACAD SCI USA
p527
sg43
V86
p528
sg72
(lp529
(VFERNANDEZ
VE
tp530
asg51
I1989
sg39
V6449
p531
sbag1
(g2
g3
NtRp532
(dp533
g45
V10.1016/S0005-2728(99)00089-4
p534
sg41
VBBA
p535
sg43
V1413
p536
sg72
(lp537
(VFINAZZI
VG
tp538
asg51
I1999
sg39
V117
p539
sbag1
(g2
g3
NtRp540
(dp541
g45
V10.1021/bi962244v
p542
sg41
VBIOCHEMISTRY
p543
sg43
V36
p544
sg72
(lp545
(VFISCHER
VN
tp546
asg51
I1997
sg39
V93
p547
sbag1
(g2
g3
NtRp548
(dp549
g45
Nsg41
VGENETICS ALGAE
p550
sg43
Nsg72
(lp551
(VFJELD
VA
tp552
asg51
I1976
sg39
V219
p553
sbag1
(g2
g3
NtRp554
(dp555
g45
V10.1007/s00248-003-2035-2
p556
sg41
VMICROB ECOL
p557
sg43
V48
p558
sg72
(lp559
(VFOUILLAND
VE
tp560
asg51
I2004
sg39
V103
p561
sbag1
(g2
g3
NtRp562
(dp563
g45
Nsg41
V10 INT CHLAM C JUN V
p564
sg43
Nsg72
(lp565
(VFUHRMANN
VM
tp566
asg51
I2002
sg39
Nsbag1
(g2
g3
NtRp567
(dp568
g45
V10.1046/j.1365-313X.1999.00526.x
p569
sg41
VPLANT J
p570
sg43
V19
p571
sg72
(lp572
(VFUHRMANN
VM
tp573
asg51
I1999
sg39
VLANT
p574
sbag1
(g2
g3
NtRp575
(dp576
g45
V10.1104/pp.114.1.237
p577
sg41
VPLANT PHYSIOL
p578
sg43
V114
p579
sg72
(lp580
(VFUNKE
VR P
tp581
asg51
I1997
sg39
VLANT
p582
sbag1
(g2
g3
NtRp583
(dp584
g45
V10.1104/pp.42.9.1264
p585
sg41
VPLANT PHYSIOL
p586
sg43
V42
p587
sg72
(lp588
(VGIVAN
VA L
tp589
asg51
I1967
sg39
VLANT
p590
sbag1
(g2
g3
NtRp591
(dp592
g45
Nsg41
VJ MOL EVOL
p593
sg43
V51
p594
sg72
(lp595
(VGLOCKNER
VG
tp596
asg51
I2000
sg39
V382
p597
sbag1
(g2
g3
NtRp598
(dp599
g45
Nsg41
VPLANT CELL
p600
sg43
V7
sg72
(lp601
(VGOFF
VL J
tp602
asg51
I1995
sg39
VLANT
p603
sbag1
(g2
g3
NtRp604
(dp605
g45
V10.1093/nar/19.15.4083
p606
sg41
VNUCLEIC ACIDS RES
p607
sg43
V19
p608
sg72
(lp609
(VGOLDSCHMIDTCLERMONT
VM
tp610
asg51
I1991
sg39
V4083
p611
sbag1
(g2
g3
NtRp612
(dp613
g45
V10.1073/pnas.54.6.1665
p614
sg41
VP NATL ACAD SCI USA
p615
sg43
V54
p616
sg72
(lp617
(VGORMAN
VD S
tp618
asg51
I1965
sg39
V1665
p619
sbag1
(g2
g3
NtRp620
(dp621
g45
Nsg41
VALGAE
p622
sg43
Nsg72
(lp623
(VGRAHAM
VL
tp624
asg51
I2000
sg39
Nsbag1
(g2
g3
NtRp625
(dp626
g45
V10.1016/S1369-5266(99)00053-9
p627
sg41
VCURR OPIN PLANT BIOL
p628
sg43
V3
sg72
(lp629
(VGROSSMAN
VA R
tp630
asg51
I2000
sg39
V132
p631
sbag1
(g2
g3
NtRp632
(dp633
g45
V10.1128/EC.2.6.1137-1150.2003
p634
sg41
VEUKARYOT CELL
p635
sg43
V2
sg72
(lp636
(VGROSSMAN
VA R
tp637
asg51
I2003
sg39
V1137
p638
sbag1
(g2
g3
NtRp639
(dp640
g45
V10.1078/143446104774199592
p641
sg41
VPROTIST
p642
sg43
V155
p643
sg72
(lp644
(VGUILLOU
VL
tp645
asg51
I2004
sg39
VROTIST
p646
sbag1
(g2
g3
NtRp647
(dp648
g45
V10.1104/pp.104.041491
p649
sg41
VPLANT PHYSIOL
p650
sg43
V135
p651
sg72
(lp652
(VGUTMAN
VB L
tp653
asg51
I2004
sg39
VLANT
p654
sbag1
(g2
g3
NtRp655
(dp656
g45
V10.1016/j.cub.2004.01.032
p657
sg41
VCURR BIOL
p658
sg43
V14
p659
sg72
(lp660
(VHACKETT
VJ D
tp661
asg51
I2004
sg39
V213
p662
sbag1
(g2
g3
NtRp663
(dp664
g45
V10.1007/BF00020438
p665
sg41
VPHOTOSYNTH RES
p666
sg43
V46
p667
sg72
(lp668
(VHALLAHAN
VB J
tp669
asg51
I1995
sg39
VHOTOSYNTH
p670
sbag1
(g2
g3
NtRp671
(dp672
g45
V10.1093/nar/21.15.3537
p673
sg41
VNUCLEIC ACIDS RES
p674
sg43
V21
p675
sg72
(lp676
(VHALLICK
VR B
tp677
asg51
I1993
sg39
V3537
p678
sbag1
(g2
g3
NtRp679
(dp680
g45
V10.1146/annurev.arplant.52.1.363
p681
sg41
VANNU REV PLANT PHYS
p682
sg43
V52
p683
sg72
(lp684
(VHARRIS
VE H
tp685
asg51
I2001
sg39
V363
p686
sbag1
(g2
g3
NtRp687
(dp688
g45
Nsg41
VCHALMYDOMONAS SOURCE
p689
sg43
Nsg72
(lp690
(VHARRIS
VE H
tp691
asg51
I1989
sg39
Nsbag1
(g2
g3
NtRp692
(dp693
g45
V10.1080/1364253031000136321
p694
sg41
VEUR J PHYCOL
p695
sg43
V38
p696
sg72
(lp697
(VHAYDEN
VH S
tp698
asg51
I2003
sg39
V277
p699
sbag1
(g2
g3
NtRp700
(dp701
g45
Nsg41
VJ BIOL CHEM
p702
sg43
V276
p703
sg72
(lp704
(VHE
VQ F
tp705
asg51
I2001
sg39
V306
p706
sbag1
(g2
g3
NtRp707
(dp708
g45
V10.1186/1471-2229-4-3
p709
sg41
VBMC Plant Biology
p710
sg43
V4
sg72
(lp711
(VHENRY
VISABELLE M
tp712
asg51
I2004
sg39
V3
sbag1
(g2
g3
NtRp713
(dp714
g45
Nsg41
VMOL CELL BIOL
p715
sg43
V19
p716
sg72
(lp717
(VHIGGS
VD C
tp718
asg51
I1999
sg39
V8479
p719
sbag1
(g2
g3
NtRp720
(dp721
g45
Nsg41
VMOL GEN GENET
p722
sg43
V260
p723
sg72
(lp724
(VHILDEBRAND
VM
tp725
asg51
I1998
sg39
V480
p726
sbag1
(g2
g3
NtRp727
(dp728
g45
V10.1038/385688b0
p729
sg41
VNATURE
p730
sg43
V385
p731
sg72
(lp732
(VHILDEBRAND
VM
tp733
asg51
I1997
sg39
V688
p734
sbag1
(g2
g3
NtRp735
(dp736
g45
Nsg41
VPROG MOLEC
p737
sg43
V33
p738
sg72
(lp739
(VHILDEBRAND
VM
tp740
asg51
I2003
sg39
VROG
p741
sbag1
(g2
g3
NtRp742
(dp743
g45
Nsg41
VPLANT PHYSIOL
p744
sg43
V106
p745
sg72
(lp746
(VHONG
VS J
tp747
asg51
I1994
sg39
VLANT
p748
sbag1
(g2
g3
NtRp749
(dp750
g45
V10.1006/bbrc.2000.2601
p751
sg41
VBIOCHEM BIOPH RES CO
p752
sg43
V271
p753
sg72
(lp754
(VIGARASHI
VK
tp755
asg51
I2000
sg39
V559
p756
sbag1
(g2
g3
NtRp757
(dp758
g45
V10.1023/A:1022800630430
p759
sg41
VPHOTOSYNTH RES
p760
sg43
V75
p761
sg72
(lp762
(VIM
VC S
tp763
asg51
I2003
sg39
VHOTOSYNTH
p764
sbag1
(g2
g3
NtRp765
(dp766
g45
V10.1007/BF00040834
p767
sg41
VPLANT MOL BIOL
p768
sg43
V31
p769
sg72
(lp770
(VJACOBSHAGEN
VS
tp771
asg51
I1996
sg39
VLANT
p772
sbag1
(g2
g3
NtRp773
(dp774
g45
V10.1073/pnas.022392999
p775
sg41
VP NATL ACAD SCI USA
p776
sg43
V99
p777
sg72
(lp778
(VJEONG
VB R
tp779
asg51
I2002
sg39
V1076
p780
sbag1
(g2
g3
NtRp781
(dp782
g45
V10.1073/pnas.95.14.8046
p783
sg41
VP NATL ACAD SCI USA
p784
sg43
V95
p785
sg72
(lp786
(VJING
VJ P
tp787
asg51
I1998
sg39
V8046
p788
sbag1
(g2
g3
NtRp789
(dp790
g45
V10.2216/i0031-8884-30-5-458.1
p791
sg41
VPHYCOLOGIA
p792
sg43
V30
p793
sg72
(lp794
(VKAPRAUN
VD F
tp795
asg51
I1991
sg39
VHYCOLOGIA
p796
sbag1
(g2
g3
NtRp797
(dp798
g45
V10.1126/science.1065156
p799
sg41
VSCIENCE
p800
sg43
V294
p801
sg72
(lp802
(VKAROL
VK G
tp803
asg51
I2001
sg39
V2351
p804
sbag1
(g2
g3
NtRp805
(dp806
g45
V10.1128/EC.2.2.362.379.2003
p807
sg41
VEUKARYOT CELL
p808
sg43
V2
sg72
(lp809
(VKATHIR
VP
tp810
asg51
I2003
sg39
V362
p811
sbag1
(g2
g3
NtRp812
(dp813
g45
Nsg41
VCELL CYCLE
p814
sg43
V3
sg72
(lp815
(VKHADAROO
VB
tp816
asg51
I2004
sg39
V513
p817
sbag1
(g2
g3
NtRp818
(dp819
g45
V10.1073/pnas.87.3.1228
p820
sg41
VP NATL ACAD SCI USA
p821
sg43
V87
p822
sg72
(lp823
(VKINDLE
VK L
tp824
asg51
I1990
sg39
V1228
p825
sbag1
(g2
g3
NtRp826
(dp827
g45
V10.1083/jcb.109.6.2589
p828
sg41
VJ CELL BIOL
p829
sg43
V109
p830
sg72
(lp831
(VKINDLE
VK L
tp832
asg51
I1989
sg39
V2589
p833
sbag1
(g2
g3
NtRp834
(dp835
g45
V10.1073/pnas.052327599
p836
sg41
VP NATL ACAD SCI USA
p837
sg43
V99
p838
sg72
(lp839
(VKOMINE
VY
tp840
asg51
I2002
sg39
V4085
p841
sbag1
(g2
g3
NtRp842
(dp843
g45
V10.1083/jcb.137.5.1069
p844
sg41
VJ CELL BIOL
p845
sg43
V137
p846
sg72
(lp847
(VKOUTOULIS
VA
tp848
asg51
I1997
sg39
V1069
p849
sbag1
(g2
g3
NtRp850
(dp851
g45
V10.1046/j.1365-313x.2002.01193.x
p852
sg41
VPLANT J
p853
sg43
V29
p854
sg72
(lp855
(VKOVAR
VJ L
tp856
asg51
I2002
sg39
VLANT
p857
sbag1
(g2
g3
NtRp858
(dp859
g45
V10.1007/BF00174043
p860
sg41
VJ MOL EVOL
p861
sg43
V41
p862
sg72
(lp863
(VKRANZ
VH D
tp864
asg51
I1995
sg39
V74
p865
sbag1
(g2
g3
NtRp866
(dp867
g45
V10.1126/science.286.5442.1129
p868
sg41
VSCIENCE
p869
sg43
V286
p870
sg72
(lp871
(VKROGER
VN
tp872
asg51
I1999
sg39
V1129
p873
sbag1
(g2
g3
NtRp874
(dp875
g45
V10.1126/science.1076221
p876
sg41
VSCIENCE
p877
sg43
V298
p878
sg72
(lp879
(VKROGER
VN
tp880
asg51
I2002
sg39
V584
p881
sbag1
(g2
g3
NtRp882
(dp883
g45
V10.1073/pnas.260496497
p884
sg41
VP NATL ACAD SCI USA
p885
sg43
V97
p886
sg72
(lp887
(VKROGER
VN
tp888
asg51
I2000
sg39
V14133
p889
sbag1
(g2
g3
NtRp890
(dp891
g45
V10.1016/S0074-7696(08)60415-5
p892
sg41
VINT REV CYTOL
p893
sg43
V181
p894
sg72
(lp895
(VKUROIWA
VT
tp896
asg51
I1998
sg39
V1
sbag1
(g2
g3
NtRp897
(dp898
g45
Nsg41
VJ ELECTRON MICROSC
p899
sg43
V49
p900
sg72
(lp901
(VKUROIWA
VT
tp902
asg51
I2000
sg39
V123
p903
sbag1
(g2
g3
NtRp904
(dp905
g45
V10.1128/EC.1.5.736-757.2002
p906
sg41
VEUKARYOT CELL
p907
sg43
V1
sg72
(lp908
(VLA
VFONTAINE S
tp909
asg51
I2002
sg39
V736
p910
sbag1
(g2
g3
NtRp911
(dp912
g45
Nsg41
VJ BIOL CHEM
p913
sg43
V272
p914
sg72
(lp915
(VLARDANS
VA
tp916
asg51
I1997
sg39
V210
p917
sbag1
(g2
g3
NtRp918
(dp919
g45
V10.1074/jbc.272.27.17033
p920
sg41
VJ BIOL CHEM
p921
sg43
V272
p922
sg72
(lp923
(VLARSON
VE M
tp924
asg51
I1997
sg39
V17033
p925
sbag1
(g2
g3
NtRp926
(dp927
g45
V10.1104/pp.002014
p928
sg41
VPLANT PHYSIOL
p929
sg43
V129
p930
sg72
(lp931
(VLAVAUD
VJ
tp932
asg51
I2002
sg39
VLANT
p933
sbag1
(g2
g3
NtRp934
(dp935
g45
V10.1021/bi027112i
p936
sg41
VBIOCHEMISTRY
p937
sg43
V42
p938
sg72
(lp939
(VLAVAUD
VJ
tp940
asg51
I2003
sg39
V5802
p941
sbag1
(g2
g3
NtRp942
(dp943
g45
V10.1104/pp.43.7.1049
p944
sg41
VPLANT PHYSIOL
p945
sg43
V43
p946
sg72
(lp947
(VLAVOREL
VJ
tp948
asg51
I1968
sg39
VLANT
p949
sbag1
(g2
g3
NtRp950
(dp951
g45
V10.1007/s00253-002-1177-3
p952
sg41
VAPPL MICROBIOL BIOT
p953
sg43
V60
p954
sg72
(lp955
(VLEBEAU
VT
tp956
asg51
I2003
sg39
V624
p957
sbag1
(g2
g3
NtRp958
(dp959
g45
V10.1007/s00438-004-1078-5
p960
sg41
VMOL GENET GENOMICS
p961
sg43
V272
p962
sg72
(lp963
(VLEDFORD
VH K
tp964
asg51
I2004
sg39
V470
p965
sbag1
(g2
g3
NtRp966
(dp967
g45
Nsg41
VGENETICS
p968
sg43
V151
p969
sg72
(lp970
(VLEFEBVRE
VP A
tp971
asg51
I1999
sg39
V9
sbag1
(g2
g3
NtRp972
(dp973
g45
V10.1038/35001059
p974
sg41
VNATURE
p975
sg43
V403
p976
sg72
(lp977
(VLEMIEUX
VC
tp978
asg51
I2000
sg39
V649
p979
sbag1
(g2
g3
NtRp980
(dp981
g45
V10.1146/annurev.pp.20.060169.002515
p982
sg41
VANN REV PLANT PHYSIO
p983
sg43
V20
p984
sg72
(lp985
(VLEVINE
VR P
tp986
asg51
I1969
sg39
V523
p987
sbag1
(g2
g3
NtRp988
(dp989
g45
V10.1146/annurev.ge.04.120170.002145
p990
sg41
VANNU REV GENET
p991
sg43
V4
sg72
(lp992
(VLEVINE
VR P
tp993
asg51
I1970
sg39
V397
p994
sbag1
(g2
g3
NtRp995
(dp996
g45
V10.1016/S0092-8674(04)00450-7
p997
sg41
VCELL
p998
sg43
V117
p999
sg72
(lp1000
(VLI
VJ B
tp1001
asg51
I2004
sg39
V541
p1002
sbag1
(g2
g3
NtRp1003
(dp1004
g45
V10.1038/35000131
p1005
sg41
VNATURE
p1006
sg43
V403
p1007
sg72
(lp1008
(VLI
VX P
tp1009
asg51
I2000
sg39
V391
p1010
sbag1
(g2
g3
NtRp1011
(dp1012
g45
V10.1105/tpc.005595
p1013
sg41
VPLANT CELL
p1014
sg43
V14
p1015
sg72
(lp1016
(VLILLY
VJ W
tp1017
asg51
I2002
sg39
VLANT
p1018
sbag1
(g2
g3
NtRp1019
(dp1020
g45
V10.1126/science.227.4682.57
p1021
sg41
VSCIENCE
p1022
sg43
V227
p1023
sg72
(lp1024
(VLITTLER
VM M
tp1025
asg51
I1985
sg39
V57
p1026
sbag1
(g2
g3
NtRp1027
(dp1028
g45
V10.1073/pnas.96.15.8784
p1029
sg41
VP NATL ACAD SCI USA
p1030
sg43
V96
p1031
sg72
(lp1032
(VLOHR
VM
tp1033
asg51
I1999
sg39
V8784
p1034
sbag1
(g2
g3
NtRp1035
(dp1036
g45
V10.1046/j.1365-313X.1998.00145.x
p1037
sg41
VPLANT J
p1038
sg43
V14
p1039
sg72
(lp1040
(VLUMBRERAS
VV
tp1041
asg51
I1998
sg39
VLANT
p1042
sbag1
(g2
g3
NtRp1043
(dp1044
g45
V10.1078/1434-4610-00011
p1045
sg41
VPROTIST
p1046
sg43
V151
p1047
sg72
(lp1048
(VMAIER
VU G
tp1049
asg51
I2000
sg39
VROTIST
p1050
sbag1
(g2
g3
NtRp1051
(dp1052
g45
V10.1146/annurev.arplant.49.1.173
p1053
sg41
VANNU REV PLANT PHYS
p1054
sg43
V49
p1055
sg72
(lp1056
(VMANDOLI
VD F
tp1057
asg51
I1998
sg39
V173
p1058
sbag1
(g2
g3
NtRp1059
(dp1060
g45
V10.1007/BF00027999
p1061
sg41
VHYDROBIOLOGIA
p1062
sg43
V269
p1063
sg72
(lp1064
(VMANN
VD G
tp1065
asg51
I1993
sg39
V11
p1066
sbag1
(g2
g3
NtRp1067
(dp1068
g45
V10.1046/j.1529-8817.1999.3510152.x
p1069
sg41
VJ PHYCOL
p1070
sg43
V35
p1071
sg72
(lp1072
(VMANN
VD G
tp1073
asg51
I1999
sg39
V152
p1074
sbag1
(g2
g3
NtRp1075
(dp1076
g45
V10.1093/dnares/11.2.83
p1077
sg41
VDNA RES
p1078
sg43
V11
p1079
sg72
(lp1080
(VMARUYAMA
VS
tp1081
asg51
I2004
sg39
V83
p1082
sbag1
(g2
g3
NtRp1083
(dp1084
g45
V10.2174/1568016043477314
p1085
sg41
VCurrent Medicinal Chemistry 
p1086
sg43
V2
sg72
(lp1087
(VMATSUBARA
VKIMINORI
tp1088
asg51
I2004
sg39
V13
p1089
sbag1
(g2
g3
NtRp1090
(dp1091
g45
V10.1038/nature02398
p1092
sg41
VNATURE
p1093
sg43
V428
p1094
sg72
(lp1095
(VMATSUZAKI
VM
tp1096
asg51
I2004
sg39
V653
p1097
sbag1
(g2
g3
NtRp1098
(dp1099
g45
V10.1016/S1369-5266(02)00235-2
p1100
sg41
VCURR OPIN PLANT BIOL
p1101
sg43
V5
sg72
(lp1102
(VMAYER
VK
tp1103
asg51
I2002
sg39
V173
p1104
sbag1
(g2
g3
NtRp1105
(dp1106
g45
V10.1073/pnas.0237108100
p1107
sg41
VP NATL ACAD SCI USA
p1108
sg43
V100
p1109
sg72
(lp1110
(VMAYFIELD
VS P
tp1111
asg51
I2003
sg39
V438
p1112
sbag1
(g2
g3
NtRp1113
(dp1114
g45
V10.1073/pnas.87.6.2087
p1115
sg41
VP NATL ACAD SCI USA
p1116
sg43
V87
p1117
sg72
(lp1118
(VMAYFIELD
VS P
tp1119
asg51
I1990
sg39
V2087
p1120
sbag1
(g2
g3
NtRp1121
(dp1122
g45
V10.1021/bi962235m
p1123
sg41
VBIOCHEMISTRY
p1124
sg43
V36
p1125
sg72
(lp1126
(VMELKOZERNOV
VA N
tp1127
asg51
I1997
sg39
V2898
p1128
sbag1
(g2
g3
NtRp1129
(dp1130
g45
V10.1194/jlr.M400181-JLR200
p1131
sg41
VJ LIPID RES
p1132
sg43
V45
p1133
sg72
(lp1134
(VMEYER
VA
tp1135
asg51
I2004
sg39
V1899
p1136
sbag1
(g2
g3
NtRp1137
(dp1138
g45
Nsg41
VMOL GEN GENET
p1139
sg43
V262
p1140
sg72
(lp1141
(VMINKO
VI
tp1142
asg51
I1999
sg39
V421
p1143
sbag1
(g2
g3
NtRp1144
(dp1145
g45
V10.1093/pcp/pch087
p1146
sg41
VPLANT CELL PHYSIOL
p1147
sg43
V45
p1148
sg72
(lp1149
(VMINODA
VA
tp1150
asg51
I2004
sg39
VLANT
p1151
sbag1
(g2
g3
NtRp1152
(dp1153
g45
V10.1111/j.0022-3646.1994.00147.x
p1154
sg41
VJ PHYCOL
p1155
sg43
V30
p1156
sg72
(lp1157
(VMITMAN
VG G
tp1158
asg51
I1994
sg39
V147
p1159
sbag1
(g2
g3
NtRp1160
(dp1161
g45
V10.1104/pp.104.041400
p1162
sg41
VPLANT PHYSIOL
p1163
sg43
V135
p1164
sg72
(lp1165
(VMIURA
VK
tp1166
asg51
I2004
sg39
VLANT
p1167
sbag1
(g2
g3
NtRp1168
(dp1169
g45
V10.1007/s004250050645
p1170
sg41
VPLANTA
p1171
sg43
V209
p1172
sg72
(lp1173
(VMIYAGISHIMA
VS
tp1174
asg51
I1999
sg39
VLANTA
p1175
sbag1
(g2
g3
NtRp1176
(dp1177
g45
V10.1105/tpc.009373
p1178
sg41
VPLANT CELL
p1179
sg43
V15
p1180
sg72
(lp1181
(VMIYAGISHIMA
VS
tp1182
asg51
I2003
sg39
VLANT
p1183
sbag1
(g2
g3
NtRp1184
(dp1185
g45
V10.1007/s004250000426
p1186
sg41
VPLANTA
p1187
sg43
V212
p1188
sg72
(lp1189
(VMIYAGISHIMA
VS
tp1190
asg51
I2001
sg39
VLANTA
p1191
sbag1
(g2
g3
NtRp1192
(dp1193
g45
Nsg41
VPLANT CELL
p1194
sg43
V13
p1195
sg72
(lp1196
(VMIYAGISHIMA
VS Y
tp1197
asg51
I2001
sg39
VLANT
p1198
sbag1
(g2
g3
NtRp1199
(dp1200
g45
Nsg41
VPLANT CELL
p1201
sg43
V13
p1202
sg72
(lp1203
(VMIYAGISHIMA
VS Y
tp1204
asg51
I2001
sg39
VLANT
p1205
sbag1
(g2
g3
NtRp1206
(dp1207
g45
V10.1016/0044-8486(95)93662-T
p1208
sg41
VAQUACULTURE
p1209
sg43
V132
p1210
sg72
(lp1211
(VMIZUKAMI
VY
tp1212
asg51
I1995
sg39
V361
p1213
sbag1
(g2
g3
NtRp1214
(dp1215
g45
Nsg41
VMOL BIOTECHNOL
p1216
sg43
V11
p1217
sg72
(lp1218
(VMOGAN
VD M
tp1219
asg51
I1999
sg39
V229
p1220
sbag1
(g2
g3
NtRp1221
(dp1222
g45
V10.1104/pp.46.4.576
p1223
sg41
VPLANT PHYSIOL
p1224
sg43
V46
p1225
sg72
(lp1226
(VMOLL
VB
tp1227
asg51
I1970
sg39
VLANT
p1228
sbag1
(g2
g3
NtRp1229
(dp1230
g45
V10.1016/S0923-2508(01)01260-8
p1231
sg41
VRES MICROBIOL
p1232
sg43
V152
p1233
sg72
(lp1234
(VMOREIRA
VD
tp1235
asg51
I2001
sg39
V771
p1236
sbag1
(g2
g3
NtRp1237
(dp1238
g45
V10.1016/S0306-4522(01)00365-7
p1239
sg41
VNEUROSCIENCE
p1240
sg43
V107
p1241
sg72
(lp1242
(VMOZZACHIODI
VR
tp1243
asg51
I2001
sg39
V519
p1244
sbag1
(g2
g3
NtRp1245
(dp1246
g45
V10.1515/bchm3.1988.369.2.647
p1247
sg41
VBIOL CHEM H
p1248
sg43
V369
p1249
sg72
(lp1250
(VMULLER
VD G
tp1251
asg51
I1988
sg39
V647
p1252
sbag1
(g2
g3
NtRp1253
(dp1254
g45
Nsg41
VDISCOVERING GREAT BA
p1255
sg43
Nsg72
(lp1256
(VMURDOCH
VL
tp1257
asg51
I1996
sg39
Nsbag1
(g2
g3
NtRp1258
(dp1259
g45
Nsg41
VMOL CELL BIOL
p1260
sg43
V14
p1261
sg72
(lp1262
(VNELSON
VJ A E
tp1263
asg51
I1994
sg39
V4011
p1264
sbag1
(g2
g3
NtRp1265
(dp1266
g45
Nsg41
VGENETICS
p1267
sg43
V126
p1268
sg72
(lp1269
(VNEWMAN
VS M
tp1270
asg51
I1990
sg39
V875
p1271
sbag1
(g2
g3
NtRp1272
(dp1273
g45
V10.1093/dnares/7.3.223
p1274
sg41
VDNA RES
p1275
sg43
V7
sg72
(lp1276
(VNIKAIDO
VI
tp1277
asg51
I2000
sg39
V223
p1278
sbag1
(g2
g3
NtRp1279
(dp1280
g45
V10.1369/jhc.4C6315.2004
p1281
sg41
VJ HISTOCHEM CYTOCHEM
p1282
sg43
V52
p1283
sg72
(lp1284
(VNISHIDA
VK
tp1285
asg51
I2004
sg39
V843
p1286
sbag1
(g2
g3
NtRp1287
(dp1288
g45
V10.1007/s00239-003-2611-1
p1289
sg41
VJ MOL EVOL
p1290
sg43
V59
p1291
sg72
(lp1292
(VNOZAKI
VH
tp1293
asg51
I2004
sg39
V103
p1294
sbag1
(g2
g3
NtRp1295
(dp1296
g45
Nsg41
VINT MICROBIOL
p1297
sg43
V7
sg72
(lp1298
(VOELTJEN
VA
tp1299
asg51
I2004
sg39
V127
p1300
sbag1
(g2
g3
NtRp1301
(dp1302
g45
V10.1007/s002940050204
p1303
sg41
VCURR GENET
p1304
sg43
V31
p1305
sg72
(lp1306
(VOHRESSER
VM
tp1307
asg51
I1997
sg39
V264
p1308
sbag1
(g2
g3
NtRp1309
(dp1310
g45
V10.1093/dnares/10.2.67
p1311
sg41
VDNA RES
p1312
sg43
V10
p1313
sg72
(lp1314
(VOHTA
VN
tp1315
asg51
I2003
sg39
V67
p1316
sbag1
(g2
g3
NtRp1317
(dp1318
g45
V10.1104/pp.117.2.455
p1319
sg41
VPLANT PHYSIOL
p1320
sg43
V117
p1321
sg72
(lp1322
(VPALOMBELLA
VA L
tp1323
asg51
I1998
sg39
VLANT
p1324
sbag1
(g2
g3
NtRp1325
(dp1326
g45
V10.1083/jcb.151.3.709
p1327
sg41
VJ CELL BIOL
p1328
sg43
V151
p1329
sg72
(lp1330
(VPAZOUR
VG J
tp1331
asg51
I2000
sg39
V709
p1332
sbag1
(g2
g3
NtRp1333
(dp1334
g45
Nsg41
VAM J RESP CELL MOL
p1335
sg43
V26
p1336
sg72
(lp1337
(VPENNARUN
VG
tp1338
asg51
I2002
sg39
V362
p1339
sbag1
(g2
g3
NtRp1340
(dp1341
g45
V10.1007/s00239-002-2441-y
p1342
sg41
VJ MOL EVOL
p1343
sg43
V57
p1344
sg72
(lp1345
(VPETERSEN
VJ
tp1346
asg51
I2003
sg39
V16
p1347
sbag1
(g2
g3
NtRp1348
(dp1349
g45
V10.1007/s004250000484
p1350
sg41
VPLANTA
p1351
sg43
V214
p1352
sg72
(lp1353
(VPETERSON
VR B
tp1354
asg51
I2001
sg39
VLANTA
p1355
sbag1
(g2
g3
NtRp1356
(dp1357
g45
V10.1111/j.0022-3646.1983.00269.x
p1358
sg41
VJ PHYCOL
p1359
sg43
V19
p1360
sg72
(lp1361
(VPICKETTHEAPS
VJ
tp1362
asg51
I1983
sg39
V269
p1363
sbag1
(g2
g3
NtRp1364
(dp1365
g45
Nsg41
VEUR J CELL BIOL
p1366
sg43
V25
p1367
sg72
(lp1368
(VPICKETTHEAPS
VJ
tp1369
asg51
I1981
sg39
V150
p1370
sbag1
(g2
g3
NtRp1371
(dp1372
g45
V10.1073/pnas.2035131100
p1373
sg41
VP NATL ACAD SCI USA
p1374
sg43
V100
p1375
sg72
(lp1376
(VPOULSEN
VN
tp1377
asg51
I2003
sg39
V12075
p1378
sbag1
(g2
g3
NtRp1379
(dp1380
g45
V10.1074/jbc.M407734200
p1381
sg41
VJ BIOL CHEM
p1382
sg43
V279
p1383
sg72
(lp1384
(VPOULSEN
VN
tp1385
asg51
I2004
sg39
V42993
p1386
sbag1
(g2
g3
NtRp1387
(dp1388
g45
V10.1007/BF00024121
p1389
sg41
VPLANT MOL BIOL
p1390
sg43
V24
p1391
sg72
(lp1392
(VPURTON
VS
tp1393
asg51
I1994
sg39
VLANT
p1394
sbag1
(g2
g3
NtRp1395
(dp1396
g45
Nsg41
VDev Suppl
p1397
sg43
V1
sg72
(lp1398
(VQUATRANO
VR S
tp1399
asg51
I1991
sg39
V11
p1400
sbag1
(g2
g3
NtRp1401
(dp1402
g45
Nsg41
VPLANT CELL
p1403
sg43
V7
sg72
(lp1404
(VQUINN
VJ M
tp1405
asg51
I1995
sg39
VLANT
p1406
sbag1
(g2
g3
NtRp1407
(dp1408
g45
V10.1111/j.1095-8339.1995.tb00463.x
p1409
sg41
VBOT J LINN SOC
p1410
sg43
V118
p1411
sg72
(lp1412
(VRAGAN
VM A
tp1413
asg51
I1995
sg39
V81
p1414
sbag1
(g2
g3
NtRp1415
(dp1416
g45
V10.1104/pp.104.044131
p1417
sg41
VPLANT PHYSIOL
p1418
sg43
V136
p1419
sg72
(lp1420
(VRAL
VJ P
tp1421
asg51
I2004
sg39
VLANT
p1422
sbag1
(g2
g3
NtRp1423
(dp1424
g45
V10.1023/A:1006085026294
p1425
sg41
VPLANT MOL BIOL
p1426
sg43
V38
p1427
sg72
(lp1428
(VRANDOLPH-ANDERSON
VB L
tp1429
asg51
I1998
sg39
VLANT
p1430
sbag1
(g2
g3
NtRp1431
(dp1432
g45
V10.1111/j.1529-8817.1966.tb04597.x
p1433
sg41
VJ PHYCOL
p1434
sg43
V2
sg72
(lp1435
(VREIMANN
VB E F
tp1436
asg51
I1966
sg39
V74
p1437
sbag1
(g2
g3
NtRp1438
(dp1439
g45
V10.1104/pp.104.041319
p1440
sg41
VPLANT PHYSIOL
p1441
sg43
V135
p1442
sg72
(lp1443
(VREINFELDER
VJ R
tp1444
asg51
I2004
sg39
VLANT
p1445
sbag1
(g2
g3
NtRp1446
(dp1447
g45
V10.1007/BF02669187
p1448
sg41
VPLANT MOL BIOL REP
p1449
sg43
V13
p1450
sg72
(lp1451
(VREITH
VM
tp1452
asg51
I1995
sg39
VLANT
p1453
sbag1
(g2
g3
NtRp1454
(dp1455
g45
V10.1093/molbev/msh210
p1456
sg41
VMOL BIOL EVOL
p1457
sg43
V21
p1458
sg72
(lp1459
(VRICHLY
VE
tp1460
asg51
I2004
sg39
V1972
p1461
sbag1
(g2
g3
NtRp1462
(dp1463
g45
V10.1016/j.resmic.2003.12.004
p1464
sg41
VRES MICROBIOL
p1465
sg43
V155
p1466
sg72
(lp1467
(VROSAKIS
VA
tp1468
asg51
I2004
sg39
V201
p1469
sbag1
(g2
g3
NtRp1470
(dp1471
g45
Nsg41
VDIATOMS
p1472
sg43
Nsg72
(lp1473
(VROUND
VF
tp1474
asg51
I1990
sg39
Nsbag1
(g2
g3
NtRp1475
(dp1476
g45
V10.1126/science.132.3438.1459
p1477
sg41
VSCIENCE
p1478
sg43
V132
p1479
sg72
(lp1480
(VSAGER
VR
tp1481
asg51
I1960
sg39
V1459
p1482
sbag1
(g2
g3
NtRp1483
(dp1484
g45
V10.1385/JMN:16:2-3:299
p1485
sg41
VJ MOL NEUROSCI
p1486
sg43
V16
p1487
sg72
(lp1488
(VSALEM
VN
tp1489
asg51
I2001
sg39
V299
p1490
sbag1
(g2
g3
NtRp1491
(dp1492
g45
V10.1016/0005-2728(71)90047-8
p1493
sg41
VBIOCHIM BIOPHYS ACTA
p1494
sg43
V253
p1495
sg72
(lp1496
(VSATO
VV L
tp1497
asg51
I1971
sg39
V437
p1498
sbag1
(g2
g3
NtRp1499
(dp1500
g45
V10.1104/pp.010713
p1501
sg41
VPLANT PHYSIOL
p1502
sg43
V129
p1503
sg72
(lp1504
(VSCALA
VS
tp1505
asg51
I2002
sg39
VLANT
p1506
sbag1
(g2
g3
NtRp1507
(dp1508
g45
Nsg41
VPLANT CELL
p1509
sg43
V11
p1510
sg72
(lp1511
(VSCHRODA
VM
tp1512
asg51
I1999
sg39
VLANT
p1513
sbag1
(g2
g3
NtRp1514
(dp1515
g45
Nsg41
VDEVELOPMENT
p1516
sg43
V122
p1517
sg72
(lp1518
(VSHAW
VS L
tp1519
asg51
I1996
sg39
V2623
p1520
sbag1
(g2
g3
NtRp1521
(dp1522
g45
Nsg41
VGENETICS
p1523
sg43
V148
p1524
sg72
(lp1525
(VSHIMOGAWARA
VK
tp1526
asg51
I1998
sg39
V1821
p1527
sbag1
(g2
g3
NtRp1528
(dp1529
g45
V10.1104/pp.016899
p1530
sg41
VPLANT PHYSIOL
p1531
sg43
V131
p1532
sg72
(lp1533
(VSHRAGER
VJ
tp1534
asg51
I2003
sg39
VLANT
p1535
sbag1
(g2
g3
NtRp1536
(dp1537
g45
V10.1104/pp.010908
p1538
sg41
VPLANT PHYSIOL
p1539
sg43
V129
p1540
sg72
(lp1541
(VSIMPSON
VC L
tp1542
asg51
I2002
sg39
VLANT
p1543
sbag1
(g2
g3
NtRp1544
(dp1545
g45
Nsg41
VP NATL ACAD SCI USA
p1546
sg43
V99
p1547
sg72
(lp1548
(VSINESHCHEKOV
VO A
tp1549
asg51
I2002
sg39
V225
p1550
sbag1
(g2
g3
NtRp1551
(dp1552
g45
Nsg41
VMOL BIOL CELL
p1553
sg43
V8
sg72
(lp1554
(VSMITH
VE F
tp1555
asg51
I1997
sg39
V455
p1556
sbag1
(g2
g3
NtRp1557
(dp1558
g45
V10.3109/10799899609039955
p1559
sg41
VJ RECEPT SIGNAL TR R
p1560
sg43
V16
p1561
sg72
(lp1562
(VSMITH
VR M
tp1563
asg51
I1996
sg39
V339
p1564
sbag1
(g2
g3
NtRp1565
(dp1566
g45
V10.1016/j.cell.2004.05.019
p1567
sg41
VCELL
p1568
sg43
V117
p1569
sg72
(lp1570
(VSNELL
VW J
tp1571
asg51
I2004
sg39
V693
p1572
sbag1
(g2
g3
NtRp1573
(dp1574
g45
V10.1128/EC.2.5.978-994.2003
p1575
sg41
VEUKARYOT CELL
p1576
sg43
V2
sg72
(lp1577
(VSTAUBER
VE J
tp1578
asg51
I2003
sg39
V978
p1579
sbag1
(g2
g3
NtRp1580
(dp1581
g45
Nsg41
VMOL GEN GENET
p1582
sg43
V251
p1583
sg72
(lp1584
(VSTEVENS
VD R
tp1585
asg51
I1996
sg39
V23
p1586
sbag1
(g2
g3
NtRp1587
(dp1588
g45
V10.1073/pnas.082646199
p1589
sg41
VP NATL ACAD SCI USA
p1590
sg43
V99
p1591
sg72
(lp1592
(VSTILLER
VJ W
tp1593
asg51
I2002
sg39
V6091
p1594
sbag1
(g2
g3
NtRp1595
(dp1596
g45
V10.1007/BF02669186
p1597
sg41
VPLANT MOL BIOL REP
p1598
sg43
V13
p1599
sg72
(lp1600
(VSTIREWALT
VV L
tp1601
asg51
I1995
sg39
VLANT
p1602
sbag1
(g2
g3
NtRp1603
(dp1604
g45
Nsg41
VDNA SEQUENCE
p1605
sg43
V10
p1606
sg72
(lp1607
(VTADA
VN
tp1608
asg51
I1999
sg39
V343
p1609
sbag1
(g2
g3
NtRp1610
(dp1611
g45
V10.1007/BF00029859
p1612
sg41
VPLANT MOL BIOL
p1613
sg43
V24
p1614
sg72
(lp1615
(VTAKAHASHI
VY
tp1616
asg51
I1994
sg39
VLANT
p1617
sbag1
(g2
g3
NtRp1618
(dp1619
g45
Nsg41
VGENETICS
p1620
sg43
V135
p1621
sg72
(lp1622
(VTAM
VL W
tp1623
asg51
I1993
sg39
V375
p1624
sbag1
(g2
g3
NtRp1625
(dp1626
g45
V10.1016/S0014-5793(04)00241-8
p1627
sg41
VFEBS LETT
p1628
sg43
V563
p1629
sg72
(lp1630
(VTONON
VT
tp1631
asg51
I2004
sg39
V28
p1632
sbag1
(g2
g3
NtRp1633
(dp1634
g45
V10.1073/pnas.96.18.10248
p1635
sg41
VP NATL ACAD SCI USA
p1636
sg43
V96
p1637
sg72
(lp1638
(VTURMEL
VM
tp1639
asg51
I1999
sg39
V10248
p1640
sbag1
(g2
g3
NtRp1641
(dp1642
g45
V10.1073/pnas.162203299
p1643
sg41
VP NATL ACAD SCI USA
p1644
sg43
V99
p1645
sg72
(lp1646
(VTURMEL
VM
tp1647
asg51
I2002
sg39
V11275
p1648
sbag1
(g2
g3
NtRp1649
(dp1650
g45
V10.1007/s00705-002-0822-6
p1651
sg41
VARCH VIROL
p1652
sg43
V147
p1653
sg72
(lp1654
(VVAN
VETTEN J L
tp1655
asg51
I2002
sg39
V1479
p1656
sbag1
(g2
g3
NtRp1657
(dp1658
g45
V10.1016/0014-4827(86)90202-8
p1659
sg41
VEXP CELL RES
p1660
sg43
V167
p1661
sg72
(lp1662
(VVAULOT
VD
tp1663
asg51
I1986
sg39
V38
p1664
sbag1
(g2
g3
NtRp1665
(dp1666
g45
V10.1007/BF00393106
p1667
sg41
VMAR BIOL
p1668
sg43
V95
p1669
sg72
(lp1670
(VVAULOT
VD
tp1671
asg51
I1987
sg39
V625
p1672
sbag1
(g2
g3
NtRp1673
(dp1674
g45
V10.1111/j.0022-3646.1997.00527.x
p1675
sg41
VJ PHYCOL
p1676
sg43
V33
p1677
sg72
(lp1678
(VVELDHUIS
VM J W
tp1679
asg51
I1997
sg39
V527
p1680
sbag1
(g2
g3
NtRp1681
(dp1682
g45
Nsg41
VJ PHYCOL S
p1683
sg43
V39
p1684
sg72
(lp1685
(VVELLUPPILLAI
VJ M
tp1686
asg51
I2003
sg39
V57
p1687
sbag1
(g2
g3
NtRp1688
(dp1689
g45
V10.1126/science.1093857
p1690
sg41
VSCIENCE
p1691
sg43
V304
p1692
sg72
(lp1693
(VVENTER
VJ C
tp1694
asg51
I2004
sg39
V66
p1695
sbag1
(g2
g3
NtRp1696
(dp1697
g45
Nsg41
VPlant Physiology 
p1698
sg43
V114
p1699
sg72
(lp1700
(VVILLAND
VP E R
tp1701
asg51
I1997
sg39
Vlant
p1702
sbag1
(g2
g3
NtRp1703
(dp1704
g45
V10.1046/j.1529-8817.1999.3530548.x
p1705
sg41
VJ PHYCOL
p1706
sg43
V35
p1707
sg72
(lp1708
(VVRIELING
VE G
tp1709
asg51
I1999
sg39
V548
p1710
sbag1
(g2
g3
NtRp1711
(dp1712
g45
V10.1104/pp.010485
p1713
sg41
VPLANT PHYSIOL
p1714
sg43
V127
p1715
sg72
(lp1716
(VVYSOTSKAIA
VV S
tp1717
asg51
I2001
sg39
VLANT
p1718
sbag1
(g2
g3
NtRp1719
(dp1720
g45
V10.1111/j.0022-3646.2003.03-148.x
p1721
sg41
VJ PHYCOL
p1722
sg43
V40
p1723
sg72
(lp1724
(VWAALAND
VJ R
tp1725
asg51
I2004
sg39
V26
p1726
sbag1
(g2
g3
NtRp1727
(dp1728
g45
Nsg41
VPLANTA
p1729
sg43
V181
p1730
sg72
(lp1731
(VWAALAND
VJ R
tp1732
asg51
I1990
sg39
VLANTA
p1733
sbag1
(g2
g3
NtRp1734
(dp1735
g45
V10.1016/S0014-5793(04)00051-1
p1736
sg41
VFEBS LETT
p1737
sg43
V559
p1738
sg72
(lp1739
(VWAGNER
VV
tp1740
asg51
I2004
sg39
V129
p1741
sbag1
(g2
g3
NtRp1742
(dp1743
g45
V10.1073/pnas.94.11.5967
p1744
sg41
VP NATL ACAD SCI USA
p1745
sg43
V94
p1746
sg72
(lp1747
(VWAKASUGI
VT
tp1748
asg51
I1997
sg39
V5967
p1749
sbag1
(g2
g3
NtRp1750
(dp1751
g45
V10.1074/jbc.M004629200
p1752
sg41
VJ BIOL CHEM
p1753
sg43
V275
p1754
sg72
(lp1755
(VWASTL
VJ
tp1756
asg51
I2000
sg39
V30058
p1757
sbag1
(g2
g3
NtRp1758
(dp1759
g45
V10.1021/bi961198w
p1760
sg41
VBIOCHEMISTRY
p1761
sg43
V35
p1762
sg72
(lp1763
(VWEBBER
VA N
tp1764
asg51
I1996
sg39
V12857
p1765
sbag1
(g2
g3
NtRp1766
(dp1767
g45
V10.1016/S0734-9750(03)00051-X
p1768
sg41
VBIOTECHNOL ADV
p1769
sg43
V21
p1770
sg72
(lp1771
(VWEN
VZ Y
tp1772
asg51
I2003
sg39
V273
p1773
sbag1
(g2
g3
NtRp1774
(dp1775
g45
V10.1126/science.1090047
p1776
sg41
VSCIENCE
p1777
sg43
V302
p1778
sg72
(lp1779
(VWHITELAW
VC A
tp1780
asg51
I2003
sg39
V2118
p1781
sbag1
(g2
g3
NtRp1782
(dp1783
g45
Nsg41
VRES PHOTOSYNTHESIS
p1784
sg43
V2
sg72
(lp1785
(VWHITELEGGE
VJ P
tp1786
asg51
I1992
sg39
V151
p1787
sbag1
(g2
g3
NtRp1788
(dp1789
g45
Nsg41
V10 INT CHLAM C JUN V
p1790
sg43
Nsg72
(lp1791
(VWILSON
VN F
tp1792
asg51
I2002
sg39
Nsbag1
(g2
g3
NtRp1793
(dp1794
g45
Nsg41
VCALCAREOUS ALGAE
p1795
sg43
Nsg72
(lp1796
(VWRAY
VJ L
tp1797
asg51
I1977
sg39
Nsbag1
(g2
g3
NtRp1798
(dp1799
g45
V10.1104/pp.117.1.129
p1800
sg41
VPLANT PHYSIOL
p1801
sg43
V117
p1802
sg72
(lp1803
(VWYKOFF
VD D
tp1804
asg51
I1998
sg39
VLANT
p1805
sbag1
(g2
g3
NtRp1806
(dp1807
g45
V10.1073/pnas.96.26.15336
p1808
sg41
VP NATL ACAD SCI USA
p1809
sg43
V96
p1810
sg72
(lp1811
(VWYKOFF
VD D
tp1812
asg51
I1999
sg39
V15336
p1813
sbag1
(g2
g3
NtRp1814
(dp1815
g45
Nsg41
VNATURE
p1816
sg43
V391
p1817
sg72
(lp1818
(VXIAO
VS H
tp1819
asg51
I1998
sg39
V553
p1820
sbag1
(g2
g3
NtRp1821
(dp1822
g45
V10.1016/S0005-2728(97)00063-7
p1823
sg41
VBBA
p1824
sg43
V1322
p1825
sg72
(lp1826
(VXIONG
VJ
tp1827
asg51
I1997
sg39
V60
p1828
sbag1
(g2
g3
NtRp1829
(dp1830
g45
V10.1023/A:1008129119065
p1831
sg41
VJ APPL PHYCOL
p1832
sg43
V12
p1833
sg72
(lp1834
(VYAN
VX H
tp1835
asg51
I2000
sg39
V69
p1836
sbag1
(g2
g3
NtRp1837
(dp1838
g45
V10.1104/pp.112.2.669
p1839
sg41
VPLANT PHYSIOL
p1840
sg43
V112
p1841
sg72
(lp1842
(VYILDIZ
VF H
tp1843
asg51
I1996
sg39
VLANT
p1844
sbag1
(g2
g3
NtRp1845
(dp1846
g45
V10.1006/mpev.2001.1009
p1847
sg41
VMOL PHYLOGENET EVOL
p1848
sg43
V21
p1849
sg72
(lp1850
(VYOON
VH S
tp1851
asg51
I2001
sg39
V231
p1852
sbag1
(g2
g3
NtRp1853
(dp1854
g45
V10.1105/tpc.021162
p1855
sg41
VPLANT CELL
p1856
sg43
V16
p1857
sg72
(lp1858
(VYOSHIOKA
VS
tp1859
asg51
I2004
sg39
VLANT
p1860
sbag1
(g2
g3
NtRp1861
(dp1862
g45
V10.1126/science.160015
p1863
sg41
VSCIENCE
p1864
sg43
V292
p1865
sg72
(lp1866
(VZASLAVSKAIA
VL A
tp1867
asg51
I2001
sg39
V2073
p1868
sbag1
(g2
g3
NtRp1869
(dp1870
g45
V10.1046/j.1529-8817.2000.99164.x
p1871
sg41
VJ PHYCOL
p1872
sg43
V36
p1873
sg72
(lp1874
(VZASLAVSKAIA
VL A
tp1875
asg51
I2000
sg39
V379
p1876
sbag1
(g2
g3
NtRp1877
(dp1878
g45
Nsg41
VGENETICS
p1879
sg43
V146
p1880
sg72
(lp1881
(VZHANG
VD H
tp1882
asg51
I1997
sg39
V121
p1883
sbag1
(g2
g3
NtRp1884
(dp1885
g45
V10.1007/BF00023562
p1886
sg41
VPLANT MOL BIOL
p1887
sg43
V24
p1888
sg72
(lp1889
(VZHANG
VH T
tp1890
asg51
I1994
sg39
VLANT
p1891
sbag1
(g2
g3
NtRp1892
(dp1893
g45
Nsg41
VMOL BIOL EVOL
p1894
sg43
V19
p1895
sg72
(lp1896
(VZHANG
VZ D
tp1897
asg51
I2002
sg39
V489
p1898
sbag1
(g2
g3
NtRp1899
(dp1900
g45
Nsg41
VNATURE
p1901
sg43
V400
p1902
sg72
(lp1903
(VZHANG
VZ D
tp1904
asg51
I1999
sg39
V155
p1905
sbag1
(g2
g3
NtRp1906
(dp1907
g45
V10.1128/EC.3.5.1331-1348.2004
p1908
sg41
VEUKARYOT CELL
p1909
sg43
V3
sg72
(lp1910
(VZHANG
VZ D
tp1911
asg51
I2004
sg39
V1331
p1912
sbag1
(g2
g3
NtRp1913
(dp1914
g45
V10.1128/EC.3.3.815-825.2004
p1915
sg41
VEUKARYOT CELL
p1916
sg43
V3
sg72
(lp1917
(VZHAO
VB
tp1918
asg51
I2004
sg39
V815
p1919
sbag1
(g2
g3
NtRp1920
(dp1921
g45
Nsg41
VJ BIOL CHEM
p1922
sg43
V271
p1923
sg72
(lp1924
(VZHU
VG H
tp1925
asg51
I1996
sg39
V18494
p1926
sbasb.