ccopy_reg
_reconstructor
p1
(ctethne.classes.paper
Paper
p2
c__builtin__
object
p3
NtRp4
(dp5
S'publisherCity'
p6
VROCKVILLE
p7
sS'reprintAddress'
p8
VKrapp, A (reprint author), INRA Agro ParisTech, Inst Jean Pierre Bourgin, Unite Mixte Rech 1318, F-78026 Versailles, France.
p9
sS'WC'
p10
VPlant Sciences
p11
sS'GA'
p12
V844BL
p13
sS'FX'
p14
(lp15
VThis work was supported by Genoplante (grant no. GPN-B4 to F.D.-V.) and
p16
aVby the European Union Research Training Network (Plant Use of Nitrate
p17
aVgrant no. HPRN-CT-2002-00247 to A.K.).
p18
asS'abstract'
p19
VNitrogen (N) is an essential macronutrient for plants. N levels in soil vary widely, and plants have developed strategies to cope with N deficiency. However, the regulation of these adaptive responses and the coordinating signals that underlie them are still poorly understood. The aim of this study was to characterize N starvation in adult Arabidopsis (Arabidopsis thaliana) plants in a spatiotemporal manner by an integrative, multilevel global approach analyzing growth, metabolites, enzyme activities, and transcript levels. We determined that the remobilization of N and carbon compounds to the growing roots occurred long before the internal N stores became depleted. A global metabolite analysis by gas chromatography-mass spectrometry revealed organ-specific differences in the metabolic adaptation to complete N starvation, for example, for several tricarboxylic acid cycle intermediates, but also for carbohydrates, secondary products, and phosphate. The activities of central N metabolism enzymes and the capacity for nitrate uptake adapted to N starvation by favoring N remobilization and by increasing the high-affinity nitrate uptake capacity after long-term starvation. Changes in the transcriptome confirmed earlier studies and added a new dimension by revealing specific spatiotemporal patterns and several unknown N starvation-regulated genes, including new predicted small RNA genes. No global correlation between metabolites, enzyme activities, and transcripts was evident. However, this multilevel spatiotemporal global study revealed numerous new patterns of adaptation mechanisms to N starvation. In the context of a sustainable agriculture, this work will give new insight for the production of crops with increased N use efficiency.
p20
sS'pageEnd'
p21
I1282
sS'date'
p22
I2011
sS'documentType'
p23
VArticle
p24
sS'subject'
p25
VPlant Sciences
p26
sS'isoSource'
p27
VPlant Physiol.
p28
sS'timesCited'
p29
(lp30
I12
aVZ9 13
p31
asS'funding'
p32
(lp33
(VGenoplante
VGPN-B4
tp34
a(VEuropean Union Research Training Network
VHPRN-CT-2002-00247
tp35
asS'PT'
p36
VJ
sS'title'
p37
VArabidopsis Roots And Shoots Show Distinct Temporal Adaptation Patterns Toward Nitrogen Starvation
p38
sS'ISSN'
p39
(lp40
V0032-0889
p41
aVJ9 PLANT PHYSIOL
p42
asS'authors_full'
p43
(lp44
(VKRAPP
VANNE
tp45
a(VBERTHOME
VRICHARD
tp46
a(VORSEL
VMATHILDE
tp47
a(VMERCEYBOUTET
VSTEPHANIE
tp48
a(VYU
VAGNES
tp49
a(VCASTAINGS
VLOREN
tp50
a(VELFTIEH
VSAMIRA
tp51
a(VMAJOR
VHILARY
tp52
a(VRENOU
VJEANPIERRE
tp53
a(VDANIELVEDELE
VFRANCOISE
tp54
asS'PG'
p55
I28
sS'PD'
p56
VNOV
p57
sS'pageStart'
p58
I1255
sS'issue'
p59
I3
sS'RI'
p60
VKrapp, Anne/E-8372-2013; ORSEL, Mathilde/C-5435-2009
p61
sS'journal'
p62
VPLANT PHYSIOLOGY
p63
sS'volume'
p64
V157
p65
sS'doi'
p66
V10.1104/pp.111.179838
p67
sS'emailAddress'
p68
Vanne.krapp@versailles.inra.fr
p69
sS'authorAddress'
p70
(lp71
V[Krapp, Anne; Orsel, Mathilde; Mercey-Boutet, Stephanie; Castaings, Loren; Daniel-Vedele, Francoise] INRA Agro ParisTech, Inst Jean Pierre Bourgin, Unite Mixte Rech 1318, F-78026 Versailles, France.
p72
aV[Berthome, Richard; Yu, Agnes; Elftieh, Samira; Renou, Jean-Pierre] Univ Evry Val dEssonne, Unite Rech Genom Vegetale, Unite Mixte Rech 1165, Inst Natl Rech Agron,Equipe Rech Labellisee 8196,, F-91057 Evry, France.
p73
aV[Major, Hilary] Waters Corp, Manchester M23 9LZ, Lancs, England.
p74
asS'publisherAddress'
p75
V15501 MONONA DRIVE, ROCKVILLE, MD 20855 USA
p76
sS'ER'
p77
V
sS'publisher'
p78
VAMER SOC PLANT BIOLOGISTS
p79
sS'authorKeywords'
p80
(lp81
VNITRATE TRANSPORTER GENE
p82
aVAMINO-ACID-METABOLISM
p83
aVGLUTAMATE-DEHYDROGENASE
p84
aVTRANSCRIPTION FACTOR
p85
aVPLANT-GROWTH
p86
aVNICOTIANA-PLUMBAGINIFOLIA
p87
aVFUNCTIONAL GENOMICS
p88
aVSTRESS TOLERANCE
p89
aVLEAF DEVELOPMENT
p90
aVFUMARIC-ACID
p91
asS'OI'
p92
VORSEL, Mathilde/0000-0002-0837-6796
p93
sS'language'
p94
VEnglish
p95
sS'wosid'
p96
VWOS:000296722300024
p97
sS'citationCount'
p98
I122
sS'authors_init'
p99
(lp100
(VKRAPP
VA
tp101
a(VBERTHOME
VR
tp102
a(VORSEL
VM
tp103
a(VMERCEYBOUTET
VS
tp104
a(VYU
VA
tp105
a(VCASTAINGS
VL
tp106
a(VELFTIEH
VS
tp107
a(VMAJOR
VH
tp108
a(VRENOU
VJ P
tp109
a(VDANIELVEDELE
VF
tp110
asS'citedReferences'
p111
(lp112
g1
(g2
g3
NtRp113
(dp114
g66
V10.1186/1471-2164-9-438
p115
sg62
VBMC GENOMICS
p116
sg64
V9
sg99
(lp117
(VACEITUNO
VF F
tp118
asg22
I2008
sg58
Nsbag1
(g2
g3
NtRp119
(dp120
g66
Nsg62
VENHANCING EFFICIENCY
p121
sg64
Nsg99
(lp122
(VBASRA
VA S
tp123
asg22
I2005
sg58
V127
p124
sbag1
(g2
g3
NtRp125
(dp126
g66
V10.1111/j.1469-8137.2009.02823.x
p127
sg62
VNEW PHYTOL
p128
sg64
V182
p129
sg99
(lp130
(VBERNARD
VS M
tp131
asg22
I2009
sg58
V608
p132
sbag1
(g2
g3
NtRp133
(dp134
g66
V10.1104/pp.108.133348
p135
sg62
VPLANT PHYSIOL
p136
sg64
V149
p137
sg99
(lp138
(VBESSON-BARD
VA
tp139
asg22
I2009
sg58
VLANT
p140
sbag1
(g2
g3
NtRp141
(dp142
g66
V10.1186/1471-2164-8-281
p143
sg62
VBMC GENOMICS
p144
sg64
V8
sg99
(lp145
(VBI
VY M
tp146
asg22
I2007
sg58
Nsbag1
(g2
g3
NtRp147
(dp148
g66
V10.1105/tpc.13.7.1499
p149
sg62
VPLANT CELL
p150
sg64
V13
p151
sg99
(lp152
(VBOYES
VD C
tp153
asg22
I2001
sg58
VLANT
p154
sbag1
(g2
g3
NtRp155
(dp156
g66
V10.1006/abio.1976.9999
p157
sg62
VANAL BIOCHEM
p158
sg64
V72
p159
sg99
(lp160
(VBRADFORD
VM M
tp161
asg22
I1976
sg58
V248
p162
sbag1
(g2
g3
NtRp163
(dp164
g66
V10.1104/pp.117.4.1281
p165
sg62
VPLANT PHYSIOL
p166
sg64
V117
p167
sg99
(lp168
(VBROUQUISSE
VR
tp169
asg22
I1998
sg58
VLANT
p170
sbag1
(g2
g3
NtRp171
(dp172
g66
V10.1093/jxb/erq375
p173
sg62
VJ EXP BOT
p174
sg64
V62
p175
sg99
(lp176
(VCASTAINGS
VL
tp177
asg22
I2011
sg58
V1391
p178
sbag1
(g2
g3
NtRp179
(dp180
g66
V10.1104/pp.96.1.275
p181
sg62
VPLANT PHYSIOL
p182
sg64
V96
p183
sg99
(lp184
(VCHENG
VC L
tp185
asg22
I1991
sg58
VLANT
p186
sbag1
(g2
g3
NtRp187
(dp188
g66
V10.1007/s004250000345
p189
sg62
VPLANTA
p190
sg64
V211
p191
sg99
(lp192
(VCHIA
VD W
tp193
asg22
I2000
sg58
VLANTA
p194
sbag1
(g2
g3
NtRp195
(dp196
g66
V10.1111/j.1365-3040.2007.01643.x
p197
sg62
VPLANT CELL ENVIRON
p198
sg64
V30
p199
sg99
(lp200
(VCHIOU
VT J
tp201
asg22
I2007
sg58
VLANT
p202
sbag1
(g2
g3
NtRp203
(dp204
g66
V10.1105/tpc.107.050542
p205
sg62
VPLANT CELL
p206
sg64
V19
p207
sg99
(lp208
(VCHOPIN
VF
tp209
asg22
I2007
sg58
VLANT
p210
sbag1
(g2
g3
NtRp211
(dp212
g66
Nsg62
VFUNDAMENTAL ECOLOGIC
p213
sg64
Nsg99
(lp214
(VCLARKSON
VD T
tp215
asg22
I1986
sg58
V3
sbag1
(g2
g3
NtRp216
(dp217
g66
V10.1101/gad.402806
p218
sg62
VGENE DEV
p219
sg64
V20
p220
sg99
(lp221
(VCOMBIER
VJ P
tp222
asg22
I2006
sg58
V3084
p223
sbag1
(g2
g3
NtRp224
(dp225
g66
V10.1016/S1360-1385(98)01311-9
p226
sg62
VTRENDS PLANT SCI
p227
sg64
V3
sg99
(lp228
(VCRAWFORD
VN M
tp229
asg22
I1998
sg58
V389
p230
sbag1
(g2
g3
NtRp231
(dp232
g66
V10.1199/tab.0011
p233
sg62
VArabidopsis Book
p234
sg64
V1
sg99
(lp235
(VCRAWFORD
VNIGEL M
tp236
asg22
I2002
sg58
Ve0011
p237
sbag1
(g2
g3
NtRp238
(dp239
g66
V10.1093/nar/gkg071
p240
sg62
VNUCLEIC ACIDS RES
p241
sg64
V31
p242
sg99
(lp243
(VCROWE
VM L
tp244
asg22
I2003
sg58
V156
p245
sbag1
(g2
g3
NtRp246
(dp247
g66
V10.1007/978-3-642-10613-2_7
p248
sg62
VPLANT CELL MONOGR
p249
sg64
V17
p250
sg99
(lp251
(VDANIEL-VEDELE
VF
tp252
asg22
I2010
sg58
VLANT
p253
sbag1
(g2
g3
NtRp254
(dp255
g66
V10.1093/jxb/46.10.1585
p256
sg62
VJ EXP BOT
p257
sg64
V46
p258
sg99
(lp259
(VDELHON
VP
tp260
asg22
I1995
sg58
V1585
p261
sbag1
(g2
g3
NtRp262
(dp263
g66
V10.1104/pp.108.131805
p264
sg62
VPLANT PHYSIOL
p265
sg64
V149
p266
sg99
(lp267
(VDEPUYDT
VS
tp268
asg22
I2009
sg58
VLANT
p269
sbag1
(g2
g3
NtRp270
(dp271
g66
V10.1093/pcp/pci225
p272
sg62
VPlant Cell Physiol
p273
sg64
V47
p274
sg99
(lp275
(VDIAZ
VCE\u0301LINE
tp276
asg22
I2006
sg58
Vlant
p277
sbag1
(g2
g3
NtRp278
(dp279
g66
V10.1126/science.1146757
p280
sg62
VSCIENCE
p281
sg64
V318
p282
sg99
(lp283
(VDODD
VA N
tp284
asg22
I2007
sg58
V1789
p285
sbag1
(g2
g3
NtRp286
(dp287
g66
V10.1111/j.1469-8137.1975.tb01409.x
p288
sg62
VNEW PHYTOL
p289
sg64
V75
p290
sg99
(lp291
(VDREW
VM C
tp292
asg22
I1975
sg58
V479
p293
sbag1
(g2
g3
NtRp294
(dp295
g66
V10.1016/S0981-9428(03)00075-5
p296
sg62
VPLANT PHYSIOL BIOCH
p297
sg64
V41
p298
sg99
(lp299
(VDUBOIS
VF
tp300
asg22
I2003
sg58
VLANT
p301
sbag1
(g2
g3
NtRp302
(dp303
g66
V10.1023/A:1004715208478
p304
sg62
VPLANT SOIL
p305
sg64
V221
p306
sg99
(lp307
(VFERRARIO-MERY
VS
tp308
asg22
I2000
sg58
VLANT
p309
sbag1
(g2
g3
NtRp310
(dp311
g66
Nsg62
VV323
p312
sg64
V323
p313
sg99
(lp314
(VFIEHN
VOLIVER
tp315
asg22
I2006
sg58
V439
p316
sbag1
(g2
g3
NtRp317
(dp318
g66
V10.1016/S0014-5793(01)02096-8
p319
sg62
VFEBS LETT
p320
sg64
V489
p321
sg99
(lp322
(VFILLEUR
VS
tp323
asg22
I2001
sg58
V220
p324
sbag1
(g2
g3
NtRp325
(dp326
g66
V10.1093/pcp/pcj008
p327
sg62
VPLANT CELL PHYSIOL
p328
sg64
V47
p329
sg99
(lp330
(VFONTAINE
VJ X
tp331
asg22
I2006
sg58
VLANT
p332
sbag1
(g2
g3
NtRp333
(dp334
g66
V10.1016/S0005-2736(00)00140-1
p335
sg62
VBBA
p336
sg64
V1465
p337
sg99
(lp338
(VFORDE
VB G
tp339
asg22
I2000
sg58
V219
p340
sbag1
(g2
g3
NtRp341
(dp342
g66
V10.1111/j.1365-3040.2006.01580.x
p343
sg62
VPLANT CELL ENVIRON
p344
sg64
V29
p345
sg99
(lp346
(VFRITZ
VC
tp347
asg22
I2006
sg58
VLANT
p348
sbag1
(g2
g3
NtRp349
(dp350
g66
V10.1093/nar/gkm757
p351
sg62
VNUCLEIC ACIDS RES
p352
sg64
V36
p353
sg99
(lp354
(VGAGNOT
VS
tp355
asg22
I2008
sg58
VD986
p356
sbag1
(g2
g3
NtRp357
(dp358
g66
V10.1111/j.1365-313X.2006.02992.x
p359
sg62
VPLANT J
p360
sg64
V49
p361
sg99
(lp362
(VGAUDE
VN
tp363
asg22
I2007
sg58
VLANT
p364
sbag1
(g2
g3
NtRp365
(dp366
g66
V10.1007/BF02595811
p367
sg62
VTEST
p368
sg64
V12
p369
sg99
(lp370
(VGE
VY C
tp371
asg22
I2003
sg58
V1
sbag1
(g2
g3
NtRp372
(dp373
g66
V10.1186/gb-2006-7-8-r76
p374
sg62
VGENOME BIOL
p375
sg64
V7
sg99
(lp376
(VGIBON
VY
tp377
asg22
I2006
sg58
Nsbag1
(g2
g3
NtRp378
(dp379
g66
V10.1073/pnas.0709559105
p380
sg62
VP NATL ACAD SCI USA
p381
sg64
V105
p382
sg99
(lp383
(VGIFFORD
VM L
tp384
asg22
I2008
sg58
V803
p385
sbag1
(g2
g3
NtRp386
(dp387
g66
V10.1016/j.crvi.2010.01.016
p388
sg62
VCR BIOL
p389
sg64
V333
p390
sg99
(lp391
(VGUIBOILEAU
VA
tp392
asg22
I2010
sg58
V382
p393
sbag1
(g2
g3
NtRp394
(dp395
g66
V10.1016/j.ab.2004.04.037
p396
sg62
VANAL BIOCHEM
p397
sg64
V331
p398
sg99
(lp399
(VGULLBERG
VJ
tp400
asg22
I2004
sg58
V283
p401
sbag1
(g2
g3
NtRp402
(dp403
g66
V10.1186/gb-2007-8-1-r7
p404
sg62
VGENOME BIOL
p405
sg64
V8
sg99
(lp406
(VGUTIERREZ
VR A
tp407
asg22
I2007
sg58
Nsbag1
(g2
g3
NtRp408
(dp409
g66
V10.1104/pp.109.147306
p410
sg62
VPLANT PHYSIOL
p411
sg64
V152
p412
sg99
(lp413
(VHANNAH
VM A
tp414
asg22
I2010
sg58
VLANT
p415
sbag1
(g2
g3
NtRp416
(dp417
g66
V10.1101/gr.2544504
p418
sg62
VGENOME RES
p419
sg64
V14
p420
sg99
(lp421
(VHILSON
VP
tp422
asg22
I2004
sg58
V2176
p423
sbag1
(g2
g3
NtRp424
(dp425
g66
V10.1016/j.cell.2009.07.004
p426
sg62
VCELL
p427
sg64
V138
p428
sg99
(lp429
(VHO
VC H
tp430
asg22
I2009
sg58
V1184
p431
sbag1
(g2
g3
NtRp432
(dp433
g66
Nsg62
VPLANT GROWTH REGUL
p434
sg64
V41
p435
sg99
(lp436
(VHOAI
VN T T
tp437
asg22
I2003
sg58
VLANT
p438
sbag1
(g2
g3
NtRp439
(dp440
g66
VDOI 10.1155/2008/420747
p441
sg62
VADV BIOINFORMATICS
p442
sg64
Nsg99
(lp443
(VHRUZ
VT
tp444
asg22
I2008
sg58
Nsbag1
(g2
g3
NtRp445
(dp446
g66
V10.1111/j.1365-313X.2008.03685.x
p447
sg62
VPLANT J
p448
sg64
V57
p449
sg99
(lp450
(VHU
VH C
tp451
asg22
I2009
sg58
VLANT
p452
sbag1
(g2
g3
NtRp453
(dp454
g66
V10.1105/tpc.11.8.1381
p455
sg62
VPLANT CELL
p456
sg64
V11
p457
sg99
(lp458
(VHUANG
VN C
tp459
asg22
I1999
sg58
VLANT
p460
sbag1
(g2
g3
NtRp461
(dp462
g66
V10.1073/pnas.0707763104
p463
sg62
VP NATL ACAD SCI USA
p464
sg64
V104
p465
sg99
(lp466
(VJOHNSON
VP T J
tp467
asg22
I2007
sg58
V15781
p468
sbag1
(g2
g3
NtRp469
(dp470
g66
V10.1007/s00726-010-0505-7
p471
sg62
VAMINO ACIDS
p472
sg64
V39
p473
sg99
(lp474
(VJOSHI
VV
tp475
asg22
I2010
sg58
V933
p476
sbag1
(g2
g3
NtRp477
(dp478
g66
Nsg62
VPLANT PHYSIOL
p479
sg64
V106
p480
sg99
(lp481
(VKAISER
VW M
tp482
asg22
I1994
sg58
VLANT
p483
sbag1
(g2
g3
NtRp484
(dp485
g66
V10.1371/journal.pgen.1002021
p486
sg62
VPLOS GENET
p487
sg64
V7
sg99
(lp488
(VKANT
VS
tp489
asg22
I2011
sg58
VLOS
p490
sbag1
(g2
g3
NtRp491
(dp492
g66
V10.1111/j.1365-313X.2008.03690.x
p493
sg62
VPLANT J
p494
sg64
V57
p495
sg99
(lp496
(VKAWASHIMA
VC G
tp497
asg22
I2009
sg58
VLANT
p498
sbag1
(g2
g3
NtRp499
(dp500
g66
V10.1016/S0735-2689(01)80006-X
p501
sg62
VCRIT REV PLANT SCI
p502
sg64
V19
p503
sg99
(lp504
(VKINNERSLEY
VA M
tp505
asg22
I2000
sg58
V479
p506
sbag1
(g2
g3
NtRp507
(dp508
g66
V10.1007/s00425-011-1413-0
p509
sg62
VPLANTA
p510
sg64
V234
p511
sg99
(lp512
(VKNAUPP
VM
tp513
asg22
I2011
sg58
VLANTA
p514
sbag1
(g2
g3
NtRp515
(dp516
g66
V10.1104/pp.122.3.737
p517
sg62
VPLANT PHYSIOL
p518
sg64
V122
p519
sg99
(lp520
(VKOPRIVOVA
VA
tp521
asg22
I2000
sg58
VLANT
p522
sbag1
(g2
g3
NtRp523
(dp524
g66
Nsg62
VADV PHOTOSYNTHESIS
p525
sg64
Nsg99
(lp526
(VKRAPP
VA
tp527
asg22
I2002
sg58
Nsbag1
(g2
g3
NtRp528
(dp529
g66
V10.1186/gb-2010-11-12-r123
p530
sg62
VGENOME BIOL
p531
sg64
V11
p532
sg99
(lp533
(VKROUK
VG
tp534
asg22
I2010
sg58
Nsbag1
(g2
g3
NtRp535
(dp536
g66
V10.1094/MPMI-22-4-0469
p537
sg62
VMOL PLANT MICROBE IN
p538
sg64
V22
p539
sg99
(lp540
(VLA
VCAMERA S
tp541
asg22
I2009
sg58
V469
p542
sbag1
(g2
g3
NtRp543
(dp544
g66
V10.1111/j.1365-2389.2004.00620.x
p545
sg62
VEUR J SOIL SCI
p546
sg64
V55
p547
sg99
(lp548
(VLARK
VR M
tp549
asg22
I2004
sg58
V611
p550
sbag1
(g2
g3
NtRp551
(dp552
g66
V10.1046/j.1365-313X.1999.00480.x
p553
sg62
VPLANT J
p554
sg64
V18
p555
sg99
(lp556
(VLEJAY
VL
tp557
asg22
I1999
sg58
VLANT
p558
sbag1
(g2
g3
NtRp559
(dp560
g66
V10.1073/pnas.1018665108
p561
sg62
VP NATL ACAD SCI USA
p562
sg64
V108
p563
sg99
(lp564
(VLI
VP
tp565
asg22
I2011
sg58
V3436
p566
sbag1
(g2
g3
NtRp567
(dp568
g66
V10.1104/pp.106.091223
p569
sg62
VPLANT PHYSIOL
p570
sg64
V143
p571
sg99
(lp572
(VLI
VW B
tp573
asg22
I2007
sg58
VLANT
p574
sbag1
(g2
g3
NtRp575
(dp576
g66
V10.1105/tpc.108.059444
p577
sg62
VPLANT CELL
p578
sg64
V20
p579
sg99
(lp580
(VLI
VW X
tp581
asg22
I2008
sg58
VLANT
p582
sbag1
(g2
g3
NtRp583
(dp584
g66
V10.1105/tpc.108.060244
p585
sg62
VPLANT CELL
p586
sg64
V20
p587
sg99
(lp588
(VLIN
VS H
tp589
asg22
I2008
sg58
VLANT
p590
sbag1
(g2
g3
NtRp591
(dp592
g66
V10.1105/tpc.11.5.865
p593
sg62
VPLANT CELL
p594
sg64
V11
p595
sg99
(lp596
(VLIU
VK H
tp597
asg22
I1999
sg58
VLANT
p598
sbag1
(g2
g3
NtRp599
(dp600
g66
V10.1007/s00425-002-0785-6
p601
sg62
VPLANTA
p602
sg64
V215
p603
sg99
(lp604
(VLOULAKAKIS
VK A
tp605
asg22
I2002
sg58
VLANTA
p606
sbag1
(g2
g3
NtRp607
(dp608
g66
V10.1105/tpc.104.022236
p609
sg62
VPLANT CELL
p610
sg64
V16
p611
sg99
(lp612
(VLURIN
VC
tp613
asg22
I2004
sg58
VLANT
p614
sbag1
(g2
g3
NtRp615
(dp616
g66
V10.1034/j.1399-3054.1999.105309.x
p617
sg62
VPHYSIOL PLANTARUM
p618
sg64
V105
p619
sg99
(lp620
(VLUTTS
VS
tp621
asg22
I1999
sg58
VHYSIOL
p622
sbag1
(g2
g3
NtRp623
(dp624
g66
Nsg62
VMINERAL NUTR HIGHER
p625
sg64
Nsg99
(lp626
(VMARSCHNER
VM
tp627
asg22
I1995
sg58
Nsbag1
(g2
g3
NtRp628
(dp629
g66
V10.1007/s004250000310
p630
sg62
VPLANTA
p631
sg64
V211
p632
sg99
(lp633
(VMASCLAUX
VC
tp634
asg22
I2000
sg58
VLANTA
p635
sbag1
(g2
g3
NtRp636
(dp637
g66
V10.1093/aob/mcq028
p638
sg62
VANN BOT
p639
sg64
V105
p640
sg99
(lp641
(VMASCLAUX-DAUBRESSE
VC
tp642
asg22
I2010
sg58
V1141
p643
sbag1
(g2
g3
NtRp644
(dp645
g66
V10.1104/pp.105.071910
p646
sg62
VPLANT PHYSIOL
p647
sg64
V140
p648
sg99
(lp649
(VMASCLAUX-DAUBRESSE
VC
tp650
asg22
I2006
sg58
VLANT
p651
sbag1
(g2
g3
NtRp652
(dp653
g66
V10.1046/j.1365-313X.2002.01323.x
p654
sg62
VPLANT J
p655
sg64
V30
p656
sg99
(lp657
(VMATT
VP
tp658
asg22
I2002
sg58
VLANT
p659
sbag1
(g2
g3
NtRp660
(dp661
g66
V10.1093/mp/ssq024
p662
sg62
VMOL PLANT
p663
sg64
V3
sg99
(lp664
(VMAZARS
VC
tp665
asg22
I2010
sg58
V706
p666
sbag1
(g2
g3
NtRp667
(dp668
g66
V10.1073/pnas.93.10.4718
p669
sg62
VP NATL ACAD SCI USA
p670
sg64
V93
p671
sg99
(lp672
(VMELOOLIVEIRA
VR
tp673
asg22
I1996
sg58
V4718
p674
sbag1
(g2
g3
NtRp675
(dp676
g66
Nsg62
VBIOCH PLANTS
p677
sg64
V5
sg99
(lp678
(VMIFLIN
VB J
tp679
asg22
I1980
sg58
V169
p680
sbag1
(g2
g3
NtRp681
(dp682
g66
V10.1093/jxb/erm066
p683
sg62
VJ EXP BOT
p684
sg64
V58
p685
sg99
(lp686
(VMILLER
VA J
tp687
asg22
I2007
sg58
V2297
p688
sbag1
(g2
g3
NtRp689
(dp690
g66
V10.1111/j.1365-313X.2010.04425.x
p691
sg62
VPLANT J
p692
sg64
V65
p693
sg99
(lp694
(VMOLLA-MORALES
VA
tp695
asg22
I2011
sg58
VLANT
p696
sbag1
(g2
g3
NtRp697
(dp698
g66
V10.1111/j.1469-8137.2009.02837.x
p699
sg62
VNEW PHYTOL
p700
sg64
V183
p701
sg99
(lp702
(VMONACHELLO
VD
tp703
asg22
I2009
sg58
V88
p704
sbag1
(g2
g3
NtRp705
(dp706
g66
V10.1111/j.1365-3040.2006.01608.x
p707
sg62
VPLANT CELL ENVIRON
p708
sg64
V30
p709
sg99
(lp710
(VMORCUENDE
VR
tp711
asg22
I2007
sg58
VLANT
p712
sbag1
(g2
g3
NtRp713
(dp714
g66
V10.1093/bioinformatics/btn428
p715
sg62
VBIOINFORMATICS
p716
sg64
V24
p717
sg99
(lp718
(VMOXON
VS
tp719
asg22
I2008
sg58
V2252
p720
sbag1
(g2
g3
NtRp721
(dp722
g66
V10.1105/tpc.104.024380
p723
sg62
VPLANT CELL
p724
sg64
V16
p725
sg99
(lp726
(VMUNOS
VS
tp727
asg22
I2004
sg58
VLANT
p728
sbag1
(g2
g3
NtRp729
(dp730
g66
V10.1104/pp.108.122465
p731
sg62
VPLANT PHYSIOL
p732
sg64
V147
p733
sg99
(lp734
(VNISHIZAWA
VA
tp735
asg22
I2008
sg58
VLANT
p736
sbag1
(g2
g3
NtRp737
(dp738
g66
V10.1016/S1369-5266(00)00068-6
p739
sg62
VCURR OPIN PLANT BIOL
p740
sg64
V3
sg99
(lp741
(VOHLROGGE
VJ
tp742
asg22
I2000
sg58
V224
p743
sbag1
(g2
g3
NtRp744
(dp745
g66
V10.1016/0003-9861(73)90435-9
p746
sg62
VARCH BIOCHEM BIOPHYS
p747
sg64
V159
p748
sg99
(lp749
(VONEAL
VD
tp750
asg22
I1973
sg58
V113
p751
sbag1
(g2
g3
NtRp752
(dp753
g66
Nsg62
VPLANT FUNCTIONAL GEN
p754
sg64
Nsg99
(lp755
(VORSEL
VM
tp756
asg22
I2005
sg58
VLANT
p757
sbag1
(g2
g3
NtRp758
(dp759
g66
V10.1111/j.1365-313X.2007.03328.x
p760
sg62
VPLANT J
p761
sg64
V53
p762
sg99
(lp763
(VOSSOWSKI
VS
tp764
asg22
I2008
sg58
VLANT
p765
sbag1
(g2
g3
NtRp766
(dp767
g66
V10.1104/pp.109.139139
p768
sg62
VPLANT PHYSIOL
p769
sg64
V150
p770
sg99
(lp771
(VPANT
VB D
tp772
asg22
I2009
sg58
VLANT
p773
sbag1
(g2
g3
NtRp774
(dp775
g66
V10.1111/j.1365-3040.2010.02158.x
p776
sg62
VPLANT CELL ENVIRON
p777
sg64
V33
p778
sg99
(lp779
(VPATTERSON
VK
tp780
asg22
I2010
sg58
VLANT
p781
sbag1
(g2
g3
NtRp782
(dp783
g66
Nsg62
VNitrogen fertilization in the environment
p784
sg64
Nsg99
(lp785
(VPEOPLES
VM B
tp786
asg22
I1995
sg58
V565
p787
sbag1
(g2
g3
NtRp788
(dp789
g66
V10.1111/j.1365-313X.2010.04189.x
p790
sg62
VPLANT J
p791
sg64
V62
p792
sg99
(lp793
(VPRACHAROENWATTANA
VI
tp794
asg22
I2010
sg58
VLANT
p795
sbag1
(g2
g3
NtRp796
(dp797
g66
V10.1186/1471-2229-10-20
p798
sg62
VBMC PLANT BIOL
p799
sg64
V10
p800
sg99
(lp801
(VRENAULT
VH
tp802
asg22
I2010
sg58
Nsbag1
(g2
g3
NtRp803
(dp804
g66
V10.1016/j.plantsci.2003.12.01
p805
sg62
VPLANT SCI
p806
sg64
V166
p807
sg99
(lp808
(VRESTIVO
VF M
tp809
asg22
I2004
sg58
VLANT
p810
sbag1
(g2
g3
NtRp811
(dp812
g66
V10.1371/journal.pone.0000430
p813
sg62
VPLOS ONE
p814
sg64
V2
sg99
(lp815
(VRICAUD
VL
tp816
asg22
I2007
sg58
VLOS
p817
sbag1
(g2
g3
NtRp818
(dp819
g66
Nsg62
VBIOCHEM SOC T
p820
sg64
V33
p821
sg99
(lp822
(VROLLAND
VF
tp823
asg22
I2005
sg58
V269
p824
sbag1
(g2
g3
NtRp825
(dp826
g66
V10.1111/j.1365-313X.2006.02765.x
p827
sg62
VPLANT J
p828
sg64
V46
p829
sg99
(lp830
(VROOK
VF
tp831
asg22
I2006
sg58
VLANT
p832
sbag1
(g2
g3
NtRp833
(dp834
g66
V10.1186/1471-2229-11-19
p835
sg62
VBMC PLANT BIOL
p836
sg64
V11
p837
sg99
(lp838
(VROUACHED
VH
tp839
asg22
I2011
sg58
Nsbag1
(g2
g3
NtRp840
(dp841
g66
V10.1046/j.1365-313X.1997.11040671.x
p842
sg62
VPLANT J
p843
sg64
V11
p844
sg99
(lp845
(VSCHEIBLE
VW R
tp846
asg22
I1997
sg58
VLANT
p847
sbag1
(g2
g3
NtRp848
(dp849
g66
V10.1104/pp.104.047019
p850
sg62
VPLANT PHYSIOL
p851
sg64
V136
p852
sg99
(lp853
(VSCHEIBLE
VW R
tp854
asg22
I2004
sg58
VLANT
p855
sbag1
(g2
g3
NtRp856
(dp857
g66
V10.1093/pcp/pci145
p858
sg62
VPLANT CELL PHYSIOL
p859
sg64
V46
p860
sg99
(lp861
(VSHIN
VR
tp862
asg22
I2005
sg58
VLANT
p863
sbag1
(g2
g3
NtRp864
(dp865
g66
V10.1105/tpc.105.038323
p866
sg62
VPLANT CELL
p867
sg64
V18
p868
sg99
(lp869
(VSKOPELITIS
VD S
tp870
asg22
I2006
sg58
VLANT
p871
sbag1
(g2
g3
NtRp872
(dp873
g66
V10.1111/j.1399-3054.1985.tb02326.x
p874
sg62
VPHYSIOL PLANTARUM
p875
sg64
V64
p876
sg99
(lp877
(VSMIRNOFF
VN
tp878
asg22
I1985
sg58
VHYSIOL
p879
sbag1
(g2
g3
NtRp880
(dp881
g66
V10.1146/annurev.pp.30.060179.001445
p882
sg62
VANNU REV PLANT PHYS
p883
sg64
V30
p884
sg99
(lp885
(VSMITH
VF A
tp886
asg22
I1979
sg58
V289
p887
sbag1
(g2
g3
NtRp888
(dp889
g66
V10.1046/j.1365-3040.1999.00386.x
p890
sg62
VPLANT CELL ENVIRON
p891
sg64
V22
p892
sg99
(lp893
(VSTITT
VM
tp894
asg22
I1999
sg58
VLANT
p895
sbag1
(g2
g3
NtRp896
(dp897
g66
V10.1097/01.ss.0000209355.76407.16
p898
sg62
VSOIL SCI
p899
sg64
V171
p900
sg99
(lp901
(VSTRAHM
VB D
tp902
asg22
I2006
sg58
V313
p903
sbag1
(g2
g3
NtRp904
(dp905
g66
V10.1073/pnas.0903478106
p906
sg62
VP NATL ACAD SCI USA
p907
sg64
V106
p908
sg99
(lp909
(VSULPICE
VR
tp910
asg22
I2009
sg58
V10348
p911
sbag1
(g2
g3
NtRp912
(dp913
g66
V10.1093/jxb/erp116
p914
sg62
VJ EXP BOT
p915
sg64
V60
p916
sg99
(lp917
(VSYLVESTER-BRADLEY
VR
tp918
asg22
I2009
sg58
V1939
p919
sbag1
(g2
g3
NtRp920
(dp921
g66
V10.1046/j.0960-7412.2001.01227.x
p922
sg62
VPLANT J
p923
sg64
V29
p924
sg99
(lp925
(VTAJI
VT
tp926
asg22
I2002
sg58
VLANT
p927
sbag1
(g2
g3
NtRp928
(dp929
g66
V10.1104/pp.104.047548
p930
sg62
VPLANT PHYSIOL
p931
sg64
V136
p932
sg99
(lp933
(VTERCE-LAFORGUE
VT
tp934
asg22
I2004
sg58
VLANT
p935
sbag1
(g2
g3
NtRp936
(dp937
g66
V10.1126/science.1060391
p938
sg62
VSCIENCE
p939
sg64
V294
p940
sg99
(lp941
(VTILMAN
VD
tp942
asg22
I2001
sg58
V843
p943
sbag1
(g2
g3
NtRp944
(dp945
g66
V10.1016/0092-8674(93)90399-B
p946
sg62
VCELL
p947
sg64
V72
p948
sg99
(lp949
(VTSAY
VY F
tp950
asg22
I1993
sg58
V705
p951
sbag1
(g2
g3
NtRp952
(dp953
g66
V10.1111/j.1365-3040.2008.01921.x
p954
sg62
VPLANT CELL ENVIRON
p955
sg64
V32
p956
sg99
(lp957
(VTSCHOEP
VH
tp958
asg22
I2009
sg58
VLANT
p959
sbag1
(g2
g3
NtRp960
(dp961
g66
V10.1034/j.1399-3054.1998.1040307.x
p962
sg62
VPHYSIOL PLANTARUM
p963
sg64
V104
p964
sg99
(lp965
(VTURANO
VF J
tp966
asg22
I1998
sg58
VHYSIOL
p967
sbag1
(g2
g3
NtRp968
(dp969
g66
V10.1046/j.1365-313x.2000.00665.x
p970
sg62
VPLANT J
p971
sg64
V21
p972
sg99
(lp973
(VVON
VWIREN N
tp974
asg22
I2000
sg58
VLANT
p975
sbag1
(g2
g3
NtRp976
(dp977
g66
V10.1105/tpc.12.8.1491
p978
sg62
VPLANT CELL
p979
sg64
V12
p980
sg99
(lp981
(VWANG
VR C
tp982
asg22
I2000
sg58
VLANT
p983
sbag1
(g2
g3
NtRp984
(dp985
g66
V10.1073/pnas.95.25.15134
p986
sg62
VP NATL ACAD SCI USA
p987
sg64
V95
p988
sg99
(lp989
(VWANG
VR C
tp990
asg22
I1998
sg58
V15134
p991
sbag1
(g2
g3
NtRp992
(dp993
g66
V10.1104/pp.044610
p994
sg62
VPLANT PHYSIOL
p995
sg64
V136
p996
sg99
(lp997
(VWANG
VR C
tp998
asg22
I2004
sg58
VLANT
p999
sbag1
(g2
g3
NtRp1000
(dp1001
g66
V10.1104/pp.109.140434
p1002
sg62
VPLANT PHYSIOL
p1003
sg64
V151
p1004
sg99
(lp1005
(VWANG
VR C
tp1006
asg22
I2009
sg58
VLANT
p1007
sbag1
(g2
g3
NtRp1008
(dp1009
g66
V10.1104/pp.103.021253
p1010
sg62
VPLANT PHYSIOL
p1011
sg64
V132
p1012
sg99
(lp1013
(VWANG
VR C
tp1014
asg22
I2003
sg58
VLANT
p1015
sbag1
(g2
g3
NtRp1016
(dp1017
g66
V10.1074/jbc.M109.054288
p1018
sg62
VJ BIOL CHEM
p1019
sg64
V285
p1020
sg99
(lp1021
(VYAMADA
VK
tp1022
asg22
I2010
sg58
V1138
p1023
sbag1
(g2
g3
NtRp1024
(dp1025
g66
V10.1093/nar/gki383
p1026
sg62
VNUCLEIC ACIDS RES
p1027
sg64
V33
p1028
sg99
(lp1029
(VZHANG
VY J
tp1030
asg22
I2005
sg58
VW701
p1031
sbag1
(g2
g3
NtRp1032
(dp1033
g66
V10.1111/j.1469-8137.2011.03647.x
p1034
sg62
VNEW PHYTOL
p1035
sg64
V190
p1036
sg99
(lp1037
(VZHAO
VM
tp1038
asg22
I2011
sg58
V906
p1039
sbag1
(g2
g3
NtRp1040
(dp1041
g66
V10.1016/j.febslet.2004.09.006
p1042
sg62
VFEBS LETT
p1043
sg64
V576
p1044
sg99
(lp1045
(VZUTHER
VE
tp1046
asg22
I2004
sg58
V169
p1047
sbasb.