ccopy_reg
_reconstructor
p1
(ctethne.classes.paper
Paper
p2
c__builtin__
object
p3
NtRp4
(dp5
S'publisherCity'
p6
VROCKVILLE
p7
sS'reprintAddress'
p8
VGao, KS (reprint author), Xiamen Univ, State Key Lab Marine Environm Sci, Xiamen 361005, Peoples R China.
p9
sS'WC'
p10
VPlant Sciences
p11
sS'GA'
p12
V049QJ
p13
sS'FX'
p14
(lp15
VThis work was supported by the National Basic Research Program of China
p16
aV(grant no. 2009CB421207 to K.G.), the National Natural Science
p17
aVFoundation (grant nos. 41120164007 to KG., 41106093 to J.X., and
p18
aV40930846 to K.G.), the Natural Science Foundation of Jiangsu Province
p19
aV(grant no. BK2011400 to J.X.), the Program for Changjiang Scholars and
p20
aVInnovative Research Team (grant no. IRT0941), and a China-Japan
p21
aVcollaboration project from the Ministry of Science and Technology of
p22
aVChina (grant no. S2012GR0290 to K.G).
p23
asS'pageEnd'
p24
I1769
sS'date'
p25
I2012
sS'documentType'
p26
VArticle
p27
sS'subject'
p28
VPlant Sciences
p29
sS'isoSource'
p30
VPlant Physiol.
p31
sS'timesCited'
p32
(lp33
I0
aVZ9 1
p34
asS'funding'
p35
(lp36
(VNational Basic Research Program of China
V2009CB421207
tp37
a(VNational Natural Science Foundation
V41120164007, 41106093, 40930846
tp38
a(VNatural Science Foundation of Jiangsu Province
VBK2011400
tp39
a(VProgram for Changjiang Scholars and Innovative Research Team
VIRT0941
tp40
a(VMinistry of Science and Technology of China
VS2012GR0290
tp41
asS'PT'
p42
VJ
sS'title'
p43
VFuture Co2-Induced Ocean Acidification Mediates The Physiological Performance Of A Green Tide Alga
p44
sS'ISSN'
p45
(lp46
V0032-0889
p47
aVJ9 PLANT PHYSIOL
p48
asS'authors_full'
p49
(lp50
(VXU
VJUNTIAN
tp51
a(VGAO
VKUNSHAN
tp52
asS'PG'
p53
I8
sS'PD'
p54
VDEC
p55
sS'pageStart'
p56
I1762
sS'issue'
p57
I4
sS'journal'
p58
VPLANT PHYSIOLOGY
p59
sS'volume'
p60
V160
p61
sS'doi'
p62
V10.1104/pp.112.206961
p63
sS'emailAddress'
p64
Vksgao@xmu.edu.cn
p65
sS'authorAddress'
p66
(lp67
V[Xu, Juntian; Gao, Kunshan] Xiamen Univ, State Key Lab Marine Environm Sci, Xiamen 361005, Peoples R China.
p68
aV[Xu, Juntian] Huaihai Inst Technol, Sch Marine Sci & Technol, Lianyungang 222005, Peoples R China.
p69
asS'publisherAddress'
p70
V15501 MONONA DRIVE, ROCKVILLE, MD 20855 USA
p71
sS'ER'
p72
V
sS'publisher'
p73
VAMER SOC PLANT BIOLOGISTS
p74
sS'authorKeywords'
p75
(lp76
VPHOTOSYNTHETIC ELECTRON-TRANSPORT
p77
aVCARBON-CONCENTRATING MECHANISMS
p78
aVELEVATED ATMOSPHERIC CO2
p79
aVSOLAR UV-RADIATION
p80
aVMARINE MACROALGAE
p81
aVULVA-RIGIDA
p82
aVGROWTH
p83
aVSEAWEED
p84
aVLIGHT
p85
aVCHLOROPHYTA
p86
asS'language'
p87
VEnglish
p88
sS'wosid'
p89
VWOS:000311998200009
p90
sS'citationCount'
p91
I62
sS'authors_init'
p92
(lp93
(VXU
VJ T
tp94
a(VGAO
VK S
tp95
asS'citedReferences'
p96
(lp97
g1
(g2
g3
NtRp98
(dp99
g62
V10.1146/annurev.arplant.50.1.601
p100
sg58
VANNU REV PLANT PHYS
p101
sg60
V50
p102
sg92
(lp103
(VASADA
VK
tp104
asg25
I1999
sg56
V601
p105
sbag1
(g2
g3
NtRp106
(dp107
g62
V10.1039/b9pp00034h
p108
sg58
VPHOTOCH PHOTOBIO SCI
p109
sg60
V8
sg92
(lp110
(VBEARDALL
VJ
tp111
asg25
I2009
sg56
VHOTOCH
p112
sbag1
(g2
g3
NtRp113
(dp114
g62
V10.2475/05.2006.01
p115
sg58
VAM J SCI
p116
sg60
V306
p117
sg92
(lp118
(VBERNER
VR A
tp119
asg25
I2006
sg56
V295
p120
sbag1
(g2
g3
NtRp121
(dp122
g62
V10.1111/j.0022-3646.1993.00166.x
p123
sg58
VJ PHYCOL
p124
sg60
V29
p125
sg92
(lp126
(VBJORK
VM
tp127
asg25
I1993
sg56
V166
p128
sbag1
(g2
g3
NtRp129
(dp130
g62
V10.1093/aob/mch090
p131
sg58
VANN BOT
p132
sg60
V93
p133
sg92
(lp134
(VBUNCE
VJ A
tp135
asg25
I2004
sg56
V665
p136
sbag1
(g2
g3
NtRp137
(dp138
g62
V[10.1038/NGEO1297, 10.1038/ngeo1297]
p139
sg58
VNAT GEOSCI
p140
sg60
V4
sg92
(lp141
(VCAI
VW J
tp142
asg25
I2011
sg56
V766
p143
sbag1
(g2
g3
NtRp144
(dp145
g62
V10.1111/j.1365-2486.2009.01943.x
p146
sg58
VGLOBAL CHANGE BIOL
p147
sg60
V16
p148
sg92
(lp149
(VCRAWLEY
VA
tp150
asg25
I2010
sg56
V851
p151
sbag1
(g2
g3
NtRp152
(dp153
g62
V10.1146/annurev.marine.010908.163834
p154
sg58
VANNU REV MAR SCI
p155
sg60
V1
sg92
(lp156
(VDONEY
VS C
tp157
asg25
I2009
sg56
V169
p158
sbag1
(g2
g3
NtRp159
(dp160
g62
Nsg58
VPHOTOSYNTHESIS ALGAE
p161
sg60
Nsg92
(lp162
(VDOUGLAS
VS E
tp163
asg25
I2004
sg56
VHOTOSYNTHESIS
p164
sbag1
(g2
g3
NtRp165
(dp166
g62
V10.1046/j.1529-8817.2001.00156.x
p167
sg58
VJ PHYCOL
p168
sg60
V37
p169
sg92
(lp170
(VFRANKLIN
VL A
tp171
asg25
I2001
sg56
V756
p172
sbag1
(g2
g3
NtRp173
(dp174
g62
V10.1007/BF02184635
p175
sg58
VJ APPL PHYCOL
p176
sg60
V5
sg92
(lp177
(VGAO
VK
tp178
asg25
I1993
sg56
V563
p179
sbag1
(g2
g3
NtRp180
(dp181
g62
V10.1007/BF02392889
p182
sg58
VJ APPL PHYCOL
p183
sg60
V3
sg92
(lp184
(VGAO
VK
tp185
asg25
I1991
sg56
V355
p186
sbag1
(g2
g3
NtRp187
(dp188
g62
Nsg58
VHYDROBIOLOGIA
p189
sg60
V399
p190
sg92
(lp191
(VGAO
VK S
tp192
asg25
I1999
sg56
V355
p193
sbag1
(g2
g3
NtRp194
(dp195
g62
V10.1111/j.1365-2486.2009.02113.x
p196
sg58
VGLOBAL CHANGE BIOL
p197
sg60
V16
p198
sg92
(lp199
(VGAO
VK S
tp200
asg25
I2010
sg56
V2388
p201
sbag1
(g2
g3
NtRp202
(dp203
g62
V10.1038/NCLIMATE1507
p204
sg58
VNAT CLIM CHANGE
p205
sg60
V2
sg92
(lp206
(VGAO
VK S
tp207
asg25
I2012
sg56
V519
p208
sbag1
(g2
g3
NtRp209
(dp210
g62
Nsg58
VPLANTA
p211
sg60
V194
p212
sg92
(lp213
(VGARCIASANCHEZ
VM J
tp214
asg25
I1994
sg56
VLANTA
p215
sbag1
(g2
g3
NtRp216
(dp217
g62
Nsg58
VBIOCHIM BIOPHYS ACTA
p218
sg60
V990
p219
sg92
(lp220
(VGENTY
VB
tp221
asg25
I1989
sg56
V87
p222
sbag1
(g2
g3
NtRp223
(dp224
g62
V10.1146/annurev.arplant.56.032604.144052
p225
sg58
VANNU REV PLANT BIOL
p226
sg60
V56
p227
sg92
(lp228
(VGIORDANO
VM
tp229
asg25
I2005
sg56
V99
p230
sbag1
(g2
g3
NtRp231
(dp232
g62
V10.1007/s00425-003-1087-3
p233
sg58
VPLANTA
p234
sg60
V218
p235
sg92
(lp236
(VGORDILLO
VF J L
tp237
asg25
I2003
sg56
VLANTA
p238
sbag1
(g2
g3
NtRp239
(dp240
g62
V10.1007/s004250000468
p241
sg58
VPLANTA
p242
sg60
V213
p243
sg92
(lp244
(VGORDILLO
VF J L
tp245
asg25
I2001
sg56
VLANTA
p246
sbag1
(g2
g3
NtRp247
(dp248
g62
V10.1126/science.1216773
p249
sg58
VSCIENCE
p250
sg60
V337
p251
sg92
(lp252
(VGRUBER
VN
tp253
asg25
I2012
sg56
V220
p254
sbag1
(g2
g3
NtRp255
(dp256
g62
V10.1111/j.1365-2486.2011.02411.x
p257
sg58
VGLOBAL CHANGE BIOL
p258
sg60
V17
p259
sg92
(lp260
(VHEPBURN
VC D
tp261
asg25
I2011
sg56
V2488
p262
sbag1
(g2
g3
NtRp263
(dp264
g62
V10.1073/pnas.1018062108
p265
sg58
VP NATL ACAD SCI USA
p266
sg60
V108
p267
sg92
(lp268
(VHOPKINSON
VB M
tp269
asg25
I2011
sg56
V3830
p270
sbag1
(g2
g3
NtRp271
(dp272
g62
Nsg58
VCLIMATE CHANGE 2001
p273
sg60
Nsg92
(lp274
(VHOUGHTON
VJ T
tp275
asg25
I2001
sg56
Nsbag1
(g2
g3
NtRp276
(dp277
g62
V10.1023/A:1008122306268
p278
sg58
VJ APPL PHYCOL
p279
sg60
V11
p280
sg92
(lp281
(VISRAEL
VA
tp282
asg25
I1999
sg56
V447
p283
sbag1
(g2
g3
NtRp284
(dp285
g62
V10.1046/j.1365-2486.2002.00518.x
p286
sg58
VGLOBAL CHANGE BIOL
p287
sg60
V8
sg92
(lp288
(VISRAEL
VA
tp289
asg25
I2002
sg56
V831
p290
sbag1
(g2
g3
NtRp291
(dp292
g62
Nsg58
VLIMNOL OCEANOGR
p293
sg60
V21
p294
sg92
(lp295
(VJASSBY
VA D
tp296
asg25
I1976
sg56
V540
p297
sbag1
(g2
g3
NtRp298
(dp299
g62
V10.1111/j.1365-2486.2012.02716.x
p300
sg58
VGLOBAL CHANGE BIOL
p301
sg60
V18
p302
sg92
(lp303
(VJOHNSON
VV R
tp304
asg25
I2012
sg56
V2792
p305
sbag1
(g2
g3
NtRp306
(dp307
g62
Nsg58
VBRIT PHYCOL J
p308
sg60
V25
p309
sg92
(lp310
(VJOHNSTON
VA M
tp311
asg25
I1990
sg56
V75
p312
sbag1
(g2
g3
NtRp313
(dp314
g62
V10.1073/pnas.182427499
p315
sg58
VP NATL ACAD SCI USA
p316
sg60
V99
p317
sg92
(lp318
(VKANAZAWA
VA
tp319
asg25
I2002
sg56
V12789
p320
sbag1
(g2
g3
NtRp321
(dp322
g62
V10.1016/j.marpolbul.2011.03.040
p323
sg58
VMAR POLLUT BULL
p324
sg60
V62
p325
sg92
(lp326
(VKEESING
VJ K
tp327
asg25
I2011
sg56
V1169
p328
sbag1
(g2
g3
NtRp329
(dp330
g62
V10.1046/j.1365-3040.1999.00492.x
p331
sg58
VPLANT CELL ENVIRON
p332
sg60
V22
p333
sg92
(lp334
(VKUBLER
VJ E
tp335
asg25
I1999
sg56
VLANT
p336
sbag1
(g2
g3
NtRp337
(dp338
g62
Nsg58
VEUR J PHYCOL
p339
sg60
V32
p340
sg92
(lp341
(VLARSSON
VC
tp342
asg25
I1997
sg56
V49
p343
sbag1
(g2
g3
NtRp344
(dp345
g62
V10.1002/bies.201100035
p346
sg58
VBIOESSAYS
p347
sg60
V33
p348
sg92
(lp349
(VLELIAERT
VF
tp350
asg25
I2011
sg56
V683
p351
sbag1
(g2
g3
NtRp352
(dp353
g62
V10.2216/11-65.1
p354
sg58
VPHYCOLOGIA
p355
sg60
V51
p356
sg92
(lp357
(VLIU
VY T
tp358
asg25
I2012
sg56
VHYCOLOGIA
p359
sbag1
(g2
g3
NtRp360
(dp361
g62
V10.1104/pp.104.047936
p362
sg58
VPLANT PHYSIOL
p363
sg60
V136
p364
sg92
(lp365
(VMACKENZIE
VT D B
tp366
asg25
I2004
sg56
VLANT
p367
sbag1
(g2
g3
NtRp368
(dp369
g62
V10.1023/A:1008194223558
p370
sg58
VJ APPL PHYCOL
p371
sg60
V11
p372
sg92
(lp373
(VMERCADO
VJ M
tp374
asg25
I1999
sg56
V455
p375
sbag1
(g2
g3
NtRp376
(dp377
g62
V10.1016/S1369-5266(02)00259-5
p378
sg58
VCURR OPIN PLANT BIOL
p379
sg60
V5
sg92
(lp380
(VORT
VD R
tp381
asg25
I2002
sg56
V193
p382
sbag1
(g2
g3
NtRp383
(dp384
g62
V10.1029/2008GL036084
p385
sg58
VGEOPHYS RES LETT
p386
sg60
V35
p387
sg92
(lp388
(VLU
VX G
tp389
asg25
I2008
sg56
Nsbag1
(g2
g3
NtRp390
(dp391
g62
V10.1046/j.1365-3040.1997.d01-67.x
p392
sg58
VPLANT CELL ENVIRON
p393
sg60
V20
p394
sg92
(lp395
(VRAVEN
VJ A
tp396
asg25
I1997
sg56
VLANT
p397
sbag1
(g2
g3
NtRp398
(dp399
g62
V10.1098/rstb.2011.0212
p400
sg58
VPHILOS T R SOC B
p401
sg60
V367
p402
sg92
(lp403
(VRAVEN
VJ A
tp404
asg25
I2012
sg56
VHILOS
p405
sbag1
(g2
g3
NtRp406
(dp407
g62
V10.1007/s11120-011-9632-6
p408
sg58
VPHOTOSYNTH RES
p409
sg60
V109
p410
sg92
(lp411
(VRAVEN
VJ A
tp412
asg25
I2011
sg56
VHOTOSYNTH
p413
sbag1
(g2
g3
NtRp414
(dp415
g62
V10.3354/meps123193
p416
sg58
VMAR ECOL PROG SER
p417
sg60
V123
p418
sg92
(lp419
(VRAVEN
VJ A
tp420
asg25
I1995
sg56
V193
p421
sbag1
(g2
g3
NtRp422
(dp423
g62
V10.1111/j.1365-2486.2011.02594.x
p424
sg58
VGLOBAL CHANGE BIOL
p425
sg60
V18
p426
sg92
(lp427
(VROLEDA
VM Y
tp428
asg25
I2012
sg56
V854
p429
sbag1
(g2
g3
NtRp430
(dp431
g62
Nsg58
VLIMNOL OCEANOGR
p432
sg60
V48
p433
sg92
(lp434
(VROST
VB
tp435
asg25
I2003
sg56
V55
p436
sbag1
(g2
g3
NtRp437
(dp438
g62
V10.1126/science.1097403
p439
sg58
VSCIENCE
p440
sg60
V305
p441
sg92
(lp442
(VSABINE
VC L
tp443
asg25
I2004
sg56
V367
p444
sbag1
(g2
g3
NtRp445
(dp446
g62
V10.4319/lo.2011.56.4.1200
p447
sg58
VLIMNOL OCEANOGR
p448
sg60
V56
p449
sg92
(lp450
(VSINUTOK
VS
tp451
asg25
I2011
sg56
V1200
p452
sbag1
(g2
g3
NtRp453
(dp454
g62
V10.1146/annurev.pp.30.060179.001445
p455
sg58
VANNU REV PLANT PHYS
p456
sg60
V30
p457
sg92
(lp458
(VSMITH
VF A
tp459
asg25
I1979
sg56
V289
p460
sbag1
(g2
g3
NtRp461
(dp462
g62
V10.1007/s11120-010-9607-z
p463
sg58
VPHOTOSYNTH RES
p464
sg60
V109
p465
sg92
(lp466
(VSPIJKERMAN
VE
tp467
asg25
I2011
sg56
VHOTOSYNTH
p468
sbag1
(g2
g3
NtRp469
(dp470
g62
V10.1104/pp.96.2.627
p471
sg58
VPLANT PHYSIOL
p472
sg60
V96
p473
sg92
(lp474
(VTHOMAS
VR B
tp475
asg25
I1991
sg56
VLANT
p476
sbag1
(g2
g3
NtRp477
(dp478
g62
V10.1007/s00338-008-0381-8
p479
sg58
VCORAL REEFS
p480
sg60
V27
p481
sg92
(lp482
(VVERON
VJ E N
tp483
asg25
I2008
sg56
V459
p484
sbag1
(g2
g3
NtRp485
(dp486
g62
V10.1007/BF00345747
p487
sg58
VOECOLOGIA
p488
sg60
V17
p489
sg92
(lp490
(VWEBB
VW L
tp491
asg25
I1974
sg56
V281
p492
sbag1
(g2
g3
NtRp493
(dp494
g62
Nsg58
VJ PLANT PHYSL
p495
sg60
V144
p496
sg92
(lp497
(VWELLBURN
VR
tp498
asg25
I1994
sg56
V307
p499
sbag1
(g2
g3
NtRp500
(dp501
g62
V10.1104/pp.120.4.1117
p502
sg58
VPLANT PHYSIOL
p503
sg60
V120
p504
sg92
(lp505
(VWILLMS
VJ R
tp506
asg25
I1999
sg56
VLANT
p507
sbag1
(g2
g3
NtRp508
(dp509
g62
V10.1127/1863-9135/2012/0299
p510
sg58
VFUND APPL LIMNOL
p511
sg60
V180
p512
sg92
(lp513
(VWU
VX J
tp514
asg25
I2012
sg56
V279
p515
sbag1
(g2
g3
NtRp516
(dp517
g62
V10.5194/bg-7-2915-2010
p518
sg58
VBIOGEOSCIENCES
p519
sg60
V7
sg92
(lp520
(VWU
VY
tp521
asg25
I2010
sg56
V2915
p522
sbag1
(g2
g3
NtRp523
(dp524
g62
V10.1007/BF00197119
p525
sg58
VPLANTA
p526
sg60
V182
p527
sg92
(lp528
(VYIN
VZ H
tp529
asg25
I1990
sg56
VLANTA
p530
sbag1
(g2
g3
NtRp531
(dp532
g62
V10.4319/lo.2011.56.1.0233
p533
sg58
VLIMNOL OCEANOGR
p534
sg60
V56
p535
sg92
(lp536
(VZHANG
VX W
tp537
asg25
I2011
sg56
V233
p538
sbag1
(g2
g3
NtRp539
(dp540
g62
V10.1002/9780470988695.ch2
p541
sg58
VPLANT GROWTH CLIMATE
p542
sg60
Nsg92
(lp543
(VZISKA
VL H
tp544
asg25
I2006
sg56
VLANT
p545
sbag1
(g2
g3
NtRp546
(dp547
g62
Nsg58
VACTA OCEANOL SIN
p548
sg60
V24
p549
sg92
(lp550
(VZOU
VD H
tp551
asg25
I2005
sg56
V105
p552
sbag1
(g2
g3
NtRp553
(dp554
g62
V10.1016/j.aquaculture.2005.05.014
p555
sg58
VAQUACULTURE
p556
sg60
V250
p557
sg92
(lp558
(VZOU
VD H
tp559
asg25
I2005
sg56
V726
p560
sbag1
(g2
g3
NtRp561
(dp562
g62
V10.1007/978-90-481-8569-6_7
p563
sg58
VCELL ORIG LIFE EXTRE
p564
sg60
V15
p565
sg92
(lp566
(VZOU
VD H
tp567
asg25
I2010
sg56
V115
p568
sbasb.