ccopy_reg
_reconstructor
p1
(ctethne.classes.paper
Paper
p2
c__builtin__
object
p3
NtRp4
(dp5
S'publisherCity'
p6
VROCKVILLE
p7
sS'reprintAddress'
p8
VSnell, KD (reprint author), Metabolix Inc, Cambridge, MA 02139 USA.
p9
sS'WC'
p10
VPlant Sciences
p11
sS'GA'
p12
V744LH
p13
sS'FX'
p14
(lp15
VThis work was supported by a Department of Energy Industry of the Future
p16
aVAward (grant no. DE-FC07-011D14214) and the U.S. Department of
p17
aVAgriculture (grant no. USDA-68-3A75-3-142).
p18
asS'abstract'
p19
VAn optimized genetic construct for plastid transformation of tobacco (Nicotiana tabacum) for the production of the renewable, biodegradable plastic polyhydroxybutyrate (PHB) was designed using an operon extension strategy. Bacterial genes encoding the PHB pathway enzymes were selected for use in this construct based on their similarity to the codon usage and GC content of the tobacco plastome. Regulatory elements with limited homology to the host plastome yet known to yield high levels of plastidial recombinant protein production were used to enhance the expression of the transgenes. A partial transcriptional unit, containing genes of the PHB pathway and a selectable marker gene encoding spectinomycin resistance, was flanked at the 5' end by the host plant's psbA coding sequence and at the 3' end by the host plant's 3' psbA untranslated region. This design allowed insertion of the transgenes into the plastome as an extension of the psbA operon, rendering the addition of a promoter to drive the expression of the transgenes unnecessary. Transformation of the optimized construct into tobacco and subsequent spectinomycin selection of transgenic plants yielded T0 plants that were capable of producing up to 18.8% dry weight PHB in samples of leaf tissue. These plants were fertile and produced viable seed. T1 plants producing up to 17.3% dry weight PHB in samples of leaf tissue and 8.8% dry weight PHB in the total biomass of the plant were also isolated.
p20
sS'pageEnd'
p21
I1708
sS'date'
p22
I2011
sS'documentType'
p23
VArticle
p24
sS'subject'
p25
VPlant Sciences
p26
sS'isoSource'
p27
VPlant Physiol.
p28
sS'timesCited'
p29
(lp30
I15
aVZ9 15
p31
asS'funding'
p32
(lp33
(VDepartment of Energy
VDE-FC07-011D14214
tp34
a(VU.S. Department of Agriculture
VUSDA-68-3A75-3-142
tp35
asS'PT'
p36
VJ
sS'title'
p37
VHigh Levels Of Bioplastic Are Produced In Fertile Transplastomic Tobacco Plants Engineered With A Synthetic Operon For The Production Of Polyhydroxybutyrate
p38
sS'ISSN'
p39
(lp40
V0032-0889
p41
aVJ9 PLANT PHYSIOL
p42
asS'authors_full'
p43
(lp44
(VBOHMERTTATAREV
VKAREN
tp45
a(VMCAVOY
VSUSAN
tp46
a(VDAUGHTRY
VSEAN
tp47
a(VPEOPLES
VOLIVER P
tp48
a(VSNELL
VKRISTI D
tp49
asS'PG'
p50
I19
sS'PD'
p51
VAPR
p52
sS'pageStart'
p53
I1690
sS'issue'
p54
I4
sS'journal'
p55
VPLANT PHYSIOLOGY
p56
sS'volume'
p57
V155
p58
sS'doi'
p59
V10.1104/pp.110.169581
p60
sS'emailAddress'
p61
Vsnell@metabolix.com
p62
sS'authorAddress'
p63
V[Bohmert-Tatarev, Karen; McAvoy, Susan; Daughtry, Sean; Peoples, Oliver P.; Snell, Kristi D.] Metabolix Inc, Cambridge, MA 02139 USA.
p64
sS'publisherAddress'
p65
V15501 MONONA DRIVE, ROCKVILLE, MD 20855 USA
p66
sS'ER'
p67
V
sS'publisher'
p68
VAMER SOC PLANT BIOLOGISTS
p69
sS'authorKeywords'
p70
(lp71
VCOMPLETE NUCLEOTIDE-SEQUENCE
p72
aVPSBA MESSENGER-RNA
p73
aVPLASTID TRANSFORMATION
p74
aVGENE-EXPRESSION
p75
aVTRANSLATION EFFICIENCY
p76
aVALCALIGENES-EUTROPHUS
p77
aVCHLOROPLAST GENOME
p78
aVRIBOSOMAL-PROTEIN
p79
aVBETA-KETOTHIOLASE
p80
aVIN-VIVO
p81
asS'language'
p82
VEnglish
p83
sS'wosid'
p84
VWOS:000289095500022
p85
sS'citationCount'
p86
I75
sS'authors_init'
p87
(lp88
(VBOHMERTTATAREV
VK
tp89
a(VMCAVOY
VS
tp90
a(VDAUGHTRY
VS
tp91
a(VPEOPLES
VO P
tp92
a(VSNELL
VK D
tp93
asS'citedReferences'
p94
(lp95
g1
(g2
g3
NtRp96
(dp97
g59
Nsg55
VBIOPOLYMERS B
p98
sg57
V3b
p99
sg87
(lp100
(VABE
VH
tp101
asg22
I2002
sg53
V105
p102
sbag1
(g2
g3
NtRp103
(dp104
g59
V10.1093/pcp/pch139
p105
sg55
VPLANT CELL PHYSIOL
p106
sg57
V45
p107
sg87
(lp108
(VARAI
VY
tp109
asg22
I2004
sg53
VLANT
p110
sbag1
(g2
g3
NtRp111
(dp112
g59
V10.5511/plantbiotechnology.18.289
p113
sg55
VPLANT BIOTECHNOL
p114
sg57
V18
p115
sg87
(lp116
(VARAI
VY
tp117
asg22
I2001
sg53
VLANT
p118
sbag1
(g2
g3
NtRp119
(dp120
g59
V10.1007/s004250000350
p121
sg55
VPLANTA
p122
sg57
V211
p123
sg87
(lp124
(VBOHMERT
VK
tp125
asg22
I2000
sg53
VLANTA
p126
sbag1
(g2
g3
NtRp127
(dp128
g59
V10.1104/pp.010615
p129
sg55
VPLANT PHYSIOL
p130
sg57
V128
p131
sg87
(lp132
(VBOHMERT
VK
tp133
asg22
I2002
sg53
VLANT
p134
sbag1
(g2
g3
NtRp135
(dp136
g59
V10.1006/abio.1976.9999
p137
sg55
VANAL BIOCHEM
p138
sg57
V72
p139
sg87
(lp140
(VBRADFORD
VM M
tp141
asg22
I1976
sg53
V248
p142
sbag1
(g2
g3
NtRp143
(dp144
g59
V10.1016/S1360-1385(99)01402-8
p145
sg55
VTRENDS PLANT SCI
p146
sg57
V4
sg87
(lp147
(VBRUICK
VR K
tp148
asg22
I1999
sg53
V190
p149
sbag1
(g2
g3
NtRp150
(dp151
g59
Nsg55
VCHEM WEEK       1115
p152
sg57
Nsg87
(lp153
(VCOONS
VR
tp154
asg22
I2010
sg53
Nsbag1
(g2
g3
NtRp155
(dp156
g59
Nsg55
VMethods Mol Biol
p157
sg57
V62
p158
sg87
(lp159
(VDANIELL
VH
tp160
asg22
I1997
sg53
V463
p161
sbag1
(g2
g3
NtRp162
(dp163
g59
V10.1038/83559
p164
sg55
VNAT BIOTECHNOL
p165
sg57
V19
p166
sg87
(lp167
(VDE
VCOSA B
tp168
asg22
I2001
sg53
V71
p169
sbag1
(g2
g3
NtRp170
(dp171
g59
Nsg55
VRECENT ADV PLANT BIO
p172
sg57
Nsg87
(lp173
(VDUBALD
VM
tp174
asg22
I2008
sg53
V36
p175
sbag1
(g2
g3
NtRp176
(dp177
g59
V10.1016/S0022-2836(83)80282-4
p178
sg55
VJ MOL BIOL
p179
sg57
V166
p180
sg87
(lp181
(VDUNN
VJ J
tp182
asg22
I1983
sg53
V477
p183
sbag1
(g2
g3
NtRp184
(dp185
g59
V10.1046/j.1365-313X.1999.00543.x
p186
sg55
VPLANT J
p187
sg57
V19
p188
sg87
(lp189
(VEIBL
VC
tp190
asg22
I1999
sg53
VLANT
p191
sbag1
(g2
g3
NtRp192
(dp193
g59
Nsg55
VMICROSC TODAY
p194
sg57
V14
p195
sg87
(lp196
(VELLIS
VE A
tp197
asg22
I2006
sg53
V32
p198
sbag1
(g2
g3
NtRp199
(dp200
g59
V10.1021/bm0200581
p201
sg55
VBIOMACROMOLECULES
p202
sg57
V3
sg87
(lp203
(VFENG
VL D
tp204
asg22
I2002
sg53
V1071
p205
sbag1
(g2
g3
NtRp206
(dp207
g59
V10.1073/pnas.92.14.6279
p208
sg55
VP NATL ACAD SCI USA
p209
sg57
V92
p210
sg87
(lp211
(VGERNGROSS
VT U
tp212
asg22
I1995
sg53
V6279
p213
sbag1
(g2
g3
NtRp214
(dp215
g59
Nsg55
VJ BACTERIOL
p216
sg57
V175
p217
sg87
(lp218
(VGERNGROSS
VT U
tp219
asg22
I1993
sg53
V5289
p220
sbag1
(g2
g3
NtRp221
(dp222
g59
V10.1007/s11248-009-9246-3
p223
sg55
VTRANSGENIC RES
p224
sg57
V18
p225
sg87
(lp226
(VGRAY
VB N
tp227
asg22
I2009
sg53
V559
p228
sbag1
(g2
g3
NtRp229
(dp230
g59
V10.1007/s11248-005-2542-7
p231
sg55
VTRANSGENIC RES
p232
sg57
V14
p233
sg87
(lp234
(VHERZ
VS
tp235
asg22
I2005
sg53
V969
p236
sbag1
(g2
g3
NtRp237
(dp238
g59
V10.1007/s00438-002-0738-6
p239
sg55
VMOL GENET GENOMICS
p240
sg57
V268
p241
sg87
(lp242
(VHUANG
VF C
tp243
asg22
I2002
sg53
V19
p244
sbag1
(g2
g3
NtRp245
(dp246
g59
V10.1146/annurev.micro.56.012302.160838
p247
sg55
VANNU REV MICROBIOL
p248
sg57
V56
p249
sg87
(lp250
(VJENDROSSEK
VD
tp251
asg22
I2002
sg53
V403
p252
sbag1
(g2
g3
NtRp253
(dp254
g59
V10.1021/ma00035a007
p255
sg55
VMACROMOLECULES
p256
sg57
V25
p257
sg87
(lp258
(VKAWAGUCHI
VY
tp259
asg22
I1992
sg53
V2324
p260
sbag1
(g2
g3
NtRp261
(dp262
g59
V10.1038/nbt933
p263
sg55
VNAT BIOTECHNOL
p264
sg57
V22
p265
sg87
(lp266
(VKLAUS
VS M J
tp267
asg22
I2004
sg53
V225
p268
sbag1
(g2
g3
NtRp269
(dp270
g59
V10.1007/s11248-007-9067-1
p271
sg55
VTRANSGENIC RES
p272
sg57
V16
p273
sg87
(lp274
(VKOURTZ
VL
tp275
asg22
I2007
sg53
V759
p276
sbag1
(g2
g3
NtRp277
(dp278
g59
V10.1104/pp.125.1.430
p279
sg55
VPLANT PHYSIOL
p280
sg57
V125
p281
sg87
(lp282
(VKURODA
VH
tp283
asg22
I2001
sg53
VLANT
p284
sbag1
(g2
g3
NtRp285
(dp286
g59
Nsg55
VEC PLANT FORM FUNCTI
p287
sg57
Nsg87
(lp288
(VLEE
VD
tp289
asg22
I1986
sg53
V105
p290
sbag1
(g2
g3
NtRp291
(dp292
g59
V10.1007/s00299-003-0610-0
p293
sg55
VPLANT CELL REP
p294
sg57
V21
p295
sg87
(lp296
(VLOSSL
VA
tp297
asg22
I2003
sg53
VLANT
p298
sbag1
(g2
g3
NtRp299
(dp300
g59
V10.1093/pcp/pci157
p301
sg55
VPLANT CELL PHYSIOL
p302
sg57
V46
p303
sg87
(lp304
(VLOSSL
VA
tp305
asg22
I2005
sg53
VLANT
p306
sbag1
(g2
g3
NtRp307
(dp308
g59
V10.1104/pp.107.106963
p309
sg55
VPLANT PHYSIOL
p310
sg57
V145
p311
sg87
(lp312
(VLUTZ
VK A
tp313
asg22
I2007
sg53
VLANT
p314
sbag1
(g2
g3
NtRp315
(dp316
g59
Nsg55
VMICROBIOL MOL BIOL R
p317
sg57
V63
p318
sg87
(lp319
(VMADISON
VL L
tp320
asg22
I1999
sg53
V21
p321
sbag1
(g2
g3
NtRp322
(dp323
g59
V10.1016/S0167-7799(02)00007-0
p324
sg55
VTRENDS BIOTECHNOL
p325
sg57
V21
p326
sg87
(lp327
(VMALIGA
VP
tp328
asg22
I2003
sg53
V20
p329
sbag1
(g2
g3
NtRp330
(dp331
g59
V10.1111/j.1467-7652.2008.00365.x
p332
sg55
VPLANT BIOTECHNOL J
p333
sg57
V6
sg87
(lp334
(VMCCABE
VM S
tp335
asg22
I2008
sg53
VLANT
p336
sbag1
(g2
g3
NtRp337
(dp338
g59
Nsg55
VJ BACTERIOL
p339
sg57
V181
p340
sg87
(lp341
(VMCCOOL
VG J
tp342
asg22
I1999
sg53
V585
p343
sbag1
(g2
g3
NtRp344
(dp345
g59
V10.1111/j.1399-3054.1962.tb08052.x
p346
sg55
VPHYSIOL PLANTARUM
p347
sg57
V15
p348
sg87
(lp349
(VMURASHIGE
VT
tp350
asg22
I1962
sg53
VHYSIOL
p351
sbag1
(g2
g3
NtRp352
(dp353
g59
V10.1007/s11248-008-9209-0
p354
sg55
VTRANSGENIC RES
p355
sg57
V18
p356
sg87
(lp357
(VNADAI
VM
tp358
asg22
I2009
sg53
V173
p359
sbag1
(g2
g3
NtRp360
(dp361
g59
V10.1271/bbb.65.1688
p362
sg55
VBIOSCI BIOTECH BIOCH
p363
sg57
V65
p364
sg87
(lp365
(VNAKASHITA
VH
tp366
asg22
I2001
sg53
V1688
p367
sbag1
(g2
g3
NtRp368
(dp369
g59
V10.1021/bp070303y
p370
sg55
VBIOTECHNOL PROGR
p371
sg57
V24
p372
sg87
(lp373
(VNOMURA
VC T
tp374
asg22
I2008
sg53
V342
p375
sbag1
(g2
g3
NtRp376
(dp377
g59
V10.1111/j.1365-313X.2008.03702.x
p378
sg55
VPLANT J
p379
sg57
V57
p380
sg87
(lp381
(VOEY
VM
tp382
asg22
I2009
sg53
VLANT
p383
sbag1
(g2
g3
NtRp384
(dp385
g59
V10.1016/j.enzmictec.2004.12.005
p386
sg55
VENZYME MICROB TECH
p387
sg57
V36
p388
sg87
(lp389
(VPARK
VS J
tp390
asg22
I2005
sg53
V579
p391
sbag1
(g2
g3
NtRp392
(dp393
g59
Nsg55
VUS Patent Application
p394
sg57
Nsg87
(lp395
(VPETERSON
VA A
tp396
asg22
I2010
sg53
Vatent
p397
sbag1
(g2
g3
NtRp398
(dp399
g59
V10.1111/j.1467-7652.2006.00229.x
p400
sg55
VPLANT BIOTECHNOL J
p401
sg57
V5
sg87
(lp402
(VPETRASOVITS
VL A
tp403
asg22
I2007
sg53
VLANT
p404
sbag1
(g2
g3
NtRp405
(dp406
g59
Nsg55
VBIOPOLYMERS A
p407
sg57
V3a
p408
sg87
(lp409
(VPOIRIER
VY
tp410
asg22
I2002
sg53
V401
p411
sbag1
(g2
g3
NtRp412
(dp413
g59
V10.1111/j.1467-7652.2006.00230.x
p414
sg55
VPLANT BIOTECHNOL J
p415
sg57
V5
sg87
(lp416
(VPURNELL
VM P
tp417
asg22
I2007
sg53
VLANT
p418
sbag1
(g2
g3
NtRp419
(dp420
g59
V10.1111/j.1365-313X.1991.00051.x
p421
sg55
VPLANT J
p422
sg57
V1
sg87
(lp423
(VQUICK
VW P
tp424
asg22
I1991
sg53
VLANT
p425
sbag1
(g2
g3
NtRp426
(dp427
g59
V10.1016/S0960-8524(02)00212-2
p428
sg55
VBIORESOURCE TECHNOL
p429
sg57
V87
p430
sg87
(lp431
(VREDDY
VC S K
tp432
asg22
I2003
sg53
V137
p433
sbag1
(g2
g3
NtRp434
(dp435
g59
V10.1093/nar/gkl634
p436
sg55
VNUCLEIC ACIDS RES
p437
sg57
V34
p438
sg87
(lp439
(VROGALSKI
VM
tp440
asg22
I2006
sg53
V4537
p441
sbag1
(g2
g3
NtRp442
(dp443
g59
V10.1105/tpc.108.060392
p444
sg55
VPLANT CELL
p445
sg57
V20
p446
sg87
(lp447
(VROGALSKI
VM
tp448
asg22
I2008
sg53
VLANT
p449
sbag1
(g2
g3
NtRp450
(dp451
g59
V10.1104/pp.109.152017
p452
sg55
VPLANT PHYSIOL
p453
sg57
V152
p454
sg87
(lp455
(VRUHLMAN
VT
tp456
asg22
I2010
sg53
VLANT
p457
sbag1
(g2
g3
NtRp458
(dp459
g59
V10.1104/pp.104.057729
p460
sg55
VPLANT PHYSIOL
p461
sg57
V138
p462
sg87
(lp463
(VRUIZ
VO N
tp464
asg22
I2005
sg53
VLANT
p465
sbag1
(g2
g3
NtRp466
(dp467
g59
Nsg55
VENVIRON ENTOMOL
p468
sg57
V20
p469
sg87
(lp470
(VSADOF
VC S
tp471
asg22
I1991
sg53
V83
p472
sbag1
(g2
g3
NtRp473
(dp474
g59
Nsg55
VBIOPOLYMERS B
p475
sg57
V3b
p476
sg87
(lp477
(VSATKOWSKI
VM
tp478
asg22
I2002
sg53
V231
p479
sbag1
(g2
g3
NtRp480
(dp481
g59
Nsg55
VJ BACTERIOL
p482
sg57
V177
p483
sg87
(lp484
(VSCHEMBRI
VM A
tp485
asg22
I1995
sg53
V4501
p486
sbag1
(g2
g3
NtRp487
(dp488
g59
V10.1104/pp.108.119107
p489
sg55
VPLANT PHYSIOL
p490
sg57
V148
p491
sg87
(lp492
(VSHEPPARD
VA E
tp493
asg22
I2008
sg53
VLANT
p494
sbag1
(g2
g3
NtRp495
(dp496
g59
Nsg55
VEMBO J
p497
sg57
V5
sg87
(lp498
(VSHINOZAKI
VK
tp499
asg22
I1986
sg53
V2043
p500
sbag1
(g2
g3
NtRp501
(dp502
g59
V10.1038/nbt0197-63
p503
sg55
VNAT BIOTECHNOL
p504
sg57
V15
p505
sg87
(lp506
(VSIM
VS J
tp507
asg22
I1997
sg53
V63
p508
sbag1
(g2
g3
NtRp509
(dp510
g59
V10.1002/bbb.161
p511
sg55
VBIOFUEL BIOPROD BIOR
p512
sg57
V3
sg87
(lp513
(VSNELL
VK D
tp514
asg22
I2009
sg53
V456
p515
sbag1
(g2
g3
NtRp516
(dp517
g59
V10.1111/j.1467-7652.2008.00350.x
p518
sg55
VPLANT BIOTECHNOL J
p519
sg57
V6
sg87
(lp520
(VSOMLEVA
VM N
tp521
asg22
I2008
sg53
VLANT
p522
sbag1
(g2
g3
NtRp523
(dp524
g59
V10.1016/S0022-5320(69)90033-1
p525
sg55
VJ ULTRA MOL STRUCT R
p526
sg57
V26
p527
sg87
(lp528
(VSPURR
VA R
tp529
asg22
I1969
sg53
V31
p530
sbag1
(g2
g3
NtRp531
(dp532
g59
V10.1073/pnas.91.16.7468
p533
sg55
VP NATL ACAD SCI USA
p534
sg57
V91
p535
sg87
(lp536
(VSTAUB
VJ M
tp537
asg22
I1994
sg53
V7468
p538
sbag1
(g2
g3
NtRp539
(dp540
g59
V10.1046/j.1365-313X.1994.6040547.x
p541
sg55
VPLANT J
p542
sg57
V6
sg87
(lp543
(VSTAUB
VJ M
tp544
asg22
I1994
sg53
VLANT
p545
sbag1
(g2
g3
NtRp546
(dp547
g59
Nsg55
VEMBO J
p548
sg57
V12
p549
sg87
(lp550
(VSTAUB
VJ M
tp551
asg22
I1993
sg53
V601
p552
sbag1
(g2
g3
NtRp553
(dp554
g59
Nsg55
VHDB IND CELL CULTURE
p555
sg57
Nsg87
(lp556
(VSTAUB
VJ M
tp557
asg22
I2002
sg53
V259
p558
sbag1
(g2
g3
NtRp559
(dp560
g59
V10.1016/S1360-1385(97)89953-0
p561
sg55
VTRENDS PLANT SCI
p562
sg57
V2
sg87
(lp563
(VSTERN
VD B
tp564
asg22
I1997
sg53
V308
p565
sbag1
(g2
g3
NtRp566
(dp567
g59
V10.1111/j.1365-3040.1994.tb00144.x
p568
sg55
VPLANT CELL ENVIRON
p569
sg57
V17
p570
sg87
(lp571
(VSTITT
VM
tp572
asg22
I1994
sg53
VLANT
p573
sbag1
(g2
g3
NtRp574
(dp575
g59
V10.1007/BF00039388
p576
sg55
VPLANT MOL BIOL
p577
sg57
V32
p578
sg87
(lp579
(VSUGITA
VM
tp580
asg22
I1996
sg53
VLANT
p581
sbag1
(g2
g3
NtRp582
(dp583
g59
V10.1016/j.biotechadv.2006.11.007
p584
sg55
VBIOTECHNOL ADV
p585
sg57
V25
p586
sg87
(lp587
(VSURIYAMONGKOL
VP
tp588
asg22
I2007
sg53
V148
p589
sbag1
(g2
g3
NtRp590
(dp591
g59
V10.1073/pnas.90.3.913
p592
sg55
VP NATL ACAD SCI USA
p593
sg57
V90
p594
sg87
(lp595
(VSVAB
VZ
tp596
asg22
I1993
sg53
V913
p597
sbag1
(g2
g3
NtRp598
(dp599
g59
V10.1073/pnas.0700063104
p600
sg55
VP NATL ACAD SCI USA
p601
sg57
V104
p602
sg87
(lp603
(VSVAB
VZ
tp604
asg22
I2007
sg53
V7003
p605
sbag1
(g2
g3
NtRp606
(dp607
g59
V10.1073/pnas.87.21.8526
p608
sg55
VP NATL ACAD SCI USA
p609
sg57
V87
p610
sg87
(lp611
(VSVAB
VZ
tp612
asg22
I1990
sg53
V8526
p613
sbag1
(g2
g3
NtRp614
(dp615
g59
V10.1111/j.1365-313X.2008.03431.x
p616
sg55
VPLANT J
p617
sg57
V54
p618
sg87
(lp619
(VVAN
VBEILEN J B
tp620
asg22
I2008
sg53
VLANT
p621
sbag1
(g2
g3
NtRp622
(dp623
g59
V10.1104/pp.107.106690
p624
sg55
VPLANT PHYSIOL
p625
sg57
V145
p626
sg87
(lp627
(VVERMA
VD
tp628
asg22
I2007
sg53
VLANT
p629
sbag1
(g2
g3
NtRp630
(dp631
g59
Nsg55
VENVIRON ENTOMOL
p632
sg57
V24
p633
sg87
(lp634
(VYANG
VJ S
tp635
asg22
I1995
sg53
V1650
p636
sbag1
(g2
g3
NtRp637
(dp638
g59
V10.1016/0378-1119(85)90120-9
p639
sg55
VGENE
p640
sg57
V33
p641
sg87
(lp642
(VYANISCHPERRON
VC
tp643
asg22
I1985
sg53
V103
p644
sbag1
(g2
g3
NtRp645
(dp646
g59
Nsg55
VU
sg57
Nsg87
(lp647
(VZHONG
VL
tp648
asg22
I2005
sg53
Vatent
p649
sbag1
(g2
g3
NtRp650
(dp651
g59
V10.1111/j.1467-7652.2008.00356.x
p652
sg55
VPLANT BIOTECHNOL J
p653
sg57
V6
sg87
(lp654
(VZHOU
VF
tp655
asg22
I2008
sg53
VLANT
p656
sbasb.