ccopy_reg
_reconstructor
p1
(ctethne.classes.paper
Paper
p2
c__builtin__
object
p3
NtRp4
(dp5
S'publisherCity'
p6
VROCKVILLE
p7
sS'reprintAddress'
p8
VSalt, DE (reprint author), No Arizona Univ, Dept Chem, Flagstaff, AZ 86011 USA.
p9
sS'WC'
p10
VPlant Sciences
p11
sS'GA'
p12
V462HC
p13
sS'abstract'
p14
VUptake and translocation of cationic nutrients play essential roles in physiological processes including plant growth, nutrition, signal transduction, and development. Approximately 5% of the Arabidopsis genome appears to encode membrane transport proteins. These proteins are classified in 46 unique families containing approximately 880 members. In addition, several hundred putative transporters have not yet been assigned to families. In this paper, we have analyzed the phylogenetic relationships of over 150 cation transport proteins. This analysis has focused on cation transporter gene families for which initial characterizations have been achieved for individual members, including potassium transporters and channels, sodium transporters, calcium antiporters, cyclic nucleotide-gated channels, cation diffusion facilitator proteins, natural resistance-associated macrophage proteins (NRAMP), and Zn-regulated transporter Fe-regulated transporter-like proteins. Phylogenetic trees of each family define the evolutionary relationships of the members to each other. These families contain numerous members, indicating diverse functions in vivo. Closely related isoforms and separate subfamilies exist within many of these gene families, indicating possible redundancies and specialized functions. To facilitate their further study, the PlantsT database (http://plantst.sdsc.edu) has been created that includes alignments of the analyzed cation transporters and their chromosomal locations.
p15
sS'pageEnd'
p16
I1667
sS'publisherAddress'
p17
V15501 MONONA DRIVE, ROCKVILLE, MD 20855 USA
p18
sS'documentType'
p19
VReview
p20
sS'subject'
p21
VPlant Sciences
p22
sS'isoSource'
p23
VPlant Physiol.
p24
sS'timesCited'
p25
(lp26
I442
aVZ9 504
p27
asS'PT'
p28
VJ
sS'title'
p29
VPhylogenetic Relationships Within Cation Transporter Families Of Arabidopsis
p30
sS'ISSN'
p31
(lp32
V0032-0889
p33
aVJ9 PLANT PHYSIOL
p34
asS'authors_full'
p35
(lp36
(VMASER
VP
tp37
a(VTHOMINE
VS
tp38
a(VSCHROEDER
VJI
tp39
a(VWARD
VJM
tp40
a(VHIRSCHI
VK
tp41
a(VSZE
VH
tp42
a(VTALKE
VIN
tp43
a(VAMTMANN
VA
tp44
a(VMAATHUIS
VFJM
tp45
a(VSANDERS
VD
tp46
a(VHARPER
VJF
tp47
a(VTCHIEU
VJ
tp48
a(VGRIBSKOV
VM
tp49
a(VPERSANS
VMW
tp50
a(VSALT
VDE
tp51
a(VKIM
VSA
tp52
a(VGUERINOT
VML
tp53
asS'PG'
p54
I22
sS'PD'
p55
VAUG
p56
sS'pageStart'
p57
I1646
sS'issue'
p58
I4
sS'RI'
p59
VSalt, David/B-3864-2009
p60
sS'journal'
p61
VPLANT PHYSIOLOGY
p62
sS'volume'
p63
V126
p64
sS'doi'
p65
V10.1104/pp.126.4.1646
p66
sS'authorAddress'
p67
(lp68
VNo Arizona Univ, Dept Chem, Flagstaff, AZ 86011 USA.
p69
aVDartmouth Coll, Dept Biol Sci, Hanover, NH 03755 USA.
p70
aVUniv Calif San Diego, Div Biol, Cell & Dev Biol Sect, La Jolla, CA 92093 USA.
p71
aVUniv Calif San Diego, Ctr Mol Genet, La Jolla, CA 92093 USA.
p72
aVUniv Calif San Diego, San Diego Super Comp Ctr, La Jolla, CA 92093 USA.
p73
aVCNRS, Inst Sci Vegetal, F-91198 Gif Sur Yvette, France.
p74
aVUniv Minnesota, Dept Plant Biol, St Paul, MN 55108 USA.
p75
aVBaylor Coll Med, Childrens Nutr Res Ctr, Plant Physiol Grp, Houston, TX 77030 USA.
p76
aVUniv Maryland, Dept Cell Biol & Mol Genet, College Pk, MD 20742 USA.
p77
aVUniv York, Dept Biol, Plant Lab, York YO10 5YW, N Yorkshire, England.
p78
aVScripps Res Inst, Dept Cell Biol, La Jolla, CA 92037 USA.
p79
aVNo Arizona Univ, Dept Chem, Flagstaff, AZ 86011 USA.
p80
aVDartmouth Coll, Dept Biol Sci, Hanover, NH 03755 USA.
p81
asS'date'
p82
I2001
sS'ER'
p83
V
sS'publisher'
p84
VAMER SOC PLANT PHYSIOLOGISTS
p85
sS'authorKeywords'
p86
(lp87
VAFFINITY POTASSIUM TRANSPORTER
p88
aVMULTIPLE SEQUENCE ALIGNMENT
p89
aVCALMODULIN-BINDING TRANSPORTER
p90
aVRECTIFYING K+ CHANNELS
p91
aVMEMBRANE H+-ATPASE
p92
aV2 PORE DOMAINS
p93
aVSACCHAROMYCES-CEREVISIAE
p94
aVPLASMA-MEMBRANE
p95
aVZINC-TRANSPORTER
p96
aVFUNCTIONAL EXPRESSION
p97
asS'language'
p98
VEnglish
p99
sS'wosid'
p100
VWOS:000170413800032
p101
sS'citationCount'
p102
I128
sS'authors_init'
p103
(lp104
(VMASER
VP
tp105
a(VTHOMINE
VS
tp106
a(VSCHROEDER
VJ I
tp107
a(VWARD
VJ M
tp108
a(VHIRSCHI
VK
tp109
a(VSZE
VH
tp110
a(VTALKE
VI N
tp111
a(VAMTMANN
VA
tp112
a(VMAATHUIS
VF J M
tp113
a(VSANDERS
VD
tp114
a(VHARPER
VJ F
tp115
a(VTCHIEU
VJ
tp116
a(VGRIBSKOV
VM
tp117
a(VPERSANS
VM W
tp118
a(VSALT
VD E
tp119
a(VKIM
VS A
tp120
a(VGUERINOT
VM L
tp121
asS'citedReferences'
p122
(lp123
g1
(g2
g3
NtRp124
(dp125
g65
V10.1016/S0014-5793(00)02248-1
p126
sg61
VFEBS LETT
p127
sg63
V486
p128
sg103
(lp129
(VACHE
VP
tp130
asg82
I2000
sg57
V93
p131
sbag1
(g2
g3
NtRp132
(dp133
g65
V10.1126/science.284.5423.2148
p134
sg61
VSCIENCE
p135
sg63
V284
p136
sg103
(lp137
(VALONSO
VJ M
tp138
asg82
I1999
sg57
V2148
p139
sbag1
(g2
g3
NtRp140
(dp141
g65
V10.1093/nar/25.17.3389
p142
sg61
VNUCLEIC ACIDS RES
p143
sg63
V25
p144
sg103
(lp145
(VALTSCHUL
VS F
tp146
asg82
I1997
sg57
V3389
p147
sbag1
(g2
g3
NtRp148
(dp149
g65
V10.1073/pnas.89.9.3736
p150
sg61
VP NATL ACAD SCI USA
p151
sg63
V89
p152
sg103
(lp153
(VANDERSON
VJ A
tp154
asg82
I1992
sg57
V3736
p155
sbag1
(g2
g3
NtRp156
(dp157
g65
V10.1126/science.285.5431.1256
p158
sg61
VSCIENCE
p159
sg63
V285
p160
sg103
(lp161
(VAPSE
VM P
tp162
asg82
I1999
sg57
V1256
p163
sbag1
(g2
g3
NtRp164
(dp165
g65
V10.1023/A:1006345302589
p166
sg61
VPLANT MOL BIOL
p167
sg63
V42
p168
sg103
(lp169
(VARAZI
VT
tp170
asg82
I2000
sg57
VLANT
p171
sbag1
(g2
g3
NtRp172
(dp173
g65
V10.1046/j.1365-313x.1999.00588.x
p174
sg61
VPLANT J
p175
sg63
V20
p176
sg103
(lp177
(VARAZI
VT
tp178
asg82
I1999
sg57
VLANT
p179
sbag1
(g2
g3
NtRp180
(dp181
g65
V10.1104/pp.126.2.696
p182
sg61
VPLANT PHYSIOL
p183
sg63
V126
p184
sg103
(lp185
(VAXELSEN
VK B
tp186
asg82
I2001
sg57
VLANT
p187
sbag1
(g2
g3
NtRp188
(dp189
g65
V10.1007/s002329900476
p190
sg61
VJ MEMBRANE BIOL
p191
sg63
V167
p192
sg103
(lp193
(VBAIZABAL-AGUIRRE
VV M
tp194
asg82
I1999
sg57
V119
p195
sbag1
(g2
g3
NtRp196
(dp197
g65
Nsg61
VEMBO J
p198
sg63
V14
p199
sg103
(lp200
(VBANUELOS
VM A
tp201
asg82
I1995
sg57
V3021
p202
sbag1
(g2
g3
NtRp203
(dp204
g65
V10.1093/nar/28.1.263
p205
sg61
VNUCLEIC ACIDS RES
p206
sg63
V28
p207
sg103
(lp208
(VBATEMAN
VA
tp209
asg82
I2000
sg57
V263
p210
sbag1
(g2
g3
NtRp211
(dp212
g65
V10.1046/j.1365-313X.1998.00084.x
p213
sg61
VPLANT J
p214
sg63
V13
p215
sg103
(lp216
(VBEI
VQ X
tp217
asg82
I1998
sg57
VLANT
p218
sbag1
(g2
g3
NtRp219
(dp220
g65
V10.1007/BF02814074
p221
sg61
VFOLIA MICROBIOL
p222
sg63
V39
p223
sg103
(lp224
(VBERTL
VA
tp225
asg82
I1994
sg57
V507
p226
sbag1
(g2
g3
NtRp227
(dp228
g65
V10.1016/S0005-2736(00)00135-8
p229
sg61
VBBA
p230
sg63
V1465
p231
sg103
(lp232
(VBLUMWALD
VE
tp233
asg82
I2000
sg57
V140
p234
sbag1
(g2
g3
NtRp235
(dp236
g65
V10.1104/pp.78.1.163
p237
sg61
VPLANT PHYSIOL
p238
sg63
V78
p239
sg103
(lp240
(VBLUMWALD
VE
tp241
asg82
I1985
sg57
VLANT
p242
sbag1
(g2
g3
NtRp243
(dp244
g65
V10.1016/0006-291X(89)92348-6
p245
sg61
VBIOCHEM BIOPH RES CO
p246
sg63
V162
p247
sg103
(lp248
(VBOUTRY
VM
tp249
asg82
I1989
sg57
V567
p250
sbag1
(g2
g3
NtRp251
(dp252
g65
V10.1104/pp.109.3.1093
p253
sg61
VPLANT PHYSIOL
p254
sg63
V109
p255
sg103
(lp256
(VCAO
VY W
tp257
asg82
I1995
sg57
VLANT
p258
sbag1
(g2
g3
NtRp259
(dp260
g65
V10.1073/pnas.92.22.10089
p261
sg61
VP NATL ACAD SCI USA
p262
sg63
V92
p263
sg103
(lp264
(VCELLIER
VM
tp265
asg82
I1995
sg57
V10089
p266
sbag1
(g2
g3
NtRp267
(dp268
g65
V10.1016/S1388-2481(99)00056-9
p269
sg61
VELECTROCHEM COMMUN
p270
sg63
V1
sg103
(lp271
(VCHEN
VJ Y
tp272
asg82
I1999
sg57
V274
p273
sbag1
(g2
g3
NtRp274
(dp275
g65
V10.1073/pnas.95.20.12043
p276
sg61
VP NATL ACAD SCI USA
p277
sg63
V95
p278
sg103
(lp279
(VCLEMENS
VS
tp280
asg82
I1998
sg57
V12043
p281
sbag1
(g2
g3
NtRp282
(dp283
g65
V10.1073/pnas.150005697
p284
sg61
VP NATL ACAD SCI USA
p285
sg63
V97
p286
sg103
(lp287
(VCLOUGH
VS J
tp288
asg82
I2000
sg57
V9323
p289
sbag1
(g2
g3
NtRp290
(dp291
g65
Nsg61
VMOL CELL BIOL
p292
sg63
V12
p293
sg103
(lp294
(VCONKLIN
VD S
tp295
asg82
I1992
sg57
V3678
p296
sbag1
(g2
g3
NtRp297
(dp298
g65
Nsg61
VMOL GEN GENET
p299
sg63
V244
p300
sg103
(lp301
(VCONKLIN
VD S
tp302
asg82
I1994
sg57
V303
p303
sbag1
(g2
g3
NtRp304
(dp305
g65
Nsg61
VMOL CELL BIOL
p306
sg63
V16
p307
sg103
(lp308
(VCUNNINGHAM
VK W
tp309
asg82
I1996
sg57
V2226
p310
sbag1
(g2
g3
NtRp311
(dp312
g65
V10.1042/0264-6021:3470749
p313
sg61
VBIOCHEM J
p314
sg63
V347
p315
sg103
(lp316
(VCURIE
VC
tp317
asg82
I2000
sg57
V749
p318
sbag1
(g2
g3
NtRp319
(dp320
g65
V10.1093/emboj/16.10.2565
p321
sg61
VEMBO J
p322
sg63
V16
p323
sg103
(lp324
(VCZEMPINSKI
VK
tp325
asg82
I1997
sg57
V2565
p326
sbag1
(g2
g3
NtRp327
(dp328
g65
V10.1002/(SICI)1097-0061(19990330)15:5<371::AID-YEA380>3.0.CO;2-P
p329
sg61
VYEAST
p330
sg63
V15
p331
sg103
(lp332
(VDEL
VPOZO L
tp333
asg82
I1999
sg57
V371
p334
sbag1
(g2
g3
NtRp335
(dp336
g65
V10.1126/science.280.5360.69
p337
sg61
VSCIENCE
p338
sg63
V280
p339
sg103
(lp340
(VDOYLE
VD A
tp341
asg82
I1998
sg57
V69
p342
sbag1
(g2
g3
NtRp343
(dp344
g65
Nsg61
VBIOPHYS J
p345
sg63
V72
p346
sg103
(lp347
(VDREYER
VI
tp348
asg82
I1997
sg57
V2143
p349
sbag1
(g2
g3
NtRp350
(dp351
g65
Nsg61
VBIOPHYS J
p352
sg63
V77
p353
sg103
(lp354
(VDURELL
VS R
tp355
asg82
I1999
sg57
V789
p356
sbag1
(g2
g3
NtRp357
(dp358
g65
V10.1073/pnas.93.11.5624
p359
sg61
VP NATL ACAD SCI USA
p360
sg63
V93
p361
sg103
(lp362
(VEIDE
VD
tp363
asg82
I1996
sg57
V5624
p364
sbag1
(g2
g3
NtRp365
(dp366
g65
V10.1007/s002329900442
p367
sg61
VJ MEMBRANE BIOL
p368
sg63
V166
p369
sg103
(lp370
(VENG
VB H
tp371
asg82
I1998
sg57
V1
sbag1
(g2
g3
NtRp372
(dp373
g65
V10.1073/pnas.49.5.684
p374
sg61
VP NATL ACAD SCI USA
p375
sg63
V49
p376
sg103
(lp377
(VEPSTEIN
VE
tp378
asg82
I1963
sg57
V684
p379
sbag1
(g2
g3
NtRp380
(dp381
g65
V10.1104/pp.119.4.1379
p382
sg61
VPLANT PHYSIOL
p383
sg63
V119
p384
sg103
(lp385
(VETTINGER
VW F
tp386
asg82
I1999
sg57
VLANT
p387
sbag1
(g2
g3
NtRp388
(dp389
g65
Nsg61
VCLADISTICS
p390
sg63
V5
sg103
(lp391
(VFELSENSTEIN
VJ
tp392
asg82
I1989
sg57
V164
p393
sbag1
(g2
g3
NtRp394
(dp395
g65
Nsg61
VANNU REV PHYSIOL
p396
sg63
V58
p397
sg103
(lp398
(VFINN
VJ T
tp399
asg82
I1996
sg57
V395
p400
sbag1
(g2
g3
NtRp401
(dp402
g65
Nsg61
VEMBO J
p403
sg63
V8
sg103
(lp404
(VFLUGGE
VU I
tp405
asg82
I1989
sg57
V39
p406
sbag1
(g2
g3
NtRp407
(dp408
g65
V10.1105/tpc.10.1.63
p409
sg61
VPLANT CELL
p410
sg63
V10
p411
sg103
(lp412
(VFU
VH H
tp413
asg82
I1998
sg57
VLANT
p414
sbag1
(g2
g3
NtRp415
(dp416
g65
Nsg61
VMOL CELL BIOL
p417
sg63
V8
sg103
(lp418
(VGABER
VR F
tp419
asg82
I1988
sg57
V2848
p420
sbag1
(g2
g3
NtRp421
(dp422
g65
Nsg61
VIN PRESS BIOMETALS
p423
sg63
Nsg103
(lp424
(VGAITHER
VL A
tp425
asg82
I2001
sg57
Nsbag1
(g2
g3
NtRp426
(dp427
g65
V10.1073/pnas.96.4.1480
p428
sg61
VP NATL ACAD SCI USA
p429
sg63
V96
p430
sg103
(lp431
(VGAXIOLA
VR A
tp432
asg82
I1999
sg57
V1480
p433
sbag1
(g2
g3
NtRp434
(dp435
g65
V10.1016/S0092-8674(00)81606-2
p436
sg61
VCELL
p437
sg63
V94
p438
sg103
(lp439
(VGAYMARD
VF
tp440
asg82
I1998
sg57
V647
p441
sbag1
(g2
g3
NtRp442
(dp443
g65
V10.1007/s109-1998-8100-0
p444
sg61
VJ MOL MED
p445
sg63
V76
p446
sg103
(lp447
(VGOLDSTEIN
VS A N
tp448
asg82
I1998
sg57
V13
p449
sbag1
(g2
g3
NtRp450
(dp451
g65
V10.1073/pnas.93.23.13256
p452
sg61
VP NATL ACAD SCI USA
p453
sg63
V93
p454
sg103
(lp455
(VGOLDSTEIN
VS A N
tp456
asg82
I1996
sg57
V13256
p457
sbag1
(g2
g3
NtRp458
(dp459
g65
Nsg61
VPLANT PHYSIOL
p460
sg63
V114
p461
sg103
(lp462
(VGOLLDACK
VD
tp463
asg82
I1997
sg57
VLANT
p464
sbag1
(g2
g3
NtRp465
(dp466
g65
V10.1073/pnas.95.12.7220
p467
sg61
VP NATL ACAD SCI USA
p468
sg63
V95
p469
sg103
(lp470
(VGROTZ
VN
tp471
asg82
I1998
sg57
V7220
p472
sbag1
(g2
g3
NtRp473
(dp474
g65
V10.1016/S0005-2736(00)00138-3
p475
sg61
VBBA
p476
sg63
V1465
p477
sg103
(lp478
(VGUERINOT
VM L
tp479
asg82
I2000
sg57
V190
p480
sbag1
(g2
g3
NtRp481
(dp482
g65
V10.1126/science.287.5451.241
p483
sg61
VSCIENCE
p484
sg63
V287
p485
sg103
(lp486
(VGUERINOT
VM L
tp487
asg82
I2000
sg57
V241
p488
sbag1
(g2
g3
NtRp489
(dp490
g65
V10.1038/41343
p491
sg61
VNATURE
p492
sg63
V388
p493
sg103
(lp494
(VGUNSHIN
VH
tp495
asg82
I1997
sg57
V482
p496
sbag1
(g2
g3
NtRp497
(dp498
g65
V10.1073/pnas.86.4.1234
p499
sg61
VP NATL ACAD SCI USA
p500
sg63
V86
p501
sg103
(lp502
(VHARPER
VJ F
tp503
asg82
I1989
sg57
V1234
p504
sbag1
(g2
g3
NtRp505
(dp506
g65
V10.1016/0378-1119(88)90330-7
p507
sg61
VGENE
p508
sg63
V73
p509
sg103
(lp510
(VHIGGINS
VD G
tp511
asg82
I1988
sg57
V237
p512
sbag1
(g2
g3
NtRp513
(dp514
g65
V10.1126/science.280.5365.918
p515
sg61
VSCIENCE
p516
sg63
V280
p517
sg103
(lp518
(VHIRSCH
VR E
tp519
asg82
I1998
sg57
V918
p520
sbag1
(g2
g3
NtRp521
(dp522
g65
V10.1016/S1360-1385(00)01863-X
p523
sg61
VTRENDS PLANT SCI
p524
sg63
V6
sg103
(lp525
(VHIRSCHI
VK
tp526
asg82
I2001
sg57
V100
p527
sbag1
(g2
g3
NtRp528
(dp529
g65
V10.1093/nar/27.1.215
p530
sg61
VNUCLEIC ACIDS RES
p531
sg63
V27
p532
sg103
(lp533
(VHOFMANN
VK
tp534
asg82
I1999
sg57
V215
p535
sbag1
(g2
g3
NtRp536
(dp537
g65
V10.1085/jgp.105.3.309
p538
sg61
VJ GEN PHYSIOL
p539
sg63
V105
p540
sg103
(lp541
(VHOSHI
VT
tp542
asg82
I1995
sg57
V309
p543
sbag1
(g2
g3
NtRp544
(dp545
g65
V10.1038/ng1197-292
p546
sg61
VNAT GENET
p547
sg63
V17
p548
sg103
(lp549
(VHUANG
VL P
tp550
asg82
I1997
sg57
V292
p551
sbag1
(g2
g3
NtRp552
(dp553
g65
V10.1093/jexbot/50.suppl_1.967
p554
sg61
VJ EXP BOT
p555
sg63
V50
p556
sg103
(lp557
(VICHIDA
VA M
tp558
asg82
I1999
sg57
V967
p559
sbag1
(g2
g3
NtRp560
(dp561
g65
Nsg61
VPLANT CELL
p562
sg63
V9
sg103
(lp563
(VICHIDA
VA M
tp564
asg82
I1997
sg57
VLANT
p565
sbag1
(g2
g3
NtRp566
(dp567
g65
V10.1038/376690a0
p568
sg61
VNATURE
p569
sg63
V376
p570
sg103
(lp571
(VKETCHUM
VK A
tp572
asg82
I1995
sg57
V690
p573
sbag1
(g2
g3
NtRp574
(dp575
g65
V10.2307/3870628
p576
sg61
VPLANT CELL
p577
sg63
V10
p578
sg103
(lp579
(VKIM
VE J
tp580
asg82
I1998
sg57
VLANT
p581
sbag1
(g2
g3
NtRp582
(dp583
g65
V10.1016/S0014-5793(00)01383-1
p584
sg61
VFEBS LETT
p585
sg63
V471
p586
sg103
(lp587
(VKOHLER
VC
tp588
asg82
I2000
sg57
V133
p589
sbag1
(g2
g3
NtRp590
(dp591
g65
V10.1046/j.1365-313X.1999.00422.x
p592
sg61
VPLANT J
p593
sg63
V18
p594
sg103
(lp595
(VKOHLER
VC
tp596
asg82
I1999
sg57
VLANT
p597
sbag1
(g2
g3
NtRp598
(dp599
g65
V10.1023/A:1026438615520
p600
sg61
VPLANT MOL BIOL
p601
sg63
V40
p602
sg103
(lp603
(VKORSHUNOVA
VY O
tp604
asg82
I1999
sg57
VLANT
p605
sbag1
(g2
g3
NtRp606
(dp607
g65
Nsg61
VMEGA2 MOL EVOLUTIONA
p608
sg63
Nsg103
(lp609
(VKUMAR
VS
tp610
asg82
I2000
sg57
Nsbag1
(g2
g3
NtRp611
(dp612
g65
V10.1105/tpc.12.6.837
p613
sg61
VPLANT CELL
p614
sg63
V12
p615
sg103
(lp616
(VLACOMBE
VB
tp617
asg82
I2000
sg57
VLANT
p618
sbag1
(g2
g3
NtRp619
(dp620
g65
V10.1104/pp.121.3.753
p621
sg61
VPLANT PHYSIOL
p622
sg63
V121
p623
sg103
(lp624
(VLENG
VQ
tp625
asg82
I1999
sg57
VLANT
p626
sbag1
(g2
g3
NtRp627
(dp628
g65
V10.1074/jbc.273.35.22181
p629
sg61
VJ BIOL CHEM
p630
sg63
V273
p631
sg103
(lp632
(VLI
VL T
tp633
asg82
I1998
sg57
V22181
p634
sbag1
(g2
g3
NtRp635
(dp636
g65
Nsg61
VPLANT PHYSIOL
p637
sg63
V112
p638
sg103
(lp639
(VMAATHUIS
VF J M
tp640
asg82
I1996
sg57
VLANT
p641
sbag1
(g2
g3
NtRp642
(dp643
g65
V10.1073/pnas.91.20.9272
p644
sg61
VP NATL ACAD SCI USA
p645
sg63
V91
p646
sg103
(lp647
(VMAATHUIS
VF J M
tp648
asg82
I1994
sg57
V9272
p649
sbag1
(g2
g3
NtRp650
(dp651
g65
V10.1093/emboj/19.12.2845
p652
sg61
VEMBO J
p653
sg63
V19
p654
sg103
(lp655
(VMACDIARMID
VC W
tp656
asg82
I2000
sg57
V2845
p657
sbag1
(g2
g3
NtRp658
(dp659
g65
V10.1111/j.1365-2958.1991.tb00731.x
p660
sg61
VMOL MICROBIOL
p661
sg63
V5
sg103
(lp662
(VMUNRO
VA W
tp663
asg82
I1991
sg57
V607
p664
sbag1
(g2
g3
NtRp665
(dp666
g65
Nsg61
VJ BIOL CHEM
p667
sg63
V272
p668
sg103
(lp669
(VNAKAMURA
VR L
tp670
asg82
I1997
sg57
V1011
p671
sbag1
(g2
g3
NtRp672
(dp673
g65
V10.1074/jbc.272.42.26145
p674
sg61
VJ BIOL CHEM
p675
sg63
V272
p676
sg103
(lp677
(VNASS
VR
tp678
asg82
I1997
sg57
V26145
p679
sbag1
(g2
g3
NtRp680
(dp681
g65
V10.1007/BF01569902
p682
sg61
VJ IND MICROBIOL
p683
sg63
V14
p684
sg103
(lp685
(VNIES
VD H
tp686
asg82
I1995
sg57
V186
p687
sbag1
(g2
g3
NtRp688
(dp689
g65
Nsg61
VCOMPUT APPL BIOSCI
p690
sg63
V12
p691
sg103
(lp692
(VPAGE
VR D M
tp693
asg82
I1996
sg57
V357
p694
sbag1
(g2
g3
NtRp695
(dp696
g65
Nsg61
VEMBO J
p697
sg63
V14
p698
sg103
(lp699
(VPALMITER
VR D
tp700
asg82
I1995
sg57
V639
p701
sbag1
(g2
g3
NtRp702
(dp703
g65
Nsg61
VEMBO J
p704
sg63
V15
p705
sg103
(lp706
(VPALMITER
VR D
tp707
asg82
I1996
sg57
V1784
p708
sbag1
(g2
g3
NtRp709
(dp710
g65
Nsg61
VJ BIOL CHEM
p711
sg63
V264
p712
sg103
(lp713
(VPARDO
VJ M
tp714
asg82
I1989
sg57
V8557
p715
sbag1
(g2
g3
NtRp716
(dp717
g65
V10.1007/s002329900192
p718
sg61
VJ MEMBRANE BIOL
p719
sg63
V156
p720
sg103
(lp721
(VPAULSEN
VI T
tp722
asg82
I1997
sg57
V99
p723
sbag1
(g2
g3
NtRp724
(dp725
g65
V10.1073/pnas.97.9.4956
p726
sg61
VP NATL ACAD SCI USA
p727
sg63
V97
p728
sg103
(lp729
(VPENCE
VN S
tp730
asg82
I2000
sg57
V4956
p731
sbag1
(g2
g3
NtRp732
(dp733
g65
V10.1074/jbc.M007303200
p734
sg61
VJ BIOL CHEM
p735
sg63
V276
p736
sg103
(lp737
(VPILOT
VG
tp738
asg82
I2001
sg57
V3215
p739
sbag1
(g2
g3
NtRp740
(dp741
g65
V10.1016/S0014-5793(00)01412-5
p742
sg61
VFEBS LETT
p743
sg63
V471
p744
sg103
(lp745
(VQUINTERO
VF J
tp746
asg82
I2000
sg57
V224
p747
sbag1
(g2
g3
NtRp748
(dp749
g65
V10.1016/S0014-5793(97)01125-3
p750
sg61
VFEBS LETT
p751
sg63
V415
p752
sg103
(lp753
(VQUINTERO
VF J
tp754
asg82
I1997
sg57
V206
p755
sbag1
(g2
g3
NtRp756
(dp757
g65
Nsg61
VJ BACTERIOL
p758
sg63
V176
p759
sg103
(lp760
(VRAMOS
VJ
tp761
asg82
I1994
sg57
V249
p762
sbag1
(g2
g3
NtRp763
(dp764
g65
V10.1146/annurev.arplant.49.1.727
p765
sg61
VANNU REV PLANT PHYS
p766
sg63
V49
p767
sg103
(lp768
(VREA
VP A
tp769
asg82
I1998
sg57
V727
p770
sbag1
(g2
g3
NtRp771
(dp772
g65
Nsg61
VGENETICS
p773
sg63
V148
p774
sg103
(lp775
(VREED
VJ W
tp776
asg82
I1998
sg57
V1295
p777
sbag1
(g2
g3
NtRp778
(dp779
g65
V10.1105/tpc.13.1.139
p780
sg61
VPLANT CELL
p781
sg63
V13
p782
sg103
(lp783
(VRIGAS
VS
tp784
asg82
I2001
sg57
VLANT
p785
sbag1
(g2
g3
NtRp786
(dp787
g65
V10.1073/pnas.210214197
p788
sg61
VP NATL ACAD SCI USA
p789
sg63
V97
p790
sg103
(lp791
(VROGERS
VE E
tp792
asg82
I2000
sg57
V12356
p793
sbag1
(g2
g3
NtRp794
(dp795
g65
V10.1034/j.1399-3054.2000.100106.x
p796
sg61
VPHYSIOL PLANTARUM
p797
sg63
V109
p798
sg103
(lp799
(VRUBIO
VF
tp800
asg82
I2000
sg57
VHYSIOL
p801
sbag1
(g2
g3
NtRp802
(dp803
g65
V10.1126/science.270.5242.1660
p804
sg61
VSCIENCE
p805
sg63
V270
p806
sg103
(lp807
(VRUBIO
VF
tp808
asg82
I1995
sg57
V1660
p809
sbag1
(g2
g3
NtRp810
(dp811
g65
V10.1074/jbc.274.11.6839
p812
sg61
VJ BIOL CHEM
p813
sg63
V274
p814
sg103
(lp815
(VRUBIO
VF
tp816
asg82
I1999
sg57
V6839
p817
sbag1
(g2
g3
NtRp818
(dp819
g65
Nsg61
VIN PRESS J BIOL CHEM
p820
sg63
Nsg103
(lp821
(VSANCHEZFERNANDER
S''
tp822
asg82
I2001
sg57
Nsbag1
(g2
g3
NtRp823
(dp824
g65
Nsg61
VPLANT CELL
p825
sg63
V11
p826
sg103
(lp827
(VSANDERS
VD
tp828
asg82
I1999
sg57
VLANT
p829
sbag1
(g2
g3
NtRp830
(dp831
g65
V10.1105/tpc.9.12.2281
p832
sg61
VPLANT CELL
p833
sg63
V9
sg103
(lp834
(VSANTA-MARIA
VG E
tp835
asg82
I1997
sg57
VLANT
p836
sbag1
(g2
g3
NtRp837
(dp838
g65
V10.1016/0014-5793(89)81489-9
p839
sg61
VFEBS LETT
p840
sg63
V259
p841
sg103
(lp842
(VSAUER
VN
tp843
asg82
I1989
sg57
V43
p844
sbag1
(g2
g3
NtRp845
(dp846
g65
V10.1126/science.8966547
p847
sg61
VSCIENCE
p848
sg63
V258
p849
sg103
(lp850
(VSCHACHTMAN
VD P
tp851
asg82
I1992
sg57
V1654
p852
sbag1
(g2
g3
NtRp853
(dp854
g65
V10.1038/370655a0
p855
sg61
VNATURE
p856
sg63
V370
p857
sg103
(lp858
(VSCHACHTMAN
VD P
tp859
asg82
I1994
sg57
V655
p860
sbag1
(g2
g3
NtRp861
(dp862
g65
Nsg61
VJ BACTERIOL
p863
sg63
V175
p864
sg103
(lp865
(VSCHLEYER
VM
tp866
asg82
I1993
sg57
V6925
p867
sbag1
(g2
g3
NtRp868
(dp869
g65
V10.1104/pp.114.4.1141
p870
sg61
VPlant Physiology 
p871
sg63
V114
p872
sg103
(lp873
(VMAATHUIS
VFRANS J M
tp874
asg82
I1997
sg57
Vlant
p875
sbag1
(g2
g3
NtRp876
(dp877
g65
V10.1073/pnas.84.12.4108
p878
sg61
VP NATL ACAD SCI USA
p879
sg63
V84
p880
sg103
(lp881
(VSCHROEDER
VJ I
tp882
asg82
I1987
sg57
V4108
p883
sbag1
(g2
g3
NtRp884
(dp885
g65
V10.1146/annurev.bb.23.060194.002301
p886
sg61
VANNU REV BIOPH BIOM
p887
sg63
V23
p888
sg103
(lp889
(VSCHROEDER
VJ I
tp890
asg82
I1994
sg57
V441
p891
sbag1
(g2
g3
NtRp892
(dp893
g65
Nsg61
VJ BIOL CHEM
p894
sg63
V261
p895
sg103
(lp896
(VSCHUMAKER
VK S
tp897
asg82
I1986
sg57
V2172
p898
sbag1
(g2
g3
NtRp899
(dp900
g65
V10.1073/pnas.95.4.1944
p901
sg61
VP NATL ACAD SCI USA
p902
sg63
V95
p903
sg103
(lp904
(VSCHUURINK
VR C
tp905
asg82
I1998
sg57
V1944
p906
sbag1
(g2
g3
NtRp907
(dp908
g65
V10.1126/science.1585180
p909
sg61
VSCIENCE
p910
sg63
V256
p911
sg103
(lp912
(VSENTENAC
VH
tp913
asg82
I1992
sg57
V663
p914
sbag1
(g2
g3
NtRp915
(dp916
g65
V10.1093/emboj/18.14.3973
p917
sg61
VEMBO J
p918
sg63
V18
p919
sg103
(lp920
(VSHAUL
VO
tp921
asg82
I1999
sg57
V3973
p922
sbag1
(g2
g3
NtRp923
(dp924
g65
V10.1046/j.1365-313x.2000.00901.x
p925
sg61
VPLANT J
p926
sg63
V24
p927
sg103
(lp928
(VSUNKAR
VR
tp929
asg82
I2000
sg57
VLANT
p930
sbag1
(g2
g3
NtRp931
(dp932
g65
V10.1073/pnas.93.10.5105
p933
sg61
VP NATL ACAD SCI USA
p934
sg63
V93
p935
sg103
(lp936
(VSUPEK
VF
tp937
asg82
I1996
sg57
V5105
p938
sbag1
(g2
g3
NtRp939
(dp940
g65
V10.1038/367642a0
p941
sg61
VNATURE
p942
sg63
V367
p943
sg103
(lp944
(VSUZUKI
VM
tp945
asg82
I1994
sg57
V642
p946
sbag1
(g2
g3
NtRp947
(dp948
g65
Nsg61
VPAUP PHYLOGENETIC AN
p949
sg63
Nsg103
(lp950
(VSWOFFORD
VD L
tp951
asg82
I1998
sg57
VAUP
p952
sbag1
(g2
g3
NtRp953
(dp954
g65
V10.1146/annurev.arplant.51.1.433
p955
sg61
VANNU REV PLANT PHYS
p956
sg63
V51
p957
sg103
(lp958
(VSZE
VH
tp959
asg82
I2000
sg57
V433
p960
sbag1
(g2
g3
NtRp961
(dp962
g65
V10.1105/tpc.11.4.677
p963
sg61
VPLANT CELL
p964
sg63
V11
p965
sg103
(lp966
(VSZE
VH
tp967
asg82
I1999
sg57
VLANT
p968
sbag1
(g2
g3
NtRp969
(dp970
g65
V10.1126/science.2441471
p971
sg61
VSCIENCE
p972
sg63
V237
p973
sg103
(lp974
(VTEMPEL
VB L
tp975
asg82
I1987
sg57
V770
p976
sbag1
(g2
g3
NtRp977
(dp978
g65
V10.1016/S0005-2736(00)00132-2
p979
sg61
VBBA
p980
sg63
V1465
p981
sg103
(lp982
(VTHEODOULOU
VF L
tp983
asg82
I2000
sg57
V79
p984
sbag1
(g2
g3
NtRp985
(dp986
g65
V10.1073/pnas.97.9.4991
p987
sg61
VP NATL ACAD SCI USA
p988
sg63
V97
p989
sg103
(lp990
(VTHOMINE
VS
tp991
asg82
I2000
sg57
V4991
p992
sbag1
(g2
g3
NtRp993
(dp994
g65
V10.1093/nar/25.24.4876
p995
sg61
VNUCLEIC ACIDS RES
p996
sg63
V25
p997
sg103
(lp998
(VTHOMPSON
VJ D
tp999
asg82
I1997
sg57
V4876
p1000
sbag1
(g2
g3
NtRp1001
(dp1002
g65
V10.1093/nar/22.22.4673
p1003
sg61
VNUCLEIC ACIDS RES
p1004
sg63
V22
p1005
sg103
(lp1006
(VTHOMPSON
VJ D
tp1007
asg82
I1994
sg57
V4673
p1008
sbag1
(g2
g3
NtRp1009
(dp1010
g65
V10.1006/jmbi.1998.2107
p1011
sg61
VJ MOL BIOL
p1012
sg63
V283
p1013
sg103
(lp1014
(VTUSNADY
VG E
tp1015
asg82
I1998
sg57
V489
p1016
sbag1
(g2
g3
NtRp1017
(dp1018
g65
V10.1104/pp.122.4.1249
p1019
sg61
VPLANT PHYSIOL
p1020
sg63
V122
p1021
sg103
(lp1022
(VUOZUMI
VN
tp1023
asg82
I2000
sg57
VLANT
p1024
sbag1
(g2
g3
NtRp1025
(dp1026
g65
V10.1073/pnas.95.17.9773
p1027
sg61
VP NATL ACAD SCI USA
p1028
sg63
V95
p1029
sg103
(lp1030
(VUOZUMI
VN
tp1031
asg82
I1998
sg57
V9773
p1032
sbag1
(g2
g3
NtRp1033
(dp1034
g65
V10.1046/j.1365-313x.2000.00828.x
p1035
sg61
VPLANT J
p1036
sg63
V23
p1037
sg103
(lp1038
(VURBACH
VS
tp1039
asg82
I2000
sg57
VLANT
p1040
sbag1
(g2
g3
NtRp1041
(dp1042
g65
V10.1104/pp.119.3.1047
p1043
sg61
VPLANT PHYSIOL
p1044
sg63
V119
p1045
sg103
(lp1046
(VVAN
VD E R ZAAL B J
tp1047
asg82
I1999
sg57
VLANT
p1048
sbag1
(g2
g3
NtRp1049
(dp1050
g65
V10.1046/j.1365-313x.2001.01018.x
p1051
sg61
VPLANT J
p1052
sg63
V26
p1053
sg103
(lp1054
(VVERT
VG
tp1055
asg82
I2001
sg57
VLANT
p1056
sbag1
(g2
g3
NtRp1057
(dp1058
g65
V10.1093/bioinformatics/17.6.560
p1059
sg61
VBIOINFORMATICS
p1060
sg63
V17
p1061
sg103
(lp1062
(VWARD
VJ M
tp1063
asg82
I2001
sg57
V560
p1064
sbag1
(g2
g3
NtRp1065
(dp1066
g65
V10.1073/pnas.94.23.12676
p1067
sg61
VP NATL ACAD SCI USA
p1068
sg63
V94
p1069
sg103
(lp1070
(VWENZEL
VH J
tp1071
asg82
I1997
sg57
V12676
p1072
sbag1
(g2
g3
NtRp1073
(dp1074
g65
V10.1073/pnas.93.6.2454
p1075
sg61
VP NATL ACAD SCI USA
p1076
sg63
V93
p1077
sg103
(lp1078
(VZHAO
VH
tp1079
asg82
I1996
sg57
V2454
p1080
sbag1
(g2
g3
NtRp1081
(dp1082
g65
Nsg61
VJ BIOL CHEM
p1083
sg63
V271
p1084
sg103
(lp1085
(VZHAO
VH
tp1086
asg82
I1996
sg57
V23203
p1087
sbag1
(g2
g3
NtRp1088
(dp1089
g65
V10.1104/pp.124.3.941
p1090
sg61
VPLANT PHYSIOL
p1091
sg63
V124
p1092
sg103
(lp1093
(VZHU
VJ K
tp1094
asg82
I2000
sg57
VLANT
p1095
sbag1
(g2
g3
NtRp1096
(dp1097
g65
V10.1016/S1360-1385(00)01838-0
p1098
sg61
VTRENDS PLANT SCI
p1099
sg63
V6
sg103
(lp1100
(VZHU
VJ K
tp1101
asg82
I2001
sg57
V66
p1102
sbasb.