ccopy_reg
_reconstructor
p1
(ctethne.classes.paper
Paper
p2
c__builtin__
object
p3
NtRp4
(dp5
S'publisherCity'
p6
VROCKVILLE
p7
sS'reprintAddress'
p8
VKim, J (reprint author), Chonnam Natl Univ, Dept Bioenergy Sci & Technol, Kwangju 500757, South Korea.
p9
sS'WC'
p10
VPlant Sciences
p11
sS'GA'
p12
V062ZP
p13
sS'FX'
p14
(lp15
VThis work was supported by grants from the World Class University
p16
aVproject (grant no. R31-2009-000-20025-0 to J.K.) and the Basic Science
p17
aVResearch Program (grant no. 2010-0022850 to J.K.) through the National
p18
aVResearch Foundation of Korea, funded by the Ministry of Education,
p19
aVScience, and Technology of Korea, and by the Next-Generation BioGreen21
p20
aVProgram (grant no. PJ008203 to J.K.), Rural Development Administration,
p21
aVRepublic of Korea.
p22
asS'abstract'
p23
VThe Arabidopsis (Arabidopsis thaliana) two-component signaling system, which is composed of sensor histidine kinases, histidine phosphotransfer proteins, and response regulators, mediates the cytokinin response and various other plant responses. We have previously shown that ARABIDOPSIS HISTIDINE KINASE2 (AHK2), AHK3, and cold-inducible type A ARABIDOPSIS RESPONSE REGULATORS (ARRs) play roles in cold signaling. However, the roles of type B ARRs and ARABIDOPSIS HISTIDINE PHOSPHOTRANSFER PROTEINS (AHPs) have not been investigated in cold signaling. Here, we show that ARR1 and AHP2, AHP3, and AHP5 play positive roles in the cold-inducible expression of type A ARRs. arr1 mutants showed greatly reduced cold-responsive expression of type A ARRs compared with the wild type, whereas ARR1-overexpressing Arabidopsis exhibited the hypersensitive cold response of type A ARRs as well as enhanced freezing tolerance with cytokinin, suggesting that ARR1 functions as a positive factor of cold signaling. Transgenic Arabidopsis expressing ARR1 Delta DDK:GR lacking the amino-terminal receiver domain showed wild-type expression levels of type A ARRs in response to cold, indicating that the signal receiver domain of ARR1 might be important for cold-responsive expression of type A ARRs. ahp2 ahp3 ahp5 triple mutations greatly reduced type A ARR expression in response to cold, whereas the single or double ahp mutants displayed wild-type levels of ARR expression, suggesting that AHP2, AHP3, and AHP5 are redundantly involved in cold signaling. Taken together, these results suggest that ARR1 mediates cold signal via AHP2, AHP3, or AHP5 from AHK2 and AHK3 to express type A ARRs. We further identified a cold transcriptome affected by ahk2 ahk3 mutations by microarray analysis, revealing a new cold-responsive gene network regulated downstream of AHK2 and AHK3.
p24
sS'pageEnd'
p25
I424
sS'date'
p26
I2013
sS'documentType'
p27
VArticle
p28
sS'subject'
p29
VPlant Sciences
p30
sS'isoSource'
p31
VPlant Physiol.
p32
sS'timesCited'
p33
(lp34
I2
aVZ9 2
p35
asS'funding'
p36
(lp37
(VWorld Class University project
VR31-2009-000-20025-0
tp38
a(VBasic Science Research Program through the National Research Foundation of Korea
V2010-0022850
tp39
a(VMinistry of Education, Science, and Technology of Korea
Ntp40
a(VNext-Generation BioGreen21 Programm, Rural Development Administration, Republic of Korea
VPJ008203
tp41
asS'PT'
p42
VJ
sS'title'
p43
VArabidopsis Response Regulator1 And Arabidopsis Histidine Phosphotransfer Protein2 (Ahp2), Ahp3, And Ahp5 Function In Cold Signaling
p44
sS'ISSN'
p45
(lp46
V0032-0889
p47
aVJ9 PLANT PHYSIOL
p48
asS'authors_full'
p49
(lp50
(VJEON
VJIN
tp51
a(VKIM
VJUNGMOOK
tp52
asS'PG'
p53
I17
sS'PD'
p54
VJAN
p55
sS'pageStart'
p56
I408
sS'issue'
p57
I1
sS'journal'
p58
VPLANT PHYSIOLOGY
p59
sS'volume'
p60
V161
p61
sS'doi'
p62
V10.1104/pp.112.207621
p63
sS'emailAddress'
p64
Vjungmkim@chonnam.ac.kr
p65
sS'authorAddress'
p66
(lp67
V[Jeon, Jin] Chonnam Natl Univ, Dept Plant Biotechnol, Kwangju 500757, South Korea.
p68
aV[Kim, Jungmook] Chonnam Natl Univ, Dept Bioenergy Sci & Technol, Kwangju 500757, South Korea.
p69
aV[Kim, Jungmook] Chonnam Natl Univ, Kumho Life Sci Lab, Kwangju 500757, South Korea.
p70
asS'publisherAddress'
p71
V15501 MONONA DRIVE, ROCKVILLE, MD 20855 USA
p72
sS'ER'
p73
V
sS'publisher'
p74
VAMER SOC PLANT BIOLOGISTS
p75
sS'authorKeywords'
p76
(lp77
VTO-ASP PHOSPHORELAY
p78
aVCIRCADIAN CLOCK
p79
aVCYTOKININ-RECEPTOR
p80
aVTRANSCRIPTION FACTOR
p81
aV2-COMPONENT CIRCUITRY
p82
aVNEGATIVE REGULATOR
p83
aVGENE-EXPRESSION
p84
aVSTRESS-RESPONSE
p85
aVTHALIANA
p86
aVTRANSDUCTION
p87
asS'language'
p88
VEnglish
p89
sS'wosid'
p90
VWOS:000312964000033
p91
sS'citationCount'
p92
I68
sS'authors_init'
p93
(lp94
(VJEON
VJ
tp95
a(VKIM
VJ
tp96
asS'citedReferences'
p97
(lp98
g1
(g2
g3
NtRp99
(dp100
g62
V10.1074/jbc.M605895200
p101
sg58
VJ BIOL CHEM
p102
sg60
V281
p103
sg93
(lp104
(VAGARWAL
VM
tp105
asg26
I2006
sg56
V37636
p106
sbag1
(g2
g3
NtRp107
(dp108
g62
V10.1105/tpc.108.059584
p109
sg58
VPLANT CELL
p110
sg60
V20
p111
sg93
(lp112
(VARGYROS
VR D
tp113
asg26
I2008
sg56
VLANT
p114
sbag1
(g2
g3
NtRp115
(dp116
g62
Nsg58
VJ ROY STAT SOC B MET
p117
sg60
V57
p118
sg93
(lp119
(VBENJAMINI
VY
tp120
asg26
I1995
sg56
V289
p121
sbag1
(g2
g3
NtRp122
(dp123
g62
V10.1104/pp.108.118059
p124
sg58
VPLANT PHYSIOL
p125
sg60
V147
p126
sg93
(lp127
(VBIENIAWSKA
VZ
tp128
asg26
I2008
sg56
VLANT
p129
sbag1
(g2
g3
NtRp130
(dp131
g62
V10.1016/j.tplants.2007.07.002
p132
sg58
VTRENDS PLANT SCI
p133
sg60
V12
p134
sg93
(lp135
(VCHINNUSAMY
VV
tp136
asg26
I2007
sg56
V444
p137
sbag1
(g2
g3
NtRp138
(dp139
g62
V10.1016/j.devcel.2010.07.011
p140
sg58
VDEV CELL
p141
sg60
V19
p142
sg93
(lp143
(VCHOI
VJ
tp144
asg26
I2010
sg56
V284
p145
sbag1
(g2
g3
NtRp146
(dp147
g62
V10.1073/pnas.1103741108
p148
sg58
VP NATL ACAD SCI USA
p149
sg60
V108
p150
sg93
(lp151
(VDONG
VM A
tp152
asg26
I2011
sg56
V7241
p153
sbag1
(g2
g3
NtRp154
(dp155
g62
V10.1105/tpc.003483
p156
sg58
VPLANT CELL
p157
sg60
V14
p158
sg93
(lp159
(VFOWLER
VS
tp160
asg26
I2002
sg56
VLANT
p161
sbag1
(g2
g3
NtRp162
(dp163
g62
V10.1104/pp.104.058354
p164
sg58
VPLANT PHYSIOL
p165
sg60
V137
p166
sg93
(lp167
(VFOWLER
VS G
tp168
asg26
I2005
sg56
VLANT
p169
sbag1
(g2
g3
NtRp170
(dp171
g62
V10.1093/jxb/erl205
p172
sg58
VJ EXP BOT
p173
sg60
V57
p174
sg93
(lp175
(VGATTOLIN
VS
tp176
asg26
I2006
sg56
V4225
p177
sbag1
(g2
g3
NtRp178
(dp179
g62
V10.1126/science.290.5499.2110
p180
sg58
VSCIENCE
p181
sg60
V290
p182
sg93
(lp183
(VHARMER
VS L
tp184
asg26
I2000
sg56
V2110
p185
sbag1
(g2
g3
NtRp186
(dp187
g62
V10.1038/sj.emboj.7600337
p188
sg58
VEMBO J
p189
sg60
V23
p190
sg93
(lp191
(VHASS
VC
tp192
asg26
I2004
sg56
V3290
p193
sbag1
(g2
g3
NtRp194
(dp195
g62
V10.1104/pp.107.115436
p196
sg58
VPLANT PHYSIOL
p197
sg60
V147
p198
sg93
(lp199
(VHEYL
VA
tp200
asg26
I2008
sg56
VLANT
p201
sbag1
(g2
g3
NtRp202
(dp203
g62
V10.1186/1471-2229-8-77
p204
sg58
VBMC PLANT BIOL
p205
sg60
V8
sg93
(lp206
(VHORAK
VJ
tp207
asg26
I2008
sg56
Nsbag1
(g2
g3
NtRp208
(dp209
g62
V10.1038/nchembio.667
p210
sg58
VNAT CHEM BIOL
p211
sg60
V7
sg93
(lp212
(VHOTHORN
VM
tp213
asg26
I2011
sg56
V766
p214
sbag1
(g2
g3
NtRp215
(dp216
g62
V10.1105/tpc.010444
p217
sg58
VPLANT CELL
p218
sg60
V14
p219
sg93
(lp220
(VHUTCHISON
VC E
tp221
asg26
I2002
sg56
VLANT
p222
sbag1
(g2
g3
NtRp223
(dp224
g62
V10.1105/tpc.106.045674
p225
sg58
VPLANT CELL
p226
sg60
V18
p227
sg93
(lp228
(VHUTCHISON
VC E
tp229
asg26
I2006
sg56
VLANT
p230
sbag1
(g2
g3
NtRp231
(dp232
g62
V10.1038/35096500
p233
sg58
VNATURE
p234
sg60
V413
p235
sg93
(lp236
(VHWANG
VI
tp237
asg26
I2001
sg56
V383
p238
sbag1
(g2
g3
NtRp239
(dp240
g62
V10.1146/annurev-arplant-042811-105503
p241
sg58
VANNU REV PLANT BIOL
p242
sg60
V63
p243
sg93
(lp244
(VHWANG
VI
tp245
asg26
I2012
sg56
V353
p246
sbag1
(g2
g3
NtRp247
(dp248
g62
V10.1104/pp.005504
p249
sg58
VPlant Physiology 
p250
sg60
V129
p251
sg93
(lp252
(VHWANG
VILDOO
tp253
asg26
I2002
sg56
Vlant
p254
sbag1
(g2
g3
NtRp255
(dp256
g62
V10.1093/pcp/pcg014
p257
sg58
VPLANT CELL PHYSIOL
p258
sg60
V44
p259
sg93
(lp260
(VIMAMURA
VA
tp261
asg26
I2003
sg56
VLANT
p262
sbag1
(g2
g3
NtRp263
(dp264
g62
V10.1073/pnas.95.5.2691
p265
sg58
VP NATL ACAD SCI USA
p266
sg60
V95
p267
sg93
(lp268
(VIMAMURA
VA
tp269
asg26
I1998
sg56
V2691
p270
sbag1
(g2
g3
NtRp271
(dp272
g62
V10.1038/35059117
p273
sg58
VNATURE
p274
sg60
V409
p275
sg93
(lp276
(VINOUE
VT
tp277
asg26
I2001
sg56
V1060
p278
sbag1
(g2
g3
NtRp279
(dp280
g62
V10.1093/pcp/pcm165
p281
sg58
VPLANT CELL PHYSIOL
p282
sg60
V49
p283
sg93
(lp284
(VISHIDA
VK
tp285
asg26
I2008
sg56
VLANT
p286
sbag1
(g2
g3
NtRp287
(dp288
g62
V10.1146/annurev.arplant.54.031902.134802
p289
sg58
VANNU REV PLANT BIOL
p290
sg60
V54
p291
sg93
(lp292
(VKAKIMOTO
VT
tp293
asg26
I2003
sg56
V605
p294
sbag1
(g2
g3
NtRp295
(dp296
g62
V10.1016/j.jplph.2012.05.007
p297
sg58
VJ PLANT PHYSIOL
p298
sg60
V169
p299
sg93
(lp300
(VKANG
VN Y
tp301
asg26
I2012
sg56
V1382
p302
sbag1
(g2
g3
NtRp303
(dp304
g62
V10.1093/pcp/pch128
p305
sg58
VPLANT CELL PHYSIOL
p306
sg60
V45
p307
sg93
(lp308
(VKIBA
VT
tp309
asg26
I2004
sg56
VLANT
p310
sbag1
(g2
g3
NtRp311
(dp312
g62
V10.1093/pcp/pcg108
p313
sg58
VPLANT CELL PHYSIOL
p314
sg60
V44
p315
sg93
(lp316
(VKIBA
VT
tp317
asg26
I2003
sg56
VLANT
p318
sbag1
(g2
g3
NtRp319
(dp320
g62
V10.1111/j.1365-313X.2007.03052.x
p321
sg58
VPLANT J
p322
sg60
V50
p323
sg93
(lp324
(VKILIAN
VJ
tp325
asg26
I2007
sg56
VLANT
p326
sbag1
(g2
g3
NtRp327
(dp328
g62
V10.1073/pnas.0505150103
p329
sg58
VP NATL ACAD SCI USA
p330
sg60
V103
p331
sg93
(lp332
(VKIM
VH J
tp333
asg26
I2006
sg56
V814
p334
sbag1
(g2
g3
NtRp335
(dp336
g62
V10.1111/j.1365-313X.2011.04843.x
p337
sg58
VPLANT J
p338
sg60
V69
p339
sg93
(lp340
(VKIM
VK
tp341
asg26
I2012
sg56
VLANT
p342
sbag1
(g2
g3
NtRp343
(dp344
g62
V10.1074/jbc.M109.096644
p345
sg58
VJ BIOL CHEM
p346
sg60
V285
p347
sg93
(lp348
(VJEON
VJ
tp349
asg26
I2010
sg56
V23369
p350
sbag1
(g2
g3
NtRp351
(dp352
g62
V10.1007/s00438-006-0177-x
p353
sg58
VMOL GENET GENOMICS
p354
sg60
V277
p355
sg93
(lp356
(VLEE
VD J
tp357
asg26
I2007
sg56
V115
p358
sbag1
(g2
g3
NtRp359
(dp360
g62
V10.1007/s00425-007-0640-x
p361
sg58
VPLANTA
p362
sg60
V227
p363
sg93
(lp364
(VLEE
VD J
tp365
asg26
I2008
sg56
VLANTA
p366
sbag1
(g2
g3
NtRp367
(dp368
g62
V10.1016/j.jgg.2011.12.004
p369
sg58
VJ GENET GENOMICS
p370
sg60
V39
p371
sg93
(lp372
(VLIANG
VY
tp373
asg26
I2012
sg56
V37
p374
sbag1
(g2
g3
NtRp375
(dp376
g62
V10.1104/pp.128.2.363
p377
sg58
VPLANT PHYSIOL
p378
sg60
V128
p379
sg93
(lp380
(VLOHRMANN
VJ
tp381
asg26
I2002
sg56
VLANT
p382
sbag1
(g2
g3
NtRp383
(dp384
g62
V10.1016/j.cub.2006.04.030
p385
sg58
VCURR BIOL
p386
sg60
V16
p387
sg93
(lp388
(VMAHONEN
VA P
tp389
asg26
I2006
sg56
V1116
p390
sbag1
(g2
g3
NtRp391
(dp392
g62
V10.1126/science.1118875
p393
sg58
VSCIENCE
p394
sg60
V311
p395
sg93
(lp396
(VMAHONEN
VA P
tp397
asg26
I2006
sg56
V94
p398
sbag1
(g2
g3
NtRp399
(dp400
g62
V10.1111/j.1365-313X.2004.02100.x
p401
sg58
VPLANT J
p402
sg60
V38
p403
sg93
(lp404
(VMARUYAMA
VK
tp405
asg26
I2004
sg56
VLANT
p406
sbag1
(g2
g3
NtRp407
(dp408
g62
V10.1104/pp.109.135327
p409
sg58
VPLANT PHYSIOL
p410
sg60
V150
p411
sg93
(lp412
(VMARUYAMA
VK
tp413
asg26
I2009
sg56
VLANT
p414
sbag1
(g2
g3
NtRp415
(dp416
g62
V10.1105/tpc.105.035451
p417
sg58
VPLANT CELL
p418
sg60
V17
p419
sg93
(lp420
(VMASON
VM G
tp421
asg26
I2005
sg56
VLANT
p422
sbag1
(g2
g3
NtRp423
(dp424
g62
V10.1111/j.1365-313X.2009.03957.x
p425
sg58
VPLANT J
p426
sg60
V60
p427
sg93
(lp428
(VMIKKELSEN
VM D
tp429
asg26
I2009
sg56
VLANT
p430
sbag1
(g2
g3
NtRp431
(dp432
g62
V10.1093/dnares/4.2.161
p433
sg58
VDNA Res
p434
sg60
V4
sg93
(lp435
(VMIZUNO
VT
tp436
asg26
I1997
sg56
V161
p437
sbag1
(g2
g3
NtRp438
(dp439
g62
V10.1093/pcp/pcp004
p440
sg58
VPLANT CELL PHYSIOL
p441
sg60
V50
p442
sg93
(lp443
(VNAKAMICHI
VN
tp444
asg26
I2009
sg56
VLANT
p445
sbag1
(g2
g3
NtRp446
(dp447
g62
V10.1105/tpc.021477
p448
sg58
VPLANT CELL
p449
sg60
V16
p450
sg93
(lp451
(VNISHIMURA
VC
tp452
asg26
I2004
sg56
VLANT
p453
sbag1
(g2
g3
NtRp454
(dp455
g62
V10.1104/pp.109.139188
p456
sg58
VPLANT PHYSIOL
p457
sg60
V151
p458
sg93
(lp459
(VPILS
VB
tp460
asg26
I2009
sg56
VLANT
p461
sbag1
(g2
g3
NtRp462
(dp463
g62
V10.4161/psb.5.7.12094
p464
sg58
VPlant Signal Behav
p465
sg60
V5
sg93
(lp466
(VPUNWANI
VJAYSON A
tp467
asg26
I2010
sg56
Vlant
p468
sbag1
(g2
g3
NtRp469
(dp470
g62
V10.1111/j.1365-313X.2010.04165.x
p471
sg58
VPLANT J
p472
sg60
V62
p473
sg93
(lp474
(VPUNWANI
VJ A
tp475
asg26
I2010
sg56
VLANT
p476
sbag1
(g2
g3
NtRp477
(dp478
g62
V10.1105/tpc.105.037796
p479
sg58
VPLANT CELL
p480
sg60
V18
p481
sg93
(lp482
(VRIEFLER
VM
tp483
asg26
I2006
sg56
VLANT
p484
sbag1
(g2
g3
NtRp485
(dp486
g62
V10.1046/j.1365-313x.2000.00909.x
p487
sg58
VPLANT J
p488
sg60
V24
p489
sg93
(lp490
(VSAKAI
VH
tp491
asg26
I2000
sg56
VLANT
p492
sbag1
(g2
g3
NtRp493
(dp494
g62
V10.1126/science.1065201
p495
sg58
VSCIENCE
p496
sg60
V294
p497
sg93
(lp498
(VSAKAI
VH
tp499
asg26
I2001
sg56
V1519
p500
sbag1
(g2
g3
NtRp501
(dp502
g62
V10.1016/S0065-2296(00)32023-7
p503
sg58
VADV BOT RES
p504
sg60
V32
p505
sg93
(lp506
(VSCHALLER
VG E
tp507
asg26
I2000
sg56
V109
p508
sbag1
(g2
g3
NtRp509
(dp510
g62
V10.1038/ng1543
p511
sg58
VNAT GENET
p512
sg60
V37
p513
sg93
(lp514
(VSCHMID
VM
tp515
asg26
I2005
sg56
V501
p516
sbag1
(g2
g3
NtRp517
(dp518
g62
V10.1105/tpc.13.1.61
p519
sg58
VPLANT CELL
p520
sg60
V13
p521
sg93
(lp522
(VSEKI
VM
tp523
asg26
I2001
sg56
VLANT
p524
sbag1
(g2
g3
NtRp525
(dp526
g62
V10.1105/tpc.112.098723
p527
sg58
VPLANT CELL
p528
sg60
V24
p529
sg93
(lp530
(VSEO
VP J
tp531
asg26
I2012
sg56
VLANT
p532
sbag1
(g2
g3
NtRp533
(dp534
g62
V10.1146/annurev.biochem.69.1.183
p535
sg58
VANNU REV BIOCHEM
p536
sg60
V69
p537
sg93
(lp538
(VSTOCK
VA M
tp539
asg26
I2000
sg56
V183
p540
sbag1
(g2
g3
NtRp541
(dp542
g62
V10.1271/bbb.64.2486
p543
sg58
VBIOSCI BIOTECH BIOCH
p544
sg60
V64
p545
sg93
(lp546
(VSUZUKI
VT
tp547
asg26
I2000
sg56
V2486
p548
sbag1
(g2
g3
NtRp549
(dp550
g62
V10.1093/pcp/pce037
p551
sg58
VPLANT CELL PHYSIOL
p552
sg60
V42
p553
sg93
(lp554
(VSUZUKI
VT
tp555
asg26
I2001
sg56
VLANT
p556
sbag1
(g2
g3
NtRp557
(dp558
g62
V10.1271/bbb.68.462
p559
sg58
VBIOSCI BIOTECH BIOCH
p560
sg60
V68
p561
sg93
(lp562
(VTANAKA
VY
tp563
asg26
I2004
sg56
V462
p564
sbag1
(g2
g3
NtRp565
(dp566
g62
V10.1093/pcp/pcl063
p567
sg58
VPLANT CELL PHYSIOL
p568
sg60
V48
p569
sg93
(lp570
(VTANIGUCHI
VM
tp571
asg26
I2007
sg56
VLANT
p572
sbag1
(g2
g3
NtRp573
(dp574
g62
V10.1105/tpc.107.052662
p575
sg58
VPLANT CELL
p576
sg60
V19
p577
sg93
(lp578
(VTO
VJ P C
tp579
asg26
I2007
sg56
VLANT
p580
sbag1
(g2
g3
NtRp581
(dp582
g62
V10.1105/tpc.018978
p583
sg58
VPLANT CELL
p584
sg60
V16
p585
sg93
(lp586
(VTO
VJ P C
tp587
asg26
I2004
sg56
VLANT
p588
sbag1
(g2
g3
NtRp589
(dp590
g62
V10.1016/j.tplants.2007.11.005
p591
sg58
VTRENDS PLANT SCI
p592
sg60
V13
p593
sg93
(lp594
(VTO
VJ P C
tp595
asg26
I2008
sg56
V85
p596
sbag1
(g2
g3
NtRp597
(dp598
g62
Nsg58
VPlant Signal Behav
p599
sg60
V5
sg93
(lp600
(VTRAN
VLAMSON PHAN
tp601
asg26
I2010
sg56
Vlant
p602
sbag1
(g2
g3
NtRp603
(dp604
g62
V10.1073/pnas.0706547105
p605
sg58
VP NATL ACAD SCI USA
p606
sg60
V104
p607
sg93
(lp608
(VTRAN
VL S P
tp609
asg26
I2007
sg56
V20623
p610
sbag1
(g2
g3
NtRp611
(dp612
g62
V10.1093/pcp/pce094
p613
sg58
VPLANT CELL PHYSIOL
p614
sg60
V42
p615
sg93
(lp616
(VUEGUCHI
VC
tp617
asg26
I2001
sg56
VLANT
p618
sbag1
(g2
g3
NtRp619
(dp620
g62
V10.1371/journal.pone.0000718
p621
sg58
VPLOS ONE
p622
sg60
V2
sg93
(lp623
(VWINTER
VD
tp624
asg26
I2007
sg56
VLOS
p625
sbag1
(g2
g3
NtRp626
(dp627
g62
V10.1093/pcp/pce127
p628
sg58
VPLANT CELL PHYSIOL
p629
sg60
V42
p630
sg93
(lp631
(VYAMADA
VH
tp632
asg26
I2001
sg56
VLANT
p633
sbasb.