ccopy_reg
_reconstructor
p1
(ctethne.classes.paper
Paper
p2
c__builtin__
object
p3
NtRp4
(dp5
S'publisherCity'
p6
VROCKVILLE
p7
sS'reprintAddress'
p8
VKuster, H (reprint author), Leibniz Univ Hannover, Inst Plant Genet, Unit Plant Genom 4, D-30419 Hannover, Germany.
p9
sS'WC'
p10
VPlant Sciences
p11
sS'GA'
p12
V551XL
p13
sS'FX'
p14
(lp15
VThis work was supported by the European Union projects FIXNET (grant no.
p16
aVCT97-2319) and GRAIN LEGUMES (grant no. FOOD-CT-2004-506223) as well as
p17
aVby the Deutsche Forschungsgemeinschaft (grant no. SPP1084 "MolMyk").
p18
asS'abstract'
p19
VThe relevance of the symbiosis-induced Medicago truncatula sucrose synthase gene MtSucS1 for an efficient arbuscular mycorrhiza (AM) was studied using two independent antisense lines that displayed up to 10-fold reduced SucS1 levels in roots. Mycorrhizal MtSucS1-reduced lines exhibited an overall stunted aboveground growth under inorganic phosphorus limitation. Apart from a reduced plant height, shoot weight, and leaf development, a delayed flowering, resulting in a lower seed yield, was observed. In addition, the root-to-shoot and root weight ratios increased significantly. Gene expression studies demonstrated a major reversion of AM-associated transcription, exhibiting a significant repression of well-known plant AM marker and mycosymbiont genes, together indicating a diminished AM fungus colonization of MtSucS1-antisense lines. Concomitantly, gas chromatography-mass spectrometry-based metabolite profiling revealed that mycorrhizal MtSucS1-reduced lines were affected in important nodes of the carbon, nitrogen, and phosphorus metabolism, accentuating a physiological significance of MtSucS1 for AM. In fact, antisensing MtSucS1 provoked an impaired fungal colonization within the less abundant infected regions, evident from strongly reduced frequencies of internal hyphae, vesicles, and arbuscules. Moreover, arbuscules were early senescing, accompanied with a reduced development of mature arbuscules. This defective mycorrhiza status correlated with reduced phosphorus and nitrogen levels and was proportional to the extent of MtSucS1 knockdown. Together, our results point to an important role for MtSucS1 in the establishment and maintenance of arbuscules in the AM symbiosis.
p20
sS'pageEnd'
p21
I1014
sS'date'
p22
I2010
sS'documentType'
p23
VArticle
p24
sS'subject'
p25
VPlant Sciences
p26
sS'isoSource'
p27
VPlant Physiol.
p28
sS'timesCited'
p29
(lp30
I16
aVZ9 18
p31
asS'funding'
p32
(lp33
(VEuropean Union projects FIXNET
VCT97-2319
tp34
a(VGRAIN LEGUMES
VFOOD-CT-2004-506223
tp35
a(VDeutsche Forschungsgemeinschaft
VSPP1084
tp36
asS'title'
p37
VKnockdown Of The Symbiotic Sucrose Synthase Mtsucs1 Affects Arbuscule Maturation And Maintenance In Mycorrhizal Roots Of Medicago Truncatula
p38
sS'ISSN'
p39
(lp40
V0032-0889
p41
aVJ9 PLANT PHYSIOL
p42
asS'authors_full'
p43
(lp44
(VBAIER
VMARKUS CHRISTIAN
tp45
a(VKECK
VMATTHIAS
tp46
a(VGOEDDE
VVICTORIA
tp47
a(VNIEHAUS
VKARSTEN
tp48
a(VKUESTER
VHELGE
tp49
a(VHOHNJEC
VNATALIJA
tp50
asS'PG'
p51
I15
sS'PD'
p52
VFEB
p53
sS'pageStart'
p54
I1000
sS'issue'
p55
I2
sS'RI'
p56
VNiehaus, Karsten/A-3966-2010; Kuster, Helge/A-4487-2013
p57
sS'journal'
p58
VPLANT PHYSIOLOGY
p59
sS'volume'
p60
V152
p61
sS'doi'
p62
V10.1104/pp.109.149898
p63
sS'emailAddress'
p64
Vhelge.kuester@genetik.uni-hannover.de
p65
sS'authorAddress'
p66
(lp67
V[Kuester, Helge; Hohnjec, Natalija] Leibniz Univ Hannover, Inst Plant Genet, Unit Plant Genom 4, D-30419 Hannover, Germany.
p68
aV[Baier, Markus Christian; Keck, Matthias; Goedde, Victoria; Niehaus, Karsten] Univ Bielefeld, Ctr Biotechnol, Inst Genome Res & Syst Biol, D-33594 Bielefeld, Germany.
p69
asS'publisherAddress'
p70
V15501 MONONA DRIVE, ROCKVILLE, MD 20855 USA
p71
sS'ER'
p72
V
sS'publisher'
p73
VAMER SOC PLANT BIOLOGISTS
p74
sS'authorKeywords'
p75
(lp76
VENHANCED INVERTASE ACTIVITY
p77
aVTRIFOLIUM-REPENS L
p78
aVGENE-EXPRESSION
p79
aVGROWTH-RESPONSES
p80
aVPHOSPHATE TRANSPORTER
p81
aVPHOSPHORUS-NUTRITION
p82
aVGLOMUS-INTRARADICES
p83
aVCARBON METABOLISM
p84
aVSUGAR TRANSPORTER
p85
aVPHOTON IRRADIANCE
p86
asS'language'
p87
VEnglish
p88
sS'wosid'
p89
VWOS:000274246600050
p90
sS'citationCount'
p91
I95
sS'authors_init'
p92
(lp93
(VBAIER
VM C
tp94
a(VKECK
VM
tp95
a(VGODDE
VV
tp96
a(VNIEHAUS
VK
tp97
a(VKUSTER
VH
tp98
a(VHOHNJEC
VN
tp99
asS'citedReferences'
p100
(lp101
g1
(g2
g3
NtRp102
(dp103
g62
Nsg58
VCAN J BOT
p104
sg60
V67
p105
sg92
(lp106
(VALEXANDER
VT
tp107
asg22
I1989
sg54
V2505
p108
sbag1
(g2
g3
NtRp109
(dp110
g62
V10.1104/pp.102.007765
p111
sg58
VPLANT PHYSIOL
p112
sg60
V131
p113
sg92
(lp114
(VBAGO
VB
tp115
asg22
I2003
sg54
VLANT
p116
sbag1
(g2
g3
NtRp117
(dp118
g62
V10.1104/pp.124.3.949
p119
sg58
VPLANT PHYSIOL
p120
sg60
V124
p121
sg92
(lp122
(VBAGO
VB
tp123
asg22
I2000
sg54
VLANT
p124
sbag1
(g2
g3
NtRp125
(dp126
g62
V10.1104/pp.107.106955
p127
sg58
VPLANT PHYSIOL
p128
sg60
V145
p129
sg92
(lp130
(VBAIER
VM C
tp131
asg22
I2007
sg54
VLANT
p132
sbag1
(g2
g3
NtRp133
(dp134
g62
Nsg58
VPLANT PHYSIOL
p135
sg60
V111
p136
sg92
(lp137
(VBALESTRINI
VR
tp138
asg22
I1996
sg54
VLANT
p139
sbag1
(g2
g3
NtRp140
(dp141
g62
V10.1080/11263500500056799
p142
sg58
VPLANT BIOSYST
p143
sg60
V139
p144
sg92
(lp145
(VBALESTRINI
VR
tp146
asg22
I2005
sg54
VLANT
p147
sbag1
(g2
g3
NtRp148
(dp149
g62
V10.1104/pp.127.2.655
p150
sg58
VPLANT PHYSIOL
p151
sg60
V127
p152
sg92
(lp153
(VBARRATT
VD H P
tp154
asg22
I2001
sg54
VLANT
p155
sbag1
(g2
g3
NtRp156
(dp157
g62
V10.1046/j.1365-3040.2000.00598.x
p158
sg58
VPLANT CELL ENVIRON
p159
sg60
V23
p160
sg92
(lp161
(VBLACK
VK G
tp162
asg22
I2000
sg54
VLANT
p163
sbag1
(g2
g3
NtRp164
(dp165
g62
V10.1007/BF01283396
p166
sg58
VPROTOPLASMA
p167
sg60
V217
p168
sg92
(lp169
(VBLANCAFLOR
VE B
tp170
asg22
I2001
sg54
VROTOPLASMA
p171
sbag1
(g2
g3
NtRp172
(dp173
g62
V10.1023/A:1016038010393
p174
sg58
VPLANT MOL BIOL
p175
sg60
V50
p176
sg92
(lp177
(VBLEE
VK A
tp178
asg22
I2002
sg54
VLANT
p179
sbag1
(g2
g3
NtRp180
(dp181
g62
V10.1046/j.1365-313x.1998.00315.x
p182
sg58
VPLANT J
p183
sg60
V16
p184
sg92
(lp185
(VBLEE
VK A
tp186
asg22
I1998
sg54
VLANT
p187
sbag1
(g2
g3
NtRp188
(dp189
g62
Nsg58
VMYCOTA
p190
sg60
V9
sg92
(lp191
(VBONFANTE
VP
tp192
asg22
I2001
sg54
V45
p193
sbag1
(g2
g3
NtRp194
(dp195
g62
V10.1111/j.1469-8137.1995.tb01810.x
p196
sg58
VNEW PHYTOL
p197
sg60
V130
p198
sg92
(lp199
(VBONFANTE
VP
tp200
asg22
I1995
sg54
V3
sbag1
(g2
g3
NtRp201
(dp202
g62
Nsg58
VVA MYCORRHIZAE
p203
sg60
VA
sg92
(lp204
(VBONFANTEFASOLO
VP
tp205
asg22
I1984
sg54
V5
sbag1
(g2
g3
NtRp206
(dp207
g62
V10.1007/BF00665598
p208
sg58
VOECOLOGIA
p209
sg60
V84
p210
sg92
(lp211
(VBRYLA
VD R
tp212
asg22
I1990
sg54
V74
p213
sbag1
(g2
g3
NtRp214
(dp215
g62
V10.1111/j.1469-8137.2004.01274.x
p216
sg58
VNEW PHYTOL
p217
sg60
V165
p218
sg92
(lp219
(VBUCKING
VH
tp220
asg22
I2005
sg54
V899
p221
sbag1
(g2
g3
NtRp222
(dp223
g62
V10.1093/jxb/erf013
p224
sg58
VJ EXP BOT
p225
sg60
V53
p226
sg92
(lp227
(VBURLEIGH
VS H
tp228
asg22
I2002
sg54
V1593
p229
sbag1
(g2
g3
NtRp230
(dp231
g62
Nsg58
VMOL GEN GENET
p232
sg60
V252
p233
sg92
(lp234
(VCARLSON
VS J
tp235
asg22
I1996
sg54
V303
p236
sbag1
(g2
g3
NtRp237
(dp238
g62
V10.1094/MPMI-19-1062
p239
sg58
VMOL PLANT MICROBE IN
p240
sg60
V19
p241
sg92
(lp242
(VCONRATH
VU
tp243
asg22
I2006
sg54
V1062
p244
sbag1
(g2
g3
NtRp245
(dp246
g62
V10.1023/A:1026466802354
p247
sg58
VPLANT SOIL
p248
sg60
V226
p249
sg92
(lp250
(VDOUDS
VD D
tp251
asg22
I2000
sg54
VLANT
p252
sbag1
(g2
g3
NtRp253
(dp254
g62
V10.1111/j.1365-313X.2008.03575.x
p255
sg58
VPLANT J
p256
sg60
V56
p257
sg92
(lp258
(VFLOSS
VD S
tp259
asg22
I2008
sg54
VLANT
p260
sbag1
(g2
g3
NtRp261
(dp262
g62
V10.1105/tpc.7.9.1369
p263
sg58
VPLANT CELL
p264
sg60
V7
sg92
(lp265
(VFU
VH Y
tp266
asg22
I1995
sg54
VLANT
p267
sbag1
(g2
g3
NtRp268
(dp269
g62
V10.1111/j.1399-3054.2007.00873.x
p270
sg58
VPHYSIOL PLANTARUM
p271
sg60
V129
p272
sg92
(lp273
(VGARCIA-RODRIGUEZ
VS
tp274
asg22
I2007
sg54
VHYSIOL
p275
sbag1
(g2
g3
NtRp276
(dp277
g62
V10.1007/s00572-005-0354-5
p278
sg58
VMYCORRHIZA
p279
sg60
V15
p280
sg92
(lp281
(VGARCIA-RODRIGUEZ
VS
tp282
asg22
I2005
sg54
V489
p283
sbag1
(g2
g3
NtRp284
(dp285
g62
V10.1105/tpc.105.035410
p286
sg58
VPLANT CELL
p287
sg60
V17
p288
sg92
(lp289
(VGENRE
VA
tp290
asg22
I2005
sg54
VLANT
p291
sbag1
(g2
g3
NtRp292
(dp293
g62
V10.1046/j.1469-8137.1998.00314.x
p294
sg58
VNEW PHYTOL
p295
sg60
V140
p296
sg92
(lp297
(VGENRE
VA
tp298
asg22
I1998
sg54
V745
p299
sbag1
(g2
g3
NtRp300
(dp301
g62
V10.1105/tpc.108.059014
p302
sg58
VPLANT CELL
p303
sg60
V20
p304
sg92
(lp305
(VGENRE
VA
tp306
asg22
I2008
sg54
VLANT
p307
sbag1
(g2
g3
NtRp308
(dp309
g62
V10.1111/j.1469-8137.1980.tb04556.x
p310
sg58
VNEW PHYTOL
p311
sg60
V84
p312
sg92
(lp313
(VGIOVANNETTI
VM
tp314
asg22
I1980
sg54
V489
p315
sbag1
(g2
g3
NtRp316
(dp317
g62
V10.1186/1471-2229-9-10
p318
sg58
VBMC PLANT BIOL
p319
sg60
V9
sg92
(lp320
(VGOMEZ
VS K
tp321
asg22
I2009
sg54
Nsbag1
(g2
g3
NtRp322
(dp323
g62
V10.1046/j.1469-8137.1997.00636.x
p324
sg58
VNEW PHYTOL
p325
sg60
V135
p326
sg92
(lp327
(VGRAHAM
VJ H
tp328
asg22
I1997
sg54
V335
p329
sbag1
(g2
g3
NtRp330
(dp331
g62
V10.1111/j.1469-8137.2008.02725.x
p332
sg58
VNEW PHYTOL
p333
sg60
V182
p334
sg92
(lp335
(VGUETHER
VM
tp336
asg22
I2009
sg54
V200
p337
sbag1
(g2
g3
NtRp338
(dp339
g62
V10.1105/tpc.004861
p340
sg58
VPLANT CELL
p341
sg60
V14
p342
sg92
(lp343
(VHARRISON
VM J
tp344
asg22
I2002
sg54
VLANT
p345
sbag1
(g2
g3
NtRp346
(dp347
g62
V10.1046/j.1365-313X.1996.09040491.x
p348
sg58
VPLANT J
p349
sg60
V9
sg92
(lp350
(VHARRISON
VM J
tp351
asg22
I1996
sg54
VLANT
p352
sbag1
(g2
g3
NtRp353
(dp354
g62
V10.1111/j.1469-8137.1974.tb04607.x
p355
sg58
VNEW PHYTOL
p356
sg60
V73
p357
sg92
(lp358
(VHAYMAN
VD S
tp359
asg22
I1974
sg54
V71
p360
sbag1
(g2
g3
NtRp361
(dp362
g62
V10.1111/j.1469-8137.2006.01730.x
p363
sg58
VNEW PHYTOL
p364
sg60
V171
p365
sg92
(lp366
(VHEINEMEYER
VA
tp367
asg22
I2006
sg54
V159
p368
sbag1
(g2
g3
NtRp369
(dp370
g62
V10.1071/FP06079
p371
sg58
VFUNCT PLANT BIOL
p372
sg60
V33
p373
sg92
(lp374
(VHOHNJEC
VN
tp375
asg22
I2006
sg54
V737
p376
sbag1
(g2
g3
NtRp377
(dp378
g62
V10.1104/pp.104.056572
p379
sg58
VPLANT PHYSIOL
p380
sg60
V137
p381
sg92
(lp382
(VHOHNJEC
VN
tp383
asg22
I2005
sg54
VLANT
p384
sbag1
(g2
g3
NtRp385
(dp386
g62
V10.1094/MPMI.2003.16.10.903
p387
sg58
VMOL PLANT MICROBE IN
p388
sg60
V16
p389
sg92
(lp390
(VHOHNJEC
VN
tp391
asg22
I2003
sg54
V903
p392
sbag1
(g2
g3
NtRp393
(dp394
g62
Nsg58
VMOL GEN GENET
p395
sg60
V261
p396
sg92
(lp397
(VHOHNJEC
VN
tp398
asg22
I1999
sg54
V514
p399
sbag1
(g2
g3
NtRp400
(dp401
g62
V10.1104/pp.81.4.1008
p402
sg58
VPLANT PHYSIOL
p403
sg60
V81
p404
sg92
(lp405
(VHUBER
VS C
tp406
asg22
I1986
sg54
VLANT
p407
sbag1
(g2
g3
NtRp408
(dp409
g62
V10.1016/j.jplph.2004.04.012
p410
sg58
VJ PLANT PHYSIOL
p411
sg60
V161
p412
sg92
(lp413
(VISAYENKOV
VS
tp414
asg22
I2004
sg54
V1379
p415
sbag1
(g2
g3
NtRp416
(dp417
g62
V10.1111/j.1469-8137.1990.tb00924.x
p418
sg58
VNEW PHYTOL
p419
sg60
V115
p420
sg92
(lp421
(VJAKOBSEN
VI
tp422
asg22
I1990
sg54
V77
p423
sbag1
(g2
g3
NtRp424
(dp425
g62
V10.1073/pnas.0608136104
p426
sg58
VP NATL ACAD SCI USA
p427
sg60
V104
p428
sg92
(lp429
(VJAVOT
VH
tp430
asg22
I2007
sg54
V1720
p431
sbag1
(g2
g3
NtRp432
(dp433
g62
V10.1016/j.pbi.2004.03.014
p434
sg58
VCURR OPIN PLANT BIOL
p435
sg60
V7
sg92
(lp436
(VKOCH
VK
tp437
asg22
I2004
sg54
V235
p438
sbag1
(g2
g3
NtRp439
(dp440
g62
V10.1105/tpc.4.1.59
p441
sg58
VPLANT CELL
p442
sg60
V4
sg92
(lp443
(VKOCH
VK E
tp444
asg22
I1992
sg54
VLANT
p445
sbag1
(g2
g3
NtRp446
(dp447
g62
V10.1055/s-2002-37407
p448
sg58
VPLANT BIOLOGY
p449
sg60
V4
sg92
(lp450
(VKRAJINSKI
VF
tp451
asg22
I2002
sg54
VLANT
p452
sbag1
(g2
g3
NtRp453
(dp454
g62
V10.1104/pp.127.3.1287
p455
sg58
VPLANT PHYSIOL
p456
sg60
V127
p457
sg92
(lp458
(VLAMMERS
VP J
tp459
asg22
I2001
sg54
VLANT
p460
sbag1
(g2
g3
NtRp461
(dp462
g62
V10.1111/j.1365-313X.2007.03069.x
p463
sg58
VPLANT J
p464
sg60
V50
p465
sg92
(lp466
(VLIU
VJ Y
tp467
asg22
I2007
sg54
VLANT
p468
sbag1
(g2
g3
NtRp469
(dp470
g62
V10.1105/tpc.014183
p471
sg58
VPLANT CELL
p472
sg60
V15
p473
sg92
(lp474
(VLIU
VJ Y
tp475
asg22
I2003
sg54
VLANT
p476
sbag1
(g2
g3
NtRp477
(dp478
g62
V10.1104/pp.105.061457
p479
sg58
VPLANT PHYSIOL
p480
sg60
V139
p481
sg92
(lp482
(VLOHSE
VS
tp483
asg22
I2005
sg54
VLANT
p484
sbag1
(g2
g3
NtRp485
(dp486
g62
V10.1126/science.1143082
p487
sg58
VSCIENCE
p488
sg60
V316
p489
sg92
(lp490
(VMAHERALI
VH
tp491
asg22
I2007
sg54
V1746
p492
sbag1
(g2
g3
NtRp493
(dp494
g62
V10.1094/MPMI-21-5-0622
p495
sg58
VMOL PLANT MICROBE IN
p496
sg60
V21
p497
sg92
(lp498
(VMARINO
VD
tp499
asg22
I2008
sg54
V622
p500
sbag1
(g2
g3
NtRp501
(dp502
g62
V10.1111/j.1469-8137.1990.tb00476.x
p503
sg58
VNEW PHYTOL
p504
sg60
V115
p505
sg92
(lp506
(VMCGONIGLE
VT P
tp507
asg22
I1990
sg54
V495
p508
sbag1
(g2
g3
NtRp509
(dp510
g62
V10.1016/j.soilbio.2007.11.014
p511
sg58
VSOIL BIOL BIOCHEM
p512
sg60
V40
p513
sg92
(lp514
(VMORTIMER
VP E
tp515
asg22
I2008
sg54
V1019
p516
sbag1
(g2
g3
NtRp517
(dp518
g62
V10.1017/S0953756299001410
p519
sg58
VMYCOL RES
p520
sg60
V104
p521
sg92
(lp522
(VOLSSON
VP A
tp523
asg22
I2000
sg54
V429
p524
sbag1
(g2
g3
NtRp525
(dp526
g62
Nsg58
VPLANT PHYSIOL
p527
sg60
V101
p528
sg92
(lp529
(VPENG
VS B
tp530
asg22
I1993
sg54
VLANT
p531
sbag1
(g2
g3
NtRp532
(dp533
g62
V10.1104/pp.120.2.587
p534
sg58
VPLANT PHYSIOL
p535
sg60
V120
p536
sg92
(lp537
(VPFEFFER
VP E
tp538
asg22
I1999
sg54
VLANT
p539
sbag1
(g2
g3
NtRp540
(dp541
g62
V10.1007/978-3-540-87978-7_9
p542
sg58
VP123
p543
sg60
Nsg92
(lp544
(VPOZO
VMARIA J
tp545
asg22
I2009
sg54
V123
p546
sbag1
(g2
g3
NtRp547
(dp548
g62
V10.1104/pp.109.141879
p549
sg58
VPLANT PHYSIOL
p550
sg60
V151
p551
sg92
(lp552
(VPUMPLIN
VN
tp553
asg22
I2009
sg54
VLANT
p554
sbag1
(g2
g3
NtRp555
(dp556
g62
V10.1016/j.plantsci.2004.06.019
p557
sg58
VPLANT SCI
p558
sg60
V167
p559
sg92
(lp560
(VRAMAN
VS B
tp561
asg22
I2004
sg54
VLANT
p562
sbag1
(g2
g3
NtRp563
(dp564
g62
V10.1104/pp.107.111898
p565
sg58
VPLANT PHYSIOL
p566
sg60
V146
p567
sg92
(lp568
(VRASMUSSEN
VS
tp569
asg22
I2008
sg54
VLANT
p570
sbag1
(g2
g3
NtRp571
(dp572
g62
V10.1046/j.1469-8137.2003.00692.x
p573
sg58
VNEW PHYTOL
p574
sg60
V157
p575
sg92
(lp576
(VRAVNSKOV
VS
tp577
asg22
I2003
sg54
V539
p578
sbag1
(g2
g3
NtRp579
(dp580
g62
V10.1023/A:1010781500705
p581
sg58
VPLANT GROWTH REGUL
p582
sg60
V32
p583
sg92
(lp584
(VROITSCH
VT
tp585
asg22
I2000
sg54
VLANT
p586
sbag1
(g2
g3
NtRp587
(dp588
g62
V10.1093/jxb/erg050
p589
sg58
VJ EXP BOT
p590
sg60
V54
p591
sg92
(lp592
(VROITSCH
VT
tp593
asg22
I2003
sg54
V513
p594
sbag1
(g2
g3
NtRp595
(dp596
g62
V[10.1104/pp.106.096446, 10.1104/pp.107.096446]
p597
sg58
VPLANT PHYSIOL
p598
sg60
V143
p599
sg92
(lp600
(VSCHAARSCHMIDT
VS
tp601
asg22
I2007
sg54
VLANT
p602
sbag1
(g2
g3
NtRp603
(dp604
g62
Nsg58
VPlant Signal Behav
p605
sg60
V3
sg92
(lp606
(VSCHAARSCHMIDT
VSARA
tp607
asg22
I2008
sg54
Vlant
p608
sbag1
(g2
g3
NtRp609
(dp610
g62
V10.1111/j.1365-313X.2007.03150.x
p611
sg58
VPLANT J
p612
sg60
V51
p613
sg92
(lp614
(VSCHAARSCHMIDT
VS
tp615
asg22
I2007
sg54
VLANT
p616
sbag1
(g2
g3
NtRp617
(dp618
g62
V10.1093/jxb/erl172
p619
sg58
VJ EXP BOT
p620
sg60
V57
p621
sg92
(lp622
(VSCHAARSCHMIDT
VS
tp623
asg22
I2006
sg54
V4015
p624
sbag1
(g2
g3
NtRp625
(dp626
g62
V10.1016/j.phytochem.2007.06.032
p627
sg58
VPHYTOCHEMISTRY
p628
sg60
V69
p629
sg92
(lp630
(VSCHLIEMANN
VW
tp631
asg22
I2008
sg54
VHYTOCHEMISTRY
p632
sbag1
(g2
g3
NtRp633
(dp634
g62
Nsg58
VNEW PHYTOL
p635
sg60
V161
p636
sg92
(lp637
(VSCHUBERT
VA
tp638
asg22
I2003
sg54
V495
p639
sbag1
(g2
g3
NtRp640
(dp641
g62
V10.1017/S0953756201005196
p642
sg58
VMYCOL RES
p643
sg60
V105
p644
sg92
(lp645
(VSCHUSSLER
VA
tp646
asg22
I2001
sg54
V1413
p647
sbag1
(g2
g3
NtRp648
(dp649
g62
V10.1038/nature05364
p650
sg58
VNATURE
p651
sg60
V444
p652
sg92
(lp653
(VSCHUSSLER
VA
tp654
asg22
I2006
sg54
V933
p655
sbag1
(g2
g3
NtRp656
(dp657
g62
Nsg58
VPLANT PHYSIOL
p658
sg60
V108
p659
sg92
(lp660
(VSHACHARHILL
VY
tp661
asg22
I1995
sg54
VLANT
p662
sbag1
(g2
g3
NtRp663
(dp664
g62
V10.1104/pp.106.4.1659
p665
sg58
VPLANT PHYSIOL
p666
sg60
V106
p667
sg92
(lp668
(VSHAW
VJ R
tp669
asg22
I1994
sg54
VLANT
p670
sbag1
(g2
g3
NtRp671
(dp672
g62
V10.1046/j.1469-8137.1997.00848.x
p673
sg58
VNEW PHYTOL
p674
sg60
V137
p675
sg92
(lp676
(VSMITH
VF A
tp677
asg22
I1997
sg54
V373
p678
sbag1
(g2
g3
NtRp679
(dp680
g62
Nsg58
VMYCORRHIZAL SYMBIOSE
p681
sg60
Nsg92
(lp682
(VSMITH
VS E
tp683
asg22
I1997
sg54
Nsbag1
(g2
g3
NtRp684
(dp685
g62
V10.1104/pp.103.024380
p686
sg58
VPLANT PHYSIOL
p687
sg60
V133
p688
sg92
(lp689
(VSMITH
VS E
tp690
asg22
I2003
sg54
VLANT
p691
sbag1
(g2
g3
NtRp692
(dp693
g62
V10.1111/j.1469-8137.1990.tb00370.x
p694
sg58
VNEW PHYTOL
p695
sg60
V114
p696
sg92
(lp697
(VSMITH
VS E
tp698
asg22
I1990
sg54
V1
sbag1
(g2
g3
NtRp699
(dp700
g62
V10.1046/j.1469-8137.1997.00757.x
p701
sg58
VNEW PHYTOL
p702
sg60
V136
p703
sg92
(lp704
(VSOLAIMAN
VM D Z
tp705
asg22
I1997
sg54
V533
p706
sbag1
(g2
g3
NtRp707
(dp708
g62
V10.1111/j.1469-8137.1988.tb04167.x
p709
sg58
VNEW PHYTOL
p710
sg60
V108
p711
sg92
(lp712
(VSON
VC L
tp713
asg22
I1988
sg54
V305
p714
sbag1
(g2
g3
NtRp715
(dp716
g62
V10.1104/pp.121.1.1
p717
sg58
VPLANT PHYSIOL
p718
sg60
V121
p719
sg92
(lp720
(VSTURM
VA
tp721
asg22
I1999
sg54
VLANT
p722
sbag1
(g2
g3
NtRp723
(dp724
g62
V10.1016/0038-0717(85)90137-3
p725
sg58
VSOIL BIOL BIOCHEM
p726
sg60
V17
p727
sg92
(lp728
(VTESTER
VM
tp729
asg22
I1985
sg54
V807
p730
sbag1
(g2
g3
NtRp731
(dp732
g62
V10.1016/S0304-4238(00)00205-3
p733
sg58
VSCI HORTIC
p734
sg60
V88
p735
sg92
(lp736
(VVALENTINE
VA J
tp737
asg22
I2001
sg54
V177
p738
sbag1
(g2
g3
NtRp739
(dp740
g62
V10.1016/j.pbi.2008.05.005
p741
sg58
VCURR OPIN PLANT BIOL
p742
sg60
V11
p743
sg92
(lp744
(VVAN
VWEES S C M
tp745
asg22
I2008
sg54
V443
p746
sbag1
(g2
g3
NtRp747
(dp748
g62
V10.1002/1522-2624(200202)165:1<21::AID-JPLN21>3.0.CO;2-9
p749
sg58
VJ PLANT NUTR SOIL SC
p750
sg60
V165
p751
sg92
(lp752
(VVIERHEILIG
VH
tp753
asg22
I2002
sg54
V21
p754
sbag1
(g2
g3
NtRp755
(dp756
g62
Nsg58
VAPPL ENVIRON MICROB
p757
sg60
V64
p758
sg92
(lp759
(VVIERHEILIG
VH
tp760
asg22
I1998
sg54
V5004
p761
sbag1
(g2
g3
NtRp762
(dp763
g62
Nsg58
VTREE PHYSIOL
p764
sg60
V18
p765
sg92
(lp766
(VWARING
VR H
tp767
asg22
I1998
sg54
V129
p768
sbag1
(g2
g3
NtRp769
(dp770
g62
Nsg58
VCURR TOP PLANT BIOCH
p771
sg60
V5
sg92
(lp772
(VWIEMKEN
VA
tp773
asg22
I1986
sg54
V17
p774
sbag1
(g2
g3
NtRp775
(dp776
g62
V10.1093/jxb/ern182
p777
sg58
VJ EXP BOT
p778
sg60
V59
p779
sg92
(lp780
(VWIENKOOP
VS
tp781
asg22
I2008
sg54
V3307
p782
sbag1
(g2
g3
NtRp783
(dp784
g62
V10.1016/S0014-5793(97)01506-8
p785
sg58
VFEBS LETT
p786
sg60
V420
p787
sg92
(lp788
(VWINTER
VH
tp789
asg22
I1997
sg54
V151
p790
sbag1
(g2
g3
NtRp791
(dp792
g62
V10.1016/S0014-5793(98)00659-0
p793
sg58
VFEBS LETT
p794
sg60
V430
p795
sg92
(lp796
(VWINTER
VH
tp797
asg22
I1998
sg54
V205
p798
sbag1
(g2
g3
NtRp799
(dp800
g62
V10.1046/j.1365-3040.1998.00280.x
p801
sg58
VPLANT CELL ENVIRON
p802
sg60
V21
p803
sg92
(lp804
(VWRIGHT
VD P
tp805
asg22
I1998
sg54
VLANT
p806
sbag1
(g2
g3
NtRp807
(dp808
g62
V10.1046/j.1365-3040.1998.00351.x
p809
sg58
VPLANT CELL ENVIRON
p810
sg60
V21
p811
sg92
(lp812
(VWRIGHT
VD P
tp813
asg22
I1998
sg54
VLANT
p814
sbag1
(g2
g3
NtRp815
(dp816
g62
V10.1016/j.jplph.2005.04.024
p817
sg58
VJ PLANT PHYSIOL
p818
sg60
V163
p819
sg92
(lp820
(VWU
VQ S
tp821
asg22
I2006
sg54
V417
p822
sbag1
(g2
g3
NtRp823
(dp824
g62
V10.1046/j.1365-313X.1995.07010097.x
p825
sg58
VPLANT J
p826
sg60
V7
sg92
(lp827
(VZRENNER
VR
tp828
asg22
I1995
sg54
VLANT
p829
sbasb.