ccopy_reg
_reconstructor
p1
(ctethne.classes.paper
Paper
p2
c__builtin__
object
p3
NtRp4
(dp5
S'publisherCity'
p6
VROCKVILLE
p7
sS'reprintAddress'
p8
VGalili, G (reprint author), Weizmann Inst Sci, Dept Plant Sci, IL-76100 Rehovot, Israel.
p9
sS'WC'
p10
VPlant Sciences
p11
sS'GA'
p12
V820WQ
p13
sS'abstract'
p14
VThe functional role of Lys catabolism in balancing Lys levels in plants has only been directly demonstrated in developing seeds. Seed-specific expression of a bacterial feedback-insensitive dihydrodipicolinate synthase (DHPS) in ail Arabidopsis knockout mutant of the AtLKR/SDH gene that regulates Lys catabolism synergistically boosted Lys accumulation in mature seeds, but it also severely reduced the growth of seedlings derived from thorn. Here we further tested whether the inhibition of seedling growth was due to a negative physiological effect of excess Lys on seed maturation or to defective postgermination catabolism of Lys, which accumulated in the mature seeds. To address these questions, we coexpressed a bacterial DHPS gene with an RNAi construct of AtLKR/SDH, both under control of the same seed-specific promoter, to restrict Lys synthesis and catabolism to the developing seeds. Coexpression of these genes boosted seed Lys content and caused a significant, metabolically unanticipated increase in Met content, similarly to our previous report using plants expressing the bacterial DHPS on an AtLKR/SDH knockout background. However, postgermination seedling growth was significantly improved when the reduction of Lys catabolism was restricted to seed development, suggesting that defective postgermination Lys catabolism was responsible for inhibition of seedling growth in the AtLKR/SDH knockout plants expressing the bacterial DHPS gene in a seed-specific manner. Constitutive expression of the bacterial DHPS in the AtLKR/SDH knockout mutant boosted Lys levels in vegetative tissues in a similar manner to that observed in seeds, further demonstrating that Lys catabolism plays an important regulatory role in balancing Lys levels.
p15
sS'pageEnd'
p16
I136
sS'publisherAddress'
p17
V15501 MONONA DRIVE, ROCKVILLE, MD 20855 USA
p18
sS'documentType'
p19
VArticle
p20
sS'subject'
p21
VPlant Sciences
p22
sS'isoSource'
p23
VPlant Physiol.
p24
sS'timesCited'
p25
(lp26
I35
aVZ9 38
p27
asS'PT'
p28
VJ
sS'title'
p29
VLysine Metabolism Is Concurrently Regulated By Synthesis And Catabolism In Both Reproductive And Vegetative Tissues
p30
sS'ISSN'
p31
(lp32
V0032-0889
p33
aVJ9 PLANT PHYSIOL
p34
asS'authors_full'
p35
(lp36
(VZHU
VXH
tp37
a(VGALILI
VG
tp38
asS'PG'
p39
I8
sS'PD'
p40
VMAY
p41
sS'pageStart'
p42
I129
sS'issue'
p43
I1
sS'journal'
p44
VPLANT PHYSIOLOGY
p45
sS'volume'
p46
V135
p47
sS'doi'
p48
V10.1104/pp.103.037168
p49
sS'emailAddress'
p50
Vgad.galili@weizmann.ac.il
p51
sS'authorAddress'
p52
VWeizmann Inst Sci, Dept Plant Sci, IL-76100 Rehovot, Israel.
p53
sS'date'
p54
I2004
sS'ER'
p55
V
sS'publisher'
p56
VAMER SOC PLANT BIOLOGISTS
p57
sS'authorKeywords'
p58
(lp59
VARABIDOPSIS SEEDS
p60
aVKNOCKOUT
p61
aVQUALITY
p62
aVPLANTS
p63
asS'language'
p64
VEnglish
p65
sS'wosid'
p66
VWOS:000221420800015
p67
sS'citationCount'
p68
I15
sS'authors_init'
p69
(lp70
(VZHU
VX H
tp71
a(VGALILI
VG
tp72
asS'citedReferences'
p73
(lp74
g1
(g2
g3
NtRp75
(dp76
g48
V10.1016/S1360-1385(00)01688-5
p77
sg44
VTRENDS PLANT SCI
p78
sg46
V5
sg69
(lp79
(VARRUDA
VP
tp80
asg54
I2000
sg42
V324
p81
sbag1
(g2
g3
NtRp82
(dp83
g48
V10.1080/07352688309382171
p84
sg44
VCRC CR REV PLANT SCI
p85
sg46
V1
sg69
(lp86
(VBRIGHT
VS W J
tp87
asg54
I1983
sg42
V49
p88
sbag1
(g2
g3
NtRp89
(dp90
g48
V10.1046/j.1365-313x.1998.00343.x
p91
sg44
VPLANT J
p92
sg46
V16
p93
sg69
(lp94
(VCLOUGH
VS J
tp95
asg54
I1998
sg42
VLANT
p96
sbag1
(g2
g3
NtRp97
(dp98
g48
V10.1038/nbt0695-577
p99
sg44
VBIO
p100
sg46
V13
p101
sg69
(lp102
(VFALCO
VS C
tp103
asg54
I1995
sg42
V577
p104
sbag1
(g2
g3
NtRp105
(dp106
g48
V10.1016/S1369-5266(00)00170-9
p107
sg44
VCURR OPIN PLANT BIOL
p108
sg46
V4
sg69
(lp109
(VGALILI
VG
tp110
asg54
I2001
sg42
V261
p111
sbag1
(g2
g3
NtRp112
(dp113
g48
V10.1105/tpc.7.7.899
p114
sg44
VPLANT CELL
p115
sg46
V7
sg69
(lp116
(VGALILI
VG
tp117
asg54
I1995
sg42
VLANT
p118
sbag1
(g2
g3
NtRp119
(dp120
g48
Nsg44
VSEED DEV GERMINATION
p121
sg46
Nsg69
(lp122
(VGALILI
VG
tp123
asg54
I1994
sg42
V811
p124
sbag1
(g2
g3
NtRp125
(dp126
g48
V10.1073/pnas.91.7.2577
p127
sg44
VP NATL ACAD SCI USA
p128
sg46
V91
p129
sg69
(lp130
(VKARCHI
VH
tp131
asg54
I1994
sg42
V2577
p132
sbag1
(g2
g3
NtRp133
(dp134
g48
Nsg44
VPLANT CELL
p135
sg46
V7
sg69
(lp136
(VLAM
VH M
tp137
asg54
I1995
sg42
VLANT
p138
sbag1
(g2
g3
NtRp139
(dp140
g48
V10.1126/science.285.5426.372
p141
sg44
VSCIENCE
p142
sg46
V285
p143
sg69
(lp144
(VMAZUR
VB
tp145
asg54
I1999
sg42
V372
p146
sbag1
(g2
g3
NtRp147
(dp148
g48
V10.1111/j.1365-313X.1992.00203.x
p149
sg44
VPLANT J
p150
sg46
V2
sg69
(lp151
(VSHAUL
VO
tp152
asg54
I1992
sg42
VLANT
p153
sbag1
(g2
g3
NtRp154
(dp155
g48
Nsg44
VBIOMETRY
p156
sg46
Nsg69
(lp157
(VSOKAL
VR R
tp158
asg54
I1981
sg42
Nsbag1
(g2
g3
NtRp159
(dp160
g48
Nsg44
VPLANT MOL BIOL
p161
sg46
V32
p162
sg69
(lp163
(VTZVITZCHORI
VI B
tp164
asg54
I1996
sg42
VLANT
p165
sbag1
(g2
g3
NtRp166
(dp167
g48
V10.1104/pp.126.4.1539
p168
sg44
VPLANT PHYSIOL
p169
sg46
V126
p170
sg69
(lp171
(VZHU
VX H
tp172
asg54
I2001
sg42
VLANT
p173
sbag1
(g2
g3
NtRp174
(dp175
g48
V10.1105/tpc.009647
p176
sg44
VPLANT CELL
p177
sg46
V15
p178
sg69
(lp179
(VZHU
VX H
tp180
asg54
I2003
sg42
VLANT
p181
sbasb.