ccopy_reg
_reconstructor
p1
(ctethne.classes.paper
Paper
p2
c__builtin__
object
p3
NtRp4
(dp5
S'publisherCity'
p6
VROCKVILLE
p7
sS'reprintAddress'
p8
VSubbaiah, CC (reprint author), DNA Plant Technol Corp, 6701 San Pablo Ave, Oakland, CA 94608 USA.
p9
sS'WC'
p10
VPlant Sciences
p11
sS'GA'
p12
V412FQ
p13
sS'abstract'
p14
VRoot extracts made from maize (Zea mays) seedlings submerged for 2 h showed an increased P-32-labeling of a 90-kD polypeptide in a Ca2+-dependent manner. This protein was identified as sucrose synthase (SS) by immunoprecipitation and mutant analysis. Metabolic labeling with P-32(i) indicated that the aerobic levels of SS phosphorylation were maintained up to 2 h of anoxia. Ln contrast, during prolonged anoxia the protein was under-phosphorylated, and by 48 h most of the protein existed in the unphosphorylated form. In seedlings submerged for 2 h or longer, a part of SS became associated with the microsomal. fraction and this membrane localization of SS was confined only to the root tip. This redistribution of SS in the root tip preceded callose induction, an indicator of cell death. The sh1 mutants showed sustained SS phosphorylation and lacked the anoxia-induced relocation of SS, indicating that it was the SH1 form of the enzyme that was redistributed during anoxia. The sh1 mutants also showed less callose deposition and greater tolerance to prolonged anoxia than their non-mutant siblings. EGTA accentuated anoxic effects on membrane localization of SS and callose accumulation, whereas Ca2+ addition reversed the EGTA effects. These results indicate that the membrane localization of SS is an important early event in the anoxic root tip, probably associated with the differential anoxic tolerance of the two SS mutants. We propose that beside the transcriptional control of genes encoding SS, the reversible phosphorylation of SS provides a potent regulatory mechanism of sugar metabolism in response to developmental and environmental signals.
p15
sS'pageEnd'
p16
I594
sS'publisherAddress'
p17
V15501 MONONA DRIVE, ROCKVILLE, MD 20855 USA
p18
sS'documentType'
p19
VArticle
p20
sS'subject'
p21
VPlant Sciences
p22
sS'isoSource'
p23
VPlant Physiol.
p24
sS'timesCited'
p25
(lp26
I34
aVZ9 37
p27
asS'PT'
p28
VJ
sS'title'
p29
VAltered Patterns Of Sucrose Synthase Phosphorylation And Localization Precede Callose Induction And Root Tip Death In Anoxic Maize Seedling
p30
sS'ISSN'
p31
(lp32
V0032-0889
p33
aVJ9 PLANT PHYSIOL
p34
asS'authors_full'
p35
(lp36
(VSUBBAIAH
VCC
tp37
a(VSACHS
VMM
tp38
asS'PG'
p39
I10
sS'PD'
p40
VFEB
p41
sS'pageStart'
p42
I585
sS'issue'
p43
I2
sS'journal'
p44
VPLANT PHYSIOLOGY
p45
sS'volume'
p46
V125
p47
sS'doi'
p48
V10.1104/pp.125.2.585
p49
sS'authorAddress'
p50
(lp51
VUniv Illinois, Dept Crop Sci, Urbana, IL 61801 USA.
p52
aVUSDA ARS, Urbana, IL 61801 USA.
p53
asS'date'
p54
I2001
sS'ER'
p55
V
sS'publisher'
p56
VAMER SOC PLANT PHYSIOLOGISTS
p57
sS'authorKeywords'
p58
(lp59
VMEMBRANE ASSOCIATION
p60
aVGENE-EXPRESSION
p61
aVDOUBLE MUTANT
p62
aVPROTEIN
p63
aVARABIDOPSIS
p64
aVSURVIVAL
p65
aVCALCIUM
p66
aVPLANTS
p67
aVKINASE
p68
aVCELLS
p69
asS'language'
p70
VEnglish
p71
sS'wosid'
p72
VWOS:000167544700011
p73
sS'citationCount'
p74
I31
sS'authors_init'
p75
(lp76
(VSUBBAIAH
VC C
tp77
a(VSACHS
VM M
tp78
asS'citedReferences'
p79
(lp80
g1
(g2
g3
NtRp81
(dp82
g48
V10.1073/pnas.92.20.9353
p83
sg44
VP NATL ACAD SCI USA
p84
sg46
V92
p85
sg75
(lp86
(VAMOR
VY
tp87
asg54
I1995
sg42
V9353
p88
sbag1
(g2
g3
NtRp89
(dp90
g48
Nsg44
VMETHOD ENZYMOL
p91
sg46
V96
p92
sg75
(lp93
(VANDERSON
VD J
tp94
asg54
I1983
sg42
V111
p95
sbag1
(g2
g3
NtRp96
(dp97
g48
Nsg44
VPLANT LIFE OXYGEN DE
p98
sg46
Nsg75
(lp99
(VARMSTRONG
VW
tp100
asg54
I1991
sg42
VLANT
p101
sbag1
(g2
g3
NtRp102
(dp103
g48
V10.1104/pp.120.4.1105
p104
sg44
VPLANT PHYSIOL
p105
sg46
V120
p106
sg75
(lp107
(VBUCKERIDGE
VM S
tp108
asg54
I1999
sg42
VLANT
p109
sbag1
(g2
g3
NtRp110
(dp111
g48
Nsg44
VMOL GEN GENET
p112
sg46
V252
p113
sg75
(lp114
(VCARLSON
VS J
tp115
asg54
I1996
sg42
V303
p116
sbag1
(g2
g3
NtRp117
(dp118
g48
V10.1006/pmpp.1996.0007
p119
sg44
VPHYSIOL MOL PLANT P
p120
sg46
V48
p121
sg75
(lp122
(VCHEN
VC Y
tp123
asg54
I1996
sg42
VHYSIOL
p124
sbag1
(g2
g3
NtRp125
(dp126
g48
V10.1007/s004380050792
p127
sg44
VMOL GEN GENET
p128
sg46
V259
p129
sg75
(lp130
(VCHOUREY
VP S
tp131
asg54
I1998
sg42
V88
p132
sbag1
(g2
g3
NtRp133
(dp134
g48
V10.1126/science.284.5419.1539
p135
sg44
VSCIENCE
p136
sg46
V284
p137
sg75
(lp138
(VFANKHAUSER
VC
tp139
asg54
I1999
sg42
V1539
p140
sbag1
(g2
g3
NtRp141
(dp142
g48
V10.1046/j.1365-313X.1993.04010081.x
p143
sg44
VPLANT J
p144
sg46
V4
sg75
(lp145
(VFERREIRA
VP C G
tp146
asg54
I1993
sg42
VLANT
p147
sbag1
(g2
g3
NtRp148
(dp149
g48
V10.1016/0168-9452(96)04446-9
p150
sg44
VPLANT SCI
p151
sg46
V119
p152
sg75
(lp153
(VGUGLIELMINETTI
VL
tp154
asg54
I1996
sg42
VLANT
p155
sbag1
(g2
g3
NtRp156
(dp157
g48
Nsg44
VPLANT MOL BIOL
p158
sg46
V12
p159
sg75
(lp160
(VHANNAH
VL C
tp161
asg54
I1994
sg42
VLANT
p162
sbag1
(g2
g3
NtRp163
(dp164
g48
V10.1146/annurev.arplant.47.1.431
p165
sg44
VANNU REV PLANT PHYS
p166
sg46
V47
p167
sg75
(lp168
(VHUBER
VS C
tp169
asg54
I1996
sg42
V431
p170
sbag1
(g2
g3
NtRp171
(dp172
g48
Nsg44
VPLANT PHYSIOL
p173
sg46
V112
p174
sg75
(lp175
(VHUBER
VC
tp176
asg54
I1996
sg42
VLANT
p177
sbag1
(g2
g3
NtRp178
(dp179
g48
Nsg44
VBIOPHYS J
p180
sg46
V67
p181
sg75
(lp182
(VKIM
VJ Y
tp183
asg54
I1994
sg42
V227
p184
sbag1
(g2
g3
NtRp185
(dp186
g48
Nsg44
VEMBO J
p187
sg46
V14
p188
sg75
(lp189
(VMAUREL
VC
tp190
asg54
I1995
sg42
V3028
p191
sbag1
(g2
g3
NtRp192
(dp193
g48
Nsg44
VP NATL ACAD SCI USA
p194
sg46
V83
p195
sg75
(lp196
(VMCCARTY
VD R
tp197
asg54
I1986
sg42
V542
p198
sbag1
(g2
g3
NtRp199
(dp200
g48
V10.1104/pp.87.2.542
p201
sg44
VPLANT PHYSIOL
p202
sg46
V87
p203
sg75
(lp204
(VMCELFRESH
VK C
tp205
asg54
I1988
sg42
VLANT
p206
sbag1
(g2
g3
NtRp207
(dp208
g48
V10.1104/pp.116.4.1323
p209
sg44
VPLANT PHYSIOL
p210
sg46
V116
p211
sg75
(lp212
(VRICARD
VB
tp213
asg54
I1998
sg42
VLANT
p214
sbag1
(g2
g3
NtRp215
(dp216
g48
V10.1007/BF00330562
p217
sg44
VMOL GEN GENET
p218
sg46
V218
p219
sg75
(lp220
(VROWLAND
VL J
tp221
asg54
I1989
sg42
V33
p222
sbag1
(g2
g3
NtRp223
(dp224
g48
Nsg44
VPLANT PHYSIOL
p225
sg46
V115
p226
sg75
(lp227
(VRUAN
VY L
tp228
asg54
I1997
sg42
VLANT
p229
sbag1
(g2
g3
NtRp230
(dp231
g48
V10.1007/BF00338083
p232
sg44
VMOL GEN GENET
p233
sg46
V205
p234
sg75
(lp235
(VSPRINGER
VB
tp236
asg54
I1986
sg42
V461
p237
sbag1
(g2
g3
NtRp238
(dp239
g48
V10.1104/pp.108.2.451
p240
sg44
VPLANT PHYSIOL
p241
sg46
V108
p242
sg75
(lp243
(VSTONE
VJ M
tp244
asg54
I1995
sg42
VLANT
p245
sbag1
(g2
g3
NtRp246
(dp247
g48
V10.1104/pp.117.4.1217
p248
sg44
VPLANT PHYSIOL
p249
sg46
V117
p250
sg75
(lp251
(VSTONE
VJ M
tp252
asg54
I1998
sg42
VLANT
p253
sbag1
(g2
g3
NtRp254
(dp255
g48
V10.1104/pp.105.1.369
p256
sg44
VPLANT PHYSIOL
p257
sg46
V105
p258
sg75
(lp259
(VSUBBAIAH
VC C
tp260
asg54
I1994
sg42
VLANT
p261
sbag1
(g2
g3
NtRp262
(dp263
g48
Nsg44
VPLANT CELL
p264
sg46
V6
sg75
(lp265
(VSUBBAIAH
VC C
tp266
asg54
I1994
sg42
VLANT
p267
sbag1
(g2
g3
NtRp268
(dp269
g48
V10.1093/jexbot/51.345.721
p270
sg44
VJ EXP BOT
p271
sg46
V51
p272
sg75
(lp273
(VSUBBAIAH
VC C
tp274
asg54
I2000
sg42
V721
p275
sbag1
(g2
g3
NtRp276
(dp277
g48
V10.1016/S0014-5793(97)01506-8
p278
sg44
VFEBS LETT
p279
sg46
V420
p280
sg75
(lp281
(VWINTER
VH
tp282
asg54
I1997
sg42
V151
p283
sbag1
(g2
g3
NtRp284
(dp285
g48
V10.1016/S0014-5793(98)00659-0
p286
sg44
VFEBS LETT
p287
sg46
V430
p288
sg75
(lp289
(VWINTER
VH
tp290
asg54
I1998
sg42
V205
p291
sbag1
(g2
g3
NtRp292
(dp293
g48
Nsg44
VJ PLANT PHYSIOL
p294
sg46
V129
p295
sg75
(lp296
(VWISSEMEIER
VA H
tp297
asg54
I1987
sg42
V487
p298
sbag1
(g2
g3
NtRp299
(dp300
g48
V10.1104/pp.121.2.599
p301
sg44
VPLANT PHYSIOL
p302
sg46
V121
p303
sg75
(lp304
(VZENG
VY
tp305
asg54
I1999
sg42
VLANT
p306
sbag1
(g2
g3
NtRp307
(dp308
g48
V10.1104/pp.116.4.1573
p309
sg44
VPlant Physiology 
p310
sg46
V116
p311
sg75
(lp312
(VZENG
VYING
tp313
asg54
I1998
sg42
Vlant
p314
sbasb.