ccopy_reg
_reconstructor
p1
(ctethne.classes.paper
Paper
p2
c__builtin__
object
p3
NtRp4
(dp5
S'publisherCity'
p6
VROCKVILLE
p7
sS'reprintAddress'
p8
Vvan der Knaap, E (reprint author), Ohio State Univ, Ohio Agr Res & Dev Ctr, Dept Hort & Crop Sci, Wooster, OH 44691 USA.
p9
sS'WC'
p10
VPlant Sciences
p11
sS'GA'
p12
V040VR
p13
sS'abstract'
p14
VThe domestication and improvement of fruit-bearing crops resulted in a large diversity of fruit form. To facilitate consistent terminology pertaining to shape, a controlled vocabulary focusing specifically on fruit shape traits was developed. Mathematical equations were established for the attributes so that objective, quantitative measurements of fruit shape could be conducted. The controlled vocabulary and equations were integrated into a newly developed software application, Tomato Analyzer, which conducts semiautomatic phenotypic measurements. To demonstrate the utility of Tomato Analyzer in the detection of shape variation, fruit from two F-2 populations of tomato ( Solanum spp.) were analyzed. Principal components analysis was used to identify the traits that best described shape variation within as well as between the two populations. The three principal components were analyzed as traits, and several significant quantitative trait loci (QTL) were identified in both populations. The usefulness and flexibility of the software was further demonstrated by analyzing the distal fruit end angle of fruit at various user-defined settings. Results of the QTL analyses indicated that significance levels of detected QTL were greatly improved by selecting the setting that maximized phenotypic variation in a given population. Tomato Analyzer was also applied to conduct phenotypic analyses of fruit from several other species, demonstrating that many of the algorithms developed for tomato could be readily applied to other plants. The controlled vocabulary, algorithms, and software application presented herein will provide plant scientists with novel tools to consistently, accurately, and efficiently describe two-dimensional fruit shapes.
p15
sS'pageEnd'
p16
I25
sS'date'
p17
I2006
sS'documentType'
p18
VArticle
p19
sS'subject'
p20
VPlant Sciences
p21
sS'isoSource'
p22
VPlant Physiol.
p23
sS'timesCited'
p24
(lp25
I42
aVZ9 50
p26
asS'PT'
p27
VJ
sS'title'
p28
VDevelopment Of A Controlled Vocabulary And Software Application To Analyze Fruit Shape Variation In Tomato And Other Plant Species
p29
sS'ISSN'
p30
(lp31
V0032-0889
p32
aVJ9 PLANT PHYSIOL
p33
asS'authors_full'
p34
(lp35
(VBREWER
VMT
tp36
a(VLANG
VLX
tp37
a(VFUJIMURA
VK
tp38
a(VDUJMOVIC
VN
tp39
a(VGRAY
VS
tp40
a(VVAN DER KNAAP
VE
tp41
asS'PG'
p42
I11
sS'PD'
p43
VMAY
p44
sS'pageStart'
p45
I15
sS'issue'
p46
I1
sS'RI'
p47
Vvan der Knaap, Esther/D-6307-2012
p48
sS'journal'
p49
VPLANT PHYSIOLOGY
p50
sS'volume'
p51
V141
p52
sS'doi'
p53
V10.1104/pp.106.077867
p54
sS'emailAddress'
p55
Vvanderknaap.1@osu.edu
p56
sS'authorAddress'
p57
(lp58
VOhio State Univ, Ohio Agr Res & Dev Ctr, Dept Hort & Crop Sci, Wooster, OH 44691 USA.
p59
aVOhio State Univ, Dept Stat, Columbus, OH 43210 USA.
p60
aVOhio State Univ, Dept Comp Sci & Engn, Columbus, OH 43210 USA.
p61
aVColl Wooster, Dept Math & Comp Sci, Wooster, OH 44691 USA.
p62
asS'publisherAddress'
p63
V15501 MONONA DRIVE, ROCKVILLE, MD 20855 USA
p64
sS'ER'
p65
V
sS'publisher'
p66
VAMER SOC PLANT BIOLOGISTS
p67
sS'authorKeywords'
p68
(lp69
VQUANTITATIVE TRAIT LOCI
p70
aVCUCURBITA-PEPO
p71
aVDNA
p72
aVIDENTIFICATION
p73
aVONTOLOGIES
p74
aVEVOLUTION
p75
aVSIZE
p76
asS'language'
p77
VEnglish
p78
sS'wosid'
p79
VWOS:000237409400002
p80
sS'citationCount'
p81
I28
sS'authors_init'
p82
(lp83
(VBREWER
VM T
tp84
a(VLANG
VL X
tp85
a(VFUJIMURA
VK
tp86
a(VDUJMOVIC
VN
tp87
a(VGRAY
VS
tp88
a(VVAN DER KNAAP
VE
tp89
asS'citedReferences'
p90
(lp91
g1
(g2
g3
NtRp92
(dp93
g53
V10.1105/tpc.105.036053
p94
sg49
VPLANT CELL
p95
sg51
V17
p96
sg82
(lp97
(VALBA
VR
tp98
asg17
I2005
sg45
VLANT
p99
sbag1
(g2
g3
NtRp100
(dp101
g53
Nsg49
VGENETICS
p102
sg51
V112
p103
sg82
(lp104
(VBERNATZKY
VR
tp105
asg17
I1986
sg45
V887
p106
sbag1
(g2
g3
NtRp107
(dp108
g53
V10.1016/S0304-4238(02)00123-1
p109
sg49
VSCI HORTIC
p110
sg51
V96
p111
sg82
(lp112
(VBEYER
VM
tp113
asg17
I2002
sg45
V139
p114
sbag1
(g2
g3
NtRp115
(dp116
g53
V10.1002/cfg.154
p117
sg49
VCOMPAR FUNCT GENOM
p118
sg51
V3
sg82
(lp119
(VBRUSKIEWICH
VR
tp120
asg17
I2002
sg45
V137
p121
sbag1
(g2
g3
NtRp122
(dp123
g53
V10.1146/annurev.genet.38.072902.092425
p124
sg49
VANNU REV GENET
p125
sg51
V38
p126
sg82
(lp127
(VDOEBLEY
VJ
tp128
asg17
I2004
sg45
V37
p129
sbag1
(g2
g3
NtRp130
(dp131
g53
Nsg49
VTurkish Journal of Agriculture and Forestry
p132
sg51
V27
p133
sg82
(lp134
(VFRARY
VANNE
tp135
asg17
I2003
sg45
V59
p136
sbag1
(g2
g3
NtRp137
(dp138
g53
V10.1007/BF02670897
p139
sg49
VPLANT MOL BIOL REP
p140
sg51
V13
p141
sg82
(lp142
(VFULTON
VT M
tp143
asg17
I1995
sg45
VLANT
p144
sbag1
(g2
g3
NtRp145
(dp146
g53
V10.1007/s001220051405
p147
sg49
VTHEOR APPL GENET
p148
sg51
V99
p149
sg82
(lp150
(VGRANDILLO
VS
tp151
asg17
I1999
sg45
V978
p152
sbag1
(g2
g3
NtRp153
(dp154
g53
Nsg49
VDESCR TOM LYC
p155
sg51
Nsg82
(lp156
(VINT PLANT GEN RES
S''
tp157
asg17
I1996
sg45
Nsbag1
(g2
g3
NtRp158
(dp159
g53
Nsg49
VGUID COND TESTS DIST
p160
sg51
Nsg82
(lp161
(VINTERNATIONAL UNION FOR THE PROTECTION OF NEW VARIETIES AND PLANTS
S''
tp162
asg17
I2001
sg45
Nsbag1
(g2
g3
NtRp163
(dp164
g53
Nsg49
VANN EUGENICS
p165
sg51
V12
p166
sg82
(lp167
(VKOSAMBI
VD D
tp168
asg17
I1944
sg45
V172
p169
sbag1
(g2
g3
NtRp170
(dp171
g53
V10.1016/0888-7543(87)90010-3
p172
sg49
VGenomics
p173
sg51
V1
sg82
(lp174
(VLANDER
VE S
tp175
asg17
I1987
sg45
V174
p176
sbag1
(g2
g3
NtRp177
(dp178
g53
V10.1073/pnas.0504210102
p179
sg49
VP NATL ACAD SCI USA
p180
sg51
V102
p181
sg82
(lp182
(VLANGLADE
VN B
tp183
asg17
I2005
sg45
V10221
p184
sbag1
(g2
g3
NtRp185
(dp186
g53
V10.1104/pp.105.063719
p187
sg49
VPLANT PHYSIOL
p188
sg51
V139
p189
sg82
(lp190
(VLEMAIRE-CHAMLEY
VM
tp191
asg17
I2005
sg45
VLANT
p192
sbag1
(g2
g3
NtRp193
(dp194
g53
Nsg49
VGENETICS
p195
sg51
V158
p196
sg82
(lp197
(VLIPPMAN
VZ
tp198
asg17
I2001
sg45
V413
p199
sbag1
(g2
g3
NtRp200
(dp201
g53
V10.1016/S0168-1699(00)00070-3
p202
sg49
VCOMPUT ELECTRON AGR
p203
sg51
V26
p204
sg82
(lp205
(VMORIMOTO
VT
tp206
asg17
I2000
sg45
V171
p207
sbag1
(g2
g3
NtRp208
(dp209
g53
V10.1104/pp.105.060707
p210
sg49
VPLANT PHYSIOL
p211
sg51
V138
p212
sg82
(lp213
(VMUELLER
VL A
tp214
asg17
I2005
sg45
VLANT
p215
sbag1
(g2
g3
NtRp216
(dp217
g53
V10.1007/S00122-002-1157-0
p218
sg49
VTHEOR APPL GENET
p219
sg51
V106
p220
sg82
(lp221
(VPARIS
VH S
tp222
asg17
I2003
sg45
V971
p223
sbag1
(g2
g3
NtRp224
(dp225
g53
V10.1614/0043-1745(2001)049[0738:CIAACO]2.0.CO;2
p226
sg49
VWEED SCI
p227
sg51
V49
p228
sg82
(lp229
(VSAKO
VY
tp230
asg17
I2001
sg45
V738
p231
sbag1
(g2
g3
NtRp232
(dp233
g53
Nsg49
VSEED SCI TECHNOL
p234
sg51
V29
p235
sg82
(lp236
(VSAKO
VY
tp237
asg17
I2001
sg45
V625
p238
sbag1
(g2
g3
NtRp239
(dp240
g53
V10.1126/science.276.5314.932
p241
sg49
VSCIENCE
p242
sg51
V276
p243
sg82
(lp244
(VSMITH
VB D
tp245
asg17
I1997
sg45
V932
p246
sbag1
(g2
g3
NtRp247
(dp248
g53
V10.1534/genetics.104.031013
p249
sg49
VGENETICS
p250
sg51
V168
p251
sg82
(lp252
(VVAN
VD E R KNAAP E
tp253
asg17
I2004
sg45
V2127
p254
sbag1
(g2
g3
NtRp255
(dp256
g53
V10.1007/s001220100623
p257
sg49
VTHEOR APPL GENET
p258
sg51
V103
p259
sg82
(lp260
(VVAN
VD E R KNAAP E
tp261
asg17
I2001
sg45
V353
p262
sbag1
(g2
g3
NtRp263
(dp264
g53
V10.1007/s00122-003-1224-1
p265
sg49
VTHEOR APPL GENET
p266
sg51
V107
p267
sg82
(lp268
(VVAN
VD E R KNAAP E
tp269
asg17
I2003
sg45
V139
p270
sbag1
(g2
g3
NtRp271
(dp272
g53
V10.1016/j.tplants.2003.09.014
p273
sg49
VTRENDS PLANT SCI
p274
sg51
V8
sg82
(lp275
(VLESZEK
VP
tp276
asg17
I2003
sg45
V517
p277
sbag1
(g2
g3
NtRp278
(dp279
g53
V10.1093/pcp/pci505
p280
sg49
VPLANT CELL PHYSIOL
p281
sg51
V46
p282
sg82
(lp283
(VYAMAZAKI
VY
tp284
asg17
I2005
sg45
VLANT
p285
sbag1
(g2
g3
NtRp286
(dp287
g53
V10.1073/pnas.90.23.10972
p288
sg49
VP NATL ACAD SCI USA
p289
sg51
V90
p290
sg82
(lp291
(VZENG
VZ B
tp292
asg17
I1993
sg45
V10972
p293
sbag1
(g2
g3
NtRp294
(dp295
g53
Nsg49
VGENETICS
p296
sg51
V136
p297
sg82
(lp298
(VZENG
VZ B
tp299
asg17
I1994
sg45
V1457
p300
sbasb.