ccopy_reg
_reconstructor
p1
(ctethne.classes.paper
Paper
p2
c__builtin__
object
p3
NtRp4
(dp5
S'publisherCity'
p6
VROCKVILLE
p7
sS'reprintAddress'
p8
VWang, ZY (reprint author), Samuel Roberts Noble Fdn Inc, Forage Improvement Div, Ardmore, OK 73401 USA.
p9
sS'WC'
p10
VPlant Sciences
p11
sS'GA'
p12
V844BL
p13
sS'FX'
p14
VThis work was supported by the Samuel Roberts Noble Foundation.
p15
sS'abstract'
p16
VMedicago truncatula has been developed into a model legume. Its close relative alfalfa (Medicago sativa) is the most widely grown forage legume crop in the United States. By screening a large population of M. truncatula mutants tagged with the transposable element of tobacco (Nicotiana tabacum) cell type1 (Tnt1), we identified a mutant line (NF2089) that maintained green leaves and showed green anthers, central carpels, mature pods, and seeds during senescence. Genetic and molecular analyses revealed that the mutation was caused by Tnt1 insertion in a STAY-GREEN (MtSGR) gene. Transcript profiling analysis of the mutant showed that loss of the MtSGR function affected the expression of a large number of genes involved in different biological processes. Further analyses revealed that SGR is implicated in nodule development and senescence. MtSGR expression was detected across all nodule developmental zones and was higher in the senescence zone. The number of young nodules on the mutant roots was higher than in the wild type. Expression levels of several nodule senescence markers were reduced in the sgr mutant. Based on the MtSGR sequence, an alfalfa SGR gene (MsSGR) was cloned, and transgenic alfalfa lines were produced by RNA interference. Silencing of MsSGR led to the production of stay-green transgenic alfalfa. This beneficial trait offers the opportunity to produce premium alfalfa hay with a more greenish appearance. In addition, most of the transgenic alfalfa lines retained more than 50% of chlorophylls during senescence and had increased crude protein content. This study illustrates the effective use of knowledge gained from a model system for the genetic improvement of an important commercial crop.
p17
sS'pageEnd'
p18
I1496
sS'date'
p19
I2011
sS'documentType'
p20
VArticle
p21
sS'subject'
p22
VPlant Sciences
p23
sS'isoSource'
p24
VPlant Physiol.
p25
sS'timesCited'
p26
(lp27
I9
aVZ9 11
p28
asS'funding'
p29
(lp30
(VSamuel Roberts Noble Foundation
Ntp31
asS'PT'
p32
VJ
sS'title'
p33
VFrom Model To Crop: Functional Analysis Of A Stay-Green Gene In The Model Legume Medicago Truncatula And Effective Use Of The Gene For Alfalfa Improvement
p34
sS'ISSN'
p35
(lp36
V0032-0889
p37
aVJ9 PLANT PHYSIOL
p38
asS'authors_full'
p39
(lp40
(VZHOU
VCHUANEN
tp41
a(VHAN
VLU
tp42
a(VPISLARIU
VCATALINA
tp43
a(VNAKASHIMA
VJIN
tp44
a(VFU
VCHUNXIANG
tp45
a(VJIANG
VQINGZHEN
tp46
a(VQUAN
VLI
tp47
a(VBLANCAFLOR
VELISON B
tp48
a(VTANG
VYUHONG
tp49
a(VBOUTON
VJOSEPH H
tp50
a(VUDVARDI
VMICHAEL
tp51
a(VXIA
VGUANGMIN
tp52
a(VWANG
VZENGYU
tp53
asS'PG'
p54
I14
sS'PD'
p55
VNOV
p56
sS'pageStart'
p57
I1483
sS'issue'
p58
I3
sS'journal'
p59
VPLANT PHYSIOLOGY
p60
sS'volume'
p61
V157
p62
sS'doi'
p63
V10.1104/pp.111.185140
p64
sS'emailAddress'
p65
Vzywang@noble.org
p66
sS'authorAddress'
p67
(lp68
V[Zhou, Chuanen; Han, Lu; Fu, Chunxiang; Jiang, Qingzhen; Bouton, Joseph H.; Wang, Zeng-Yu] Samuel Roberts Noble Fdn Inc, Forage Improvement Div, Ardmore, OK 73401 USA.
p69
aV[Pislariu, Catalina; Nakashima, Jin; Quan, Li; Blancaflor, Elison B.; Tang, Yuhong; Udvardi, Michael] Samuel Roberts Noble Fdn Inc, Div Plant Biol, Ardmore, OK 73401 USA.
p70
aV[Han, Lu; Xia, Guangmin] Shandong Univ, Key Lab Plant Cell Engn & Germplasm Innovat, Minist Educ, Sch Life Sci, Jinan 250100, Peoples R China.
p71
asS'publisherAddress'
p72
V15501 MONONA DRIVE, ROCKVILLE, MD 20855 USA
p73
sS'ER'
p74
V
sS'publisher'
p75
VAMER SOC PLANT BIOLOGISTS
p76
sS'authorKeywords'
p77
(lp78
VPOLYMERASE-CHAIN-REACTION
p79
aVLEAF SENESCENCE
p80
aVCHLOROPHYLL DEGRADATION
p81
aVREGULATES CHLOROPHYLL
p82
aVNODULE SENESCENCE
p83
aVFESTUCA-PRATENSIS
p84
aVPROTEIN
p85
aVARABIDOPSIS
p86
aVMUTANT
p87
aVEXPRESSION
p88
asS'language'
p89
VEnglish
p90
sS'wosid'
p91
VWOS:000296722300039
p92
sS'citationCount'
p93
I43
sS'authors_init'
p94
(lp95
(VZHOU
VC E
tp96
a(VHAN
VL
tp97
a(VPISLARIU
VC
tp98
a(VNAKASHIMA
VJ
tp99
a(VFU
VC X
tp100
a(VJIANG
VQ Z
tp101
a(VQUAN
VL
tp102
a(VBLANCAFLOR
VE B
tp103
a(VTANG
VY H
tp104
a(VBOUTON
VJ H
tp105
a(VUDVARDI
VM
tp106
a(VXIA
VG M
tp107
a(VWANG
VZ Y
tp108
asS'citedReferences'
p109
(lp110
g1
(g2
g3
NtRp111
(dp112
g63
V10.1104/pp.108.119917
p113
sg59
VPLANT PHYSIOL
p114
sg61
V147
p115
sg94
(lp116
(VALOS
VE
tp117
asg19
I2008
sg57
VLANT
p118
sbag1
(g2
g3
NtRp119
(dp120
g63
V10.1016/j.pbi.2008.11.005
p121
sg59
VCURR OPIN PLANT BIOL
p122
sg61
V12
p123
sg94
(lp124
(VYOUNG
VN D
tp125
asg19
I2009
sg57
V193
p126
sbag1
(g2
g3
NtRp127
(dp128
g63
V10.1126/science.1132912
p129
sg59
VSCIENCE
p130
sg61
V315
p131
sg94
(lp132
(VARMSTEAD
VI
tp133
asg19
I2007
sg57
V73
p134
sbag1
(g2
g3
NtRp135
(dp136
g63
V10.1104/pp.24.1.1
p137
sg59
VPLANT PHYSIOL
p138
sg61
V24
p139
sg94
(lp140
(VARNON
VD I
tp141
asg19
I1949
sg57
VLANT
p142
sbag1
(g2
g3
NtRp143
(dp144
g63
V10.1007/s11103-008-9314-8
p145
sg59
VPLANT MOL BIOL
p146
sg61
V67
p147
sg94
(lp148
(VAUBRY
VS
tp149
asg19
I2008
sg57
VLANT
p150
sbag1
(g2
g3
NtRp151
(dp152
g63
Nsg59
VEUPHYTICA
p153
sg61
V85
p154
sg94
(lp155
(VAUSTIN
VS
tp156
asg19
I1995
sg57
V381
p157
sbag1
(g2
g3
NtRp158
(dp159
g63
V10.1104/pp.108.118430
p160
sg59
VPLANT PHYSIOL
p161
sg61
V147
p162
sg94
(lp163
(VBARRY
VC S
tp164
asg19
I2008
sg57
VLANT
p165
sbag1
(g2
g3
NtRp166
(dp167
g63
V10.1111/j.1365-313X.2008.03519.x
p168
sg59
VPLANT J
p169
sg61
V55
p170
sg94
(lp171
(VBENEDITO
VV A
tp172
asg19
I2008
sg57
VLANT
p173
sbag1
(g2
g3
NtRp174
(dp175
g63
V10.1007/s00122-008-0768-5
p176
sg59
VTHEOR APPL GENET
p177
sg61
V117
p178
sg94
(lp179
(VBOROVSKY
VY
tp180
asg19
I2008
sg57
V235
p181
sbag1
(g2
g3
NtRp182
(dp183
g63
V10.1007/s10681-006-9220-6
p184
sg59
VEUPHYTICA
p185
sg61
V154
p186
sg94
(lp187
(VBOUTON
VJ
tp188
asg19
I2007
sg57
V263
p189
sbag1
(g2
g3
NtRp190
(dp191
g63
Nsg59
VBIOCHEM J
p192
sg61
V125
p193
sg94
(lp194
(VBROUGHTOWJ
S''
tp195
asg19
I1971
sg57
V1075
p196
sbag1
(g2
g3
NtRp197
(dp198
g63
V10.1046/j.1467-7652.2003.00004.x
p199
sg59
VPLANT BIOTECHNOL J
p200
sg61
V1
sg94
(lp201
(VBUCHANAN-WOLLASTON
VV
tp202
asg19
I2003
sg57
VLANT
p203
sbag1
(g2
g3
NtRp204
(dp205
g63
V10.1093/jxb/erp092
p206
sg59
VJ EXP BOT
p207
sg61
V60
p208
sg94
(lp209
(VCHAPIN
VL J
tp210
asg19
I2009
sg57
V2179
p211
sbag1
(g2
g3
NtRp212
(dp213
g63
V10.1073/pnas/0402251101
p214
sg59
VP NATL ACAD SCI USA
p215
sg61
V101
p216
sg94
(lp217
(VCHOI
VH K
tp218
asg19
I2004
sg57
V15289
p219
sbag1
(g2
g3
NtRp220
(dp221
g63
Nsg59
VINTRO GRASSLAND AGR
p222
sg61
Nsg94
(lp223
(VCOLLINS
VM
tp224
asg19
I2003
sg57
V363
p225
sbag1
(g2
g3
NtRp226
(dp227
g63
V10.1016/S1369-5266(99)80053-3
p228
sg59
VCURR OPIN PLANT BIOL
p229
sg61
V2
sg94
(lp230
(VCOOK
VD R
tp231
asg19
I1999
sg57
V301
p232
sbag1
(g2
g3
NtRp233
(dp234
g63
V10.1111/j.1469-8137.2008.02684.x
p235
sg59
VNEW PHYTOL
p236
sg61
V181
p237
sg94
(lp238
(VDE
VMICHELE R
tp239
asg19
I2009
sg57
V563
p240
sbag1
(g2
g3
NtRp241
(dp242
g63
V10.1080/10635150390235520
p243
sg59
VSYST BIOL
p244
sg61
V52
p245
sg94
(lp246
(VGUINDON
VS
tp247
asg19
I2003
sg57
V696
p248
sbag1
(g2
g3
NtRp249
(dp250
g63
V10.1016/j.tplants.2009.01.002
p251
sg59
VTRENDS PLANT SCI
p252
sg61
V14
p253
sg94
(lp254
(VHORTENSTEINER
VS
tp255
asg19
I2009
sg57
V155
p256
sbag1
(g2
g3
NtRp257
(dp258
g63
V10.1146/annurev.arplant.57.032905.105212
p259
sg59
VANNU REV PLANT BIOL
p260
sg61
V57
p261
sg94
(lp262
(VHORTENSTEINER
VS
tp263
asg19
I2006
sg57
V55
p264
sbag1
(g2
g3
NtRp265
(dp266
g63
V10.1111/j.1365-313X.2007.003221.x
p267
sg59
VPLANT J
p268
sg61
V52
p269
sg94
(lp270
(VJIANG
VH W
tp271
asg19
I2007
sg57
VLANT
p272
sbag1
(g2
g3
NtRp273
(dp274
g63
V10.1093/bib/bbn017
p275
sg59
VBRIEF BIOINFORM
p276
sg61
V9
sg94
(lp277
(VKUMAR
VS
tp278
asg19
I2008
sg57
V299
p279
sbag1
(g2
g3
NtRp280
(dp281
g63
V10.1146/annurev.arplant.57.032905.105316
p282
sg59
VANNU REV PLANT BIOL
p283
sg61
V58
p284
sg94
(lp285
(VLIM
VP O
tp286
asg19
I2007
sg57
V115
p287
sbag1
(g2
g3
NtRp288
(dp289
g63
Nsg59
VMETH MOL B
p290
sg61
V286
p291
sg94
(lp292
(VLIU
VY G
tp293
asg19
I2005
sg57
V341
p294
sbag1
(g2
g3
NtRp295
(dp296
g63
V10.1104/pp.120.4.1015
p297
sg59
VPLANT PHYSIOL
p298
sg61
V120
p299
sg94
(lp300
(VMILLER
VJ D
tp301
asg19
I1999
sg57
VLANT
p302
sbag1
(g2
g3
NtRp303
(dp304
g63
Nsg59
VEMBNET NEWS
p305
sg61
V4
sg94
(lp306
(VNICHOLAS
VK B
tp307
asg19
I1997
sg57
V1
sbag1
(g2
g3
NtRp308
(dp309
g63
V10.1105/tpc.106.044891
p310
sg59
VPLANT CELL
p311
sg61
V19
p312
sg94
(lp313
(VPARK
VS Y
tp314
asg19
I2007
sg57
VLANT
p315
sbag1
(g2
g3
NtRp316
(dp317
g63
V10.1093/nar/29.9.e45
p318
sg59
VNUCLEIC ACIDS RES
p319
sg61
V29
p320
sg94
(lp321
(VPFAFFL
VM W
tp322
asg19
I2001
sg57
Nsbag1
(g2
g3
NtRp323
(dp324
g63
V10.1016/S0304-3940(02)01423-4
p325
sg59
VNEUROSCI LETT
p326
sg61
V339
p327
sg94
(lp328
(VRAMAKERS
VC
tp329
asg19
I2003
sg57
V62
p330
sbag1
(g2
g3
NtRp331
(dp332
g63
V10.1104/pp.107.100172
p333
sg59
VPLANT PHYSIOL
p334
sg61
V144
p335
sg94
(lp336
(VREN
VG D
tp337
asg19
I2007
sg57
VLANT
p338
sbag1
(g2
g3
NtRp339
(dp340
g63
V10.1073/pnas.0705521104
p341
sg59
VP NATL ACAD SCI USA
p342
sg61
V104
p343
sg94
(lp344
(VSATO
VY
tp345
asg19
I2007
sg57
V14169
p346
sbag1
(g2
g3
NtRp347
(dp348
g63
V10.1111/j.1365-313X.2008.03670.x
p349
sg59
VPLANT J
p350
sg61
V57
p351
sg94
(lp352
(VSATO
VY
tp353
asg19
I2009
sg57
VLANT
p354
sbag1
(g2
g3
NtRp355
(dp356
g63
V10.1105/tpc.108.064089
p357
sg59
VPLANT CELL
p358
sg61
V21
p359
sg94
(lp360
(VSCHELBERT
VS
tp361
asg19
I2009
sg57
VLANT
p362
sbag1
(g2
g3
NtRp363
(dp364
g63
V10.1111/j.1365-313X.2008.03418.x
p365
sg59
VPLANT J
p366
sg61
V54
p367
sg94
(lp368
(VTADEGE
VM
tp369
asg19
I2008
sg57
VLANT
p370
sbag1
(g2
g3
NtRp371
(dp372
g63
V10.1104/pp.56.3.438
p373
sg59
VPLANT PHYSIOL
p374
sg61
V56
p375
sg94
(lp376
(VTHOMAS
VH
tp377
asg19
I1975
sg57
VLANT
p378
sbag1
(g2
g3
NtRp379
(dp380
g63
V10.1007/BF00289193
p381
sg59
VTHEOR APPL GENET
p382
sg61
V73
p383
sg94
(lp384
(VTHOMAS
VH
tp385
asg19
I1987
sg57
V551
p386
sbag1
(g2
g3
NtRp387
(dp388
g63
V10.1093/jexbot/51.suppl_1.329
p389
sg59
VJ EXP BOT
p390
sg61
V51
p391
sg94
(lp392
(VTHOMAS
VH
tp393
asg19
I2000
sg57
V329
p394
sbag1
(g2
g3
NtRp395
(dp396
g63
V10.1104/pp.106.078691
p397
sg59
VPLANT PHYSIOL
p398
sg61
V141
p399
sg94
(lp400
(VVAN
VD E VELDE W
tp401
asg19
I2006
sg57
VLANT
p402
sbag1
(g2
g3
NtRp403
(dp404
g63
V10.1093/nar/gkl1031
p405
sg59
VNUCLEIC ACIDS RES
p406
sg61
V34
p407
sg94
(lp408
(VYE
VJ
tp409
asg19
I2006
sg57
VW293
p410
sbag1
(g2
g3
NtRp411
(dp412
g63
V10.1104/pp.104.057034
p413
sg59
VPLANT PHYSIOL
p414
sg61
V137
p415
sg94
(lp416
(VYOUNG
VN D
tp417
asg19
I2005
sg57
VLANT
p418
sbag1
(g2
g3
NtRp419
(dp420
g63
V10.1093/nar/gkn276
p421
sg59
VNUCLEIC ACIDS RES
p422
sg61
V36
p423
sg94
(lp424
(VZHENG
VQ
tp425
asg19
I2008
sg57
VW358
p426
sbag1
(g2
g3
NtRp427
(dp428
g63
V10.1105/tpc.111.085464
p429
sg59
VPLANT CELL
p430
sg61
V23
p431
sg94
(lp432
(VZHOU
VC N
tp433
asg19
I2011
sg57
VLANT
p434
sbag1
(g2
g3
NtRp435
(dp436
g63
V10.1104/pp.104.058891
p437
sg59
VPLANT PHYSIOL
p438
sg61
V137
p439
sg94
(lp440
(VZHU
VH Y
tp441
asg19
I2005
sg57
VLANT
p442
sbasb.