ccopy_reg
_reconstructor
p1
(ctethne.classes.paper
Paper
p2
c__builtin__
object
p3
NtRp4
(dp5
S'publisherCity'
p6
VROCKVILLE
p7
sS'reprintAddress'
p8
VDomergue, F (reprint author), Univ Hamburg, Inst Allgemeine Bot, Ohnhorststr 18, D-22609 Hamburg, Germany.
p9
sS'WC'
p10
VPlant Sciences
p11
sS'GA'
p12
V717FQ
p13
sS'abstract'
p14
VIn contrast to 16:3 plants like rapeseed (Brassica napus), which contain alpha-linolenic acid (18:3(Delta9,12,15)) and hexadecatrienoic acid (16:3(Delta7,10,13)) as major polyunsaturated fatty acids in leaves, the silica-less diatom Phaeodactylum tricornutum contains eicosapentaenoic acid (EPA; 20:5(Delta5,8,11,14,17)) and a different isomer of hexadecatrienoic acid (16:3(Delta6,9,12)). In this report, we describe the characterization of two cDNAs having sequence homology to Delta12-fatty acid desaturases from higher plants. These cDNAs were shown to code for a microsomal and a plastidial Delta12-desaturase (PtFAD2 and PtFAD6, respectively) by heterologous expression in yeast (Saccharomyces cerevisiae) and Synechococcus, respectively. Using these systems in the presence of exogenously supplied fatty acids, the substrate specificities of the two desaturases were determined and compared with those of the corresponding rapeseed enzymes (BnFAD2 and BnFAD6). The microsomal desaturases were similarly specific for oleic acid (18:1(Delta9)), suggesting that PtFAD2 is involved in the biosynthesis of EPA. In contrast, the plastidial desaturase from the higher plant and the diatom clearly differed. Although the rapeseed plastidial desaturase showed high activity toward the omega9-fatty acids 18:1(Delta9) and 16:1(Delta7), in line with the fatty acid composition of rapeseed leaves, the enzyme of P. tricornutum was highly specific for 16:1(Delta9). Our results indicate that in contrast to EPA, which is synthesized in the microsomes, the hexadecatrienoic acid isomer found in P. tricornutum (16:3(Delta6,9,12)) is of plastidial origin.
p15
sS'pageEnd'
p16
I1660
sS'publisherAddress'
p17
V15501 MONONA DRIVE, ROCKVILLE, MD 20855 USA
p18
sS'documentType'
p19
VArticle
p20
sS'subject'
p21
VPlant Sciences
p22
sS'isoSource'
p23
VPlant Physiol.
p24
sS'timesCited'
p25
(lp26
I43
aVZ9 50
p27
asS'PT'
p28
VJ
sS'title'
p29
VNew Insight Into Phaeodactylum Tricornutum Fatty Acid Metabolism. Cloning And Functional Characterization Of Plastidial And Microsomal Delta 12-Fatty Acid Desaturases
p30
sS'ISSN'
p31
(lp32
V0032-0889
p33
aVJ9 PLANT PHYSIOL
p34
asS'authors_full'
p35
(lp36
(VDOMERGUE
VF
tp37
a(VSPIEKERMANN
VP
tp38
a(VLERCHL
VJ
tp39
a(VBECKMANN
VC
tp40
a(VKILIAN
VO
tp41
a(VKROTH
VPG
tp42
a(VBOLAND
VW
tp43
a(VZAHRINGER
VU
tp44
a(VHEINZ
VE
tp45
asS'PG'
p46
I13
sS'PD'
p47
VAPR
p48
sS'pageStart'
p49
I1648
sS'issue'
p50
I4
sS'RI'
p51
VKroth, Peter/A-9728-2008
p52
sS'journal'
p53
VPLANT PHYSIOLOGY
p54
sS'volume'
p55
V131
p56
sS'doi'
p57
V10.1104/pp.102.018317
p58
sS'authorAddress'
p59
(lp60
VUniv Hamburg, Inst Allgemeine Bot, D-22609 Hamburg, Germany.
p61
aVBASF Plant Sci GmbH, D-67056 Ludwigshafen, Germany.
p62
aVUniv Konstanz, Fachbereich Biol, D-78457 Constance, Germany.
p63
aVMax Planck Inst Chem Okol, D-07745 Jena, Germany.
p64
aVForschungszentrum Borstel, D-23845 Borstel, Germany.
p65
asS'date'
p66
I2003
sS'ER'
p67
V
sS'publisher'
p68
VAMER SOC PLANT BIOLOGISTS
p69
sS'authorKeywords'
p70
(lp71
VDIATOM PLASTIDS
p72
aVSACCHAROMYCES-CEREVISIAE
p73
aVPOSITIONAL DISTRIBUTION
p74
aVSYNECHOCOCCUS PCC7942
p75
aVENDOPLASMIC-RETICULUM
p76
aVTARGETING SIGNALS
p77
aVMARINE DIATOM
p78
aVBIOSYNTHESIS
p79
aVEXPRESSION
p80
aVCYANOBACTERIUM
p81
asS'language'
p82
VEnglish
p83
sS'wosid'
p84
VWOS:000185076400015
p85
sS'citationCount'
p86
I44
sS'authors_init'
p87
(lp88
(VDOMERGUE
VF
tp89
a(VSPIEKERMANN
VP
tp90
a(VLERCHL
VJ
tp91
a(VBECKMANN
VC
tp92
a(VKILIAN
VO
tp93
a(VKROTH
VP G
tp94
a(VBOLAND
VW
tp95
a(VZAHRINGER
VU
tp96
a(VHEINZ
VE
tp97
asS'citedReferences'
p98
(lp99
g1
(g2
g3
NtRp100
(dp101
g57
V10.1242/jcs.00092
p102
sg53
VJ CELL SCI
p103
sg55
V115
p104
sg87
(lp105
(VAPT
VK E
tp106
asg66
I2002
sg49
V4061
p107
sbag1
(g2
g3
NtRp108
(dp109
g57
V10.1016/S0031-9422(00)83880-7
p110
sg53
VPHYTOCHEMISTRY
p111
sg55
V26
p112
sg87
(lp113
(VARAO
VT
tp114
asg66
I1987
sg49
VHYTOCHEMISTRY
p115
sbag1
(g2
g3
NtRp116
(dp117
g57
V10.1016/S0031-9422(00)94817-9
p118
sg53
VPHYTOCHEMISTRY
p119
sg55
V35
p120
sg87
(lp121
(VARAO
VT
tp122
asg66
I1994
sg49
VHYTOCHEMISTRY
p123
sbag1
(g2
g3
NtRp124
(dp125
g57
Nsg53
VCURRENT PROTOCOLS MO
p126
sg55
Nsg87
(lp127
(VAUSUBEL
VF M
tp128
asg66
I1995
sg49
Nsbag1
(g2
g3
NtRp129
(dp130
g57
V10.1002/cber.19761090513
p131
sg53
VCHEM BER
p132
sg55
V109
p133
sg87
(lp134
(VBESTMANN
VH J
tp135
asg66
I1976
sg49
V1694
p136
sbag1
(g2
g3
NtRp137
(dp138
g57
V10.1007/BF00267462
p139
sg53
VMOL GEN GENET
p140
sg55
V229
p141
sg87
(lp142
(VBHAYA
VD
tp143
asg66
I1991
sg49
V400
p144
sbag1
(g2
g3
NtRp145
(dp146
g57
Nsg53
VAPPL MICROBIOL BIOT
p147
sg55
V34
p148
sg87
(lp149
(VBROKER
VM
tp150
asg66
I1991
sg49
V756
p151
sbag1
(g2
g3
NtRp152
(dp153
g57
V10.1146/annurev.arplant.42.1.467
p154
sg53
VANNU REV PLANT PHYS
p155
sg55
V42
p156
sg87
(lp157
(VBROWSE
VJ
tp158
asg66
I1991
sg49
V467
p159
sbag1
(g2
g3
NtRp160
(dp161
g57
V10.1046/j.1432-1033.2002.03104.x
p162
sg53
VEUR J BIOCHEM
p163
sg55
V269
p164
sg87
(lp165
(VDOMERGUE
VF
tp166
asg66
I2002
sg49
V4105
p167
sbag1
(g2
g3
NtRp168
(dp169
g57
Nsg53
VMETHOD ENZYMOL
p170
sg55
V185
p171
sg87
(lp172
(VDONAHUE
VT F
tp173
asg66
I1990
sg49
V366
p174
sbag1
(g2
g3
NtRp175
(dp176
g57
V10.1016/S0014-5793(01)02315-8
p177
sg53
VFEBS LETT
p178
sg55
V494
p179
sg87
(lp180
(VDYER
VJ M
tp181
asg66
I2001
sg49
V44
p182
sbag1
(g2
g3
NtRp183
(dp184
g57
V10.1006/jmbi.2000.3903
p185
sg53
VJ MOL BIOL
p186
sg55
V300
p187
sg87
(lp188
(VEMANUELSSON
VO
tp189
asg66
I2000
sg49
V1005
p190
sbag1
(g2
g3
NtRp191
(dp192
g57
V10.1104/pp.106.4.1453
p193
sg53
VPLANT PHYSIOL
p194
sg55
V106
p195
sg87
(lp196
(VFALCONE
VD L
tp197
asg66
I1994
sg49
VLANT
p198
sbag1
(g2
g3
NtRp199
(dp200
g57
V10.1104/pp.120.2.599
p201
sg53
VPLANT PHYSIOL
p202
sg55
V120
p203
sg87
(lp204
(VGOTZ
VT
tp205
asg66
I1999
sg49
VLANT
p206
sbag1
(g2
g3
NtRp207
(dp208
g57
V10.1007/BF02178579
p209
sg53
VJ APPL PHYCOL
p210
sg55
V8
sg87
(lp211
(VGRIMA
VE M
tp212
asg66
I1996
sg49
V359
p213
sbag1
(g2
g3
NtRp214
(dp215
g57
V10.1104/pp.105.2.635
p216
sg53
VPLANT PHYSIOL
p217
sg55
V105
p218
sg87
(lp219
(VHITZ
VW D
tp220
asg66
I1994
sg49
VLANT
p221
sbag1
(g2
g3
NtRp222
(dp223
g57
V10.1034/j.1399-3054.1999.100118.x
p224
sg53
VPHYSIOL PLANTARUM
p225
sg55
V107
p226
sg87
(lp227
(VKROTH
VP
tp228
asg66
I1999
sg49
VHYSIOL
p229
sbag1
(g2
g3
NtRp230
(dp231
g57
V10.1074/jbc.273.47.30973
p232
sg53
VJ BIOL CHEM
p233
sg55
V273
p234
sg87
(lp235
(VLANG
VM
tp236
asg66
I1998
sg49
V30973
p237
sbag1
(g2
g3
NtRp238
(dp239
g57
V10.1016/S0005-2760(98)00091-5
p240
sg53
VBBA
p241
sg55
V1394
p242
sg87
(lp243
(VLOS
VD A
tp244
asg66
I1998
sg49
V3
sbag1
(g2
g3
NtRp245
(dp246
g57
V10.1046/j.1529-8817.2001.01126.x
p247
sg53
VJ PHYCOL
p248
sg55
V37
p249
sg87
(lp250
(VMCFADDEN
VG I
tp251
asg66
I2001
sg49
V951
p252
sbag1
(g2
g3
NtRp253
(dp254
g57
V10.1021/bi000756a
p255
sg53
VBIOCHEMISTRY
p256
sg55
V39
p257
sg87
(lp258
(VMEESAPYODSUK
VD
tp259
asg66
I2000
sg49
V11948
p260
sbag1
(g2
g3
NtRp261
(dp262
g57
V10.1038/35011054
p263
sg53
VNATURE
p264
sg55
V405
p265
sg87
(lp266
(VMOREIRA
VD
tp267
asg66
I2000
sg49
V69
p268
sbag1
(g2
g3
NtRp269
(dp270
g57
V10.1007/BF02533560
p271
sg53
VLIPIDS
p272
sg55
V14
p273
sg87
(lp274
(VMORENO
VV J
tp275
asg66
I1979
sg49
V15
p276
sbag1
(g2
g3
NtRp277
(dp278
g57
V10.1007/s11745-001-0782-9
p279
sg53
VLIPIDS
p280
sg55
V36
p281
sg87
(lp282
(VNAPIER
VJ A
tp283
asg66
I2001
sg49
V761
p284
sbag1
(g2
g3
NtRp285
(dp286
g57
Nsg53
VSYNTHESIS
p287
sg55
Nsg87
(lp288
(VNICOLAOU
VK C
tp289
asg66
I1986
sg49
V344
p290
sbag1
(g2
g3
NtRp291
(dp292
g57
V10.1105/tpc.6.1.147
p293
sg53
VPLANT CELL
p294
sg55
V6
sg87
(lp295
(VOKULEY
VJ
tp296
asg66
I1994
sg49
VLANT
p297
sbag1
(g2
g3
NtRp298
(dp299
g57
Nsg53
VCOMPUT APPL BIOSCI
p300
sg55
V12
p301
sg87
(lp302
(VPAGE
VR D M
tp303
asg66
I1996
sg49
V357
p304
sbag1
(g2
g3
NtRp305
(dp306
g57
Nsg53
VEUR J ORG CHEM
p307
sg55
V9
sg87
(lp308
(VPOHNERT
VG
tp309
asg66
I2000
sg49
V1821
p310
sbag1
(g2
g3
NtRp311
(dp312
g57
Nsg53
VJ GEN MICROBIOL
p313
sg55
V111
p314
sg87
(lp315
(VRIPPKA
VR
tp316
asg66
I1979
sg49
V1
sbag1
(g2
g3
NtRp317
(dp318
g57
V10.1104/pp.010713
p319
sg53
VPLANT PHYSIOL
p320
sg55
V129
p321
sg87
(lp322
(VSCALA
VS
tp323
asg66
I2002
sg49
VLANT
p324
sbag1
(g2
g3
NtRp325
(dp326
g57
V10.1007/PL00000804
p327
sg53
VCELL MOL LIFE SCI
p328
sg55
V58
p329
sg87
(lp330
(VSCALA
VS
tp331
asg66
I2001
sg49
V1666
p332
sbag1
(g2
g3
NtRp333
(dp334
g57
Nsg53
VBOT ACTA
p335
sg55
V107
p336
sg87
(lp337
(VSCHLOSSER
VU G
tp338
asg66
I1994
sg49
V113
p339
sbag1
(g2
g3
NtRp340
(dp341
g57
Nsg53
VBIOCHEM J
p342
sg55
V289
p343
sg87
(lp344
(VSCHMIDT
VH
tp345
asg66
I1993
sg49
V777
p346
sbag1
(g2
g3
NtRp347
(dp348
g57
V10.1021/bi00209a009
p349
sg53
VBIOCHEMISTRY
p350
sg55
V33
p351
sg87
(lp352
(VSHANKLIN
VJ
tp353
asg66
I1994
sg49
V12787
p354
sbag1
(g2
g3
NtRp355
(dp356
g57
V10.1146/annurev.arplant.49.1.611
p357
sg53
VANNU REV PLANT PHYS
p358
sg55
V49
p359
sg87
(lp360
(VSHANKLIN
VJ
tp361
asg66
I1998
sg49
V611
p362
sbag1
(g2
g3
NtRp363
(dp364
g57
V10.1046/j.1432-1327.2000.01418.x
p365
sg53
VEUR J BIOCHEM
p366
sg55
V267
p367
sg87
(lp368
(VSPERLING
VP
tp369
asg66
I2000
sg49
V3801
p370
sbag1
(g2
g3
NtRp371
(dp372
g57
V10.1093/nar/25.24.4876
p373
sg53
VNUCLEIC ACIDS RES
p374
sg55
V25
p375
sg87
(lp376
(VTHOMPSON
VJ D
tp377
asg66
I1997
sg49
V4876
p378
sbag1
(g2
g3
NtRp379
(dp380
g57
V10.1126/science.268.5209.375
p381
sg53
VSCIENCE
p382
sg55
V268
p383
sg87
(lp384
(VTREGUER
VP
tp385
asg66
I1995
sg49
V375
p386
sbag1
(g2
g3
NtRp387
(dp388
g57
V10.1016/0378-1119(90)90411-J
p389
sg53
VGENE
p390
sg55
V95
p391
sg87
(lp392
(VVANDERPLAS
VJ
tp393
asg66
I1990
sg49
V39
p394
sbag1
(g2
g3
NtRp395
(dp396
g57
V10.1016/S0163-7827(01)00027-3
p397
sg53
VPROG LIPID RES
p398
sg55
V41
p399
sg87
(lp400
(VWALLIS
VJ G
tp401
asg66
I2002
sg49
VROG
p402
sbag1
(g2
g3
NtRp403
(dp404
g57
Nsg53
VPLANT PHYSIOL
p405
sg55
V104
p406
sg87
(lp407
(VWINDHOVEL
VU
tp408
asg66
I1994
sg49
VLANT
p409
sbag1
(g2
g3
NtRp410
(dp411
g57
Nsg53
VJ GEN MICROBIOL
p412
sg55
V139
p413
sg87
(lp414
(VYONGMANITCHAI
VW
tp415
asg66
I1993
sg49
V465
p416
sbag1
(g2
g3
NtRp417
(dp418
g57
V10.1046/j.1365-313X.2002.01354.x
p419
sg53
VPLANT J
p420
sg55
V31
p421
sg87
(lp422
(VZANK
VT K
tp423
asg66
I2002
sg49
VLANT
p424
sbag1
(g2
g3
NtRp425
(dp426
g57
V10.1046/j.1529-8817.2000.99164.x
p427
sg53
VJ PHYCOL
p428
sg55
V36
p429
sg87
(lp430
(VZASLAVSKAIA
VL A
tp431
asg66
I2000
sg49
V379
p432
sbasb.